   1              		.syntax unified
   2              		.cpu cortex-m4
   3              		.eabi_attribute 27, 3
   4              		.fpu fpv4-sp-d16
   5              		.eabi_attribute 20, 1
   6              		.eabi_attribute 21, 1
   7              		.eabi_attribute 23, 3
   8              		.eabi_attribute 24, 1
   9              		.eabi_attribute 25, 1
  10              		.eabi_attribute 26, 1
  11              		.eabi_attribute 30, 6
  12              		.eabi_attribute 18, 4
  13              		.thumb
  14              		.file	"CMenue.cpp"
  15              		.text
  16              	.Ltext0:
  17              		.cfi_sections	.debug_frame
  18              		.section	.text._ZNK5CTask7IsValidEv,"axG",%progbits,_ZNK5CTask7IsValidEv,comdat
  19              		.align	2
  20              		.weak	_ZNK5CTask7IsValidEv
  21              		.thumb
  22              		.thumb_func
  24              	_ZNK5CTask7IsValidEv:
  25              	.LFB132:
  26              		.file 1 "C:\\Dokumente und Einstellungen\\brand\\Desktop\\thundercyer-the-alarm-clock\\FreeRTOS_EC
   1:C:\Dokumente und Einstellungen\brand\Desktop\thundercyer-the-alarm-clock\FreeRTOS_EC\Source\CTask.h **** /**
   2:C:\Dokumente und Einstellungen\brand\Desktop\thundercyer-the-alarm-clock\FreeRTOS_EC\Source\CTask.h ****  * @file CTask.h
   3:C:\Dokumente und Einstellungen\brand\Desktop\thundercyer-the-alarm-clock\FreeRTOS_EC\Source\CTask.h ****  * @class CTask
   4:C:\Dokumente und Einstellungen\brand\Desktop\thundercyer-the-alarm-clock\FreeRTOS_EC\Source\CTask.h ****  * @ingroup FreeRTOS_Wrapper
   5:C:\Dokumente und Einstellungen\brand\Desktop\thundercyer-the-alarm-clock\FreeRTOS_EC\Source\CTask.h ****  *
   6:C:\Dokumente und Einstellungen\brand\Desktop\thundercyer-the-alarm-clock\FreeRTOS_EC\Source\CTask.h ****  * The CTask class wraps a native FreeRTOS task handle (xTaskHandle). To create a task instance
   7:C:\Dokumente und Einstellungen\brand\Desktop\thundercyer-the-alarm-clock\FreeRTOS_EC\Source\CTask.h ****  * an object of this class and then call its CTask::Create method like showed in the following samp
   8:C:\Dokumente und Einstellungen\brand\Desktop\thundercyer-the-alarm-clock\FreeRTOS_EC\Source\CTask.h ****  * \code
   9:C:\Dokumente und Einstellungen\brand\Desktop\thundercyer-the-alarm-clock\FreeRTOS_EC\Source\CTask.h ****  * CTask g_aTask // global task declaration.
  10:C:\Dokumente und Einstellungen\brand\Desktop\thundercyer-the-alarm-clock\FreeRTOS_EC\Source\CTask.h ****  *
  11:C:\Dokumente und Einstellungen\brand\Desktop\thundercyer-the-alarm-clock\FreeRTOS_EC\Source\CTask.h ****  * void main()
  12:C:\Dokumente und Einstellungen\brand\Desktop\thundercyer-the-alarm-clock\FreeRTOS_EC\Source\CTask.h ****  * {
  13:C:\Dokumente und Einstellungen\brand\Desktop\thundercyer-the-alarm-clock\FreeRTOS_EC\Source\CTask.h ****  * 	g_aTask.Create(task_control_func, "Led2", configMINIMAL_STACK_SIZE, mainFLASH_TASK_PRIORITY);
  14:C:\Dokumente und Einstellungen\brand\Desktop\thundercyer-the-alarm-clock\FreeRTOS_EC\Source\CTask.h ****  *
  15:C:\Dokumente und Einstellungen\brand\Desktop\thundercyer-the-alarm-clock\FreeRTOS_EC\Source\CTask.h ****  * 	CFreeRTOS::StartScheduler();
  16:C:\Dokumente und Einstellungen\brand\Desktop\thundercyer-the-alarm-clock\FreeRTOS_EC\Source\CTask.h ****  * }
  17:C:\Dokumente und Einstellungen\brand\Desktop\thundercyer-the-alarm-clock\FreeRTOS_EC\Source\CTask.h ****  * \endcode
  18:C:\Dokumente und Einstellungen\brand\Desktop\thundercyer-the-alarm-clock\FreeRTOS_EC\Source\CTask.h ****  *
  19:C:\Dokumente und Einstellungen\brand\Desktop\thundercyer-the-alarm-clock\FreeRTOS_EC\Source\CTask.h ****  * Usually the application subclass this class to create an application specific task object.
  20:C:\Dokumente und Einstellungen\brand\Desktop\thundercyer-the-alarm-clock\FreeRTOS_EC\Source\CTask.h ****  * See the CHelloWorld class for an example.
  21:C:\Dokumente und Einstellungen\brand\Desktop\thundercyer-the-alarm-clock\FreeRTOS_EC\Source\CTask.h ****  *
  22:C:\Dokumente und Einstellungen\brand\Desktop\thundercyer-the-alarm-clock\FreeRTOS_EC\Source\CTask.h ****  * \sa <a href="http://www.freertos.org/taskandcr.html">task documentation</a> in the FreeRTOS web 
  23:C:\Dokumente und Einstellungen\brand\Desktop\thundercyer-the-alarm-clock\FreeRTOS_EC\Source\CTask.h ****  *
  24:C:\Dokumente und Einstellungen\brand\Desktop\thundercyer-the-alarm-clock\FreeRTOS_EC\Source\CTask.h ****  * @date Jul 5, 2010
  25:C:\Dokumente und Einstellungen\brand\Desktop\thundercyer-the-alarm-clock\FreeRTOS_EC\Source\CTask.h ****  * @author Stefano Oliveri (STF12.net)
  26:C:\Dokumente und Einstellungen\brand\Desktop\thundercyer-the-alarm-clock\FreeRTOS_EC\Source\CTask.h ****  *         E-Mail: software@stf12.net
  27:C:\Dokumente und Einstellungen\brand\Desktop\thundercyer-the-alarm-clock\FreeRTOS_EC\Source\CTask.h ****  */
  28:C:\Dokumente und Einstellungen\brand\Desktop\thundercyer-the-alarm-clock\FreeRTOS_EC\Source\CTask.h **** 
  29:C:\Dokumente und Einstellungen\brand\Desktop\thundercyer-the-alarm-clock\FreeRTOS_EC\Source\CTask.h **** #ifndef CTASK_H_
  30:C:\Dokumente und Einstellungen\brand\Desktop\thundercyer-the-alarm-clock\FreeRTOS_EC\Source\CTask.h **** #define CTASK_H_
  31:C:\Dokumente und Einstellungen\brand\Desktop\thundercyer-the-alarm-clock\FreeRTOS_EC\Source\CTask.h **** 
  32:C:\Dokumente und Einstellungen\brand\Desktop\thundercyer-the-alarm-clock\FreeRTOS_EC\Source\CTask.h **** #include "FreeRTOS.h"
  33:C:\Dokumente und Einstellungen\brand\Desktop\thundercyer-the-alarm-clock\FreeRTOS_EC\Source\CTask.h **** #include "task.h"
  34:C:\Dokumente und Einstellungen\brand\Desktop\thundercyer-the-alarm-clock\FreeRTOS_EC\Source\CTask.h **** #include "IFreeRTOSProtocol.h"
  35:C:\Dokumente und Einstellungen\brand\Desktop\thundercyer-the-alarm-clock\FreeRTOS_EC\Source\CTask.h **** 
  36:C:\Dokumente und Einstellungen\brand\Desktop\thundercyer-the-alarm-clock\FreeRTOS_EC\Source\CTask.h **** class CTask: public IFreeRTOSObj {
  37:C:\Dokumente und Einstellungen\brand\Desktop\thundercyer-the-alarm-clock\FreeRTOS_EC\Source\CTask.h **** 
  38:C:\Dokumente und Einstellungen\brand\Desktop\thundercyer-the-alarm-clock\FreeRTOS_EC\Source\CTask.h **** 	/**
  39:C:\Dokumente und Einstellungen\brand\Desktop\thundercyer-the-alarm-clock\FreeRTOS_EC\Source\CTask.h **** 	 * Specifies the native FreeRTOS handle managed by an instance of this class.
  40:C:\Dokumente und Einstellungen\brand\Desktop\thundercyer-the-alarm-clock\FreeRTOS_EC\Source\CTask.h **** 	 */
  41:C:\Dokumente und Einstellungen\brand\Desktop\thundercyer-the-alarm-clock\FreeRTOS_EC\Source\CTask.h **** 	xTaskHandle m_handleTask;
  42:C:\Dokumente und Einstellungen\brand\Desktop\thundercyer-the-alarm-clock\FreeRTOS_EC\Source\CTask.h **** 
  43:C:\Dokumente und Einstellungen\brand\Desktop\thundercyer-the-alarm-clock\FreeRTOS_EC\Source\CTask.h **** public:
  44:C:\Dokumente und Einstellungen\brand\Desktop\thundercyer-the-alarm-clock\FreeRTOS_EC\Source\CTask.h **** 	/**
  45:C:\Dokumente und Einstellungen\brand\Desktop\thundercyer-the-alarm-clock\FreeRTOS_EC\Source\CTask.h **** 	 * The default constructor. It initializes the object without attaching it to a native FreeRTOS ha
  46:C:\Dokumente und Einstellungen\brand\Desktop\thundercyer-the-alarm-clock\FreeRTOS_EC\Source\CTask.h **** 	 * Call the Create method to allocate a task handle and attach it to the object.
  47:C:\Dokumente und Einstellungen\brand\Desktop\thundercyer-the-alarm-clock\FreeRTOS_EC\Source\CTask.h **** 	 */
  48:C:\Dokumente und Einstellungen\brand\Desktop\thundercyer-the-alarm-clock\FreeRTOS_EC\Source\CTask.h **** 	CTask();
  49:C:\Dokumente und Einstellungen\brand\Desktop\thundercyer-the-alarm-clock\FreeRTOS_EC\Source\CTask.h **** 
  50:C:\Dokumente und Einstellungen\brand\Desktop\thundercyer-the-alarm-clock\FreeRTOS_EC\Source\CTask.h **** 	/**
  51:C:\Dokumente und Einstellungen\brand\Desktop\thundercyer-the-alarm-clock\FreeRTOS_EC\Source\CTask.h **** 	 * Create a CTask instance and attach it to a valid handle.
  52:C:\Dokumente und Einstellungen\brand\Desktop\thundercyer-the-alarm-clock\FreeRTOS_EC\Source\CTask.h **** 	 *
  53:C:\Dokumente und Einstellungen\brand\Desktop\thundercyer-the-alarm-clock\FreeRTOS_EC\Source\CTask.h **** 	 * @param handleTask a valid task handle.
  54:C:\Dokumente und Einstellungen\brand\Desktop\thundercyer-the-alarm-clock\FreeRTOS_EC\Source\CTask.h **** 	 */
  55:C:\Dokumente und Einstellungen\brand\Desktop\thundercyer-the-alarm-clock\FreeRTOS_EC\Source\CTask.h **** 	CTask(xTaskHandle handleTask);
  56:C:\Dokumente und Einstellungen\brand\Desktop\thundercyer-the-alarm-clock\FreeRTOS_EC\Source\CTask.h **** 
  57:C:\Dokumente und Einstellungen\brand\Desktop\thundercyer-the-alarm-clock\FreeRTOS_EC\Source\CTask.h **** 	/**
  58:C:\Dokumente und Einstellungen\brand\Desktop\thundercyer-the-alarm-clock\FreeRTOS_EC\Source\CTask.h **** 	 * Delete the native FreeRTOS task.
  59:C:\Dokumente und Einstellungen\brand\Desktop\thundercyer-the-alarm-clock\FreeRTOS_EC\Source\CTask.h **** 	 */
  60:C:\Dokumente und Einstellungen\brand\Desktop\thundercyer-the-alarm-clock\FreeRTOS_EC\Source\CTask.h **** 	virtual ~CTask();
  61:C:\Dokumente und Einstellungen\brand\Desktop\thundercyer-the-alarm-clock\FreeRTOS_EC\Source\CTask.h **** 
  62:C:\Dokumente und Einstellungen\brand\Desktop\thundercyer-the-alarm-clock\FreeRTOS_EC\Source\CTask.h **** 	/**
  63:C:\Dokumente und Einstellungen\brand\Desktop\thundercyer-the-alarm-clock\FreeRTOS_EC\Source\CTask.h **** 	 * Retrieve the native FreeRTOS task handle attached to this object.
  64:C:\Dokumente und Einstellungen\brand\Desktop\thundercyer-the-alarm-clock\FreeRTOS_EC\Source\CTask.h **** 	 *
  65:C:\Dokumente und Einstellungen\brand\Desktop\thundercyer-the-alarm-clock\FreeRTOS_EC\Source\CTask.h **** 	 * @return the native FreeRTOS task handle attached to this object.
  66:C:\Dokumente und Einstellungen\brand\Desktop\thundercyer-the-alarm-clock\FreeRTOS_EC\Source\CTask.h **** 	 */
  67:C:\Dokumente und Einstellungen\brand\Desktop\thundercyer-the-alarm-clock\FreeRTOS_EC\Source\CTask.h **** 	inline operator xTaskHandle() const { return m_handleTask; }
  68:C:\Dokumente und Einstellungen\brand\Desktop\thundercyer-the-alarm-clock\FreeRTOS_EC\Source\CTask.h **** 
  69:C:\Dokumente und Einstellungen\brand\Desktop\thundercyer-the-alarm-clock\FreeRTOS_EC\Source\CTask.h **** 	// FreeRTOS API Wrappers
  70:C:\Dokumente und Einstellungen\brand\Desktop\thundercyer-the-alarm-clock\FreeRTOS_EC\Source\CTask.h **** 
  71:C:\Dokumente und Einstellungen\brand\Desktop\thundercyer-the-alarm-clock\FreeRTOS_EC\Source\CTask.h **** 	/**
  72:C:\Dokumente und Einstellungen\brand\Desktop\thundercyer-the-alarm-clock\FreeRTOS_EC\Source\CTask.h **** 	 * Create a FreeRTOS task and attach its handle to the receiver object.
  73:C:\Dokumente und Einstellungen\brand\Desktop\thundercyer-the-alarm-clock\FreeRTOS_EC\Source\CTask.h **** 	 *
  74:C:\Dokumente und Einstellungen\brand\Desktop\thundercyer-the-alarm-clock\FreeRTOS_EC\Source\CTask.h **** 	 * \sa <a href="http://www.freertos.org/a00125.html">xTaskCreate</a> FreeRTOS API function.
  75:C:\Dokumente und Einstellungen\brand\Desktop\thundercyer-the-alarm-clock\FreeRTOS_EC\Source\CTask.h **** 	 */
  76:C:\Dokumente und Einstellungen\brand\Desktop\thundercyer-the-alarm-clock\FreeRTOS_EC\Source\CTask.h **** 	portBASE_TYPE Create(pdTASK_CODE pvTaskCode, const portCHAR * const pcName, unsigned portSHORT usS
  77:C:\Dokumente und Einstellungen\brand\Desktop\thundercyer-the-alarm-clock\FreeRTOS_EC\Source\CTask.h **** 
  78:C:\Dokumente und Einstellungen\brand\Desktop\thundercyer-the-alarm-clock\FreeRTOS_EC\Source\CTask.h **** 	/**
  79:C:\Dokumente und Einstellungen\brand\Desktop\thundercyer-the-alarm-clock\FreeRTOS_EC\Source\CTask.h **** 	 * Create a Memory Protection Unit (MPU) restricted task and attach its handle to the receiver obj
  80:C:\Dokumente und Einstellungen\brand\Desktop\thundercyer-the-alarm-clock\FreeRTOS_EC\Source\CTask.h **** 	 *
  81:C:\Dokumente und Einstellungen\brand\Desktop\thundercyer-the-alarm-clock\FreeRTOS_EC\Source\CTask.h **** 	 * \sa <a href="http://www.freertos.org/xTaskCreateRestricted.html">xTaskCreateRestricted</a> Free
  82:C:\Dokumente und Einstellungen\brand\Desktop\thundercyer-the-alarm-clock\FreeRTOS_EC\Source\CTask.h **** 	 */
  83:C:\Dokumente und Einstellungen\brand\Desktop\thundercyer-the-alarm-clock\FreeRTOS_EC\Source\CTask.h **** 	portBASE_TYPE CreateRestricted(xTaskParameters *pxTaskDefinition);
  84:C:\Dokumente und Einstellungen\brand\Desktop\thundercyer-the-alarm-clock\FreeRTOS_EC\Source\CTask.h **** 
  85:C:\Dokumente und Einstellungen\brand\Desktop\thundercyer-the-alarm-clock\FreeRTOS_EC\Source\CTask.h **** 	/**
  86:C:\Dokumente und Einstellungen\brand\Desktop\thundercyer-the-alarm-clock\FreeRTOS_EC\Source\CTask.h **** 	 * \sa <a href="http://www.freertos.org/a00126.html">vTaskDelete</a>  FreeRTOS API function.
  87:C:\Dokumente und Einstellungen\brand\Desktop\thundercyer-the-alarm-clock\FreeRTOS_EC\Source\CTask.h **** 	 */
  88:C:\Dokumente und Einstellungen\brand\Desktop\thundercyer-the-alarm-clock\FreeRTOS_EC\Source\CTask.h **** 	void Delete();
  89:C:\Dokumente und Einstellungen\brand\Desktop\thundercyer-the-alarm-clock\FreeRTOS_EC\Source\CTask.h **** 
  90:C:\Dokumente und Einstellungen\brand\Desktop\thundercyer-the-alarm-clock\FreeRTOS_EC\Source\CTask.h **** 	/**
  91:C:\Dokumente und Einstellungen\brand\Desktop\thundercyer-the-alarm-clock\FreeRTOS_EC\Source\CTask.h **** 	 * \sa <a href="http://www.freertos.org/a00127.html">vTaskDelay</a>  FreeRTOS API function.
  92:C:\Dokumente und Einstellungen\brand\Desktop\thundercyer-the-alarm-clock\FreeRTOS_EC\Source\CTask.h **** 	 */
  93:C:\Dokumente und Einstellungen\brand\Desktop\thundercyer-the-alarm-clock\FreeRTOS_EC\Source\CTask.h **** 	inline static void Delay(portTickType xTicksToDelay);
  94:C:\Dokumente und Einstellungen\brand\Desktop\thundercyer-the-alarm-clock\FreeRTOS_EC\Source\CTask.h **** 
  95:C:\Dokumente und Einstellungen\brand\Desktop\thundercyer-the-alarm-clock\FreeRTOS_EC\Source\CTask.h **** 	/**
  96:C:\Dokumente und Einstellungen\brand\Desktop\thundercyer-the-alarm-clock\FreeRTOS_EC\Source\CTask.h **** 	 * \sa <a href="http://www.freertos.org/vtaskdelayuntil.html">vTaskDelayUntil</a>  FreeRTOS API fu
  97:C:\Dokumente und Einstellungen\brand\Desktop\thundercyer-the-alarm-clock\FreeRTOS_EC\Source\CTask.h **** 	 */
  98:C:\Dokumente und Einstellungen\brand\Desktop\thundercyer-the-alarm-clock\FreeRTOS_EC\Source\CTask.h ****     inline static void DelayUntil(portTickType *pxPreviousWakeTime, portTickType xTimeIncrement);
  99:C:\Dokumente und Einstellungen\brand\Desktop\thundercyer-the-alarm-clock\FreeRTOS_EC\Source\CTask.h **** 
 100:C:\Dokumente und Einstellungen\brand\Desktop\thundercyer-the-alarm-clock\FreeRTOS_EC\Source\CTask.h ****     /**
 101:C:\Dokumente und Einstellungen\brand\Desktop\thundercyer-the-alarm-clock\FreeRTOS_EC\Source\CTask.h ****      * \sa <a href="http://www.freertos.org/a00020.html#taskYIELD">taskYIELD</a>  FreeRTOS API func
 102:C:\Dokumente und Einstellungen\brand\Desktop\thundercyer-the-alarm-clock\FreeRTOS_EC\Source\CTask.h ****      */
 103:C:\Dokumente und Einstellungen\brand\Desktop\thundercyer-the-alarm-clock\FreeRTOS_EC\Source\CTask.h ****     inline static void Yeld() { taskYIELD(); }
 104:C:\Dokumente und Einstellungen\brand\Desktop\thundercyer-the-alarm-clock\FreeRTOS_EC\Source\CTask.h **** 
 105:C:\Dokumente und Einstellungen\brand\Desktop\thundercyer-the-alarm-clock\FreeRTOS_EC\Source\CTask.h ****     /**
 106:C:\Dokumente und Einstellungen\brand\Desktop\thundercyer-the-alarm-clock\FreeRTOS_EC\Source\CTask.h ****      * \sa <a href="http://www.freertos.org/a00020.html#taskENTER_CRITICAL">taskENTER_CRITICAL</a> 
 107:C:\Dokumente und Einstellungen\brand\Desktop\thundercyer-the-alarm-clock\FreeRTOS_EC\Source\CTask.h ****      */
 108:C:\Dokumente und Einstellungen\brand\Desktop\thundercyer-the-alarm-clock\FreeRTOS_EC\Source\CTask.h ****     inline static void EnterCritical() { taskENTER_CRITICAL(); }
 109:C:\Dokumente und Einstellungen\brand\Desktop\thundercyer-the-alarm-clock\FreeRTOS_EC\Source\CTask.h **** 
 110:C:\Dokumente und Einstellungen\brand\Desktop\thundercyer-the-alarm-clock\FreeRTOS_EC\Source\CTask.h ****     /**
 111:C:\Dokumente und Einstellungen\brand\Desktop\thundercyer-the-alarm-clock\FreeRTOS_EC\Source\CTask.h ****      * \sa <a href="http://www.freertos.org/a00020.html#taskEXIT_CRITICAL">taskEXIT_CRITICAL</a>  F
 112:C:\Dokumente und Einstellungen\brand\Desktop\thundercyer-the-alarm-clock\FreeRTOS_EC\Source\CTask.h ****      */
 113:C:\Dokumente und Einstellungen\brand\Desktop\thundercyer-the-alarm-clock\FreeRTOS_EC\Source\CTask.h ****     inline static void ExitCritical() { taskEXIT_CRITICAL(); }
 114:C:\Dokumente und Einstellungen\brand\Desktop\thundercyer-the-alarm-clock\FreeRTOS_EC\Source\CTask.h **** 
 115:C:\Dokumente und Einstellungen\brand\Desktop\thundercyer-the-alarm-clock\FreeRTOS_EC\Source\CTask.h ****     /**
 116:C:\Dokumente und Einstellungen\brand\Desktop\thundercyer-the-alarm-clock\FreeRTOS_EC\Source\CTask.h ****      * \sa <a href="http://www.freertos.org/a00020.html#taskDISABLE_INTERRUPTS">taskDISABLE_INTERRU
 117:C:\Dokumente und Einstellungen\brand\Desktop\thundercyer-the-alarm-clock\FreeRTOS_EC\Source\CTask.h ****      */
 118:C:\Dokumente und Einstellungen\brand\Desktop\thundercyer-the-alarm-clock\FreeRTOS_EC\Source\CTask.h ****     inline static void DisableInterrupt() { taskDISABLE_INTERRUPTS(); }
 119:C:\Dokumente und Einstellungen\brand\Desktop\thundercyer-the-alarm-clock\FreeRTOS_EC\Source\CTask.h **** 
 120:C:\Dokumente und Einstellungen\brand\Desktop\thundercyer-the-alarm-clock\FreeRTOS_EC\Source\CTask.h ****     /**
 121:C:\Dokumente und Einstellungen\brand\Desktop\thundercyer-the-alarm-clock\FreeRTOS_EC\Source\CTask.h ****      * \sa <a href="http://www.freertos.org/a00020.html#taskENABLE_INTERRUPTS">taskENABLE_INTERRUPT
 122:C:\Dokumente und Einstellungen\brand\Desktop\thundercyer-the-alarm-clock\FreeRTOS_EC\Source\CTask.h ****      */
 123:C:\Dokumente und Einstellungen\brand\Desktop\thundercyer-the-alarm-clock\FreeRTOS_EC\Source\CTask.h ****     inline static void EnableInterrupt() { taskENABLE_INTERRUPTS(); }
 124:C:\Dokumente und Einstellungen\brand\Desktop\thundercyer-the-alarm-clock\FreeRTOS_EC\Source\CTask.h **** 
 125:C:\Dokumente und Einstellungen\brand\Desktop\thundercyer-the-alarm-clock\FreeRTOS_EC\Source\CTask.h ****     /**
 126:C:\Dokumente und Einstellungen\brand\Desktop\thundercyer-the-alarm-clock\FreeRTOS_EC\Source\CTask.h ****      * \sa <a href="http://www.freertos.org/a00021.html#xTaskGetCurrentTaskHandle">xTaskGetCurrentT
 127:C:\Dokumente und Einstellungen\brand\Desktop\thundercyer-the-alarm-clock\FreeRTOS_EC\Source\CTask.h ****      */
 128:C:\Dokumente und Einstellungen\brand\Desktop\thundercyer-the-alarm-clock\FreeRTOS_EC\Source\CTask.h ****     inline static xTaskHandle GetCurrentTaskHandle();
 129:C:\Dokumente und Einstellungen\brand\Desktop\thundercyer-the-alarm-clock\FreeRTOS_EC\Source\CTask.h **** 
 130:C:\Dokumente und Einstellungen\brand\Desktop\thundercyer-the-alarm-clock\FreeRTOS_EC\Source\CTask.h ****     /**
 131:C:\Dokumente und Einstellungen\brand\Desktop\thundercyer-the-alarm-clock\FreeRTOS_EC\Source\CTask.h ****      * \sa <a href="http://www.freertos.org/a00021.html#xTaskGetTickCount">xTaskGetTickCount</a>  F
 132:C:\Dokumente und Einstellungen\brand\Desktop\thundercyer-the-alarm-clock\FreeRTOS_EC\Source\CTask.h ****      */
 133:C:\Dokumente und Einstellungen\brand\Desktop\thundercyer-the-alarm-clock\FreeRTOS_EC\Source\CTask.h ****     inline static portTickType GetTickCount();
 134:C:\Dokumente und Einstellungen\brand\Desktop\thundercyer-the-alarm-clock\FreeRTOS_EC\Source\CTask.h **** 
 135:C:\Dokumente und Einstellungen\brand\Desktop\thundercyer-the-alarm-clock\FreeRTOS_EC\Source\CTask.h ****     /**
 136:C:\Dokumente und Einstellungen\brand\Desktop\thundercyer-the-alarm-clock\FreeRTOS_EC\Source\CTask.h ****      * \sa <a href="http://www.freertos.org/a00021.html#xTaskGetSchedulerState">xTaskGetSchedulerSt
 137:C:\Dokumente und Einstellungen\brand\Desktop\thundercyer-the-alarm-clock\FreeRTOS_EC\Source\CTask.h ****      */
 138:C:\Dokumente und Einstellungen\brand\Desktop\thundercyer-the-alarm-clock\FreeRTOS_EC\Source\CTask.h ****     inline static portBASE_TYPE GetSchedulerState();
 139:C:\Dokumente und Einstellungen\brand\Desktop\thundercyer-the-alarm-clock\FreeRTOS_EC\Source\CTask.h **** 
 140:C:\Dokumente und Einstellungen\brand\Desktop\thundercyer-the-alarm-clock\FreeRTOS_EC\Source\CTask.h ****     /**
 141:C:\Dokumente und Einstellungen\brand\Desktop\thundercyer-the-alarm-clock\FreeRTOS_EC\Source\CTask.h ****      * \sa <a href="http://www.freertos.org/a00021.html#usTaskGetNumberOfTasks">uxTaskGetNumberOfTa
 142:C:\Dokumente und Einstellungen\brand\Desktop\thundercyer-the-alarm-clock\FreeRTOS_EC\Source\CTask.h ****      */
 143:C:\Dokumente und Einstellungen\brand\Desktop\thundercyer-the-alarm-clock\FreeRTOS_EC\Source\CTask.h ****     inline static unsigned portBASE_TYPE GetNumberOfTasks();
 144:C:\Dokumente und Einstellungen\brand\Desktop\thundercyer-the-alarm-clock\FreeRTOS_EC\Source\CTask.h **** 
 145:C:\Dokumente und Einstellungen\brand\Desktop\thundercyer-the-alarm-clock\FreeRTOS_EC\Source\CTask.h ****     /**
 146:C:\Dokumente und Einstellungen\brand\Desktop\thundercyer-the-alarm-clock\FreeRTOS_EC\Source\CTask.h ****      * \sa <a href="http://www.freertos.org/a00021.html#vTaskList">vTaskList</a>  FreeRTOS API func
 147:C:\Dokumente und Einstellungen\brand\Desktop\thundercyer-the-alarm-clock\FreeRTOS_EC\Source\CTask.h ****      */
 148:C:\Dokumente und Einstellungen\brand\Desktop\thundercyer-the-alarm-clock\FreeRTOS_EC\Source\CTask.h ****     inline static void GetTaskList(portCHAR *pcWriteBuffer);
 149:C:\Dokumente und Einstellungen\brand\Desktop\thundercyer-the-alarm-clock\FreeRTOS_EC\Source\CTask.h **** 
 150:C:\Dokumente und Einstellungen\brand\Desktop\thundercyer-the-alarm-clock\FreeRTOS_EC\Source\CTask.h ****     /**
 151:C:\Dokumente und Einstellungen\brand\Desktop\thundercyer-the-alarm-clock\FreeRTOS_EC\Source\CTask.h ****      * \sa <a href="http://www.freertos.org/a00021.html#vTaskGetRunTimeStats">vTaskGetRunTimeStats<
 152:C:\Dokumente und Einstellungen\brand\Desktop\thundercyer-the-alarm-clock\FreeRTOS_EC\Source\CTask.h ****      */
 153:C:\Dokumente und Einstellungen\brand\Desktop\thundercyer-the-alarm-clock\FreeRTOS_EC\Source\CTask.h ****     inline static void GetRunTimeStats(portCHAR *pcWriteBuffer);
 154:C:\Dokumente und Einstellungen\brand\Desktop\thundercyer-the-alarm-clock\FreeRTOS_EC\Source\CTask.h **** 
 155:C:\Dokumente und Einstellungen\brand\Desktop\thundercyer-the-alarm-clock\FreeRTOS_EC\Source\CTask.h ****     /**
 156:C:\Dokumente und Einstellungen\brand\Desktop\thundercyer-the-alarm-clock\FreeRTOS_EC\Source\CTask.h ****      * \sa <a href="http://www.freertos.org/a00128.html">uxTaskPriorityGet</a>  FreeRTOS API functi
 157:C:\Dokumente und Einstellungen\brand\Desktop\thundercyer-the-alarm-clock\FreeRTOS_EC\Source\CTask.h ****      */
 158:C:\Dokumente und Einstellungen\brand\Desktop\thundercyer-the-alarm-clock\FreeRTOS_EC\Source\CTask.h ****     inline unsigned portBASE_TYPE PriorityGet() const;
 159:C:\Dokumente und Einstellungen\brand\Desktop\thundercyer-the-alarm-clock\FreeRTOS_EC\Source\CTask.h **** 
 160:C:\Dokumente und Einstellungen\brand\Desktop\thundercyer-the-alarm-clock\FreeRTOS_EC\Source\CTask.h ****     /**
 161:C:\Dokumente und Einstellungen\brand\Desktop\thundercyer-the-alarm-clock\FreeRTOS_EC\Source\CTask.h ****      * \sa <a href="http://www.freertos.org/a00129.html">vTaskPrioritySet</a>  FreeRTOS API functio
 162:C:\Dokumente und Einstellungen\brand\Desktop\thundercyer-the-alarm-clock\FreeRTOS_EC\Source\CTask.h ****      */
 163:C:\Dokumente und Einstellungen\brand\Desktop\thundercyer-the-alarm-clock\FreeRTOS_EC\Source\CTask.h ****     inline void PrioritySet(unsigned portBASE_TYPE uxNewPriority);
 164:C:\Dokumente und Einstellungen\brand\Desktop\thundercyer-the-alarm-clock\FreeRTOS_EC\Source\CTask.h **** 
 165:C:\Dokumente und Einstellungen\brand\Desktop\thundercyer-the-alarm-clock\FreeRTOS_EC\Source\CTask.h ****     /**
 166:C:\Dokumente und Einstellungen\brand\Desktop\thundercyer-the-alarm-clock\FreeRTOS_EC\Source\CTask.h ****      * \sa <a href="http://www.freertos.org/a00130.html">vTaskSuspend</a>  FreeRTOS API function.
 167:C:\Dokumente und Einstellungen\brand\Desktop\thundercyer-the-alarm-clock\FreeRTOS_EC\Source\CTask.h ****      */
 168:C:\Dokumente und Einstellungen\brand\Desktop\thundercyer-the-alarm-clock\FreeRTOS_EC\Source\CTask.h ****     inline void Suspend();
 169:C:\Dokumente und Einstellungen\brand\Desktop\thundercyer-the-alarm-clock\FreeRTOS_EC\Source\CTask.h **** 
 170:C:\Dokumente und Einstellungen\brand\Desktop\thundercyer-the-alarm-clock\FreeRTOS_EC\Source\CTask.h ****     /**
 171:C:\Dokumente und Einstellungen\brand\Desktop\thundercyer-the-alarm-clock\FreeRTOS_EC\Source\CTask.h ****      * \sa <a href="http://www.freertos.org/a00131.html">vTaskResume</a>  FreeRTOS API function.
 172:C:\Dokumente und Einstellungen\brand\Desktop\thundercyer-the-alarm-clock\FreeRTOS_EC\Source\CTask.h ****      */
 173:C:\Dokumente und Einstellungen\brand\Desktop\thundercyer-the-alarm-clock\FreeRTOS_EC\Source\CTask.h ****     inline void Resume();
 174:C:\Dokumente und Einstellungen\brand\Desktop\thundercyer-the-alarm-clock\FreeRTOS_EC\Source\CTask.h **** 
 175:C:\Dokumente und Einstellungen\brand\Desktop\thundercyer-the-alarm-clock\FreeRTOS_EC\Source\CTask.h ****     /**
 176:C:\Dokumente und Einstellungen\brand\Desktop\thundercyer-the-alarm-clock\FreeRTOS_EC\Source\CTask.h ****      * \sa <a href="http://www.freertos.org/taskresumefromisr.html">xTaskResumeFromISR</a>  FreeRTO
 177:C:\Dokumente und Einstellungen\brand\Desktop\thundercyer-the-alarm-clock\FreeRTOS_EC\Source\CTask.h ****      */
 178:C:\Dokumente und Einstellungen\brand\Desktop\thundercyer-the-alarm-clock\FreeRTOS_EC\Source\CTask.h ****     inline portBASE_TYPE ResumeFromISR();
 179:C:\Dokumente und Einstellungen\brand\Desktop\thundercyer-the-alarm-clock\FreeRTOS_EC\Source\CTask.h **** 
 180:C:\Dokumente und Einstellungen\brand\Desktop\thundercyer-the-alarm-clock\FreeRTOS_EC\Source\CTask.h ****     /**
 181:C:\Dokumente und Einstellungen\brand\Desktop\thundercyer-the-alarm-clock\FreeRTOS_EC\Source\CTask.h ****      * \sa <a href="http://www.freertos.org/vTaskSetApplicationTag.html">vTaskSetApplicationTaskTag
 182:C:\Dokumente und Einstellungen\brand\Desktop\thundercyer-the-alarm-clock\FreeRTOS_EC\Source\CTask.h ****      */
 183:C:\Dokumente und Einstellungen\brand\Desktop\thundercyer-the-alarm-clock\FreeRTOS_EC\Source\CTask.h ****     inline void SetApplicationTag(pdTASK_HOOK_CODE pxTagValue);
 184:C:\Dokumente und Einstellungen\brand\Desktop\thundercyer-the-alarm-clock\FreeRTOS_EC\Source\CTask.h **** 
 185:C:\Dokumente und Einstellungen\brand\Desktop\thundercyer-the-alarm-clock\FreeRTOS_EC\Source\CTask.h ****     /**
 186:C:\Dokumente und Einstellungen\brand\Desktop\thundercyer-the-alarm-clock\FreeRTOS_EC\Source\CTask.h ****      * \sa <a href="http://www.freertos.org/xTaskCallApplicationTaskHook.html">xTaskCallApplication
 187:C:\Dokumente und Einstellungen\brand\Desktop\thundercyer-the-alarm-clock\FreeRTOS_EC\Source\CTask.h ****      */
 188:C:\Dokumente und Einstellungen\brand\Desktop\thundercyer-the-alarm-clock\FreeRTOS_EC\Source\CTask.h ****     inline portBASE_TYPE CallApplicationTaskHook(void *pvParameter);
 189:C:\Dokumente und Einstellungen\brand\Desktop\thundercyer-the-alarm-clock\FreeRTOS_EC\Source\CTask.h **** 
 190:C:\Dokumente und Einstellungen\brand\Desktop\thundercyer-the-alarm-clock\FreeRTOS_EC\Source\CTask.h ****     /**
 191:C:\Dokumente und Einstellungen\brand\Desktop\thundercyer-the-alarm-clock\FreeRTOS_EC\Source\CTask.h ****      * \sa <a href="http://www.freertos.org/vTaskAllocateMPURegions.html">vTaskAllocateMPURegions</
 192:C:\Dokumente und Einstellungen\brand\Desktop\thundercyer-the-alarm-clock\FreeRTOS_EC\Source\CTask.h ****      */
 193:C:\Dokumente und Einstellungen\brand\Desktop\thundercyer-the-alarm-clock\FreeRTOS_EC\Source\CTask.h ****     inline void AllocateMPURegions(const xMemoryRegion * const xRegions);
 194:C:\Dokumente und Einstellungen\brand\Desktop\thundercyer-the-alarm-clock\FreeRTOS_EC\Source\CTask.h **** 
 195:C:\Dokumente und Einstellungen\brand\Desktop\thundercyer-the-alarm-clock\FreeRTOS_EC\Source\CTask.h ****     // FreeRTOS class extension.
 196:C:\Dokumente und Einstellungen\brand\Desktop\thundercyer-the-alarm-clock\FreeRTOS_EC\Source\CTask.h **** 	inline bool IsValid() const;
 197:C:\Dokumente und Einstellungen\brand\Desktop\thundercyer-the-alarm-clock\FreeRTOS_EC\Source\CTask.h **** 	void Attach(xGenericHandle handle);
 198:C:\Dokumente und Einstellungen\brand\Desktop\thundercyer-the-alarm-clock\FreeRTOS_EC\Source\CTask.h **** 	inline xGenericHandle Detach();
 199:C:\Dokumente und Einstellungen\brand\Desktop\thundercyer-the-alarm-clock\FreeRTOS_EC\Source\CTask.h **** };
 200:C:\Dokumente und Einstellungen\brand\Desktop\thundercyer-the-alarm-clock\FreeRTOS_EC\Source\CTask.h **** 
 201:C:\Dokumente und Einstellungen\brand\Desktop\thundercyer-the-alarm-clock\FreeRTOS_EC\Source\CTask.h **** // inline method
 202:C:\Dokumente und Einstellungen\brand\Desktop\thundercyer-the-alarm-clock\FreeRTOS_EC\Source\CTask.h **** ////////////////
 203:C:\Dokumente und Einstellungen\brand\Desktop\thundercyer-the-alarm-clock\FreeRTOS_EC\Source\CTask.h **** 
 204:C:\Dokumente und Einstellungen\brand\Desktop\thundercyer-the-alarm-clock\FreeRTOS_EC\Source\CTask.h **** inline
 205:C:\Dokumente und Einstellungen\brand\Desktop\thundercyer-the-alarm-clock\FreeRTOS_EC\Source\CTask.h **** void CTask::Delay(portTickType xTicksToDelay) {
 206:C:\Dokumente und Einstellungen\brand\Desktop\thundercyer-the-alarm-clock\FreeRTOS_EC\Source\CTask.h **** #if ( INCLUDE_vTaskDelay == 1 )
 207:C:\Dokumente und Einstellungen\brand\Desktop\thundercyer-the-alarm-clock\FreeRTOS_EC\Source\CTask.h **** 	vTaskDelay(xTicksToDelay);
 208:C:\Dokumente und Einstellungen\brand\Desktop\thundercyer-the-alarm-clock\FreeRTOS_EC\Source\CTask.h **** #endif
 209:C:\Dokumente und Einstellungen\brand\Desktop\thundercyer-the-alarm-clock\FreeRTOS_EC\Source\CTask.h **** }
 210:C:\Dokumente und Einstellungen\brand\Desktop\thundercyer-the-alarm-clock\FreeRTOS_EC\Source\CTask.h **** 
 211:C:\Dokumente und Einstellungen\brand\Desktop\thundercyer-the-alarm-clock\FreeRTOS_EC\Source\CTask.h **** inline
 212:C:\Dokumente und Einstellungen\brand\Desktop\thundercyer-the-alarm-clock\FreeRTOS_EC\Source\CTask.h **** void CTask::DelayUntil(portTickType *pxPreviousWakeTime, portTickType xTimeIncrement) {
 213:C:\Dokumente und Einstellungen\brand\Desktop\thundercyer-the-alarm-clock\FreeRTOS_EC\Source\CTask.h **** #if ( INCLUDE_vTaskDelayUntil == 1 )
 214:C:\Dokumente und Einstellungen\brand\Desktop\thundercyer-the-alarm-clock\FreeRTOS_EC\Source\CTask.h **** 	vTaskDelayUntil(pxPreviousWakeTime, xTimeIncrement);
 215:C:\Dokumente und Einstellungen\brand\Desktop\thundercyer-the-alarm-clock\FreeRTOS_EC\Source\CTask.h **** #endif
 216:C:\Dokumente und Einstellungen\brand\Desktop\thundercyer-the-alarm-clock\FreeRTOS_EC\Source\CTask.h **** }
 217:C:\Dokumente und Einstellungen\brand\Desktop\thundercyer-the-alarm-clock\FreeRTOS_EC\Source\CTask.h **** 
 218:C:\Dokumente und Einstellungen\brand\Desktop\thundercyer-the-alarm-clock\FreeRTOS_EC\Source\CTask.h **** inline
 219:C:\Dokumente und Einstellungen\brand\Desktop\thundercyer-the-alarm-clock\FreeRTOS_EC\Source\CTask.h **** xTaskHandle CTask::GetCurrentTaskHandle() {
 220:C:\Dokumente und Einstellungen\brand\Desktop\thundercyer-the-alarm-clock\FreeRTOS_EC\Source\CTask.h **** 	return xTaskGetCurrentTaskHandle();
 221:C:\Dokumente und Einstellungen\brand\Desktop\thundercyer-the-alarm-clock\FreeRTOS_EC\Source\CTask.h **** }
 222:C:\Dokumente und Einstellungen\brand\Desktop\thundercyer-the-alarm-clock\FreeRTOS_EC\Source\CTask.h **** 
 223:C:\Dokumente und Einstellungen\brand\Desktop\thundercyer-the-alarm-clock\FreeRTOS_EC\Source\CTask.h **** inline
 224:C:\Dokumente und Einstellungen\brand\Desktop\thundercyer-the-alarm-clock\FreeRTOS_EC\Source\CTask.h **** portTickType CTask::GetTickCount() {
 225:C:\Dokumente und Einstellungen\brand\Desktop\thundercyer-the-alarm-clock\FreeRTOS_EC\Source\CTask.h **** 	return xTaskGetTickCount();
 226:C:\Dokumente und Einstellungen\brand\Desktop\thundercyer-the-alarm-clock\FreeRTOS_EC\Source\CTask.h **** }
 227:C:\Dokumente und Einstellungen\brand\Desktop\thundercyer-the-alarm-clock\FreeRTOS_EC\Source\CTask.h **** 
 228:C:\Dokumente und Einstellungen\brand\Desktop\thundercyer-the-alarm-clock\FreeRTOS_EC\Source\CTask.h **** inline
 229:C:\Dokumente und Einstellungen\brand\Desktop\thundercyer-the-alarm-clock\FreeRTOS_EC\Source\CTask.h **** portBASE_TYPE CTask::GetSchedulerState() {
 230:C:\Dokumente und Einstellungen\brand\Desktop\thundercyer-the-alarm-clock\FreeRTOS_EC\Source\CTask.h **** #if ( INCLUDE_xTaskGetSchedulerState == 1 )
 231:C:\Dokumente und Einstellungen\brand\Desktop\thundercyer-the-alarm-clock\FreeRTOS_EC\Source\CTask.h **** 	return xTaskGetSchedulerState();
 232:C:\Dokumente und Einstellungen\brand\Desktop\thundercyer-the-alarm-clock\FreeRTOS_EC\Source\CTask.h **** #else
 233:C:\Dokumente und Einstellungen\brand\Desktop\thundercyer-the-alarm-clock\FreeRTOS_EC\Source\CTask.h **** 	return 0;
 234:C:\Dokumente und Einstellungen\brand\Desktop\thundercyer-the-alarm-clock\FreeRTOS_EC\Source\CTask.h **** #endif
 235:C:\Dokumente und Einstellungen\brand\Desktop\thundercyer-the-alarm-clock\FreeRTOS_EC\Source\CTask.h **** }
 236:C:\Dokumente und Einstellungen\brand\Desktop\thundercyer-the-alarm-clock\FreeRTOS_EC\Source\CTask.h **** 
 237:C:\Dokumente und Einstellungen\brand\Desktop\thundercyer-the-alarm-clock\FreeRTOS_EC\Source\CTask.h **** inline
 238:C:\Dokumente und Einstellungen\brand\Desktop\thundercyer-the-alarm-clock\FreeRTOS_EC\Source\CTask.h **** unsigned portBASE_TYPE CTask::GetNumberOfTasks() {
 239:C:\Dokumente und Einstellungen\brand\Desktop\thundercyer-the-alarm-clock\FreeRTOS_EC\Source\CTask.h **** 	return uxTaskGetNumberOfTasks();
 240:C:\Dokumente und Einstellungen\brand\Desktop\thundercyer-the-alarm-clock\FreeRTOS_EC\Source\CTask.h **** }
 241:C:\Dokumente und Einstellungen\brand\Desktop\thundercyer-the-alarm-clock\FreeRTOS_EC\Source\CTask.h **** 
 242:C:\Dokumente und Einstellungen\brand\Desktop\thundercyer-the-alarm-clock\FreeRTOS_EC\Source\CTask.h **** inline
 243:C:\Dokumente und Einstellungen\brand\Desktop\thundercyer-the-alarm-clock\FreeRTOS_EC\Source\CTask.h **** void CTask::GetTaskList(portCHAR *pcWriteBuffer) {
 244:C:\Dokumente und Einstellungen\brand\Desktop\thundercyer-the-alarm-clock\FreeRTOS_EC\Source\CTask.h **** #if ( configUSE_TRACE_FACILITY == 1 )
 245:C:\Dokumente und Einstellungen\brand\Desktop\thundercyer-the-alarm-clock\FreeRTOS_EC\Source\CTask.h **** 	vTaskList((signed portCHAR*)pcWriteBuffer);
 246:C:\Dokumente und Einstellungen\brand\Desktop\thundercyer-the-alarm-clock\FreeRTOS_EC\Source\CTask.h **** #endif
 247:C:\Dokumente und Einstellungen\brand\Desktop\thundercyer-the-alarm-clock\FreeRTOS_EC\Source\CTask.h **** }
 248:C:\Dokumente und Einstellungen\brand\Desktop\thundercyer-the-alarm-clock\FreeRTOS_EC\Source\CTask.h **** 
 249:C:\Dokumente und Einstellungen\brand\Desktop\thundercyer-the-alarm-clock\FreeRTOS_EC\Source\CTask.h **** inline
 250:C:\Dokumente und Einstellungen\brand\Desktop\thundercyer-the-alarm-clock\FreeRTOS_EC\Source\CTask.h **** void CTask::GetRunTimeStats(portCHAR *pcWriteBuffer) {
 251:C:\Dokumente und Einstellungen\brand\Desktop\thundercyer-the-alarm-clock\FreeRTOS_EC\Source\CTask.h **** #if (configGENERATE_RUN_TIME_STATS == 1)
 252:C:\Dokumente und Einstellungen\brand\Desktop\thundercyer-the-alarm-clock\FreeRTOS_EC\Source\CTask.h **** 	vTaskGetRunTimeStats((signed portCHAR*)pcWriteBuffer);
 253:C:\Dokumente und Einstellungen\brand\Desktop\thundercyer-the-alarm-clock\FreeRTOS_EC\Source\CTask.h **** #endif
 254:C:\Dokumente und Einstellungen\brand\Desktop\thundercyer-the-alarm-clock\FreeRTOS_EC\Source\CTask.h **** }
 255:C:\Dokumente und Einstellungen\brand\Desktop\thundercyer-the-alarm-clock\FreeRTOS_EC\Source\CTask.h **** 
 256:C:\Dokumente und Einstellungen\brand\Desktop\thundercyer-the-alarm-clock\FreeRTOS_EC\Source\CTask.h **** inline
 257:C:\Dokumente und Einstellungen\brand\Desktop\thundercyer-the-alarm-clock\FreeRTOS_EC\Source\CTask.h **** unsigned portBASE_TYPE CTask::PriorityGet() const {
 258:C:\Dokumente und Einstellungen\brand\Desktop\thundercyer-the-alarm-clock\FreeRTOS_EC\Source\CTask.h **** #if ( INCLUDE_uxTaskPriorityGet == 1 )
 259:C:\Dokumente und Einstellungen\brand\Desktop\thundercyer-the-alarm-clock\FreeRTOS_EC\Source\CTask.h **** 	return uxTaskPriorityGet(m_handleTask);
 260:C:\Dokumente und Einstellungen\brand\Desktop\thundercyer-the-alarm-clock\FreeRTOS_EC\Source\CTask.h **** #else
 261:C:\Dokumente und Einstellungen\brand\Desktop\thundercyer-the-alarm-clock\FreeRTOS_EC\Source\CTask.h **** 	return -1;
 262:C:\Dokumente und Einstellungen\brand\Desktop\thundercyer-the-alarm-clock\FreeRTOS_EC\Source\CTask.h **** #endif
 263:C:\Dokumente und Einstellungen\brand\Desktop\thundercyer-the-alarm-clock\FreeRTOS_EC\Source\CTask.h **** }
 264:C:\Dokumente und Einstellungen\brand\Desktop\thundercyer-the-alarm-clock\FreeRTOS_EC\Source\CTask.h **** 
 265:C:\Dokumente und Einstellungen\brand\Desktop\thundercyer-the-alarm-clock\FreeRTOS_EC\Source\CTask.h **** inline
 266:C:\Dokumente und Einstellungen\brand\Desktop\thundercyer-the-alarm-clock\FreeRTOS_EC\Source\CTask.h **** void CTask::PrioritySet(unsigned portBASE_TYPE uxNewPriority) {
 267:C:\Dokumente und Einstellungen\brand\Desktop\thundercyer-the-alarm-clock\FreeRTOS_EC\Source\CTask.h **** #if ( INCLUDE_vTaskPrioritySet == 1 )
 268:C:\Dokumente und Einstellungen\brand\Desktop\thundercyer-the-alarm-clock\FreeRTOS_EC\Source\CTask.h **** 	vTaskPrioritySet(m_handleTask, uxNewPriority);
 269:C:\Dokumente und Einstellungen\brand\Desktop\thundercyer-the-alarm-clock\FreeRTOS_EC\Source\CTask.h **** #endif
 270:C:\Dokumente und Einstellungen\brand\Desktop\thundercyer-the-alarm-clock\FreeRTOS_EC\Source\CTask.h **** }
 271:C:\Dokumente und Einstellungen\brand\Desktop\thundercyer-the-alarm-clock\FreeRTOS_EC\Source\CTask.h **** 
 272:C:\Dokumente und Einstellungen\brand\Desktop\thundercyer-the-alarm-clock\FreeRTOS_EC\Source\CTask.h **** inline
 273:C:\Dokumente und Einstellungen\brand\Desktop\thundercyer-the-alarm-clock\FreeRTOS_EC\Source\CTask.h **** void CTask::Suspend() {
 274:C:\Dokumente und Einstellungen\brand\Desktop\thundercyer-the-alarm-clock\FreeRTOS_EC\Source\CTask.h **** #if ( INCLUDE_vTaskSuspend == 1 )
 275:C:\Dokumente und Einstellungen\brand\Desktop\thundercyer-the-alarm-clock\FreeRTOS_EC\Source\CTask.h **** 	vTaskSuspend(m_handleTask);
 276:C:\Dokumente und Einstellungen\brand\Desktop\thundercyer-the-alarm-clock\FreeRTOS_EC\Source\CTask.h **** #endif
 277:C:\Dokumente und Einstellungen\brand\Desktop\thundercyer-the-alarm-clock\FreeRTOS_EC\Source\CTask.h **** }
 278:C:\Dokumente und Einstellungen\brand\Desktop\thundercyer-the-alarm-clock\FreeRTOS_EC\Source\CTask.h **** 
 279:C:\Dokumente und Einstellungen\brand\Desktop\thundercyer-the-alarm-clock\FreeRTOS_EC\Source\CTask.h **** inline
 280:C:\Dokumente und Einstellungen\brand\Desktop\thundercyer-the-alarm-clock\FreeRTOS_EC\Source\CTask.h **** void CTask::Resume() {
 281:C:\Dokumente und Einstellungen\brand\Desktop\thundercyer-the-alarm-clock\FreeRTOS_EC\Source\CTask.h **** #if ( INCLUDE_vTaskSuspend == 1 )
 282:C:\Dokumente und Einstellungen\brand\Desktop\thundercyer-the-alarm-clock\FreeRTOS_EC\Source\CTask.h **** 	vTaskResume(m_handleTask);
 283:C:\Dokumente und Einstellungen\brand\Desktop\thundercyer-the-alarm-clock\FreeRTOS_EC\Source\CTask.h **** #endif
 284:C:\Dokumente und Einstellungen\brand\Desktop\thundercyer-the-alarm-clock\FreeRTOS_EC\Source\CTask.h **** }
 285:C:\Dokumente und Einstellungen\brand\Desktop\thundercyer-the-alarm-clock\FreeRTOS_EC\Source\CTask.h **** 
 286:C:\Dokumente und Einstellungen\brand\Desktop\thundercyer-the-alarm-clock\FreeRTOS_EC\Source\CTask.h **** inline
 287:C:\Dokumente und Einstellungen\brand\Desktop\thundercyer-the-alarm-clock\FreeRTOS_EC\Source\CTask.h **** portBASE_TYPE CTask::ResumeFromISR() {
 288:C:\Dokumente und Einstellungen\brand\Desktop\thundercyer-the-alarm-clock\FreeRTOS_EC\Source\CTask.h **** #if ( ( INCLUDE_xTaskResumeFromISR == 1 ) && ( INCLUDE_vTaskSuspend == 1 ) )
 289:C:\Dokumente und Einstellungen\brand\Desktop\thundercyer-the-alarm-clock\FreeRTOS_EC\Source\CTask.h **** 	return xTaskResumeFromISR(m_handleTask);
 290:C:\Dokumente und Einstellungen\brand\Desktop\thundercyer-the-alarm-clock\FreeRTOS_EC\Source\CTask.h **** #else
 291:C:\Dokumente und Einstellungen\brand\Desktop\thundercyer-the-alarm-clock\FreeRTOS_EC\Source\CTask.h **** 	return pdFALSE;
 292:C:\Dokumente und Einstellungen\brand\Desktop\thundercyer-the-alarm-clock\FreeRTOS_EC\Source\CTask.h **** #endif
 293:C:\Dokumente und Einstellungen\brand\Desktop\thundercyer-the-alarm-clock\FreeRTOS_EC\Source\CTask.h **** }
 294:C:\Dokumente und Einstellungen\brand\Desktop\thundercyer-the-alarm-clock\FreeRTOS_EC\Source\CTask.h **** 
 295:C:\Dokumente und Einstellungen\brand\Desktop\thundercyer-the-alarm-clock\FreeRTOS_EC\Source\CTask.h **** inline
 296:C:\Dokumente und Einstellungen\brand\Desktop\thundercyer-the-alarm-clock\FreeRTOS_EC\Source\CTask.h **** void CTask::SetApplicationTag(pdTASK_HOOK_CODE pxTagValue) {
 297:C:\Dokumente und Einstellungen\brand\Desktop\thundercyer-the-alarm-clock\FreeRTOS_EC\Source\CTask.h **** #if ( configUSE_APPLICATION_TASK_TAG == 1 )
 298:C:\Dokumente und Einstellungen\brand\Desktop\thundercyer-the-alarm-clock\FreeRTOS_EC\Source\CTask.h **** 	vTaskSetApplicationTaskTag(m_handleTask, pxTagValue);
 299:C:\Dokumente und Einstellungen\brand\Desktop\thundercyer-the-alarm-clock\FreeRTOS_EC\Source\CTask.h **** #endif
 300:C:\Dokumente und Einstellungen\brand\Desktop\thundercyer-the-alarm-clock\FreeRTOS_EC\Source\CTask.h **** }
 301:C:\Dokumente und Einstellungen\brand\Desktop\thundercyer-the-alarm-clock\FreeRTOS_EC\Source\CTask.h **** 
 302:C:\Dokumente und Einstellungen\brand\Desktop\thundercyer-the-alarm-clock\FreeRTOS_EC\Source\CTask.h **** inline
 303:C:\Dokumente und Einstellungen\brand\Desktop\thundercyer-the-alarm-clock\FreeRTOS_EC\Source\CTask.h **** portBASE_TYPE CTask::CallApplicationTaskHook(void *pvParameter) {
 304:C:\Dokumente und Einstellungen\brand\Desktop\thundercyer-the-alarm-clock\FreeRTOS_EC\Source\CTask.h **** #if ( configUSE_APPLICATION_TASK_TAG == 1 )
 305:C:\Dokumente und Einstellungen\brand\Desktop\thundercyer-the-alarm-clock\FreeRTOS_EC\Source\CTask.h **** 	return xTaskCallApplicationTaskHook(m_handleTask, pvParameter);
 306:C:\Dokumente und Einstellungen\brand\Desktop\thundercyer-the-alarm-clock\FreeRTOS_EC\Source\CTask.h **** #else
 307:C:\Dokumente und Einstellungen\brand\Desktop\thundercyer-the-alarm-clock\FreeRTOS_EC\Source\CTask.h **** 	return 0;
 308:C:\Dokumente und Einstellungen\brand\Desktop\thundercyer-the-alarm-clock\FreeRTOS_EC\Source\CTask.h **** #endif
 309:C:\Dokumente und Einstellungen\brand\Desktop\thundercyer-the-alarm-clock\FreeRTOS_EC\Source\CTask.h **** }
 310:C:\Dokumente und Einstellungen\brand\Desktop\thundercyer-the-alarm-clock\FreeRTOS_EC\Source\CTask.h **** 
 311:C:\Dokumente und Einstellungen\brand\Desktop\thundercyer-the-alarm-clock\FreeRTOS_EC\Source\CTask.h **** inline
 312:C:\Dokumente und Einstellungen\brand\Desktop\thundercyer-the-alarm-clock\FreeRTOS_EC\Source\CTask.h **** void CTask::AllocateMPURegions(const xMemoryRegion * const xRegions) {
 313:C:\Dokumente und Einstellungen\brand\Desktop\thundercyer-the-alarm-clock\FreeRTOS_EC\Source\CTask.h **** #if ( portUSING_MPU_WRAPPERS == 1 )
 314:C:\Dokumente und Einstellungen\brand\Desktop\thundercyer-the-alarm-clock\FreeRTOS_EC\Source\CTask.h **** 	vTaskAllocateMPURegions(m_handleTask, xRegions);
 315:C:\Dokumente und Einstellungen\brand\Desktop\thundercyer-the-alarm-clock\FreeRTOS_EC\Source\CTask.h **** #endif
 316:C:\Dokumente und Einstellungen\brand\Desktop\thundercyer-the-alarm-clock\FreeRTOS_EC\Source\CTask.h **** }
 317:C:\Dokumente und Einstellungen\brand\Desktop\thundercyer-the-alarm-clock\FreeRTOS_EC\Source\CTask.h **** 
 318:C:\Dokumente und Einstellungen\brand\Desktop\thundercyer-the-alarm-clock\FreeRTOS_EC\Source\CTask.h **** inline
 319:C:\Dokumente und Einstellungen\brand\Desktop\thundercyer-the-alarm-clock\FreeRTOS_EC\Source\CTask.h **** bool CTask::IsValid() const{
  27              		.loc 1 319 0
  28              		.cfi_startproc
  29              		@ args = 0, pretend = 0, frame = 8
  30              		@ frame_needed = 1, uses_anonymous_args = 0
  31              		@ link register save eliminated.
  32 0000 80B4     		push	{r7}
  33              	.LCFI0:
  34              		.cfi_def_cfa_offset 4
  35              		.cfi_offset 7, -4
  36 0002 83B0     		sub	sp, sp, #12
  37              	.LCFI1:
  38              		.cfi_def_cfa_offset 16
  39 0004 00AF     		add	r7, sp, #0
  40              	.LCFI2:
  41              		.cfi_def_cfa_register 7
  42 0006 7860     		str	r0, [r7, #4]
 320:C:\Dokumente und Einstellungen\brand\Desktop\thundercyer-the-alarm-clock\FreeRTOS_EC\Source\CTask.h **** 	return m_handleTask != NULL;
  43              		.loc 1 320 0
  44 0008 7B68     		ldr	r3, [r7, #4]
  45 000a 5B68     		ldr	r3, [r3, #4]
  46 000c 002B     		cmp	r3, #0
  47 000e 0CBF     		ite	eq
  48 0010 0023     		moveq	r3, #0
  49 0012 0123     		movne	r3, #1
  50 0014 DBB2     		uxtb	r3, r3
 321:C:\Dokumente und Einstellungen\brand\Desktop\thundercyer-the-alarm-clock\FreeRTOS_EC\Source\CTask.h **** }
  51              		.loc 1 321 0
  52 0016 1846     		mov	r0, r3
  53 0018 07F10C07 		add	r7, r7, #12
  54 001c BD46     		mov	sp, r7
  55 001e 80BC     		pop	{r7}
  56 0020 7047     		bx	lr
  57              		.cfi_endproc
  58              	.LFE132:
  60 0022 00BF     		.section	.text._ZN5CTask6DetachEv,"axG",%progbits,_ZN5CTask6DetachEv,comdat
  61              		.align	2
  62              		.weak	_ZN5CTask6DetachEv
  63              		.thumb
  64              		.thumb_func
  66              	_ZN5CTask6DetachEv:
  67              	.LFB133:
 322:C:\Dokumente und Einstellungen\brand\Desktop\thundercyer-the-alarm-clock\FreeRTOS_EC\Source\CTask.h **** 
 323:C:\Dokumente und Einstellungen\brand\Desktop\thundercyer-the-alarm-clock\FreeRTOS_EC\Source\CTask.h **** inline
 324:C:\Dokumente und Einstellungen\brand\Desktop\thundercyer-the-alarm-clock\FreeRTOS_EC\Source\CTask.h **** xGenericHandle CTask::Detach() {
  68              		.loc 1 324 0
  69              		.cfi_startproc
  70              		@ args = 0, pretend = 0, frame = 16
  71              		@ frame_needed = 1, uses_anonymous_args = 0
  72              		@ link register save eliminated.
  73 0000 80B4     		push	{r7}
  74              	.LCFI3:
  75              		.cfi_def_cfa_offset 4
  76              		.cfi_offset 7, -4
  77 0002 85B0     		sub	sp, sp, #20
  78              	.LCFI4:
  79              		.cfi_def_cfa_offset 24
  80 0004 00AF     		add	r7, sp, #0
  81              	.LCFI5:
  82              		.cfi_def_cfa_register 7
  83 0006 7860     		str	r0, [r7, #4]
  84              	.LBB2:
 325:C:\Dokumente und Einstellungen\brand\Desktop\thundercyer-the-alarm-clock\FreeRTOS_EC\Source\CTask.h **** 	xTaskHandle res = m_handleTask;
  85              		.loc 1 325 0
  86 0008 7B68     		ldr	r3, [r7, #4]
  87 000a 5B68     		ldr	r3, [r3, #4]
  88 000c FB60     		str	r3, [r7, #12]
 326:C:\Dokumente und Einstellungen\brand\Desktop\thundercyer-the-alarm-clock\FreeRTOS_EC\Source\CTask.h **** 	m_handleTask = NULL;
  89              		.loc 1 326 0
  90 000e 7B68     		ldr	r3, [r7, #4]
  91 0010 4FF00002 		mov	r2, #0
  92 0014 5A60     		str	r2, [r3, #4]
 327:C:\Dokumente und Einstellungen\brand\Desktop\thundercyer-the-alarm-clock\FreeRTOS_EC\Source\CTask.h **** 	return res;
  93              		.loc 1 327 0
  94 0016 FB68     		ldr	r3, [r7, #12]
  95              	.LBE2:
 328:C:\Dokumente und Einstellungen\brand\Desktop\thundercyer-the-alarm-clock\FreeRTOS_EC\Source\CTask.h **** }
  96              		.loc 1 328 0
  97 0018 1846     		mov	r0, r3
  98 001a 07F11407 		add	r7, r7, #20
  99 001e BD46     		mov	sp, r7
 100 0020 80BC     		pop	{r7}
 101 0022 7047     		bx	lr
 102              		.cfi_endproc
 103              	.LFE133:
 105              		.section	.text._ZN12AManagedTask8OnCreateEPKctm,"axG",%progbits,_ZN12AManagedTask8OnCreateEPKctm,c
 106              		.align	2
 107              		.weak	_ZN12AManagedTask8OnCreateEPKctm
 108              		.thumb
 109              		.thumb_func
 111              	_ZN12AManagedTask8OnCreateEPKctm:
 112              	.LFB135:
 113              		.file 2 "C:\\Dokumente und Einstellungen\\brand\\Desktop\\thundercyer-the-alarm-clock\\FreeRTOS_EC
   1:C:\Dokumente und Einstellungen\brand\Desktop\thundercyer-the-alarm-clock\FreeRTOS_EC\Source\AManagedTask.h **** /**
   2:C:\Dokumente und Einstellungen\brand\Desktop\thundercyer-the-alarm-clock\FreeRTOS_EC\Source\AManagedTask.h ****  * @file AManagedTask.h
   3:C:\Dokumente und Einstellungen\brand\Desktop\thundercyer-the-alarm-clock\FreeRTOS_EC\Source\AManagedTask.h ****  * @class AManagedTask
   4:C:\Dokumente und Einstellungen\brand\Desktop\thundercyer-the-alarm-clock\FreeRTOS_EC\Source\AManagedTask.h ****  *
   5:C:\Dokumente und Einstellungen\brand\Desktop\thundercyer-the-alarm-clock\FreeRTOS_EC\Source\AManagedTask.h ****  * This class extend the CTask in order to provide a more structured and simple to use framework fo
   6:C:\Dokumente und Einstellungen\brand\Desktop\thundercyer-the-alarm-clock\FreeRTOS_EC\Source\AManagedTask.h ****  * FreeRTOS programming. All AManagedTask derived objects are grouped in linked list. Please note t
   7:C:\Dokumente und Einstellungen\brand\Desktop\thundercyer-the-alarm-clock\FreeRTOS_EC\Source\AManagedTask.h ****  * this data structure can be modified in a next release. The framework manage these task objects
   8:C:\Dokumente und Einstellungen\brand\Desktop\thundercyer-the-alarm-clock\FreeRTOS_EC\Source\AManagedTask.h ****  * by calling their methods during the application life cycle.
   9:C:\Dokumente und Einstellungen\brand\Desktop\thundercyer-the-alarm-clock\FreeRTOS_EC\Source\AManagedTask.h ****  *
  10:C:\Dokumente und Einstellungen\brand\Desktop\thundercyer-the-alarm-clock\FreeRTOS_EC\Source\AManagedTask.h ****  * The application extend this abstract class to create a managed task and provide its control loop
  11:C:\Dokumente und Einstellungen\brand\Desktop\thundercyer-the-alarm-clock\FreeRTOS_EC\Source\AManagedTask.h ****  * \code
  12:C:\Dokumente und Einstellungen\brand\Desktop\thundercyer-the-alarm-clock\FreeRTOS_EC\Source\AManagedTask.h ****  * class CMyPipe: public AManagedTask
  13:C:\Dokumente und Einstellungen\brand\Desktop\thundercyer-the-alarm-clock\FreeRTOS_EC\Source\AManagedTask.h ****  * {
  14:C:\Dokumente und Einstellungen\brand\Desktop\thundercyer-the-alarm-clock\FreeRTOS_EC\Source\AManagedTask.h ****  *   // Task private variables.
  15:C:\Dokumente und Einstellungen\brand\Desktop\thundercyer-the-alarm-clock\FreeRTOS_EC\Source\AManagedTask.h ****  *
  16:C:\Dokumente und Einstellungen\brand\Desktop\thundercyer-the-alarm-clock\FreeRTOS_EC\Source\AManagedTask.h ****  * public:
  17:C:\Dokumente und Einstellungen\brand\Desktop\thundercyer-the-alarm-clock\FreeRTOS_EC\Source\AManagedTask.h ****  *   void Run() {  task control loop  };
  18:C:\Dokumente und Einstellungen\brand\Desktop\thundercyer-the-alarm-clock\FreeRTOS_EC\Source\AManagedTask.h ****  * }
  19:C:\Dokumente und Einstellungen\brand\Desktop\thundercyer-the-alarm-clock\FreeRTOS_EC\Source\AManagedTask.h ****  * \endcode
  20:C:\Dokumente und Einstellungen\brand\Desktop\thundercyer-the-alarm-clock\FreeRTOS_EC\Source\AManagedTask.h ****  *
  21:C:\Dokumente und Einstellungen\brand\Desktop\thundercyer-the-alarm-clock\FreeRTOS_EC\Source\AManagedTask.h ****  * @date Aug 3, 2010
  22:C:\Dokumente und Einstellungen\brand\Desktop\thundercyer-the-alarm-clock\FreeRTOS_EC\Source\AManagedTask.h ****  * @author Stefano Oliveri
  23:C:\Dokumente und Einstellungen\brand\Desktop\thundercyer-the-alarm-clock\FreeRTOS_EC\Source\AManagedTask.h ****  *         E-Mail: software@stf12.net
  24:C:\Dokumente und Einstellungen\brand\Desktop\thundercyer-the-alarm-clock\FreeRTOS_EC\Source\AManagedTask.h ****  */
  25:C:\Dokumente und Einstellungen\brand\Desktop\thundercyer-the-alarm-clock\FreeRTOS_EC\Source\AManagedTask.h **** 
  26:C:\Dokumente und Einstellungen\brand\Desktop\thundercyer-the-alarm-clock\FreeRTOS_EC\Source\AManagedTask.h **** /**
  27:C:\Dokumente und Einstellungen\brand\Desktop\thundercyer-the-alarm-clock\FreeRTOS_EC\Source\AManagedTask.h ****  * @defgroup FreeRTOS_Managed FreeRTOS Managed Class Extension
  28:C:\Dokumente und Einstellungen\brand\Desktop\thundercyer-the-alarm-clock\FreeRTOS_EC\Source\AManagedTask.h ****  * @ingroup FreeRTOS_CPP_EXT
  29:C:\Dokumente und Einstellungen\brand\Desktop\thundercyer-the-alarm-clock\FreeRTOS_EC\Source\AManagedTask.h ****  * The FreeRTOS Managed Class Extension are a set of class that provide a structured and
  30:C:\Dokumente und Einstellungen\brand\Desktop\thundercyer-the-alarm-clock\FreeRTOS_EC\Source\AManagedTask.h ****  * managed framework to develop a FreeRTOS application.
  31:C:\Dokumente und Einstellungen\brand\Desktop\thundercyer-the-alarm-clock\FreeRTOS_EC\Source\AManagedTask.h ****  * @{
  32:C:\Dokumente und Einstellungen\brand\Desktop\thundercyer-the-alarm-clock\FreeRTOS_EC\Source\AManagedTask.h ****  */
  33:C:\Dokumente und Einstellungen\brand\Desktop\thundercyer-the-alarm-clock\FreeRTOS_EC\Source\AManagedTask.h **** 
  34:C:\Dokumente und Einstellungen\brand\Desktop\thundercyer-the-alarm-clock\FreeRTOS_EC\Source\AManagedTask.h **** #ifndef AMANAGEDTASK_H_
  35:C:\Dokumente und Einstellungen\brand\Desktop\thundercyer-the-alarm-clock\FreeRTOS_EC\Source\AManagedTask.h **** #define AMANAGEDTASK_H_
  36:C:\Dokumente und Einstellungen\brand\Desktop\thundercyer-the-alarm-clock\FreeRTOS_EC\Source\AManagedTask.h **** 
  37:C:\Dokumente und Einstellungen\brand\Desktop\thundercyer-the-alarm-clock\FreeRTOS_EC\Source\AManagedTask.h **** #include "CTask.h"
  38:C:\Dokumente und Einstellungen\brand\Desktop\thundercyer-the-alarm-clock\FreeRTOS_EC\Source\AManagedTask.h **** 
  39:C:\Dokumente und Einstellungen\brand\Desktop\thundercyer-the-alarm-clock\FreeRTOS_EC\Source\AManagedTask.h **** class AManagedTask: public CTask {
  40:C:\Dokumente und Einstellungen\brand\Desktop\thundercyer-the-alarm-clock\FreeRTOS_EC\Source\AManagedTask.h **** 	friend class CFreeRTOS;
  41:C:\Dokumente und Einstellungen\brand\Desktop\thundercyer-the-alarm-clock\FreeRTOS_EC\Source\AManagedTask.h **** 
  42:C:\Dokumente und Einstellungen\brand\Desktop\thundercyer-the-alarm-clock\FreeRTOS_EC\Source\AManagedTask.h **** 	/**
  43:C:\Dokumente und Einstellungen\brand\Desktop\thundercyer-the-alarm-clock\FreeRTOS_EC\Source\AManagedTask.h **** 	 * Specifies the head of the linked list used to group all application managed task.
  44:C:\Dokumente und Einstellungen\brand\Desktop\thundercyer-the-alarm-clock\FreeRTOS_EC\Source\AManagedTask.h **** 	 */
  45:C:\Dokumente und Einstellungen\brand\Desktop\thundercyer-the-alarm-clock\FreeRTOS_EC\Source\AManagedTask.h **** 	static AManagedTask *s_pManagedTaskListHead;
  46:C:\Dokumente und Einstellungen\brand\Desktop\thundercyer-the-alarm-clock\FreeRTOS_EC\Source\AManagedTask.h **** 
  47:C:\Dokumente und Einstellungen\brand\Desktop\thundercyer-the-alarm-clock\FreeRTOS_EC\Source\AManagedTask.h **** 	/**
  48:C:\Dokumente und Einstellungen\brand\Desktop\thundercyer-the-alarm-clock\FreeRTOS_EC\Source\AManagedTask.h **** 	 * Specifies the next managed task in the list or NULL if this is the last managed task.
  49:C:\Dokumente und Einstellungen\brand\Desktop\thundercyer-the-alarm-clock\FreeRTOS_EC\Source\AManagedTask.h **** 	 */
  50:C:\Dokumente und Einstellungen\brand\Desktop\thundercyer-the-alarm-clock\FreeRTOS_EC\Source\AManagedTask.h **** 	AManagedTask *m_pNextManagedTask;
  51:C:\Dokumente und Einstellungen\brand\Desktop\thundercyer-the-alarm-clock\FreeRTOS_EC\Source\AManagedTask.h **** 
  52:C:\Dokumente und Einstellungen\brand\Desktop\thundercyer-the-alarm-clock\FreeRTOS_EC\Source\AManagedTask.h **** public:
  53:C:\Dokumente und Einstellungen\brand\Desktop\thundercyer-the-alarm-clock\FreeRTOS_EC\Source\AManagedTask.h **** 
  54:C:\Dokumente und Einstellungen\brand\Desktop\thundercyer-the-alarm-clock\FreeRTOS_EC\Source\AManagedTask.h **** 	/**
  55:C:\Dokumente und Einstellungen\brand\Desktop\thundercyer-the-alarm-clock\FreeRTOS_EC\Source\AManagedTask.h **** 	 * Default constructor.
  56:C:\Dokumente und Einstellungen\brand\Desktop\thundercyer-the-alarm-clock\FreeRTOS_EC\Source\AManagedTask.h **** 	 */
  57:C:\Dokumente und Einstellungen\brand\Desktop\thundercyer-the-alarm-clock\FreeRTOS_EC\Source\AManagedTask.h **** 	AManagedTask();
  58:C:\Dokumente und Einstellungen\brand\Desktop\thundercyer-the-alarm-clock\FreeRTOS_EC\Source\AManagedTask.h **** 
  59:C:\Dokumente und Einstellungen\brand\Desktop\thundercyer-the-alarm-clock\FreeRTOS_EC\Source\AManagedTask.h **** 	/**
  60:C:\Dokumente und Einstellungen\brand\Desktop\thundercyer-the-alarm-clock\FreeRTOS_EC\Source\AManagedTask.h **** 	 * Destructor.
  61:C:\Dokumente und Einstellungen\brand\Desktop\thundercyer-the-alarm-clock\FreeRTOS_EC\Source\AManagedTask.h **** 	 */
  62:C:\Dokumente und Einstellungen\brand\Desktop\thundercyer-the-alarm-clock\FreeRTOS_EC\Source\AManagedTask.h **** 	virtual ~AManagedTask();
  63:C:\Dokumente und Einstellungen\brand\Desktop\thundercyer-the-alarm-clock\FreeRTOS_EC\Source\AManagedTask.h **** 
  64:C:\Dokumente und Einstellungen\brand\Desktop\thundercyer-the-alarm-clock\FreeRTOS_EC\Source\AManagedTask.h **** 	/**
  65:C:\Dokumente und Einstellungen\brand\Desktop\thundercyer-the-alarm-clock\FreeRTOS_EC\Source\AManagedTask.h **** 	 * Create the FreeRTOS task attached to this object.
  66:C:\Dokumente und Einstellungen\brand\Desktop\thundercyer-the-alarm-clock\FreeRTOS_EC\Source\AManagedTask.h **** 	 *
  67:C:\Dokumente und Einstellungen\brand\Desktop\thundercyer-the-alarm-clock\FreeRTOS_EC\Source\AManagedTask.h **** 	 * @param pcName name of the task. Need only for debug purpose.
  68:C:\Dokumente und Einstellungen\brand\Desktop\thundercyer-the-alarm-clock\FreeRTOS_EC\Source\AManagedTask.h **** 	 * @param usStackDepth size in word of the task stack.
  69:C:\Dokumente und Einstellungen\brand\Desktop\thundercyer-the-alarm-clock\FreeRTOS_EC\Source\AManagedTask.h **** 	 * @param uxPriority task priority. Valid value ar between taskIDLE_PRIORITY and configMAX_PRIORIT
  70:C:\Dokumente und Einstellungen\brand\Desktop\thundercyer-the-alarm-clock\FreeRTOS_EC\Source\AManagedTask.h **** 	 *
  71:C:\Dokumente und Einstellungen\brand\Desktop\thundercyer-the-alarm-clock\FreeRTOS_EC\Source\AManagedTask.h **** 	 * @sa CTask::Create
  72:C:\Dokumente und Einstellungen\brand\Desktop\thundercyer-the-alarm-clock\FreeRTOS_EC\Source\AManagedTask.h **** 	 */
  73:C:\Dokumente und Einstellungen\brand\Desktop\thundercyer-the-alarm-clock\FreeRTOS_EC\Source\AManagedTask.h **** 	portBASE_TYPE Create(const portCHAR * const pcName, unsigned portSHORT usStackDepth, unsigned port
  74:C:\Dokumente und Einstellungen\brand\Desktop\thundercyer-the-alarm-clock\FreeRTOS_EC\Source\AManagedTask.h **** 
  75:C:\Dokumente und Einstellungen\brand\Desktop\thundercyer-the-alarm-clock\FreeRTOS_EC\Source\AManagedTask.h **** 	/**
  76:C:\Dokumente und Einstellungen\brand\Desktop\thundercyer-the-alarm-clock\FreeRTOS_EC\Source\AManagedTask.h **** 	 * The framework calls this function before the scheduler start. The default implementation simply
  77:C:\Dokumente und Einstellungen\brand\Desktop\thundercyer-the-alarm-clock\FreeRTOS_EC\Source\AManagedTask.h **** 	 * Override this method to perform task specific hardware initialization that does not use FreeRTO
  78:C:\Dokumente und Einstellungen\brand\Desktop\thundercyer-the-alarm-clock\FreeRTOS_EC\Source\AManagedTask.h **** 	 *
  79:C:\Dokumente und Einstellungen\brand\Desktop\thundercyer-the-alarm-clock\FreeRTOS_EC\Source\AManagedTask.h **** 	 * @return true if success, false otherwise.
  80:C:\Dokumente und Einstellungen\brand\Desktop\thundercyer-the-alarm-clock\FreeRTOS_EC\Source\AManagedTask.h **** 	 */
  81:C:\Dokumente und Einstellungen\brand\Desktop\thundercyer-the-alarm-clock\FreeRTOS_EC\Source\AManagedTask.h **** 	virtual bool HardwareInit() { return true; }
  82:C:\Dokumente und Einstellungen\brand\Desktop\thundercyer-the-alarm-clock\FreeRTOS_EC\Source\AManagedTask.h **** 
  83:C:\Dokumente und Einstellungen\brand\Desktop\thundercyer-the-alarm-clock\FreeRTOS_EC\Source\AManagedTask.h **** 	/**
  84:C:\Dokumente und Einstellungen\brand\Desktop\thundercyer-the-alarm-clock\FreeRTOS_EC\Source\AManagedTask.h **** 	 * Task control loop.
  85:C:\Dokumente und Einstellungen\brand\Desktop\thundercyer-the-alarm-clock\FreeRTOS_EC\Source\AManagedTask.h **** 	 */
  86:C:\Dokumente und Einstellungen\brand\Desktop\thundercyer-the-alarm-clock\FreeRTOS_EC\Source\AManagedTask.h **** 	virtual void Run() =0;
  87:C:\Dokumente und Einstellungen\brand\Desktop\thundercyer-the-alarm-clock\FreeRTOS_EC\Source\AManagedTask.h **** 
  88:C:\Dokumente und Einstellungen\brand\Desktop\thundercyer-the-alarm-clock\FreeRTOS_EC\Source\AManagedTask.h **** 	/**
  89:C:\Dokumente und Einstellungen\brand\Desktop\thundercyer-the-alarm-clock\FreeRTOS_EC\Source\AManagedTask.h **** 	 * The framework calls this function before the task is created to give a chance to a managed task
  90:C:\Dokumente und Einstellungen\brand\Desktop\thundercyer-the-alarm-clock\FreeRTOS_EC\Source\AManagedTask.h **** 	 * own initialization code and stop the task creation process if needed.
  91:C:\Dokumente und Einstellungen\brand\Desktop\thundercyer-the-alarm-clock\FreeRTOS_EC\Source\AManagedTask.h **** 	 *
  92:C:\Dokumente und Einstellungen\brand\Desktop\thundercyer-the-alarm-clock\FreeRTOS_EC\Source\AManagedTask.h **** 	 * @param pcName specifies the task name.
  93:C:\Dokumente und Einstellungen\brand\Desktop\thundercyer-the-alarm-clock\FreeRTOS_EC\Source\AManagedTask.h **** 	 * @param usStackDepth specifies the task stack depth.
  94:C:\Dokumente und Einstellungen\brand\Desktop\thundercyer-the-alarm-clock\FreeRTOS_EC\Source\AManagedTask.h **** 	 * @param uxPriority specifies the task priority.
  95:C:\Dokumente und Einstellungen\brand\Desktop\thundercyer-the-alarm-clock\FreeRTOS_EC\Source\AManagedTask.h **** 	 *
  96:C:\Dokumente und Einstellungen\brand\Desktop\thundercyer-the-alarm-clock\FreeRTOS_EC\Source\AManagedTask.h **** 	 * @return pdTRUE if success, pdFALSE otherwise. If the method return pdFALSE the task creation pr
  97:C:\Dokumente und Einstellungen\brand\Desktop\thundercyer-the-alarm-clock\FreeRTOS_EC\Source\AManagedTask.h **** 	 * is stopped and no FreeRTOS resource are allocated.
  98:C:\Dokumente und Einstellungen\brand\Desktop\thundercyer-the-alarm-clock\FreeRTOS_EC\Source\AManagedTask.h **** 	 */
  99:C:\Dokumente und Einstellungen\brand\Desktop\thundercyer-the-alarm-clock\FreeRTOS_EC\Source\AManagedTask.h **** 	virtual portBASE_TYPE OnCreate(const portCHAR * const pcName, unsigned portSHORT usStackDepth, uns
 114              		.loc 2 99 0
 115              		.cfi_startproc
 116              		@ args = 0, pretend = 0, frame = 16
 117              		@ frame_needed = 1, uses_anonymous_args = 0
 118              		@ link register save eliminated.
 119 0000 80B4     		push	{r7}
 120              	.LCFI6:
 121              		.cfi_def_cfa_offset 4
 122              		.cfi_offset 7, -4
 123 0002 85B0     		sub	sp, sp, #20
 124              	.LCFI7:
 125              		.cfi_def_cfa_offset 24
 126 0004 00AF     		add	r7, sp, #0
 127              	.LCFI8:
 128              		.cfi_def_cfa_register 7
 129 0006 F860     		str	r0, [r7, #12]
 130 0008 B960     		str	r1, [r7, #8]
 131 000a 3B60     		str	r3, [r7, #0]
 132 000c 1346     		mov	r3, r2	@ movhi
 133 000e FB80     		strh	r3, [r7, #6]	@ movhi
 134              		.loc 2 99 0
 135 0010 4FF00103 		mov	r3, #1
 136 0014 1846     		mov	r0, r3
 137 0016 07F11407 		add	r7, r7, #20
 138 001a BD46     		mov	sp, r7
 139 001c 80BC     		pop	{r7}
 140 001e 7047     		bx	lr
 141              		.cfi_endproc
 142              	.LFE135:
 144              		.section	.text._ZN6CMenueC2EP11CGraphicLCD,"ax",%progbits
 145              		.align	2
 146              		.global	_ZN6CMenueC2EP11CGraphicLCD
 147              		.thumb
 148              		.thumb_func
 150              	_ZN6CMenueC2EP11CGraphicLCD:
 151              	.LFB137:
 152              		.file 3 "../Menue/CMenue.cpp"
   1:../Menue/CMenue.cpp **** /**
   2:../Menue/CMenue.cpp ****   ******************************************************************************
   3:../Menue/CMenue.cpp ****   * @file      	CMenue.cpp
   4:../Menue/CMenue.cpp ****   * @author    	Tecnologic86
   5:../Menue/CMenue.cpp ****   * @version   	V0.0.0
   6:../Menue/CMenue.cpp ****   * @date      	18.02.12
   7:../Menue/CMenue.cpp ****   * @brief		Class for Menu displayed on GraphicsLCD
   8:../Menue/CMenue.cpp ****   ******************************************************************************
   9:../Menue/CMenue.cpp ****   */
  10:../Menue/CMenue.cpp **** 
  11:../Menue/CMenue.cpp **** /* Includes ------------------------------------------------------------------*/
  12:../Menue/CMenue.cpp **** #include "CMenue.h"
  13:../Menue/CMenue.cpp **** #include "CT6963CDriver.h"
  14:../Menue/CMenue.cpp **** #include "SansSerif12.h"
  15:../Menue/CMenue.cpp **** #include "SansSerif26.h"
  16:../Menue/CMenue.cpp **** #include <cstdio>
  17:../Menue/CMenue.cpp **** /* Private typedef -----------------------------------------------------------*/
  18:../Menue/CMenue.cpp **** /* Private define ------------------------------------------------------------*/
  19:../Menue/CMenue.cpp **** /* Private macro -------------------------------------------------------------*/
  20:../Menue/CMenue.cpp **** /* Private variables ---------------------------------------------------------*/
  21:../Menue/CMenue.cpp **** /* Private function prototypes -----------------------------------------------*/
  22:../Menue/CMenue.cpp **** /* Private functions ---------------------------------------------------------*/
  23:../Menue/CMenue.cpp **** 
  24:../Menue/CMenue.cpp **** 
  25:../Menue/CMenue.cpp **** CMenue::CMenue(CGraphicLCD *display) : glcd(display){
 153              		.loc 3 25 0
 154              		.cfi_startproc
 155              		@ args = 0, pretend = 0, frame = 8
 156              		@ frame_needed = 1, uses_anonymous_args = 0
 157 0000 80B5     		push	{r7, lr}
 158              	.LCFI9:
 159              		.cfi_def_cfa_offset 8
 160              		.cfi_offset 14, -4
 161              		.cfi_offset 7, -8
 162 0002 82B0     		sub	sp, sp, #8
 163              	.LCFI10:
 164              		.cfi_def_cfa_offset 16
 165 0004 00AF     		add	r7, sp, #0
 166              	.LCFI11:
 167              		.cfi_def_cfa_register 7
 168 0006 7860     		str	r0, [r7, #4]
 169 0008 3960     		str	r1, [r7, #0]
 170              	.LBB3:
 171              		.loc 3 25 0
 172 000a 7B68     		ldr	r3, [r7, #4]
 173 000c 1846     		mov	r0, r3
 174 000e FFF7FEFF 		bl	_ZN12AManagedTaskC2Ev
 175 0012 7B68     		ldr	r3, [r7, #4]
 176 0014 054A     		ldr	r2, .L6
 177 0016 1A60     		str	r2, [r3, #0]
 178 0018 7B68     		ldr	r3, [r7, #4]
 179 001a 3A68     		ldr	r2, [r7, #0]
 180 001c DA60     		str	r2, [r3, #12]
 181              	.LBE3:
  26:../Menue/CMenue.cpp **** }
 182              		.loc 3 26 0
 183 001e 7B68     		ldr	r3, [r7, #4]
 184 0020 1846     		mov	r0, r3
 185 0022 07F10807 		add	r7, r7, #8
 186 0026 BD46     		mov	sp, r7
 187 0028 80BD     		pop	{r7, pc}
 188              	.L7:
 189 002a 00BF     		.align	2
 190              	.L6:
 191 002c 08000000 		.word	_ZTV6CMenue+8
 192              		.cfi_endproc
 193              	.LFE137:
 195              		.section	.text._ZN6CMenueD2Ev,"ax",%progbits
 196              		.align	2
 197              		.global	_ZN6CMenueD2Ev
 198              		.thumb
 199              		.thumb_func
 201              	_ZN6CMenueD2Ev:
 202              	.LFB140:
  27:../Menue/CMenue.cpp **** 
  28:../Menue/CMenue.cpp **** CMenue::~CMenue() {
 203              		.loc 3 28 0
 204              		.cfi_startproc
 205              		@ args = 0, pretend = 0, frame = 8
 206              		@ frame_needed = 1, uses_anonymous_args = 0
 207 0000 80B5     		push	{r7, lr}
 208              	.LCFI12:
 209              		.cfi_def_cfa_offset 8
 210              		.cfi_offset 14, -4
 211              		.cfi_offset 7, -8
 212 0002 82B0     		sub	sp, sp, #8
 213              	.LCFI13:
 214              		.cfi_def_cfa_offset 16
 215 0004 00AF     		add	r7, sp, #0
 216              	.LCFI14:
 217              		.cfi_def_cfa_register 7
 218 0006 7860     		str	r0, [r7, #4]
 219              	.LBB4:
 220              		.loc 3 28 0
 221 0008 7B68     		ldr	r3, [r7, #4]
 222 000a 0A4A     		ldr	r2, .L11
 223 000c 1A60     		str	r2, [r3, #0]
  29:../Menue/CMenue.cpp **** 	// TODO Auto-generated destructor stub
  30:../Menue/CMenue.cpp **** }
 224              		.loc 3 30 0
 225 000e 7868     		ldr	r0, [r7, #4]
 226 0010 FFF7FEFF 		bl	_ZN12AManagedTaskD2Ev
 227              	.LBE4:
 228 0014 4FF00003 		mov	r3, #0
 229 0018 03F00103 		and	r3, r3, #1
 230 001c DBB2     		uxtb	r3, r3
 231 001e 002B     		cmp	r3, #0
 232 0020 02D0     		beq	.L10
 233              		.loc 3 30 0 is_stmt 0 discriminator 2
 234 0022 7868     		ldr	r0, [r7, #4]
 235 0024 FFF7FEFF 		bl	_ZdlPv
 236              	.L10:
 237              		.loc 3 30 0 discriminator 3
 238 0028 7B68     		ldr	r3, [r7, #4]
 239 002a 1846     		mov	r0, r3
 240 002c 07F10807 		add	r7, r7, #8
 241 0030 BD46     		mov	sp, r7
 242 0032 80BD     		pop	{r7, pc}
 243              	.L12:
 244              		.align	2
 245              	.L11:
 246 0034 08000000 		.word	_ZTV6CMenue+8
 247              		.cfi_endproc
 248              	.LFE140:
 250              		.section	.text._ZN6CMenueD0Ev,"ax",%progbits
 251              		.align	2
 252              		.global	_ZN6CMenueD0Ev
 253              		.thumb
 254              		.thumb_func
 256              	_ZN6CMenueD0Ev:
 257              	.LFB142:
  28:../Menue/CMenue.cpp **** CMenue::~CMenue() {
 258              		.loc 3 28 0 is_stmt 1
 259              		.cfi_startproc
 260              		@ args = 0, pretend = 0, frame = 8
 261              		@ frame_needed = 1, uses_anonymous_args = 0
 262 0000 80B5     		push	{r7, lr}
 263              	.LCFI15:
 264              		.cfi_def_cfa_offset 8
 265              		.cfi_offset 14, -4
 266              		.cfi_offset 7, -8
 267 0002 82B0     		sub	sp, sp, #8
 268              	.LCFI16:
 269              		.cfi_def_cfa_offset 16
 270 0004 00AF     		add	r7, sp, #0
 271              	.LCFI17:
 272              		.cfi_def_cfa_register 7
 273 0006 7860     		str	r0, [r7, #4]
 274              		.loc 3 30 0
 275 0008 7868     		ldr	r0, [r7, #4]
 276 000a FFF7FEFF 		bl	_ZN6CMenueD1Ev
 277 000e 7868     		ldr	r0, [r7, #4]
 278 0010 FFF7FEFF 		bl	_ZdlPv
 279 0014 7B68     		ldr	r3, [r7, #4]
 280 0016 1846     		mov	r0, r3
 281 0018 07F10807 		add	r7, r7, #8
 282 001c BD46     		mov	sp, r7
 283 001e 80BD     		pop	{r7, pc}
 284              		.cfi_endproc
 285              	.LFE142:
 287              		.section	.text._ZN6CMenue12HardwareInitEv,"ax",%progbits
 288              		.align	2
 289              		.global	_ZN6CMenue12HardwareInitEv
 290              		.thumb
 291              		.thumb_func
 293              	_ZN6CMenue12HardwareInitEv:
 294              	.LFB143:
  31:../Menue/CMenue.cpp **** 
  32:../Menue/CMenue.cpp **** /**
  33:../Menue/CMenue.cpp ****   * @brief  HardwareInit called before Scheduler starts
  34:../Menue/CMenue.cpp ****   * @param  None
  35:../Menue/CMenue.cpp ****   * @retval true on success
  36:../Menue/CMenue.cpp ****   */
  37:../Menue/CMenue.cpp **** bool CMenue::HardwareInit(void){
 295              		.loc 3 37 0
 296              		.cfi_startproc
 297              		@ args = 0, pretend = 0, frame = 8
 298              		@ frame_needed = 1, uses_anonymous_args = 0
 299              		@ link register save eliminated.
 300 0000 80B4     		push	{r7}
 301              	.LCFI18:
 302              		.cfi_def_cfa_offset 4
 303              		.cfi_offset 7, -4
 304 0002 83B0     		sub	sp, sp, #12
 305              	.LCFI19:
 306              		.cfi_def_cfa_offset 16
 307 0004 00AF     		add	r7, sp, #0
 308              	.LCFI20:
 309              		.cfi_def_cfa_register 7
 310 0006 7860     		str	r0, [r7, #4]
  38:../Menue/CMenue.cpp **** 
  39:../Menue/CMenue.cpp **** 	return true;
 311              		.loc 3 39 0
 312 0008 4FF00103 		mov	r3, #1
  40:../Menue/CMenue.cpp **** }
 313              		.loc 3 40 0
 314 000c 1846     		mov	r0, r3
 315 000e 07F10C07 		add	r7, r7, #12
 316 0012 BD46     		mov	sp, r7
 317 0014 80BC     		pop	{r7}
 318 0016 7047     		bx	lr
 319              		.cfi_endproc
 320              	.LFE143:
 322              		.section	.rodata
 323              		.align	2
 324              	.LC0:
 325 0000 496E7472 		.ascii	"Introducing\000"
 325      6F647563 
 325      696E6700 
 326              		.align	2
 327              	.LC1:
 328 000c 50726F6A 		.ascii	"Project:\000"
 328      6563743A 
 328      00
 329 0015 000000   		.align	2
 330              	.LC2:
 331 0018 5448554E 		.ascii	"THUNDERCRYER\000"
 331      44455243 
 331      52594552 
 331      00
 332 0025 000000   		.align	2
 333              	.LC3:
 334 0028 32313A31 		.ascii	"21:14\000"
 334      3400
 335 002e 0000     		.align	2
 336              	.LC4:
 337 0030 46722E20 		.ascii	"Fr. 24.02.12\000"
 337      32342E30 
 337      322E3132 
 337      00
 338 003d 000000   		.align	2
 339              	.LC5:
 340 0040 44657665 		.ascii	"Development in progress\000"
 340      6C6F706D 
 340      656E7420 
 340      696E2070 
 340      726F6772 
 341              		.align	2
 342              	.LC6:
 343 0058 25326400 		.ascii	"%2d\000"
 344              		.section	.text._ZN6CMenue3RunEv,"ax",%progbits
 345              		.align	2
 346              		.global	_ZN6CMenue3RunEv
 347              		.thumb
 348              		.thumb_func
 350              	_ZN6CMenue3RunEv:
 351              	.LFB144:
  41:../Menue/CMenue.cpp **** 
  42:../Menue/CMenue.cpp **** 
  43:../Menue/CMenue.cpp **** /**
  44:../Menue/CMenue.cpp ****   * @brief  task function for Menu
  45:../Menue/CMenue.cpp ****   * @param  None
  46:../Menue/CMenue.cpp ****   * @retval None
  47:../Menue/CMenue.cpp ****   */
  48:../Menue/CMenue.cpp **** void CMenue::Run(void){
 352              		.loc 3 48 0
 353              		.cfi_startproc
 354              		@ args = 0, pretend = 0, frame = 16
 355              		@ frame_needed = 1, uses_anonymous_args = 0
 356 0000 90B5     		push	{r4, r7, lr}
 357              	.LCFI21:
 358              		.cfi_def_cfa_offset 12
 359              		.cfi_offset 14, -4
 360              		.cfi_offset 7, -8
 361              		.cfi_offset 4, -12
 362 0002 87B0     		sub	sp, sp, #28
 363              	.LCFI22:
 364              		.cfi_def_cfa_offset 40
 365 0004 02AF     		add	r7, sp, #8
 366              	.LCFI23:
 367              		.cfi_def_cfa 7, 32
 368 0006 7860     		str	r0, [r7, #4]
 369              	.LBB5:
  49:../Menue/CMenue.cpp **** 	char buffer[4];
  50:../Menue/CMenue.cpp **** 	int x = 0;
 370              		.loc 3 50 0
 371 0008 4FF00003 		mov	r3, #0
 372 000c FB60     		str	r3, [r7, #12]
  51:../Menue/CMenue.cpp **** 
  52:../Menue/CMenue.cpp **** 	glcd->Init();
 373              		.loc 3 52 0
 374 000e 7B68     		ldr	r3, [r7, #4]
 375 0010 DB68     		ldr	r3, [r3, #12]
 376 0012 1B68     		ldr	r3, [r3, #0]
 377 0014 03F12003 		add	r3, r3, #32
 378 0018 1B68     		ldr	r3, [r3, #0]
 379 001a 7A68     		ldr	r2, [r7, #4]
 380 001c D268     		ldr	r2, [r2, #12]
 381 001e 1046     		mov	r0, r2
 382 0020 9847     		blx	r3
  53:../Menue/CMenue.cpp **** 	glcd->Inverse(true);
 383              		.loc 3 53 0
 384 0022 7B68     		ldr	r3, [r7, #4]
 385 0024 DB68     		ldr	r3, [r3, #12]
 386 0026 1846     		mov	r0, r3
 387 0028 4FF00101 		mov	r1, #1
 388 002c FFF7FEFF 		bl	_ZN11CGraphicLCD7InverseEb
  54:../Menue/CMenue.cpp **** 	glcd->Clear();
 389              		.loc 3 54 0
 390 0030 7B68     		ldr	r3, [r7, #4]
 391 0032 DB68     		ldr	r3, [r3, #12]
 392 0034 1B68     		ldr	r3, [r3, #0]
 393 0036 1B68     		ldr	r3, [r3, #0]
 394 0038 7A68     		ldr	r2, [r7, #4]
 395 003a D268     		ldr	r2, [r2, #12]
 396 003c 1046     		mov	r0, r2
 397 003e 9847     		blx	r3
  55:../Menue/CMenue.cpp **** 
  56:../Menue/CMenue.cpp **** 
  57:../Menue/CMenue.cpp **** 	vTaskDelay(500/portTICK_RATE_MS);
 398              		.loc 3 57 0
 399 0040 4FF03200 		mov	r0, #50
 400 0044 FFF7FEFF 		bl	vTaskDelay
  58:../Menue/CMenue.cpp **** 	glcd->WriteString("Introducing",c_FontSansSerif12,65,5);
 401              		.loc 3 58 0
 402 0048 7B68     		ldr	r3, [r7, #4]
 403 004a DB68     		ldr	r3, [r3, #12]
 404 004c 1B68     		ldr	r3, [r3, #0]
 405 004e 03F11803 		add	r3, r3, #24
 406 0052 1C68     		ldr	r4, [r3, #0]
 407 0054 7B68     		ldr	r3, [r7, #4]
 408 0056 DB68     		ldr	r3, [r3, #12]
 409 0058 4FF00502 		mov	r2, #5
 410 005c 0092     		str	r2, [sp, #0]
 411 005e 1846     		mov	r0, r3
 412 0060 40F20001 		movw	r1, #:lower16:.LC0
 413 0064 C0F20001 		movt	r1, #:upper16:.LC0
 414 0068 40F20002 		movw	r2, #:lower16:c_FontSansSerif12
 415 006c C0F20002 		movt	r2, #:upper16:c_FontSansSerif12
 416 0070 4FF04103 		mov	r3, #65
 417 0074 A047     		blx	r4
  59:../Menue/CMenue.cpp **** 
  60:../Menue/CMenue.cpp **** 	vTaskDelay(500/portTICK_RATE_MS);
 418              		.loc 3 60 0
 419 0076 4FF03200 		mov	r0, #50
 420 007a FFF7FEFF 		bl	vTaskDelay
  61:../Menue/CMenue.cpp **** 	glcd->WriteString("Project:",c_FontSansSerif12,85,20);
 421              		.loc 3 61 0
 422 007e 7B68     		ldr	r3, [r7, #4]
 423 0080 DB68     		ldr	r3, [r3, #12]
 424 0082 1B68     		ldr	r3, [r3, #0]
 425 0084 03F11803 		add	r3, r3, #24
 426 0088 1C68     		ldr	r4, [r3, #0]
 427 008a 7B68     		ldr	r3, [r7, #4]
 428 008c DB68     		ldr	r3, [r3, #12]
 429 008e 4FF01402 		mov	r2, #20
 430 0092 0092     		str	r2, [sp, #0]
 431 0094 1846     		mov	r0, r3
 432 0096 40F20001 		movw	r1, #:lower16:.LC1
 433 009a C0F20001 		movt	r1, #:upper16:.LC1
 434 009e 40F20002 		movw	r2, #:lower16:c_FontSansSerif12
 435 00a2 C0F20002 		movt	r2, #:upper16:c_FontSansSerif12
 436 00a6 4FF05503 		mov	r3, #85
 437 00aa A047     		blx	r4
  62:../Menue/CMenue.cpp **** 
  63:../Menue/CMenue.cpp **** 	vTaskDelay(1000/portTICK_RATE_MS);
 438              		.loc 3 63 0
 439 00ac 4FF06400 		mov	r0, #100
 440 00b0 FFF7FEFF 		bl	vTaskDelay
  64:../Menue/CMenue.cpp **** 	glcd->WriteString("THUNDERCRYER",c_FontSansSerif12,0,35);
 441              		.loc 3 64 0
 442 00b4 7B68     		ldr	r3, [r7, #4]
 443 00b6 DB68     		ldr	r3, [r3, #12]
 444 00b8 1B68     		ldr	r3, [r3, #0]
 445 00ba 03F11803 		add	r3, r3, #24
 446 00be 1C68     		ldr	r4, [r3, #0]
 447 00c0 7B68     		ldr	r3, [r7, #4]
 448 00c2 DB68     		ldr	r3, [r3, #12]
 449 00c4 4FF02302 		mov	r2, #35
 450 00c8 0092     		str	r2, [sp, #0]
 451 00ca 1846     		mov	r0, r3
 452 00cc 40F20001 		movw	r1, #:lower16:.LC2
 453 00d0 C0F20001 		movt	r1, #:upper16:.LC2
 454 00d4 40F20002 		movw	r2, #:lower16:c_FontSansSerif12
 455 00d8 C0F20002 		movt	r2, #:upper16:c_FontSansSerif12
 456 00dc 4FF00003 		mov	r3, #0
 457 00e0 A047     		blx	r4
  65:../Menue/CMenue.cpp **** 
  66:../Menue/CMenue.cpp **** 	vTaskDelay(3000/portTICK_RATE_MS);
 458              		.loc 3 66 0
 459 00e2 4FF49670 		mov	r0, #300
 460 00e6 FFF7FEFF 		bl	vTaskDelay
  67:../Menue/CMenue.cpp **** 	glcd->Window(0,0,117,50);
 461              		.loc 3 67 0
 462 00ea 7B68     		ldr	r3, [r7, #4]
 463 00ec DB68     		ldr	r3, [r3, #12]
 464 00ee 1B68     		ldr	r3, [r3, #0]
 465 00f0 03F10803 		add	r3, r3, #8
 466 00f4 1C68     		ldr	r4, [r3, #0]
 467 00f6 7B68     		ldr	r3, [r7, #4]
 468 00f8 DB68     		ldr	r3, [r3, #12]
 469 00fa 4FF03202 		mov	r2, #50
 470 00fe 0092     		str	r2, [sp, #0]
 471 0100 1846     		mov	r0, r3
 472 0102 4FF00001 		mov	r1, #0
 473 0106 4FF00002 		mov	r2, #0
 474 010a 4FF07503 		mov	r3, #117
 475 010e A047     		blx	r4
  68:../Menue/CMenue.cpp **** 	glcd->WriteString("21:14",c_FontSansSerif26,10,5);
 476              		.loc 3 68 0
 477 0110 7B68     		ldr	r3, [r7, #4]
 478 0112 DB68     		ldr	r3, [r3, #12]
 479 0114 1B68     		ldr	r3, [r3, #0]
 480 0116 03F11803 		add	r3, r3, #24
 481 011a 1C68     		ldr	r4, [r3, #0]
 482 011c 7B68     		ldr	r3, [r7, #4]
 483 011e DB68     		ldr	r3, [r3, #12]
 484 0120 4FF00502 		mov	r2, #5
 485 0124 0092     		str	r2, [sp, #0]
 486 0126 1846     		mov	r0, r3
 487 0128 40F20001 		movw	r1, #:lower16:.LC3
 488 012c C0F20001 		movt	r1, #:upper16:.LC3
 489 0130 40F20002 		movw	r2, #:lower16:c_FontSansSerif26
 490 0134 C0F20002 		movt	r2, #:upper16:c_FontSansSerif26
 491 0138 4FF00A03 		mov	r3, #10
 492 013c A047     		blx	r4
  69:../Menue/CMenue.cpp **** 	glcd->WriteString("Fr. 24.02.12",c_FontSansSerif12,10,35);
 493              		.loc 3 69 0
 494 013e 7B68     		ldr	r3, [r7, #4]
 495 0140 DB68     		ldr	r3, [r3, #12]
 496 0142 1B68     		ldr	r3, [r3, #0]
 497 0144 03F11803 		add	r3, r3, #24
 498 0148 1C68     		ldr	r4, [r3, #0]
 499 014a 7B68     		ldr	r3, [r7, #4]
 500 014c DB68     		ldr	r3, [r3, #12]
 501 014e 4FF02302 		mov	r2, #35
 502 0152 0092     		str	r2, [sp, #0]
 503 0154 1846     		mov	r0, r3
 504 0156 40F20001 		movw	r1, #:lower16:.LC4
 505 015a C0F20001 		movt	r1, #:upper16:.LC4
 506 015e 40F20002 		movw	r2, #:lower16:c_FontSansSerif12
 507 0162 C0F20002 		movt	r2, #:upper16:c_FontSansSerif12
 508 0166 4FF00A03 		mov	r3, #10
 509 016a A047     		blx	r4
  70:../Menue/CMenue.cpp **** 
  71:../Menue/CMenue.cpp **** 	glcd->WriteString("Development in progress",c_FontNative,1,120);
 510              		.loc 3 71 0
 511 016c 7B68     		ldr	r3, [r7, #4]
 512 016e DB68     		ldr	r3, [r3, #12]
 513 0170 1B68     		ldr	r3, [r3, #0]
 514 0172 03F11803 		add	r3, r3, #24
 515 0176 1C68     		ldr	r4, [r3, #0]
 516 0178 7B68     		ldr	r3, [r7, #4]
 517 017a DB68     		ldr	r3, [r3, #12]
 518 017c 4FF07802 		mov	r2, #120
 519 0180 0092     		str	r2, [sp, #0]
 520 0182 1846     		mov	r0, r3
 521 0184 40F20001 		movw	r1, #:lower16:.LC5
 522 0188 C0F20001 		movt	r1, #:upper16:.LC5
 523 018c 40F20002 		movw	r2, #:lower16:_ZL12c_FontNative
 524 0190 C0F20002 		movt	r2, #:upper16:_ZL12c_FontNative
 525 0194 4FF00103 		mov	r3, #1
 526 0198 A047     		blx	r4
 527              	.L19:
  72:../Menue/CMenue.cpp **** 
  73:../Menue/CMenue.cpp **** 	while(1){
  74:../Menue/CMenue.cpp **** 		if(x<60) {
 528              		.loc 3 74 0
 529 019a FB68     		ldr	r3, [r7, #12]
 530 019c 3B2B     		cmp	r3, #59
 531 019e 28DC     		bgt	.L17
  75:../Menue/CMenue.cpp **** 			sprintf(buffer,"%2d",x);
 532              		.loc 3 75 0
 533 01a0 07F10803 		add	r3, r7, #8
 534 01a4 1846     		mov	r0, r3
 535 01a6 40F20001 		movw	r1, #:lower16:.LC6
 536 01aa C0F20001 		movt	r1, #:upper16:.LC6
 537 01ae FA68     		ldr	r2, [r7, #12]
 538 01b0 FFF7FEFF 		bl	sprintf
  76:../Menue/CMenue.cpp **** 			glcd->WriteString(buffer,c_FontSansSerif12,80,7);
 539              		.loc 3 76 0
 540 01b4 7B68     		ldr	r3, [r7, #4]
 541 01b6 DB68     		ldr	r3, [r3, #12]
 542 01b8 1B68     		ldr	r3, [r3, #0]
 543 01ba 03F11803 		add	r3, r3, #24
 544 01be 1C68     		ldr	r4, [r3, #0]
 545 01c0 7B68     		ldr	r3, [r7, #4]
 546 01c2 DA68     		ldr	r2, [r3, #12]
 547 01c4 07F10803 		add	r3, r7, #8
 548 01c8 4FF00701 		mov	r1, #7
 549 01cc 0091     		str	r1, [sp, #0]
 550 01ce 1046     		mov	r0, r2
 551 01d0 1946     		mov	r1, r3
 552 01d2 40F20002 		movw	r2, #:lower16:c_FontSansSerif12
 553 01d6 C0F20002 		movt	r2, #:upper16:c_FontSansSerif12
 554 01da 4FF05003 		mov	r3, #80
 555 01de A047     		blx	r4
  77:../Menue/CMenue.cpp **** 			x++;
 556              		.loc 3 77 0
 557 01e0 FB68     		ldr	r3, [r7, #12]
 558 01e2 03F10103 		add	r3, r3, #1
 559 01e6 FB60     		str	r3, [r7, #12]
  78:../Menue/CMenue.cpp **** 			vTaskDelay(1000/portTICK_RATE_MS);
 560              		.loc 3 78 0
 561 01e8 4FF06400 		mov	r0, #100
 562 01ec FFF7FEFF 		bl	vTaskDelay
  73:../Menue/CMenue.cpp **** 	while(1){
 563              		.loc 3 73 0
 564 01f0 D3E7     		b	.L19
 565              	.L17:
  79:../Menue/CMenue.cpp **** 		} else
  80:../Menue/CMenue.cpp **** 			x = 0;
 566              		.loc 3 80 0
 567 01f2 4FF00003 		mov	r3, #0
 568 01f6 FB60     		str	r3, [r7, #12]
  73:../Menue/CMenue.cpp **** 	while(1){
 569              		.loc 3 73 0
 570 01f8 CFE7     		b	.L19
 571              	.LBE5:
 572              		.cfi_endproc
 573              	.LFE144:
 575              		.global	_ZTV6CMenue
 576 01fa 00BF     		.section	.rodata._ZTV6CMenue,"a",%progbits
 577              		.align	3
 580              	_ZTV6CMenue:
 581 0000 00000000 		.word	0
 582 0004 00000000 		.word	0
 583 0008 00000000 		.word	_ZNK5CTask7IsValidEv
 584 000c 00000000 		.word	_ZN5CTask6AttachEPv
 585 0010 00000000 		.word	_ZN5CTask6DetachEv
 586 0014 00000000 		.word	_ZN6CMenueD1Ev
 587 0018 00000000 		.word	_ZN6CMenueD0Ev
 588 001c 00000000 		.word	_ZN6CMenue12HardwareInitEv
 589 0020 00000000 		.word	_ZN6CMenue3RunEv
 590 0024 00000000 		.word	_ZN12AManagedTask8OnCreateEPKctm
 591              		.section	.rodata._ZL12c_FontNative,"a",%progbits
 592              		.align	2
 595              	_ZL12c_FontNative:
 596 0000 00000000 		.space	24
 596      00000000 
 596      00000000 
 596      00000000 
 596      00000000 
 597              		.global	_ZN6CMenueC1EP11CGraphicLCD
 598              		.thumb_set _ZN6CMenueC1EP11CGraphicLCD,_ZN6CMenueC2EP11CGraphicLCD
 599              		.global	_ZN6CMenueD1Ev
 600              		.thumb_set _ZN6CMenueD1Ev,_ZN6CMenueD2Ev
 601              		.text
 602              	.Letext0:
 603              		.file 4 "d:\\elektronik\\ides\\eclipse\\yagarto\\bin\\../lib/gcc/arm-none-eabi/4.6.2/include/stdde
 604              		.file 5 "d:/elektronik/ides/eclipse/yagarto/lib/gcc/../../arm-none-eabi/sys-include/stdint.h"
 605              		.file 6 "C:\\Dokumente und Einstellungen\\brand\\Desktop\\thundercyer-the-alarm-clock\\FreeRTOS\\S
 606              		.file 7 "C:\\Dokumente und Einstellungen\\brand\\Desktop\\thundercyer-the-alarm-clock\\FreeRTOS\\S
 607              		.file 8 "C:\\Dokumente und Einstellungen\\brand\\Desktop\\thundercyer-the-alarm-clock\\FreeRTOS_EC
 608              		.file 9 "C:\\Dokumente und Einstellungen\\brand\\Desktop\\thundercyer-the-alarm-clock\\GraphicLCD/
 609              		.file 10 "d:/elektronik/ides/eclipse/yagarto/lib/gcc/../../arm-none-eabi/sys-include/sys/lock.h"
 610              		.file 11 "d:/elektronik/ides/eclipse/yagarto/lib/gcc/../../arm-none-eabi/sys-include/sys/_types.h"
 611              		.file 12 "d:/elektronik/ides/eclipse/yagarto/lib/gcc/../../arm-none-eabi/sys-include/sys/reent.h"
 612              		.file 13 "d:/elektronik/ides/eclipse/yagarto/lib/gcc/../../arm-none-eabi/sys-include/stdio.h"
 613              		.file 14 "d:/elektronik/ides/eclipse/yagarto/lib/gcc/../../arm-none-eabi/include/c++/4.6.2/cstdio"
 614              		.file 15 "../Menue/CMenue.h"
 615              		.file 16 "C:\\Dokumente und Einstellungen\\brand\\Desktop\\thundercyer-the-alarm-clock\\GraphicLCD
 616              		.file 17 "C:\\Dokumente und Einstellungen\\brand\\Desktop\\thundercyer-the-alarm-clock\\CMSIS\\Inc
 617              		.file 18 "C:\\Dokumente und Einstellungen\\brand\\Desktop\\thundercyer-the-alarm-clock\\GraphicLCD
 618              		.file 19 "C:\\Dokumente und Einstellungen\\brand\\Desktop\\thundercyer-the-alarm-clock\\GraphicLCD
 619              		.file 20 "<built-in>"