   1              		.syntax unified
   2              		.cpu cortex-m4
   3              		.eabi_attribute 27, 3
   4              		.fpu fpv4-sp-d16
   5              		.eabi_attribute 20, 1
   6              		.eabi_attribute 21, 1
   7              		.eabi_attribute 23, 3
   8              		.eabi_attribute 24, 1
   9              		.eabi_attribute 25, 1
  10              		.eabi_attribute 26, 1
  11              		.eabi_attribute 30, 6
  12              		.eabi_attribute 18, 4
  13              		.thumb
  14              		.file	"CLedHeartBeatSTM32F4Disc.cpp"
  15              		.text
  16              	.Ltext0:
  17              		.cfi_sections	.debug_frame
  18              		.section	.text._ZNK5CTask7IsValidEv,"axG",%progbits,_ZNK5CTask7IsValidEv,comdat
  19              		.align	2
  20              		.weak	_ZNK5CTask7IsValidEv
  21              		.thumb
  22              		.thumb_func
  24              	_ZNK5CTask7IsValidEv:
  25              	.LFB132:
  26              		.file 1 "C:\\Dokumente und Einstellungen\\brand\\Desktop\\thundercyer-the-alarm-clock\\FreeRTOS_EC
   1:C:\Dokumente und Einstellungen\brand\Desktop\thundercyer-the-alarm-clock\FreeRTOS_EC\Source\CTask.h **** /**
   2:C:\Dokumente und Einstellungen\brand\Desktop\thundercyer-the-alarm-clock\FreeRTOS_EC\Source\CTask.h ****  * @file CTask.h
   3:C:\Dokumente und Einstellungen\brand\Desktop\thundercyer-the-alarm-clock\FreeRTOS_EC\Source\CTask.h ****  * @class CTask
   4:C:\Dokumente und Einstellungen\brand\Desktop\thundercyer-the-alarm-clock\FreeRTOS_EC\Source\CTask.h ****  * @ingroup FreeRTOS_Wrapper
   5:C:\Dokumente und Einstellungen\brand\Desktop\thundercyer-the-alarm-clock\FreeRTOS_EC\Source\CTask.h ****  *
   6:C:\Dokumente und Einstellungen\brand\Desktop\thundercyer-the-alarm-clock\FreeRTOS_EC\Source\CTask.h ****  * The CTask class wraps a native FreeRTOS task handle (xTaskHandle). To create a task instance
   7:C:\Dokumente und Einstellungen\brand\Desktop\thundercyer-the-alarm-clock\FreeRTOS_EC\Source\CTask.h ****  * an object of this class and then call its CTask::Create method like showed in the following samp
   8:C:\Dokumente und Einstellungen\brand\Desktop\thundercyer-the-alarm-clock\FreeRTOS_EC\Source\CTask.h ****  * \code
   9:C:\Dokumente und Einstellungen\brand\Desktop\thundercyer-the-alarm-clock\FreeRTOS_EC\Source\CTask.h ****  * CTask g_aTask // global task declaration.
  10:C:\Dokumente und Einstellungen\brand\Desktop\thundercyer-the-alarm-clock\FreeRTOS_EC\Source\CTask.h ****  *
  11:C:\Dokumente und Einstellungen\brand\Desktop\thundercyer-the-alarm-clock\FreeRTOS_EC\Source\CTask.h ****  * void main()
  12:C:\Dokumente und Einstellungen\brand\Desktop\thundercyer-the-alarm-clock\FreeRTOS_EC\Source\CTask.h ****  * {
  13:C:\Dokumente und Einstellungen\brand\Desktop\thundercyer-the-alarm-clock\FreeRTOS_EC\Source\CTask.h ****  * 	g_aTask.Create(task_control_func, "Led2", configMINIMAL_STACK_SIZE, mainFLASH_TASK_PRIORITY);
  14:C:\Dokumente und Einstellungen\brand\Desktop\thundercyer-the-alarm-clock\FreeRTOS_EC\Source\CTask.h ****  *
  15:C:\Dokumente und Einstellungen\brand\Desktop\thundercyer-the-alarm-clock\FreeRTOS_EC\Source\CTask.h ****  * 	CFreeRTOS::StartScheduler();
  16:C:\Dokumente und Einstellungen\brand\Desktop\thundercyer-the-alarm-clock\FreeRTOS_EC\Source\CTask.h ****  * }
  17:C:\Dokumente und Einstellungen\brand\Desktop\thundercyer-the-alarm-clock\FreeRTOS_EC\Source\CTask.h ****  * \endcode
  18:C:\Dokumente und Einstellungen\brand\Desktop\thundercyer-the-alarm-clock\FreeRTOS_EC\Source\CTask.h ****  *
  19:C:\Dokumente und Einstellungen\brand\Desktop\thundercyer-the-alarm-clock\FreeRTOS_EC\Source\CTask.h ****  * Usually the application subclass this class to create an application specific task object.
  20:C:\Dokumente und Einstellungen\brand\Desktop\thundercyer-the-alarm-clock\FreeRTOS_EC\Source\CTask.h ****  * See the CHelloWorld class for an example.
  21:C:\Dokumente und Einstellungen\brand\Desktop\thundercyer-the-alarm-clock\FreeRTOS_EC\Source\CTask.h ****  *
  22:C:\Dokumente und Einstellungen\brand\Desktop\thundercyer-the-alarm-clock\FreeRTOS_EC\Source\CTask.h ****  * \sa <a href="http://www.freertos.org/taskandcr.html">task documentation</a> in the FreeRTOS web 
  23:C:\Dokumente und Einstellungen\brand\Desktop\thundercyer-the-alarm-clock\FreeRTOS_EC\Source\CTask.h ****  *
  24:C:\Dokumente und Einstellungen\brand\Desktop\thundercyer-the-alarm-clock\FreeRTOS_EC\Source\CTask.h ****  * @date Jul 5, 2010
  25:C:\Dokumente und Einstellungen\brand\Desktop\thundercyer-the-alarm-clock\FreeRTOS_EC\Source\CTask.h ****  * @author Stefano Oliveri (STF12.net)
  26:C:\Dokumente und Einstellungen\brand\Desktop\thundercyer-the-alarm-clock\FreeRTOS_EC\Source\CTask.h ****  *         E-Mail: software@stf12.net
  27:C:\Dokumente und Einstellungen\brand\Desktop\thundercyer-the-alarm-clock\FreeRTOS_EC\Source\CTask.h ****  */
  28:C:\Dokumente und Einstellungen\brand\Desktop\thundercyer-the-alarm-clock\FreeRTOS_EC\Source\CTask.h **** 
  29:C:\Dokumente und Einstellungen\brand\Desktop\thundercyer-the-alarm-clock\FreeRTOS_EC\Source\CTask.h **** #ifndef CTASK_H_
  30:C:\Dokumente und Einstellungen\brand\Desktop\thundercyer-the-alarm-clock\FreeRTOS_EC\Source\CTask.h **** #define CTASK_H_
  31:C:\Dokumente und Einstellungen\brand\Desktop\thundercyer-the-alarm-clock\FreeRTOS_EC\Source\CTask.h **** 
  32:C:\Dokumente und Einstellungen\brand\Desktop\thundercyer-the-alarm-clock\FreeRTOS_EC\Source\CTask.h **** #include "FreeRTOS.h"
  33:C:\Dokumente und Einstellungen\brand\Desktop\thundercyer-the-alarm-clock\FreeRTOS_EC\Source\CTask.h **** #include "task.h"
  34:C:\Dokumente und Einstellungen\brand\Desktop\thundercyer-the-alarm-clock\FreeRTOS_EC\Source\CTask.h **** #include "IFreeRTOSProtocol.h"
  35:C:\Dokumente und Einstellungen\brand\Desktop\thundercyer-the-alarm-clock\FreeRTOS_EC\Source\CTask.h **** 
  36:C:\Dokumente und Einstellungen\brand\Desktop\thundercyer-the-alarm-clock\FreeRTOS_EC\Source\CTask.h **** class CTask: public IFreeRTOSObj {
  37:C:\Dokumente und Einstellungen\brand\Desktop\thundercyer-the-alarm-clock\FreeRTOS_EC\Source\CTask.h **** 
  38:C:\Dokumente und Einstellungen\brand\Desktop\thundercyer-the-alarm-clock\FreeRTOS_EC\Source\CTask.h **** 	/**
  39:C:\Dokumente und Einstellungen\brand\Desktop\thundercyer-the-alarm-clock\FreeRTOS_EC\Source\CTask.h **** 	 * Specifies the native FreeRTOS handle managed by an instance of this class.
  40:C:\Dokumente und Einstellungen\brand\Desktop\thundercyer-the-alarm-clock\FreeRTOS_EC\Source\CTask.h **** 	 */
  41:C:\Dokumente und Einstellungen\brand\Desktop\thundercyer-the-alarm-clock\FreeRTOS_EC\Source\CTask.h **** 	xTaskHandle m_handleTask;
  42:C:\Dokumente und Einstellungen\brand\Desktop\thundercyer-the-alarm-clock\FreeRTOS_EC\Source\CTask.h **** 
  43:C:\Dokumente und Einstellungen\brand\Desktop\thundercyer-the-alarm-clock\FreeRTOS_EC\Source\CTask.h **** public:
  44:C:\Dokumente und Einstellungen\brand\Desktop\thundercyer-the-alarm-clock\FreeRTOS_EC\Source\CTask.h **** 	/**
  45:C:\Dokumente und Einstellungen\brand\Desktop\thundercyer-the-alarm-clock\FreeRTOS_EC\Source\CTask.h **** 	 * The default constructor. It initializes the object without attaching it to a native FreeRTOS ha
  46:C:\Dokumente und Einstellungen\brand\Desktop\thundercyer-the-alarm-clock\FreeRTOS_EC\Source\CTask.h **** 	 * Call the Create method to allocate a task handle and attach it to the object.
  47:C:\Dokumente und Einstellungen\brand\Desktop\thundercyer-the-alarm-clock\FreeRTOS_EC\Source\CTask.h **** 	 */
  48:C:\Dokumente und Einstellungen\brand\Desktop\thundercyer-the-alarm-clock\FreeRTOS_EC\Source\CTask.h **** 	CTask();
  49:C:\Dokumente und Einstellungen\brand\Desktop\thundercyer-the-alarm-clock\FreeRTOS_EC\Source\CTask.h **** 
  50:C:\Dokumente und Einstellungen\brand\Desktop\thundercyer-the-alarm-clock\FreeRTOS_EC\Source\CTask.h **** 	/**
  51:C:\Dokumente und Einstellungen\brand\Desktop\thundercyer-the-alarm-clock\FreeRTOS_EC\Source\CTask.h **** 	 * Create a CTask instance and attach it to a valid handle.
  52:C:\Dokumente und Einstellungen\brand\Desktop\thundercyer-the-alarm-clock\FreeRTOS_EC\Source\CTask.h **** 	 *
  53:C:\Dokumente und Einstellungen\brand\Desktop\thundercyer-the-alarm-clock\FreeRTOS_EC\Source\CTask.h **** 	 * @param handleTask a valid task handle.
  54:C:\Dokumente und Einstellungen\brand\Desktop\thundercyer-the-alarm-clock\FreeRTOS_EC\Source\CTask.h **** 	 */
  55:C:\Dokumente und Einstellungen\brand\Desktop\thundercyer-the-alarm-clock\FreeRTOS_EC\Source\CTask.h **** 	CTask(xTaskHandle handleTask);
  56:C:\Dokumente und Einstellungen\brand\Desktop\thundercyer-the-alarm-clock\FreeRTOS_EC\Source\CTask.h **** 
  57:C:\Dokumente und Einstellungen\brand\Desktop\thundercyer-the-alarm-clock\FreeRTOS_EC\Source\CTask.h **** 	/**
  58:C:\Dokumente und Einstellungen\brand\Desktop\thundercyer-the-alarm-clock\FreeRTOS_EC\Source\CTask.h **** 	 * Delete the native FreeRTOS task.
  59:C:\Dokumente und Einstellungen\brand\Desktop\thundercyer-the-alarm-clock\FreeRTOS_EC\Source\CTask.h **** 	 */
  60:C:\Dokumente und Einstellungen\brand\Desktop\thundercyer-the-alarm-clock\FreeRTOS_EC\Source\CTask.h **** 	virtual ~CTask();
  61:C:\Dokumente und Einstellungen\brand\Desktop\thundercyer-the-alarm-clock\FreeRTOS_EC\Source\CTask.h **** 
  62:C:\Dokumente und Einstellungen\brand\Desktop\thundercyer-the-alarm-clock\FreeRTOS_EC\Source\CTask.h **** 	/**
  63:C:\Dokumente und Einstellungen\brand\Desktop\thundercyer-the-alarm-clock\FreeRTOS_EC\Source\CTask.h **** 	 * Retrieve the native FreeRTOS task handle attached to this object.
  64:C:\Dokumente und Einstellungen\brand\Desktop\thundercyer-the-alarm-clock\FreeRTOS_EC\Source\CTask.h **** 	 *
  65:C:\Dokumente und Einstellungen\brand\Desktop\thundercyer-the-alarm-clock\FreeRTOS_EC\Source\CTask.h **** 	 * @return the native FreeRTOS task handle attached to this object.
  66:C:\Dokumente und Einstellungen\brand\Desktop\thundercyer-the-alarm-clock\FreeRTOS_EC\Source\CTask.h **** 	 */
  67:C:\Dokumente und Einstellungen\brand\Desktop\thundercyer-the-alarm-clock\FreeRTOS_EC\Source\CTask.h **** 	inline operator xTaskHandle() const { return m_handleTask; }
  68:C:\Dokumente und Einstellungen\brand\Desktop\thundercyer-the-alarm-clock\FreeRTOS_EC\Source\CTask.h **** 
  69:C:\Dokumente und Einstellungen\brand\Desktop\thundercyer-the-alarm-clock\FreeRTOS_EC\Source\CTask.h **** 	// FreeRTOS API Wrappers
  70:C:\Dokumente und Einstellungen\brand\Desktop\thundercyer-the-alarm-clock\FreeRTOS_EC\Source\CTask.h **** 
  71:C:\Dokumente und Einstellungen\brand\Desktop\thundercyer-the-alarm-clock\FreeRTOS_EC\Source\CTask.h **** 	/**
  72:C:\Dokumente und Einstellungen\brand\Desktop\thundercyer-the-alarm-clock\FreeRTOS_EC\Source\CTask.h **** 	 * Create a FreeRTOS task and attach its handle to the receiver object.
  73:C:\Dokumente und Einstellungen\brand\Desktop\thundercyer-the-alarm-clock\FreeRTOS_EC\Source\CTask.h **** 	 *
  74:C:\Dokumente und Einstellungen\brand\Desktop\thundercyer-the-alarm-clock\FreeRTOS_EC\Source\CTask.h **** 	 * \sa <a href="http://www.freertos.org/a00125.html">xTaskCreate</a> FreeRTOS API function.
  75:C:\Dokumente und Einstellungen\brand\Desktop\thundercyer-the-alarm-clock\FreeRTOS_EC\Source\CTask.h **** 	 */
  76:C:\Dokumente und Einstellungen\brand\Desktop\thundercyer-the-alarm-clock\FreeRTOS_EC\Source\CTask.h **** 	portBASE_TYPE Create(pdTASK_CODE pvTaskCode, const portCHAR * const pcName, unsigned portSHORT usS
  77:C:\Dokumente und Einstellungen\brand\Desktop\thundercyer-the-alarm-clock\FreeRTOS_EC\Source\CTask.h **** 
  78:C:\Dokumente und Einstellungen\brand\Desktop\thundercyer-the-alarm-clock\FreeRTOS_EC\Source\CTask.h **** 	/**
  79:C:\Dokumente und Einstellungen\brand\Desktop\thundercyer-the-alarm-clock\FreeRTOS_EC\Source\CTask.h **** 	 * Create a Memory Protection Unit (MPU) restricted task and attach its handle to the receiver obj
  80:C:\Dokumente und Einstellungen\brand\Desktop\thundercyer-the-alarm-clock\FreeRTOS_EC\Source\CTask.h **** 	 *
  81:C:\Dokumente und Einstellungen\brand\Desktop\thundercyer-the-alarm-clock\FreeRTOS_EC\Source\CTask.h **** 	 * \sa <a href="http://www.freertos.org/xTaskCreateRestricted.html">xTaskCreateRestricted</a> Free
  82:C:\Dokumente und Einstellungen\brand\Desktop\thundercyer-the-alarm-clock\FreeRTOS_EC\Source\CTask.h **** 	 */
  83:C:\Dokumente und Einstellungen\brand\Desktop\thundercyer-the-alarm-clock\FreeRTOS_EC\Source\CTask.h **** 	portBASE_TYPE CreateRestricted(xTaskParameters *pxTaskDefinition);
  84:C:\Dokumente und Einstellungen\brand\Desktop\thundercyer-the-alarm-clock\FreeRTOS_EC\Source\CTask.h **** 
  85:C:\Dokumente und Einstellungen\brand\Desktop\thundercyer-the-alarm-clock\FreeRTOS_EC\Source\CTask.h **** 	/**
  86:C:\Dokumente und Einstellungen\brand\Desktop\thundercyer-the-alarm-clock\FreeRTOS_EC\Source\CTask.h **** 	 * \sa <a href="http://www.freertos.org/a00126.html">vTaskDelete</a>  FreeRTOS API function.
  87:C:\Dokumente und Einstellungen\brand\Desktop\thundercyer-the-alarm-clock\FreeRTOS_EC\Source\CTask.h **** 	 */
  88:C:\Dokumente und Einstellungen\brand\Desktop\thundercyer-the-alarm-clock\FreeRTOS_EC\Source\CTask.h **** 	void Delete();
  89:C:\Dokumente und Einstellungen\brand\Desktop\thundercyer-the-alarm-clock\FreeRTOS_EC\Source\CTask.h **** 
  90:C:\Dokumente und Einstellungen\brand\Desktop\thundercyer-the-alarm-clock\FreeRTOS_EC\Source\CTask.h **** 	/**
  91:C:\Dokumente und Einstellungen\brand\Desktop\thundercyer-the-alarm-clock\FreeRTOS_EC\Source\CTask.h **** 	 * \sa <a href="http://www.freertos.org/a00127.html">vTaskDelay</a>  FreeRTOS API function.
  92:C:\Dokumente und Einstellungen\brand\Desktop\thundercyer-the-alarm-clock\FreeRTOS_EC\Source\CTask.h **** 	 */
  93:C:\Dokumente und Einstellungen\brand\Desktop\thundercyer-the-alarm-clock\FreeRTOS_EC\Source\CTask.h **** 	inline static void Delay(portTickType xTicksToDelay);
  94:C:\Dokumente und Einstellungen\brand\Desktop\thundercyer-the-alarm-clock\FreeRTOS_EC\Source\CTask.h **** 
  95:C:\Dokumente und Einstellungen\brand\Desktop\thundercyer-the-alarm-clock\FreeRTOS_EC\Source\CTask.h **** 	/**
  96:C:\Dokumente und Einstellungen\brand\Desktop\thundercyer-the-alarm-clock\FreeRTOS_EC\Source\CTask.h **** 	 * \sa <a href="http://www.freertos.org/vtaskdelayuntil.html">vTaskDelayUntil</a>  FreeRTOS API fu
  97:C:\Dokumente und Einstellungen\brand\Desktop\thundercyer-the-alarm-clock\FreeRTOS_EC\Source\CTask.h **** 	 */
  98:C:\Dokumente und Einstellungen\brand\Desktop\thundercyer-the-alarm-clock\FreeRTOS_EC\Source\CTask.h ****     inline static void DelayUntil(portTickType *pxPreviousWakeTime, portTickType xTimeIncrement);
  99:C:\Dokumente und Einstellungen\brand\Desktop\thundercyer-the-alarm-clock\FreeRTOS_EC\Source\CTask.h **** 
 100:C:\Dokumente und Einstellungen\brand\Desktop\thundercyer-the-alarm-clock\FreeRTOS_EC\Source\CTask.h ****     /**
 101:C:\Dokumente und Einstellungen\brand\Desktop\thundercyer-the-alarm-clock\FreeRTOS_EC\Source\CTask.h ****      * \sa <a href="http://www.freertos.org/a00020.html#taskYIELD">taskYIELD</a>  FreeRTOS API func
 102:C:\Dokumente und Einstellungen\brand\Desktop\thundercyer-the-alarm-clock\FreeRTOS_EC\Source\CTask.h ****      */
 103:C:\Dokumente und Einstellungen\brand\Desktop\thundercyer-the-alarm-clock\FreeRTOS_EC\Source\CTask.h ****     inline static void Yeld() { taskYIELD(); }
 104:C:\Dokumente und Einstellungen\brand\Desktop\thundercyer-the-alarm-clock\FreeRTOS_EC\Source\CTask.h **** 
 105:C:\Dokumente und Einstellungen\brand\Desktop\thundercyer-the-alarm-clock\FreeRTOS_EC\Source\CTask.h ****     /**
 106:C:\Dokumente und Einstellungen\brand\Desktop\thundercyer-the-alarm-clock\FreeRTOS_EC\Source\CTask.h ****      * \sa <a href="http://www.freertos.org/a00020.html#taskENTER_CRITICAL">taskENTER_CRITICAL</a> 
 107:C:\Dokumente und Einstellungen\brand\Desktop\thundercyer-the-alarm-clock\FreeRTOS_EC\Source\CTask.h ****      */
 108:C:\Dokumente und Einstellungen\brand\Desktop\thundercyer-the-alarm-clock\FreeRTOS_EC\Source\CTask.h ****     inline static void EnterCritical() { taskENTER_CRITICAL(); }
 109:C:\Dokumente und Einstellungen\brand\Desktop\thundercyer-the-alarm-clock\FreeRTOS_EC\Source\CTask.h **** 
 110:C:\Dokumente und Einstellungen\brand\Desktop\thundercyer-the-alarm-clock\FreeRTOS_EC\Source\CTask.h ****     /**
 111:C:\Dokumente und Einstellungen\brand\Desktop\thundercyer-the-alarm-clock\FreeRTOS_EC\Source\CTask.h ****      * \sa <a href="http://www.freertos.org/a00020.html#taskEXIT_CRITICAL">taskEXIT_CRITICAL</a>  F
 112:C:\Dokumente und Einstellungen\brand\Desktop\thundercyer-the-alarm-clock\FreeRTOS_EC\Source\CTask.h ****      */
 113:C:\Dokumente und Einstellungen\brand\Desktop\thundercyer-the-alarm-clock\FreeRTOS_EC\Source\CTask.h ****     inline static void ExitCritical() { taskEXIT_CRITICAL(); }
 114:C:\Dokumente und Einstellungen\brand\Desktop\thundercyer-the-alarm-clock\FreeRTOS_EC\Source\CTask.h **** 
 115:C:\Dokumente und Einstellungen\brand\Desktop\thundercyer-the-alarm-clock\FreeRTOS_EC\Source\CTask.h ****     /**
 116:C:\Dokumente und Einstellungen\brand\Desktop\thundercyer-the-alarm-clock\FreeRTOS_EC\Source\CTask.h ****      * \sa <a href="http://www.freertos.org/a00020.html#taskDISABLE_INTERRUPTS">taskDISABLE_INTERRU
 117:C:\Dokumente und Einstellungen\brand\Desktop\thundercyer-the-alarm-clock\FreeRTOS_EC\Source\CTask.h ****      */
 118:C:\Dokumente und Einstellungen\brand\Desktop\thundercyer-the-alarm-clock\FreeRTOS_EC\Source\CTask.h ****     inline static void DisableInterrupt() { taskDISABLE_INTERRUPTS(); }
 119:C:\Dokumente und Einstellungen\brand\Desktop\thundercyer-the-alarm-clock\FreeRTOS_EC\Source\CTask.h **** 
 120:C:\Dokumente und Einstellungen\brand\Desktop\thundercyer-the-alarm-clock\FreeRTOS_EC\Source\CTask.h ****     /**
 121:C:\Dokumente und Einstellungen\brand\Desktop\thundercyer-the-alarm-clock\FreeRTOS_EC\Source\CTask.h ****      * \sa <a href="http://www.freertos.org/a00020.html#taskENABLE_INTERRUPTS">taskENABLE_INTERRUPT
 122:C:\Dokumente und Einstellungen\brand\Desktop\thundercyer-the-alarm-clock\FreeRTOS_EC\Source\CTask.h ****      */
 123:C:\Dokumente und Einstellungen\brand\Desktop\thundercyer-the-alarm-clock\FreeRTOS_EC\Source\CTask.h ****     inline static void EnableInterrupt() { taskENABLE_INTERRUPTS(); }
 124:C:\Dokumente und Einstellungen\brand\Desktop\thundercyer-the-alarm-clock\FreeRTOS_EC\Source\CTask.h **** 
 125:C:\Dokumente und Einstellungen\brand\Desktop\thundercyer-the-alarm-clock\FreeRTOS_EC\Source\CTask.h ****     /**
 126:C:\Dokumente und Einstellungen\brand\Desktop\thundercyer-the-alarm-clock\FreeRTOS_EC\Source\CTask.h ****      * \sa <a href="http://www.freertos.org/a00021.html#xTaskGetCurrentTaskHandle">xTaskGetCurrentT
 127:C:\Dokumente und Einstellungen\brand\Desktop\thundercyer-the-alarm-clock\FreeRTOS_EC\Source\CTask.h ****      */
 128:C:\Dokumente und Einstellungen\brand\Desktop\thundercyer-the-alarm-clock\FreeRTOS_EC\Source\CTask.h ****     inline static xTaskHandle GetCurrentTaskHandle();
 129:C:\Dokumente und Einstellungen\brand\Desktop\thundercyer-the-alarm-clock\FreeRTOS_EC\Source\CTask.h **** 
 130:C:\Dokumente und Einstellungen\brand\Desktop\thundercyer-the-alarm-clock\FreeRTOS_EC\Source\CTask.h ****     /**
 131:C:\Dokumente und Einstellungen\brand\Desktop\thundercyer-the-alarm-clock\FreeRTOS_EC\Source\CTask.h ****      * \sa <a href="http://www.freertos.org/a00021.html#xTaskGetTickCount">xTaskGetTickCount</a>  F
 132:C:\Dokumente und Einstellungen\brand\Desktop\thundercyer-the-alarm-clock\FreeRTOS_EC\Source\CTask.h ****      */
 133:C:\Dokumente und Einstellungen\brand\Desktop\thundercyer-the-alarm-clock\FreeRTOS_EC\Source\CTask.h ****     inline static portTickType GetTickCount();
 134:C:\Dokumente und Einstellungen\brand\Desktop\thundercyer-the-alarm-clock\FreeRTOS_EC\Source\CTask.h **** 
 135:C:\Dokumente und Einstellungen\brand\Desktop\thundercyer-the-alarm-clock\FreeRTOS_EC\Source\CTask.h ****     /**
 136:C:\Dokumente und Einstellungen\brand\Desktop\thundercyer-the-alarm-clock\FreeRTOS_EC\Source\CTask.h ****      * \sa <a href="http://www.freertos.org/a00021.html#xTaskGetSchedulerState">xTaskGetSchedulerSt
 137:C:\Dokumente und Einstellungen\brand\Desktop\thundercyer-the-alarm-clock\FreeRTOS_EC\Source\CTask.h ****      */
 138:C:\Dokumente und Einstellungen\brand\Desktop\thundercyer-the-alarm-clock\FreeRTOS_EC\Source\CTask.h ****     inline static portBASE_TYPE GetSchedulerState();
 139:C:\Dokumente und Einstellungen\brand\Desktop\thundercyer-the-alarm-clock\FreeRTOS_EC\Source\CTask.h **** 
 140:C:\Dokumente und Einstellungen\brand\Desktop\thundercyer-the-alarm-clock\FreeRTOS_EC\Source\CTask.h ****     /**
 141:C:\Dokumente und Einstellungen\brand\Desktop\thundercyer-the-alarm-clock\FreeRTOS_EC\Source\CTask.h ****      * \sa <a href="http://www.freertos.org/a00021.html#usTaskGetNumberOfTasks">uxTaskGetNumberOfTa
 142:C:\Dokumente und Einstellungen\brand\Desktop\thundercyer-the-alarm-clock\FreeRTOS_EC\Source\CTask.h ****      */
 143:C:\Dokumente und Einstellungen\brand\Desktop\thundercyer-the-alarm-clock\FreeRTOS_EC\Source\CTask.h ****     inline static unsigned portBASE_TYPE GetNumberOfTasks();
 144:C:\Dokumente und Einstellungen\brand\Desktop\thundercyer-the-alarm-clock\FreeRTOS_EC\Source\CTask.h **** 
 145:C:\Dokumente und Einstellungen\brand\Desktop\thundercyer-the-alarm-clock\FreeRTOS_EC\Source\CTask.h ****     /**
 146:C:\Dokumente und Einstellungen\brand\Desktop\thundercyer-the-alarm-clock\FreeRTOS_EC\Source\CTask.h ****      * \sa <a href="http://www.freertos.org/a00021.html#vTaskList">vTaskList</a>  FreeRTOS API func
 147:C:\Dokumente und Einstellungen\brand\Desktop\thundercyer-the-alarm-clock\FreeRTOS_EC\Source\CTask.h ****      */
 148:C:\Dokumente und Einstellungen\brand\Desktop\thundercyer-the-alarm-clock\FreeRTOS_EC\Source\CTask.h ****     inline static void GetTaskList(portCHAR *pcWriteBuffer);
 149:C:\Dokumente und Einstellungen\brand\Desktop\thundercyer-the-alarm-clock\FreeRTOS_EC\Source\CTask.h **** 
 150:C:\Dokumente und Einstellungen\brand\Desktop\thundercyer-the-alarm-clock\FreeRTOS_EC\Source\CTask.h ****     /**
 151:C:\Dokumente und Einstellungen\brand\Desktop\thundercyer-the-alarm-clock\FreeRTOS_EC\Source\CTask.h ****      * \sa <a href="http://www.freertos.org/a00021.html#vTaskGetRunTimeStats">vTaskGetRunTimeStats<
 152:C:\Dokumente und Einstellungen\brand\Desktop\thundercyer-the-alarm-clock\FreeRTOS_EC\Source\CTask.h ****      */
 153:C:\Dokumente und Einstellungen\brand\Desktop\thundercyer-the-alarm-clock\FreeRTOS_EC\Source\CTask.h ****     inline static void GetRunTimeStats(portCHAR *pcWriteBuffer);
 154:C:\Dokumente und Einstellungen\brand\Desktop\thundercyer-the-alarm-clock\FreeRTOS_EC\Source\CTask.h **** 
 155:C:\Dokumente und Einstellungen\brand\Desktop\thundercyer-the-alarm-clock\FreeRTOS_EC\Source\CTask.h ****     /**
 156:C:\Dokumente und Einstellungen\brand\Desktop\thundercyer-the-alarm-clock\FreeRTOS_EC\Source\CTask.h ****      * \sa <a href="http://www.freertos.org/a00128.html">uxTaskPriorityGet</a>  FreeRTOS API functi
 157:C:\Dokumente und Einstellungen\brand\Desktop\thundercyer-the-alarm-clock\FreeRTOS_EC\Source\CTask.h ****      */
 158:C:\Dokumente und Einstellungen\brand\Desktop\thundercyer-the-alarm-clock\FreeRTOS_EC\Source\CTask.h ****     inline unsigned portBASE_TYPE PriorityGet() const;
 159:C:\Dokumente und Einstellungen\brand\Desktop\thundercyer-the-alarm-clock\FreeRTOS_EC\Source\CTask.h **** 
 160:C:\Dokumente und Einstellungen\brand\Desktop\thundercyer-the-alarm-clock\FreeRTOS_EC\Source\CTask.h ****     /**
 161:C:\Dokumente und Einstellungen\brand\Desktop\thundercyer-the-alarm-clock\FreeRTOS_EC\Source\CTask.h ****      * \sa <a href="http://www.freertos.org/a00129.html">vTaskPrioritySet</a>  FreeRTOS API functio
 162:C:\Dokumente und Einstellungen\brand\Desktop\thundercyer-the-alarm-clock\FreeRTOS_EC\Source\CTask.h ****      */
 163:C:\Dokumente und Einstellungen\brand\Desktop\thundercyer-the-alarm-clock\FreeRTOS_EC\Source\CTask.h ****     inline void PrioritySet(unsigned portBASE_TYPE uxNewPriority);
 164:C:\Dokumente und Einstellungen\brand\Desktop\thundercyer-the-alarm-clock\FreeRTOS_EC\Source\CTask.h **** 
 165:C:\Dokumente und Einstellungen\brand\Desktop\thundercyer-the-alarm-clock\FreeRTOS_EC\Source\CTask.h ****     /**
 166:C:\Dokumente und Einstellungen\brand\Desktop\thundercyer-the-alarm-clock\FreeRTOS_EC\Source\CTask.h ****      * \sa <a href="http://www.freertos.org/a00130.html">vTaskSuspend</a>  FreeRTOS API function.
 167:C:\Dokumente und Einstellungen\brand\Desktop\thundercyer-the-alarm-clock\FreeRTOS_EC\Source\CTask.h ****      */
 168:C:\Dokumente und Einstellungen\brand\Desktop\thundercyer-the-alarm-clock\FreeRTOS_EC\Source\CTask.h ****     inline void Suspend();
 169:C:\Dokumente und Einstellungen\brand\Desktop\thundercyer-the-alarm-clock\FreeRTOS_EC\Source\CTask.h **** 
 170:C:\Dokumente und Einstellungen\brand\Desktop\thundercyer-the-alarm-clock\FreeRTOS_EC\Source\CTask.h ****     /**
 171:C:\Dokumente und Einstellungen\brand\Desktop\thundercyer-the-alarm-clock\FreeRTOS_EC\Source\CTask.h ****      * \sa <a href="http://www.freertos.org/a00131.html">vTaskResume</a>  FreeRTOS API function.
 172:C:\Dokumente und Einstellungen\brand\Desktop\thundercyer-the-alarm-clock\FreeRTOS_EC\Source\CTask.h ****      */
 173:C:\Dokumente und Einstellungen\brand\Desktop\thundercyer-the-alarm-clock\FreeRTOS_EC\Source\CTask.h ****     inline void Resume();
 174:C:\Dokumente und Einstellungen\brand\Desktop\thundercyer-the-alarm-clock\FreeRTOS_EC\Source\CTask.h **** 
 175:C:\Dokumente und Einstellungen\brand\Desktop\thundercyer-the-alarm-clock\FreeRTOS_EC\Source\CTask.h ****     /**
 176:C:\Dokumente und Einstellungen\brand\Desktop\thundercyer-the-alarm-clock\FreeRTOS_EC\Source\CTask.h ****      * \sa <a href="http://www.freertos.org/taskresumefromisr.html">xTaskResumeFromISR</a>  FreeRTO
 177:C:\Dokumente und Einstellungen\brand\Desktop\thundercyer-the-alarm-clock\FreeRTOS_EC\Source\CTask.h ****      */
 178:C:\Dokumente und Einstellungen\brand\Desktop\thundercyer-the-alarm-clock\FreeRTOS_EC\Source\CTask.h ****     inline portBASE_TYPE ResumeFromISR();
 179:C:\Dokumente und Einstellungen\brand\Desktop\thundercyer-the-alarm-clock\FreeRTOS_EC\Source\CTask.h **** 
 180:C:\Dokumente und Einstellungen\brand\Desktop\thundercyer-the-alarm-clock\FreeRTOS_EC\Source\CTask.h ****     /**
 181:C:\Dokumente und Einstellungen\brand\Desktop\thundercyer-the-alarm-clock\FreeRTOS_EC\Source\CTask.h ****      * \sa <a href="http://www.freertos.org/vTaskSetApplicationTag.html">vTaskSetApplicationTaskTag
 182:C:\Dokumente und Einstellungen\brand\Desktop\thundercyer-the-alarm-clock\FreeRTOS_EC\Source\CTask.h ****      */
 183:C:\Dokumente und Einstellungen\brand\Desktop\thundercyer-the-alarm-clock\FreeRTOS_EC\Source\CTask.h ****     inline void SetApplicationTag(pdTASK_HOOK_CODE pxTagValue);
 184:C:\Dokumente und Einstellungen\brand\Desktop\thundercyer-the-alarm-clock\FreeRTOS_EC\Source\CTask.h **** 
 185:C:\Dokumente und Einstellungen\brand\Desktop\thundercyer-the-alarm-clock\FreeRTOS_EC\Source\CTask.h ****     /**
 186:C:\Dokumente und Einstellungen\brand\Desktop\thundercyer-the-alarm-clock\FreeRTOS_EC\Source\CTask.h ****      * \sa <a href="http://www.freertos.org/xTaskCallApplicationTaskHook.html">xTaskCallApplication
 187:C:\Dokumente und Einstellungen\brand\Desktop\thundercyer-the-alarm-clock\FreeRTOS_EC\Source\CTask.h ****      */
 188:C:\Dokumente und Einstellungen\brand\Desktop\thundercyer-the-alarm-clock\FreeRTOS_EC\Source\CTask.h ****     inline portBASE_TYPE CallApplicationTaskHook(void *pvParameter);
 189:C:\Dokumente und Einstellungen\brand\Desktop\thundercyer-the-alarm-clock\FreeRTOS_EC\Source\CTask.h **** 
 190:C:\Dokumente und Einstellungen\brand\Desktop\thundercyer-the-alarm-clock\FreeRTOS_EC\Source\CTask.h ****     /**
 191:C:\Dokumente und Einstellungen\brand\Desktop\thundercyer-the-alarm-clock\FreeRTOS_EC\Source\CTask.h ****      * \sa <a href="http://www.freertos.org/vTaskAllocateMPURegions.html">vTaskAllocateMPURegions</
 192:C:\Dokumente und Einstellungen\brand\Desktop\thundercyer-the-alarm-clock\FreeRTOS_EC\Source\CTask.h ****      */
 193:C:\Dokumente und Einstellungen\brand\Desktop\thundercyer-the-alarm-clock\FreeRTOS_EC\Source\CTask.h ****     inline void AllocateMPURegions(const xMemoryRegion * const xRegions);
 194:C:\Dokumente und Einstellungen\brand\Desktop\thundercyer-the-alarm-clock\FreeRTOS_EC\Source\CTask.h **** 
 195:C:\Dokumente und Einstellungen\brand\Desktop\thundercyer-the-alarm-clock\FreeRTOS_EC\Source\CTask.h ****     // FreeRTOS class extension.
 196:C:\Dokumente und Einstellungen\brand\Desktop\thundercyer-the-alarm-clock\FreeRTOS_EC\Source\CTask.h **** 	inline bool IsValid() const;
 197:C:\Dokumente und Einstellungen\brand\Desktop\thundercyer-the-alarm-clock\FreeRTOS_EC\Source\CTask.h **** 	void Attach(xGenericHandle handle);
 198:C:\Dokumente und Einstellungen\brand\Desktop\thundercyer-the-alarm-clock\FreeRTOS_EC\Source\CTask.h **** 	inline xGenericHandle Detach();
 199:C:\Dokumente und Einstellungen\brand\Desktop\thundercyer-the-alarm-clock\FreeRTOS_EC\Source\CTask.h **** };
 200:C:\Dokumente und Einstellungen\brand\Desktop\thundercyer-the-alarm-clock\FreeRTOS_EC\Source\CTask.h **** 
 201:C:\Dokumente und Einstellungen\brand\Desktop\thundercyer-the-alarm-clock\FreeRTOS_EC\Source\CTask.h **** // inline method
 202:C:\Dokumente und Einstellungen\brand\Desktop\thundercyer-the-alarm-clock\FreeRTOS_EC\Source\CTask.h **** ////////////////
 203:C:\Dokumente und Einstellungen\brand\Desktop\thundercyer-the-alarm-clock\FreeRTOS_EC\Source\CTask.h **** 
 204:C:\Dokumente und Einstellungen\brand\Desktop\thundercyer-the-alarm-clock\FreeRTOS_EC\Source\CTask.h **** inline
 205:C:\Dokumente und Einstellungen\brand\Desktop\thundercyer-the-alarm-clock\FreeRTOS_EC\Source\CTask.h **** void CTask::Delay(portTickType xTicksToDelay) {
 206:C:\Dokumente und Einstellungen\brand\Desktop\thundercyer-the-alarm-clock\FreeRTOS_EC\Source\CTask.h **** #if ( INCLUDE_vTaskDelay == 1 )
 207:C:\Dokumente und Einstellungen\brand\Desktop\thundercyer-the-alarm-clock\FreeRTOS_EC\Source\CTask.h **** 	vTaskDelay(xTicksToDelay);
 208:C:\Dokumente und Einstellungen\brand\Desktop\thundercyer-the-alarm-clock\FreeRTOS_EC\Source\CTask.h **** #endif
 209:C:\Dokumente und Einstellungen\brand\Desktop\thundercyer-the-alarm-clock\FreeRTOS_EC\Source\CTask.h **** }
 210:C:\Dokumente und Einstellungen\brand\Desktop\thundercyer-the-alarm-clock\FreeRTOS_EC\Source\CTask.h **** 
 211:C:\Dokumente und Einstellungen\brand\Desktop\thundercyer-the-alarm-clock\FreeRTOS_EC\Source\CTask.h **** inline
 212:C:\Dokumente und Einstellungen\brand\Desktop\thundercyer-the-alarm-clock\FreeRTOS_EC\Source\CTask.h **** void CTask::DelayUntil(portTickType *pxPreviousWakeTime, portTickType xTimeIncrement) {
 213:C:\Dokumente und Einstellungen\brand\Desktop\thundercyer-the-alarm-clock\FreeRTOS_EC\Source\CTask.h **** #if ( INCLUDE_vTaskDelayUntil == 1 )
 214:C:\Dokumente und Einstellungen\brand\Desktop\thundercyer-the-alarm-clock\FreeRTOS_EC\Source\CTask.h **** 	vTaskDelayUntil(pxPreviousWakeTime, xTimeIncrement);
 215:C:\Dokumente und Einstellungen\brand\Desktop\thundercyer-the-alarm-clock\FreeRTOS_EC\Source\CTask.h **** #endif
 216:C:\Dokumente und Einstellungen\brand\Desktop\thundercyer-the-alarm-clock\FreeRTOS_EC\Source\CTask.h **** }
 217:C:\Dokumente und Einstellungen\brand\Desktop\thundercyer-the-alarm-clock\FreeRTOS_EC\Source\CTask.h **** 
 218:C:\Dokumente und Einstellungen\brand\Desktop\thundercyer-the-alarm-clock\FreeRTOS_EC\Source\CTask.h **** inline
 219:C:\Dokumente und Einstellungen\brand\Desktop\thundercyer-the-alarm-clock\FreeRTOS_EC\Source\CTask.h **** xTaskHandle CTask::GetCurrentTaskHandle() {
 220:C:\Dokumente und Einstellungen\brand\Desktop\thundercyer-the-alarm-clock\FreeRTOS_EC\Source\CTask.h **** 	return xTaskGetCurrentTaskHandle();
 221:C:\Dokumente und Einstellungen\brand\Desktop\thundercyer-the-alarm-clock\FreeRTOS_EC\Source\CTask.h **** }
 222:C:\Dokumente und Einstellungen\brand\Desktop\thundercyer-the-alarm-clock\FreeRTOS_EC\Source\CTask.h **** 
 223:C:\Dokumente und Einstellungen\brand\Desktop\thundercyer-the-alarm-clock\FreeRTOS_EC\Source\CTask.h **** inline
 224:C:\Dokumente und Einstellungen\brand\Desktop\thundercyer-the-alarm-clock\FreeRTOS_EC\Source\CTask.h **** portTickType CTask::GetTickCount() {
 225:C:\Dokumente und Einstellungen\brand\Desktop\thundercyer-the-alarm-clock\FreeRTOS_EC\Source\CTask.h **** 	return xTaskGetTickCount();
 226:C:\Dokumente und Einstellungen\brand\Desktop\thundercyer-the-alarm-clock\FreeRTOS_EC\Source\CTask.h **** }
 227:C:\Dokumente und Einstellungen\brand\Desktop\thundercyer-the-alarm-clock\FreeRTOS_EC\Source\CTask.h **** 
 228:C:\Dokumente und Einstellungen\brand\Desktop\thundercyer-the-alarm-clock\FreeRTOS_EC\Source\CTask.h **** inline
 229:C:\Dokumente und Einstellungen\brand\Desktop\thundercyer-the-alarm-clock\FreeRTOS_EC\Source\CTask.h **** portBASE_TYPE CTask::GetSchedulerState() {
 230:C:\Dokumente und Einstellungen\brand\Desktop\thundercyer-the-alarm-clock\FreeRTOS_EC\Source\CTask.h **** #if ( INCLUDE_xTaskGetSchedulerState == 1 )
 231:C:\Dokumente und Einstellungen\brand\Desktop\thundercyer-the-alarm-clock\FreeRTOS_EC\Source\CTask.h **** 	return xTaskGetSchedulerState();
 232:C:\Dokumente und Einstellungen\brand\Desktop\thundercyer-the-alarm-clock\FreeRTOS_EC\Source\CTask.h **** #else
 233:C:\Dokumente und Einstellungen\brand\Desktop\thundercyer-the-alarm-clock\FreeRTOS_EC\Source\CTask.h **** 	return 0;
 234:C:\Dokumente und Einstellungen\brand\Desktop\thundercyer-the-alarm-clock\FreeRTOS_EC\Source\CTask.h **** #endif
 235:C:\Dokumente und Einstellungen\brand\Desktop\thundercyer-the-alarm-clock\FreeRTOS_EC\Source\CTask.h **** }
 236:C:\Dokumente und Einstellungen\brand\Desktop\thundercyer-the-alarm-clock\FreeRTOS_EC\Source\CTask.h **** 
 237:C:\Dokumente und Einstellungen\brand\Desktop\thundercyer-the-alarm-clock\FreeRTOS_EC\Source\CTask.h **** inline
 238:C:\Dokumente und Einstellungen\brand\Desktop\thundercyer-the-alarm-clock\FreeRTOS_EC\Source\CTask.h **** unsigned portBASE_TYPE CTask::GetNumberOfTasks() {
 239:C:\Dokumente und Einstellungen\brand\Desktop\thundercyer-the-alarm-clock\FreeRTOS_EC\Source\CTask.h **** 	return uxTaskGetNumberOfTasks();
 240:C:\Dokumente und Einstellungen\brand\Desktop\thundercyer-the-alarm-clock\FreeRTOS_EC\Source\CTask.h **** }
 241:C:\Dokumente und Einstellungen\brand\Desktop\thundercyer-the-alarm-clock\FreeRTOS_EC\Source\CTask.h **** 
 242:C:\Dokumente und Einstellungen\brand\Desktop\thundercyer-the-alarm-clock\FreeRTOS_EC\Source\CTask.h **** inline
 243:C:\Dokumente und Einstellungen\brand\Desktop\thundercyer-the-alarm-clock\FreeRTOS_EC\Source\CTask.h **** void CTask::GetTaskList(portCHAR *pcWriteBuffer) {
 244:C:\Dokumente und Einstellungen\brand\Desktop\thundercyer-the-alarm-clock\FreeRTOS_EC\Source\CTask.h **** #if ( configUSE_TRACE_FACILITY == 1 )
 245:C:\Dokumente und Einstellungen\brand\Desktop\thundercyer-the-alarm-clock\FreeRTOS_EC\Source\CTask.h **** 	vTaskList((signed portCHAR*)pcWriteBuffer);
 246:C:\Dokumente und Einstellungen\brand\Desktop\thundercyer-the-alarm-clock\FreeRTOS_EC\Source\CTask.h **** #endif
 247:C:\Dokumente und Einstellungen\brand\Desktop\thundercyer-the-alarm-clock\FreeRTOS_EC\Source\CTask.h **** }
 248:C:\Dokumente und Einstellungen\brand\Desktop\thundercyer-the-alarm-clock\FreeRTOS_EC\Source\CTask.h **** 
 249:C:\Dokumente und Einstellungen\brand\Desktop\thundercyer-the-alarm-clock\FreeRTOS_EC\Source\CTask.h **** inline
 250:C:\Dokumente und Einstellungen\brand\Desktop\thundercyer-the-alarm-clock\FreeRTOS_EC\Source\CTask.h **** void CTask::GetRunTimeStats(portCHAR *pcWriteBuffer) {
 251:C:\Dokumente und Einstellungen\brand\Desktop\thundercyer-the-alarm-clock\FreeRTOS_EC\Source\CTask.h **** #if (configGENERATE_RUN_TIME_STATS == 1)
 252:C:\Dokumente und Einstellungen\brand\Desktop\thundercyer-the-alarm-clock\FreeRTOS_EC\Source\CTask.h **** 	vTaskGetRunTimeStats((signed portCHAR*)pcWriteBuffer);
 253:C:\Dokumente und Einstellungen\brand\Desktop\thundercyer-the-alarm-clock\FreeRTOS_EC\Source\CTask.h **** #endif
 254:C:\Dokumente und Einstellungen\brand\Desktop\thundercyer-the-alarm-clock\FreeRTOS_EC\Source\CTask.h **** }
 255:C:\Dokumente und Einstellungen\brand\Desktop\thundercyer-the-alarm-clock\FreeRTOS_EC\Source\CTask.h **** 
 256:C:\Dokumente und Einstellungen\brand\Desktop\thundercyer-the-alarm-clock\FreeRTOS_EC\Source\CTask.h **** inline
 257:C:\Dokumente und Einstellungen\brand\Desktop\thundercyer-the-alarm-clock\FreeRTOS_EC\Source\CTask.h **** unsigned portBASE_TYPE CTask::PriorityGet() const {
 258:C:\Dokumente und Einstellungen\brand\Desktop\thundercyer-the-alarm-clock\FreeRTOS_EC\Source\CTask.h **** #if ( INCLUDE_uxTaskPriorityGet == 1 )
 259:C:\Dokumente und Einstellungen\brand\Desktop\thundercyer-the-alarm-clock\FreeRTOS_EC\Source\CTask.h **** 	return uxTaskPriorityGet(m_handleTask);
 260:C:\Dokumente und Einstellungen\brand\Desktop\thundercyer-the-alarm-clock\FreeRTOS_EC\Source\CTask.h **** #else
 261:C:\Dokumente und Einstellungen\brand\Desktop\thundercyer-the-alarm-clock\FreeRTOS_EC\Source\CTask.h **** 	return -1;
 262:C:\Dokumente und Einstellungen\brand\Desktop\thundercyer-the-alarm-clock\FreeRTOS_EC\Source\CTask.h **** #endif
 263:C:\Dokumente und Einstellungen\brand\Desktop\thundercyer-the-alarm-clock\FreeRTOS_EC\Source\CTask.h **** }
 264:C:\Dokumente und Einstellungen\brand\Desktop\thundercyer-the-alarm-clock\FreeRTOS_EC\Source\CTask.h **** 
 265:C:\Dokumente und Einstellungen\brand\Desktop\thundercyer-the-alarm-clock\FreeRTOS_EC\Source\CTask.h **** inline
 266:C:\Dokumente und Einstellungen\brand\Desktop\thundercyer-the-alarm-clock\FreeRTOS_EC\Source\CTask.h **** void CTask::PrioritySet(unsigned portBASE_TYPE uxNewPriority) {
 267:C:\Dokumente und Einstellungen\brand\Desktop\thundercyer-the-alarm-clock\FreeRTOS_EC\Source\CTask.h **** #if ( INCLUDE_vTaskPrioritySet == 1 )
 268:C:\Dokumente und Einstellungen\brand\Desktop\thundercyer-the-alarm-clock\FreeRTOS_EC\Source\CTask.h **** 	vTaskPrioritySet(m_handleTask, uxNewPriority);
 269:C:\Dokumente und Einstellungen\brand\Desktop\thundercyer-the-alarm-clock\FreeRTOS_EC\Source\CTask.h **** #endif
 270:C:\Dokumente und Einstellungen\brand\Desktop\thundercyer-the-alarm-clock\FreeRTOS_EC\Source\CTask.h **** }
 271:C:\Dokumente und Einstellungen\brand\Desktop\thundercyer-the-alarm-clock\FreeRTOS_EC\Source\CTask.h **** 
 272:C:\Dokumente und Einstellungen\brand\Desktop\thundercyer-the-alarm-clock\FreeRTOS_EC\Source\CTask.h **** inline
 273:C:\Dokumente und Einstellungen\brand\Desktop\thundercyer-the-alarm-clock\FreeRTOS_EC\Source\CTask.h **** void CTask::Suspend() {
 274:C:\Dokumente und Einstellungen\brand\Desktop\thundercyer-the-alarm-clock\FreeRTOS_EC\Source\CTask.h **** #if ( INCLUDE_vTaskSuspend == 1 )
 275:C:\Dokumente und Einstellungen\brand\Desktop\thundercyer-the-alarm-clock\FreeRTOS_EC\Source\CTask.h **** 	vTaskSuspend(m_handleTask);
 276:C:\Dokumente und Einstellungen\brand\Desktop\thundercyer-the-alarm-clock\FreeRTOS_EC\Source\CTask.h **** #endif
 277:C:\Dokumente und Einstellungen\brand\Desktop\thundercyer-the-alarm-clock\FreeRTOS_EC\Source\CTask.h **** }
 278:C:\Dokumente und Einstellungen\brand\Desktop\thundercyer-the-alarm-clock\FreeRTOS_EC\Source\CTask.h **** 
 279:C:\Dokumente und Einstellungen\brand\Desktop\thundercyer-the-alarm-clock\FreeRTOS_EC\Source\CTask.h **** inline
 280:C:\Dokumente und Einstellungen\brand\Desktop\thundercyer-the-alarm-clock\FreeRTOS_EC\Source\CTask.h **** void CTask::Resume() {
 281:C:\Dokumente und Einstellungen\brand\Desktop\thundercyer-the-alarm-clock\FreeRTOS_EC\Source\CTask.h **** #if ( INCLUDE_vTaskSuspend == 1 )
 282:C:\Dokumente und Einstellungen\brand\Desktop\thundercyer-the-alarm-clock\FreeRTOS_EC\Source\CTask.h **** 	vTaskResume(m_handleTask);
 283:C:\Dokumente und Einstellungen\brand\Desktop\thundercyer-the-alarm-clock\FreeRTOS_EC\Source\CTask.h **** #endif
 284:C:\Dokumente und Einstellungen\brand\Desktop\thundercyer-the-alarm-clock\FreeRTOS_EC\Source\CTask.h **** }
 285:C:\Dokumente und Einstellungen\brand\Desktop\thundercyer-the-alarm-clock\FreeRTOS_EC\Source\CTask.h **** 
 286:C:\Dokumente und Einstellungen\brand\Desktop\thundercyer-the-alarm-clock\FreeRTOS_EC\Source\CTask.h **** inline
 287:C:\Dokumente und Einstellungen\brand\Desktop\thundercyer-the-alarm-clock\FreeRTOS_EC\Source\CTask.h **** portBASE_TYPE CTask::ResumeFromISR() {
 288:C:\Dokumente und Einstellungen\brand\Desktop\thundercyer-the-alarm-clock\FreeRTOS_EC\Source\CTask.h **** #if ( ( INCLUDE_xTaskResumeFromISR == 1 ) && ( INCLUDE_vTaskSuspend == 1 ) )
 289:C:\Dokumente und Einstellungen\brand\Desktop\thundercyer-the-alarm-clock\FreeRTOS_EC\Source\CTask.h **** 	return xTaskResumeFromISR(m_handleTask);
 290:C:\Dokumente und Einstellungen\brand\Desktop\thundercyer-the-alarm-clock\FreeRTOS_EC\Source\CTask.h **** #else
 291:C:\Dokumente und Einstellungen\brand\Desktop\thundercyer-the-alarm-clock\FreeRTOS_EC\Source\CTask.h **** 	return pdFALSE;
 292:C:\Dokumente und Einstellungen\brand\Desktop\thundercyer-the-alarm-clock\FreeRTOS_EC\Source\CTask.h **** #endif
 293:C:\Dokumente und Einstellungen\brand\Desktop\thundercyer-the-alarm-clock\FreeRTOS_EC\Source\CTask.h **** }
 294:C:\Dokumente und Einstellungen\brand\Desktop\thundercyer-the-alarm-clock\FreeRTOS_EC\Source\CTask.h **** 
 295:C:\Dokumente und Einstellungen\brand\Desktop\thundercyer-the-alarm-clock\FreeRTOS_EC\Source\CTask.h **** inline
 296:C:\Dokumente und Einstellungen\brand\Desktop\thundercyer-the-alarm-clock\FreeRTOS_EC\Source\CTask.h **** void CTask::SetApplicationTag(pdTASK_HOOK_CODE pxTagValue) {
 297:C:\Dokumente und Einstellungen\brand\Desktop\thundercyer-the-alarm-clock\FreeRTOS_EC\Source\CTask.h **** #if ( configUSE_APPLICATION_TASK_TAG == 1 )
 298:C:\Dokumente und Einstellungen\brand\Desktop\thundercyer-the-alarm-clock\FreeRTOS_EC\Source\CTask.h **** 	vTaskSetApplicationTaskTag(m_handleTask, pxTagValue);
 299:C:\Dokumente und Einstellungen\brand\Desktop\thundercyer-the-alarm-clock\FreeRTOS_EC\Source\CTask.h **** #endif
 300:C:\Dokumente und Einstellungen\brand\Desktop\thundercyer-the-alarm-clock\FreeRTOS_EC\Source\CTask.h **** }
 301:C:\Dokumente und Einstellungen\brand\Desktop\thundercyer-the-alarm-clock\FreeRTOS_EC\Source\CTask.h **** 
 302:C:\Dokumente und Einstellungen\brand\Desktop\thundercyer-the-alarm-clock\FreeRTOS_EC\Source\CTask.h **** inline
 303:C:\Dokumente und Einstellungen\brand\Desktop\thundercyer-the-alarm-clock\FreeRTOS_EC\Source\CTask.h **** portBASE_TYPE CTask::CallApplicationTaskHook(void *pvParameter) {
 304:C:\Dokumente und Einstellungen\brand\Desktop\thundercyer-the-alarm-clock\FreeRTOS_EC\Source\CTask.h **** #if ( configUSE_APPLICATION_TASK_TAG == 1 )
 305:C:\Dokumente und Einstellungen\brand\Desktop\thundercyer-the-alarm-clock\FreeRTOS_EC\Source\CTask.h **** 	return xTaskCallApplicationTaskHook(m_handleTask, pvParameter);
 306:C:\Dokumente und Einstellungen\brand\Desktop\thundercyer-the-alarm-clock\FreeRTOS_EC\Source\CTask.h **** #else
 307:C:\Dokumente und Einstellungen\brand\Desktop\thundercyer-the-alarm-clock\FreeRTOS_EC\Source\CTask.h **** 	return 0;
 308:C:\Dokumente und Einstellungen\brand\Desktop\thundercyer-the-alarm-clock\FreeRTOS_EC\Source\CTask.h **** #endif
 309:C:\Dokumente und Einstellungen\brand\Desktop\thundercyer-the-alarm-clock\FreeRTOS_EC\Source\CTask.h **** }
 310:C:\Dokumente und Einstellungen\brand\Desktop\thundercyer-the-alarm-clock\FreeRTOS_EC\Source\CTask.h **** 
 311:C:\Dokumente und Einstellungen\brand\Desktop\thundercyer-the-alarm-clock\FreeRTOS_EC\Source\CTask.h **** inline
 312:C:\Dokumente und Einstellungen\brand\Desktop\thundercyer-the-alarm-clock\FreeRTOS_EC\Source\CTask.h **** void CTask::AllocateMPURegions(const xMemoryRegion * const xRegions) {
 313:C:\Dokumente und Einstellungen\brand\Desktop\thundercyer-the-alarm-clock\FreeRTOS_EC\Source\CTask.h **** #if ( portUSING_MPU_WRAPPERS == 1 )
 314:C:\Dokumente und Einstellungen\brand\Desktop\thundercyer-the-alarm-clock\FreeRTOS_EC\Source\CTask.h **** 	vTaskAllocateMPURegions(m_handleTask, xRegions);
 315:C:\Dokumente und Einstellungen\brand\Desktop\thundercyer-the-alarm-clock\FreeRTOS_EC\Source\CTask.h **** #endif
 316:C:\Dokumente und Einstellungen\brand\Desktop\thundercyer-the-alarm-clock\FreeRTOS_EC\Source\CTask.h **** }
 317:C:\Dokumente und Einstellungen\brand\Desktop\thundercyer-the-alarm-clock\FreeRTOS_EC\Source\CTask.h **** 
 318:C:\Dokumente und Einstellungen\brand\Desktop\thundercyer-the-alarm-clock\FreeRTOS_EC\Source\CTask.h **** inline
 319:C:\Dokumente und Einstellungen\brand\Desktop\thundercyer-the-alarm-clock\FreeRTOS_EC\Source\CTask.h **** bool CTask::IsValid() const{
  27              		.loc 1 319 0
  28              		.cfi_startproc
  29              		@ args = 0, pretend = 0, frame = 8
  30              		@ frame_needed = 1, uses_anonymous_args = 0
  31              		@ link register save eliminated.
  32 0000 80B4     		push	{r7}
  33              	.LCFI0:
  34              		.cfi_def_cfa_offset 4
  35              		.cfi_offset 7, -4
  36 0002 83B0     		sub	sp, sp, #12
  37              	.LCFI1:
  38              		.cfi_def_cfa_offset 16
  39 0004 00AF     		add	r7, sp, #0
  40              	.LCFI2:
  41              		.cfi_def_cfa_register 7
  42 0006 7860     		str	r0, [r7, #4]
 320:C:\Dokumente und Einstellungen\brand\Desktop\thundercyer-the-alarm-clock\FreeRTOS_EC\Source\CTask.h **** 	return m_handleTask != NULL;
  43              		.loc 1 320 0
  44 0008 7B68     		ldr	r3, [r7, #4]
  45 000a 5B68     		ldr	r3, [r3, #4]
  46 000c 002B     		cmp	r3, #0
  47 000e 0CBF     		ite	eq
  48 0010 0023     		moveq	r3, #0
  49 0012 0123     		movne	r3, #1
  50 0014 DBB2     		uxtb	r3, r3
 321:C:\Dokumente und Einstellungen\brand\Desktop\thundercyer-the-alarm-clock\FreeRTOS_EC\Source\CTask.h **** }
  51              		.loc 1 321 0
  52 0016 1846     		mov	r0, r3
  53 0018 07F10C07 		add	r7, r7, #12
  54 001c BD46     		mov	sp, r7
  55 001e 80BC     		pop	{r7}
  56 0020 7047     		bx	lr
  57              		.cfi_endproc
  58              	.LFE132:
  60 0022 00BF     		.section	.text._ZN5CTask6DetachEv,"axG",%progbits,_ZN5CTask6DetachEv,comdat
  61              		.align	2
  62              		.weak	_ZN5CTask6DetachEv
  63              		.thumb
  64              		.thumb_func
  66              	_ZN5CTask6DetachEv:
  67              	.LFB133:
 322:C:\Dokumente und Einstellungen\brand\Desktop\thundercyer-the-alarm-clock\FreeRTOS_EC\Source\CTask.h **** 
 323:C:\Dokumente und Einstellungen\brand\Desktop\thundercyer-the-alarm-clock\FreeRTOS_EC\Source\CTask.h **** inline
 324:C:\Dokumente und Einstellungen\brand\Desktop\thundercyer-the-alarm-clock\FreeRTOS_EC\Source\CTask.h **** xGenericHandle CTask::Detach() {
  68              		.loc 1 324 0
  69              		.cfi_startproc
  70              		@ args = 0, pretend = 0, frame = 16
  71              		@ frame_needed = 1, uses_anonymous_args = 0
  72              		@ link register save eliminated.
  73 0000 80B4     		push	{r7}
  74              	.LCFI3:
  75              		.cfi_def_cfa_offset 4
  76              		.cfi_offset 7, -4
  77 0002 85B0     		sub	sp, sp, #20
  78              	.LCFI4:
  79              		.cfi_def_cfa_offset 24
  80 0004 00AF     		add	r7, sp, #0
  81              	.LCFI5:
  82              		.cfi_def_cfa_register 7
  83 0006 7860     		str	r0, [r7, #4]
  84              	.LBB2:
 325:C:\Dokumente und Einstellungen\brand\Desktop\thundercyer-the-alarm-clock\FreeRTOS_EC\Source\CTask.h **** 	xTaskHandle res = m_handleTask;
  85              		.loc 1 325 0
  86 0008 7B68     		ldr	r3, [r7, #4]
  87 000a 5B68     		ldr	r3, [r3, #4]
  88 000c FB60     		str	r3, [r7, #12]
 326:C:\Dokumente und Einstellungen\brand\Desktop\thundercyer-the-alarm-clock\FreeRTOS_EC\Source\CTask.h **** 	m_handleTask = NULL;
  89              		.loc 1 326 0
  90 000e 7B68     		ldr	r3, [r7, #4]
  91 0010 4FF00002 		mov	r2, #0
  92 0014 5A60     		str	r2, [r3, #4]
 327:C:\Dokumente und Einstellungen\brand\Desktop\thundercyer-the-alarm-clock\FreeRTOS_EC\Source\CTask.h **** 	return res;
  93              		.loc 1 327 0
  94 0016 FB68     		ldr	r3, [r7, #12]
  95              	.LBE2:
 328:C:\Dokumente und Einstellungen\brand\Desktop\thundercyer-the-alarm-clock\FreeRTOS_EC\Source\CTask.h **** }
  96              		.loc 1 328 0
  97 0018 1846     		mov	r0, r3
  98 001a 07F11407 		add	r7, r7, #20
  99 001e BD46     		mov	sp, r7
 100 0020 80BC     		pop	{r7}
 101 0022 7047     		bx	lr
 102              		.cfi_endproc
 103              	.LFE133:
 105              		.section	.text._ZN12AManagedTask8OnCreateEPKctm,"axG",%progbits,_ZN12AManagedTask8OnCreateEPKctm,c
 106              		.align	2
 107              		.weak	_ZN12AManagedTask8OnCreateEPKctm
 108              		.thumb
 109              		.thumb_func
 111              	_ZN12AManagedTask8OnCreateEPKctm:
 112              	.LFB135:
 113              		.file 2 "C:\\Dokumente und Einstellungen\\brand\\Desktop\\thundercyer-the-alarm-clock\\FreeRTOS_EC
   1:C:\Dokumente und Einstellungen\brand\Desktop\thundercyer-the-alarm-clock\FreeRTOS_EC\Source\AManagedTask.h **** /**
   2:C:\Dokumente und Einstellungen\brand\Desktop\thundercyer-the-alarm-clock\FreeRTOS_EC\Source\AManagedTask.h ****  * @file AManagedTask.h
   3:C:\Dokumente und Einstellungen\brand\Desktop\thundercyer-the-alarm-clock\FreeRTOS_EC\Source\AManagedTask.h ****  * @class AManagedTask
   4:C:\Dokumente und Einstellungen\brand\Desktop\thundercyer-the-alarm-clock\FreeRTOS_EC\Source\AManagedTask.h ****  *
   5:C:\Dokumente und Einstellungen\brand\Desktop\thundercyer-the-alarm-clock\FreeRTOS_EC\Source\AManagedTask.h ****  * This class extend the CTask in order to provide a more structured and simple to use framework fo
   6:C:\Dokumente und Einstellungen\brand\Desktop\thundercyer-the-alarm-clock\FreeRTOS_EC\Source\AManagedTask.h ****  * FreeRTOS programming. All AManagedTask derived objects are grouped in linked list. Please note t
   7:C:\Dokumente und Einstellungen\brand\Desktop\thundercyer-the-alarm-clock\FreeRTOS_EC\Source\AManagedTask.h ****  * this data structure can be modified in a next release. The framework manage these task objects
   8:C:\Dokumente und Einstellungen\brand\Desktop\thundercyer-the-alarm-clock\FreeRTOS_EC\Source\AManagedTask.h ****  * by calling their methods during the application life cycle.
   9:C:\Dokumente und Einstellungen\brand\Desktop\thundercyer-the-alarm-clock\FreeRTOS_EC\Source\AManagedTask.h ****  *
  10:C:\Dokumente und Einstellungen\brand\Desktop\thundercyer-the-alarm-clock\FreeRTOS_EC\Source\AManagedTask.h ****  * The application extend this abstract class to create a managed task and provide its control loop
  11:C:\Dokumente und Einstellungen\brand\Desktop\thundercyer-the-alarm-clock\FreeRTOS_EC\Source\AManagedTask.h ****  * \code
  12:C:\Dokumente und Einstellungen\brand\Desktop\thundercyer-the-alarm-clock\FreeRTOS_EC\Source\AManagedTask.h ****  * class CMyPipe: public AManagedTask
  13:C:\Dokumente und Einstellungen\brand\Desktop\thundercyer-the-alarm-clock\FreeRTOS_EC\Source\AManagedTask.h ****  * {
  14:C:\Dokumente und Einstellungen\brand\Desktop\thundercyer-the-alarm-clock\FreeRTOS_EC\Source\AManagedTask.h ****  *   // Task private variables.
  15:C:\Dokumente und Einstellungen\brand\Desktop\thundercyer-the-alarm-clock\FreeRTOS_EC\Source\AManagedTask.h ****  *
  16:C:\Dokumente und Einstellungen\brand\Desktop\thundercyer-the-alarm-clock\FreeRTOS_EC\Source\AManagedTask.h ****  * public:
  17:C:\Dokumente und Einstellungen\brand\Desktop\thundercyer-the-alarm-clock\FreeRTOS_EC\Source\AManagedTask.h ****  *   void Run() {  task control loop  };
  18:C:\Dokumente und Einstellungen\brand\Desktop\thundercyer-the-alarm-clock\FreeRTOS_EC\Source\AManagedTask.h ****  * }
  19:C:\Dokumente und Einstellungen\brand\Desktop\thundercyer-the-alarm-clock\FreeRTOS_EC\Source\AManagedTask.h ****  * \endcode
  20:C:\Dokumente und Einstellungen\brand\Desktop\thundercyer-the-alarm-clock\FreeRTOS_EC\Source\AManagedTask.h ****  *
  21:C:\Dokumente und Einstellungen\brand\Desktop\thundercyer-the-alarm-clock\FreeRTOS_EC\Source\AManagedTask.h ****  * @date Aug 3, 2010
  22:C:\Dokumente und Einstellungen\brand\Desktop\thundercyer-the-alarm-clock\FreeRTOS_EC\Source\AManagedTask.h ****  * @author Stefano Oliveri
  23:C:\Dokumente und Einstellungen\brand\Desktop\thundercyer-the-alarm-clock\FreeRTOS_EC\Source\AManagedTask.h ****  *         E-Mail: software@stf12.net
  24:C:\Dokumente und Einstellungen\brand\Desktop\thundercyer-the-alarm-clock\FreeRTOS_EC\Source\AManagedTask.h ****  */
  25:C:\Dokumente und Einstellungen\brand\Desktop\thundercyer-the-alarm-clock\FreeRTOS_EC\Source\AManagedTask.h **** 
  26:C:\Dokumente und Einstellungen\brand\Desktop\thundercyer-the-alarm-clock\FreeRTOS_EC\Source\AManagedTask.h **** /**
  27:C:\Dokumente und Einstellungen\brand\Desktop\thundercyer-the-alarm-clock\FreeRTOS_EC\Source\AManagedTask.h ****  * @defgroup FreeRTOS_Managed FreeRTOS Managed Class Extension
  28:C:\Dokumente und Einstellungen\brand\Desktop\thundercyer-the-alarm-clock\FreeRTOS_EC\Source\AManagedTask.h ****  * @ingroup FreeRTOS_CPP_EXT
  29:C:\Dokumente und Einstellungen\brand\Desktop\thundercyer-the-alarm-clock\FreeRTOS_EC\Source\AManagedTask.h ****  * The FreeRTOS Managed Class Extension are a set of class that provide a structured and
  30:C:\Dokumente und Einstellungen\brand\Desktop\thundercyer-the-alarm-clock\FreeRTOS_EC\Source\AManagedTask.h ****  * managed framework to develop a FreeRTOS application.
  31:C:\Dokumente und Einstellungen\brand\Desktop\thundercyer-the-alarm-clock\FreeRTOS_EC\Source\AManagedTask.h ****  * @{
  32:C:\Dokumente und Einstellungen\brand\Desktop\thundercyer-the-alarm-clock\FreeRTOS_EC\Source\AManagedTask.h ****  */
  33:C:\Dokumente und Einstellungen\brand\Desktop\thundercyer-the-alarm-clock\FreeRTOS_EC\Source\AManagedTask.h **** 
  34:C:\Dokumente und Einstellungen\brand\Desktop\thundercyer-the-alarm-clock\FreeRTOS_EC\Source\AManagedTask.h **** #ifndef AMANAGEDTASK_H_
  35:C:\Dokumente und Einstellungen\brand\Desktop\thundercyer-the-alarm-clock\FreeRTOS_EC\Source\AManagedTask.h **** #define AMANAGEDTASK_H_
  36:C:\Dokumente und Einstellungen\brand\Desktop\thundercyer-the-alarm-clock\FreeRTOS_EC\Source\AManagedTask.h **** 
  37:C:\Dokumente und Einstellungen\brand\Desktop\thundercyer-the-alarm-clock\FreeRTOS_EC\Source\AManagedTask.h **** #include "CTask.h"
  38:C:\Dokumente und Einstellungen\brand\Desktop\thundercyer-the-alarm-clock\FreeRTOS_EC\Source\AManagedTask.h **** 
  39:C:\Dokumente und Einstellungen\brand\Desktop\thundercyer-the-alarm-clock\FreeRTOS_EC\Source\AManagedTask.h **** class AManagedTask: public CTask {
  40:C:\Dokumente und Einstellungen\brand\Desktop\thundercyer-the-alarm-clock\FreeRTOS_EC\Source\AManagedTask.h **** 	friend class CFreeRTOS;
  41:C:\Dokumente und Einstellungen\brand\Desktop\thundercyer-the-alarm-clock\FreeRTOS_EC\Source\AManagedTask.h **** 
  42:C:\Dokumente und Einstellungen\brand\Desktop\thundercyer-the-alarm-clock\FreeRTOS_EC\Source\AManagedTask.h **** 	/**
  43:C:\Dokumente und Einstellungen\brand\Desktop\thundercyer-the-alarm-clock\FreeRTOS_EC\Source\AManagedTask.h **** 	 * Specifies the head of the linked list used to group all application managed task.
  44:C:\Dokumente und Einstellungen\brand\Desktop\thundercyer-the-alarm-clock\FreeRTOS_EC\Source\AManagedTask.h **** 	 */
  45:C:\Dokumente und Einstellungen\brand\Desktop\thundercyer-the-alarm-clock\FreeRTOS_EC\Source\AManagedTask.h **** 	static AManagedTask *s_pManagedTaskListHead;
  46:C:\Dokumente und Einstellungen\brand\Desktop\thundercyer-the-alarm-clock\FreeRTOS_EC\Source\AManagedTask.h **** 
  47:C:\Dokumente und Einstellungen\brand\Desktop\thundercyer-the-alarm-clock\FreeRTOS_EC\Source\AManagedTask.h **** 	/**
  48:C:\Dokumente und Einstellungen\brand\Desktop\thundercyer-the-alarm-clock\FreeRTOS_EC\Source\AManagedTask.h **** 	 * Specifies the next managed task in the list or NULL if this is the last managed task.
  49:C:\Dokumente und Einstellungen\brand\Desktop\thundercyer-the-alarm-clock\FreeRTOS_EC\Source\AManagedTask.h **** 	 */
  50:C:\Dokumente und Einstellungen\brand\Desktop\thundercyer-the-alarm-clock\FreeRTOS_EC\Source\AManagedTask.h **** 	AManagedTask *m_pNextManagedTask;
  51:C:\Dokumente und Einstellungen\brand\Desktop\thundercyer-the-alarm-clock\FreeRTOS_EC\Source\AManagedTask.h **** 
  52:C:\Dokumente und Einstellungen\brand\Desktop\thundercyer-the-alarm-clock\FreeRTOS_EC\Source\AManagedTask.h **** public:
  53:C:\Dokumente und Einstellungen\brand\Desktop\thundercyer-the-alarm-clock\FreeRTOS_EC\Source\AManagedTask.h **** 
  54:C:\Dokumente und Einstellungen\brand\Desktop\thundercyer-the-alarm-clock\FreeRTOS_EC\Source\AManagedTask.h **** 	/**
  55:C:\Dokumente und Einstellungen\brand\Desktop\thundercyer-the-alarm-clock\FreeRTOS_EC\Source\AManagedTask.h **** 	 * Default constructor.
  56:C:\Dokumente und Einstellungen\brand\Desktop\thundercyer-the-alarm-clock\FreeRTOS_EC\Source\AManagedTask.h **** 	 */
  57:C:\Dokumente und Einstellungen\brand\Desktop\thundercyer-the-alarm-clock\FreeRTOS_EC\Source\AManagedTask.h **** 	AManagedTask();
  58:C:\Dokumente und Einstellungen\brand\Desktop\thundercyer-the-alarm-clock\FreeRTOS_EC\Source\AManagedTask.h **** 
  59:C:\Dokumente und Einstellungen\brand\Desktop\thundercyer-the-alarm-clock\FreeRTOS_EC\Source\AManagedTask.h **** 	/**
  60:C:\Dokumente und Einstellungen\brand\Desktop\thundercyer-the-alarm-clock\FreeRTOS_EC\Source\AManagedTask.h **** 	 * Destructor.
  61:C:\Dokumente und Einstellungen\brand\Desktop\thundercyer-the-alarm-clock\FreeRTOS_EC\Source\AManagedTask.h **** 	 */
  62:C:\Dokumente und Einstellungen\brand\Desktop\thundercyer-the-alarm-clock\FreeRTOS_EC\Source\AManagedTask.h **** 	virtual ~AManagedTask();
  63:C:\Dokumente und Einstellungen\brand\Desktop\thundercyer-the-alarm-clock\FreeRTOS_EC\Source\AManagedTask.h **** 
  64:C:\Dokumente und Einstellungen\brand\Desktop\thundercyer-the-alarm-clock\FreeRTOS_EC\Source\AManagedTask.h **** 	/**
  65:C:\Dokumente und Einstellungen\brand\Desktop\thundercyer-the-alarm-clock\FreeRTOS_EC\Source\AManagedTask.h **** 	 * Create the FreeRTOS task attached to this object.
  66:C:\Dokumente und Einstellungen\brand\Desktop\thundercyer-the-alarm-clock\FreeRTOS_EC\Source\AManagedTask.h **** 	 *
  67:C:\Dokumente und Einstellungen\brand\Desktop\thundercyer-the-alarm-clock\FreeRTOS_EC\Source\AManagedTask.h **** 	 * @param pcName name of the task. Need only for debug purpose.
  68:C:\Dokumente und Einstellungen\brand\Desktop\thundercyer-the-alarm-clock\FreeRTOS_EC\Source\AManagedTask.h **** 	 * @param usStackDepth size in word of the task stack.
  69:C:\Dokumente und Einstellungen\brand\Desktop\thundercyer-the-alarm-clock\FreeRTOS_EC\Source\AManagedTask.h **** 	 * @param uxPriority task priority. Valid value ar between taskIDLE_PRIORITY and configMAX_PRIORIT
  70:C:\Dokumente und Einstellungen\brand\Desktop\thundercyer-the-alarm-clock\FreeRTOS_EC\Source\AManagedTask.h **** 	 *
  71:C:\Dokumente und Einstellungen\brand\Desktop\thundercyer-the-alarm-clock\FreeRTOS_EC\Source\AManagedTask.h **** 	 * @sa CTask::Create
  72:C:\Dokumente und Einstellungen\brand\Desktop\thundercyer-the-alarm-clock\FreeRTOS_EC\Source\AManagedTask.h **** 	 */
  73:C:\Dokumente und Einstellungen\brand\Desktop\thundercyer-the-alarm-clock\FreeRTOS_EC\Source\AManagedTask.h **** 	portBASE_TYPE Create(const portCHAR * const pcName, unsigned portSHORT usStackDepth, unsigned port
  74:C:\Dokumente und Einstellungen\brand\Desktop\thundercyer-the-alarm-clock\FreeRTOS_EC\Source\AManagedTask.h **** 
  75:C:\Dokumente und Einstellungen\brand\Desktop\thundercyer-the-alarm-clock\FreeRTOS_EC\Source\AManagedTask.h **** 	/**
  76:C:\Dokumente und Einstellungen\brand\Desktop\thundercyer-the-alarm-clock\FreeRTOS_EC\Source\AManagedTask.h **** 	 * The framework calls this function before the scheduler start. The default implementation simply
  77:C:\Dokumente und Einstellungen\brand\Desktop\thundercyer-the-alarm-clock\FreeRTOS_EC\Source\AManagedTask.h **** 	 * Override this method to perform task specific hardware initialization that does not use FreeRTO
  78:C:\Dokumente und Einstellungen\brand\Desktop\thundercyer-the-alarm-clock\FreeRTOS_EC\Source\AManagedTask.h **** 	 *
  79:C:\Dokumente und Einstellungen\brand\Desktop\thundercyer-the-alarm-clock\FreeRTOS_EC\Source\AManagedTask.h **** 	 * @return true if success, false otherwise.
  80:C:\Dokumente und Einstellungen\brand\Desktop\thundercyer-the-alarm-clock\FreeRTOS_EC\Source\AManagedTask.h **** 	 */
  81:C:\Dokumente und Einstellungen\brand\Desktop\thundercyer-the-alarm-clock\FreeRTOS_EC\Source\AManagedTask.h **** 	virtual bool HardwareInit() { return true; }
  82:C:\Dokumente und Einstellungen\brand\Desktop\thundercyer-the-alarm-clock\FreeRTOS_EC\Source\AManagedTask.h **** 
  83:C:\Dokumente und Einstellungen\brand\Desktop\thundercyer-the-alarm-clock\FreeRTOS_EC\Source\AManagedTask.h **** 	/**
  84:C:\Dokumente und Einstellungen\brand\Desktop\thundercyer-the-alarm-clock\FreeRTOS_EC\Source\AManagedTask.h **** 	 * Task control loop.
  85:C:\Dokumente und Einstellungen\brand\Desktop\thundercyer-the-alarm-clock\FreeRTOS_EC\Source\AManagedTask.h **** 	 */
  86:C:\Dokumente und Einstellungen\brand\Desktop\thundercyer-the-alarm-clock\FreeRTOS_EC\Source\AManagedTask.h **** 	virtual void Run() =0;
  87:C:\Dokumente und Einstellungen\brand\Desktop\thundercyer-the-alarm-clock\FreeRTOS_EC\Source\AManagedTask.h **** 
  88:C:\Dokumente und Einstellungen\brand\Desktop\thundercyer-the-alarm-clock\FreeRTOS_EC\Source\AManagedTask.h **** 	/**
  89:C:\Dokumente und Einstellungen\brand\Desktop\thundercyer-the-alarm-clock\FreeRTOS_EC\Source\AManagedTask.h **** 	 * The framework calls this function before the task is created to give a chance to a managed task
  90:C:\Dokumente und Einstellungen\brand\Desktop\thundercyer-the-alarm-clock\FreeRTOS_EC\Source\AManagedTask.h **** 	 * own initialization code and stop the task creation process if needed.
  91:C:\Dokumente und Einstellungen\brand\Desktop\thundercyer-the-alarm-clock\FreeRTOS_EC\Source\AManagedTask.h **** 	 *
  92:C:\Dokumente und Einstellungen\brand\Desktop\thundercyer-the-alarm-clock\FreeRTOS_EC\Source\AManagedTask.h **** 	 * @param pcName specifies the task name.
  93:C:\Dokumente und Einstellungen\brand\Desktop\thundercyer-the-alarm-clock\FreeRTOS_EC\Source\AManagedTask.h **** 	 * @param usStackDepth specifies the task stack depth.
  94:C:\Dokumente und Einstellungen\brand\Desktop\thundercyer-the-alarm-clock\FreeRTOS_EC\Source\AManagedTask.h **** 	 * @param uxPriority specifies the task priority.
  95:C:\Dokumente und Einstellungen\brand\Desktop\thundercyer-the-alarm-clock\FreeRTOS_EC\Source\AManagedTask.h **** 	 *
  96:C:\Dokumente und Einstellungen\brand\Desktop\thundercyer-the-alarm-clock\FreeRTOS_EC\Source\AManagedTask.h **** 	 * @return pdTRUE if success, pdFALSE otherwise. If the method return pdFALSE the task creation pr
  97:C:\Dokumente und Einstellungen\brand\Desktop\thundercyer-the-alarm-clock\FreeRTOS_EC\Source\AManagedTask.h **** 	 * is stopped and no FreeRTOS resource are allocated.
  98:C:\Dokumente und Einstellungen\brand\Desktop\thundercyer-the-alarm-clock\FreeRTOS_EC\Source\AManagedTask.h **** 	 */
  99:C:\Dokumente und Einstellungen\brand\Desktop\thundercyer-the-alarm-clock\FreeRTOS_EC\Source\AManagedTask.h **** 	virtual portBASE_TYPE OnCreate(const portCHAR * const pcName, unsigned portSHORT usStackDepth, uns
 114              		.loc 2 99 0
 115              		.cfi_startproc
 116              		@ args = 0, pretend = 0, frame = 16
 117              		@ frame_needed = 1, uses_anonymous_args = 0
 118              		@ link register save eliminated.
 119 0000 80B4     		push	{r7}
 120              	.LCFI6:
 121              		.cfi_def_cfa_offset 4
 122              		.cfi_offset 7, -4
 123 0002 85B0     		sub	sp, sp, #20
 124              	.LCFI7:
 125              		.cfi_def_cfa_offset 24
 126 0004 00AF     		add	r7, sp, #0
 127              	.LCFI8:
 128              		.cfi_def_cfa_register 7
 129 0006 F860     		str	r0, [r7, #12]
 130 0008 B960     		str	r1, [r7, #8]
 131 000a 3B60     		str	r3, [r7, #0]
 132 000c 1346     		mov	r3, r2	@ movhi
 133 000e FB80     		strh	r3, [r7, #6]	@ movhi
 134              		.loc 2 99 0
 135 0010 4FF00103 		mov	r3, #1
 136 0014 1846     		mov	r0, r3
 137 0016 07F11407 		add	r7, r7, #20
 138 001a BD46     		mov	sp, r7
 139 001c 80BC     		pop	{r7}
 140 001e 7047     		bx	lr
 141              		.cfi_endproc
 142              	.LFE135:
 144              		.text
 145              		.align	2
 146              		.global	_ZN24CLedHeartBeatSTM32F4DiscC2Em
 147              		.thumb
 148              		.thumb_func
 150              	_ZN24CLedHeartBeatSTM32F4DiscC2Em:
 151              	.LFB137:
 152              		.file 3 "../CLedHeartBeatSTM32F4Disc.cpp"
   1:../CLedHeartBeatSTM32F4Disc.cpp **** /**
   2:../CLedHeartBeatSTM32F4Disc.cpp ****   ******************************************************************************
   3:../CLedHeartBeatSTM32F4Disc.cpp ****   * @file      	CLedHeartBeatSTM32F4Disc.cpp
   4:../CLedHeartBeatSTM32F4Disc.cpp ****   * @author    	Tecnologic86
   5:../CLedHeartBeatSTM32F4Disc.cpp ****   * @version   	V0.0.0
   6:../CLedHeartBeatSTM32F4Disc.cpp ****   * @date      	14.02.12
   7:../CLedHeartBeatSTM32F4Disc.cpp ****   * @brief		Class for Led blinking on STM32F4Discovery Board
   8:../CLedHeartBeatSTM32F4Disc.cpp ****   ******************************************************************************
   9:../CLedHeartBeatSTM32F4Disc.cpp ****   */
  10:../CLedHeartBeatSTM32F4Disc.cpp **** 
  11:../CLedHeartBeatSTM32F4Disc.cpp **** /* Includes ------------------------------------------------------------------*/
  12:../CLedHeartBeatSTM32F4Disc.cpp **** #include "CLedHeartBeatSTM32F4Disc.h"
  13:../CLedHeartBeatSTM32F4Disc.cpp **** #include "stm32f4xx.h"
  14:../CLedHeartBeatSTM32F4Disc.cpp **** #include "stm32f4_discovery.h"
  15:../CLedHeartBeatSTM32F4Disc.cpp **** /* Private typedef -----------------------------------------------------------*/
  16:../CLedHeartBeatSTM32F4Disc.cpp **** /* Private define ------------------------------------------------------------*/
  17:../CLedHeartBeatSTM32F4Disc.cpp **** /* Private macro -------------------------------------------------------------*/
  18:../CLedHeartBeatSTM32F4Disc.cpp **** /* Private variables ---------------------------------------------------------*/
  19:../CLedHeartBeatSTM32F4Disc.cpp **** /* Private function prototypes -----------------------------------------------*/
  20:../CLedHeartBeatSTM32F4Disc.cpp **** /* Private functions ---------------------------------------------------------*/
  21:../CLedHeartBeatSTM32F4Disc.cpp **** 
  22:../CLedHeartBeatSTM32F4Disc.cpp **** 
  23:../CLedHeartBeatSTM32F4Disc.cpp **** CLedHeartBeatSTM32F4Disc::CLedHeartBeatSTM32F4Disc(portTickType newRate) {
 153              		.loc 3 23 0
 154              		.cfi_startproc
 155              		@ args = 0, pretend = 0, frame = 8
 156              		@ frame_needed = 1, uses_anonymous_args = 0
 157 0000 80B5     		push	{r7, lr}
 158              	.LCFI9:
 159              		.cfi_def_cfa_offset 8
 160              		.cfi_offset 14, -4
 161              		.cfi_offset 7, -8
 162 0002 82B0     		sub	sp, sp, #8
 163              	.LCFI10:
 164              		.cfi_def_cfa_offset 16
 165 0004 00AF     		add	r7, sp, #0
 166              	.LCFI11:
 167              		.cfi_def_cfa_register 7
 168 0006 7860     		str	r0, [r7, #4]
 169 0008 3960     		str	r1, [r7, #0]
 170              	.LBB3:
 171              		.loc 3 23 0
 172 000a 7B68     		ldr	r3, [r7, #4]
 173 000c 1846     		mov	r0, r3
 174 000e FFF7FEFF 		bl	_ZN12AManagedTaskC2Ev
 175 0012 7B68     		ldr	r3, [r7, #4]
 176 0014 074A     		ldr	r2, .L6
 177 0016 1A60     		str	r2, [r3, #0]
  24:../CLedHeartBeatSTM32F4Disc.cpp **** 	ledState = LED_Up;
 178              		.loc 3 24 0
 179 0018 7B68     		ldr	r3, [r7, #4]
 180 001a 4FF00002 		mov	r2, #0
 181 001e 1A73     		strb	r2, [r3, #12]
  25:../CLedHeartBeatSTM32F4Disc.cpp **** 	ledRate = newRate;
 182              		.loc 3 25 0
 183 0020 7B68     		ldr	r3, [r7, #4]
 184 0022 3A68     		ldr	r2, [r7, #0]
 185 0024 1A61     		str	r2, [r3, #16]
 186              	.LBE3:
  26:../CLedHeartBeatSTM32F4Disc.cpp **** }
 187              		.loc 3 26 0
 188 0026 7B68     		ldr	r3, [r7, #4]
 189 0028 1846     		mov	r0, r3
 190 002a 07F10807 		add	r7, r7, #8
 191 002e BD46     		mov	sp, r7
 192 0030 80BD     		pop	{r7, pc}
 193              	.L7:
 194 0032 00BF     		.align	2
 195              	.L6:
 196 0034 08000000 		.word	_ZTV24CLedHeartBeatSTM32F4Disc+8
 197              		.cfi_endproc
 198              	.LFE137:
 200              		.align	2
 201              		.global	_ZN24CLedHeartBeatSTM32F4DiscD2Ev
 202              		.thumb
 203              		.thumb_func
 205              	_ZN24CLedHeartBeatSTM32F4DiscD2Ev:
 206              	.LFB140:
  27:../CLedHeartBeatSTM32F4Disc.cpp **** 
  28:../CLedHeartBeatSTM32F4Disc.cpp **** CLedHeartBeatSTM32F4Disc::~CLedHeartBeatSTM32F4Disc() {
 207              		.loc 3 28 0
 208              		.cfi_startproc
 209              		@ args = 0, pretend = 0, frame = 8
 210              		@ frame_needed = 1, uses_anonymous_args = 0
 211 0038 80B5     		push	{r7, lr}
 212              	.LCFI12:
 213              		.cfi_def_cfa_offset 8
 214              		.cfi_offset 14, -4
 215              		.cfi_offset 7, -8
 216 003a 82B0     		sub	sp, sp, #8
 217              	.LCFI13:
 218              		.cfi_def_cfa_offset 16
 219 003c 00AF     		add	r7, sp, #0
 220              	.LCFI14:
 221              		.cfi_def_cfa_register 7
 222 003e 7860     		str	r0, [r7, #4]
 223              	.LBB4:
 224              		.loc 3 28 0
 225 0040 7B68     		ldr	r3, [r7, #4]
 226 0042 0A4A     		ldr	r2, .L11
 227 0044 1A60     		str	r2, [r3, #0]
  29:../CLedHeartBeatSTM32F4Disc.cpp **** 	// nothing to destroy
  30:../CLedHeartBeatSTM32F4Disc.cpp **** }
 228              		.loc 3 30 0
 229 0046 7868     		ldr	r0, [r7, #4]
 230 0048 FFF7FEFF 		bl	_ZN12AManagedTaskD2Ev
 231              	.LBE4:
 232 004c 4FF00003 		mov	r3, #0
 233 0050 03F00103 		and	r3, r3, #1
 234 0054 DBB2     		uxtb	r3, r3
 235 0056 002B     		cmp	r3, #0
 236 0058 02D0     		beq	.L10
 237              		.loc 3 30 0 is_stmt 0 discriminator 2
 238 005a 7868     		ldr	r0, [r7, #4]
 239 005c FFF7FEFF 		bl	_ZdlPv
 240              	.L10:
 241              		.loc 3 30 0 discriminator 3
 242 0060 7B68     		ldr	r3, [r7, #4]
 243 0062 1846     		mov	r0, r3
 244 0064 07F10807 		add	r7, r7, #8
 245 0068 BD46     		mov	sp, r7
 246 006a 80BD     		pop	{r7, pc}
 247              	.L12:
 248              		.align	2
 249              	.L11:
 250 006c 08000000 		.word	_ZTV24CLedHeartBeatSTM32F4Disc+8
 251              		.cfi_endproc
 252              	.LFE140:
 254              		.align	2
 255              		.global	_ZN24CLedHeartBeatSTM32F4DiscD0Ev
 256              		.thumb
 257              		.thumb_func
 259              	_ZN24CLedHeartBeatSTM32F4DiscD0Ev:
 260              	.LFB142:
  28:../CLedHeartBeatSTM32F4Disc.cpp **** CLedHeartBeatSTM32F4Disc::~CLedHeartBeatSTM32F4Disc() {
 261              		.loc 3 28 0 is_stmt 1
 262              		.cfi_startproc
 263              		@ args = 0, pretend = 0, frame = 8
 264              		@ frame_needed = 1, uses_anonymous_args = 0
 265 0070 80B5     		push	{r7, lr}
 266              	.LCFI15:
 267              		.cfi_def_cfa_offset 8
 268              		.cfi_offset 14, -4
 269              		.cfi_offset 7, -8
 270 0072 82B0     		sub	sp, sp, #8
 271              	.LCFI16:
 272              		.cfi_def_cfa_offset 16
 273 0074 00AF     		add	r7, sp, #0
 274              	.LCFI17:
 275              		.cfi_def_cfa_register 7
 276 0076 7860     		str	r0, [r7, #4]
 277              		.loc 3 30 0
 278 0078 7868     		ldr	r0, [r7, #4]
 279 007a FFF7FEFF 		bl	_ZN24CLedHeartBeatSTM32F4DiscD1Ev
 280 007e 7868     		ldr	r0, [r7, #4]
 281 0080 FFF7FEFF 		bl	_ZdlPv
 282 0084 7B68     		ldr	r3, [r7, #4]
 283 0086 1846     		mov	r0, r3
 284 0088 07F10807 		add	r7, r7, #8
 285 008c BD46     		mov	sp, r7
 286 008e 80BD     		pop	{r7, pc}
 287              		.cfi_endproc
 288              	.LFE142:
 290              		.align	2
 291              		.global	_ZN24CLedHeartBeatSTM32F4Disc12HardwareInitEv
 292              		.thumb
 293              		.thumb_func
 295              	_ZN24CLedHeartBeatSTM32F4Disc12HardwareInitEv:
 296              	.LFB143:
  31:../CLedHeartBeatSTM32F4Disc.cpp **** 
  32:../CLedHeartBeatSTM32F4Disc.cpp **** /**
  33:../CLedHeartBeatSTM32F4Disc.cpp ****   * @brief  HardwareInit called before Scheduler starts
  34:../CLedHeartBeatSTM32F4Disc.cpp ****   * @param  None
  35:../CLedHeartBeatSTM32F4Disc.cpp ****   * @retval true on succsess
  36:../CLedHeartBeatSTM32F4Disc.cpp ****   */
  37:../CLedHeartBeatSTM32F4Disc.cpp **** bool CLedHeartBeatSTM32F4Disc::HardwareInit(){
 297              		.loc 3 37 0
 298              		.cfi_startproc
 299              		@ args = 0, pretend = 0, frame = 8
 300              		@ frame_needed = 1, uses_anonymous_args = 0
 301 0090 80B5     		push	{r7, lr}
 302              	.LCFI18:
 303              		.cfi_def_cfa_offset 8
 304              		.cfi_offset 14, -4
 305              		.cfi_offset 7, -8
 306 0092 82B0     		sub	sp, sp, #8
 307              	.LCFI19:
 308              		.cfi_def_cfa_offset 16
 309 0094 00AF     		add	r7, sp, #0
 310              	.LCFI20:
 311              		.cfi_def_cfa_register 7
 312 0096 7860     		str	r0, [r7, #4]
  38:../CLedHeartBeatSTM32F4Disc.cpp **** 
  39:../CLedHeartBeatSTM32F4Disc.cpp **** 	STM_EVAL_LEDInit(LED3);
 313              		.loc 3 39 0
 314 0098 4FF00100 		mov	r0, #1
 315 009c FFF7FEFF 		bl	STM_EVAL_LEDInit
  40:../CLedHeartBeatSTM32F4Disc.cpp **** 	STM_EVAL_LEDInit(LED4);
 316              		.loc 3 40 0
 317 00a0 4FF00000 		mov	r0, #0
 318 00a4 FFF7FEFF 		bl	STM_EVAL_LEDInit
  41:../CLedHeartBeatSTM32F4Disc.cpp **** 	STM_EVAL_LEDInit(LED5);
 319              		.loc 3 41 0
 320 00a8 4FF00200 		mov	r0, #2
 321 00ac FFF7FEFF 		bl	STM_EVAL_LEDInit
  42:../CLedHeartBeatSTM32F4Disc.cpp **** 	STM_EVAL_LEDInit(LED6);
 322              		.loc 3 42 0
 323 00b0 4FF00300 		mov	r0, #3
 324 00b4 FFF7FEFF 		bl	STM_EVAL_LEDInit
  43:../CLedHeartBeatSTM32F4Disc.cpp **** 	return true;
 325              		.loc 3 43 0
 326 00b8 4FF00103 		mov	r3, #1
  44:../CLedHeartBeatSTM32F4Disc.cpp **** }
 327              		.loc 3 44 0
 328 00bc 1846     		mov	r0, r3
 329 00be 07F10807 		add	r7, r7, #8
 330 00c2 BD46     		mov	sp, r7
 331 00c4 80BD     		pop	{r7, pc}
 332              		.cfi_endproc
 333              	.LFE143:
 335 00c6 00BF     		.align	2
 336              		.global	_ZN24CLedHeartBeatSTM32F4Disc3RunEv
 337              		.thumb
 338              		.thumb_func
 340              	_ZN24CLedHeartBeatSTM32F4Disc3RunEv:
 341              	.LFB144:
  45:../CLedHeartBeatSTM32F4Disc.cpp **** 
  46:../CLedHeartBeatSTM32F4Disc.cpp **** /**
  47:../CLedHeartBeatSTM32F4Disc.cpp ****   * @brief  task function for Led Heartbeat
  48:../CLedHeartBeatSTM32F4Disc.cpp ****   * @param  None
  49:../CLedHeartBeatSTM32F4Disc.cpp ****   * @retval None
  50:../CLedHeartBeatSTM32F4Disc.cpp ****   */
  51:../CLedHeartBeatSTM32F4Disc.cpp **** void CLedHeartBeatSTM32F4Disc::Run(){
 342              		.loc 3 51 0
 343              		.cfi_startproc
 344              		@ args = 0, pretend = 0, frame = 8
 345              		@ frame_needed = 1, uses_anonymous_args = 0
 346 00c8 80B5     		push	{r7, lr}
 347              	.LCFI21:
 348              		.cfi_def_cfa_offset 8
 349              		.cfi_offset 14, -4
 350              		.cfi_offset 7, -8
 351 00ca 82B0     		sub	sp, sp, #8
 352              	.LCFI22:
 353              		.cfi_def_cfa_offset 16
 354 00cc 00AF     		add	r7, sp, #0
 355              	.LCFI23:
 356              		.cfi_def_cfa_register 7
 357 00ce 7860     		str	r0, [r7, #4]
 358              	.L24:
  52:../CLedHeartBeatSTM32F4Disc.cpp **** 	while(1){
  53:../CLedHeartBeatSTM32F4Disc.cpp **** 		switch(ledState){
 359              		.loc 3 53 0
 360 00d0 7B68     		ldr	r3, [r7, #4]
 361 00d2 1B7B     		ldrb	r3, [r3, #12]	@ zero_extendqisi2
 362 00d4 032B     		cmp	r3, #3
 363 00d6 5FD8     		bhi	.L17
 364 00d8 01A2     		adr	r2, .L22
 365 00da 52F823F0 		ldr	pc, [r2, r3, lsl #2]
 366 00de 00BF     		.align	2
 367              	.L22:
 368 00e0 F1000000 		.word	.L18+1
 369 00e4 1B010000 		.word	.L19+1
 370 00e8 45010000 		.word	.L20+1
 371 00ec 6F010000 		.word	.L21+1
 372              	.L18:
  54:../CLedHeartBeatSTM32F4Disc.cpp **** 		case LED_Up:
  55:../CLedHeartBeatSTM32F4Disc.cpp **** 			STM_EVAL_LEDOn(LED3);
 373              		.loc 3 55 0
 374 00f0 4FF00100 		mov	r0, #1
 375 00f4 FFF7FEFF 		bl	STM_EVAL_LEDOn
  56:../CLedHeartBeatSTM32F4Disc.cpp **** 			STM_EVAL_LEDOff(LED5);
 376              		.loc 3 56 0
 377 00f8 4FF00200 		mov	r0, #2
 378 00fc FFF7FEFF 		bl	STM_EVAL_LEDOff
  57:../CLedHeartBeatSTM32F4Disc.cpp **** 			STM_EVAL_LEDOff(LED6);
 379              		.loc 3 57 0
 380 0100 4FF00300 		mov	r0, #3
 381 0104 FFF7FEFF 		bl	STM_EVAL_LEDOff
  58:../CLedHeartBeatSTM32F4Disc.cpp **** 			STM_EVAL_LEDOff(LED4);
 382              		.loc 3 58 0
 383 0108 4FF00000 		mov	r0, #0
 384 010c FFF7FEFF 		bl	STM_EVAL_LEDOff
  59:../CLedHeartBeatSTM32F4Disc.cpp **** 			ledState = LED_Right;
 385              		.loc 3 59 0
 386 0110 7B68     		ldr	r3, [r7, #4]
 387 0112 4FF00102 		mov	r2, #1
 388 0116 1A73     		strb	r2, [r3, #12]
  60:../CLedHeartBeatSTM32F4Disc.cpp **** 			break;
 389              		.loc 3 60 0
 390 0118 43E0     		b	.L23
 391              	.L19:
  61:../CLedHeartBeatSTM32F4Disc.cpp **** 		case LED_Right:
  62:../CLedHeartBeatSTM32F4Disc.cpp **** 			STM_EVAL_LEDOff(LED3);
 392              		.loc 3 62 0
 393 011a 4FF00100 		mov	r0, #1
 394 011e FFF7FEFF 		bl	STM_EVAL_LEDOff
  63:../CLedHeartBeatSTM32F4Disc.cpp **** 			STM_EVAL_LEDOn(LED5);
 395              		.loc 3 63 0
 396 0122 4FF00200 		mov	r0, #2
 397 0126 FFF7FEFF 		bl	STM_EVAL_LEDOn
  64:../CLedHeartBeatSTM32F4Disc.cpp **** 			STM_EVAL_LEDOff(LED6);
 398              		.loc 3 64 0
 399 012a 4FF00300 		mov	r0, #3
 400 012e FFF7FEFF 		bl	STM_EVAL_LEDOff
  65:../CLedHeartBeatSTM32F4Disc.cpp **** 			STM_EVAL_LEDOff(LED4);
 401              		.loc 3 65 0
 402 0132 4FF00000 		mov	r0, #0
 403 0136 FFF7FEFF 		bl	STM_EVAL_LEDOff
  66:../CLedHeartBeatSTM32F4Disc.cpp **** 			ledState = LED_Down;
 404              		.loc 3 66 0
 405 013a 7B68     		ldr	r3, [r7, #4]
 406 013c 4FF00202 		mov	r2, #2
 407 0140 1A73     		strb	r2, [r3, #12]
  67:../CLedHeartBeatSTM32F4Disc.cpp **** 			break;
 408              		.loc 3 67 0
 409 0142 2EE0     		b	.L23
 410              	.L20:
  68:../CLedHeartBeatSTM32F4Disc.cpp **** 		case LED_Down:
  69:../CLedHeartBeatSTM32F4Disc.cpp **** 			STM_EVAL_LEDOff(LED3);
 411              		.loc 3 69 0
 412 0144 4FF00100 		mov	r0, #1
 413 0148 FFF7FEFF 		bl	STM_EVAL_LEDOff
  70:../CLedHeartBeatSTM32F4Disc.cpp **** 			STM_EVAL_LEDOff(LED5);
 414              		.loc 3 70 0
 415 014c 4FF00200 		mov	r0, #2
 416 0150 FFF7FEFF 		bl	STM_EVAL_LEDOff
  71:../CLedHeartBeatSTM32F4Disc.cpp **** 			STM_EVAL_LEDOn(LED6);
 417              		.loc 3 71 0
 418 0154 4FF00300 		mov	r0, #3
 419 0158 FFF7FEFF 		bl	STM_EVAL_LEDOn
  72:../CLedHeartBeatSTM32F4Disc.cpp **** 			STM_EVAL_LEDOff(LED4);
 420              		.loc 3 72 0
 421 015c 4FF00000 		mov	r0, #0
 422 0160 FFF7FEFF 		bl	STM_EVAL_LEDOff
  73:../CLedHeartBeatSTM32F4Disc.cpp **** 			ledState = LED_Left;
 423              		.loc 3 73 0
 424 0164 7B68     		ldr	r3, [r7, #4]
 425 0166 4FF00302 		mov	r2, #3
 426 016a 1A73     		strb	r2, [r3, #12]
  74:../CLedHeartBeatSTM32F4Disc.cpp **** 			break;
 427              		.loc 3 74 0
 428 016c 19E0     		b	.L23
 429              	.L21:
  75:../CLedHeartBeatSTM32F4Disc.cpp **** 		case LED_Left:
  76:../CLedHeartBeatSTM32F4Disc.cpp **** 			STM_EVAL_LEDOff(LED3);
 430              		.loc 3 76 0
 431 016e 4FF00100 		mov	r0, #1
 432 0172 FFF7FEFF 		bl	STM_EVAL_LEDOff
  77:../CLedHeartBeatSTM32F4Disc.cpp **** 			STM_EVAL_LEDOff(LED5);
 433              		.loc 3 77 0
 434 0176 4FF00200 		mov	r0, #2
 435 017a FFF7FEFF 		bl	STM_EVAL_LEDOff
  78:../CLedHeartBeatSTM32F4Disc.cpp **** 			STM_EVAL_LEDOff(LED6);
 436              		.loc 3 78 0
 437 017e 4FF00300 		mov	r0, #3
 438 0182 FFF7FEFF 		bl	STM_EVAL_LEDOff
  79:../CLedHeartBeatSTM32F4Disc.cpp **** 			STM_EVAL_LEDOn(LED4);
 439              		.loc 3 79 0
 440 0186 4FF00000 		mov	r0, #0
 441 018a FFF7FEFF 		bl	STM_EVAL_LEDOn
  80:../CLedHeartBeatSTM32F4Disc.cpp **** 			ledState = LED_Up;
 442              		.loc 3 80 0
 443 018e 7B68     		ldr	r3, [r7, #4]
 444 0190 4FF00002 		mov	r2, #0
 445 0194 1A73     		strb	r2, [r3, #12]
  81:../CLedHeartBeatSTM32F4Disc.cpp **** 			break;
 446              		.loc 3 81 0
 447 0196 04E0     		b	.L23
 448              	.L17:
  82:../CLedHeartBeatSTM32F4Disc.cpp **** 		default:
  83:../CLedHeartBeatSTM32F4Disc.cpp **** 			ledState = LED_Up;
 449              		.loc 3 83 0
 450 0198 7B68     		ldr	r3, [r7, #4]
 451 019a 4FF00002 		mov	r2, #0
 452 019e 1A73     		strb	r2, [r3, #12]
  84:../CLedHeartBeatSTM32F4Disc.cpp **** 			break;
 453              		.loc 3 84 0
 454 01a0 00BF     		nop
 455              	.L23:
  85:../CLedHeartBeatSTM32F4Disc.cpp **** 		}
  86:../CLedHeartBeatSTM32F4Disc.cpp **** 		vTaskDelay(ledRate); // 500ms delay
 456              		.loc 3 86 0
 457 01a2 7B68     		ldr	r3, [r7, #4]
 458 01a4 1B69     		ldr	r3, [r3, #16]
 459 01a6 1846     		mov	r0, r3
 460 01a8 FFF7FEFF 		bl	vTaskDelay
  52:../CLedHeartBeatSTM32F4Disc.cpp **** 	while(1){
 461              		.loc 3 52 0
 462 01ac 90E7     		b	.L24
 463              		.cfi_endproc
 464              	.LFE144:
 466              		.global	_ZTV24CLedHeartBeatSTM32F4Disc
 467              		.section	.rodata._ZTV24CLedHeartBeatSTM32F4Disc,"a",%progbits
 468              		.align	3
 471              	_ZTV24CLedHeartBeatSTM32F4Disc:
 472 0000 00000000 		.word	0
 473 0004 00000000 		.word	0
 474 0008 00000000 		.word	_ZNK5CTask7IsValidEv
 475 000c 00000000 		.word	_ZN5CTask6AttachEPv
 476 0010 00000000 		.word	_ZN5CTask6DetachEv
 477 0014 00000000 		.word	_ZN24CLedHeartBeatSTM32F4DiscD1Ev
 478 0018 00000000 		.word	_ZN24CLedHeartBeatSTM32F4DiscD0Ev
 479 001c 00000000 		.word	_ZN24CLedHeartBeatSTM32F4Disc12HardwareInitEv
 480 0020 00000000 		.word	_ZN24CLedHeartBeatSTM32F4Disc3RunEv
 481 0024 00000000 		.word	_ZN12AManagedTask8OnCreateEPKctm
 482              		.global	_ZN24CLedHeartBeatSTM32F4DiscC1Em
 483              		.thumb_set _ZN24CLedHeartBeatSTM32F4DiscC1Em,_ZN24CLedHeartBeatSTM32F4DiscC2Em
 484              		.global	_ZN24CLedHeartBeatSTM32F4DiscD1Ev
 485              		.thumb_set _ZN24CLedHeartBeatSTM32F4DiscD1Ev,_ZN24CLedHeartBeatSTM32F4DiscD2Ev
 486              		.text
 487              	.Letext0:
 488              		.file 4 "d:/elektronik/ides/eclipse/yagarto/lib/gcc/../../arm-none-eabi/sys-include/stdint.h"
 489              		.file 5 "C:\\Dokumente und Einstellungen\\brand\\Desktop\\thundercyer-the-alarm-clock\\FreeRTOS\\S
 490              		.file 6 "C:\\Dokumente und Einstellungen\\brand\\Desktop\\thundercyer-the-alarm-clock\\FreeRTOS\\S
 491              		.file 7 "C:\\Dokumente und Einstellungen\\brand\\Desktop\\thundercyer-the-alarm-clock\\FreeRTOS_EC
 492              		.file 8 "../CLedHeartBeatSTM32F4Disc.h"
 493              		.file 9 "C:\\Dokumente und Einstellungen\\brand\\Desktop\\thundercyer-the-alarm-clock\\STM32F4-Dis
 494              		.file 10 "C:\\Dokumente und Einstellungen\\brand\\Desktop\\thundercyer-the-alarm-clock\\CMSIS\\Inc