   1              		.syntax unified
   2              		.cpu cortex-m4
   3              		.eabi_attribute 27, 3
   4              		.fpu fpv4-sp-d16
   5              		.eabi_attribute 20, 1
   6              		.eabi_attribute 21, 1
   7              		.eabi_attribute 23, 3
   8              		.eabi_attribute 24, 1
   9              		.eabi_attribute 25, 1
  10              		.eabi_attribute 26, 1
  11              		.eabi_attribute 30, 6
  12              		.eabi_attribute 18, 4
  13              		.thumb
  14              		.file	"stm32f4xx_it.c"
  15              		.text
  16              	.Ltext0:
  17              		.cfi_sections	.debug_frame
  18              		.global	PauseResumeStatus
  19              		.section	.data.PauseResumeStatus,"aw",%progbits
  22              	PauseResumeStatus:
  23 0000 02       		.byte	2
  24              		.global	Count
  25              		.section	.bss.Count,"aw",%nobits
  28              	Count:
  29 0000 00       		.space	1
  30              		.global	LED_Toggle
  31              		.section	.bss.LED_Toggle,"aw",%nobits
  34              	LED_Toggle:
  35 0000 00       		.space	1
  36              		.global	capture
  37              		.section	.bss.capture,"aw",%nobits
  38              		.align	1
  41              	capture:
  42 0000 0000     		.space	2
  43              		.global	Time_Rec_Base
  44              		.section	.bss.Time_Rec_Base,"aw",%nobits
  45              		.align	1
  48              	Time_Rec_Base:
  49 0000 0000     		.space	2
  50              		.text
  51              		.align	2
  52              		.global	NMI_Handler
  53              		.thumb
  54              		.thumb_func
  56              	NMI_Handler:
  57              	.LFB110:
  58              		.file 1 "../stm32f4xx_it.c"
   1:../stm32f4xx_it.c **** /**
   2:../stm32f4xx_it.c ****   ******************************************************************************
   3:../stm32f4xx_it.c ****   * @file    TIM_TimeBase/stm32f4xx_it.c 
   4:../stm32f4xx_it.c ****   * @author  MCD Application Team
   5:../stm32f4xx_it.c ****   * @version V1.0.0
   6:../stm32f4xx_it.c ****   * @date    19-September-2011
   7:../stm32f4xx_it.c ****   * @brief   Main Interrupt Service Routines.
   8:../stm32f4xx_it.c ****   *          This file provides template for all exceptions handler and peripherals
   9:../stm32f4xx_it.c ****   *          interrupt service routine.
  10:../stm32f4xx_it.c ****   ******************************************************************************
  11:../stm32f4xx_it.c ****   * @attention
  12:../stm32f4xx_it.c ****   *
  13:../stm32f4xx_it.c ****   * THE PRESENT FIRMWARE WHICH IS FOR GUIDANCE ONLY AIMS AT PROVIDING CUSTOMERS
  14:../stm32f4xx_it.c ****   * WITH CODING INFORMATION REGARDING THEIR PRODUCTS IN ORDER FOR THEM TO SAVE
  15:../stm32f4xx_it.c ****   * TIME. AS A RESULT, STMICROELECTRONICS SHALL NOT BE HELD LIABLE FOR ANY
  16:../stm32f4xx_it.c ****   * DIRECT, INDIRECT OR CONSEQUENTIAL DAMAGES WITH RESPECT TO ANY CLAIMS ARISING
  17:../stm32f4xx_it.c ****   * FROM THE CONTENT OF SUCH FIRMWARE AND/OR THE USE MADE BY CUSTOMERS OF THE
  18:../stm32f4xx_it.c ****   * CODING INFORMATION CONTAINED HEREIN IN CONNECTION WITH THEIR PRODUCTS.
  19:../stm32f4xx_it.c ****   *
  20:../stm32f4xx_it.c ****   * <h2><center>&copy; COPYRIGHT 2011 STMicroelectronics</center></h2>
  21:../stm32f4xx_it.c ****   ******************************************************************************
  22:../stm32f4xx_it.c ****   */ 
  23:../stm32f4xx_it.c **** 
  24:../stm32f4xx_it.c **** /* Includes ------------------------------------------------------------------*/
  25:../stm32f4xx_it.c **** #include "stm32f4xx_it.h"
  26:../stm32f4xx_it.c **** #include "stm32f4_discovery_audio_codec.h"
  27:../stm32f4xx_it.c **** 
  28:../stm32f4xx_it.c **** #ifdef STM32_SDIO
  29:../stm32f4xx_it.c **** 	#include "stm32f4_sdio.h"
  30:../stm32f4xx_it.c **** 	#include "stm32f4xx_sdio.h"
  31:../stm32f4xx_it.c **** #else
  32:../stm32f4xx_it.c **** 	#ifdef MEDIA_USB_KEY
  33:../stm32f4xx_it.c **** 		#include "usb_hcd_int.h"
  34:../stm32f4xx_it.c **** 		#include "usbh_usr.h"
  35:../stm32f4xx_it.c **** 		#include "usbh_core.h"
  36:../stm32f4xx_it.c **** 		#include "usbh_msc_core.h"
  37:../stm32f4xx_it.c **** 	#endif
  38:../stm32f4xx_it.c **** #endif
  39:../stm32f4xx_it.c **** 
  40:../stm32f4xx_it.c **** /* Private typedef -----------------------------------------------------------*/
  41:../stm32f4xx_it.c **** /* Private define ------------------------------------------------------------*/
  42:../stm32f4xx_it.c **** /* Private macro -------------------------------------------------------------*/
  43:../stm32f4xx_it.c **** /* Private variables ---------------------------------------------------------*/
  44:../stm32f4xx_it.c **** __IO uint8_t PauseResumeStatus = 2, Count = 0, LED_Toggle = 0;
  45:../stm32f4xx_it.c **** uint16_t capture = 0;
  46:../stm32f4xx_it.c **** extern __IO uint8_t RepeatState;
  47:../stm32f4xx_it.c **** 
  48:../stm32f4xx_it.c **** 
  49:../stm32f4xx_it.c **** #if defined MEDIA_USB_KEY
  50:../stm32f4xx_it.c **** __IO uint16_t Time_Rec_Base = 0;
  51:../stm32f4xx_it.c ****  extern USB_OTG_CORE_HANDLE          USB_OTG_Core;
  52:../stm32f4xx_it.c ****  extern __IO uint32_t XferCplt ;
  53:../stm32f4xx_it.c ****  extern __IO uint8_t Command_index;
  54:../stm32f4xx_it.c **** #endif /* MEDIA_USB_KEY */
  55:../stm32f4xx_it.c **** /* Private function prototypes -----------------------------------------------*/
  56:../stm32f4xx_it.c **** /* Private functions ---------------------------------------------------------*/
  57:../stm32f4xx_it.c **** 
  58:../stm32f4xx_it.c **** /******************************************************************************/
  59:../stm32f4xx_it.c **** /*            Cortex-M4 Processor Exceptions Handlers                         */
  60:../stm32f4xx_it.c **** /******************************************************************************/
  61:../stm32f4xx_it.c **** 
  62:../stm32f4xx_it.c **** /**
  63:../stm32f4xx_it.c ****   * @brief  This function handles NMI exception.
  64:../stm32f4xx_it.c ****   * @param  None
  65:../stm32f4xx_it.c ****   * @retval None
  66:../stm32f4xx_it.c ****   */
  67:../stm32f4xx_it.c **** void NMI_Handler(void)
  68:../stm32f4xx_it.c **** {
  59              		.loc 1 68 0
  60              		.cfi_startproc
  61              		@ args = 0, pretend = 0, frame = 0
  62              		@ frame_needed = 1, uses_anonymous_args = 0
  63              		@ link register save eliminated.
  64 0000 80B4     		push	{r7}
  65              	.LCFI0:
  66              		.cfi_def_cfa_offset 4
  67              		.cfi_offset 7, -4
  68 0002 00AF     		add	r7, sp, #0
  69              	.LCFI1:
  70              		.cfi_def_cfa_register 7
  69:../stm32f4xx_it.c **** }
  71              		.loc 1 69 0
  72 0004 BD46     		mov	sp, r7
  73 0006 80BC     		pop	{r7}
  74 0008 7047     		bx	lr
  75              		.cfi_endproc
  76              	.LFE110:
  78 000a 00BF     		.align	2
  79              		.global	HardFault_Handler
  80              		.thumb
  81              		.thumb_func
  83              	HardFault_Handler:
  84              	.LFB111:
  70:../stm32f4xx_it.c **** 
  71:../stm32f4xx_it.c **** /**
  72:../stm32f4xx_it.c ****   * @brief  This function handles Hard Fault exception.
  73:../stm32f4xx_it.c ****   * @param  None
  74:../stm32f4xx_it.c ****   * @retval None
  75:../stm32f4xx_it.c ****   */
  76:../stm32f4xx_it.c **** void HardFault_Handler(void)
  77:../stm32f4xx_it.c **** {
  85              		.loc 1 77 0
  86              		.cfi_startproc
  87              		@ args = 0, pretend = 0, frame = 0
  88              		@ frame_needed = 1, uses_anonymous_args = 0
  89              		@ link register save eliminated.
  90 000c 80B4     		push	{r7}
  91              	.LCFI2:
  92              		.cfi_def_cfa_offset 4
  93              		.cfi_offset 7, -4
  94 000e 00AF     		add	r7, sp, #0
  95              	.LCFI3:
  96              		.cfi_def_cfa_register 7
  97              	.L3:
  78:../stm32f4xx_it.c ****   /* Go to infinite loop when Hard Fault exception occurs */
  79:../stm32f4xx_it.c ****   while (1)
  80:../stm32f4xx_it.c ****   {}
  98              		.loc 1 80 0 discriminator 1
  99 0010 FEE7     		b	.L3
 100              		.cfi_endproc
 101              	.LFE111:
 103 0012 00BF     		.align	2
 104              		.global	MemManage_Handler
 105              		.thumb
 106              		.thumb_func
 108              	MemManage_Handler:
 109              	.LFB112:
  81:../stm32f4xx_it.c **** }
  82:../stm32f4xx_it.c **** 
  83:../stm32f4xx_it.c **** /**
  84:../stm32f4xx_it.c ****   * @brief  This function handles Memory Manage exception.
  85:../stm32f4xx_it.c ****   * @param  None
  86:../stm32f4xx_it.c ****   * @retval None
  87:../stm32f4xx_it.c ****   */
  88:../stm32f4xx_it.c **** void MemManage_Handler(void)
  89:../stm32f4xx_it.c **** {
 110              		.loc 1 89 0
 111              		.cfi_startproc
 112              		@ args = 0, pretend = 0, frame = 0
 113              		@ frame_needed = 1, uses_anonymous_args = 0
 114              		@ link register save eliminated.
 115 0014 80B4     		push	{r7}
 116              	.LCFI4:
 117              		.cfi_def_cfa_offset 4
 118              		.cfi_offset 7, -4
 119 0016 00AF     		add	r7, sp, #0
 120              	.LCFI5:
 121              		.cfi_def_cfa_register 7
 122              	.L5:
  90:../stm32f4xx_it.c ****   /* Go to infinite loop when Memory Manage exception occurs */
  91:../stm32f4xx_it.c ****   while (1)
  92:../stm32f4xx_it.c ****   {}
 123              		.loc 1 92 0 discriminator 1
 124 0018 FEE7     		b	.L5
 125              		.cfi_endproc
 126              	.LFE112:
 128 001a 00BF     		.align	2
 129              		.global	BusFault_Handler
 130              		.thumb
 131              		.thumb_func
 133              	BusFault_Handler:
 134              	.LFB113:
  93:../stm32f4xx_it.c **** }
  94:../stm32f4xx_it.c **** 
  95:../stm32f4xx_it.c **** /**
  96:../stm32f4xx_it.c ****   * @brief  This function handles Bus Fault exception.
  97:../stm32f4xx_it.c ****   * @param  None
  98:../stm32f4xx_it.c ****   * @retval None
  99:../stm32f4xx_it.c ****   */
 100:../stm32f4xx_it.c **** void BusFault_Handler(void)
 101:../stm32f4xx_it.c **** {
 135              		.loc 1 101 0
 136              		.cfi_startproc
 137              		@ args = 0, pretend = 0, frame = 0
 138              		@ frame_needed = 1, uses_anonymous_args = 0
 139              		@ link register save eliminated.
 140 001c 80B4     		push	{r7}
 141              	.LCFI6:
 142              		.cfi_def_cfa_offset 4
 143              		.cfi_offset 7, -4
 144 001e 00AF     		add	r7, sp, #0
 145              	.LCFI7:
 146              		.cfi_def_cfa_register 7
 147              	.L7:
 102:../stm32f4xx_it.c ****   /* Go to infinite loop when Bus Fault exception occurs */
 103:../stm32f4xx_it.c ****   while (1)
 104:../stm32f4xx_it.c ****   {}
 148              		.loc 1 104 0 discriminator 1
 149 0020 FEE7     		b	.L7
 150              		.cfi_endproc
 151              	.LFE113:
 153 0022 00BF     		.align	2
 154              		.global	UsageFault_Handler
 155              		.thumb
 156              		.thumb_func
 158              	UsageFault_Handler:
 159              	.LFB114:
 105:../stm32f4xx_it.c **** }
 106:../stm32f4xx_it.c **** 
 107:../stm32f4xx_it.c **** /**
 108:../stm32f4xx_it.c ****   * @brief  This function handles Usage Fault exception.
 109:../stm32f4xx_it.c ****   * @param  None
 110:../stm32f4xx_it.c ****   * @retval None
 111:../stm32f4xx_it.c ****   */
 112:../stm32f4xx_it.c **** void UsageFault_Handler(void)
 113:../stm32f4xx_it.c **** {
 160              		.loc 1 113 0
 161              		.cfi_startproc
 162              		@ args = 0, pretend = 0, frame = 0
 163              		@ frame_needed = 1, uses_anonymous_args = 0
 164              		@ link register save eliminated.
 165 0024 80B4     		push	{r7}
 166              	.LCFI8:
 167              		.cfi_def_cfa_offset 4
 168              		.cfi_offset 7, -4
 169 0026 00AF     		add	r7, sp, #0
 170              	.LCFI9:
 171              		.cfi_def_cfa_register 7
 172              	.L9:
 114:../stm32f4xx_it.c ****   /* Go to infinite loop when Usage Fault exception occurs */
 115:../stm32f4xx_it.c ****   while (1)
 116:../stm32f4xx_it.c ****   {}
 173              		.loc 1 116 0 discriminator 1
 174 0028 FEE7     		b	.L9
 175              		.cfi_endproc
 176              	.LFE114:
 178 002a 00BF     		.align	2
 179              		.global	DebugMon_Handler
 180              		.thumb
 181              		.thumb_func
 183              	DebugMon_Handler:
 184              	.LFB115:
 117:../stm32f4xx_it.c **** }
 118:../stm32f4xx_it.c **** 
 119:../stm32f4xx_it.c **** /**
 120:../stm32f4xx_it.c ****   * @brief  This function handles Debug Monitor exception.
 121:../stm32f4xx_it.c ****   * @param  None
 122:../stm32f4xx_it.c ****   * @retval None
 123:../stm32f4xx_it.c ****   */
 124:../stm32f4xx_it.c **** void DebugMon_Handler(void)
 125:../stm32f4xx_it.c **** {}
 185              		.loc 1 125 0
 186              		.cfi_startproc
 187              		@ args = 0, pretend = 0, frame = 0
 188              		@ frame_needed = 1, uses_anonymous_args = 0
 189              		@ link register save eliminated.
 190 002c 80B4     		push	{r7}
 191              	.LCFI10:
 192              		.cfi_def_cfa_offset 4
 193              		.cfi_offset 7, -4
 194 002e 00AF     		add	r7, sp, #0
 195              	.LCFI11:
 196              		.cfi_def_cfa_register 7
 197              		.loc 1 125 0
 198 0030 BD46     		mov	sp, r7
 199 0032 80BC     		pop	{r7}
 200 0034 7047     		bx	lr
 201              		.cfi_endproc
 202              	.LFE115:
 204 0036 00BF     		.align	2
 205              		.global	EXTI1_IRQHandler
 206              		.thumb
 207              		.thumb_func
 209              	EXTI1_IRQHandler:
 210              	.LFB116:
 126:../stm32f4xx_it.c **** 
 127:../stm32f4xx_it.c **** 
 128:../stm32f4xx_it.c **** /**
 129:../stm32f4xx_it.c ****  * The following two function are handled by FreeRTOS.  See line 225
 130:../stm32f4xx_it.c ****  * in port.c inside of FreeRTOS.
 131:../stm32f4xx_it.c ****  */
 132:../stm32f4xx_it.c **** 
 133:../stm32f4xx_it.c **** /**
 134:../stm32f4xx_it.c ****   * @brief  This function handles SVCall exception.
 135:../stm32f4xx_it.c ****   * @param  None
 136:../stm32f4xx_it.c ****   * @retval None
 137:../stm32f4xx_it.c ****   */
 138:../stm32f4xx_it.c **** /*void SVC_Handler(void)
 139:../stm32f4xx_it.c **** {}*/
 140:../stm32f4xx_it.c **** 
 141:../stm32f4xx_it.c **** /**
 142:../stm32f4xx_it.c ****   * @brief  This function handles PendSV_Handler exception.
 143:../stm32f4xx_it.c ****   * @param  None
 144:../stm32f4xx_it.c ****   * @retval None
 145:../stm32f4xx_it.c ****   */
 146:../stm32f4xx_it.c **** /*void PendSV_Handler(void)
 147:../stm32f4xx_it.c **** {}*/
 148:../stm32f4xx_it.c **** 
 149:../stm32f4xx_it.c **** /**
 150:../stm32f4xx_it.c ****   * @brief  This function handles SysTick Handler.
 151:../stm32f4xx_it.c ****   * @param  None
 152:../stm32f4xx_it.c ****   * @retval None
 153:../stm32f4xx_it.c ****   */
 154:../stm32f4xx_it.c **** /*void SysTick_Handler(void)
 155:../stm32f4xx_it.c **** {}*/
 156:../stm32f4xx_it.c **** 
 157:../stm32f4xx_it.c **** /******************************************************************************/
 158:../stm32f4xx_it.c **** /*            STM32F4xx Peripherals Interrupt Handlers                        */
 159:../stm32f4xx_it.c **** /******************************************************************************/
 160:../stm32f4xx_it.c **** /*
 161:../stm32f4xx_it.c ****  * Sdio interface collides with I2S3 in STM32F4Discovery so
 162:../stm32f4xx_it.c ****  * using USB Host MSC is the better way to get Massstorage access
 163:../stm32f4xx_it.c ****  */
 164:../stm32f4xx_it.c **** #ifdef STM32_SDIO
 165:../stm32f4xx_it.c **** /**
 166:../stm32f4xx_it.c ****   * @brief  This function handles SDIO global interrupt request.
 167:../stm32f4xx_it.c ****   * @param  None
 168:../stm32f4xx_it.c ****   * @retval None
 169:../stm32f4xx_it.c ****   */
 170:../stm32f4xx_it.c **** void SDIO_IRQHandler(void)
 171:../stm32f4xx_it.c **** {
 172:../stm32f4xx_it.c ****   /* Process All SDIO Interrupt Sources */
 173:../stm32f4xx_it.c ****   SD_ProcessIRQSrc();
 174:../stm32f4xx_it.c **** }
 175:../stm32f4xx_it.c **** 
 176:../stm32f4xx_it.c **** /**
 177:../stm32f4xx_it.c ****   * @brief  This function handles DMA2 Stream3 or DMA2 Stream6 global interrupts
 178:../stm32f4xx_it.c ****   *         requests.
 179:../stm32f4xx_it.c ****   * @param  None
 180:../stm32f4xx_it.c ****   * @retval None
 181:../stm32f4xx_it.c ****   */
 182:../stm32f4xx_it.c **** void SD_SDIO_DMA_IRQHANDLER(void)
 183:../stm32f4xx_it.c **** {
 184:../stm32f4xx_it.c ****   /* Process DMA2 Stream3 or DMA2 Stream6 Interrupt Sources */
 185:../stm32f4xx_it.c ****   SD_ProcessDMAIRQ();
 186:../stm32f4xx_it.c **** }
 187:../stm32f4xx_it.c **** 
 188:../stm32f4xx_it.c **** #else
 189:../stm32f4xx_it.c **** 
 190:../stm32f4xx_it.c **** 	/**
 191:../stm32f4xx_it.c **** 	  * @brief  This function handles External line 1 interrupt request.
 192:../stm32f4xx_it.c **** 	  *
 193:../stm32f4xx_it.c **** 	  * 		Triggers Event on mechanical shock, good as "Snoozze" Button :D
 194:../stm32f4xx_it.c **** 	  * @param  None
 195:../stm32f4xx_it.c **** 	  * @retval None
 196:../stm32f4xx_it.c **** 	  */
 197:../stm32f4xx_it.c **** 	void EXTI1_IRQHandler(void)
 198:../stm32f4xx_it.c **** 	{
 211              		.loc 1 198 0
 212              		.cfi_startproc
 213              		@ args = 0, pretend = 0, frame = 0
 214              		@ frame_needed = 1, uses_anonymous_args = 0
 215 0038 80B5     		push	{r7, lr}
 216              	.LCFI12:
 217              		.cfi_def_cfa_offset 8
 218              		.cfi_offset 14, -4
 219              		.cfi_offset 7, -8
 220 003a 00AF     		add	r7, sp, #0
 221              	.LCFI13:
 222              		.cfi_def_cfa_register 7
 199:../stm32f4xx_it.c **** 	  /* Check the clic on the accelerometer to Pause/Resume Playing */
 200:../stm32f4xx_it.c **** 	  if(EXTI_GetITStatus(EXTI_Line1) != RESET)
 223              		.loc 1 200 0
 224 003c 4FF00200 		mov	r0, #2
 225 0040 FFF7FEFF 		bl	EXTI_GetITStatus
 226 0044 0346     		mov	r3, r0
 227 0046 002B     		cmp	r3, #0
 228 0048 03D0     		beq	.L11
 201:../stm32f4xx_it.c **** 	  {
 202:../stm32f4xx_it.c **** 		/*give sem in FreeRTOS */
 203:../stm32f4xx_it.c **** 
 204:../stm32f4xx_it.c **** 
 205:../stm32f4xx_it.c **** 		/* Clear the EXTI line 1 pending bit */
 206:../stm32f4xx_it.c **** 		EXTI_ClearITPendingBit(EXTI_Line1);
 229              		.loc 1 206 0
 230 004a 4FF00200 		mov	r0, #2
 231 004e FFF7FEFF 		bl	EXTI_ClearITPendingBit
 232              	.L11:
 207:../stm32f4xx_it.c **** 	  }
 208:../stm32f4xx_it.c **** 	}
 233              		.loc 1 208 0
 234 0052 80BD     		pop	{r7, pc}
 235              		.cfi_endproc
 236              	.LFE116:
 238              		.align	2
 239              		.global	EXTI0_IRQHandler
 240              		.thumb
 241              		.thumb_func
 243              	EXTI0_IRQHandler:
 244              	.LFB117:
 209:../stm32f4xx_it.c **** 
 210:../stm32f4xx_it.c **** 
 211:../stm32f4xx_it.c **** 	#if defined MEDIA_USB_KEY
 212:../stm32f4xx_it.c **** 		/**
 213:../stm32f4xx_it.c **** 		  * @brief  EXTI0_IRQHandler
 214:../stm32f4xx_it.c **** 		  *         This function handles External line 0 interrupt request.
 215:../stm32f4xx_it.c **** 		  * @param  None
 216:../stm32f4xx_it.c **** 		  * @retval None
 217:../stm32f4xx_it.c **** 		  */
 218:../stm32f4xx_it.c **** 		void EXTI0_IRQHandler(void)
 219:../stm32f4xx_it.c **** 		{
 245              		.loc 1 219 0
 246              		.cfi_startproc
 247              		@ args = 0, pretend = 0, frame = 0
 248              		@ frame_needed = 1, uses_anonymous_args = 0
 249 0054 80B5     		push	{r7, lr}
 250              	.LCFI14:
 251              		.cfi_def_cfa_offset 8
 252              		.cfi_offset 14, -4
 253              		.cfi_offset 7, -8
 254 0056 00AF     		add	r7, sp, #0
 255              	.LCFI15:
 256              		.cfi_def_cfa_register 7
 220:../stm32f4xx_it.c **** 		  /* Checks whether the User Button EXTI line is asserted*/
 221:../stm32f4xx_it.c **** 		  if (EXTI_GetITStatus(EXTI_Line0) != RESET)
 257              		.loc 1 221 0
 258 0058 4FF00100 		mov	r0, #1
 259 005c FFF7FEFF 		bl	EXTI_GetITStatus
 222:../stm32f4xx_it.c **** 		  {
 223:../stm32f4xx_it.c **** #ifdef test
 224:../stm32f4xx_it.c **** 			if (Command_index == 1)
 225:../stm32f4xx_it.c **** 			{
 226:../stm32f4xx_it.c **** 			  /* Switch to play command */
 227:../stm32f4xx_it.c **** 			  Command_index = 0;
 228:../stm32f4xx_it.c **** 			}
 229:../stm32f4xx_it.c **** 			else if (Command_index == 0)
 230:../stm32f4xx_it.c **** 			{
 231:../stm32f4xx_it.c **** 			  /* Switch to record command */
 232:../stm32f4xx_it.c **** 			  Command_index = 1;
 233:../stm32f4xx_it.c **** 			  XferCplt = 1;
 234:../stm32f4xx_it.c **** 			  EVAL_AUDIO_Stop(CODEC_PDWN_SW);
 235:../stm32f4xx_it.c **** 			}
 236:../stm32f4xx_it.c **** 			else
 237:../stm32f4xx_it.c **** 			{
 238:../stm32f4xx_it.c **** 			  /* Switch to play command */
 239:../stm32f4xx_it.c **** 			  Command_index = 0;
 240:../stm32f4xx_it.c **** 			}
 241:../stm32f4xx_it.c **** #endif
 242:../stm32f4xx_it.c **** 		  }
 243:../stm32f4xx_it.c **** 
 244:../stm32f4xx_it.c **** 		  /* Clears the EXTI's line pending bit.*/
 245:../stm32f4xx_it.c **** 		  EXTI_ClearITPendingBit(EXTI_Line0);
 260              		.loc 1 245 0
 261 0060 4FF00100 		mov	r0, #1
 262 0064 FFF7FEFF 		bl	EXTI_ClearITPendingBit
 246:../stm32f4xx_it.c **** 		}
 263              		.loc 1 246 0
 264 0068 80BD     		pop	{r7, pc}
 265              		.cfi_endproc
 266              	.LFE117:
 268 006a 00BF     		.align	2
 269              		.global	OTG_FS_IRQHandler
 270              		.thumb
 271              		.thumb_func
 273              	OTG_FS_IRQHandler:
 274              	.LFB118:
 247:../stm32f4xx_it.c **** 
 248:../stm32f4xx_it.c **** 
 249:../stm32f4xx_it.c **** 		/**
 250:../stm32f4xx_it.c **** 		  * @brief  This function handles USB-On-The-Go FS global interrupt request.
 251:../stm32f4xx_it.c **** 		  * @param  None
 252:../stm32f4xx_it.c **** 		  * @retval None
 253:../stm32f4xx_it.c **** 		  */
 254:../stm32f4xx_it.c **** 		void OTG_FS_IRQHandler(void)
 255:../stm32f4xx_it.c **** 		{
 275              		.loc 1 255 0
 276              		.cfi_startproc
 277              		@ args = 0, pretend = 0, frame = 0
 278              		@ frame_needed = 1, uses_anonymous_args = 0
 279 006c 80B5     		push	{r7, lr}
 280              	.LCFI16:
 281              		.cfi_def_cfa_offset 8
 282              		.cfi_offset 14, -4
 283              		.cfi_offset 7, -8
 284 006e 00AF     		add	r7, sp, #0
 285              	.LCFI17:
 286              		.cfi_def_cfa_register 7
 256:../stm32f4xx_it.c **** 		  USBH_OTG_ISR_Handler(&USB_OTG_Core);
 287              		.loc 1 256 0
 288 0070 40F20000 		movw	r0, #:lower16:USB_OTG_Core
 289 0074 C0F20000 		movt	r0, #:upper16:USB_OTG_Core
 290 0078 FFF7FEFF 		bl	USBH_OTG_ISR_Handler
 257:../stm32f4xx_it.c **** 		}
 291              		.loc 1 257 0
 292 007c 80BD     		pop	{r7, pc}
 293              		.cfi_endproc
 294              	.LFE118:
 296              	.Letext0:
 297              		.file 2 "d:/elektronik/ides/eclipse/yagarto/lib/gcc/../../arm-none-eabi/sys-include/stdint.h"
 298              		.file 3 "C:\\Dokumente und Einstellungen\\brand\\Desktop\\thundercyer-the-alarm-clock\\STM32_USB_O
 299              		.file 4 "C:\\Dokumente und Einstellungen\\brand\\Desktop\\thundercyer-the-alarm-clock\\CMSIS\\Devi
 300              		.file 5 "C:\\Dokumente und Einstellungen\\brand\\Desktop\\thundercyer-the-alarm-clock\\STM32_USB_O
 301              		.file 6 "C:\\Dokumente und Einstellungen\\brand\\Desktop\\thundercyer-the-alarm-clock\\CMSIS\\Incl