   1              		.syntax unified
   2              		.cpu cortex-m4
   3              		.eabi_attribute 27, 3
   4              		.fpu fpv4-sp-d16
   5              		.eabi_attribute 20, 1
   6              		.eabi_attribute 21, 1
   7              		.eabi_attribute 23, 3
   8              		.eabi_attribute 24, 1
   9              		.eabi_attribute 25, 1
  10              		.eabi_attribute 26, 1
  11              		.eabi_attribute 30, 6
  12              		.eabi_attribute 18, 4
  13              		.thumb
  14              		.file	"syscalls.c"
  15              		.text
  16              	.Ltext0:
  17              		.cfi_sections	.debug_frame
  18              		.global	__malloc_margin
  19              		.section	.data.__malloc_margin,"aw",%progbits
  20              		.align	2
  23              	__malloc_margin:
  24 0000 00010000 		.word	256
  25              		.comm	__brkval,4,4
  26              		.text
  27              		.align	2
  28              		.global	_exit
  29              		.thumb
  30              		.thumb_func
  32              	_exit:
  33              	.LFB110:
  34              		.file 1 "../syscalls.c"
   1:../syscalls.c **** #include "syscalls.h"
   2:../syscalls.c **** #include "stm32f4xx.h"
   3:../syscalls.c **** #include "FreeRTOS.h"
   4:../syscalls.c **** #include <unistd.h>
   5:../syscalls.c **** #include <stdlib.h>
   6:../syscalls.c **** #include <errno.h>
   7:../syscalls.c **** #include <string.h>
   8:../syscalls.c **** #include <sys/stat.h>
   9:../syscalls.c **** #include <sys/time.h>
  10:../syscalls.c **** 
  11:../syscalls.c **** size_t   __malloc_margin = 256;
  12:../syscalls.c **** char    *__brkval;
  13:../syscalls.c **** 
  14:../syscalls.c **** void _exit(int code)
  15:../syscalls.c **** {
  35              		.loc 1 15 0
  36              		.cfi_startproc
  37              		@ args = 0, pretend = 0, frame = 8
  38              		@ frame_needed = 1, uses_anonymous_args = 0
  39              		@ link register save eliminated.
  40 0000 80B4     		push	{r7}
  41              	.LCFI0:
  42              		.cfi_def_cfa_offset 4
  43              		.cfi_offset 7, -4
  44 0002 83B0     		sub	sp, sp, #12
  45              	.LCFI1:
  46              		.cfi_def_cfa_offset 16
  47 0004 00AF     		add	r7, sp, #0
  48              	.LCFI2:
  49              		.cfi_def_cfa_register 7
  50 0006 7860     		str	r0, [r7, #4]
  51              	.L2:
  16:../syscalls.c ****     for (;;);
  52              		.loc 1 16 0 discriminator 1
  53 0008 FEE7     		b	.L2
  54              		.cfi_endproc
  55              	.LFE110:
  57 000a 00BF     		.align	2
  58              		.global	_read_r
  59              		.thumb
  60              		.thumb_func
  62              	_read_r:
  63              	.LFB111:
  17:../syscalls.c **** }
  18:../syscalls.c **** 
  19:../syscalls.c **** 
  20:../syscalls.c **** ssize_t _read_r(struct _reent *r, int fd, void *ptr, size_t len)
  21:../syscalls.c **** {
  64              		.loc 1 21 0
  65              		.cfi_startproc
  66              		@ args = 0, pretend = 0, frame = 16
  67              		@ frame_needed = 1, uses_anonymous_args = 0
  68              		@ link register save eliminated.
  69 000c 80B4     		push	{r7}
  70              	.LCFI3:
  71              		.cfi_def_cfa_offset 4
  72              		.cfi_offset 7, -4
  73 000e 85B0     		sub	sp, sp, #20
  74              	.LCFI4:
  75              		.cfi_def_cfa_offset 24
  76 0010 00AF     		add	r7, sp, #0
  77              	.LCFI5:
  78              		.cfi_def_cfa_register 7
  79 0012 F860     		str	r0, [r7, #12]
  80 0014 B960     		str	r1, [r7, #8]
  81 0016 7A60     		str	r2, [r7, #4]
  82 0018 3B60     		str	r3, [r7, #0]
  22:../syscalls.c ****     //return uart_read_r(r, fd, ptr, len);
  23:../syscalls.c **** 	/**
  24:../syscalls.c **** 	 * printf mapping function
  25:../syscalls.c **** 	 */
  26:../syscalls.c **** 	return 0;
  83              		.loc 1 26 0
  84 001a 4FF00003 		mov	r3, #0
  27:../syscalls.c **** }
  85              		.loc 1 27 0
  86 001e 1846     		mov	r0, r3
  87 0020 07F11407 		add	r7, r7, #20
  88 0024 BD46     		mov	sp, r7
  89 0026 80BC     		pop	{r7}
  90 0028 7047     		bx	lr
  91              		.cfi_endproc
  92              	.LFE111:
  94 002a 00BF     		.align	2
  95              		.global	_write_r
  96              		.thumb
  97              		.thumb_func
  99              	_write_r:
 100              	.LFB112:
  28:../syscalls.c **** 
  29:../syscalls.c **** 
  30:../syscalls.c **** ssize_t _write_r(struct _reent *r, int fd, const void *ptr, size_t len)
  31:../syscalls.c **** {
 101              		.loc 1 31 0
 102              		.cfi_startproc
 103              		@ args = 0, pretend = 0, frame = 16
 104              		@ frame_needed = 1, uses_anonymous_args = 0
 105              		@ link register save eliminated.
 106 002c 80B4     		push	{r7}
 107              	.LCFI6:
 108              		.cfi_def_cfa_offset 4
 109              		.cfi_offset 7, -4
 110 002e 85B0     		sub	sp, sp, #20
 111              	.LCFI7:
 112              		.cfi_def_cfa_offset 24
 113 0030 00AF     		add	r7, sp, #0
 114              	.LCFI8:
 115              		.cfi_def_cfa_register 7
 116 0032 F860     		str	r0, [r7, #12]
 117 0034 B960     		str	r1, [r7, #8]
 118 0036 7A60     		str	r2, [r7, #4]
 119 0038 3B60     		str	r3, [r7, #0]
  32:../syscalls.c ****     //return uart_write_r(r, fd, ptr, len);
  33:../syscalls.c **** 	/**
  34:../syscalls.c **** 	 * printf maping function
  35:../syscalls.c **** 	 */
  36:../syscalls.c **** 	return 0;
 120              		.loc 1 36 0
 121 003a 4FF00003 		mov	r3, #0
  37:../syscalls.c **** }
 122              		.loc 1 37 0
 123 003e 1846     		mov	r0, r3
 124 0040 07F11407 		add	r7, r7, #20
 125 0044 BD46     		mov	sp, r7
 126 0046 80BC     		pop	{r7}
 127 0048 7047     		bx	lr
 128              		.cfi_endproc
 129              	.LFE112:
 131 004a 00BF     		.align	2
 132              		.global	_lseek_r
 133              		.thumb
 134              		.thumb_func
 136              	_lseek_r:
 137              	.LFB113:
  38:../syscalls.c **** 
  39:../syscalls.c **** 
  40:../syscalls.c **** off_t _lseek_r(struct _reent *r, int fd, _off_t ptr, int dir)
  41:../syscalls.c **** {
 138              		.loc 1 41 0
 139              		.cfi_startproc
 140              		@ args = 0, pretend = 0, frame = 16
 141              		@ frame_needed = 1, uses_anonymous_args = 0
 142              		@ link register save eliminated.
 143 004c 80B4     		push	{r7}
 144              	.LCFI9:
 145              		.cfi_def_cfa_offset 4
 146              		.cfi_offset 7, -4
 147 004e 85B0     		sub	sp, sp, #20
 148              	.LCFI10:
 149              		.cfi_def_cfa_offset 24
 150 0050 00AF     		add	r7, sp, #0
 151              	.LCFI11:
 152              		.cfi_def_cfa_register 7
 153 0052 F860     		str	r0, [r7, #12]
 154 0054 B960     		str	r1, [r7, #8]
 155 0056 7A60     		str	r2, [r7, #4]
 156 0058 3B60     		str	r3, [r7, #0]
  42:../syscalls.c **** 
  43:../syscalls.c ****     r->_errno = ENOSYS;
 157              		.loc 1 43 0
 158 005a FB68     		ldr	r3, [r7, #12]
 159 005c 4FF05802 		mov	r2, #88
 160 0060 1A60     		str	r2, [r3, #0]
  44:../syscalls.c ****     return -1;
 161              		.loc 1 44 0
 162 0062 4FF0FF33 		mov	r3, #-1
  45:../syscalls.c **** }
 163              		.loc 1 45 0
 164 0066 1846     		mov	r0, r3
 165 0068 07F11407 		add	r7, r7, #20
 166 006c BD46     		mov	sp, r7
 167 006e 80BC     		pop	{r7}
 168 0070 7047     		bx	lr
 169              		.cfi_endproc
 170              	.LFE113:
 172 0072 00BF     		.align	2
 173              		.global	_close_r
 174              		.thumb
 175              		.thumb_func
 177              	_close_r:
 178              	.LFB114:
  46:../syscalls.c **** 
  47:../syscalls.c **** 
  48:../syscalls.c **** int _close_r(struct _reent *r, int fd)
  49:../syscalls.c **** {
 179              		.loc 1 49 0
 180              		.cfi_startproc
 181              		@ args = 0, pretend = 0, frame = 8
 182              		@ frame_needed = 1, uses_anonymous_args = 0
 183              		@ link register save eliminated.
 184 0074 80B4     		push	{r7}
 185              	.LCFI12:
 186              		.cfi_def_cfa_offset 4
 187              		.cfi_offset 7, -4
 188 0076 83B0     		sub	sp, sp, #12
 189              	.LCFI13:
 190              		.cfi_def_cfa_offset 16
 191 0078 00AF     		add	r7, sp, #0
 192              	.LCFI14:
 193              		.cfi_def_cfa_register 7
 194 007a 7860     		str	r0, [r7, #4]
 195 007c 3960     		str	r1, [r7, #0]
  50:../syscalls.c ****     r->_errno = ENOSYS;
 196              		.loc 1 50 0
 197 007e 7B68     		ldr	r3, [r7, #4]
 198 0080 4FF05802 		mov	r2, #88
 199 0084 1A60     		str	r2, [r3, #0]
  51:../syscalls.c ****     return -1;
 200              		.loc 1 51 0
 201 0086 4FF0FF33 		mov	r3, #-1
  52:../syscalls.c **** }
 202              		.loc 1 52 0
 203 008a 1846     		mov	r0, r3
 204 008c 07F10C07 		add	r7, r7, #12
 205 0090 BD46     		mov	sp, r7
 206 0092 80BC     		pop	{r7}
 207 0094 7047     		bx	lr
 208              		.cfi_endproc
 209              	.LFE114:
 211 0096 00BF     		.align	2
 212              		.global	_fstat_r
 213              		.thumb
 214              		.thumb_func
 216              	_fstat_r:
 217              	.LFB115:
  53:../syscalls.c **** 
  54:../syscalls.c **** 
  55:../syscalls.c **** int _fstat_r(struct _reent *r, int fd, struct stat *st)
  56:../syscalls.c **** {
 218              		.loc 1 56 0
 219              		.cfi_startproc
 220              		@ args = 0, pretend = 0, frame = 16
 221              		@ frame_needed = 1, uses_anonymous_args = 0
 222              		@ link register save eliminated.
 223 0098 80B4     		push	{r7}
 224              	.LCFI15:
 225              		.cfi_def_cfa_offset 4
 226              		.cfi_offset 7, -4
 227 009a 85B0     		sub	sp, sp, #20
 228              	.LCFI16:
 229              		.cfi_def_cfa_offset 24
 230 009c 00AF     		add	r7, sp, #0
 231              	.LCFI17:
 232              		.cfi_def_cfa_register 7
 233 009e F860     		str	r0, [r7, #12]
 234 00a0 B960     		str	r1, [r7, #8]
 235 00a2 7A60     		str	r2, [r7, #4]
  57:../syscalls.c ****     if ((fd >= STDIN_FILENO) && (fd <= STDERR_FILENO)) {
 236              		.loc 1 57 0
 237 00a4 BB68     		ldr	r3, [r7, #8]
 238 00a6 002B     		cmp	r3, #0
 239 00a8 09DB     		blt	.L8
 240              		.loc 1 57 0 is_stmt 0 discriminator 1
 241 00aa BB68     		ldr	r3, [r7, #8]
 242 00ac 022B     		cmp	r3, #2
 243 00ae 06DC     		bgt	.L8
  58:../syscalls.c ****       st->st_mode = S_IFCHR;
 244              		.loc 1 58 0 is_stmt 1
 245 00b0 7B68     		ldr	r3, [r7, #4]
 246 00b2 4FF40052 		mov	r2, #8192
 247 00b6 5A60     		str	r2, [r3, #4]
  59:../syscalls.c ****       return 0;
 248              		.loc 1 59 0
 249 00b8 4FF00003 		mov	r3, #0
 250 00bc 05E0     		b	.L9
 251              	.L8:
  60:../syscalls.c ****     }
  61:../syscalls.c **** 
  62:../syscalls.c ****     r->_errno = ENOSYS;
 252              		.loc 1 62 0
 253 00be FB68     		ldr	r3, [r7, #12]
 254 00c0 4FF05802 		mov	r2, #88
 255 00c4 1A60     		str	r2, [r3, #0]
  63:../syscalls.c ****     return -1;
 256              		.loc 1 63 0
 257 00c6 4FF0FF33 		mov	r3, #-1
 258              	.L9:
  64:../syscalls.c **** }
 259              		.loc 1 64 0
 260 00ca 1846     		mov	r0, r3
 261 00cc 07F11407 		add	r7, r7, #20
 262 00d0 BD46     		mov	sp, r7
 263 00d2 80BC     		pop	{r7}
 264 00d4 7047     		bx	lr
 265              		.cfi_endproc
 266              	.LFE115:
 268 00d6 00BF     		.align	2
 269              		.global	_isatty_r
 270              		.thumb
 271              		.thumb_func
 273              	_isatty_r:
 274              	.LFB116:
  65:../syscalls.c **** 
  66:../syscalls.c **** 
  67:../syscalls.c **** int _isatty_r(struct _reent *r, int fd)
  68:../syscalls.c **** {
 275              		.loc 1 68 0
 276              		.cfi_startproc
 277              		@ args = 0, pretend = 0, frame = 8
 278              		@ frame_needed = 1, uses_anonymous_args = 0
 279              		@ link register save eliminated.
 280 00d8 80B4     		push	{r7}
 281              	.LCFI18:
 282              		.cfi_def_cfa_offset 4
 283              		.cfi_offset 7, -4
 284 00da 83B0     		sub	sp, sp, #12
 285              	.LCFI19:
 286              		.cfi_def_cfa_offset 16
 287 00dc 00AF     		add	r7, sp, #0
 288              	.LCFI20:
 289              		.cfi_def_cfa_register 7
 290 00de 7860     		str	r0, [r7, #4]
 291 00e0 3960     		str	r1, [r7, #0]
  69:../syscalls.c ****     return 1;
 292              		.loc 1 69 0
 293 00e2 4FF00103 		mov	r3, #1
  70:../syscalls.c **** }
 294              		.loc 1 70 0
 295 00e6 1846     		mov	r0, r3
 296 00e8 07F10C07 		add	r7, r7, #12
 297 00ec BD46     		mov	sp, r7
 298 00ee 80BC     		pop	{r7}
 299 00f0 7047     		bx	lr
 300              		.cfi_endproc
 301              	.LFE116:
 303 00f2 00BF     		.align	2
 304              		.global	_sbrk_r
 305              		.thumb
 306              		.thumb_func
 308              	_sbrk_r:
 309              	.LFB117:
  71:../syscalls.c **** 
  72:../syscalls.c **** 
  73:../syscalls.c **** void *_sbrk_r(struct _reent *r, ptrdiff_t incr)
  74:../syscalls.c **** {
 310              		.loc 1 74 0
 311              		.cfi_startproc
 312              		@ args = 0, pretend = 0, frame = 16
 313              		@ frame_needed = 1, uses_anonymous_args = 0
 314              		@ link register save eliminated.
 315 00f4 90B4     		push	{r4, r7}
 316              	.LCFI21:
 317              		.cfi_def_cfa_offset 8
 318              		.cfi_offset 7, -4
 319              		.cfi_offset 4, -8
 320 00f6 84B0     		sub	sp, sp, #16
 321              	.LCFI22:
 322              		.cfi_def_cfa_offset 24
 323 00f8 00AF     		add	r7, sp, #0
 324              	.LCFI23:
 325              		.cfi_def_cfa_register 7
 326 00fa 7860     		str	r0, [r7, #4]
 327 00fc 3960     		str	r1, [r7, #0]
  75:../syscalls.c ****     extern char end;   // provided by the linker script
  76:../syscalls.c **** 
  77:../syscalls.c ****     if (__brkval == 0)
 328              		.loc 1 77 0
 329 00fe 40F20003 		movw	r3, #:lower16:__brkval
 330 0102 C0F20003 		movt	r3, #:upper16:__brkval
 331 0106 1B68     		ldr	r3, [r3, #0]
 332 0108 002B     		cmp	r3, #0
 333 010a 08D1     		bne	.L12
  78:../syscalls.c ****         __brkval = &end;
 334              		.loc 1 78 0
 335 010c 40F20003 		movw	r3, #:lower16:__brkval
 336 0110 C0F20003 		movt	r3, #:upper16:__brkval
 337 0114 40F20002 		movw	r2, #:lower16:end
 338 0118 C0F20002 		movt	r2, #:upper16:end
 339 011c 1A60     		str	r2, [r3, #0]
 340              	.L12:
  79:../syscalls.c **** 
  80:../syscalls.c ****     if (__brkval + incr > (char*)__get_MSP() - __malloc_margin) {
 341              		.loc 1 80 0
 342 011e 40F20003 		movw	r3, #:lower16:__brkval
 343 0122 C0F20003 		movt	r3, #:upper16:__brkval
 344 0126 1A68     		ldr	r2, [r3, #0]
 345 0128 3B68     		ldr	r3, [r7, #0]
 346 012a D218     		adds	r2, r2, r3
 347              	.LBB4:
 348              	.LBB5:
 349              		.file 2 "C:\\Dokumente und Einstellungen\\brand\\Desktop\\thundercyer-the-alarm-clock\\CMSIS\\Incl
   1:C:\Dokumente und Einstellungen\brand\Desktop\thundercyer-the-alarm-clock\CMSIS\Include\core_cmFunc.h **** /**************************************************************************//**
   2:C:\Dokumente und Einstellungen\brand\Desktop\thundercyer-the-alarm-clock\CMSIS\Include\core_cmFunc.h ****  * @file     core_cmFunc.h
   3:C:\Dokumente und Einstellungen\brand\Desktop\thundercyer-the-alarm-clock\CMSIS\Include\core_cmFunc.h ****  * @brief    CMSIS Cortex-M Core Function Access Header File
   4:C:\Dokumente und Einstellungen\brand\Desktop\thundercyer-the-alarm-clock\CMSIS\Include\core_cmFunc.h ****  * @version  V2.10
   5:C:\Dokumente und Einstellungen\brand\Desktop\thundercyer-the-alarm-clock\CMSIS\Include\core_cmFunc.h ****  * @date     26. July 2011
   6:C:\Dokumente und Einstellungen\brand\Desktop\thundercyer-the-alarm-clock\CMSIS\Include\core_cmFunc.h ****  *
   7:C:\Dokumente und Einstellungen\brand\Desktop\thundercyer-the-alarm-clock\CMSIS\Include\core_cmFunc.h ****  * @note
   8:C:\Dokumente und Einstellungen\brand\Desktop\thundercyer-the-alarm-clock\CMSIS\Include\core_cmFunc.h ****  * Copyright (C) 2009-2011 ARM Limited. All rights reserved.
   9:C:\Dokumente und Einstellungen\brand\Desktop\thundercyer-the-alarm-clock\CMSIS\Include\core_cmFunc.h ****  *
  10:C:\Dokumente und Einstellungen\brand\Desktop\thundercyer-the-alarm-clock\CMSIS\Include\core_cmFunc.h ****  * @par
  11:C:\Dokumente und Einstellungen\brand\Desktop\thundercyer-the-alarm-clock\CMSIS\Include\core_cmFunc.h ****  * ARM Limited (ARM) is supplying this software for use with Cortex-M 
  12:C:\Dokumente und Einstellungen\brand\Desktop\thundercyer-the-alarm-clock\CMSIS\Include\core_cmFunc.h ****  * processor based microcontrollers.  This file can be freely distributed 
  13:C:\Dokumente und Einstellungen\brand\Desktop\thundercyer-the-alarm-clock\CMSIS\Include\core_cmFunc.h ****  * within development tools that are supporting such ARM based processors. 
  14:C:\Dokumente und Einstellungen\brand\Desktop\thundercyer-the-alarm-clock\CMSIS\Include\core_cmFunc.h ****  *
  15:C:\Dokumente und Einstellungen\brand\Desktop\thundercyer-the-alarm-clock\CMSIS\Include\core_cmFunc.h ****  * @par
  16:C:\Dokumente und Einstellungen\brand\Desktop\thundercyer-the-alarm-clock\CMSIS\Include\core_cmFunc.h ****  * THIS SOFTWARE IS PROVIDED "AS IS".  NO WARRANTIES, WHETHER EXPRESS, IMPLIED
  17:C:\Dokumente und Einstellungen\brand\Desktop\thundercyer-the-alarm-clock\CMSIS\Include\core_cmFunc.h ****  * OR STATUTORY, INCLUDING, BUT NOT LIMITED TO, IMPLIED WARRANTIES OF
  18:C:\Dokumente und Einstellungen\brand\Desktop\thundercyer-the-alarm-clock\CMSIS\Include\core_cmFunc.h ****  * MERCHANTABILITY AND FITNESS FOR A PARTICULAR PURPOSE APPLY TO THIS SOFTWARE.
  19:C:\Dokumente und Einstellungen\brand\Desktop\thundercyer-the-alarm-clock\CMSIS\Include\core_cmFunc.h ****  * ARM SHALL NOT, IN ANY CIRCUMSTANCES, BE LIABLE FOR SPECIAL, INCIDENTAL, OR
  20:C:\Dokumente und Einstellungen\brand\Desktop\thundercyer-the-alarm-clock\CMSIS\Include\core_cmFunc.h ****  * CONSEQUENTIAL DAMAGES, FOR ANY REASON WHATSOEVER.
  21:C:\Dokumente und Einstellungen\brand\Desktop\thundercyer-the-alarm-clock\CMSIS\Include\core_cmFunc.h ****  *
  22:C:\Dokumente und Einstellungen\brand\Desktop\thundercyer-the-alarm-clock\CMSIS\Include\core_cmFunc.h ****  ******************************************************************************/
  23:C:\Dokumente und Einstellungen\brand\Desktop\thundercyer-the-alarm-clock\CMSIS\Include\core_cmFunc.h **** 
  24:C:\Dokumente und Einstellungen\brand\Desktop\thundercyer-the-alarm-clock\CMSIS\Include\core_cmFunc.h **** #ifndef __CORE_CMFUNC_H
  25:C:\Dokumente und Einstellungen\brand\Desktop\thundercyer-the-alarm-clock\CMSIS\Include\core_cmFunc.h **** #define __CORE_CMFUNC_H
  26:C:\Dokumente und Einstellungen\brand\Desktop\thundercyer-the-alarm-clock\CMSIS\Include\core_cmFunc.h **** 
  27:C:\Dokumente und Einstellungen\brand\Desktop\thundercyer-the-alarm-clock\CMSIS\Include\core_cmFunc.h **** 
  28:C:\Dokumente und Einstellungen\brand\Desktop\thundercyer-the-alarm-clock\CMSIS\Include\core_cmFunc.h **** /* ###########################  Core Function Access  ########################### */
  29:C:\Dokumente und Einstellungen\brand\Desktop\thundercyer-the-alarm-clock\CMSIS\Include\core_cmFunc.h **** /** \ingroup  CMSIS_Core_FunctionInterface   
  30:C:\Dokumente und Einstellungen\brand\Desktop\thundercyer-the-alarm-clock\CMSIS\Include\core_cmFunc.h ****     \defgroup CMSIS_Core_RegAccFunctions CMSIS Core Register Access Functions
  31:C:\Dokumente und Einstellungen\brand\Desktop\thundercyer-the-alarm-clock\CMSIS\Include\core_cmFunc.h ****   @{
  32:C:\Dokumente und Einstellungen\brand\Desktop\thundercyer-the-alarm-clock\CMSIS\Include\core_cmFunc.h ****  */
  33:C:\Dokumente und Einstellungen\brand\Desktop\thundercyer-the-alarm-clock\CMSIS\Include\core_cmFunc.h **** 
  34:C:\Dokumente und Einstellungen\brand\Desktop\thundercyer-the-alarm-clock\CMSIS\Include\core_cmFunc.h **** #if   defined ( __CC_ARM ) /*------------------RealView Compiler -----------------*/
  35:C:\Dokumente und Einstellungen\brand\Desktop\thundercyer-the-alarm-clock\CMSIS\Include\core_cmFunc.h **** /* ARM armcc specific functions */
  36:C:\Dokumente und Einstellungen\brand\Desktop\thundercyer-the-alarm-clock\CMSIS\Include\core_cmFunc.h **** 
  37:C:\Dokumente und Einstellungen\brand\Desktop\thundercyer-the-alarm-clock\CMSIS\Include\core_cmFunc.h **** #if (__ARMCC_VERSION < 400677)
  38:C:\Dokumente und Einstellungen\brand\Desktop\thundercyer-the-alarm-clock\CMSIS\Include\core_cmFunc.h ****   #error "Please use ARM Compiler Toolchain V4.0.677 or later!"
  39:C:\Dokumente und Einstellungen\brand\Desktop\thundercyer-the-alarm-clock\CMSIS\Include\core_cmFunc.h **** #endif
  40:C:\Dokumente und Einstellungen\brand\Desktop\thundercyer-the-alarm-clock\CMSIS\Include\core_cmFunc.h **** 
  41:C:\Dokumente und Einstellungen\brand\Desktop\thundercyer-the-alarm-clock\CMSIS\Include\core_cmFunc.h **** /* intrinsic void __enable_irq();     */
  42:C:\Dokumente und Einstellungen\brand\Desktop\thundercyer-the-alarm-clock\CMSIS\Include\core_cmFunc.h **** /* intrinsic void __disable_irq();    */
  43:C:\Dokumente und Einstellungen\brand\Desktop\thundercyer-the-alarm-clock\CMSIS\Include\core_cmFunc.h **** 
  44:C:\Dokumente und Einstellungen\brand\Desktop\thundercyer-the-alarm-clock\CMSIS\Include\core_cmFunc.h **** /** \brief  Get Control Register
  45:C:\Dokumente und Einstellungen\brand\Desktop\thundercyer-the-alarm-clock\CMSIS\Include\core_cmFunc.h **** 
  46:C:\Dokumente und Einstellungen\brand\Desktop\thundercyer-the-alarm-clock\CMSIS\Include\core_cmFunc.h ****     This function returns the content of the Control Register.
  47:C:\Dokumente und Einstellungen\brand\Desktop\thundercyer-the-alarm-clock\CMSIS\Include\core_cmFunc.h **** 
  48:C:\Dokumente und Einstellungen\brand\Desktop\thundercyer-the-alarm-clock\CMSIS\Include\core_cmFunc.h ****     \return               Control Register value
  49:C:\Dokumente und Einstellungen\brand\Desktop\thundercyer-the-alarm-clock\CMSIS\Include\core_cmFunc.h ****  */
  50:C:\Dokumente und Einstellungen\brand\Desktop\thundercyer-the-alarm-clock\CMSIS\Include\core_cmFunc.h **** static __INLINE uint32_t __get_CONTROL(void)
  51:C:\Dokumente und Einstellungen\brand\Desktop\thundercyer-the-alarm-clock\CMSIS\Include\core_cmFunc.h **** {
  52:C:\Dokumente und Einstellungen\brand\Desktop\thundercyer-the-alarm-clock\CMSIS\Include\core_cmFunc.h ****   register uint32_t __regControl         __ASM("control");
  53:C:\Dokumente und Einstellungen\brand\Desktop\thundercyer-the-alarm-clock\CMSIS\Include\core_cmFunc.h ****   return(__regControl);
  54:C:\Dokumente und Einstellungen\brand\Desktop\thundercyer-the-alarm-clock\CMSIS\Include\core_cmFunc.h **** }
  55:C:\Dokumente und Einstellungen\brand\Desktop\thundercyer-the-alarm-clock\CMSIS\Include\core_cmFunc.h **** 
  56:C:\Dokumente und Einstellungen\brand\Desktop\thundercyer-the-alarm-clock\CMSIS\Include\core_cmFunc.h **** 
  57:C:\Dokumente und Einstellungen\brand\Desktop\thundercyer-the-alarm-clock\CMSIS\Include\core_cmFunc.h **** /** \brief  Set Control Register
  58:C:\Dokumente und Einstellungen\brand\Desktop\thundercyer-the-alarm-clock\CMSIS\Include\core_cmFunc.h **** 
  59:C:\Dokumente und Einstellungen\brand\Desktop\thundercyer-the-alarm-clock\CMSIS\Include\core_cmFunc.h ****     This function writes the given value to the Control Register.
  60:C:\Dokumente und Einstellungen\brand\Desktop\thundercyer-the-alarm-clock\CMSIS\Include\core_cmFunc.h **** 
  61:C:\Dokumente und Einstellungen\brand\Desktop\thundercyer-the-alarm-clock\CMSIS\Include\core_cmFunc.h ****     \param [in]    control  Control Register value to set
  62:C:\Dokumente und Einstellungen\brand\Desktop\thundercyer-the-alarm-clock\CMSIS\Include\core_cmFunc.h ****  */
  63:C:\Dokumente und Einstellungen\brand\Desktop\thundercyer-the-alarm-clock\CMSIS\Include\core_cmFunc.h **** static __INLINE void __set_CONTROL(uint32_t control)
  64:C:\Dokumente und Einstellungen\brand\Desktop\thundercyer-the-alarm-clock\CMSIS\Include\core_cmFunc.h **** {
  65:C:\Dokumente und Einstellungen\brand\Desktop\thundercyer-the-alarm-clock\CMSIS\Include\core_cmFunc.h ****   register uint32_t __regControl         __ASM("control");
  66:C:\Dokumente und Einstellungen\brand\Desktop\thundercyer-the-alarm-clock\CMSIS\Include\core_cmFunc.h ****   __regControl = control;
  67:C:\Dokumente und Einstellungen\brand\Desktop\thundercyer-the-alarm-clock\CMSIS\Include\core_cmFunc.h **** }
  68:C:\Dokumente und Einstellungen\brand\Desktop\thundercyer-the-alarm-clock\CMSIS\Include\core_cmFunc.h **** 
  69:C:\Dokumente und Einstellungen\brand\Desktop\thundercyer-the-alarm-clock\CMSIS\Include\core_cmFunc.h **** 
  70:C:\Dokumente und Einstellungen\brand\Desktop\thundercyer-the-alarm-clock\CMSIS\Include\core_cmFunc.h **** /** \brief  Get ISPR Register
  71:C:\Dokumente und Einstellungen\brand\Desktop\thundercyer-the-alarm-clock\CMSIS\Include\core_cmFunc.h **** 
  72:C:\Dokumente und Einstellungen\brand\Desktop\thundercyer-the-alarm-clock\CMSIS\Include\core_cmFunc.h ****     This function returns the content of the ISPR Register.
  73:C:\Dokumente und Einstellungen\brand\Desktop\thundercyer-the-alarm-clock\CMSIS\Include\core_cmFunc.h **** 
  74:C:\Dokumente und Einstellungen\brand\Desktop\thundercyer-the-alarm-clock\CMSIS\Include\core_cmFunc.h ****     \return               ISPR Register value
  75:C:\Dokumente und Einstellungen\brand\Desktop\thundercyer-the-alarm-clock\CMSIS\Include\core_cmFunc.h ****  */
  76:C:\Dokumente und Einstellungen\brand\Desktop\thundercyer-the-alarm-clock\CMSIS\Include\core_cmFunc.h **** static __INLINE uint32_t __get_IPSR(void)
  77:C:\Dokumente und Einstellungen\brand\Desktop\thundercyer-the-alarm-clock\CMSIS\Include\core_cmFunc.h **** {
  78:C:\Dokumente und Einstellungen\brand\Desktop\thundercyer-the-alarm-clock\CMSIS\Include\core_cmFunc.h ****   register uint32_t __regIPSR          __ASM("ipsr");
  79:C:\Dokumente und Einstellungen\brand\Desktop\thundercyer-the-alarm-clock\CMSIS\Include\core_cmFunc.h ****   return(__regIPSR);
  80:C:\Dokumente und Einstellungen\brand\Desktop\thundercyer-the-alarm-clock\CMSIS\Include\core_cmFunc.h **** }
  81:C:\Dokumente und Einstellungen\brand\Desktop\thundercyer-the-alarm-clock\CMSIS\Include\core_cmFunc.h **** 
  82:C:\Dokumente und Einstellungen\brand\Desktop\thundercyer-the-alarm-clock\CMSIS\Include\core_cmFunc.h **** 
  83:C:\Dokumente und Einstellungen\brand\Desktop\thundercyer-the-alarm-clock\CMSIS\Include\core_cmFunc.h **** /** \brief  Get APSR Register
  84:C:\Dokumente und Einstellungen\brand\Desktop\thundercyer-the-alarm-clock\CMSIS\Include\core_cmFunc.h **** 
  85:C:\Dokumente und Einstellungen\brand\Desktop\thundercyer-the-alarm-clock\CMSIS\Include\core_cmFunc.h ****     This function returns the content of the APSR Register.
  86:C:\Dokumente und Einstellungen\brand\Desktop\thundercyer-the-alarm-clock\CMSIS\Include\core_cmFunc.h **** 
  87:C:\Dokumente und Einstellungen\brand\Desktop\thundercyer-the-alarm-clock\CMSIS\Include\core_cmFunc.h ****     \return               APSR Register value
  88:C:\Dokumente und Einstellungen\brand\Desktop\thundercyer-the-alarm-clock\CMSIS\Include\core_cmFunc.h ****  */
  89:C:\Dokumente und Einstellungen\brand\Desktop\thundercyer-the-alarm-clock\CMSIS\Include\core_cmFunc.h **** static __INLINE uint32_t __get_APSR(void)
  90:C:\Dokumente und Einstellungen\brand\Desktop\thundercyer-the-alarm-clock\CMSIS\Include\core_cmFunc.h **** {
  91:C:\Dokumente und Einstellungen\brand\Desktop\thundercyer-the-alarm-clock\CMSIS\Include\core_cmFunc.h ****   register uint32_t __regAPSR          __ASM("apsr");
  92:C:\Dokumente und Einstellungen\brand\Desktop\thundercyer-the-alarm-clock\CMSIS\Include\core_cmFunc.h ****   return(__regAPSR);
  93:C:\Dokumente und Einstellungen\brand\Desktop\thundercyer-the-alarm-clock\CMSIS\Include\core_cmFunc.h **** }
  94:C:\Dokumente und Einstellungen\brand\Desktop\thundercyer-the-alarm-clock\CMSIS\Include\core_cmFunc.h **** 
  95:C:\Dokumente und Einstellungen\brand\Desktop\thundercyer-the-alarm-clock\CMSIS\Include\core_cmFunc.h **** 
  96:C:\Dokumente und Einstellungen\brand\Desktop\thundercyer-the-alarm-clock\CMSIS\Include\core_cmFunc.h **** /** \brief  Get xPSR Register
  97:C:\Dokumente und Einstellungen\brand\Desktop\thundercyer-the-alarm-clock\CMSIS\Include\core_cmFunc.h **** 
  98:C:\Dokumente und Einstellungen\brand\Desktop\thundercyer-the-alarm-clock\CMSIS\Include\core_cmFunc.h ****     This function returns the content of the xPSR Register.
  99:C:\Dokumente und Einstellungen\brand\Desktop\thundercyer-the-alarm-clock\CMSIS\Include\core_cmFunc.h **** 
 100:C:\Dokumente und Einstellungen\brand\Desktop\thundercyer-the-alarm-clock\CMSIS\Include\core_cmFunc.h ****     \return               xPSR Register value
 101:C:\Dokumente und Einstellungen\brand\Desktop\thundercyer-the-alarm-clock\CMSIS\Include\core_cmFunc.h ****  */
 102:C:\Dokumente und Einstellungen\brand\Desktop\thundercyer-the-alarm-clock\CMSIS\Include\core_cmFunc.h **** static __INLINE uint32_t __get_xPSR(void)
 103:C:\Dokumente und Einstellungen\brand\Desktop\thundercyer-the-alarm-clock\CMSIS\Include\core_cmFunc.h **** {
 104:C:\Dokumente und Einstellungen\brand\Desktop\thundercyer-the-alarm-clock\CMSIS\Include\core_cmFunc.h ****   register uint32_t __regXPSR          __ASM("xpsr");
 105:C:\Dokumente und Einstellungen\brand\Desktop\thundercyer-the-alarm-clock\CMSIS\Include\core_cmFunc.h ****   return(__regXPSR);
 106:C:\Dokumente und Einstellungen\brand\Desktop\thundercyer-the-alarm-clock\CMSIS\Include\core_cmFunc.h **** }
 107:C:\Dokumente und Einstellungen\brand\Desktop\thundercyer-the-alarm-clock\CMSIS\Include\core_cmFunc.h **** 
 108:C:\Dokumente und Einstellungen\brand\Desktop\thundercyer-the-alarm-clock\CMSIS\Include\core_cmFunc.h **** 
 109:C:\Dokumente und Einstellungen\brand\Desktop\thundercyer-the-alarm-clock\CMSIS\Include\core_cmFunc.h **** /** \brief  Get Process Stack Pointer
 110:C:\Dokumente und Einstellungen\brand\Desktop\thundercyer-the-alarm-clock\CMSIS\Include\core_cmFunc.h **** 
 111:C:\Dokumente und Einstellungen\brand\Desktop\thundercyer-the-alarm-clock\CMSIS\Include\core_cmFunc.h ****     This function returns the current value of the Process Stack Pointer (PSP).
 112:C:\Dokumente und Einstellungen\brand\Desktop\thundercyer-the-alarm-clock\CMSIS\Include\core_cmFunc.h **** 
 113:C:\Dokumente und Einstellungen\brand\Desktop\thundercyer-the-alarm-clock\CMSIS\Include\core_cmFunc.h ****     \return               PSP Register value
 114:C:\Dokumente und Einstellungen\brand\Desktop\thundercyer-the-alarm-clock\CMSIS\Include\core_cmFunc.h ****  */
 115:C:\Dokumente und Einstellungen\brand\Desktop\thundercyer-the-alarm-clock\CMSIS\Include\core_cmFunc.h **** static __INLINE uint32_t __get_PSP(void)
 116:C:\Dokumente und Einstellungen\brand\Desktop\thundercyer-the-alarm-clock\CMSIS\Include\core_cmFunc.h **** {
 117:C:\Dokumente und Einstellungen\brand\Desktop\thundercyer-the-alarm-clock\CMSIS\Include\core_cmFunc.h ****   register uint32_t __regProcessStackPointer  __ASM("psp");
 118:C:\Dokumente und Einstellungen\brand\Desktop\thundercyer-the-alarm-clock\CMSIS\Include\core_cmFunc.h ****   return(__regProcessStackPointer);
 119:C:\Dokumente und Einstellungen\brand\Desktop\thundercyer-the-alarm-clock\CMSIS\Include\core_cmFunc.h **** }
 120:C:\Dokumente und Einstellungen\brand\Desktop\thundercyer-the-alarm-clock\CMSIS\Include\core_cmFunc.h **** 
 121:C:\Dokumente und Einstellungen\brand\Desktop\thundercyer-the-alarm-clock\CMSIS\Include\core_cmFunc.h **** 
 122:C:\Dokumente und Einstellungen\brand\Desktop\thundercyer-the-alarm-clock\CMSIS\Include\core_cmFunc.h **** /** \brief  Set Process Stack Pointer
 123:C:\Dokumente und Einstellungen\brand\Desktop\thundercyer-the-alarm-clock\CMSIS\Include\core_cmFunc.h **** 
 124:C:\Dokumente und Einstellungen\brand\Desktop\thundercyer-the-alarm-clock\CMSIS\Include\core_cmFunc.h ****     This function assigns the given value to the Process Stack Pointer (PSP).
 125:C:\Dokumente und Einstellungen\brand\Desktop\thundercyer-the-alarm-clock\CMSIS\Include\core_cmFunc.h **** 
 126:C:\Dokumente und Einstellungen\brand\Desktop\thundercyer-the-alarm-clock\CMSIS\Include\core_cmFunc.h ****     \param [in]    topOfProcStack  Process Stack Pointer value to set
 127:C:\Dokumente und Einstellungen\brand\Desktop\thundercyer-the-alarm-clock\CMSIS\Include\core_cmFunc.h ****  */
 128:C:\Dokumente und Einstellungen\brand\Desktop\thundercyer-the-alarm-clock\CMSIS\Include\core_cmFunc.h **** static __INLINE void __set_PSP(uint32_t topOfProcStack)
 129:C:\Dokumente und Einstellungen\brand\Desktop\thundercyer-the-alarm-clock\CMSIS\Include\core_cmFunc.h **** {
 130:C:\Dokumente und Einstellungen\brand\Desktop\thundercyer-the-alarm-clock\CMSIS\Include\core_cmFunc.h ****   register uint32_t __regProcessStackPointer  __ASM("psp");
 131:C:\Dokumente und Einstellungen\brand\Desktop\thundercyer-the-alarm-clock\CMSIS\Include\core_cmFunc.h ****   __regProcessStackPointer = topOfProcStack;
 132:C:\Dokumente und Einstellungen\brand\Desktop\thundercyer-the-alarm-clock\CMSIS\Include\core_cmFunc.h **** }
 133:C:\Dokumente und Einstellungen\brand\Desktop\thundercyer-the-alarm-clock\CMSIS\Include\core_cmFunc.h **** 
 134:C:\Dokumente und Einstellungen\brand\Desktop\thundercyer-the-alarm-clock\CMSIS\Include\core_cmFunc.h **** 
 135:C:\Dokumente und Einstellungen\brand\Desktop\thundercyer-the-alarm-clock\CMSIS\Include\core_cmFunc.h **** /** \brief  Get Main Stack Pointer
 136:C:\Dokumente und Einstellungen\brand\Desktop\thundercyer-the-alarm-clock\CMSIS\Include\core_cmFunc.h **** 
 137:C:\Dokumente und Einstellungen\brand\Desktop\thundercyer-the-alarm-clock\CMSIS\Include\core_cmFunc.h ****     This function returns the current value of the Main Stack Pointer (MSP).
 138:C:\Dokumente und Einstellungen\brand\Desktop\thundercyer-the-alarm-clock\CMSIS\Include\core_cmFunc.h **** 
 139:C:\Dokumente und Einstellungen\brand\Desktop\thundercyer-the-alarm-clock\CMSIS\Include\core_cmFunc.h ****     \return               MSP Register value
 140:C:\Dokumente und Einstellungen\brand\Desktop\thundercyer-the-alarm-clock\CMSIS\Include\core_cmFunc.h ****  */
 141:C:\Dokumente und Einstellungen\brand\Desktop\thundercyer-the-alarm-clock\CMSIS\Include\core_cmFunc.h **** static __INLINE uint32_t __get_MSP(void)
 142:C:\Dokumente und Einstellungen\brand\Desktop\thundercyer-the-alarm-clock\CMSIS\Include\core_cmFunc.h **** {
 143:C:\Dokumente und Einstellungen\brand\Desktop\thundercyer-the-alarm-clock\CMSIS\Include\core_cmFunc.h ****   register uint32_t __regMainStackPointer     __ASM("msp");
 144:C:\Dokumente und Einstellungen\brand\Desktop\thundercyer-the-alarm-clock\CMSIS\Include\core_cmFunc.h ****   return(__regMainStackPointer);
 145:C:\Dokumente und Einstellungen\brand\Desktop\thundercyer-the-alarm-clock\CMSIS\Include\core_cmFunc.h **** }
 146:C:\Dokumente und Einstellungen\brand\Desktop\thundercyer-the-alarm-clock\CMSIS\Include\core_cmFunc.h **** 
 147:C:\Dokumente und Einstellungen\brand\Desktop\thundercyer-the-alarm-clock\CMSIS\Include\core_cmFunc.h **** 
 148:C:\Dokumente und Einstellungen\brand\Desktop\thundercyer-the-alarm-clock\CMSIS\Include\core_cmFunc.h **** /** \brief  Set Main Stack Pointer
 149:C:\Dokumente und Einstellungen\brand\Desktop\thundercyer-the-alarm-clock\CMSIS\Include\core_cmFunc.h **** 
 150:C:\Dokumente und Einstellungen\brand\Desktop\thundercyer-the-alarm-clock\CMSIS\Include\core_cmFunc.h ****     This function assigns the given value to the Main Stack Pointer (MSP).
 151:C:\Dokumente und Einstellungen\brand\Desktop\thundercyer-the-alarm-clock\CMSIS\Include\core_cmFunc.h **** 
 152:C:\Dokumente und Einstellungen\brand\Desktop\thundercyer-the-alarm-clock\CMSIS\Include\core_cmFunc.h ****     \param [in]    topOfMainStack  Main Stack Pointer value to set
 153:C:\Dokumente und Einstellungen\brand\Desktop\thundercyer-the-alarm-clock\CMSIS\Include\core_cmFunc.h ****  */
 154:C:\Dokumente und Einstellungen\brand\Desktop\thundercyer-the-alarm-clock\CMSIS\Include\core_cmFunc.h **** static __INLINE void __set_MSP(uint32_t topOfMainStack)
 155:C:\Dokumente und Einstellungen\brand\Desktop\thundercyer-the-alarm-clock\CMSIS\Include\core_cmFunc.h **** {
 156:C:\Dokumente und Einstellungen\brand\Desktop\thundercyer-the-alarm-clock\CMSIS\Include\core_cmFunc.h ****   register uint32_t __regMainStackPointer     __ASM("msp");
 157:C:\Dokumente und Einstellungen\brand\Desktop\thundercyer-the-alarm-clock\CMSIS\Include\core_cmFunc.h ****   __regMainStackPointer = topOfMainStack;
 158:C:\Dokumente und Einstellungen\brand\Desktop\thundercyer-the-alarm-clock\CMSIS\Include\core_cmFunc.h **** }
 159:C:\Dokumente und Einstellungen\brand\Desktop\thundercyer-the-alarm-clock\CMSIS\Include\core_cmFunc.h **** 
 160:C:\Dokumente und Einstellungen\brand\Desktop\thundercyer-the-alarm-clock\CMSIS\Include\core_cmFunc.h **** 
 161:C:\Dokumente und Einstellungen\brand\Desktop\thundercyer-the-alarm-clock\CMSIS\Include\core_cmFunc.h **** /** \brief  Get Priority Mask
 162:C:\Dokumente und Einstellungen\brand\Desktop\thundercyer-the-alarm-clock\CMSIS\Include\core_cmFunc.h **** 
 163:C:\Dokumente und Einstellungen\brand\Desktop\thundercyer-the-alarm-clock\CMSIS\Include\core_cmFunc.h ****     This function returns the current state of the priority mask bit from the Priority Mask Registe
 164:C:\Dokumente und Einstellungen\brand\Desktop\thundercyer-the-alarm-clock\CMSIS\Include\core_cmFunc.h **** 
 165:C:\Dokumente und Einstellungen\brand\Desktop\thundercyer-the-alarm-clock\CMSIS\Include\core_cmFunc.h ****     \return               Priority Mask value
 166:C:\Dokumente und Einstellungen\brand\Desktop\thundercyer-the-alarm-clock\CMSIS\Include\core_cmFunc.h ****  */
 167:C:\Dokumente und Einstellungen\brand\Desktop\thundercyer-the-alarm-clock\CMSIS\Include\core_cmFunc.h **** static __INLINE uint32_t __get_PRIMASK(void)
 168:C:\Dokumente und Einstellungen\brand\Desktop\thundercyer-the-alarm-clock\CMSIS\Include\core_cmFunc.h **** {
 169:C:\Dokumente und Einstellungen\brand\Desktop\thundercyer-the-alarm-clock\CMSIS\Include\core_cmFunc.h ****   register uint32_t __regPriMask         __ASM("primask");
 170:C:\Dokumente und Einstellungen\brand\Desktop\thundercyer-the-alarm-clock\CMSIS\Include\core_cmFunc.h ****   return(__regPriMask);
 171:C:\Dokumente und Einstellungen\brand\Desktop\thundercyer-the-alarm-clock\CMSIS\Include\core_cmFunc.h **** }
 172:C:\Dokumente und Einstellungen\brand\Desktop\thundercyer-the-alarm-clock\CMSIS\Include\core_cmFunc.h **** 
 173:C:\Dokumente und Einstellungen\brand\Desktop\thundercyer-the-alarm-clock\CMSIS\Include\core_cmFunc.h **** 
 174:C:\Dokumente und Einstellungen\brand\Desktop\thundercyer-the-alarm-clock\CMSIS\Include\core_cmFunc.h **** /** \brief  Set Priority Mask
 175:C:\Dokumente und Einstellungen\brand\Desktop\thundercyer-the-alarm-clock\CMSIS\Include\core_cmFunc.h **** 
 176:C:\Dokumente und Einstellungen\brand\Desktop\thundercyer-the-alarm-clock\CMSIS\Include\core_cmFunc.h ****     This function assigns the given value to the Priority Mask Register.
 177:C:\Dokumente und Einstellungen\brand\Desktop\thundercyer-the-alarm-clock\CMSIS\Include\core_cmFunc.h **** 
 178:C:\Dokumente und Einstellungen\brand\Desktop\thundercyer-the-alarm-clock\CMSIS\Include\core_cmFunc.h ****     \param [in]    priMask  Priority Mask
 179:C:\Dokumente und Einstellungen\brand\Desktop\thundercyer-the-alarm-clock\CMSIS\Include\core_cmFunc.h ****  */
 180:C:\Dokumente und Einstellungen\brand\Desktop\thundercyer-the-alarm-clock\CMSIS\Include\core_cmFunc.h **** static __INLINE void __set_PRIMASK(uint32_t priMask)
 181:C:\Dokumente und Einstellungen\brand\Desktop\thundercyer-the-alarm-clock\CMSIS\Include\core_cmFunc.h **** {
 182:C:\Dokumente und Einstellungen\brand\Desktop\thundercyer-the-alarm-clock\CMSIS\Include\core_cmFunc.h ****   register uint32_t __regPriMask         __ASM("primask");
 183:C:\Dokumente und Einstellungen\brand\Desktop\thundercyer-the-alarm-clock\CMSIS\Include\core_cmFunc.h ****   __regPriMask = (priMask);
 184:C:\Dokumente und Einstellungen\brand\Desktop\thundercyer-the-alarm-clock\CMSIS\Include\core_cmFunc.h **** }
 185:C:\Dokumente und Einstellungen\brand\Desktop\thundercyer-the-alarm-clock\CMSIS\Include\core_cmFunc.h ****  
 186:C:\Dokumente und Einstellungen\brand\Desktop\thundercyer-the-alarm-clock\CMSIS\Include\core_cmFunc.h **** 
 187:C:\Dokumente und Einstellungen\brand\Desktop\thundercyer-the-alarm-clock\CMSIS\Include\core_cmFunc.h **** #if       (__CORTEX_M >= 0x03)
 188:C:\Dokumente und Einstellungen\brand\Desktop\thundercyer-the-alarm-clock\CMSIS\Include\core_cmFunc.h **** 
 189:C:\Dokumente und Einstellungen\brand\Desktop\thundercyer-the-alarm-clock\CMSIS\Include\core_cmFunc.h **** /** \brief  Enable FIQ
 190:C:\Dokumente und Einstellungen\brand\Desktop\thundercyer-the-alarm-clock\CMSIS\Include\core_cmFunc.h **** 
 191:C:\Dokumente und Einstellungen\brand\Desktop\thundercyer-the-alarm-clock\CMSIS\Include\core_cmFunc.h ****     This function enables FIQ interrupts by clearing the F-bit in the CPSR.
 192:C:\Dokumente und Einstellungen\brand\Desktop\thundercyer-the-alarm-clock\CMSIS\Include\core_cmFunc.h ****     Can only be executed in Privileged modes.
 193:C:\Dokumente und Einstellungen\brand\Desktop\thundercyer-the-alarm-clock\CMSIS\Include\core_cmFunc.h ****  */
 194:C:\Dokumente und Einstellungen\brand\Desktop\thundercyer-the-alarm-clock\CMSIS\Include\core_cmFunc.h **** #define __enable_fault_irq                __enable_fiq
 195:C:\Dokumente und Einstellungen\brand\Desktop\thundercyer-the-alarm-clock\CMSIS\Include\core_cmFunc.h **** 
 196:C:\Dokumente und Einstellungen\brand\Desktop\thundercyer-the-alarm-clock\CMSIS\Include\core_cmFunc.h **** 
 197:C:\Dokumente und Einstellungen\brand\Desktop\thundercyer-the-alarm-clock\CMSIS\Include\core_cmFunc.h **** /** \brief  Disable FIQ
 198:C:\Dokumente und Einstellungen\brand\Desktop\thundercyer-the-alarm-clock\CMSIS\Include\core_cmFunc.h **** 
 199:C:\Dokumente und Einstellungen\brand\Desktop\thundercyer-the-alarm-clock\CMSIS\Include\core_cmFunc.h ****     This function disables FIQ interrupts by setting the F-bit in the CPSR.
 200:C:\Dokumente und Einstellungen\brand\Desktop\thundercyer-the-alarm-clock\CMSIS\Include\core_cmFunc.h ****     Can only be executed in Privileged modes.
 201:C:\Dokumente und Einstellungen\brand\Desktop\thundercyer-the-alarm-clock\CMSIS\Include\core_cmFunc.h ****  */
 202:C:\Dokumente und Einstellungen\brand\Desktop\thundercyer-the-alarm-clock\CMSIS\Include\core_cmFunc.h **** #define __disable_fault_irq               __disable_fiq
 203:C:\Dokumente und Einstellungen\brand\Desktop\thundercyer-the-alarm-clock\CMSIS\Include\core_cmFunc.h **** 
 204:C:\Dokumente und Einstellungen\brand\Desktop\thundercyer-the-alarm-clock\CMSIS\Include\core_cmFunc.h **** 
 205:C:\Dokumente und Einstellungen\brand\Desktop\thundercyer-the-alarm-clock\CMSIS\Include\core_cmFunc.h **** /** \brief  Get Base Priority
 206:C:\Dokumente und Einstellungen\brand\Desktop\thundercyer-the-alarm-clock\CMSIS\Include\core_cmFunc.h **** 
 207:C:\Dokumente und Einstellungen\brand\Desktop\thundercyer-the-alarm-clock\CMSIS\Include\core_cmFunc.h ****     This function returns the current value of the Base Priority register.
 208:C:\Dokumente und Einstellungen\brand\Desktop\thundercyer-the-alarm-clock\CMSIS\Include\core_cmFunc.h **** 
 209:C:\Dokumente und Einstellungen\brand\Desktop\thundercyer-the-alarm-clock\CMSIS\Include\core_cmFunc.h ****     \return               Base Priority register value
 210:C:\Dokumente und Einstellungen\brand\Desktop\thundercyer-the-alarm-clock\CMSIS\Include\core_cmFunc.h ****  */
 211:C:\Dokumente und Einstellungen\brand\Desktop\thundercyer-the-alarm-clock\CMSIS\Include\core_cmFunc.h **** static __INLINE uint32_t  __get_BASEPRI(void)
 212:C:\Dokumente und Einstellungen\brand\Desktop\thundercyer-the-alarm-clock\CMSIS\Include\core_cmFunc.h **** {
 213:C:\Dokumente und Einstellungen\brand\Desktop\thundercyer-the-alarm-clock\CMSIS\Include\core_cmFunc.h ****   register uint32_t __regBasePri         __ASM("basepri");
 214:C:\Dokumente und Einstellungen\brand\Desktop\thundercyer-the-alarm-clock\CMSIS\Include\core_cmFunc.h ****   return(__regBasePri);
 215:C:\Dokumente und Einstellungen\brand\Desktop\thundercyer-the-alarm-clock\CMSIS\Include\core_cmFunc.h **** }
 216:C:\Dokumente und Einstellungen\brand\Desktop\thundercyer-the-alarm-clock\CMSIS\Include\core_cmFunc.h **** 
 217:C:\Dokumente und Einstellungen\brand\Desktop\thundercyer-the-alarm-clock\CMSIS\Include\core_cmFunc.h **** 
 218:C:\Dokumente und Einstellungen\brand\Desktop\thundercyer-the-alarm-clock\CMSIS\Include\core_cmFunc.h **** /** \brief  Set Base Priority
 219:C:\Dokumente und Einstellungen\brand\Desktop\thundercyer-the-alarm-clock\CMSIS\Include\core_cmFunc.h **** 
 220:C:\Dokumente und Einstellungen\brand\Desktop\thundercyer-the-alarm-clock\CMSIS\Include\core_cmFunc.h ****     This function assigns the given value to the Base Priority register.
 221:C:\Dokumente und Einstellungen\brand\Desktop\thundercyer-the-alarm-clock\CMSIS\Include\core_cmFunc.h **** 
 222:C:\Dokumente und Einstellungen\brand\Desktop\thundercyer-the-alarm-clock\CMSIS\Include\core_cmFunc.h ****     \param [in]    basePri  Base Priority value to set
 223:C:\Dokumente und Einstellungen\brand\Desktop\thundercyer-the-alarm-clock\CMSIS\Include\core_cmFunc.h ****  */
 224:C:\Dokumente und Einstellungen\brand\Desktop\thundercyer-the-alarm-clock\CMSIS\Include\core_cmFunc.h **** static __INLINE void __set_BASEPRI(uint32_t basePri)
 225:C:\Dokumente und Einstellungen\brand\Desktop\thundercyer-the-alarm-clock\CMSIS\Include\core_cmFunc.h **** {
 226:C:\Dokumente und Einstellungen\brand\Desktop\thundercyer-the-alarm-clock\CMSIS\Include\core_cmFunc.h ****   register uint32_t __regBasePri         __ASM("basepri");
 227:C:\Dokumente und Einstellungen\brand\Desktop\thundercyer-the-alarm-clock\CMSIS\Include\core_cmFunc.h ****   __regBasePri = (basePri & 0xff);
 228:C:\Dokumente und Einstellungen\brand\Desktop\thundercyer-the-alarm-clock\CMSIS\Include\core_cmFunc.h **** }
 229:C:\Dokumente und Einstellungen\brand\Desktop\thundercyer-the-alarm-clock\CMSIS\Include\core_cmFunc.h ****  
 230:C:\Dokumente und Einstellungen\brand\Desktop\thundercyer-the-alarm-clock\CMSIS\Include\core_cmFunc.h **** 
 231:C:\Dokumente und Einstellungen\brand\Desktop\thundercyer-the-alarm-clock\CMSIS\Include\core_cmFunc.h **** /** \brief  Get Fault Mask
 232:C:\Dokumente und Einstellungen\brand\Desktop\thundercyer-the-alarm-clock\CMSIS\Include\core_cmFunc.h **** 
 233:C:\Dokumente und Einstellungen\brand\Desktop\thundercyer-the-alarm-clock\CMSIS\Include\core_cmFunc.h ****     This function returns the current value of the Fault Mask register.
 234:C:\Dokumente und Einstellungen\brand\Desktop\thundercyer-the-alarm-clock\CMSIS\Include\core_cmFunc.h **** 
 235:C:\Dokumente und Einstellungen\brand\Desktop\thundercyer-the-alarm-clock\CMSIS\Include\core_cmFunc.h ****     \return               Fault Mask register value
 236:C:\Dokumente und Einstellungen\brand\Desktop\thundercyer-the-alarm-clock\CMSIS\Include\core_cmFunc.h ****  */
 237:C:\Dokumente und Einstellungen\brand\Desktop\thundercyer-the-alarm-clock\CMSIS\Include\core_cmFunc.h **** static __INLINE uint32_t __get_FAULTMASK(void)
 238:C:\Dokumente und Einstellungen\brand\Desktop\thundercyer-the-alarm-clock\CMSIS\Include\core_cmFunc.h **** {
 239:C:\Dokumente und Einstellungen\brand\Desktop\thundercyer-the-alarm-clock\CMSIS\Include\core_cmFunc.h ****   register uint32_t __regFaultMask       __ASM("faultmask");
 240:C:\Dokumente und Einstellungen\brand\Desktop\thundercyer-the-alarm-clock\CMSIS\Include\core_cmFunc.h ****   return(__regFaultMask);
 241:C:\Dokumente und Einstellungen\brand\Desktop\thundercyer-the-alarm-clock\CMSIS\Include\core_cmFunc.h **** }
 242:C:\Dokumente und Einstellungen\brand\Desktop\thundercyer-the-alarm-clock\CMSIS\Include\core_cmFunc.h **** 
 243:C:\Dokumente und Einstellungen\brand\Desktop\thundercyer-the-alarm-clock\CMSIS\Include\core_cmFunc.h **** 
 244:C:\Dokumente und Einstellungen\brand\Desktop\thundercyer-the-alarm-clock\CMSIS\Include\core_cmFunc.h **** /** \brief  Set Fault Mask
 245:C:\Dokumente und Einstellungen\brand\Desktop\thundercyer-the-alarm-clock\CMSIS\Include\core_cmFunc.h **** 
 246:C:\Dokumente und Einstellungen\brand\Desktop\thundercyer-the-alarm-clock\CMSIS\Include\core_cmFunc.h ****     This function assigns the given value to the Fault Mask register.
 247:C:\Dokumente und Einstellungen\brand\Desktop\thundercyer-the-alarm-clock\CMSIS\Include\core_cmFunc.h **** 
 248:C:\Dokumente und Einstellungen\brand\Desktop\thundercyer-the-alarm-clock\CMSIS\Include\core_cmFunc.h ****     \param [in]    faultMask  Fault Mask value to set
 249:C:\Dokumente und Einstellungen\brand\Desktop\thundercyer-the-alarm-clock\CMSIS\Include\core_cmFunc.h ****  */
 250:C:\Dokumente und Einstellungen\brand\Desktop\thundercyer-the-alarm-clock\CMSIS\Include\core_cmFunc.h **** static __INLINE void __set_FAULTMASK(uint32_t faultMask)
 251:C:\Dokumente und Einstellungen\brand\Desktop\thundercyer-the-alarm-clock\CMSIS\Include\core_cmFunc.h **** {
 252:C:\Dokumente und Einstellungen\brand\Desktop\thundercyer-the-alarm-clock\CMSIS\Include\core_cmFunc.h ****   register uint32_t __regFaultMask       __ASM("faultmask");
 253:C:\Dokumente und Einstellungen\brand\Desktop\thundercyer-the-alarm-clock\CMSIS\Include\core_cmFunc.h ****   __regFaultMask = (faultMask & (uint32_t)1);
 254:C:\Dokumente und Einstellungen\brand\Desktop\thundercyer-the-alarm-clock\CMSIS\Include\core_cmFunc.h **** }
 255:C:\Dokumente und Einstellungen\brand\Desktop\thundercyer-the-alarm-clock\CMSIS\Include\core_cmFunc.h **** 
 256:C:\Dokumente und Einstellungen\brand\Desktop\thundercyer-the-alarm-clock\CMSIS\Include\core_cmFunc.h **** #endif /* (__CORTEX_M >= 0x03) */
 257:C:\Dokumente und Einstellungen\brand\Desktop\thundercyer-the-alarm-clock\CMSIS\Include\core_cmFunc.h **** 
 258:C:\Dokumente und Einstellungen\brand\Desktop\thundercyer-the-alarm-clock\CMSIS\Include\core_cmFunc.h **** 
 259:C:\Dokumente und Einstellungen\brand\Desktop\thundercyer-the-alarm-clock\CMSIS\Include\core_cmFunc.h **** #if       (__CORTEX_M == 0x04)
 260:C:\Dokumente und Einstellungen\brand\Desktop\thundercyer-the-alarm-clock\CMSIS\Include\core_cmFunc.h **** 
 261:C:\Dokumente und Einstellungen\brand\Desktop\thundercyer-the-alarm-clock\CMSIS\Include\core_cmFunc.h **** /** \brief  Get FPSCR
 262:C:\Dokumente und Einstellungen\brand\Desktop\thundercyer-the-alarm-clock\CMSIS\Include\core_cmFunc.h **** 
 263:C:\Dokumente und Einstellungen\brand\Desktop\thundercyer-the-alarm-clock\CMSIS\Include\core_cmFunc.h ****     This function returns the current value of the Floating Point Status/Control register.
 264:C:\Dokumente und Einstellungen\brand\Desktop\thundercyer-the-alarm-clock\CMSIS\Include\core_cmFunc.h **** 
 265:C:\Dokumente und Einstellungen\brand\Desktop\thundercyer-the-alarm-clock\CMSIS\Include\core_cmFunc.h ****     \return               Floating Point Status/Control register value
 266:C:\Dokumente und Einstellungen\brand\Desktop\thundercyer-the-alarm-clock\CMSIS\Include\core_cmFunc.h ****  */
 267:C:\Dokumente und Einstellungen\brand\Desktop\thundercyer-the-alarm-clock\CMSIS\Include\core_cmFunc.h **** static __INLINE uint32_t __get_FPSCR(void)
 268:C:\Dokumente und Einstellungen\brand\Desktop\thundercyer-the-alarm-clock\CMSIS\Include\core_cmFunc.h **** {
 269:C:\Dokumente und Einstellungen\brand\Desktop\thundercyer-the-alarm-clock\CMSIS\Include\core_cmFunc.h **** #if (__FPU_PRESENT == 1) && (__FPU_USED == 1)
 270:C:\Dokumente und Einstellungen\brand\Desktop\thundercyer-the-alarm-clock\CMSIS\Include\core_cmFunc.h ****   register uint32_t __regfpscr         __ASM("fpscr");
 271:C:\Dokumente und Einstellungen\brand\Desktop\thundercyer-the-alarm-clock\CMSIS\Include\core_cmFunc.h ****   return(__regfpscr);
 272:C:\Dokumente und Einstellungen\brand\Desktop\thundercyer-the-alarm-clock\CMSIS\Include\core_cmFunc.h **** #else
 273:C:\Dokumente und Einstellungen\brand\Desktop\thundercyer-the-alarm-clock\CMSIS\Include\core_cmFunc.h ****    return(0);
 274:C:\Dokumente und Einstellungen\brand\Desktop\thundercyer-the-alarm-clock\CMSIS\Include\core_cmFunc.h **** #endif
 275:C:\Dokumente und Einstellungen\brand\Desktop\thundercyer-the-alarm-clock\CMSIS\Include\core_cmFunc.h **** }
 276:C:\Dokumente und Einstellungen\brand\Desktop\thundercyer-the-alarm-clock\CMSIS\Include\core_cmFunc.h **** 
 277:C:\Dokumente und Einstellungen\brand\Desktop\thundercyer-the-alarm-clock\CMSIS\Include\core_cmFunc.h **** 
 278:C:\Dokumente und Einstellungen\brand\Desktop\thundercyer-the-alarm-clock\CMSIS\Include\core_cmFunc.h **** /** \brief  Set FPSCR
 279:C:\Dokumente und Einstellungen\brand\Desktop\thundercyer-the-alarm-clock\CMSIS\Include\core_cmFunc.h **** 
 280:C:\Dokumente und Einstellungen\brand\Desktop\thundercyer-the-alarm-clock\CMSIS\Include\core_cmFunc.h ****     This function assigns the given value to the Floating Point Status/Control register.
 281:C:\Dokumente und Einstellungen\brand\Desktop\thundercyer-the-alarm-clock\CMSIS\Include\core_cmFunc.h **** 
 282:C:\Dokumente und Einstellungen\brand\Desktop\thundercyer-the-alarm-clock\CMSIS\Include\core_cmFunc.h ****     \param [in]    fpscr  Floating Point Status/Control value to set
 283:C:\Dokumente und Einstellungen\brand\Desktop\thundercyer-the-alarm-clock\CMSIS\Include\core_cmFunc.h ****  */
 284:C:\Dokumente und Einstellungen\brand\Desktop\thundercyer-the-alarm-clock\CMSIS\Include\core_cmFunc.h **** static __INLINE void __set_FPSCR(uint32_t fpscr)
 285:C:\Dokumente und Einstellungen\brand\Desktop\thundercyer-the-alarm-clock\CMSIS\Include\core_cmFunc.h **** {
 286:C:\Dokumente und Einstellungen\brand\Desktop\thundercyer-the-alarm-clock\CMSIS\Include\core_cmFunc.h **** #if (__FPU_PRESENT == 1) && (__FPU_USED == 1)
 287:C:\Dokumente und Einstellungen\brand\Desktop\thundercyer-the-alarm-clock\CMSIS\Include\core_cmFunc.h ****   register uint32_t __regfpscr         __ASM("fpscr");
 288:C:\Dokumente und Einstellungen\brand\Desktop\thundercyer-the-alarm-clock\CMSIS\Include\core_cmFunc.h ****   __regfpscr = (fpscr);
 289:C:\Dokumente und Einstellungen\brand\Desktop\thundercyer-the-alarm-clock\CMSIS\Include\core_cmFunc.h **** #endif
 290:C:\Dokumente und Einstellungen\brand\Desktop\thundercyer-the-alarm-clock\CMSIS\Include\core_cmFunc.h **** }
 291:C:\Dokumente und Einstellungen\brand\Desktop\thundercyer-the-alarm-clock\CMSIS\Include\core_cmFunc.h **** 
 292:C:\Dokumente und Einstellungen\brand\Desktop\thundercyer-the-alarm-clock\CMSIS\Include\core_cmFunc.h **** #endif /* (__CORTEX_M == 0x04) */
 293:C:\Dokumente und Einstellungen\brand\Desktop\thundercyer-the-alarm-clock\CMSIS\Include\core_cmFunc.h **** 
 294:C:\Dokumente und Einstellungen\brand\Desktop\thundercyer-the-alarm-clock\CMSIS\Include\core_cmFunc.h **** 
 295:C:\Dokumente und Einstellungen\brand\Desktop\thundercyer-the-alarm-clock\CMSIS\Include\core_cmFunc.h **** #elif defined ( __ICCARM__ ) /*------------------ ICC Compiler -------------------*/
 296:C:\Dokumente und Einstellungen\brand\Desktop\thundercyer-the-alarm-clock\CMSIS\Include\core_cmFunc.h **** /* IAR iccarm specific functions */
 297:C:\Dokumente und Einstellungen\brand\Desktop\thundercyer-the-alarm-clock\CMSIS\Include\core_cmFunc.h **** 
 298:C:\Dokumente und Einstellungen\brand\Desktop\thundercyer-the-alarm-clock\CMSIS\Include\core_cmFunc.h **** #include <cmsis_iar.h>
 299:C:\Dokumente und Einstellungen\brand\Desktop\thundercyer-the-alarm-clock\CMSIS\Include\core_cmFunc.h **** 
 300:C:\Dokumente und Einstellungen\brand\Desktop\thundercyer-the-alarm-clock\CMSIS\Include\core_cmFunc.h **** #elif defined ( __GNUC__ ) /*------------------ GNU Compiler ---------------------*/
 301:C:\Dokumente und Einstellungen\brand\Desktop\thundercyer-the-alarm-clock\CMSIS\Include\core_cmFunc.h **** /* GNU gcc specific functions */
 302:C:\Dokumente und Einstellungen\brand\Desktop\thundercyer-the-alarm-clock\CMSIS\Include\core_cmFunc.h **** 
 303:C:\Dokumente und Einstellungen\brand\Desktop\thundercyer-the-alarm-clock\CMSIS\Include\core_cmFunc.h **** /** \brief  Enable IRQ Interrupts
 304:C:\Dokumente und Einstellungen\brand\Desktop\thundercyer-the-alarm-clock\CMSIS\Include\core_cmFunc.h **** 
 305:C:\Dokumente und Einstellungen\brand\Desktop\thundercyer-the-alarm-clock\CMSIS\Include\core_cmFunc.h ****   This function enables IRQ interrupts by clearing the I-bit in the CPSR.
 306:C:\Dokumente und Einstellungen\brand\Desktop\thundercyer-the-alarm-clock\CMSIS\Include\core_cmFunc.h ****   Can only be executed in Privileged modes.
 307:C:\Dokumente und Einstellungen\brand\Desktop\thundercyer-the-alarm-clock\CMSIS\Include\core_cmFunc.h ****  */
 308:C:\Dokumente und Einstellungen\brand\Desktop\thundercyer-the-alarm-clock\CMSIS\Include\core_cmFunc.h **** __attribute__( ( always_inline ) ) static __INLINE void __enable_irq(void)
 309:C:\Dokumente und Einstellungen\brand\Desktop\thundercyer-the-alarm-clock\CMSIS\Include\core_cmFunc.h **** {
 310:C:\Dokumente und Einstellungen\brand\Desktop\thundercyer-the-alarm-clock\CMSIS\Include\core_cmFunc.h ****   __ASM volatile ("cpsie i");
 311:C:\Dokumente und Einstellungen\brand\Desktop\thundercyer-the-alarm-clock\CMSIS\Include\core_cmFunc.h **** }
 312:C:\Dokumente und Einstellungen\brand\Desktop\thundercyer-the-alarm-clock\CMSIS\Include\core_cmFunc.h **** 
 313:C:\Dokumente und Einstellungen\brand\Desktop\thundercyer-the-alarm-clock\CMSIS\Include\core_cmFunc.h **** 
 314:C:\Dokumente und Einstellungen\brand\Desktop\thundercyer-the-alarm-clock\CMSIS\Include\core_cmFunc.h **** /** \brief  Disable IRQ Interrupts
 315:C:\Dokumente und Einstellungen\brand\Desktop\thundercyer-the-alarm-clock\CMSIS\Include\core_cmFunc.h **** 
 316:C:\Dokumente und Einstellungen\brand\Desktop\thundercyer-the-alarm-clock\CMSIS\Include\core_cmFunc.h ****   This function disables IRQ interrupts by setting the I-bit in the CPSR.
 317:C:\Dokumente und Einstellungen\brand\Desktop\thundercyer-the-alarm-clock\CMSIS\Include\core_cmFunc.h ****   Can only be executed in Privileged modes.
 318:C:\Dokumente und Einstellungen\brand\Desktop\thundercyer-the-alarm-clock\CMSIS\Include\core_cmFunc.h ****  */
 319:C:\Dokumente und Einstellungen\brand\Desktop\thundercyer-the-alarm-clock\CMSIS\Include\core_cmFunc.h **** __attribute__( ( always_inline ) ) static __INLINE void __disable_irq(void)
 320:C:\Dokumente und Einstellungen\brand\Desktop\thundercyer-the-alarm-clock\CMSIS\Include\core_cmFunc.h **** {
 321:C:\Dokumente und Einstellungen\brand\Desktop\thundercyer-the-alarm-clock\CMSIS\Include\core_cmFunc.h ****   __ASM volatile ("cpsid i");
 322:C:\Dokumente und Einstellungen\brand\Desktop\thundercyer-the-alarm-clock\CMSIS\Include\core_cmFunc.h **** }
 323:C:\Dokumente und Einstellungen\brand\Desktop\thundercyer-the-alarm-clock\CMSIS\Include\core_cmFunc.h **** 
 324:C:\Dokumente und Einstellungen\brand\Desktop\thundercyer-the-alarm-clock\CMSIS\Include\core_cmFunc.h **** 
 325:C:\Dokumente und Einstellungen\brand\Desktop\thundercyer-the-alarm-clock\CMSIS\Include\core_cmFunc.h **** /** \brief  Get Control Register
 326:C:\Dokumente und Einstellungen\brand\Desktop\thundercyer-the-alarm-clock\CMSIS\Include\core_cmFunc.h **** 
 327:C:\Dokumente und Einstellungen\brand\Desktop\thundercyer-the-alarm-clock\CMSIS\Include\core_cmFunc.h ****     This function returns the content of the Control Register.
 328:C:\Dokumente und Einstellungen\brand\Desktop\thundercyer-the-alarm-clock\CMSIS\Include\core_cmFunc.h **** 
 329:C:\Dokumente und Einstellungen\brand\Desktop\thundercyer-the-alarm-clock\CMSIS\Include\core_cmFunc.h ****     \return               Control Register value
 330:C:\Dokumente und Einstellungen\brand\Desktop\thundercyer-the-alarm-clock\CMSIS\Include\core_cmFunc.h ****  */
 331:C:\Dokumente und Einstellungen\brand\Desktop\thundercyer-the-alarm-clock\CMSIS\Include\core_cmFunc.h **** __attribute__( ( always_inline ) ) static __INLINE uint32_t __get_CONTROL(void)
 332:C:\Dokumente und Einstellungen\brand\Desktop\thundercyer-the-alarm-clock\CMSIS\Include\core_cmFunc.h **** {
 333:C:\Dokumente und Einstellungen\brand\Desktop\thundercyer-the-alarm-clock\CMSIS\Include\core_cmFunc.h ****   uint32_t result;
 334:C:\Dokumente und Einstellungen\brand\Desktop\thundercyer-the-alarm-clock\CMSIS\Include\core_cmFunc.h **** 
 335:C:\Dokumente und Einstellungen\brand\Desktop\thundercyer-the-alarm-clock\CMSIS\Include\core_cmFunc.h ****   __ASM volatile ("MRS %0, control" : "=r" (result) );
 336:C:\Dokumente und Einstellungen\brand\Desktop\thundercyer-the-alarm-clock\CMSIS\Include\core_cmFunc.h ****   return(result);
 337:C:\Dokumente und Einstellungen\brand\Desktop\thundercyer-the-alarm-clock\CMSIS\Include\core_cmFunc.h **** }
 338:C:\Dokumente und Einstellungen\brand\Desktop\thundercyer-the-alarm-clock\CMSIS\Include\core_cmFunc.h **** 
 339:C:\Dokumente und Einstellungen\brand\Desktop\thundercyer-the-alarm-clock\CMSIS\Include\core_cmFunc.h **** 
 340:C:\Dokumente und Einstellungen\brand\Desktop\thundercyer-the-alarm-clock\CMSIS\Include\core_cmFunc.h **** /** \brief  Set Control Register
 341:C:\Dokumente und Einstellungen\brand\Desktop\thundercyer-the-alarm-clock\CMSIS\Include\core_cmFunc.h **** 
 342:C:\Dokumente und Einstellungen\brand\Desktop\thundercyer-the-alarm-clock\CMSIS\Include\core_cmFunc.h ****     This function writes the given value to the Control Register.
 343:C:\Dokumente und Einstellungen\brand\Desktop\thundercyer-the-alarm-clock\CMSIS\Include\core_cmFunc.h **** 
 344:C:\Dokumente und Einstellungen\brand\Desktop\thundercyer-the-alarm-clock\CMSIS\Include\core_cmFunc.h ****     \param [in]    control  Control Register value to set
 345:C:\Dokumente und Einstellungen\brand\Desktop\thundercyer-the-alarm-clock\CMSIS\Include\core_cmFunc.h ****  */
 346:C:\Dokumente und Einstellungen\brand\Desktop\thundercyer-the-alarm-clock\CMSIS\Include\core_cmFunc.h **** __attribute__( ( always_inline ) ) static __INLINE void __set_CONTROL(uint32_t control)
 347:C:\Dokumente und Einstellungen\brand\Desktop\thundercyer-the-alarm-clock\CMSIS\Include\core_cmFunc.h **** {
 348:C:\Dokumente und Einstellungen\brand\Desktop\thundercyer-the-alarm-clock\CMSIS\Include\core_cmFunc.h ****   __ASM volatile ("MSR control, %0" : : "r" (control) );
 349:C:\Dokumente und Einstellungen\brand\Desktop\thundercyer-the-alarm-clock\CMSIS\Include\core_cmFunc.h **** }
 350:C:\Dokumente und Einstellungen\brand\Desktop\thundercyer-the-alarm-clock\CMSIS\Include\core_cmFunc.h **** 
 351:C:\Dokumente und Einstellungen\brand\Desktop\thundercyer-the-alarm-clock\CMSIS\Include\core_cmFunc.h **** 
 352:C:\Dokumente und Einstellungen\brand\Desktop\thundercyer-the-alarm-clock\CMSIS\Include\core_cmFunc.h **** /** \brief  Get ISPR Register
 353:C:\Dokumente und Einstellungen\brand\Desktop\thundercyer-the-alarm-clock\CMSIS\Include\core_cmFunc.h **** 
 354:C:\Dokumente und Einstellungen\brand\Desktop\thundercyer-the-alarm-clock\CMSIS\Include\core_cmFunc.h ****     This function returns the content of the ISPR Register.
 355:C:\Dokumente und Einstellungen\brand\Desktop\thundercyer-the-alarm-clock\CMSIS\Include\core_cmFunc.h **** 
 356:C:\Dokumente und Einstellungen\brand\Desktop\thundercyer-the-alarm-clock\CMSIS\Include\core_cmFunc.h ****     \return               ISPR Register value
 357:C:\Dokumente und Einstellungen\brand\Desktop\thundercyer-the-alarm-clock\CMSIS\Include\core_cmFunc.h ****  */
 358:C:\Dokumente und Einstellungen\brand\Desktop\thundercyer-the-alarm-clock\CMSIS\Include\core_cmFunc.h **** __attribute__( ( always_inline ) ) static __INLINE uint32_t __get_IPSR(void)
 359:C:\Dokumente und Einstellungen\brand\Desktop\thundercyer-the-alarm-clock\CMSIS\Include\core_cmFunc.h **** {
 360:C:\Dokumente und Einstellungen\brand\Desktop\thundercyer-the-alarm-clock\CMSIS\Include\core_cmFunc.h ****   uint32_t result;
 361:C:\Dokumente und Einstellungen\brand\Desktop\thundercyer-the-alarm-clock\CMSIS\Include\core_cmFunc.h **** 
 362:C:\Dokumente und Einstellungen\brand\Desktop\thundercyer-the-alarm-clock\CMSIS\Include\core_cmFunc.h ****   __ASM volatile ("MRS %0, ipsr" : "=r" (result) );
 363:C:\Dokumente und Einstellungen\brand\Desktop\thundercyer-the-alarm-clock\CMSIS\Include\core_cmFunc.h ****   return(result);
 364:C:\Dokumente und Einstellungen\brand\Desktop\thundercyer-the-alarm-clock\CMSIS\Include\core_cmFunc.h **** }
 365:C:\Dokumente und Einstellungen\brand\Desktop\thundercyer-the-alarm-clock\CMSIS\Include\core_cmFunc.h **** 
 366:C:\Dokumente und Einstellungen\brand\Desktop\thundercyer-the-alarm-clock\CMSIS\Include\core_cmFunc.h **** 
 367:C:\Dokumente und Einstellungen\brand\Desktop\thundercyer-the-alarm-clock\CMSIS\Include\core_cmFunc.h **** /** \brief  Get APSR Register
 368:C:\Dokumente und Einstellungen\brand\Desktop\thundercyer-the-alarm-clock\CMSIS\Include\core_cmFunc.h **** 
 369:C:\Dokumente und Einstellungen\brand\Desktop\thundercyer-the-alarm-clock\CMSIS\Include\core_cmFunc.h ****     This function returns the content of the APSR Register.
 370:C:\Dokumente und Einstellungen\brand\Desktop\thundercyer-the-alarm-clock\CMSIS\Include\core_cmFunc.h **** 
 371:C:\Dokumente und Einstellungen\brand\Desktop\thundercyer-the-alarm-clock\CMSIS\Include\core_cmFunc.h ****     \return               APSR Register value
 372:C:\Dokumente und Einstellungen\brand\Desktop\thundercyer-the-alarm-clock\CMSIS\Include\core_cmFunc.h ****  */
 373:C:\Dokumente und Einstellungen\brand\Desktop\thundercyer-the-alarm-clock\CMSIS\Include\core_cmFunc.h **** __attribute__( ( always_inline ) ) static __INLINE uint32_t __get_APSR(void)
 374:C:\Dokumente und Einstellungen\brand\Desktop\thundercyer-the-alarm-clock\CMSIS\Include\core_cmFunc.h **** {
 375:C:\Dokumente und Einstellungen\brand\Desktop\thundercyer-the-alarm-clock\CMSIS\Include\core_cmFunc.h ****   uint32_t result;
 376:C:\Dokumente und Einstellungen\brand\Desktop\thundercyer-the-alarm-clock\CMSIS\Include\core_cmFunc.h **** 
 377:C:\Dokumente und Einstellungen\brand\Desktop\thundercyer-the-alarm-clock\CMSIS\Include\core_cmFunc.h ****   __ASM volatile ("MRS %0, apsr" : "=r" (result) );
 378:C:\Dokumente und Einstellungen\brand\Desktop\thundercyer-the-alarm-clock\CMSIS\Include\core_cmFunc.h ****   return(result);
 379:C:\Dokumente und Einstellungen\brand\Desktop\thundercyer-the-alarm-clock\CMSIS\Include\core_cmFunc.h **** }
 380:C:\Dokumente und Einstellungen\brand\Desktop\thundercyer-the-alarm-clock\CMSIS\Include\core_cmFunc.h **** 
 381:C:\Dokumente und Einstellungen\brand\Desktop\thundercyer-the-alarm-clock\CMSIS\Include\core_cmFunc.h **** 
 382:C:\Dokumente und Einstellungen\brand\Desktop\thundercyer-the-alarm-clock\CMSIS\Include\core_cmFunc.h **** /** \brief  Get xPSR Register
 383:C:\Dokumente und Einstellungen\brand\Desktop\thundercyer-the-alarm-clock\CMSIS\Include\core_cmFunc.h **** 
 384:C:\Dokumente und Einstellungen\brand\Desktop\thundercyer-the-alarm-clock\CMSIS\Include\core_cmFunc.h ****     This function returns the content of the xPSR Register.
 385:C:\Dokumente und Einstellungen\brand\Desktop\thundercyer-the-alarm-clock\CMSIS\Include\core_cmFunc.h **** 
 386:C:\Dokumente und Einstellungen\brand\Desktop\thundercyer-the-alarm-clock\CMSIS\Include\core_cmFunc.h ****     \return               xPSR Register value
 387:C:\Dokumente und Einstellungen\brand\Desktop\thundercyer-the-alarm-clock\CMSIS\Include\core_cmFunc.h ****  */
 388:C:\Dokumente und Einstellungen\brand\Desktop\thundercyer-the-alarm-clock\CMSIS\Include\core_cmFunc.h **** __attribute__( ( always_inline ) ) static __INLINE uint32_t __get_xPSR(void)
 389:C:\Dokumente und Einstellungen\brand\Desktop\thundercyer-the-alarm-clock\CMSIS\Include\core_cmFunc.h **** {
 390:C:\Dokumente und Einstellungen\brand\Desktop\thundercyer-the-alarm-clock\CMSIS\Include\core_cmFunc.h ****   uint32_t result;
 391:C:\Dokumente und Einstellungen\brand\Desktop\thundercyer-the-alarm-clock\CMSIS\Include\core_cmFunc.h **** 
 392:C:\Dokumente und Einstellungen\brand\Desktop\thundercyer-the-alarm-clock\CMSIS\Include\core_cmFunc.h ****   __ASM volatile ("MRS %0, xpsr" : "=r" (result) );
 393:C:\Dokumente und Einstellungen\brand\Desktop\thundercyer-the-alarm-clock\CMSIS\Include\core_cmFunc.h ****   return(result);
 394:C:\Dokumente und Einstellungen\brand\Desktop\thundercyer-the-alarm-clock\CMSIS\Include\core_cmFunc.h **** }
 395:C:\Dokumente und Einstellungen\brand\Desktop\thundercyer-the-alarm-clock\CMSIS\Include\core_cmFunc.h **** 
 396:C:\Dokumente und Einstellungen\brand\Desktop\thundercyer-the-alarm-clock\CMSIS\Include\core_cmFunc.h **** 
 397:C:\Dokumente und Einstellungen\brand\Desktop\thundercyer-the-alarm-clock\CMSIS\Include\core_cmFunc.h **** /** \brief  Get Process Stack Pointer
 398:C:\Dokumente und Einstellungen\brand\Desktop\thundercyer-the-alarm-clock\CMSIS\Include\core_cmFunc.h **** 
 399:C:\Dokumente und Einstellungen\brand\Desktop\thundercyer-the-alarm-clock\CMSIS\Include\core_cmFunc.h ****     This function returns the current value of the Process Stack Pointer (PSP).
 400:C:\Dokumente und Einstellungen\brand\Desktop\thundercyer-the-alarm-clock\CMSIS\Include\core_cmFunc.h **** 
 401:C:\Dokumente und Einstellungen\brand\Desktop\thundercyer-the-alarm-clock\CMSIS\Include\core_cmFunc.h ****     \return               PSP Register value
 402:C:\Dokumente und Einstellungen\brand\Desktop\thundercyer-the-alarm-clock\CMSIS\Include\core_cmFunc.h ****  */
 403:C:\Dokumente und Einstellungen\brand\Desktop\thundercyer-the-alarm-clock\CMSIS\Include\core_cmFunc.h **** __attribute__( ( always_inline ) ) static __INLINE uint32_t __get_PSP(void)
 404:C:\Dokumente und Einstellungen\brand\Desktop\thundercyer-the-alarm-clock\CMSIS\Include\core_cmFunc.h **** {
 405:C:\Dokumente und Einstellungen\brand\Desktop\thundercyer-the-alarm-clock\CMSIS\Include\core_cmFunc.h ****   register uint32_t result;
 406:C:\Dokumente und Einstellungen\brand\Desktop\thundercyer-the-alarm-clock\CMSIS\Include\core_cmFunc.h **** 
 407:C:\Dokumente und Einstellungen\brand\Desktop\thundercyer-the-alarm-clock\CMSIS\Include\core_cmFunc.h ****   __ASM volatile ("MRS %0, psp\n"  : "=r" (result) );
 408:C:\Dokumente und Einstellungen\brand\Desktop\thundercyer-the-alarm-clock\CMSIS\Include\core_cmFunc.h ****   return(result);
 409:C:\Dokumente und Einstellungen\brand\Desktop\thundercyer-the-alarm-clock\CMSIS\Include\core_cmFunc.h **** }
 410:C:\Dokumente und Einstellungen\brand\Desktop\thundercyer-the-alarm-clock\CMSIS\Include\core_cmFunc.h ****  
 411:C:\Dokumente und Einstellungen\brand\Desktop\thundercyer-the-alarm-clock\CMSIS\Include\core_cmFunc.h **** 
 412:C:\Dokumente und Einstellungen\brand\Desktop\thundercyer-the-alarm-clock\CMSIS\Include\core_cmFunc.h **** /** \brief  Set Process Stack Pointer
 413:C:\Dokumente und Einstellungen\brand\Desktop\thundercyer-the-alarm-clock\CMSIS\Include\core_cmFunc.h **** 
 414:C:\Dokumente und Einstellungen\brand\Desktop\thundercyer-the-alarm-clock\CMSIS\Include\core_cmFunc.h ****     This function assigns the given value to the Process Stack Pointer (PSP).
 415:C:\Dokumente und Einstellungen\brand\Desktop\thundercyer-the-alarm-clock\CMSIS\Include\core_cmFunc.h **** 
 416:C:\Dokumente und Einstellungen\brand\Desktop\thundercyer-the-alarm-clock\CMSIS\Include\core_cmFunc.h ****     \param [in]    topOfProcStack  Process Stack Pointer value to set
 417:C:\Dokumente und Einstellungen\brand\Desktop\thundercyer-the-alarm-clock\CMSIS\Include\core_cmFunc.h ****  */
 418:C:\Dokumente und Einstellungen\brand\Desktop\thundercyer-the-alarm-clock\CMSIS\Include\core_cmFunc.h **** __attribute__( ( always_inline ) ) static __INLINE void __set_PSP(uint32_t topOfProcStack)
 419:C:\Dokumente und Einstellungen\brand\Desktop\thundercyer-the-alarm-clock\CMSIS\Include\core_cmFunc.h **** {
 420:C:\Dokumente und Einstellungen\brand\Desktop\thundercyer-the-alarm-clock\CMSIS\Include\core_cmFunc.h ****   __ASM volatile ("MSR psp, %0\n" : : "r" (topOfProcStack) );
 421:C:\Dokumente und Einstellungen\brand\Desktop\thundercyer-the-alarm-clock\CMSIS\Include\core_cmFunc.h **** }
 422:C:\Dokumente und Einstellungen\brand\Desktop\thundercyer-the-alarm-clock\CMSIS\Include\core_cmFunc.h **** 
 423:C:\Dokumente und Einstellungen\brand\Desktop\thundercyer-the-alarm-clock\CMSIS\Include\core_cmFunc.h **** 
 424:C:\Dokumente und Einstellungen\brand\Desktop\thundercyer-the-alarm-clock\CMSIS\Include\core_cmFunc.h **** /** \brief  Get Main Stack Pointer
 425:C:\Dokumente und Einstellungen\brand\Desktop\thundercyer-the-alarm-clock\CMSIS\Include\core_cmFunc.h **** 
 426:C:\Dokumente und Einstellungen\brand\Desktop\thundercyer-the-alarm-clock\CMSIS\Include\core_cmFunc.h ****     This function returns the current value of the Main Stack Pointer (MSP).
 427:C:\Dokumente und Einstellungen\brand\Desktop\thundercyer-the-alarm-clock\CMSIS\Include\core_cmFunc.h **** 
 428:C:\Dokumente und Einstellungen\brand\Desktop\thundercyer-the-alarm-clock\CMSIS\Include\core_cmFunc.h ****     \return               MSP Register value
 429:C:\Dokumente und Einstellungen\brand\Desktop\thundercyer-the-alarm-clock\CMSIS\Include\core_cmFunc.h ****  */
 430:C:\Dokumente und Einstellungen\brand\Desktop\thundercyer-the-alarm-clock\CMSIS\Include\core_cmFunc.h **** __attribute__( ( always_inline ) ) static __INLINE uint32_t __get_MSP(void)
 431:C:\Dokumente und Einstellungen\brand\Desktop\thundercyer-the-alarm-clock\CMSIS\Include\core_cmFunc.h **** {
 432:C:\Dokumente und Einstellungen\brand\Desktop\thundercyer-the-alarm-clock\CMSIS\Include\core_cmFunc.h ****   register uint32_t result;
 433:C:\Dokumente und Einstellungen\brand\Desktop\thundercyer-the-alarm-clock\CMSIS\Include\core_cmFunc.h **** 
 434:C:\Dokumente und Einstellungen\brand\Desktop\thundercyer-the-alarm-clock\CMSIS\Include\core_cmFunc.h ****   __ASM volatile ("MRS %0, msp\n" : "=r" (result) );
 350              		.loc 2 434 0
 351              	@ 434 "C:\Dokumente und Einstellungen\brand\Desktop\thundercyer-the-alarm-clock\CMSIS\Include/core_
 352 012c EFF30884 		MRS r4, msp
 353              	
 354              	@ 0 "" 2
 435:C:\Dokumente und Einstellungen\brand\Desktop\thundercyer-the-alarm-clock\CMSIS\Include\core_cmFunc.h ****   return(result);
 355              		.loc 2 435 0
 356              		.thumb
 357 0130 2346     		mov	r3, r4
 358              		.loc 1 80 0
 359 0132 1946     		mov	r1, r3
 360              	.LBE5:
 361              	.LBE4:
 362 0134 40F20003 		movw	r3, #:lower16:__malloc_margin
 363 0138 C0F20003 		movt	r3, #:upper16:__malloc_margin
 364 013c 1B68     		ldr	r3, [r3, #0]
 365 013e CB1A     		subs	r3, r1, r3
 366 0140 9A42     		cmp	r2, r3
 367 0142 06D9     		bls	.L13
  81:../syscalls.c ****         r->_errno = ENOMEM;
 368              		.loc 1 81 0
 369 0144 7B68     		ldr	r3, [r7, #4]
 370 0146 4FF00C02 		mov	r2, #12
 371 014a 1A60     		str	r2, [r3, #0]
  82:../syscalls.c ****         return (void*)-1;
 372              		.loc 1 82 0
 373 014c 4FF0FF33 		mov	r3, #-1
 374 0150 12E0     		b	.L14
 375              	.L13:
  83:../syscalls.c ****     }
  84:../syscalls.c **** 
  85:../syscalls.c ****     void *ret = __brkval;
 376              		.loc 1 85 0
 377 0152 40F20003 		movw	r3, #:lower16:__brkval
 378 0156 C0F20003 		movt	r3, #:upper16:__brkval
 379 015a 1B68     		ldr	r3, [r3, #0]
 380 015c FB60     		str	r3, [r7, #12]
  86:../syscalls.c ****     __brkval += incr;
 381              		.loc 1 86 0
 382 015e 40F20003 		movw	r3, #:lower16:__brkval
 383 0162 C0F20003 		movt	r3, #:upper16:__brkval
 384 0166 1A68     		ldr	r2, [r3, #0]
 385 0168 3B68     		ldr	r3, [r7, #0]
 386 016a D218     		adds	r2, r2, r3
 387 016c 40F20003 		movw	r3, #:lower16:__brkval
 388 0170 C0F20003 		movt	r3, #:upper16:__brkval
 389 0174 1A60     		str	r2, [r3, #0]
  87:../syscalls.c **** 
  88:../syscalls.c ****     return ret;
 390              		.loc 1 88 0
 391 0176 FB68     		ldr	r3, [r7, #12]
 392              	.L14:
  89:../syscalls.c **** }
 393              		.loc 1 89 0
 394 0178 1846     		mov	r0, r3
 395 017a 07F11007 		add	r7, r7, #16
 396 017e BD46     		mov	sp, r7
 397 0180 90BC     		pop	{r4, r7}
 398 0182 7047     		bx	lr
 399              		.cfi_endproc
 400              	.LFE117:
 402              		.align	2
 403              		.global	_kill_r
 404              		.thumb
 405              		.thumb_func
 407              	_kill_r:
 408              	.LFB118:
  90:../syscalls.c **** 
  91:../syscalls.c **** 
  92:../syscalls.c **** int _kill_r(struct _reent *r, int pid, int signal)
  93:../syscalls.c **** {
 409              		.loc 1 93 0
 410              		.cfi_startproc
 411              		@ args = 0, pretend = 0, frame = 16
 412              		@ frame_needed = 1, uses_anonymous_args = 0
 413              		@ link register save eliminated.
 414 0184 80B4     		push	{r7}
 415              	.LCFI24:
 416              		.cfi_def_cfa_offset 4
 417              		.cfi_offset 7, -4
 418 0186 85B0     		sub	sp, sp, #20
 419              	.LCFI25:
 420              		.cfi_def_cfa_offset 24
 421 0188 00AF     		add	r7, sp, #0
 422              	.LCFI26:
 423              		.cfi_def_cfa_register 7
 424 018a F860     		str	r0, [r7, #12]
 425 018c B960     		str	r1, [r7, #8]
 426 018e 7A60     		str	r2, [r7, #4]
  94:../syscalls.c ****     r->_errno = ENOSYS;
 427              		.loc 1 94 0
 428 0190 FB68     		ldr	r3, [r7, #12]
 429 0192 4FF05802 		mov	r2, #88
 430 0196 1A60     		str	r2, [r3, #0]
  95:../syscalls.c ****     return -1;
 431              		.loc 1 95 0
 432 0198 4FF0FF33 		mov	r3, #-1
  96:../syscalls.c **** }
 433              		.loc 1 96 0
 434 019c 1846     		mov	r0, r3
 435 019e 07F11407 		add	r7, r7, #20
 436 01a2 BD46     		mov	sp, r7
 437 01a4 80BC     		pop	{r7}
 438 01a6 7047     		bx	lr
 439              		.cfi_endproc
 440              	.LFE118:
 442              		.align	2
 443              		.global	_getpid_r
 444              		.thumb
 445              		.thumb_func
 447              	_getpid_r:
 448              	.LFB119:
  97:../syscalls.c **** 
  98:../syscalls.c **** 
  99:../syscalls.c **** int _getpid_r(struct _reent *r)
 100:../syscalls.c **** {
 449              		.loc 1 100 0
 450              		.cfi_startproc
 451              		@ args = 0, pretend = 0, frame = 8
 452              		@ frame_needed = 1, uses_anonymous_args = 0
 453              		@ link register save eliminated.
 454 01a8 80B4     		push	{r7}
 455              	.LCFI27:
 456              		.cfi_def_cfa_offset 4
 457              		.cfi_offset 7, -4
 458 01aa 83B0     		sub	sp, sp, #12
 459              	.LCFI28:
 460              		.cfi_def_cfa_offset 16
 461 01ac 00AF     		add	r7, sp, #0
 462              	.LCFI29:
 463              		.cfi_def_cfa_register 7
 464 01ae 7860     		str	r0, [r7, #4]
 101:../syscalls.c ****     r->_errno = ENOSYS;
 465              		.loc 1 101 0
 466 01b0 7B68     		ldr	r3, [r7, #4]
 467 01b2 4FF05802 		mov	r2, #88
 468 01b6 1A60     		str	r2, [r3, #0]
 102:../syscalls.c ****     return -1;
 469              		.loc 1 102 0
 470 01b8 4FF0FF33 		mov	r3, #-1
 103:../syscalls.c **** }
 471              		.loc 1 103 0
 472 01bc 1846     		mov	r0, r3
 473 01be 07F10C07 		add	r7, r7, #12
 474 01c2 BD46     		mov	sp, r7
 475 01c4 80BC     		pop	{r7}
 476 01c6 7047     		bx	lr
 477              		.cfi_endproc
 478              	.LFE119:
 480              		.align	2
 481              		.global	__malloc_lock
 482              		.thumb
 483              		.thumb_func
 485              	__malloc_lock:
 486              	.LFB120:
 104:../syscalls.c **** 
 105:../syscalls.c **** 
 106:../syscalls.c **** void __malloc_lock(struct _reent *r)
 107:../syscalls.c **** {
 487              		.loc 1 107 0
 488              		.cfi_startproc
 489              		@ args = 0, pretend = 0, frame = 8
 490              		@ frame_needed = 1, uses_anonymous_args = 0
 491 01c8 80B5     		push	{r7, lr}
 492              	.LCFI30:
 493              		.cfi_def_cfa_offset 8
 494              		.cfi_offset 14, -4
 495              		.cfi_offset 7, -8
 496 01ca 82B0     		sub	sp, sp, #8
 497              	.LCFI31:
 498              		.cfi_def_cfa_offset 16
 499 01cc 00AF     		add	r7, sp, #0
 500              	.LCFI32:
 501              		.cfi_def_cfa_register 7
 502 01ce 7860     		str	r0, [r7, #4]
 108:../syscalls.c ****     vPortEnterCritical();
 503              		.loc 1 108 0
 504 01d0 FFF7FEFF 		bl	vPortEnterCritical
 109:../syscalls.c **** }
 505              		.loc 1 109 0
 506 01d4 07F10807 		add	r7, r7, #8
 507 01d8 BD46     		mov	sp, r7
 508 01da 80BD     		pop	{r7, pc}
 509              		.cfi_endproc
 510              	.LFE120:
 512              		.align	2
 513              		.global	__malloc_unlock
 514              		.thumb
 515              		.thumb_func
 517              	__malloc_unlock:
 518              	.LFB121:
 110:../syscalls.c **** 
 111:../syscalls.c **** 
 112:../syscalls.c **** void __malloc_unlock(struct _reent *r)
 113:../syscalls.c **** {
 519              		.loc 1 113 0
 520              		.cfi_startproc
 521              		@ args = 0, pretend = 0, frame = 8
 522              		@ frame_needed = 1, uses_anonymous_args = 0
 523 01dc 80B5     		push	{r7, lr}
 524              	.LCFI33:
 525              		.cfi_def_cfa_offset 8
 526              		.cfi_offset 14, -4
 527              		.cfi_offset 7, -8
 528 01de 82B0     		sub	sp, sp, #8
 529              	.LCFI34:
 530              		.cfi_def_cfa_offset 16
 531 01e0 00AF     		add	r7, sp, #0
 532              	.LCFI35:
 533              		.cfi_def_cfa_register 7
 534 01e2 7860     		str	r0, [r7, #4]
 114:../syscalls.c ****     vPortExitCritical();
 535              		.loc 1 114 0
 536 01e4 FFF7FEFF 		bl	vPortExitCritical
 115:../syscalls.c **** }
 537              		.loc 1 115 0
 538 01e8 07F10807 		add	r7, r7, #8
 539 01ec BD46     		mov	sp, r7
 540 01ee 80BD     		pop	{r7, pc}
 541              		.cfi_endproc
 542              	.LFE121:
 544              	.Letext0:
 545              		.file 3 "d:/elektronik/ides/eclipse/yagarto/lib/gcc/../../arm-none-eabi/sys-include/sys/lock.h"
 546              		.file 4 "d:/elektronik/ides/eclipse/yagarto/lib/gcc/../../arm-none-eabi/sys-include/sys/_types.h"
 547              		.file 5 "d:\\elektronik\\ides\\eclipse\\yagarto\\bin\\../lib/gcc/arm-none-eabi/4.6.2/include/stdde
 548              		.file 6 "d:/elektronik/ides/eclipse/yagarto/lib/gcc/../../arm-none-eabi/sys-include/sys/reent.h"
 549              		.file 7 "d:/elektronik/ides/eclipse/yagarto/lib/gcc/../../arm-none-eabi/sys-include/stdint.h"
 550              		.file 8 "d:/elektronik/ides/eclipse/yagarto/lib/gcc/../../arm-none-eabi/sys-include/sys/types.h"
 551              		.file 9 "d:/elektronik/ides/eclipse/yagarto/lib/gcc/../../arm-none-eabi/sys-include/sys/stat.h"
 552              		.file 10 "d:/elektronik/ides/eclipse/yagarto/lib/gcc/../../arm-none-eabi/sys-include/reent.h"
 553              		.file 11 "d:/elektronik/ides/eclipse/yagarto/lib/gcc/../../arm-none-eabi/sys-include/sys/unistd.h"
 554              		.file 12 "C:\\Dokumente und Einstellungen\\brand\\Desktop\\thundercyer-the-alarm-clock\\CMSIS\\Inc
DEFINED SYMBOLS
                            *ABS*:00000000 syscalls.c
  C:\Temp\ccuJyBLm.s:23     .data.__malloc_margin:00000000 __malloc_margin
  C:\Temp\ccuJyBLm.s:20     .data.__malloc_margin:00000000 $d
                            *COM*:00000004 __brkval
  C:\Temp\ccuJyBLm.s:27     .text:00000000 $t
  C:\Temp\ccuJyBLm.s:32     .text:00000000 _exit
  C:\Temp\ccuJyBLm.s:62     .text:0000000c _read_r
  C:\Temp\ccuJyBLm.s:99     .text:0000002c _write_r
  C:\Temp\ccuJyBLm.s:136    .text:0000004c _lseek_r
  C:\Temp\ccuJyBLm.s:177    .text:00000074 _close_r
  C:\Temp\ccuJyBLm.s:216    .text:00000098 _fstat_r
  C:\Temp\ccuJyBLm.s:273    .text:000000d8 _isatty_r
  C:\Temp\ccuJyBLm.s:308    .text:000000f4 _sbrk_r
  C:\Temp\ccuJyBLm.s:407    .text:00000184 _kill_r
  C:\Temp\ccuJyBLm.s:447    .text:000001a8 _getpid_r
  C:\Temp\ccuJyBLm.s:485    .text:000001c8 __malloc_lock
  C:\Temp\ccuJyBLm.s:517    .text:000001dc __malloc_unlock
                     .debug_frame:00000010 $d

UNDEFINED SYMBOLS
end
vPortEnterCritical
vPortExitCritical
