Archive member included because of file (symbol)

d:/elektronik/ides/chibistudio/tools/gnu tools arm embedded/4.6 2012q2/bin/../lib/gcc/arm-none-eabi/4.6.2/../../../../arm-none-eabi/lib/armv7e-m\libstdc++.a(atexit_arm.o)
                              ./main.o (__aeabi_atexit)
d:/elektronik/ides/chibistudio/tools/gnu tools arm embedded/4.6 2012q2/bin/../lib/gcc/arm-none-eabi/4.6.2/../../../../arm-none-eabi/lib/armv7e-m\libg.a(lib_a-assert.o)
                              ./FreeRTOS_EC/Source/ASyncObject.o (__assert_func)
d:/elektronik/ides/chibistudio/tools/gnu tools arm embedded/4.6 2012q2/bin/../lib/gcc/arm-none-eabi/4.6.2/../../../../arm-none-eabi/lib/armv7e-m\libg.a(lib_a-atexit.o)
                              d:/elektronik/ides/chibistudio/tools/gnu tools arm embedded/4.6 2012q2/bin/../lib/gcc/arm-none-eabi/4.6.2/../../../../arm-none-eabi/lib/armv7e-m/crt0.o (atexit)
d:/elektronik/ides/chibistudio/tools/gnu tools arm embedded/4.6 2012q2/bin/../lib/gcc/arm-none-eabi/4.6.2/../../../../arm-none-eabi/lib/armv7e-m\libg.a(lib_a-cxa_atexit.o)
                              d:/elektronik/ides/chibistudio/tools/gnu tools arm embedded/4.6 2012q2/bin/../lib/gcc/arm-none-eabi/4.6.2/../../../../arm-none-eabi/lib/armv7e-m\libstdc++.a(atexit_arm.o) (__cxa_atexit)
d:/elektronik/ides/chibistudio/tools/gnu tools arm embedded/4.6 2012q2/bin/../lib/gcc/arm-none-eabi/4.6.2/../../../../arm-none-eabi/lib/armv7e-m\libg.a(lib_a-exit.o)
                              d:/elektronik/ides/chibistudio/tools/gnu tools arm embedded/4.6 2012q2/bin/../lib/gcc/arm-none-eabi/4.6.2/../../../../arm-none-eabi/lib/armv7e-m/crt0.o (exit)
d:/elektronik/ides/chibistudio/tools/gnu tools arm embedded/4.6 2012q2/bin/../lib/gcc/arm-none-eabi/4.6.2/../../../../arm-none-eabi/lib/armv7e-m\libg.a(lib_a-fini.o)
                              d:/elektronik/ides/chibistudio/tools/gnu tools arm embedded/4.6 2012q2/bin/../lib/gcc/arm-none-eabi/4.6.2/../../../../arm-none-eabi/lib/armv7e-m/crt0.o (__libc_fini_array)
d:/elektronik/ides/chibistudio/tools/gnu tools arm embedded/4.6 2012q2/bin/../lib/gcc/arm-none-eabi/4.6.2/../../../../arm-none-eabi/lib/armv7e-m\libg.a(lib_a-fiprintf.o)
                              d:/elektronik/ides/chibistudio/tools/gnu tools arm embedded/4.6 2012q2/bin/../lib/gcc/arm-none-eabi/4.6.2/../../../../arm-none-eabi/lib/armv7e-m\libg.a(lib_a-assert.o) (fiprintf)
d:/elektronik/ides/chibistudio/tools/gnu tools arm embedded/4.6 2012q2/bin/../lib/gcc/arm-none-eabi/4.6.2/../../../../arm-none-eabi/lib/armv7e-m\libg.a(lib_a-gmtime.o)
                              ./Clock/CRTCTime.o (gmtime)
d:/elektronik/ides/chibistudio/tools/gnu tools arm embedded/4.6 2012q2/bin/../lib/gcc/arm-none-eabi/4.6.2/../../../../arm-none-eabi/lib/armv7e-m\libg.a(lib_a-gmtime_r.o)
                              d:/elektronik/ides/chibistudio/tools/gnu tools arm embedded/4.6 2012q2/bin/../lib/gcc/arm-none-eabi/4.6.2/../../../../arm-none-eabi/lib/armv7e-m\libg.a(lib_a-gmtime.o) (gmtime_r)
d:/elektronik/ides/chibistudio/tools/gnu tools arm embedded/4.6 2012q2/bin/../lib/gcc/arm-none-eabi/4.6.2/../../../../arm-none-eabi/lib/armv7e-m\libg.a(lib_a-impure.o)
                              d:/elektronik/ides/chibistudio/tools/gnu tools arm embedded/4.6 2012q2/bin/../lib/gcc/arm-none-eabi/4.6.2/../../../../arm-none-eabi/lib/armv7e-m\libg.a(lib_a-exit.o) (_global_impure_ptr)
d:/elektronik/ides/chibistudio/tools/gnu tools arm embedded/4.6 2012q2/bin/../lib/gcc/arm-none-eabi/4.6.2/../../../../arm-none-eabi/lib/armv7e-m\libg.a(lib_a-init.o)
                              d:/elektronik/ides/chibistudio/tools/gnu tools arm embedded/4.6 2012q2/bin/../lib/gcc/arm-none-eabi/4.6.2/../../../../arm-none-eabi/lib/armv7e-m/crt0.o (__libc_init_array)
d:/elektronik/ides/chibistudio/tools/gnu tools arm embedded/4.6 2012q2/bin/../lib/gcc/arm-none-eabi/4.6.2/../../../../arm-none-eabi/lib/armv7e-m\libg.a(lib_a-malloc.o)
                              ./FreeRTOS/Source/croutine.o (malloc)
d:/elektronik/ides/chibistudio/tools/gnu tools arm embedded/4.6 2012q2/bin/../lib/gcc/arm-none-eabi/4.6.2/../../../../arm-none-eabi/lib/armv7e-m\libg.a(lib_a-mallocr.o)
                              d:/elektronik/ides/chibistudio/tools/gnu tools arm embedded/4.6 2012q2/bin/../lib/gcc/arm-none-eabi/4.6.2/../../../../arm-none-eabi/lib/armv7e-m\libg.a(lib_a-malloc.o) (_malloc_r)
d:/elektronik/ides/chibistudio/tools/gnu tools arm embedded/4.6 2012q2/bin/../lib/gcc/arm-none-eabi/4.6.2/../../../../arm-none-eabi/lib/armv7e-m\libg.a(lib_a-memcpy.o)
                              ./HelixMP3/mp3dec.o (memcpy)
d:/elektronik/ides/chibistudio/tools/gnu tools arm embedded/4.6 2012q2/bin/../lib/gcc/arm-none-eabi/4.6.2/../../../../arm-none-eabi/lib/armv7e-m\libg.a(lib_a-memmove.o)
                              ./HelixMP3/mp3dec.o (memmove)
d:/elektronik/ides/chibistudio/tools/gnu tools arm embedded/4.6 2012q2/bin/../lib/gcc/arm-none-eabi/4.6.2/../../../../arm-none-eabi/lib/armv7e-m\libg.a(lib_a-memset.o)
                              d:/elektronik/ides/chibistudio/tools/gnu tools arm embedded/4.6 2012q2/bin/../lib/gcc/arm-none-eabi/4.6.2/../../../../arm-none-eabi/lib/armv7e-m/crt0.o (memset)
d:/elektronik/ides/chibistudio/tools/gnu tools arm embedded/4.6 2012q2/bin/../lib/gcc/arm-none-eabi/4.6.2/../../../../arm-none-eabi/lib/armv7e-m\libg.a(lib_a-mktime.o)
                              ./Clock/CRTCTime.o (mktime)
d:/elektronik/ides/chibistudio/tools/gnu tools arm embedded/4.6 2012q2/bin/../lib/gcc/arm-none-eabi/4.6.2/../../../../arm-none-eabi/lib/armv7e-m\libg.a(lib_a-mktm_r.o)
                              d:/elektronik/ides/chibistudio/tools/gnu tools arm embedded/4.6 2012q2/bin/../lib/gcc/arm-none-eabi/4.6.2/../../../../arm-none-eabi/lib/armv7e-m\libg.a(lib_a-mktime.o) (__tzcalc_limits)
d:/elektronik/ides/chibistudio/tools/gnu tools arm embedded/4.6 2012q2/bin/../lib/gcc/arm-none-eabi/4.6.2/../../../../arm-none-eabi/lib/armv7e-m\libg.a(lib_a-sbrkr.o)
                              d:/elektronik/ides/chibistudio/tools/gnu tools arm embedded/4.6 2012q2/bin/../lib/gcc/arm-none-eabi/4.6.2/../../../../arm-none-eabi/lib/armv7e-m\libg.a(lib_a-mallocr.o) (_sbrk_r)
d:/elektronik/ides/chibistudio/tools/gnu tools arm embedded/4.6 2012q2/bin/../lib/gcc/arm-none-eabi/4.6.2/../../../../arm-none-eabi/lib/armv7e-m\libg.a(lib_a-sprintf.o)
                              ./Menue/CMenue.o (sprintf)
d:/elektronik/ides/chibistudio/tools/gnu tools arm embedded/4.6 2012q2/bin/../lib/gcc/arm-none-eabi/4.6.2/../../../../arm-none-eabi/lib/armv7e-m\libg.a(lib_a-strcat.o)
                              ./FreeRTOS/Source/tasks.o (strcat)
d:/elektronik/ides/chibistudio/tools/gnu tools arm embedded/4.6 2012q2/bin/../lib/gcc/arm-none-eabi/4.6.2/../../../../arm-none-eabi/lib/armv7e-m\libg.a(lib_a-strcpy.o)
                              ./Audio_MP3/CFileHandler.o (strcpy)
d:/elektronik/ides/chibistudio/tools/gnu tools arm embedded/4.6 2012q2/bin/../lib/gcc/arm-none-eabi/4.6.2/../../../../arm-none-eabi/lib/armv7e-m\libg.a(lib_a-strftime.o)
                              ./Clock/CTime.o (strftime)
d:/elektronik/ides/chibistudio/tools/gnu tools arm embedded/4.6 2012q2/bin/../lib/gcc/arm-none-eabi/4.6.2/../../../../arm-none-eabi/lib/armv7e-m\libg.a(lib_a-strlen.o)
                              ./FreeRTOS/Source/tasks.o (strlen)
d:/elektronik/ides/chibistudio/tools/gnu tools arm embedded/4.6 2012q2/bin/../lib/gcc/arm-none-eabi/4.6.2/../../../../arm-none-eabi/lib/armv7e-m\libg.a(lib_a-strncpy.o)
                              ./FreeRTOS/Source/tasks.o (strncpy)
d:/elektronik/ides/chibistudio/tools/gnu tools arm embedded/4.6 2012q2/bin/../lib/gcc/arm-none-eabi/4.6.2/../../../../arm-none-eabi/lib/armv7e-m\libg.a(lib_a-strtoul.o)
                              d:/elektronik/ides/chibistudio/tools/gnu tools arm embedded/4.6 2012q2/bin/../lib/gcc/arm-none-eabi/4.6.2/../../../../arm-none-eabi/lib/armv7e-m\libg.a(lib_a-strftime.o) (strtoul)
d:/elektronik/ides/chibistudio/tools/gnu tools arm embedded/4.6 2012q2/bin/../lib/gcc/arm-none-eabi/4.6.2/../../../../arm-none-eabi/lib/armv7e-m\libg.a(lib_a-svfprintf.o)
                              d:/elektronik/ides/chibistudio/tools/gnu tools arm embedded/4.6 2012q2/bin/../lib/gcc/arm-none-eabi/4.6.2/../../../../arm-none-eabi/lib/armv7e-m\libg.a(lib_a-sprintf.o) (_svfprintf_r)
d:/elektronik/ides/chibistudio/tools/gnu tools arm embedded/4.6 2012q2/bin/../lib/gcc/arm-none-eabi/4.6.2/../../../../arm-none-eabi/lib/armv7e-m\libg.a(lib_a-timelocal.o)
                              d:/elektronik/ides/chibistudio/tools/gnu tools arm embedded/4.6 2012q2/bin/../lib/gcc/arm-none-eabi/4.6.2/../../../../arm-none-eabi/lib/armv7e-m\libg.a(lib_a-strftime.o) (__get_current_time_locale)
d:/elektronik/ides/chibistudio/tools/gnu tools arm embedded/4.6 2012q2/bin/../lib/gcc/arm-none-eabi/4.6.2/../../../../arm-none-eabi/lib/armv7e-m\libg.a(lib_a-toupper.o)
                              ./Audio_MP3/CFileHandler.o (toupper)
d:/elektronik/ides/chibistudio/tools/gnu tools arm embedded/4.6 2012q2/bin/../lib/gcc/arm-none-eabi/4.6.2/../../../../arm-none-eabi/lib/armv7e-m\libg.a(lib_a-tzlock.o)
                              d:/elektronik/ides/chibistudio/tools/gnu tools arm embedded/4.6 2012q2/bin/../lib/gcc/arm-none-eabi/4.6.2/../../../../arm-none-eabi/lib/armv7e-m\libg.a(lib_a-mktm_r.o) (__tz_lock)
d:/elektronik/ides/chibistudio/tools/gnu tools arm embedded/4.6 2012q2/bin/../lib/gcc/arm-none-eabi/4.6.2/../../../../arm-none-eabi/lib/armv7e-m\libg.a(lib_a-tzvars.o)
                              d:/elektronik/ides/chibistudio/tools/gnu tools arm embedded/4.6 2012q2/bin/../lib/gcc/arm-none-eabi/4.6.2/../../../../arm-none-eabi/lib/armv7e-m\libg.a(lib_a-mktime.o) (_daylight)
d:/elektronik/ides/chibistudio/tools/gnu tools arm embedded/4.6 2012q2/bin/../lib/gcc/arm-none-eabi/4.6.2/../../../../arm-none-eabi/lib/armv7e-m\libg.a(lib_a-vfiprintf.o)
                              d:/elektronik/ides/chibistudio/tools/gnu tools arm embedded/4.6 2012q2/bin/../lib/gcc/arm-none-eabi/4.6.2/../../../../arm-none-eabi/lib/armv7e-m\libg.a(lib_a-fiprintf.o) (_vfiprintf_r)
d:/elektronik/ides/chibistudio/tools/gnu tools arm embedded/4.6 2012q2/bin/../lib/gcc/arm-none-eabi/4.6.2/../../../../arm-none-eabi/lib/armv7e-m\libg.a(lib_a-wsetup.o)
                              d:/elektronik/ides/chibistudio/tools/gnu tools arm embedded/4.6 2012q2/bin/../lib/gcc/arm-none-eabi/4.6.2/../../../../arm-none-eabi/lib/armv7e-m\libg.a(lib_a-vfiprintf.o) (__swsetup_r)
d:/elektronik/ides/chibistudio/tools/gnu tools arm embedded/4.6 2012q2/bin/../lib/gcc/arm-none-eabi/4.6.2/../../../../arm-none-eabi/lib/armv7e-m\libg.a(lib_a-__atexit.o)
                              d:/elektronik/ides/chibistudio/tools/gnu tools arm embedded/4.6 2012q2/bin/../lib/gcc/arm-none-eabi/4.6.2/../../../../arm-none-eabi/lib/armv7e-m\libg.a(lib_a-atexit.o) (__register_exitproc)
d:/elektronik/ides/chibistudio/tools/gnu tools arm embedded/4.6 2012q2/bin/../lib/gcc/arm-none-eabi/4.6.2/../../../../arm-none-eabi/lib/armv7e-m\libg.a(lib_a-__call_atexit.o)
                              d:/elektronik/ides/chibistudio/tools/gnu tools arm embedded/4.6 2012q2/bin/../lib/gcc/arm-none-eabi/4.6.2/../../../../arm-none-eabi/lib/armv7e-m\libg.a(lib_a-exit.o) (__call_exitprocs)
d:/elektronik/ides/chibistudio/tools/gnu tools arm embedded/4.6 2012q2/bin/../lib/gcc/arm-none-eabi/4.6.2/../../../../arm-none-eabi/lib/armv7e-m\libg.a(lib_a-abort.o)
                              d:/elektronik/ides/chibistudio/tools/gnu tools arm embedded/4.6 2012q2/bin/../lib/gcc/arm-none-eabi/4.6.2/../../../../arm-none-eabi/lib/armv7e-m\libg.a(lib_a-assert.o) (abort)
d:/elektronik/ides/chibistudio/tools/gnu tools arm embedded/4.6 2012q2/bin/../lib/gcc/arm-none-eabi/4.6.2/../../../../arm-none-eabi/lib/armv7e-m\libg.a(lib_a-abs.o)
                              d:/elektronik/ides/chibistudio/tools/gnu tools arm embedded/4.6 2012q2/bin/../lib/gcc/arm-none-eabi/4.6.2/../../../../arm-none-eabi/lib/armv7e-m\libg.a(lib_a-strftime.o) (abs)
d:/elektronik/ides/chibistudio/tools/gnu tools arm embedded/4.6 2012q2/bin/../lib/gcc/arm-none-eabi/4.6.2/../../../../arm-none-eabi/lib/armv7e-m\libg.a(lib_a-ctype_.o)
                              d:/elektronik/ides/chibistudio/tools/gnu tools arm embedded/4.6 2012q2/bin/../lib/gcc/arm-none-eabi/4.6.2/../../../../arm-none-eabi/lib/armv7e-m\libg.a(lib_a-strftime.o) (__ctype_ptr__)
d:/elektronik/ides/chibistudio/tools/gnu tools arm embedded/4.6 2012q2/bin/../lib/gcc/arm-none-eabi/4.6.2/../../../../arm-none-eabi/lib/armv7e-m\libg.a(lib_a-div.o)
                              d:/elektronik/ides/chibistudio/tools/gnu tools arm embedded/4.6 2012q2/bin/../lib/gcc/arm-none-eabi/4.6.2/../../../../arm-none-eabi/lib/armv7e-m\libg.a(lib_a-mktime.o) (div)
d:/elektronik/ides/chibistudio/tools/gnu tools arm embedded/4.6 2012q2/bin/../lib/gcc/arm-none-eabi/4.6.2/../../../../arm-none-eabi/lib/armv7e-m\libg.a(lib_a-dtoa.o)
                              d:/elektronik/ides/chibistudio/tools/gnu tools arm embedded/4.6 2012q2/bin/../lib/gcc/arm-none-eabi/4.6.2/../../../../arm-none-eabi/lib/armv7e-m\libg.a(lib_a-svfprintf.o) (_dtoa_r)
d:/elektronik/ides/chibistudio/tools/gnu tools arm embedded/4.6 2012q2/bin/../lib/gcc/arm-none-eabi/4.6.2/../../../../arm-none-eabi/lib/armv7e-m\libg.a(lib_a-fflush.o)
                              d:/elektronik/ides/chibistudio/tools/gnu tools arm embedded/4.6 2012q2/bin/../lib/gcc/arm-none-eabi/4.6.2/../../../../arm-none-eabi/lib/armv7e-m\libg.a(lib_a-vfiprintf.o) (_fflush_r)
d:/elektronik/ides/chibistudio/tools/gnu tools arm embedded/4.6 2012q2/bin/../lib/gcc/arm-none-eabi/4.6.2/../../../../arm-none-eabi/lib/armv7e-m\libg.a(lib_a-findfp.o)
                              d:/elektronik/ides/chibistudio/tools/gnu tools arm embedded/4.6 2012q2/bin/../lib/gcc/arm-none-eabi/4.6.2/../../../../arm-none-eabi/lib/armv7e-m\libg.a(lib_a-vfiprintf.o) (__sinit)
d:/elektronik/ides/chibistudio/tools/gnu tools arm embedded/4.6 2012q2/bin/../lib/gcc/arm-none-eabi/4.6.2/../../../../arm-none-eabi/lib/armv7e-m\libg.a(lib_a-fputwc.o)
                              d:/elektronik/ides/chibistudio/tools/gnu tools arm embedded/4.6 2012q2/bin/../lib/gcc/arm-none-eabi/4.6.2/../../../../arm-none-eabi/lib/armv7e-m\libg.a(lib_a-vfiprintf.o) (_fputwc_r)
d:/elektronik/ides/chibistudio/tools/gnu tools arm embedded/4.6 2012q2/bin/../lib/gcc/arm-none-eabi/4.6.2/../../../../arm-none-eabi/lib/armv7e-m\libg.a(lib_a-freer.o)
                              d:/elektronik/ides/chibistudio/tools/gnu tools arm embedded/4.6 2012q2/bin/../lib/gcc/arm-none-eabi/4.6.2/../../../../arm-none-eabi/lib/armv7e-m\libg.a(lib_a-malloc.o) (_free_r)
d:/elektronik/ides/chibistudio/tools/gnu tools arm embedded/4.6 2012q2/bin/../lib/gcc/arm-none-eabi/4.6.2/../../../../arm-none-eabi/lib/armv7e-m\libg.a(lib_a-fvwrite.o)
                              d:/elektronik/ides/chibistudio/tools/gnu tools arm embedded/4.6 2012q2/bin/../lib/gcc/arm-none-eabi/4.6.2/../../../../arm-none-eabi/lib/armv7e-m\libg.a(lib_a-vfiprintf.o) (__sfvwrite_r)
d:/elektronik/ides/chibistudio/tools/gnu tools arm embedded/4.6 2012q2/bin/../lib/gcc/arm-none-eabi/4.6.2/../../../../arm-none-eabi/lib/armv7e-m\libg.a(lib_a-fwalk.o)
                              d:/elektronik/ides/chibistudio/tools/gnu tools arm embedded/4.6 2012q2/bin/../lib/gcc/arm-none-eabi/4.6.2/../../../../arm-none-eabi/lib/armv7e-m\libg.a(lib_a-findfp.o) (_fwalk)
d:/elektronik/ides/chibistudio/tools/gnu tools arm embedded/4.6 2012q2/bin/../lib/gcc/arm-none-eabi/4.6.2/../../../../arm-none-eabi/lib/armv7e-m\libg.a(lib_a-gettzinfo.o)
                              d:/elektronik/ides/chibistudio/tools/gnu tools arm embedded/4.6 2012q2/bin/../lib/gcc/arm-none-eabi/4.6.2/../../../../arm-none-eabi/lib/armv7e-m\libg.a(lib_a-mktime.o) (__gettzinfo)
d:/elektronik/ides/chibistudio/tools/gnu tools arm embedded/4.6 2012q2/bin/../lib/gcc/arm-none-eabi/4.6.2/../../../../arm-none-eabi/lib/armv7e-m\libg.a(lib_a-labs.o)
                              d:/elektronik/ides/chibistudio/tools/gnu tools arm embedded/4.6 2012q2/bin/../lib/gcc/arm-none-eabi/4.6.2/../../../../arm-none-eabi/lib/armv7e-m\libg.a(lib_a-strftime.o) (labs)
d:/elektronik/ides/chibistudio/tools/gnu tools arm embedded/4.6 2012q2/bin/../lib/gcc/arm-none-eabi/4.6.2/../../../../arm-none-eabi/lib/armv7e-m\libg.a(lib_a-ldpart.o)
                              d:/elektronik/ides/chibistudio/tools/gnu tools arm embedded/4.6 2012q2/bin/../lib/gcc/arm-none-eabi/4.6.2/../../../../arm-none-eabi/lib/armv7e-m\libg.a(lib_a-timelocal.o) (__part_load_locale)
d:/elektronik/ides/chibistudio/tools/gnu tools arm embedded/4.6 2012q2/bin/../lib/gcc/arm-none-eabi/4.6.2/../../../../arm-none-eabi/lib/armv7e-m\libg.a(lib_a-locale.o)
                              d:/elektronik/ides/chibistudio/tools/gnu tools arm embedded/4.6 2012q2/bin/../lib/gcc/arm-none-eabi/4.6.2/../../../../arm-none-eabi/lib/armv7e-m\libg.a(lib_a-fputwc.o) (__locale_mb_cur_max)
d:/elektronik/ides/chibistudio/tools/gnu tools arm embedded/4.6 2012q2/bin/../lib/gcc/arm-none-eabi/4.6.2/../../../../arm-none-eabi/lib/armv7e-m\libg.a(lib_a-makebuf.o)
                              d:/elektronik/ides/chibistudio/tools/gnu tools arm embedded/4.6 2012q2/bin/../lib/gcc/arm-none-eabi/4.6.2/../../../../arm-none-eabi/lib/armv7e-m\libg.a(lib_a-wsetup.o) (__smakebuf_r)
d:/elektronik/ides/chibistudio/tools/gnu tools arm embedded/4.6 2012q2/bin/../lib/gcc/arm-none-eabi/4.6.2/../../../../arm-none-eabi/lib/armv7e-m\libg.a(lib_a-memchr.o)
                              d:/elektronik/ides/chibistudio/tools/gnu tools arm embedded/4.6 2012q2/bin/../lib/gcc/arm-none-eabi/4.6.2/../../../../arm-none-eabi/lib/armv7e-m\libg.a(lib_a-svfprintf.o) (memchr)
d:/elektronik/ides/chibistudio/tools/gnu tools arm embedded/4.6 2012q2/bin/../lib/gcc/arm-none-eabi/4.6.2/../../../../arm-none-eabi/lib/armv7e-m\libg.a(lib_a-mprec.o)
                              d:/elektronik/ides/chibistudio/tools/gnu tools arm embedded/4.6 2012q2/bin/../lib/gcc/arm-none-eabi/4.6.2/../../../../arm-none-eabi/lib/armv7e-m\libg.a(lib_a-dtoa.o) (_Balloc)
d:/elektronik/ides/chibistudio/tools/gnu tools arm embedded/4.6 2012q2/bin/../lib/gcc/arm-none-eabi/4.6.2/../../../../arm-none-eabi/lib/armv7e-m\libg.a(lib_a-realloc.o)
                              d:/elektronik/ides/chibistudio/tools/gnu tools arm embedded/4.6 2012q2/bin/../lib/gcc/arm-none-eabi/4.6.2/../../../../arm-none-eabi/lib/armv7e-m\libg.a(lib_a-ldpart.o) (realloc)
d:/elektronik/ides/chibistudio/tools/gnu tools arm embedded/4.6 2012q2/bin/../lib/gcc/arm-none-eabi/4.6.2/../../../../arm-none-eabi/lib/armv7e-m\libg.a(lib_a-reallocr.o)
                              d:/elektronik/ides/chibistudio/tools/gnu tools arm embedded/4.6 2012q2/bin/../lib/gcc/arm-none-eabi/4.6.2/../../../../arm-none-eabi/lib/armv7e-m\libg.a(lib_a-fvwrite.o) (_realloc_r)
d:/elektronik/ides/chibistudio/tools/gnu tools arm embedded/4.6 2012q2/bin/../lib/gcc/arm-none-eabi/4.6.2/../../../../arm-none-eabi/lib/armv7e-m\libg.a(lib_a-reent.o)
                              d:/elektronik/ides/chibistudio/tools/gnu tools arm embedded/4.6 2012q2/bin/../lib/gcc/arm-none-eabi/4.6.2/../../../../arm-none-eabi/lib/armv7e-m\libg.a(lib_a-sbrkr.o) (errno)
d:/elektronik/ides/chibistudio/tools/gnu tools arm embedded/4.6 2012q2/bin/../lib/gcc/arm-none-eabi/4.6.2/../../../../arm-none-eabi/lib/armv7e-m\libg.a(lib_a-s_fpclassify.o)
                              d:/elektronik/ides/chibistudio/tools/gnu tools arm embedded/4.6 2012q2/bin/../lib/gcc/arm-none-eabi/4.6.2/../../../../arm-none-eabi/lib/armv7e-m\libg.a(lib_a-svfprintf.o) (__fpclassifyd)
d:/elektronik/ides/chibistudio/tools/gnu tools arm embedded/4.6 2012q2/bin/../lib/gcc/arm-none-eabi/4.6.2/../../../../arm-none-eabi/lib/armv7e-m\libg.a(lib_a-signal.o)
                              d:/elektronik/ides/chibistudio/tools/gnu tools arm embedded/4.6 2012q2/bin/../lib/gcc/arm-none-eabi/4.6.2/../../../../arm-none-eabi/lib/armv7e-m\libg.a(lib_a-abort.o) (raise)
d:/elektronik/ides/chibistudio/tools/gnu tools arm embedded/4.6 2012q2/bin/../lib/gcc/arm-none-eabi/4.6.2/../../../../arm-none-eabi/lib/armv7e-m\libg.a(lib_a-snprintf.o)
                              d:/elektronik/ides/chibistudio/tools/gnu tools arm embedded/4.6 2012q2/bin/../lib/gcc/arm-none-eabi/4.6.2/../../../../arm-none-eabi/lib/armv7e-m\libg.a(lib_a-strftime.o) (snprintf)
d:/elektronik/ides/chibistudio/tools/gnu tools arm embedded/4.6 2012q2/bin/../lib/gcc/arm-none-eabi/4.6.2/../../../../arm-none-eabi/lib/armv7e-m\libg.a(lib_a-stdio.o)
                              d:/elektronik/ides/chibistudio/tools/gnu tools arm embedded/4.6 2012q2/bin/../lib/gcc/arm-none-eabi/4.6.2/../../../../arm-none-eabi/lib/armv7e-m\libg.a(lib_a-findfp.o) (__sread)
d:/elektronik/ides/chibistudio/tools/gnu tools arm embedded/4.6 2012q2/bin/../lib/gcc/arm-none-eabi/4.6.2/../../../../arm-none-eabi/lib/armv7e-m\libg.a(lib_a-strchr.o)
                              d:/elektronik/ides/chibistudio/tools/gnu tools arm embedded/4.6 2012q2/bin/../lib/gcc/arm-none-eabi/4.6.2/../../../../arm-none-eabi/lib/armv7e-m\libg.a(lib_a-ldpart.o) (strchr)
d:/elektronik/ides/chibistudio/tools/gnu tools arm embedded/4.6 2012q2/bin/../lib/gcc/arm-none-eabi/4.6.2/../../../../arm-none-eabi/lib/armv7e-m\libg.a(lib_a-strcmp.o)
                              d:/elektronik/ides/chibistudio/tools/gnu tools arm embedded/4.6 2012q2/bin/../lib/gcc/arm-none-eabi/4.6.2/../../../../arm-none-eabi/lib/armv7e-m\libg.a(lib_a-ldpart.o) (strcmp)
d:/elektronik/ides/chibistudio/tools/gnu tools arm embedded/4.6 2012q2/bin/../lib/gcc/arm-none-eabi/4.6.2/../../../../arm-none-eabi/lib/armv7e-m\libg.a(lib_a-svfiprintf.o)
                              d:/elektronik/ides/chibistudio/tools/gnu tools arm embedded/4.6 2012q2/bin/../lib/gcc/arm-none-eabi/4.6.2/../../../../arm-none-eabi/lib/armv7e-m\libg.a(lib_a-svfprintf.o) (__ssprint_r)
d:/elektronik/ides/chibistudio/tools/gnu tools arm embedded/4.6 2012q2/bin/../lib/gcc/arm-none-eabi/4.6.2/../../../../arm-none-eabi/lib/armv7e-m\libg.a(lib_a-sysclose.o)
                              d:/elektronik/ides/chibistudio/tools/gnu tools arm embedded/4.6 2012q2/bin/../lib/gcc/arm-none-eabi/4.6.2/../../../../arm-none-eabi/lib/armv7e-m\libg.a(lib_a-ldpart.o) (close)
d:/elektronik/ides/chibistudio/tools/gnu tools arm embedded/4.6 2012q2/bin/../lib/gcc/arm-none-eabi/4.6.2/../../../../arm-none-eabi/lib/armv7e-m\libg.a(lib_a-sysfstat.o)
                              d:/elektronik/ides/chibistudio/tools/gnu tools arm embedded/4.6 2012q2/bin/../lib/gcc/arm-none-eabi/4.6.2/../../../../arm-none-eabi/lib/armv7e-m\libg.a(lib_a-ldpart.o) (fstat)
d:/elektronik/ides/chibistudio/tools/gnu tools arm embedded/4.6 2012q2/bin/../lib/gcc/arm-none-eabi/4.6.2/../../../../arm-none-eabi/lib/armv7e-m\libg.a(lib_a-sysopen.o)
                              d:/elektronik/ides/chibistudio/tools/gnu tools arm embedded/4.6 2012q2/bin/../lib/gcc/arm-none-eabi/4.6.2/../../../../arm-none-eabi/lib/armv7e-m\libg.a(lib_a-ldpart.o) (open)
d:/elektronik/ides/chibistudio/tools/gnu tools arm embedded/4.6 2012q2/bin/../lib/gcc/arm-none-eabi/4.6.2/../../../../arm-none-eabi/lib/armv7e-m\libg.a(lib_a-sysread.o)
                              d:/elektronik/ides/chibistudio/tools/gnu tools arm embedded/4.6 2012q2/bin/../lib/gcc/arm-none-eabi/4.6.2/../../../../arm-none-eabi/lib/armv7e-m\libg.a(lib_a-ldpart.o) (read)
d:/elektronik/ides/chibistudio/tools/gnu tools arm embedded/4.6 2012q2/bin/../lib/gcc/arm-none-eabi/4.6.2/../../../../arm-none-eabi/lib/armv7e-m\libg.a(lib_a-wbuf.o)
                              d:/elektronik/ides/chibistudio/tools/gnu tools arm embedded/4.6 2012q2/bin/../lib/gcc/arm-none-eabi/4.6.2/../../../../arm-none-eabi/lib/armv7e-m\libg.a(lib_a-fputwc.o) (__swbuf_r)
d:/elektronik/ides/chibistudio/tools/gnu tools arm embedded/4.6 2012q2/bin/../lib/gcc/arm-none-eabi/4.6.2/../../../../arm-none-eabi/lib/armv7e-m\libg.a(lib_a-wcrtomb.o)
                              d:/elektronik/ides/chibistudio/tools/gnu tools arm embedded/4.6 2012q2/bin/../lib/gcc/arm-none-eabi/4.6.2/../../../../arm-none-eabi/lib/armv7e-m\libg.a(lib_a-fputwc.o) (_wcrtomb_r)
d:/elektronik/ides/chibistudio/tools/gnu tools arm embedded/4.6 2012q2/bin/../lib/gcc/arm-none-eabi/4.6.2/../../../../arm-none-eabi/lib/armv7e-m\libg.a(lib_a-wctomb_r.o)
                              d:/elektronik/ides/chibistudio/tools/gnu tools arm embedded/4.6 2012q2/bin/../lib/gcc/arm-none-eabi/4.6.2/../../../../arm-none-eabi/lib/armv7e-m\libg.a(lib_a-wcrtomb.o) (__wctomb)
d:/elektronik/ides/chibistudio/tools/gnu tools arm embedded/4.6 2012q2/bin/../lib/gcc/arm-none-eabi/4.6.2/../../../../arm-none-eabi/lib/armv7e-m\libg.a(lib_a-callocr.o)
                              d:/elektronik/ides/chibistudio/tools/gnu tools arm embedded/4.6 2012q2/bin/../lib/gcc/arm-none-eabi/4.6.2/../../../../arm-none-eabi/lib/armv7e-m\libg.a(lib_a-mprec.o) (_calloc_r)
d:/elektronik/ides/chibistudio/tools/gnu tools arm embedded/4.6 2012q2/bin/../lib/gcc/arm-none-eabi/4.6.2/../../../../arm-none-eabi/lib/armv7e-m\libg.a(lib_a-fclose.o)
                              d:/elektronik/ides/chibistudio/tools/gnu tools arm embedded/4.6 2012q2/bin/../lib/gcc/arm-none-eabi/4.6.2/../../../../arm-none-eabi/lib/armv7e-m\libg.a(lib_a-findfp.o) (fclose)
d:/elektronik/ides/chibistudio/tools/gnu tools arm embedded/4.6 2012q2/bin/../lib/gcc/arm-none-eabi/4.6.2/../../../../arm-none-eabi/lib/armv7e-m\libg.a(lib_a-openr.o)
                              d:/elektronik/ides/chibistudio/tools/gnu tools arm embedded/4.6 2012q2/bin/../lib/gcc/arm-none-eabi/4.6.2/../../../../arm-none-eabi/lib/armv7e-m\libg.a(lib_a-sysopen.o) (_open_r)
d:/elektronik/ides/chibistudio/tools/gnu tools arm embedded/4.6 2012q2/bin/../lib/gcc/arm-none-eabi/4.6.2/armv7e-m\libgcc.a(_arm_addsubdf3.o)
                              d:/elektronik/ides/chibistudio/tools/gnu tools arm embedded/4.6 2012q2/bin/../lib/gcc/arm-none-eabi/4.6.2/../../../../arm-none-eabi/lib/armv7e-m\libg.a(lib_a-dtoa.o) (__aeabi_dsub)
d:/elektronik/ides/chibistudio/tools/gnu tools arm embedded/4.6 2012q2/bin/../lib/gcc/arm-none-eabi/4.6.2/armv7e-m\libgcc.a(_arm_muldivdf3.o)
                              d:/elektronik/ides/chibistudio/tools/gnu tools arm embedded/4.6 2012q2/bin/../lib/gcc/arm-none-eabi/4.6.2/../../../../arm-none-eabi/lib/armv7e-m\libg.a(lib_a-dtoa.o) (__aeabi_dmul)
d:/elektronik/ides/chibistudio/tools/gnu tools arm embedded/4.6 2012q2/bin/../lib/gcc/arm-none-eabi/4.6.2/armv7e-m\libgcc.a(_arm_cmpdf2.o)
                              d:/elektronik/ides/chibistudio/tools/gnu tools arm embedded/4.6 2012q2/bin/../lib/gcc/arm-none-eabi/4.6.2/../../../../arm-none-eabi/lib/armv7e-m\libg.a(lib_a-svfprintf.o) (__aeabi_dcmpeq)
d:/elektronik/ides/chibistudio/tools/gnu tools arm embedded/4.6 2012q2/bin/../lib/gcc/arm-none-eabi/4.6.2/armv7e-m\libgcc.a(_arm_fixdfsi.o)
                              d:/elektronik/ides/chibistudio/tools/gnu tools arm embedded/4.6 2012q2/bin/../lib/gcc/arm-none-eabi/4.6.2/../../../../arm-none-eabi/lib/armv7e-m\libg.a(lib_a-dtoa.o) (__aeabi_d2iz)
d:/elektronik/ides/chibistudio/tools/gnu tools arm embedded/4.6 2012q2/bin/../lib/gcc/arm-none-eabi/4.6.2/armv7e-m\libgcc.a(_aeabi_uldivmod.o)
                              d:/elektronik/ides/chibistudio/tools/gnu tools arm embedded/4.6 2012q2/bin/../lib/gcc/arm-none-eabi/4.6.2/../../../../arm-none-eabi/lib/armv7e-m\libg.a(lib_a-svfprintf.o) (__aeabi_uldivmod)
d:/elektronik/ides/chibistudio/tools/gnu tools arm embedded/4.6 2012q2/bin/../lib/gcc/arm-none-eabi/4.6.2/armv7e-m\libgcc.a(bpabi.o)
                              d:/elektronik/ides/chibistudio/tools/gnu tools arm embedded/4.6 2012q2/bin/../lib/gcc/arm-none-eabi/4.6.2/armv7e-m\libgcc.a(_aeabi_uldivmod.o) (__gnu_uldivmod_helper)
d:/elektronik/ides/chibistudio/tools/gnu tools arm embedded/4.6 2012q2/bin/../lib/gcc/arm-none-eabi/4.6.2/armv7e-m\libgcc.a(unwind-arm.o)
                              d:/elektronik/ides/chibistudio/tools/gnu tools arm embedded/4.6 2012q2/bin/../lib/gcc/arm-none-eabi/4.6.2/armv7e-m\libgcc.a(bpabi.o) (__aeabi_unwind_cpp_pr0)
d:/elektronik/ides/chibistudio/tools/gnu tools arm embedded/4.6 2012q2/bin/../lib/gcc/arm-none-eabi/4.6.2/armv7e-m\libgcc.a(libunwind.o)
                              d:/elektronik/ides/chibistudio/tools/gnu tools arm embedded/4.6 2012q2/bin/../lib/gcc/arm-none-eabi/4.6.2/armv7e-m\libgcc.a(unwind-arm.o) (restore_core_regs)
d:/elektronik/ides/chibistudio/tools/gnu tools arm embedded/4.6 2012q2/bin/../lib/gcc/arm-none-eabi/4.6.2/armv7e-m\libgcc.a(pr-support.o)
                              d:/elektronik/ides/chibistudio/tools/gnu tools arm embedded/4.6 2012q2/bin/../lib/gcc/arm-none-eabi/4.6.2/armv7e-m\libgcc.a(unwind-arm.o) (__gnu_unwind_execute)
d:/elektronik/ides/chibistudio/tools/gnu tools arm embedded/4.6 2012q2/bin/../lib/gcc/arm-none-eabi/4.6.2/armv7e-m\libgcc.a(_dvmd_tls.o)
                              d:/elektronik/ides/chibistudio/tools/gnu tools arm embedded/4.6 2012q2/bin/../lib/gcc/arm-none-eabi/4.6.2/armv7e-m\libgcc.a(_aeabi_uldivmod.o) (__aeabi_ldiv0)
d:/elektronik/ides/chibistudio/tools/gnu tools arm embedded/4.6 2012q2/bin/../lib/gcc/arm-none-eabi/4.6.2/armv7e-m\libgcc.a(_divdi3.o)
                              d:/elektronik/ides/chibistudio/tools/gnu tools arm embedded/4.6 2012q2/bin/../lib/gcc/arm-none-eabi/4.6.2/armv7e-m\libgcc.a(bpabi.o) (__divdi3)
d:/elektronik/ides/chibistudio/tools/gnu tools arm embedded/4.6 2012q2/bin/../lib/gcc/arm-none-eabi/4.6.2/armv7e-m\libgcc.a(_udivdi3.o)
                              d:/elektronik/ides/chibistudio/tools/gnu tools arm embedded/4.6 2012q2/bin/../lib/gcc/arm-none-eabi/4.6.2/armv7e-m\libgcc.a(bpabi.o) (__udivdi3)

Allocating common symbols
Common symbol       size              file

fh                  0x38              ./HelixMP3/real/buffers.o
CurrentPos          0x4               ./STM32F4-Discovery/stm32f4_discovery_audio_codec.o
HSEStartUpStatus    0x1               ./Audio_MP3/USB_MSC/usb_bsp.o
mp3DecInfo          0x7f0             ./HelixMP3/real/buffers.o
USBH_MSC_CSWData    0x10              ./STM32_USB_HOST_Library/Class/MSC/src/usbh_msc_bot.o
errno               0x4               d:/elektronik/ides/chibistudio/tools/gnu tools arm embedded/4.6 2012q2/bin/../lib/gcc/arm-none-eabi/4.6.2/../../../../arm-none-eabi/lib/armv7e-m\libg.a(lib_a-reent.o)
MSC_Machine         0x4a              ./STM32_USB_HOST_Library/Class/MSC/src/usbh_msc_core.o
sfi                 0x11c             ./HelixMP3/real/buffers.o
__brkval            0x4               ./syscalls.o
si                  0x148             ./HelixMP3/real/buffers.o
USBH_DataInBuffer   0x200             ./STM32_USB_HOST_Library/Class/MSC/src/usbh_msc_scsi.o
USBH_MSC_Param      0x10              ./STM32_USB_HOST_Library/Class/MSC/src/usbh_msc_scsi.o
USBH_MSC_BOTXferParam
                    0x10              ./STM32_USB_HOST_Library/Class/MSC/src/usbh_msc_bot.o
sbi                 0x2204            ./HelixMP3/real/buffers.o
hi                  0x1210            ./HelixMP3/real/buffers.o
di                  0x348             ./HelixMP3/real/buffers.o
semUSBApplication   0x4               ./Audio_MP3/USB_MSC/usbh_usr.o
mi                  0x1b20            ./HelixMP3/real/buffers.o
USBH_DataOutBuffer  0x200             ./STM32_USB_HOST_Library/Class/MSC/src/usbh_msc_scsi.o
AUDIO_MAL_DMA_InitStructure
                    0x3c              ./STM32F4-Discovery/stm32f4_discovery_audio_codec.o
MSC_Setup           0x8               ./STM32_USB_HOST_Library/Class/MSC/src/usbh_msc_core.o
USBH_MSC_CBWData    0x20              ./STM32_USB_HOST_Library/Class/MSC/src/usbh_msc_bot.o
NVIC_InitStructure  0x4               ./STM32F4-Discovery/stm32f4_discovery.o
DMA_InitStructure   0x3c              ./STM32F4-Discovery/stm32f4_discovery_audio_codec.o
fatfs               0x234             ./Audio_MP3/USB_MSC/usbh_usr.o
semUSBMounted       0x4               ./Audio_MP3/USB_MSC/usbh_usr.o

Discarded input sections

 .text          0x00000000        0x0 d:/elektronik/ides/chibistudio/tools/gnu tools arm embedded/4.6 2012q2/bin/../lib/gcc/arm-none-eabi/4.6.2/armv7e-m/crti.o
 .data          0x00000000        0x0 d:/elektronik/ides/chibistudio/tools/gnu tools arm embedded/4.6 2012q2/bin/../lib/gcc/arm-none-eabi/4.6.2/armv7e-m/crti.o
 .bss           0x00000000        0x0 d:/elektronik/ides/chibistudio/tools/gnu tools arm embedded/4.6 2012q2/bin/../lib/gcc/arm-none-eabi/4.6.2/armv7e-m/crti.o
 .text          0x00000000       0x68 d:/elektronik/ides/chibistudio/tools/gnu tools arm embedded/4.6 2012q2/bin/../lib/gcc/arm-none-eabi/4.6.2/../../../../arm-none-eabi/lib/armv7e-m/crt0.o
 .data          0x00000000        0x0 d:/elektronik/ides/chibistudio/tools/gnu tools arm embedded/4.6 2012q2/bin/../lib/gcc/arm-none-eabi/4.6.2/../../../../arm-none-eabi/lib/armv7e-m/crt0.o
 .bss           0x00000000        0x0 d:/elektronik/ides/chibistudio/tools/gnu tools arm embedded/4.6 2012q2/bin/../lib/gcc/arm-none-eabi/4.6.2/../../../../arm-none-eabi/lib/armv7e-m/crt0.o
 .ARM.extab     0x00000000        0x0 d:/elektronik/ides/chibistudio/tools/gnu tools arm embedded/4.6 2012q2/bin/../lib/gcc/arm-none-eabi/4.6.2/../../../../arm-none-eabi/lib/armv7e-m/crt0.o
 .ARM.exidx     0x00000000        0x8 d:/elektronik/ides/chibistudio/tools/gnu tools arm embedded/4.6 2012q2/bin/../lib/gcc/arm-none-eabi/4.6.2/../../../../arm-none-eabi/lib/armv7e-m/crt0.o
 .data          0x00000000        0x0 ./STM32_USB_OTG_Driver/src/usb_core.o
 .bss           0x00000000        0x0 ./STM32_USB_OTG_Driver/src/usb_core.o
 .data          0x00000000        0x0 ./STM32_USB_OTG_Driver/src/usb_hcd.o
 .bss           0x00000000        0x0 ./STM32_USB_OTG_Driver/src/usb_hcd.o
 .data          0x00000000        0x0 ./STM32_USB_OTG_Driver/src/usb_hcd_int.o
 .bss           0x00000000        0x0 ./STM32_USB_OTG_Driver/src/usb_hcd_int.o
 .data          0x00000000        0x0 ./STM32_USB_HOST_Library/Core/src/usbh_core.o
 .bss           0x00000000        0x0 ./STM32_USB_HOST_Library/Core/src/usbh_core.o
 .data          0x00000000        0x0 ./STM32_USB_HOST_Library/Core/src/usbh_hcs.o
 .bss           0x00000000        0x0 ./STM32_USB_HOST_Library/Core/src/usbh_hcs.o
 .data          0x00000000        0x0 ./STM32_USB_HOST_Library/Core/src/usbh_ioreq.o
 .bss           0x00000000        0x0 ./STM32_USB_HOST_Library/Core/src/usbh_ioreq.o
 .data          0x00000000        0x0 ./STM32_USB_HOST_Library/Core/src/usbh_stdreq.o
 .bss           0x00000000        0x0 ./STM32_USB_HOST_Library/Core/src/usbh_stdreq.o
 .data          0x00000000        0x0 ./STM32_USB_HOST_Library/Class/MSC/src/usbh_msc_bot.o
 .bss           0x00000000        0x0 ./STM32_USB_HOST_Library/Class/MSC/src/usbh_msc_bot.o
 .data          0x00000000        0x0 ./STM32_USB_HOST_Library/Class/MSC/src/usbh_msc_core.o
 .bss           0x00000000        0x0 ./STM32_USB_HOST_Library/Class/MSC/src/usbh_msc_core.o
 .data          0x00000000        0x0 ./STM32_USB_HOST_Library/Class/MSC/src/usbh_msc_fatfs.o
 .bss           0x00000000        0x0 ./STM32_USB_HOST_Library/Class/MSC/src/usbh_msc_fatfs.o
 .data          0x00000000        0x0 ./STM32_USB_HOST_Library/Class/MSC/src/usbh_msc_scsi.o
 .bss           0x00000000        0x0 ./STM32_USB_HOST_Library/Class/MSC/src/usbh_msc_scsi.o
 .data          0x00000000        0x0 ./STM32F4xx_StdPeriph_Driver/src/misc.o
 .bss           0x00000000        0x0 ./STM32F4xx_StdPeriph_Driver/src/misc.o
 .text          0x00000000      0xba0 ./STM32F4xx_StdPeriph_Driver/src/stm32f4xx_adc.o
 .data          0x00000000        0x0 ./STM32F4xx_StdPeriph_Driver/src/stm32f4xx_adc.o
 .bss           0x00000000        0x0 ./STM32F4xx_StdPeriph_Driver/src/stm32f4xx_adc.o
 .data          0x00000000        0x0 ./STM32F4xx_StdPeriph_Driver/src/stm32f4xx_dac.o
 .bss           0x00000000        0x0 ./STM32F4xx_StdPeriph_Driver/src/stm32f4xx_dac.o
 .text          0x00000000      0x144 ./STM32F4xx_StdPeriph_Driver/src/stm32f4xx_dbgmcu.o
 .data          0x00000000        0x0 ./STM32F4xx_StdPeriph_Driver/src/stm32f4xx_dbgmcu.o
 .bss           0x00000000        0x0 ./STM32F4xx_StdPeriph_Driver/src/stm32f4xx_dbgmcu.o
 .data          0x00000000        0x0 ./STM32F4xx_StdPeriph_Driver/src/stm32f4xx_dma.o
 .bss           0x00000000        0x0 ./STM32F4xx_StdPeriph_Driver/src/stm32f4xx_dma.o
 .data          0x00000000        0x0 ./STM32F4xx_StdPeriph_Driver/src/stm32f4xx_exti.o
 .bss           0x00000000        0x0 ./STM32F4xx_StdPeriph_Driver/src/stm32f4xx_exti.o
 .text          0x00000000      0xa14 ./STM32F4xx_StdPeriph_Driver/src/stm32f4xx_flash.o
 .data          0x00000000        0x0 ./STM32F4xx_StdPeriph_Driver/src/stm32f4xx_flash.o
 .bss           0x00000000        0x0 ./STM32F4xx_StdPeriph_Driver/src/stm32f4xx_flash.o
 .text          0x00000000      0xbcc ./STM32F4xx_StdPeriph_Driver/src/stm32f4xx_fsmc.o
 .data          0x00000000        0x0 ./STM32F4xx_StdPeriph_Driver/src/stm32f4xx_fsmc.o
 .bss           0x00000000        0x0 ./STM32F4xx_StdPeriph_Driver/src/stm32f4xx_fsmc.o
 .data          0x00000000        0x0 ./STM32F4xx_StdPeriph_Driver/src/stm32f4xx_gpio.o
 .bss           0x00000000        0x0 ./STM32F4xx_StdPeriph_Driver/src/stm32f4xx_gpio.o
 .data          0x00000000        0x0 ./STM32F4xx_StdPeriph_Driver/src/stm32f4xx_i2c.o
 .bss           0x00000000        0x0 ./STM32F4xx_StdPeriph_Driver/src/stm32f4xx_i2c.o
 .text          0x00000000       0xd0 ./STM32F4xx_StdPeriph_Driver/src/stm32f4xx_iwdg.o
 .data          0x00000000        0x0 ./STM32F4xx_StdPeriph_Driver/src/stm32f4xx_iwdg.o
 .bss           0x00000000        0x0 ./STM32F4xx_StdPeriph_Driver/src/stm32f4xx_iwdg.o
 .data          0x00000000        0x0 ./STM32F4xx_StdPeriph_Driver/src/stm32f4xx_pwr.o
 .bss           0x00000000        0x0 ./STM32F4xx_StdPeriph_Driver/src/stm32f4xx_pwr.o
 .data          0x00000000        0x0 ./STM32F4xx_StdPeriph_Driver/src/stm32f4xx_rcc.o
 .bss           0x00000000        0x0 ./STM32F4xx_StdPeriph_Driver/src/stm32f4xx_rcc.o
 .text          0x00000000      0x1a0 ./STM32F4xx_StdPeriph_Driver/src/stm32f4xx_rng.o
 .data          0x00000000        0x0 ./STM32F4xx_StdPeriph_Driver/src/stm32f4xx_rng.o
 .bss           0x00000000        0x0 ./STM32F4xx_StdPeriph_Driver/src/stm32f4xx_rng.o
 .data          0x00000000        0x0 ./STM32F4xx_StdPeriph_Driver/src/stm32f4xx_rtc.o
 .bss           0x00000000        0x0 ./STM32F4xx_StdPeriph_Driver/src/stm32f4xx_rtc.o
 .text          0x00000000      0x570 ./STM32F4xx_StdPeriph_Driver/src/stm32f4xx_sdio.o
 .data          0x00000000        0x0 ./STM32F4xx_StdPeriph_Driver/src/stm32f4xx_sdio.o
 .bss           0x00000000        0x0 ./STM32F4xx_StdPeriph_Driver/src/stm32f4xx_sdio.o
 .data          0x00000000        0x0 ./STM32F4xx_StdPeriph_Driver/src/stm32f4xx_spi.o
 .bss           0x00000000        0x0 ./STM32F4xx_StdPeriph_Driver/src/stm32f4xx_spi.o
 .data          0x00000000        0x0 ./STM32F4xx_StdPeriph_Driver/src/stm32f4xx_syscfg.o
 .bss           0x00000000        0x0 ./STM32F4xx_StdPeriph_Driver/src/stm32f4xx_syscfg.o
 .data          0x00000000        0x0 ./STM32F4xx_StdPeriph_Driver/src/stm32f4xx_tim.o
 .bss           0x00000000        0x0 ./STM32F4xx_StdPeriph_Driver/src/stm32f4xx_tim.o
 .text          0x00000000      0x9dc ./STM32F4xx_StdPeriph_Driver/src/stm32f4xx_usart.o
 .data          0x00000000        0x0 ./STM32F4xx_StdPeriph_Driver/src/stm32f4xx_usart.o
 .bss           0x00000000        0x0 ./STM32F4xx_StdPeriph_Driver/src/stm32f4xx_usart.o
 .text          0x00000000      0x154 ./STM32F4xx_StdPeriph_Driver/src/stm32f4xx_wwdg.o
 .data          0x00000000        0x0 ./STM32F4xx_StdPeriph_Driver/src/stm32f4xx_wwdg.o
 .bss           0x00000000        0x0 ./STM32F4xx_StdPeriph_Driver/src/stm32f4xx_wwdg.o
 .data          0x00000000        0x0 ./STM32F4-Discovery/stm32f4_discovery.o
 .bss           0x00000000        0x0 ./STM32F4-Discovery/stm32f4_discovery.o
 COMMON         0x00000000        0x4 ./STM32F4-Discovery/stm32f4_discovery.o
 .data          0x00000000        0x0 ./STM32F4-Discovery/stm32f4_discovery_audio_codec.o
 .bss           0x00000000        0x0 ./STM32F4-Discovery/stm32f4_discovery_audio_codec.o
 .data          0x00000000        0x0 ./STM32F4-Discovery/stm32f4_discovery_lis302dl.o
 .bss           0x00000000        0x0 ./STM32F4-Discovery/stm32f4_discovery_lis302dl.o
 .group         0x00000000        0x8 ./Menue/CMenue.o
 .group         0x00000000        0x8 ./Menue/CMenue.o
 .group         0x00000000        0x8 ./Menue/CMenue.o
 .data          0x00000000        0x0 ./Menue/CMenue.o
 .bss           0x00000000        0x0 ./Menue/CMenue.o
 .data          0x00000000        0x0 ./HelixMP3/real/bitstream.o
 .bss           0x00000000        0x0 ./HelixMP3/real/bitstream.o
 .data          0x00000000        0x0 ./HelixMP3/real/buffers.o
 .bss           0x00000000        0x0 ./HelixMP3/real/buffers.o
 .data          0x00000000        0x0 ./HelixMP3/real/dct32.o
 .bss           0x00000000        0x0 ./HelixMP3/real/dct32.o
 .data          0x00000000        0x0 ./HelixMP3/real/dequant.o
 .bss           0x00000000        0x0 ./HelixMP3/real/dequant.o
 .data          0x00000000        0x0 ./HelixMP3/real/dqchan.o
 .bss           0x00000000        0x0 ./HelixMP3/real/dqchan.o
 .data          0x00000000        0x0 ./HelixMP3/real/huffman.o
 .bss           0x00000000        0x0 ./HelixMP3/real/huffman.o
 .text          0x00000000        0x0 ./HelixMP3/real/hufftabs.o
 .data          0x00000000        0x0 ./HelixMP3/real/hufftabs.o
 .bss           0x00000000        0x0 ./HelixMP3/real/hufftabs.o
 .data          0x00000000        0x0 ./HelixMP3/real/imdct.o
 .bss           0x00000000        0x0 ./HelixMP3/real/imdct.o
 .data          0x00000000        0x0 ./HelixMP3/real/polyphase.o
 .bss           0x00000000        0x0 ./HelixMP3/real/polyphase.o
 .data          0x00000000        0x0 ./HelixMP3/real/scalfact.o
 .bss           0x00000000        0x0 ./HelixMP3/real/scalfact.o
 .data          0x00000000        0x0 ./HelixMP3/real/stproc.o
 .bss           0x00000000        0x0 ./HelixMP3/real/stproc.o
 .data          0x00000000        0x0 ./HelixMP3/real/subband.o
 .bss           0x00000000        0x0 ./HelixMP3/real/subband.o
 .text          0x00000000        0x0 ./HelixMP3/real/trigtabs.o
 .data          0x00000000        0x0 ./HelixMP3/real/trigtabs.o
 .bss           0x00000000        0x0 ./HelixMP3/real/trigtabs.o
 .rodata.xmp3_uniqueIDTab
                0x00000000        0x8 ./HelixMP3/real/trigtabs.o
 .rodata.xmp3_coef32
                0x00000000       0x7c ./HelixMP3/real/trigtabs.o
 .data          0x00000000        0x0 ./HelixMP3/mp3dec.o
 .bss           0x00000000        0x0 ./HelixMP3/mp3dec.o
 .text          0x00000000        0x0 ./HelixMP3/mp3tabs.o
 .data          0x00000000        0x0 ./HelixMP3/mp3tabs.o
 .bss           0x00000000        0x0 ./HelixMP3/mp3tabs.o
 .rodata.xmp3_bitsPerSlotTab
                0x00000000        0x8 ./HelixMP3/mp3tabs.o
 .data          0x00000000        0x0 ./GraphicLCD/CGraphicLCD.o
 .bss           0x00000000        0x0 ./GraphicLCD/CGraphicLCD.o
 .data          0x00000000        0x0 ./GraphicLCD/CT6963CDriver.o
 .bss           0x00000000        0x0 ./GraphicLCD/CT6963CDriver.o
 .rodata._ZL12c_FontNative
                0x00000000       0x18 ./GraphicLCD/CT6963CDriver.o
 .rodata._ZL20GLCD_NUMBER_OF_LINES
                0x00000000        0x1 ./GraphicLCD/CT6963CDriver.o
 .rodata._ZL20GLCD_PIXELS_PER_LINE
                0x00000000        0x1 ./GraphicLCD/CT6963CDriver.o
 .rodata._ZL15GLCD_FONT_WIDTH
                0x00000000        0x1 ./GraphicLCD/CT6963CDriver.o
 .rodata._ZL17GLCD_GRAPHIC_AREA
                0x00000000        0x1 ./GraphicLCD/CT6963CDriver.o
 .rodata._ZL14GLCD_TEXT_AREA
                0x00000000        0x1 ./GraphicLCD/CT6963CDriver.o
 .rodata._ZL17GLCD_GRAPHIC_SIZE
                0x00000000        0x4 ./GraphicLCD/CT6963CDriver.o
 .rodata._ZL14GLCD_TEXT_SIZE
                0x00000000        0x4 ./GraphicLCD/CT6963CDriver.o
 .rodata._ZL14GLCD_TEXT_HOME
                0x00000000        0x4 ./GraphicLCD/CT6963CDriver.o
 .rodata._ZL17GLCD_GRAPHIC_HOME
                0x00000000        0x4 ./GraphicLCD/CT6963CDriver.o
 .rodata._ZL20GLCD_OFFSET_REGISTER
                0x00000000        0x1 ./GraphicLCD/CT6963CDriver.o
 .rodata._ZL21GLCD_EXTERNAL_CG_HOME
                0x00000000        0x4 ./GraphicLCD/CT6963CDriver.o
 .rodata._ZL24T6963_SET_CURSOR_POINTER
                0x00000000        0x1 ./GraphicLCD/CT6963CDriver.o
 .rodata._ZL25T6963_SET_OFFSET_REGISTER
                0x00000000        0x1 ./GraphicLCD/CT6963CDriver.o
 .rodata._ZL25T6963_SET_ADDRESS_POINTER
                0x00000000        0x1 ./GraphicLCD/CT6963CDriver.o
 .rodata._ZL27T6963_SET_TEXT_HOME_ADDRESS
                0x00000000        0x1 ./GraphicLCD/CT6963CDriver.o
 .rodata._ZL19T6963_SET_TEXT_AREA
                0x00000000        0x1 ./GraphicLCD/CT6963CDriver.o
 .rodata._ZL30T6963_SET_GRAPHIC_HOME_ADDRESS
                0x00000000        0x1 ./GraphicLCD/CT6963CDriver.o
 .rodata._ZL22T6963_SET_GRAPHIC_AREA
                0x00000000        0x1 ./GraphicLCD/CT6963CDriver.o
 .rodata._ZL14T6963_MODE_SET
                0x00000000        0x1 ./GraphicLCD/CT6963CDriver.o
 .rodata._ZL18T6963_DISPLAY_MODE
                0x00000000        0x1 ./GraphicLCD/CT6963CDriver.o
 .rodata._ZL21T6963_CURSOR_BLINK_ON
                0x00000000        0x1 ./GraphicLCD/CT6963CDriver.o
 .rodata._ZL23T6963_CURSOR_DISPLAY_ON
                0x00000000        0x1 ./GraphicLCD/CT6963CDriver.o
 .rodata._ZL21T6963_TEXT_DISPLAY_ON
                0x00000000        0x1 ./GraphicLCD/CT6963CDriver.o
 .rodata._ZL24T6963_GRAPHIC_DISPLAY_ON
                0x00000000        0x1 ./GraphicLCD/CT6963CDriver.o
 .rodata._ZL27T6963_CURSOR_PATTERN_SELECT
                0x00000000        0x1 ./GraphicLCD/CT6963CDriver.o
 .rodata._ZL19T6963_CURSOR_1_LINE
                0x00000000        0x1 ./GraphicLCD/CT6963CDriver.o
 .rodata._ZL19T6963_CURSOR_2_LINE
                0x00000000        0x1 ./GraphicLCD/CT6963CDriver.o
 .rodata._ZL19T6963_CURSOR_3_LINE
                0x00000000        0x1 ./GraphicLCD/CT6963CDriver.o
 .rodata._ZL19T6963_CURSOR_4_LINE
                0x00000000        0x1 ./GraphicLCD/CT6963CDriver.o
 .rodata._ZL19T6963_CURSOR_5_LINE
                0x00000000        0x1 ./GraphicLCD/CT6963CDriver.o
 .rodata._ZL19T6963_CURSOR_6_LINE
                0x00000000        0x1 ./GraphicLCD/CT6963CDriver.o
 .rodata._ZL19T6963_CURSOR_7_LINE
                0x00000000        0x1 ./GraphicLCD/CT6963CDriver.o
 .rodata._ZL19T6963_CURSOR_8_LINE
                0x00000000        0x1 ./GraphicLCD/CT6963CDriver.o
 .rodata._ZL25T6963_SET_DATA_AUTO_WRITE
                0x00000000        0x1 ./GraphicLCD/CT6963CDriver.o
 .rodata._ZL24T6963_SET_DATA_AUTO_READ
                0x00000000        0x1 ./GraphicLCD/CT6963CDriver.o
 .rodata._ZL16T6963_AUTO_RESET
                0x00000000        0x1 ./GraphicLCD/CT6963CDriver.o
 .rodata._ZL30T6963_DATA_WRITE_AND_INCREMENT
                0x00000000        0x1 ./GraphicLCD/CT6963CDriver.o
 .rodata._ZL29T6963_DATA_READ_AND_INCREMENT
                0x00000000        0x1 ./GraphicLCD/CT6963CDriver.o
 .rodata._ZL30T6963_DATA_WRITE_AND_DECREMENT
                0x00000000        0x1 ./GraphicLCD/CT6963CDriver.o
 .rodata._ZL29T6963_DATA_READ_AND_DECREMENT
                0x00000000        0x1 ./GraphicLCD/CT6963CDriver.o
 .rodata._ZL32T6963_DATA_WRITE_AND_NONVARIALBE
                0x00000000        0x1 ./GraphicLCD/CT6963CDriver.o
 .rodata._ZL31T6963_DATA_READ_AND_NONVARIABLE
                0x00000000        0x1 ./GraphicLCD/CT6963CDriver.o
 .rodata._ZL17T6963_SCREEN_PEEK
                0x00000000        0x1 ./GraphicLCD/CT6963CDriver.o
 .rodata._ZL17T6963_SCREEN_COPY
                0x00000000        0x1 ./GraphicLCD/CT6963CDriver.o
 .rodata._ZL13T6963_BIT_SET
                0x00000000        0x1 ./GraphicLCD/CT6963CDriver.o
 .rodata._ZL15T6963_BIT_RESET
                0x00000000        0x1 ./GraphicLCD/CT6963CDriver.o
 .data          0x00000000        0x0 ./GraphicLCD/CT6963GPIOInterface.o
 .bss           0x00000000        0x0 ./GraphicLCD/CT6963GPIOInterface.o
 .rodata._ZL12c_FontNative
                0x00000000       0x18 ./GraphicLCD/CT6963GPIOInterface.o
 .rodata._ZL12c_iDelayFore
                0x00000000        0x4 ./GraphicLCD/CT6963GPIOInterface.o
 .rodata._ZL13c_iDelayAfter
                0x00000000        0x4 ./GraphicLCD/CT6963GPIOInterface.o
 .text          0x00000000        0x0 ./GraphicLCD/SansSerif12.o
 .data          0x00000000        0x0 ./GraphicLCD/SansSerif12.o
 .bss           0x00000000        0x0 ./GraphicLCD/SansSerif12.o
 .text          0x00000000        0x0 ./GraphicLCD/SansSerif26.o
 .data          0x00000000        0x0 ./GraphicLCD/SansSerif26.o
 .bss           0x00000000        0x0 ./GraphicLCD/SansSerif26.o
 .group         0x00000000        0x8 ./FreeRTOS_EC/Source/AManagedTask.o
 .group         0x00000000        0x8 ./FreeRTOS_EC/Source/AManagedTask.o
 .group         0x00000000        0x8 ./FreeRTOS_EC/Source/AManagedTask.o
 .group         0x00000000        0x8 ./FreeRTOS_EC/Source/AManagedTask.o
 .group         0x00000000        0x8 ./FreeRTOS_EC/Source/AManagedTask.o
 .group         0x00000000        0x8 ./FreeRTOS_EC/Source/AManagedTask.o
 .group         0x00000000        0x8 ./FreeRTOS_EC/Source/AManagedTask.o
 .group         0x00000000        0x8 ./FreeRTOS_EC/Source/AManagedTask.o
 .data          0x00000000        0x0 ./FreeRTOS_EC/Source/AManagedTask.o
 .bss           0x00000000        0x0 ./FreeRTOS_EC/Source/AManagedTask.o
 .text._ZNK5CTask7IsValidEv
                0x00000000       0x24 ./FreeRTOS_EC/Source/AManagedTask.o
 .text._ZN5CTask6DetachEv
                0x00000000       0x24 ./FreeRTOS_EC/Source/AManagedTask.o
 .text._ZN12AManagedTask8OnCreateEPKctm
                0x00000000       0x20 ./FreeRTOS_EC/Source/AManagedTask.o
 .group         0x00000000        0x8 ./FreeRTOS_EC/Source/ASyncObject.o
 .group         0x00000000        0x8 ./FreeRTOS_EC/Source/ASyncObject.o
 .group         0x00000000        0x8 ./FreeRTOS_EC/Source/ASyncObject.o
 .group         0x00000000        0x8 ./FreeRTOS_EC/Source/ASyncObject.o
 .text          0x00000000      0x114 ./FreeRTOS_EC/Source/ASyncObject.o
 .data          0x00000000        0x0 ./FreeRTOS_EC/Source/ASyncObject.o
 .bss           0x00000000        0x0 ./FreeRTOS_EC/Source/ASyncObject.o
 .text._ZNK11ASyncObject7IsValidEv
                0x00000000       0x24 ./FreeRTOS_EC/Source/ASyncObject.o
 .text._ZN11ASyncObject6DetachEv
                0x00000000       0x24 ./FreeRTOS_EC/Source/ASyncObject.o
 .rodata        0x00000000       0x38 ./FreeRTOS_EC/Source/ASyncObject.o
 .rodata._ZTV11ASyncObject
                0x00000000       0x28 ./FreeRTOS_EC/Source/ASyncObject.o
 .rodata._ZZN11ASyncObject6AttachEPvE19__PRETTY_FUNCTION__
                0x00000000       0x34 ./FreeRTOS_EC/Source/ASyncObject.o
 .text          0x00000000        0x0 ./FreeRTOS_EC/Source/ATimer.o
 .data          0x00000000        0x0 ./FreeRTOS_EC/Source/ATimer.o
 .bss           0x00000000        0x0 ./FreeRTOS_EC/Source/ATimer.o
 .group         0x00000000        0x8 ./FreeRTOS_EC/Source/CBinarySemaphore.o
 .group         0x00000000        0x8 ./FreeRTOS_EC/Source/CBinarySemaphore.o
 .group         0x00000000        0x8 ./FreeRTOS_EC/Source/CBinarySemaphore.o
 .group         0x00000000        0x8 ./FreeRTOS_EC/Source/CBinarySemaphore.o
 .text          0x00000000      0x114 ./FreeRTOS_EC/Source/CBinarySemaphore.o
 .data          0x00000000        0x0 ./FreeRTOS_EC/Source/CBinarySemaphore.o
 .bss           0x00000000        0x0 ./FreeRTOS_EC/Source/CBinarySemaphore.o
 .text._ZNK11ASyncObject7IsValidEv
                0x00000000       0x24 ./FreeRTOS_EC/Source/CBinarySemaphore.o
 .text._ZN11ASyncObject6DetachEv
                0x00000000       0x24 ./FreeRTOS_EC/Source/CBinarySemaphore.o
 .rodata        0x00000000       0x38 ./FreeRTOS_EC/Source/CBinarySemaphore.o
 .text._ZN16CBinarySemaphore4TakeEm
                0x00000000       0x5c ./FreeRTOS_EC/Source/CBinarySemaphore.o
 .text._ZN16CBinarySemaphore4GiveEv
                0x00000000       0x5c ./FreeRTOS_EC/Source/CBinarySemaphore.o
 .rodata._ZTV16CBinarySemaphore
                0x00000000       0x28 ./FreeRTOS_EC/Source/CBinarySemaphore.o
 .rodata._ZZN16CBinarySemaphore4GiveEvE19__PRETTY_FUNCTION__
                0x00000000       0x2c ./FreeRTOS_EC/Source/CBinarySemaphore.o
 .rodata._ZZN16CBinarySemaphore4TakeEmE19__PRETTY_FUNCTION__
                0x00000000       0x38 ./FreeRTOS_EC/Source/CBinarySemaphore.o
 .group         0x00000000        0x8 ./FreeRTOS_EC/Source/CCountingSemaphore.o
 .group         0x00000000        0x8 ./FreeRTOS_EC/Source/CCountingSemaphore.o
 .group         0x00000000        0x8 ./FreeRTOS_EC/Source/CCountingSemaphore.o
 .group         0x00000000        0x8 ./FreeRTOS_EC/Source/CCountingSemaphore.o
 .text          0x00000000       0xd8 ./FreeRTOS_EC/Source/CCountingSemaphore.o
 .data          0x00000000        0x0 ./FreeRTOS_EC/Source/CCountingSemaphore.o
 .bss           0x00000000        0x0 ./FreeRTOS_EC/Source/CCountingSemaphore.o
 .text._ZNK11ASyncObject7IsValidEv
                0x00000000       0x24 ./FreeRTOS_EC/Source/CCountingSemaphore.o
 .text._ZN11ASyncObject6DetachEv
                0x00000000       0x24 ./FreeRTOS_EC/Source/CCountingSemaphore.o
 .rodata        0x00000000       0x38 ./FreeRTOS_EC/Source/CCountingSemaphore.o
 .text._ZN18CCountingSemaphore4TakeEm
                0x00000000       0x5c ./FreeRTOS_EC/Source/CCountingSemaphore.o
 .text._ZN18CCountingSemaphore4GiveEv
                0x00000000       0x5c ./FreeRTOS_EC/Source/CCountingSemaphore.o
 .rodata._ZTV18CCountingSemaphore
                0x00000000       0x28 ./FreeRTOS_EC/Source/CCountingSemaphore.o
 .rodata._ZZN18CCountingSemaphore4GiveEvE19__PRETTY_FUNCTION__
                0x00000000       0x2c ./FreeRTOS_EC/Source/CCountingSemaphore.o
 .rodata._ZZN18CCountingSemaphore4TakeEmE19__PRETTY_FUNCTION__
                0x00000000       0x38 ./FreeRTOS_EC/Source/CCountingSemaphore.o
 .data          0x00000000        0x0 ./FreeRTOS_EC/Source/CFreeRTOS.o
 .bss           0x00000000        0x0 ./FreeRTOS_EC/Source/CFreeRTOS.o
 .group         0x00000000        0x8 ./FreeRTOS_EC/Source/CMessageTask.o
 .group         0x00000000        0x8 ./FreeRTOS_EC/Source/CMessageTask.o
 .group         0x00000000        0x8 ./FreeRTOS_EC/Source/CMessageTask.o
 .group         0x00000000        0x8 ./FreeRTOS_EC/Source/CMessageTask.o
 .group         0x00000000        0x8 ./FreeRTOS_EC/Source/CMessageTask.o
 .group         0x00000000        0x8 ./FreeRTOS_EC/Source/CMessageTask.o
 .group         0x00000000        0x8 ./FreeRTOS_EC/Source/CMessageTask.o
 .group         0x00000000        0x8 ./FreeRTOS_EC/Source/CMessageTask.o
 .group         0x00000000        0x8 ./FreeRTOS_EC/Source/CMessageTask.o
 .group         0x00000000        0x8 ./FreeRTOS_EC/Source/CMessageTask.o
 .text          0x00000000      0x3b0 ./FreeRTOS_EC/Source/CMessageTask.o
 .data          0x00000000        0x0 ./FreeRTOS_EC/Source/CMessageTask.o
 .bss           0x00000000        0x0 ./FreeRTOS_EC/Source/CMessageTask.o
 .text._ZNK5CTask7IsValidEv
                0x00000000       0x24 ./FreeRTOS_EC/Source/CMessageTask.o
 .text._ZN5CTask6DetachEv
                0x00000000       0x24 ./FreeRTOS_EC/Source/CMessageTask.o
 .text._ZN12AManagedTask12HardwareInitEv
                0x00000000       0x18 ./FreeRTOS_EC/Source/CMessageTask.o
 .text._ZN6CQueue4SendEPKvm
                0x00000000       0x2c ./FreeRTOS_EC/Source/CMessageTask.o
 .text._ZN6CQueue11SendFromISREPKvPl
                0x00000000       0x2c ./FreeRTOS_EC/Source/CMessageTask.o
 .rodata        0x00000000       0x2c ./FreeRTOS_EC/Source/CMessageTask.o
 .text._ZN6CQueue11SendToFrontEPKvm
                0x00000000       0x5c ./FreeRTOS_EC/Source/CMessageTask.o
 .text._ZN6CQueue7ReceiveEPvm
                0x00000000       0x5c ./FreeRTOS_EC/Source/CMessageTask.o
 .text._ZN6CQueue18SendToFrontFromISREPKvPl
                0x00000000       0x5c ./FreeRTOS_EC/Source/CMessageTask.o
 .text._ZN12CMessageTask6OnInitEv
                0x00000000       0x18 ./FreeRTOS_EC/Source/CMessageTask.o
 .text._ZN12CMessageTask9OnTimeOutEv
                0x00000000       0x14 ./FreeRTOS_EC/Source/CMessageTask.o
 .rodata._ZN12CMessageTask13s_message_mapE
                0x00000000        0xc ./FreeRTOS_EC/Source/CMessageTask.o
 .rodata._ZTV12CMessageTask
                0x00000000       0x38 ./FreeRTOS_EC/Source/CMessageTask.o
 .rodata._ZZN6CQueue18SendToFrontFromISREPKvPlE19__PRETTY_FUNCTION__
                0x00000000       0x3c ./FreeRTOS_EC/Source/CMessageTask.o
 .rodata._ZZN6CQueue11SendToFrontEPKvmE19__PRETTY_FUNCTION__
                0x00000000       0x38 ./FreeRTOS_EC/Source/CMessageTask.o
 .rodata._ZZN6CQueue7ReceiveEPvmE19__PRETTY_FUNCTION__
                0x00000000       0x30 ./FreeRTOS_EC/Source/CMessageTask.o
 .group         0x00000000        0x8 ./FreeRTOS_EC/Source/CMutex.o
 .group         0x00000000        0x8 ./FreeRTOS_EC/Source/CMutex.o
 .group         0x00000000        0x8 ./FreeRTOS_EC/Source/CMutex.o
 .group         0x00000000        0x8 ./FreeRTOS_EC/Source/CMutex.o
 .text          0x00000000       0xf4 ./FreeRTOS_EC/Source/CMutex.o
 .data          0x00000000        0x0 ./FreeRTOS_EC/Source/CMutex.o
 .bss           0x00000000        0x0 ./FreeRTOS_EC/Source/CMutex.o
 .text._ZNK11ASyncObject7IsValidEv
                0x00000000       0x24 ./FreeRTOS_EC/Source/CMutex.o
 .text._ZN11ASyncObject6DetachEv
                0x00000000       0x24 ./FreeRTOS_EC/Source/CMutex.o
 .rodata        0x00000000       0x2c ./FreeRTOS_EC/Source/CMutex.o
 .text._ZN6CMutex4TakeEm
                0x00000000       0x5c ./FreeRTOS_EC/Source/CMutex.o
 .text._ZN6CMutex4GiveEv
                0x00000000       0x5c ./FreeRTOS_EC/Source/CMutex.o
 .rodata._ZTV6CMutex
                0x00000000       0x28 ./FreeRTOS_EC/Source/CMutex.o
 .rodata._ZZN6CMutex4GiveEvE19__PRETTY_FUNCTION__
                0x00000000       0x20 ./FreeRTOS_EC/Source/CMutex.o
 .rodata._ZZN6CMutex4TakeEmE19__PRETTY_FUNCTION__
                0x00000000       0x2c ./FreeRTOS_EC/Source/CMutex.o
 .group         0x00000000        0x8 ./FreeRTOS_EC/Source/CQueue.o
 .group         0x00000000        0x8 ./FreeRTOS_EC/Source/CQueue.o
 .group         0x00000000        0x8 ./FreeRTOS_EC/Source/CQueue.o
 .group         0x00000000        0x8 ./FreeRTOS_EC/Source/CQueue.o
 .text          0x00000000      0x1b0 ./FreeRTOS_EC/Source/CQueue.o
 .data          0x00000000        0x0 ./FreeRTOS_EC/Source/CQueue.o
 .bss           0x00000000        0x0 ./FreeRTOS_EC/Source/CQueue.o
 .text._ZNK6CQueue7IsValidEv
                0x00000000       0x24 ./FreeRTOS_EC/Source/CQueue.o
 .text._ZN6CQueue6DetachEv
                0x00000000       0x24 ./FreeRTOS_EC/Source/CQueue.o
 .text._ZN12IFreeRTOSObjC2Ev
                0x00000000       0x20 ./FreeRTOS_EC/Source/CQueue.o
 .rodata        0x00000000       0x40 ./FreeRTOS_EC/Source/CQueue.o
 .rodata._ZTV6CQueue
                0x00000000       0x20 ./FreeRTOS_EC/Source/CQueue.o
 .rodata._ZTV12IFreeRTOSObj
                0x00000000       0x18 ./FreeRTOS_EC/Source/CQueue.o
 .rodata._ZZN6CQueue6AttachEPvE19__PRETTY_FUNCTION__
                0x00000000       0x2c ./FreeRTOS_EC/Source/CQueue.o
 .rodata._ZZN6CQueue6CreateEmmE19__PRETTY_FUNCTION__
                0x00000000       0x40 ./FreeRTOS_EC/Source/CQueue.o
 .group         0x00000000        0x8 ./FreeRTOS_EC/Source/CRecursiveMutex.o
 .group         0x00000000        0x8 ./FreeRTOS_EC/Source/CRecursiveMutex.o
 .group         0x00000000        0x8 ./FreeRTOS_EC/Source/CRecursiveMutex.o
 .group         0x00000000        0x8 ./FreeRTOS_EC/Source/CRecursiveMutex.o
 .text          0x00000000       0xd4 ./FreeRTOS_EC/Source/CRecursiveMutex.o
 .data          0x00000000        0x0 ./FreeRTOS_EC/Source/CRecursiveMutex.o
 .bss           0x00000000        0x0 ./FreeRTOS_EC/Source/CRecursiveMutex.o
 .text._ZNK11ASyncObject7IsValidEv
                0x00000000       0x24 ./FreeRTOS_EC/Source/CRecursiveMutex.o
 .text._ZN11ASyncObject6DetachEv
                0x00000000       0x24 ./FreeRTOS_EC/Source/CRecursiveMutex.o
 .text._ZN15CRecursiveMutex4TakeEm
                0x00000000       0x1c ./FreeRTOS_EC/Source/CRecursiveMutex.o
 .text._ZN15CRecursiveMutex4GiveEv
                0x00000000       0x18 ./FreeRTOS_EC/Source/CRecursiveMutex.o
 .rodata._ZTV15CRecursiveMutex
                0x00000000       0x28 ./FreeRTOS_EC/Source/CRecursiveMutex.o
 .group         0x00000000        0x8 ./FreeRTOS_EC/Source/CTask.o
 .group         0x00000000        0x8 ./FreeRTOS_EC/Source/CTask.o
 .group         0x00000000        0x8 ./FreeRTOS_EC/Source/CTask.o
 .group         0x00000000        0x8 ./FreeRTOS_EC/Source/CTask.o
 .data          0x00000000        0x0 ./FreeRTOS_EC/Source/CTask.o
 .bss           0x00000000        0x0 ./FreeRTOS_EC/Source/CTask.o
 .text._ZNK5CTask7IsValidEv
                0x00000000       0x24 ./FreeRTOS_EC/Source/CTask.o
 .text._ZN5CTask6DetachEv
                0x00000000       0x24 ./FreeRTOS_EC/Source/CTask.o
 .text._ZN12IFreeRTOSObjC2Ev
                0x00000000       0x20 ./FreeRTOS_EC/Source/CTask.o
 .rodata._ZTV12IFreeRTOSObj
                0x00000000       0x18 ./FreeRTOS_EC/Source/CTask.o
 .data          0x00000000        0x0 ./FreeRTOS/Source/portable/GCC/ARM_CM4F/port.o
 .bss           0x00000000        0x0 ./FreeRTOS/Source/portable/GCC/ARM_CM4F/port.o
 .rodata.ulKernelPriority
                0x00000000        0x4 ./FreeRTOS/Source/portable/GCC/ARM_CM4F/port.o
 .text          0x00000000      0x594 ./FreeRTOS/Source/croutine.o
 .data          0x00000000        0x0 ./FreeRTOS/Source/croutine.o
 .bss           0x00000000        0x0 ./FreeRTOS/Source/croutine.o
 .bss.pxReadyCoRoutineLists
                0x00000000       0x28 ./FreeRTOS/Source/croutine.o
 .bss.xDelayedCoRoutineList1
                0x00000000       0x14 ./FreeRTOS/Source/croutine.o
 .bss.xDelayedCoRoutineList2
                0x00000000       0x14 ./FreeRTOS/Source/croutine.o
 .bss.pxDelayedCoRoutineList
                0x00000000        0x4 ./FreeRTOS/Source/croutine.o
 .bss.pxOverflowDelayedCoRoutineList
                0x00000000        0x4 ./FreeRTOS/Source/croutine.o
 .bss.xPendingReadyCoRoutineList
                0x00000000       0x14 ./FreeRTOS/Source/croutine.o
 .bss.pxCurrentCoRoutine
                0x00000000        0x4 ./FreeRTOS/Source/croutine.o
 .bss.uxTopCoRoutineReadyPriority
                0x00000000        0x4 ./FreeRTOS/Source/croutine.o
 .bss.xCoRoutineTickCount
                0x00000000        0x4 ./FreeRTOS/Source/croutine.o
 .bss.xLastTickCount
                0x00000000        0x4 ./FreeRTOS/Source/croutine.o
 .bss.xPassedTicks
                0x00000000        0x4 ./FreeRTOS/Source/croutine.o
 .data          0x00000000        0x0 ./FreeRTOS/Source/list.o
 .bss           0x00000000        0x0 ./FreeRTOS/Source/list.o
 .data          0x00000000        0x0 ./FreeRTOS/Source/queue.o
 .bss           0x00000000        0x0 ./FreeRTOS/Source/queue.o
 .data          0x00000000        0x0 ./FreeRTOS/Source/tasks.o
 .bss           0x00000000        0x0 ./FreeRTOS/Source/tasks.o
 .text          0x00000000        0x0 ./FreeRTOS/Source/timers.o
 .data          0x00000000        0x0 ./FreeRTOS/Source/timers.o
 .bss           0x00000000        0x0 ./FreeRTOS/Source/timers.o
 .group         0x00000000        0x8 ./Clock/CRTCHandler.o
 .group         0x00000000        0x8 ./Clock/CRTCHandler.o
 .group         0x00000000        0x8 ./Clock/CRTCHandler.o
 .data          0x00000000        0x0 ./Clock/CRTCHandler.o
 .bss           0x00000000        0x0 ./Clock/CRTCHandler.o
 .text._ZNK5CTask7IsValidEv
                0x00000000       0x24 ./Clock/CRTCHandler.o
 .text._ZN5CTask6DetachEv
                0x00000000       0x24 ./Clock/CRTCHandler.o
 .text._ZN12AManagedTask8OnCreateEPKctm
                0x00000000       0x20 ./Clock/CRTCHandler.o
 .group         0x00000000        0x8 ./Clock/CRTCTime.o
 .group         0x00000000        0x8 ./Clock/CRTCTime.o
 .text          0x00000000      0x25c ./Clock/CRTCTime.o
 .data          0x00000000        0x0 ./Clock/CRTCTime.o
 .bss           0x00000000        0x0 ./Clock/CRTCTime.o
 .rodata        0x00000000       0x5c ./Clock/CRTCTime.o
 .text._ZN6CMutex4TakeEm
                0x00000000       0x5c ./Clock/CRTCTime.o
 .text._ZN6CMutex4GiveEv
                0x00000000       0x5c ./Clock/CRTCTime.o
 .rodata._ZTV8CRTCTime
                0x00000000       0x10 ./Clock/CRTCTime.o
 .rodata._ZZN6CMutex4GiveEvE19__PRETTY_FUNCTION__
                0x00000000       0x20 ./Clock/CRTCTime.o
 .rodata._ZZN6CMutex4TakeEmE19__PRETTY_FUNCTION__
                0x00000000       0x2c ./Clock/CRTCTime.o
 .text          0x00000000        0x0 ./Clock/CRTCTime_test.o
 .data          0x00000000        0x0 ./Clock/CRTCTime_test.o
 .bss           0x00000000        0x0 ./Clock/CRTCTime_test.o
 .data          0x00000000        0x0 ./Clock/CTime.o
 .bss           0x00000000        0x0 ./Clock/CTime.o
 .data          0x00000000        0x0 ./Clock/CTime_test.o
 .bss           0x00000000        0x0 ./Clock/CTime_test.o
 .group         0x00000000        0x8 ./Audio_MP3/USB_MSC/CUSBMassStorage.o
 .group         0x00000000        0x8 ./Audio_MP3/USB_MSC/CUSBMassStorage.o
 .group         0x00000000        0x8 ./Audio_MP3/USB_MSC/CUSBMassStorage.o
 .data          0x00000000        0x0 ./Audio_MP3/USB_MSC/CUSBMassStorage.o
 .bss           0x00000000        0x0 ./Audio_MP3/USB_MSC/CUSBMassStorage.o
 .text._ZNK5CTask7IsValidEv
                0x00000000       0x24 ./Audio_MP3/USB_MSC/CUSBMassStorage.o
 .text._ZN5CTask6DetachEv
                0x00000000       0x24 ./Audio_MP3/USB_MSC/CUSBMassStorage.o
 .text._ZN12AManagedTask8OnCreateEPKctm
                0x00000000       0x20 ./Audio_MP3/USB_MSC/CUSBMassStorage.o
 .data          0x00000000        0x0 ./Audio_MP3/USB_MSC/usb_bsp.o
 .bss           0x00000000        0x0 ./Audio_MP3/USB_MSC/usb_bsp.o
 COMMON         0x00000000        0x1 ./Audio_MP3/USB_MSC/usb_bsp.o
 .data          0x00000000        0x0 ./Audio_MP3/USB_MSC/usbh_usr.o
 .bss           0x00000000        0x0 ./Audio_MP3/USB_MSC/usbh_usr.o
 .text          0x00000000        0x0 ./Audio_MP3/FatFs/src/option/syscall.o
 .data          0x00000000        0x0 ./Audio_MP3/FatFs/src/option/syscall.o
 .bss           0x00000000        0x0 ./Audio_MP3/FatFs/src/option/syscall.o
 .data          0x00000000        0x0 ./Audio_MP3/FatFs/src/ff.o
 .bss           0x00000000        0x0 ./Audio_MP3/FatFs/src/ff.o
 .group         0x00000000        0x8 ./Audio_MP3/CFileHandler.o
 .group         0x00000000        0x8 ./Audio_MP3/CFileHandler.o
 .group         0x00000000        0x8 ./Audio_MP3/CFileHandler.o
 .group         0x00000000        0x8 ./Audio_MP3/CFileHandler.o
 .data          0x00000000        0x0 ./Audio_MP3/CFileHandler.o
 .bss           0x00000000        0x0 ./Audio_MP3/CFileHandler.o
 .text._ZNK5CTask7IsValidEv
                0x00000000       0x24 ./Audio_MP3/CFileHandler.o
 .text._ZN5CTask6DetachEv
                0x00000000       0x24 ./Audio_MP3/CFileHandler.o
 .text._ZN12AManagedTask8OnCreateEPKctm
                0x00000000       0x20 ./Audio_MP3/CFileHandler.o
 .rodata._ZL12READBUF_SIZE
                0x00000000        0x4 ./Audio_MP3/CFileHandler.o
 .rodata._ZL17READBUF_THRESHOLD
                0x00000000        0x4 ./Audio_MP3/CFileHandler.o
 .rodata._ZL12PCM_OUT_SIZE
                0x00000000        0x4 ./Audio_MP3/CFileHandler.o
 .data          0x00000000        0x0 ./Audio_MP3/fattime.o
 .bss           0x00000000        0x0 ./Audio_MP3/fattime.o
 .group         0x00000000        0x8 ./CLedHeartBeatSTM32F4Disc.o
 .group         0x00000000        0x8 ./CLedHeartBeatSTM32F4Disc.o
 .group         0x00000000        0x8 ./CLedHeartBeatSTM32F4Disc.o
 .data          0x00000000        0x0 ./CLedHeartBeatSTM32F4Disc.o
 .bss           0x00000000        0x0 ./CLedHeartBeatSTM32F4Disc.o
 .text._ZNK5CTask7IsValidEv
                0x00000000       0x24 ./CLedHeartBeatSTM32F4Disc.o
 .text._ZN5CTask6DetachEv
                0x00000000       0x24 ./CLedHeartBeatSTM32F4Disc.o
 .text._ZN12AManagedTask8OnCreateEPKctm
                0x00000000       0x20 ./CLedHeartBeatSTM32F4Disc.o
 .data          0x00000000        0x0 ./LibraryHacks.o
 .bss           0x00000000        0x0 ./LibraryHacks.o
 .group         0x00000000        0x8 ./main.o
 .data          0x00000000        0x0 ./main.o
 .bss           0x00000000        0x0 ./main.o
 .rodata._ZL12c_FontNative
                0x00000000       0x18 ./main.o
 .text          0x00000000       0x14 ./startup_stm32f4xx.o
 .data          0x00000000        0x0 ./startup_stm32f4xx.o
 .bss           0x00000000        0x0 ./startup_stm32f4xx.o
 .data          0x00000000        0x0 ./stm32f4xx_it.o
 .bss           0x00000000        0x0 ./stm32f4xx_it.o
 .data          0x00000000        0x0 ./syscalls.o
 .bss           0x00000000        0x0 ./syscalls.o
 .data.__malloc_margin
                0x00000000        0x4 ./syscalls.o
 COMMON         0x00000000        0x4 ./syscalls.o
 .data          0x00000000        0x0 ./system_stm32f4xx.o
 .bss           0x00000000        0x0 ./system_stm32f4xx.o
 .data          0x00000000        0x0 ./ustime.o
 .bss           0x00000000        0x0 ./ustime.o
 .text          0x00000000        0x0 d:/elektronik/ides/chibistudio/tools/gnu tools arm embedded/4.6 2012q2/bin/../lib/gcc/arm-none-eabi/4.6.2/../../../../arm-none-eabi/lib/armv7e-m\libstdc++.a(atexit_arm.o)
 .data          0x00000000        0x0 d:/elektronik/ides/chibistudio/tools/gnu tools arm embedded/4.6 2012q2/bin/../lib/gcc/arm-none-eabi/4.6.2/../../../../arm-none-eabi/lib/armv7e-m\libstdc++.a(atexit_arm.o)
 .bss           0x00000000        0x0 d:/elektronik/ides/chibistudio/tools/gnu tools arm embedded/4.6 2012q2/bin/../lib/gcc/arm-none-eabi/4.6.2/../../../../arm-none-eabi/lib/armv7e-m\libstdc++.a(atexit_arm.o)
 .ARM.extab.text.__aeabi_atexit
                0x00000000        0x0 d:/elektronik/ides/chibistudio/tools/gnu tools arm embedded/4.6 2012q2/bin/../lib/gcc/arm-none-eabi/4.6.2/../../../../arm-none-eabi/lib/armv7e-m\libstdc++.a(atexit_arm.o)
 .text          0x00000000        0x0 d:/elektronik/ides/chibistudio/tools/gnu tools arm embedded/4.6 2012q2/bin/../lib/gcc/arm-none-eabi/4.6.2/../../../../arm-none-eabi/lib/armv7e-m\libg.a(lib_a-assert.o)
 .data          0x00000000        0x0 d:/elektronik/ides/chibistudio/tools/gnu tools arm embedded/4.6 2012q2/bin/../lib/gcc/arm-none-eabi/4.6.2/../../../../arm-none-eabi/lib/armv7e-m\libg.a(lib_a-assert.o)
 .bss           0x00000000        0x0 d:/elektronik/ides/chibistudio/tools/gnu tools arm embedded/4.6 2012q2/bin/../lib/gcc/arm-none-eabi/4.6.2/../../../../arm-none-eabi/lib/armv7e-m\libg.a(lib_a-assert.o)
 .text.__assert
                0x00000000        0xc d:/elektronik/ides/chibistudio/tools/gnu tools arm embedded/4.6 2012q2/bin/../lib/gcc/arm-none-eabi/4.6.2/../../../../arm-none-eabi/lib/armv7e-m\libg.a(lib_a-assert.o)
 .text          0x00000000        0x0 d:/elektronik/ides/chibistudio/tools/gnu tools arm embedded/4.6 2012q2/bin/../lib/gcc/arm-none-eabi/4.6.2/../../../../arm-none-eabi/lib/armv7e-m\libg.a(lib_a-atexit.o)
 .data          0x00000000        0x0 d:/elektronik/ides/chibistudio/tools/gnu tools arm embedded/4.6 2012q2/bin/../lib/gcc/arm-none-eabi/4.6.2/../../../../arm-none-eabi/lib/armv7e-m\libg.a(lib_a-atexit.o)
 .bss           0x00000000        0x0 d:/elektronik/ides/chibistudio/tools/gnu tools arm embedded/4.6 2012q2/bin/../lib/gcc/arm-none-eabi/4.6.2/../../../../arm-none-eabi/lib/armv7e-m\libg.a(lib_a-atexit.o)
 .text          0x00000000        0x0 d:/elektronik/ides/chibistudio/tools/gnu tools arm embedded/4.6 2012q2/bin/../lib/gcc/arm-none-eabi/4.6.2/../../../../arm-none-eabi/lib/armv7e-m\libg.a(lib_a-cxa_atexit.o)
 .data          0x00000000        0x0 d:/elektronik/ides/chibistudio/tools/gnu tools arm embedded/4.6 2012q2/bin/../lib/gcc/arm-none-eabi/4.6.2/../../../../arm-none-eabi/lib/armv7e-m\libg.a(lib_a-cxa_atexit.o)
 .bss           0x00000000        0x0 d:/elektronik/ides/chibistudio/tools/gnu tools arm embedded/4.6 2012q2/bin/../lib/gcc/arm-none-eabi/4.6.2/../../../../arm-none-eabi/lib/armv7e-m\libg.a(lib_a-cxa_atexit.o)
 .text          0x00000000        0x0 d:/elektronik/ides/chibistudio/tools/gnu tools arm embedded/4.6 2012q2/bin/../lib/gcc/arm-none-eabi/4.6.2/../../../../arm-none-eabi/lib/armv7e-m\libg.a(lib_a-exit.o)
 .data          0x00000000        0x0 d:/elektronik/ides/chibistudio/tools/gnu tools arm embedded/4.6 2012q2/bin/../lib/gcc/arm-none-eabi/4.6.2/../../../../arm-none-eabi/lib/armv7e-m\libg.a(lib_a-exit.o)
 .bss           0x00000000        0x0 d:/elektronik/ides/chibistudio/tools/gnu tools arm embedded/4.6 2012q2/bin/../lib/gcc/arm-none-eabi/4.6.2/../../../../arm-none-eabi/lib/armv7e-m\libg.a(lib_a-exit.o)
 .text.exit     0x00000000       0x20 d:/elektronik/ides/chibistudio/tools/gnu tools arm embedded/4.6 2012q2/bin/../lib/gcc/arm-none-eabi/4.6.2/../../../../arm-none-eabi/lib/armv7e-m\libg.a(lib_a-exit.o)
 .text          0x00000000        0x0 d:/elektronik/ides/chibistudio/tools/gnu tools arm embedded/4.6 2012q2/bin/../lib/gcc/arm-none-eabi/4.6.2/../../../../arm-none-eabi/lib/armv7e-m\libg.a(lib_a-fini.o)
 .data          0x00000000        0x0 d:/elektronik/ides/chibistudio/tools/gnu tools arm embedded/4.6 2012q2/bin/../lib/gcc/arm-none-eabi/4.6.2/../../../../arm-none-eabi/lib/armv7e-m\libg.a(lib_a-fini.o)
 .bss           0x00000000        0x0 d:/elektronik/ides/chibistudio/tools/gnu tools arm embedded/4.6 2012q2/bin/../lib/gcc/arm-none-eabi/4.6.2/../../../../arm-none-eabi/lib/armv7e-m\libg.a(lib_a-fini.o)
 .text          0x00000000        0x0 d:/elektronik/ides/chibistudio/tools/gnu tools arm embedded/4.6 2012q2/bin/../lib/gcc/arm-none-eabi/4.6.2/../../../../arm-none-eabi/lib/armv7e-m\libg.a(lib_a-fiprintf.o)
 .data          0x00000000        0x0 d:/elektronik/ides/chibistudio/tools/gnu tools arm embedded/4.6 2012q2/bin/../lib/gcc/arm-none-eabi/4.6.2/../../../../arm-none-eabi/lib/armv7e-m\libg.a(lib_a-fiprintf.o)
 .bss           0x00000000        0x0 d:/elektronik/ides/chibistudio/tools/gnu tools arm embedded/4.6 2012q2/bin/../lib/gcc/arm-none-eabi/4.6.2/../../../../arm-none-eabi/lib/armv7e-m\libg.a(lib_a-fiprintf.o)
 .text._fiprintf_r
                0x00000000       0x20 d:/elektronik/ides/chibistudio/tools/gnu tools arm embedded/4.6 2012q2/bin/../lib/gcc/arm-none-eabi/4.6.2/../../../../arm-none-eabi/lib/armv7e-m\libg.a(lib_a-fiprintf.o)
 .text          0x00000000        0x0 d:/elektronik/ides/chibistudio/tools/gnu tools arm embedded/4.6 2012q2/bin/../lib/gcc/arm-none-eabi/4.6.2/../../../../arm-none-eabi/lib/armv7e-m\libg.a(lib_a-gmtime.o)
 .data          0x00000000        0x0 d:/elektronik/ides/chibistudio/tools/gnu tools arm embedded/4.6 2012q2/bin/../lib/gcc/arm-none-eabi/4.6.2/../../../../arm-none-eabi/lib/armv7e-m\libg.a(lib_a-gmtime.o)
 .bss           0x00000000        0x0 d:/elektronik/ides/chibistudio/tools/gnu tools arm embedded/4.6 2012q2/bin/../lib/gcc/arm-none-eabi/4.6.2/../../../../arm-none-eabi/lib/armv7e-m\libg.a(lib_a-gmtime.o)
 .text          0x00000000        0x0 d:/elektronik/ides/chibistudio/tools/gnu tools arm embedded/4.6 2012q2/bin/../lib/gcc/arm-none-eabi/4.6.2/../../../../arm-none-eabi/lib/armv7e-m\libg.a(lib_a-gmtime_r.o)
 .data          0x00000000        0x0 d:/elektronik/ides/chibistudio/tools/gnu tools arm embedded/4.6 2012q2/bin/../lib/gcc/arm-none-eabi/4.6.2/../../../../arm-none-eabi/lib/armv7e-m\libg.a(lib_a-gmtime_r.o)
 .bss           0x00000000        0x0 d:/elektronik/ides/chibistudio/tools/gnu tools arm embedded/4.6 2012q2/bin/../lib/gcc/arm-none-eabi/4.6.2/../../../../arm-none-eabi/lib/armv7e-m\libg.a(lib_a-gmtime_r.o)
 .text          0x00000000        0x0 d:/elektronik/ides/chibistudio/tools/gnu tools arm embedded/4.6 2012q2/bin/../lib/gcc/arm-none-eabi/4.6.2/../../../../arm-none-eabi/lib/armv7e-m\libg.a(lib_a-impure.o)
 .data          0x00000000        0x0 d:/elektronik/ides/chibistudio/tools/gnu tools arm embedded/4.6 2012q2/bin/../lib/gcc/arm-none-eabi/4.6.2/../../../../arm-none-eabi/lib/armv7e-m\libg.a(lib_a-impure.o)
 .bss           0x00000000        0x0 d:/elektronik/ides/chibistudio/tools/gnu tools arm embedded/4.6 2012q2/bin/../lib/gcc/arm-none-eabi/4.6.2/../../../../arm-none-eabi/lib/armv7e-m\libg.a(lib_a-impure.o)
 .text          0x00000000        0x0 d:/elektronik/ides/chibistudio/tools/gnu tools arm embedded/4.6 2012q2/bin/../lib/gcc/arm-none-eabi/4.6.2/../../../../arm-none-eabi/lib/armv7e-m\libg.a(lib_a-init.o)
 .data          0x00000000        0x0 d:/elektronik/ides/chibistudio/tools/gnu tools arm embedded/4.6 2012q2/bin/../lib/gcc/arm-none-eabi/4.6.2/../../../../arm-none-eabi/lib/armv7e-m\libg.a(lib_a-init.o)
 .bss           0x00000000        0x0 d:/elektronik/ides/chibistudio/tools/gnu tools arm embedded/4.6 2012q2/bin/../lib/gcc/arm-none-eabi/4.6.2/../../../../arm-none-eabi/lib/armv7e-m\libg.a(lib_a-init.o)
 .text          0x00000000        0x0 d:/elektronik/ides/chibistudio/tools/gnu tools arm embedded/4.6 2012q2/bin/../lib/gcc/arm-none-eabi/4.6.2/../../../../arm-none-eabi/lib/armv7e-m\libg.a(lib_a-malloc.o)
 .data          0x00000000        0x0 d:/elektronik/ides/chibistudio/tools/gnu tools arm embedded/4.6 2012q2/bin/../lib/gcc/arm-none-eabi/4.6.2/../../../../arm-none-eabi/lib/armv7e-m\libg.a(lib_a-malloc.o)
 .bss           0x00000000        0x0 d:/elektronik/ides/chibistudio/tools/gnu tools arm embedded/4.6 2012q2/bin/../lib/gcc/arm-none-eabi/4.6.2/../../../../arm-none-eabi/lib/armv7e-m\libg.a(lib_a-malloc.o)
 .text          0x00000000        0x0 d:/elektronik/ides/chibistudio/tools/gnu tools arm embedded/4.6 2012q2/bin/../lib/gcc/arm-none-eabi/4.6.2/../../../../arm-none-eabi/lib/armv7e-m\libg.a(lib_a-mallocr.o)
 .data          0x00000000        0x0 d:/elektronik/ides/chibistudio/tools/gnu tools arm embedded/4.6 2012q2/bin/../lib/gcc/arm-none-eabi/4.6.2/../../../../arm-none-eabi/lib/armv7e-m\libg.a(lib_a-mallocr.o)
 .bss           0x00000000        0x0 d:/elektronik/ides/chibistudio/tools/gnu tools arm embedded/4.6 2012q2/bin/../lib/gcc/arm-none-eabi/4.6.2/../../../../arm-none-eabi/lib/armv7e-m\libg.a(lib_a-mallocr.o)
 .text          0x00000000        0x0 d:/elektronik/ides/chibistudio/tools/gnu tools arm embedded/4.6 2012q2/bin/../lib/gcc/arm-none-eabi/4.6.2/../../../../arm-none-eabi/lib/armv7e-m\libg.a(lib_a-memcpy.o)
 .data          0x00000000        0x0 d:/elektronik/ides/chibistudio/tools/gnu tools arm embedded/4.6 2012q2/bin/../lib/gcc/arm-none-eabi/4.6.2/../../../../arm-none-eabi/lib/armv7e-m\libg.a(lib_a-memcpy.o)
 .bss           0x00000000        0x0 d:/elektronik/ides/chibistudio/tools/gnu tools arm embedded/4.6 2012q2/bin/../lib/gcc/arm-none-eabi/4.6.2/../../../../arm-none-eabi/lib/armv7e-m\libg.a(lib_a-memcpy.o)
 .text          0x00000000        0x0 d:/elektronik/ides/chibistudio/tools/gnu tools arm embedded/4.6 2012q2/bin/../lib/gcc/arm-none-eabi/4.6.2/../../../../arm-none-eabi/lib/armv7e-m\libg.a(lib_a-memmove.o)
 .data          0x00000000        0x0 d:/elektronik/ides/chibistudio/tools/gnu tools arm embedded/4.6 2012q2/bin/../lib/gcc/arm-none-eabi/4.6.2/../../../../arm-none-eabi/lib/armv7e-m\libg.a(lib_a-memmove.o)
 .bss           0x00000000        0x0 d:/elektronik/ides/chibistudio/tools/gnu tools arm embedded/4.6 2012q2/bin/../lib/gcc/arm-none-eabi/4.6.2/../../../../arm-none-eabi/lib/armv7e-m\libg.a(lib_a-memmove.o)
 .text          0x00000000        0x0 d:/elektronik/ides/chibistudio/tools/gnu tools arm embedded/4.6 2012q2/bin/../lib/gcc/arm-none-eabi/4.6.2/../../../../arm-none-eabi/lib/armv7e-m\libg.a(lib_a-memset.o)
 .data          0x00000000        0x0 d:/elektronik/ides/chibistudio/tools/gnu tools arm embedded/4.6 2012q2/bin/../lib/gcc/arm-none-eabi/4.6.2/../../../../arm-none-eabi/lib/armv7e-m\libg.a(lib_a-memset.o)
 .bss           0x00000000        0x0 d:/elektronik/ides/chibistudio/tools/gnu tools arm embedded/4.6 2012q2/bin/../lib/gcc/arm-none-eabi/4.6.2/../../../../arm-none-eabi/lib/armv7e-m\libg.a(lib_a-memset.o)
 .text          0x00000000        0x0 d:/elektronik/ides/chibistudio/tools/gnu tools arm embedded/4.6 2012q2/bin/../lib/gcc/arm-none-eabi/4.6.2/../../../../arm-none-eabi/lib/armv7e-m\libg.a(lib_a-mktime.o)
 .data          0x00000000        0x0 d:/elektronik/ides/chibistudio/tools/gnu tools arm embedded/4.6 2012q2/bin/../lib/gcc/arm-none-eabi/4.6.2/../../../../arm-none-eabi/lib/armv7e-m\libg.a(lib_a-mktime.o)
 .bss           0x00000000        0x0 d:/elektronik/ides/chibistudio/tools/gnu tools arm embedded/4.6 2012q2/bin/../lib/gcc/arm-none-eabi/4.6.2/../../../../arm-none-eabi/lib/armv7e-m\libg.a(lib_a-mktime.o)
 .text          0x00000000        0x0 d:/elektronik/ides/chibistudio/tools/gnu tools arm embedded/4.6 2012q2/bin/../lib/gcc/arm-none-eabi/4.6.2/../../../../arm-none-eabi/lib/armv7e-m\libg.a(lib_a-mktm_r.o)
 .data          0x00000000        0x0 d:/elektronik/ides/chibistudio/tools/gnu tools arm embedded/4.6 2012q2/bin/../lib/gcc/arm-none-eabi/4.6.2/../../../../arm-none-eabi/lib/armv7e-m\libg.a(lib_a-mktm_r.o)
 .bss           0x00000000        0x0 d:/elektronik/ides/chibistudio/tools/gnu tools arm embedded/4.6 2012q2/bin/../lib/gcc/arm-none-eabi/4.6.2/../../../../arm-none-eabi/lib/armv7e-m\libg.a(lib_a-mktm_r.o)
 .text          0x00000000        0x0 d:/elektronik/ides/chibistudio/tools/gnu tools arm embedded/4.6 2012q2/bin/../lib/gcc/arm-none-eabi/4.6.2/../../../../arm-none-eabi/lib/armv7e-m\libg.a(lib_a-sbrkr.o)
 .data          0x00000000        0x0 d:/elektronik/ides/chibistudio/tools/gnu tools arm embedded/4.6 2012q2/bin/../lib/gcc/arm-none-eabi/4.6.2/../../../../arm-none-eabi/lib/armv7e-m\libg.a(lib_a-sbrkr.o)
 .bss           0x00000000        0x0 d:/elektronik/ides/chibistudio/tools/gnu tools arm embedded/4.6 2012q2/bin/../lib/gcc/arm-none-eabi/4.6.2/../../../../arm-none-eabi/lib/armv7e-m\libg.a(lib_a-sbrkr.o)
 .text          0x00000000        0x0 d:/elektronik/ides/chibistudio/tools/gnu tools arm embedded/4.6 2012q2/bin/../lib/gcc/arm-none-eabi/4.6.2/../../../../arm-none-eabi/lib/armv7e-m\libg.a(lib_a-sprintf.o)
 .data          0x00000000        0x0 d:/elektronik/ides/chibistudio/tools/gnu tools arm embedded/4.6 2012q2/bin/../lib/gcc/arm-none-eabi/4.6.2/../../../../arm-none-eabi/lib/armv7e-m\libg.a(lib_a-sprintf.o)
 .bss           0x00000000        0x0 d:/elektronik/ides/chibistudio/tools/gnu tools arm embedded/4.6 2012q2/bin/../lib/gcc/arm-none-eabi/4.6.2/../../../../arm-none-eabi/lib/armv7e-m\libg.a(lib_a-sprintf.o)
 .text._sprintf_r
                0x00000000       0x44 d:/elektronik/ides/chibistudio/tools/gnu tools arm embedded/4.6 2012q2/bin/../lib/gcc/arm-none-eabi/4.6.2/../../../../arm-none-eabi/lib/armv7e-m\libg.a(lib_a-sprintf.o)
 .text          0x00000000        0x0 d:/elektronik/ides/chibistudio/tools/gnu tools arm embedded/4.6 2012q2/bin/../lib/gcc/arm-none-eabi/4.6.2/../../../../arm-none-eabi/lib/armv7e-m\libg.a(lib_a-strcat.o)
 .data          0x00000000        0x0 d:/elektronik/ides/chibistudio/tools/gnu tools arm embedded/4.6 2012q2/bin/../lib/gcc/arm-none-eabi/4.6.2/../../../../arm-none-eabi/lib/armv7e-m\libg.a(lib_a-strcat.o)
 .bss           0x00000000        0x0 d:/elektronik/ides/chibistudio/tools/gnu tools arm embedded/4.6 2012q2/bin/../lib/gcc/arm-none-eabi/4.6.2/../../../../arm-none-eabi/lib/armv7e-m\libg.a(lib_a-strcat.o)
 .text          0x00000000        0x0 d:/elektronik/ides/chibistudio/tools/gnu tools arm embedded/4.6 2012q2/bin/../lib/gcc/arm-none-eabi/4.6.2/../../../../arm-none-eabi/lib/armv7e-m\libg.a(lib_a-strcpy.o)
 .data          0x00000000        0x0 d:/elektronik/ides/chibistudio/tools/gnu tools arm embedded/4.6 2012q2/bin/../lib/gcc/arm-none-eabi/4.6.2/../../../../arm-none-eabi/lib/armv7e-m\libg.a(lib_a-strcpy.o)
 .bss           0x00000000        0x0 d:/elektronik/ides/chibistudio/tools/gnu tools arm embedded/4.6 2012q2/bin/../lib/gcc/arm-none-eabi/4.6.2/../../../../arm-none-eabi/lib/armv7e-m\libg.a(lib_a-strcpy.o)
 .text          0x00000000        0x0 d:/elektronik/ides/chibistudio/tools/gnu tools arm embedded/4.6 2012q2/bin/../lib/gcc/arm-none-eabi/4.6.2/../../../../arm-none-eabi/lib/armv7e-m\libg.a(lib_a-strftime.o)
 .data          0x00000000        0x0 d:/elektronik/ides/chibistudio/tools/gnu tools arm embedded/4.6 2012q2/bin/../lib/gcc/arm-none-eabi/4.6.2/../../../../arm-none-eabi/lib/armv7e-m\libg.a(lib_a-strftime.o)
 .bss           0x00000000        0x0 d:/elektronik/ides/chibistudio/tools/gnu tools arm embedded/4.6 2012q2/bin/../lib/gcc/arm-none-eabi/4.6.2/../../../../arm-none-eabi/lib/armv7e-m\libg.a(lib_a-strftime.o)
 .text          0x00000000        0x0 d:/elektronik/ides/chibistudio/tools/gnu tools arm embedded/4.6 2012q2/bin/../lib/gcc/arm-none-eabi/4.6.2/../../../../arm-none-eabi/lib/armv7e-m\libg.a(lib_a-strlen.o)
 .data          0x00000000        0x0 d:/elektronik/ides/chibistudio/tools/gnu tools arm embedded/4.6 2012q2/bin/../lib/gcc/arm-none-eabi/4.6.2/../../../../arm-none-eabi/lib/armv7e-m\libg.a(lib_a-strlen.o)
 .bss           0x00000000        0x0 d:/elektronik/ides/chibistudio/tools/gnu tools arm embedded/4.6 2012q2/bin/../lib/gcc/arm-none-eabi/4.6.2/../../../../arm-none-eabi/lib/armv7e-m\libg.a(lib_a-strlen.o)
 .text          0x00000000        0x0 d:/elektronik/ides/chibistudio/tools/gnu tools arm embedded/4.6 2012q2/bin/../lib/gcc/arm-none-eabi/4.6.2/../../../../arm-none-eabi/lib/armv7e-m\libg.a(lib_a-strncpy.o)
 .data          0x00000000        0x0 d:/elektronik/ides/chibistudio/tools/gnu tools arm embedded/4.6 2012q2/bin/../lib/gcc/arm-none-eabi/4.6.2/../../../../arm-none-eabi/lib/armv7e-m\libg.a(lib_a-strncpy.o)
 .bss           0x00000000        0x0 d:/elektronik/ides/chibistudio/tools/gnu tools arm embedded/4.6 2012q2/bin/../lib/gcc/arm-none-eabi/4.6.2/../../../../arm-none-eabi/lib/armv7e-m\libg.a(lib_a-strncpy.o)
 .text          0x00000000        0x0 d:/elektronik/ides/chibistudio/tools/gnu tools arm embedded/4.6 2012q2/bin/../lib/gcc/arm-none-eabi/4.6.2/../../../../arm-none-eabi/lib/armv7e-m\libg.a(lib_a-strtoul.o)
 .data          0x00000000        0x0 d:/elektronik/ides/chibistudio/tools/gnu tools arm embedded/4.6 2012q2/bin/../lib/gcc/arm-none-eabi/4.6.2/../../../../arm-none-eabi/lib/armv7e-m\libg.a(lib_a-strtoul.o)
 .bss           0x00000000        0x0 d:/elektronik/ides/chibistudio/tools/gnu tools arm embedded/4.6 2012q2/bin/../lib/gcc/arm-none-eabi/4.6.2/../../../../arm-none-eabi/lib/armv7e-m\libg.a(lib_a-strtoul.o)
 .text          0x00000000        0x0 d:/elektronik/ides/chibistudio/tools/gnu tools arm embedded/4.6 2012q2/bin/../lib/gcc/arm-none-eabi/4.6.2/../../../../arm-none-eabi/lib/armv7e-m\libg.a(lib_a-svfprintf.o)
 .data          0x00000000        0x0 d:/elektronik/ides/chibistudio/tools/gnu tools arm embedded/4.6 2012q2/bin/../lib/gcc/arm-none-eabi/4.6.2/../../../../arm-none-eabi/lib/armv7e-m\libg.a(lib_a-svfprintf.o)
 .bss           0x00000000        0x0 d:/elektronik/ides/chibistudio/tools/gnu tools arm embedded/4.6 2012q2/bin/../lib/gcc/arm-none-eabi/4.6.2/../../../../arm-none-eabi/lib/armv7e-m\libg.a(lib_a-svfprintf.o)
 .text          0x00000000        0x0 d:/elektronik/ides/chibistudio/tools/gnu tools arm embedded/4.6 2012q2/bin/../lib/gcc/arm-none-eabi/4.6.2/../../../../arm-none-eabi/lib/armv7e-m\libg.a(lib_a-timelocal.o)
 .data          0x00000000        0x0 d:/elektronik/ides/chibistudio/tools/gnu tools arm embedded/4.6 2012q2/bin/../lib/gcc/arm-none-eabi/4.6.2/../../../../arm-none-eabi/lib/armv7e-m\libg.a(lib_a-timelocal.o)
 .bss           0x00000000        0x0 d:/elektronik/ides/chibistudio/tools/gnu tools arm embedded/4.6 2012q2/bin/../lib/gcc/arm-none-eabi/4.6.2/../../../../arm-none-eabi/lib/armv7e-m\libg.a(lib_a-timelocal.o)
 .text.__time_load_locale
                0x00000000       0x38 d:/elektronik/ides/chibistudio/tools/gnu tools arm embedded/4.6 2012q2/bin/../lib/gcc/arm-none-eabi/4.6.2/../../../../arm-none-eabi/lib/armv7e-m\libg.a(lib_a-timelocal.o)
 .bss.time_locale_buf
                0x00000000        0x4 d:/elektronik/ides/chibistudio/tools/gnu tools arm embedded/4.6 2012q2/bin/../lib/gcc/arm-none-eabi/4.6.2/../../../../arm-none-eabi/lib/armv7e-m\libg.a(lib_a-timelocal.o)
 .text          0x00000000        0x0 d:/elektronik/ides/chibistudio/tools/gnu tools arm embedded/4.6 2012q2/bin/../lib/gcc/arm-none-eabi/4.6.2/../../../../arm-none-eabi/lib/armv7e-m\libg.a(lib_a-toupper.o)
 .data          0x00000000        0x0 d:/elektronik/ides/chibistudio/tools/gnu tools arm embedded/4.6 2012q2/bin/../lib/gcc/arm-none-eabi/4.6.2/../../../../arm-none-eabi/lib/armv7e-m\libg.a(lib_a-toupper.o)
 .bss           0x00000000        0x0 d:/elektronik/ides/chibistudio/tools/gnu tools arm embedded/4.6 2012q2/bin/../lib/gcc/arm-none-eabi/4.6.2/../../../../arm-none-eabi/lib/armv7e-m\libg.a(lib_a-toupper.o)
 .text          0x00000000        0x0 d:/elektronik/ides/chibistudio/tools/gnu tools arm embedded/4.6 2012q2/bin/../lib/gcc/arm-none-eabi/4.6.2/../../../../arm-none-eabi/lib/armv7e-m\libg.a(lib_a-tzlock.o)
 .data          0x00000000        0x0 d:/elektronik/ides/chibistudio/tools/gnu tools arm embedded/4.6 2012q2/bin/../lib/gcc/arm-none-eabi/4.6.2/../../../../arm-none-eabi/lib/armv7e-m\libg.a(lib_a-tzlock.o)
 .bss           0x00000000        0x0 d:/elektronik/ides/chibistudio/tools/gnu tools arm embedded/4.6 2012q2/bin/../lib/gcc/arm-none-eabi/4.6.2/../../../../arm-none-eabi/lib/armv7e-m\libg.a(lib_a-tzlock.o)
 .text          0x00000000        0x0 d:/elektronik/ides/chibistudio/tools/gnu tools arm embedded/4.6 2012q2/bin/../lib/gcc/arm-none-eabi/4.6.2/../../../../arm-none-eabi/lib/armv7e-m\libg.a(lib_a-tzvars.o)
 .data          0x00000000        0x0 d:/elektronik/ides/chibistudio/tools/gnu tools arm embedded/4.6 2012q2/bin/../lib/gcc/arm-none-eabi/4.6.2/../../../../arm-none-eabi/lib/armv7e-m\libg.a(lib_a-tzvars.o)
 .bss           0x00000000        0x0 d:/elektronik/ides/chibistudio/tools/gnu tools arm embedded/4.6 2012q2/bin/../lib/gcc/arm-none-eabi/4.6.2/../../../../arm-none-eabi/lib/armv7e-m\libg.a(lib_a-tzvars.o)
 .bss._timezone
                0x00000000        0x4 d:/elektronik/ides/chibistudio/tools/gnu tools arm embedded/4.6 2012q2/bin/../lib/gcc/arm-none-eabi/4.6.2/../../../../arm-none-eabi/lib/armv7e-m\libg.a(lib_a-tzvars.o)
 .text          0x00000000        0x0 d:/elektronik/ides/chibistudio/tools/gnu tools arm embedded/4.6 2012q2/bin/../lib/gcc/arm-none-eabi/4.6.2/../../../../arm-none-eabi/lib/armv7e-m\libg.a(lib_a-vfiprintf.o)
 .data          0x00000000        0x0 d:/elektronik/ides/chibistudio/tools/gnu tools arm embedded/4.6 2012q2/bin/../lib/gcc/arm-none-eabi/4.6.2/../../../../arm-none-eabi/lib/armv7e-m\libg.a(lib_a-vfiprintf.o)
 .bss           0x00000000        0x0 d:/elektronik/ides/chibistudio/tools/gnu tools arm embedded/4.6 2012q2/bin/../lib/gcc/arm-none-eabi/4.6.2/../../../../arm-none-eabi/lib/armv7e-m\libg.a(lib_a-vfiprintf.o)
 .text.vfiprintf
                0x00000000       0x1c d:/elektronik/ides/chibistudio/tools/gnu tools arm embedded/4.6 2012q2/bin/../lib/gcc/arm-none-eabi/4.6.2/../../../../arm-none-eabi/lib/armv7e-m\libg.a(lib_a-vfiprintf.o)
 .text          0x00000000        0x0 d:/elektronik/ides/chibistudio/tools/gnu tools arm embedded/4.6 2012q2/bin/../lib/gcc/arm-none-eabi/4.6.2/../../../../arm-none-eabi/lib/armv7e-m\libg.a(lib_a-wsetup.o)
 .data          0x00000000        0x0 d:/elektronik/ides/chibistudio/tools/gnu tools arm embedded/4.6 2012q2/bin/../lib/gcc/arm-none-eabi/4.6.2/../../../../arm-none-eabi/lib/armv7e-m\libg.a(lib_a-wsetup.o)
 .bss           0x00000000        0x0 d:/elektronik/ides/chibistudio/tools/gnu tools arm embedded/4.6 2012q2/bin/../lib/gcc/arm-none-eabi/4.6.2/../../../../arm-none-eabi/lib/armv7e-m\libg.a(lib_a-wsetup.o)
 .text          0x00000000        0x0 d:/elektronik/ides/chibistudio/tools/gnu tools arm embedded/4.6 2012q2/bin/../lib/gcc/arm-none-eabi/4.6.2/../../../../arm-none-eabi/lib/armv7e-m\libg.a(lib_a-__atexit.o)
 .data          0x00000000        0x0 d:/elektronik/ides/chibistudio/tools/gnu tools arm embedded/4.6 2012q2/bin/../lib/gcc/arm-none-eabi/4.6.2/../../../../arm-none-eabi/lib/armv7e-m\libg.a(lib_a-__atexit.o)
 .bss           0x00000000        0x0 d:/elektronik/ides/chibistudio/tools/gnu tools arm embedded/4.6 2012q2/bin/../lib/gcc/arm-none-eabi/4.6.2/../../../../arm-none-eabi/lib/armv7e-m\libg.a(lib_a-__atexit.o)
 .text          0x00000000        0x0 d:/elektronik/ides/chibistudio/tools/gnu tools arm embedded/4.6 2012q2/bin/../lib/gcc/arm-none-eabi/4.6.2/../../../../arm-none-eabi/lib/armv7e-m\libg.a(lib_a-__call_atexit.o)
 .data          0x00000000        0x0 d:/elektronik/ides/chibistudio/tools/gnu tools arm embedded/4.6 2012q2/bin/../lib/gcc/arm-none-eabi/4.6.2/../../../../arm-none-eabi/lib/armv7e-m\libg.a(lib_a-__call_atexit.o)
 .bss           0x00000000        0x0 d:/elektronik/ides/chibistudio/tools/gnu tools arm embedded/4.6 2012q2/bin/../lib/gcc/arm-none-eabi/4.6.2/../../../../arm-none-eabi/lib/armv7e-m\libg.a(lib_a-__call_atexit.o)
 .text.__call_exitprocs
                0x00000000       0xd8 d:/elektronik/ides/chibistudio/tools/gnu tools arm embedded/4.6 2012q2/bin/../lib/gcc/arm-none-eabi/4.6.2/../../../../arm-none-eabi/lib/armv7e-m\libg.a(lib_a-__call_atexit.o)
 .text          0x00000000        0x0 d:/elektronik/ides/chibistudio/tools/gnu tools arm embedded/4.6 2012q2/bin/../lib/gcc/arm-none-eabi/4.6.2/../../../../arm-none-eabi/lib/armv7e-m\libg.a(lib_a-abort.o)
 .data          0x00000000        0x0 d:/elektronik/ides/chibistudio/tools/gnu tools arm embedded/4.6 2012q2/bin/../lib/gcc/arm-none-eabi/4.6.2/../../../../arm-none-eabi/lib/armv7e-m\libg.a(lib_a-abort.o)
 .bss           0x00000000        0x0 d:/elektronik/ides/chibistudio/tools/gnu tools arm embedded/4.6 2012q2/bin/../lib/gcc/arm-none-eabi/4.6.2/../../../../arm-none-eabi/lib/armv7e-m\libg.a(lib_a-abort.o)
 .text          0x00000000        0x0 d:/elektronik/ides/chibistudio/tools/gnu tools arm embedded/4.6 2012q2/bin/../lib/gcc/arm-none-eabi/4.6.2/../../../../arm-none-eabi/lib/armv7e-m\libg.a(lib_a-abs.o)
 .data          0x00000000        0x0 d:/elektronik/ides/chibistudio/tools/gnu tools arm embedded/4.6 2012q2/bin/../lib/gcc/arm-none-eabi/4.6.2/../../../../arm-none-eabi/lib/armv7e-m\libg.a(lib_a-abs.o)
 .bss           0x00000000        0x0 d:/elektronik/ides/chibistudio/tools/gnu tools arm embedded/4.6 2012q2/bin/../lib/gcc/arm-none-eabi/4.6.2/../../../../arm-none-eabi/lib/armv7e-m\libg.a(lib_a-abs.o)
 .text          0x00000000        0x0 d:/elektronik/ides/chibistudio/tools/gnu tools arm embedded/4.6 2012q2/bin/../lib/gcc/arm-none-eabi/4.6.2/../../../../arm-none-eabi/lib/armv7e-m\libg.a(lib_a-ctype_.o)
 .data          0x00000000        0x0 d:/elektronik/ides/chibistudio/tools/gnu tools arm embedded/4.6 2012q2/bin/../lib/gcc/arm-none-eabi/4.6.2/../../../../arm-none-eabi/lib/armv7e-m\libg.a(lib_a-ctype_.o)
 .bss           0x00000000        0x0 d:/elektronik/ides/chibistudio/tools/gnu tools arm embedded/4.6 2012q2/bin/../lib/gcc/arm-none-eabi/4.6.2/../../../../arm-none-eabi/lib/armv7e-m\libg.a(lib_a-ctype_.o)
 .text          0x00000000        0x0 d:/elektronik/ides/chibistudio/tools/gnu tools arm embedded/4.6 2012q2/bin/../lib/gcc/arm-none-eabi/4.6.2/../../../../arm-none-eabi/lib/armv7e-m\libg.a(lib_a-div.o)
 .data          0x00000000        0x0 d:/elektronik/ides/chibistudio/tools/gnu tools arm embedded/4.6 2012q2/bin/../lib/gcc/arm-none-eabi/4.6.2/../../../../arm-none-eabi/lib/armv7e-m\libg.a(lib_a-div.o)
 .bss           0x00000000        0x0 d:/elektronik/ides/chibistudio/tools/gnu tools arm embedded/4.6 2012q2/bin/../lib/gcc/arm-none-eabi/4.6.2/../../../../arm-none-eabi/lib/armv7e-m\libg.a(lib_a-div.o)
 .text          0x00000000        0x0 d:/elektronik/ides/chibistudio/tools/gnu tools arm embedded/4.6 2012q2/bin/../lib/gcc/arm-none-eabi/4.6.2/../../../../arm-none-eabi/lib/armv7e-m\libg.a(lib_a-dtoa.o)
 .data          0x00000000        0x0 d:/elektronik/ides/chibistudio/tools/gnu tools arm embedded/4.6 2012q2/bin/../lib/gcc/arm-none-eabi/4.6.2/../../../../arm-none-eabi/lib/armv7e-m\libg.a(lib_a-dtoa.o)
 .bss           0x00000000        0x0 d:/elektronik/ides/chibistudio/tools/gnu tools arm embedded/4.6 2012q2/bin/../lib/gcc/arm-none-eabi/4.6.2/../../../../arm-none-eabi/lib/armv7e-m\libg.a(lib_a-dtoa.o)
 .text          0x00000000        0x0 d:/elektronik/ides/chibistudio/tools/gnu tools arm embedded/4.6 2012q2/bin/../lib/gcc/arm-none-eabi/4.6.2/../../../../arm-none-eabi/lib/armv7e-m\libg.a(lib_a-fflush.o)
 .data          0x00000000        0x0 d:/elektronik/ides/chibistudio/tools/gnu tools arm embedded/4.6 2012q2/bin/../lib/gcc/arm-none-eabi/4.6.2/../../../../arm-none-eabi/lib/armv7e-m\libg.a(lib_a-fflush.o)
 .bss           0x00000000        0x0 d:/elektronik/ides/chibistudio/tools/gnu tools arm embedded/4.6 2012q2/bin/../lib/gcc/arm-none-eabi/4.6.2/../../../../arm-none-eabi/lib/armv7e-m\libg.a(lib_a-fflush.o)
 .text.fflush   0x00000000       0x24 d:/elektronik/ides/chibistudio/tools/gnu tools arm embedded/4.6 2012q2/bin/../lib/gcc/arm-none-eabi/4.6.2/../../../../arm-none-eabi/lib/armv7e-m\libg.a(lib_a-fflush.o)
 .text          0x00000000        0x0 d:/elektronik/ides/chibistudio/tools/gnu tools arm embedded/4.6 2012q2/bin/../lib/gcc/arm-none-eabi/4.6.2/../../../../arm-none-eabi/lib/armv7e-m\libg.a(lib_a-findfp.o)
 .data          0x00000000        0x0 d:/elektronik/ides/chibistudio/tools/gnu tools arm embedded/4.6 2012q2/bin/../lib/gcc/arm-none-eabi/4.6.2/../../../../arm-none-eabi/lib/armv7e-m\libg.a(lib_a-findfp.o)
 .bss           0x00000000        0x0 d:/elektronik/ides/chibistudio/tools/gnu tools arm embedded/4.6 2012q2/bin/../lib/gcc/arm-none-eabi/4.6.2/../../../../arm-none-eabi/lib/armv7e-m\libg.a(lib_a-findfp.o)
 .text.__fp_lock
                0x00000000        0x4 d:/elektronik/ides/chibistudio/tools/gnu tools arm embedded/4.6 2012q2/bin/../lib/gcc/arm-none-eabi/4.6.2/../../../../arm-none-eabi/lib/armv7e-m\libg.a(lib_a-findfp.o)
 .text.__fp_unlock
                0x00000000        0x4 d:/elektronik/ides/chibistudio/tools/gnu tools arm embedded/4.6 2012q2/bin/../lib/gcc/arm-none-eabi/4.6.2/../../../../arm-none-eabi/lib/armv7e-m\libg.a(lib_a-findfp.o)
 .text.__sfmoreglue
                0x00000000       0x2c d:/elektronik/ides/chibistudio/tools/gnu tools arm embedded/4.6 2012q2/bin/../lib/gcc/arm-none-eabi/4.6.2/../../../../arm-none-eabi/lib/armv7e-m\libg.a(lib_a-findfp.o)
 .text._cleanup
                0x00000000       0x10 d:/elektronik/ides/chibistudio/tools/gnu tools arm embedded/4.6 2012q2/bin/../lib/gcc/arm-none-eabi/4.6.2/../../../../arm-none-eabi/lib/armv7e-m\libg.a(lib_a-findfp.o)
 .text.__sfp    0x00000000       0x98 d:/elektronik/ides/chibistudio/tools/gnu tools arm embedded/4.6 2012q2/bin/../lib/gcc/arm-none-eabi/4.6.2/../../../../arm-none-eabi/lib/armv7e-m\libg.a(lib_a-findfp.o)
 .text.__sinit_lock_acquire
                0x00000000        0x4 d:/elektronik/ides/chibistudio/tools/gnu tools arm embedded/4.6 2012q2/bin/../lib/gcc/arm-none-eabi/4.6.2/../../../../arm-none-eabi/lib/armv7e-m\libg.a(lib_a-findfp.o)
 .text.__sinit_lock_release
                0x00000000        0x4 d:/elektronik/ides/chibistudio/tools/gnu tools arm embedded/4.6 2012q2/bin/../lib/gcc/arm-none-eabi/4.6.2/../../../../arm-none-eabi/lib/armv7e-m\libg.a(lib_a-findfp.o)
 .text.__fp_lock_all
                0x00000000       0x18 d:/elektronik/ides/chibistudio/tools/gnu tools arm embedded/4.6 2012q2/bin/../lib/gcc/arm-none-eabi/4.6.2/../../../../arm-none-eabi/lib/armv7e-m\libg.a(lib_a-findfp.o)
 .text.__fp_unlock_all
                0x00000000       0x18 d:/elektronik/ides/chibistudio/tools/gnu tools arm embedded/4.6 2012q2/bin/../lib/gcc/arm-none-eabi/4.6.2/../../../../arm-none-eabi/lib/armv7e-m\libg.a(lib_a-findfp.o)
 .text          0x00000000        0x0 d:/elektronik/ides/chibistudio/tools/gnu tools arm embedded/4.6 2012q2/bin/../lib/gcc/arm-none-eabi/4.6.2/../../../../arm-none-eabi/lib/armv7e-m\libg.a(lib_a-fputwc.o)
 .data          0x00000000        0x0 d:/elektronik/ides/chibistudio/tools/gnu tools arm embedded/4.6 2012q2/bin/../lib/gcc/arm-none-eabi/4.6.2/../../../../arm-none-eabi/lib/armv7e-m\libg.a(lib_a-fputwc.o)
 .bss           0x00000000        0x0 d:/elektronik/ides/chibistudio/tools/gnu tools arm embedded/4.6 2012q2/bin/../lib/gcc/arm-none-eabi/4.6.2/../../../../arm-none-eabi/lib/armv7e-m\libg.a(lib_a-fputwc.o)
 .text.fputwc   0x00000000       0x2c d:/elektronik/ides/chibistudio/tools/gnu tools arm embedded/4.6 2012q2/bin/../lib/gcc/arm-none-eabi/4.6.2/../../../../arm-none-eabi/lib/armv7e-m\libg.a(lib_a-fputwc.o)
 .text          0x00000000        0x0 d:/elektronik/ides/chibistudio/tools/gnu tools arm embedded/4.6 2012q2/bin/../lib/gcc/arm-none-eabi/4.6.2/../../../../arm-none-eabi/lib/armv7e-m\libg.a(lib_a-freer.o)
 .data          0x00000000        0x0 d:/elektronik/ides/chibistudio/tools/gnu tools arm embedded/4.6 2012q2/bin/../lib/gcc/arm-none-eabi/4.6.2/../../../../arm-none-eabi/lib/armv7e-m\libg.a(lib_a-freer.o)
 .bss           0x00000000        0x0 d:/elektronik/ides/chibistudio/tools/gnu tools arm embedded/4.6 2012q2/bin/../lib/gcc/arm-none-eabi/4.6.2/../../../../arm-none-eabi/lib/armv7e-m\libg.a(lib_a-freer.o)
 .text          0x00000000        0x0 d:/elektronik/ides/chibistudio/tools/gnu tools arm embedded/4.6 2012q2/bin/../lib/gcc/arm-none-eabi/4.6.2/../../../../arm-none-eabi/lib/armv7e-m\libg.a(lib_a-fvwrite.o)
 .data          0x00000000        0x0 d:/elektronik/ides/chibistudio/tools/gnu tools arm embedded/4.6 2012q2/bin/../lib/gcc/arm-none-eabi/4.6.2/../../../../arm-none-eabi/lib/armv7e-m\libg.a(lib_a-fvwrite.o)
 .bss           0x00000000        0x0 d:/elektronik/ides/chibistudio/tools/gnu tools arm embedded/4.6 2012q2/bin/../lib/gcc/arm-none-eabi/4.6.2/../../../../arm-none-eabi/lib/armv7e-m\libg.a(lib_a-fvwrite.o)
 .text          0x00000000        0x0 d:/elektronik/ides/chibistudio/tools/gnu tools arm embedded/4.6 2012q2/bin/../lib/gcc/arm-none-eabi/4.6.2/../../../../arm-none-eabi/lib/armv7e-m\libg.a(lib_a-fwalk.o)
 .data          0x00000000        0x0 d:/elektronik/ides/chibistudio/tools/gnu tools arm embedded/4.6 2012q2/bin/../lib/gcc/arm-none-eabi/4.6.2/../../../../arm-none-eabi/lib/armv7e-m\libg.a(lib_a-fwalk.o)
 .bss           0x00000000        0x0 d:/elektronik/ides/chibistudio/tools/gnu tools arm embedded/4.6 2012q2/bin/../lib/gcc/arm-none-eabi/4.6.2/../../../../arm-none-eabi/lib/armv7e-m\libg.a(lib_a-fwalk.o)
 .text._fwalk_reent
                0x00000000       0x58 d:/elektronik/ides/chibistudio/tools/gnu tools arm embedded/4.6 2012q2/bin/../lib/gcc/arm-none-eabi/4.6.2/../../../../arm-none-eabi/lib/armv7e-m\libg.a(lib_a-fwalk.o)
 .text          0x00000000        0x0 d:/elektronik/ides/chibistudio/tools/gnu tools arm embedded/4.6 2012q2/bin/../lib/gcc/arm-none-eabi/4.6.2/../../../../arm-none-eabi/lib/armv7e-m\libg.a(lib_a-gettzinfo.o)
 .data          0x00000000        0x0 d:/elektronik/ides/chibistudio/tools/gnu tools arm embedded/4.6 2012q2/bin/../lib/gcc/arm-none-eabi/4.6.2/../../../../arm-none-eabi/lib/armv7e-m\libg.a(lib_a-gettzinfo.o)
 .bss           0x00000000        0x0 d:/elektronik/ides/chibistudio/tools/gnu tools arm embedded/4.6 2012q2/bin/../lib/gcc/arm-none-eabi/4.6.2/../../../../arm-none-eabi/lib/armv7e-m\libg.a(lib_a-gettzinfo.o)
 .text          0x00000000        0x0 d:/elektronik/ides/chibistudio/tools/gnu tools arm embedded/4.6 2012q2/bin/../lib/gcc/arm-none-eabi/4.6.2/../../../../arm-none-eabi/lib/armv7e-m\libg.a(lib_a-labs.o)
 .data          0x00000000        0x0 d:/elektronik/ides/chibistudio/tools/gnu tools arm embedded/4.6 2012q2/bin/../lib/gcc/arm-none-eabi/4.6.2/../../../../arm-none-eabi/lib/armv7e-m\libg.a(lib_a-labs.o)
 .bss           0x00000000        0x0 d:/elektronik/ides/chibistudio/tools/gnu tools arm embedded/4.6 2012q2/bin/../lib/gcc/arm-none-eabi/4.6.2/../../../../arm-none-eabi/lib/armv7e-m\libg.a(lib_a-labs.o)
 .text          0x00000000        0x0 d:/elektronik/ides/chibistudio/tools/gnu tools arm embedded/4.6 2012q2/bin/../lib/gcc/arm-none-eabi/4.6.2/../../../../arm-none-eabi/lib/armv7e-m\libg.a(lib_a-ldpart.o)
 .data          0x00000000        0x0 d:/elektronik/ides/chibistudio/tools/gnu tools arm embedded/4.6 2012q2/bin/../lib/gcc/arm-none-eabi/4.6.2/../../../../arm-none-eabi/lib/armv7e-m\libg.a(lib_a-ldpart.o)
 .bss           0x00000000        0x0 d:/elektronik/ides/chibistudio/tools/gnu tools arm embedded/4.6 2012q2/bin/../lib/gcc/arm-none-eabi/4.6.2/../../../../arm-none-eabi/lib/armv7e-m\libg.a(lib_a-ldpart.o)
 .text.__part_load_locale
                0x00000000      0x1cc d:/elektronik/ides/chibistudio/tools/gnu tools arm embedded/4.6 2012q2/bin/../lib/gcc/arm-none-eabi/4.6.2/../../../../arm-none-eabi/lib/armv7e-m\libg.a(lib_a-ldpart.o)
 .data.locale_buf_C.4596
                0x00000000        0x4 d:/elektronik/ides/chibistudio/tools/gnu tools arm embedded/4.6 2012q2/bin/../lib/gcc/arm-none-eabi/4.6.2/../../../../arm-none-eabi/lib/armv7e-m\libg.a(lib_a-ldpart.o)
 .rodata.str1.4
                0x00000000       0x10 d:/elektronik/ides/chibistudio/tools/gnu tools arm embedded/4.6 2012q2/bin/../lib/gcc/arm-none-eabi/4.6.2/../../../../arm-none-eabi/lib/armv7e-m\libg.a(lib_a-ldpart.o)
 .bss.num_lines.4597
                0x00000000        0x4 d:/elektronik/ides/chibistudio/tools/gnu tools arm embedded/4.6 2012q2/bin/../lib/gcc/arm-none-eabi/4.6.2/../../../../arm-none-eabi/lib/armv7e-m\libg.a(lib_a-ldpart.o)
 .text          0x00000000        0x0 d:/elektronik/ides/chibistudio/tools/gnu tools arm embedded/4.6 2012q2/bin/../lib/gcc/arm-none-eabi/4.6.2/../../../../arm-none-eabi/lib/armv7e-m\libg.a(lib_a-locale.o)
 .data          0x00000000        0x0 d:/elektronik/ides/chibistudio/tools/gnu tools arm embedded/4.6 2012q2/bin/../lib/gcc/arm-none-eabi/4.6.2/../../../../arm-none-eabi/lib/armv7e-m\libg.a(lib_a-locale.o)
 .bss           0x00000000        0x0 d:/elektronik/ides/chibistudio/tools/gnu tools arm embedded/4.6 2012q2/bin/../lib/gcc/arm-none-eabi/4.6.2/../../../../arm-none-eabi/lib/armv7e-m\libg.a(lib_a-locale.o)
 .text._setlocale_r
                0x00000000       0x44 d:/elektronik/ides/chibistudio/tools/gnu tools arm embedded/4.6 2012q2/bin/../lib/gcc/arm-none-eabi/4.6.2/../../../../arm-none-eabi/lib/armv7e-m\libg.a(lib_a-locale.o)
 .text.__locale_msgcharset
                0x00000000        0xc d:/elektronik/ides/chibistudio/tools/gnu tools arm embedded/4.6 2012q2/bin/../lib/gcc/arm-none-eabi/4.6.2/../../../../arm-none-eabi/lib/armv7e-m\libg.a(lib_a-locale.o)
 .text.__locale_cjk_lang
                0x00000000        0x4 d:/elektronik/ides/chibistudio/tools/gnu tools arm embedded/4.6 2012q2/bin/../lib/gcc/arm-none-eabi/4.6.2/../../../../arm-none-eabi/lib/armv7e-m\libg.a(lib_a-locale.o)
 .text.setlocale
                0x00000000       0x14 d:/elektronik/ides/chibistudio/tools/gnu tools arm embedded/4.6 2012q2/bin/../lib/gcc/arm-none-eabi/4.6.2/../../../../arm-none-eabi/lib/armv7e-m\libg.a(lib_a-locale.o)
 .text.localeconv
                0x00000000        0xc d:/elektronik/ides/chibistudio/tools/gnu tools arm embedded/4.6 2012q2/bin/../lib/gcc/arm-none-eabi/4.6.2/../../../../arm-none-eabi/lib/armv7e-m\libg.a(lib_a-locale.o)
 .data.lc_message_charset
                0x00000000       0x20 d:/elektronik/ides/chibistudio/tools/gnu tools arm embedded/4.6 2012q2/bin/../lib/gcc/arm-none-eabi/4.6.2/../../../../arm-none-eabi/lib/armv7e-m\libg.a(lib_a-locale.o)
 .bss._PathLocale
                0x00000000        0x4 d:/elektronik/ides/chibistudio/tools/gnu tools arm embedded/4.6 2012q2/bin/../lib/gcc/arm-none-eabi/4.6.2/../../../../arm-none-eabi/lib/armv7e-m\libg.a(lib_a-locale.o)
 .bss.__nlocale_changed
                0x00000000        0x4 d:/elektronik/ides/chibistudio/tools/gnu tools arm embedded/4.6 2012q2/bin/../lib/gcc/arm-none-eabi/4.6.2/../../../../arm-none-eabi/lib/armv7e-m\libg.a(lib_a-locale.o)
 .bss.__mlocale_changed
                0x00000000        0x4 d:/elektronik/ides/chibistudio/tools/gnu tools arm embedded/4.6 2012q2/bin/../lib/gcc/arm-none-eabi/4.6.2/../../../../arm-none-eabi/lib/armv7e-m\libg.a(lib_a-locale.o)
 .text          0x00000000        0x0 d:/elektronik/ides/chibistudio/tools/gnu tools arm embedded/4.6 2012q2/bin/../lib/gcc/arm-none-eabi/4.6.2/../../../../arm-none-eabi/lib/armv7e-m\libg.a(lib_a-makebuf.o)
 .data          0x00000000        0x0 d:/elektronik/ides/chibistudio/tools/gnu tools arm embedded/4.6 2012q2/bin/../lib/gcc/arm-none-eabi/4.6.2/../../../../arm-none-eabi/lib/armv7e-m\libg.a(lib_a-makebuf.o)
 .bss           0x00000000        0x0 d:/elektronik/ides/chibistudio/tools/gnu tools arm embedded/4.6 2012q2/bin/../lib/gcc/arm-none-eabi/4.6.2/../../../../arm-none-eabi/lib/armv7e-m\libg.a(lib_a-makebuf.o)
 .text          0x00000000        0x0 d:/elektronik/ides/chibistudio/tools/gnu tools arm embedded/4.6 2012q2/bin/../lib/gcc/arm-none-eabi/4.6.2/../../../../arm-none-eabi/lib/armv7e-m\libg.a(lib_a-memchr.o)
 .data          0x00000000        0x0 d:/elektronik/ides/chibistudio/tools/gnu tools arm embedded/4.6 2012q2/bin/../lib/gcc/arm-none-eabi/4.6.2/../../../../arm-none-eabi/lib/armv7e-m\libg.a(lib_a-memchr.o)
 .bss           0x00000000        0x0 d:/elektronik/ides/chibistudio/tools/gnu tools arm embedded/4.6 2012q2/bin/../lib/gcc/arm-none-eabi/4.6.2/../../../../arm-none-eabi/lib/armv7e-m\libg.a(lib_a-memchr.o)
 .text          0x00000000        0x0 d:/elektronik/ides/chibistudio/tools/gnu tools arm embedded/4.6 2012q2/bin/../lib/gcc/arm-none-eabi/4.6.2/../../../../arm-none-eabi/lib/armv7e-m\libg.a(lib_a-mprec.o)
 .data          0x00000000        0x0 d:/elektronik/ides/chibistudio/tools/gnu tools arm embedded/4.6 2012q2/bin/../lib/gcc/arm-none-eabi/4.6.2/../../../../arm-none-eabi/lib/armv7e-m\libg.a(lib_a-mprec.o)
 .bss           0x00000000        0x0 d:/elektronik/ides/chibistudio/tools/gnu tools arm embedded/4.6 2012q2/bin/../lib/gcc/arm-none-eabi/4.6.2/../../../../arm-none-eabi/lib/armv7e-m\libg.a(lib_a-mprec.o)
 .text.__s2b    0x00000000       0x98 d:/elektronik/ides/chibistudio/tools/gnu tools arm embedded/4.6 2012q2/bin/../lib/gcc/arm-none-eabi/4.6.2/../../../../arm-none-eabi/lib/armv7e-m\libg.a(lib_a-mprec.o)
 .text.__ulp    0x00000000       0x44 d:/elektronik/ides/chibistudio/tools/gnu tools arm embedded/4.6 2012q2/bin/../lib/gcc/arm-none-eabi/4.6.2/../../../../arm-none-eabi/lib/armv7e-m\libg.a(lib_a-mprec.o)
 .text.__b2d    0x00000000       0xb8 d:/elektronik/ides/chibistudio/tools/gnu tools arm embedded/4.6 2012q2/bin/../lib/gcc/arm-none-eabi/4.6.2/../../../../arm-none-eabi/lib/armv7e-m\libg.a(lib_a-mprec.o)
 .text.__ratio  0x00000000       0x54 d:/elektronik/ides/chibistudio/tools/gnu tools arm embedded/4.6 2012q2/bin/../lib/gcc/arm-none-eabi/4.6.2/../../../../arm-none-eabi/lib/armv7e-m\libg.a(lib_a-mprec.o)
 .text._mprec_log10
                0x00000000       0x34 d:/elektronik/ides/chibistudio/tools/gnu tools arm embedded/4.6 2012q2/bin/../lib/gcc/arm-none-eabi/4.6.2/../../../../arm-none-eabi/lib/armv7e-m\libg.a(lib_a-mprec.o)
 .text.__copybits
                0x00000000       0x48 d:/elektronik/ides/chibistudio/tools/gnu tools arm embedded/4.6 2012q2/bin/../lib/gcc/arm-none-eabi/4.6.2/../../../../arm-none-eabi/lib/armv7e-m\libg.a(lib_a-mprec.o)
 .text.__any_on
                0x00000000       0x60 d:/elektronik/ides/chibistudio/tools/gnu tools arm embedded/4.6 2012q2/bin/../lib/gcc/arm-none-eabi/4.6.2/../../../../arm-none-eabi/lib/armv7e-m\libg.a(lib_a-mprec.o)
 .rodata.__mprec_tinytens
                0x00000000       0x28 d:/elektronik/ides/chibistudio/tools/gnu tools arm embedded/4.6 2012q2/bin/../lib/gcc/arm-none-eabi/4.6.2/../../../../arm-none-eabi/lib/armv7e-m\libg.a(lib_a-mprec.o)
 .text          0x00000000        0x0 d:/elektronik/ides/chibistudio/tools/gnu tools arm embedded/4.6 2012q2/bin/../lib/gcc/arm-none-eabi/4.6.2/../../../../arm-none-eabi/lib/armv7e-m\libg.a(lib_a-realloc.o)
 .data          0x00000000        0x0 d:/elektronik/ides/chibistudio/tools/gnu tools arm embedded/4.6 2012q2/bin/../lib/gcc/arm-none-eabi/4.6.2/../../../../arm-none-eabi/lib/armv7e-m\libg.a(lib_a-realloc.o)
 .bss           0x00000000        0x0 d:/elektronik/ides/chibistudio/tools/gnu tools arm embedded/4.6 2012q2/bin/../lib/gcc/arm-none-eabi/4.6.2/../../../../arm-none-eabi/lib/armv7e-m\libg.a(lib_a-realloc.o)
 .text.realloc  0x00000000       0x14 d:/elektronik/ides/chibistudio/tools/gnu tools arm embedded/4.6 2012q2/bin/../lib/gcc/arm-none-eabi/4.6.2/../../../../arm-none-eabi/lib/armv7e-m\libg.a(lib_a-realloc.o)
 .text          0x00000000        0x0 d:/elektronik/ides/chibistudio/tools/gnu tools arm embedded/4.6 2012q2/bin/../lib/gcc/arm-none-eabi/4.6.2/../../../../arm-none-eabi/lib/armv7e-m\libg.a(lib_a-reallocr.o)
 .data          0x00000000        0x0 d:/elektronik/ides/chibistudio/tools/gnu tools arm embedded/4.6 2012q2/bin/../lib/gcc/arm-none-eabi/4.6.2/../../../../arm-none-eabi/lib/armv7e-m\libg.a(lib_a-reallocr.o)
 .bss           0x00000000        0x0 d:/elektronik/ides/chibistudio/tools/gnu tools arm embedded/4.6 2012q2/bin/../lib/gcc/arm-none-eabi/4.6.2/../../../../arm-none-eabi/lib/armv7e-m\libg.a(lib_a-reallocr.o)
 .text          0x00000000        0x0 d:/elektronik/ides/chibistudio/tools/gnu tools arm embedded/4.6 2012q2/bin/../lib/gcc/arm-none-eabi/4.6.2/../../../../arm-none-eabi/lib/armv7e-m\libg.a(lib_a-reent.o)
 .data          0x00000000        0x0 d:/elektronik/ides/chibistudio/tools/gnu tools arm embedded/4.6 2012q2/bin/../lib/gcc/arm-none-eabi/4.6.2/../../../../arm-none-eabi/lib/armv7e-m\libg.a(lib_a-reent.o)
 .bss           0x00000000        0x0 d:/elektronik/ides/chibistudio/tools/gnu tools arm embedded/4.6 2012q2/bin/../lib/gcc/arm-none-eabi/4.6.2/../../../../arm-none-eabi/lib/armv7e-m\libg.a(lib_a-reent.o)
 .text.cleanup_glue
                0x00000000       0x1c d:/elektronik/ides/chibistudio/tools/gnu tools arm embedded/4.6 2012q2/bin/../lib/gcc/arm-none-eabi/4.6.2/../../../../arm-none-eabi/lib/armv7e-m\libg.a(lib_a-reent.o)
 .text._reclaim_reent
                0x00000000       0x90 d:/elektronik/ides/chibistudio/tools/gnu tools arm embedded/4.6 2012q2/bin/../lib/gcc/arm-none-eabi/4.6.2/../../../../arm-none-eabi/lib/armv7e-m\libg.a(lib_a-reent.o)
 .text._wrapup_reent
                0x00000000       0x40 d:/elektronik/ides/chibistudio/tools/gnu tools arm embedded/4.6 2012q2/bin/../lib/gcc/arm-none-eabi/4.6.2/../../../../arm-none-eabi/lib/armv7e-m\libg.a(lib_a-reent.o)
 .text          0x00000000        0x0 d:/elektronik/ides/chibistudio/tools/gnu tools arm embedded/4.6 2012q2/bin/../lib/gcc/arm-none-eabi/4.6.2/../../../../arm-none-eabi/lib/armv7e-m\libg.a(lib_a-s_fpclassify.o)
 .data          0x00000000        0x0 d:/elektronik/ides/chibistudio/tools/gnu tools arm embedded/4.6 2012q2/bin/../lib/gcc/arm-none-eabi/4.6.2/../../../../arm-none-eabi/lib/armv7e-m\libg.a(lib_a-s_fpclassify.o)
 .bss           0x00000000        0x0 d:/elektronik/ides/chibistudio/tools/gnu tools arm embedded/4.6 2012q2/bin/../lib/gcc/arm-none-eabi/4.6.2/../../../../arm-none-eabi/lib/armv7e-m\libg.a(lib_a-s_fpclassify.o)
 .text          0x00000000        0x0 d:/elektronik/ides/chibistudio/tools/gnu tools arm embedded/4.6 2012q2/bin/../lib/gcc/arm-none-eabi/4.6.2/../../../../arm-none-eabi/lib/armv7e-m\libg.a(lib_a-signal.o)
 .data          0x00000000        0x0 d:/elektronik/ides/chibistudio/tools/gnu tools arm embedded/4.6 2012q2/bin/../lib/gcc/arm-none-eabi/4.6.2/../../../../arm-none-eabi/lib/armv7e-m\libg.a(lib_a-signal.o)
 .bss           0x00000000        0x0 d:/elektronik/ides/chibistudio/tools/gnu tools arm embedded/4.6 2012q2/bin/../lib/gcc/arm-none-eabi/4.6.2/../../../../arm-none-eabi/lib/armv7e-m\libg.a(lib_a-signal.o)
 .text._init_signal_r
                0x00000000       0x34 d:/elektronik/ides/chibistudio/tools/gnu tools arm embedded/4.6 2012q2/bin/../lib/gcc/arm-none-eabi/4.6.2/../../../../arm-none-eabi/lib/armv7e-m\libg.a(lib_a-signal.o)
 .text._signal_r
                0x00000000       0x40 d:/elektronik/ides/chibistudio/tools/gnu tools arm embedded/4.6 2012q2/bin/../lib/gcc/arm-none-eabi/4.6.2/../../../../arm-none-eabi/lib/armv7e-m\libg.a(lib_a-signal.o)
 .text.__sigtramp_r
                0x00000000       0x54 d:/elektronik/ides/chibistudio/tools/gnu tools arm embedded/4.6 2012q2/bin/../lib/gcc/arm-none-eabi/4.6.2/../../../../arm-none-eabi/lib/armv7e-m\libg.a(lib_a-signal.o)
 .text.signal   0x00000000       0x14 d:/elektronik/ides/chibistudio/tools/gnu tools arm embedded/4.6 2012q2/bin/../lib/gcc/arm-none-eabi/4.6.2/../../../../arm-none-eabi/lib/armv7e-m\libg.a(lib_a-signal.o)
 .text._init_signal
                0x00000000       0x10 d:/elektronik/ides/chibistudio/tools/gnu tools arm embedded/4.6 2012q2/bin/../lib/gcc/arm-none-eabi/4.6.2/../../../../arm-none-eabi/lib/armv7e-m\libg.a(lib_a-signal.o)
 .text.__sigtramp
                0x00000000       0x10 d:/elektronik/ides/chibistudio/tools/gnu tools arm embedded/4.6 2012q2/bin/../lib/gcc/arm-none-eabi/4.6.2/../../../../arm-none-eabi/lib/armv7e-m\libg.a(lib_a-signal.o)
 .text          0x00000000        0x0 d:/elektronik/ides/chibistudio/tools/gnu tools arm embedded/4.6 2012q2/bin/../lib/gcc/arm-none-eabi/4.6.2/../../../../arm-none-eabi/lib/armv7e-m\libg.a(lib_a-snprintf.o)
 .data          0x00000000        0x0 d:/elektronik/ides/chibistudio/tools/gnu tools arm embedded/4.6 2012q2/bin/../lib/gcc/arm-none-eabi/4.6.2/../../../../arm-none-eabi/lib/armv7e-m\libg.a(lib_a-snprintf.o)
 .bss           0x00000000        0x0 d:/elektronik/ides/chibistudio/tools/gnu tools arm embedded/4.6 2012q2/bin/../lib/gcc/arm-none-eabi/4.6.2/../../../../arm-none-eabi/lib/armv7e-m\libg.a(lib_a-snprintf.o)
 .text._snprintf_r
                0x00000000       0x64 d:/elektronik/ides/chibistudio/tools/gnu tools arm embedded/4.6 2012q2/bin/../lib/gcc/arm-none-eabi/4.6.2/../../../../arm-none-eabi/lib/armv7e-m\libg.a(lib_a-snprintf.o)
 .text          0x00000000        0x0 d:/elektronik/ides/chibistudio/tools/gnu tools arm embedded/4.6 2012q2/bin/../lib/gcc/arm-none-eabi/4.6.2/../../../../arm-none-eabi/lib/armv7e-m\libg.a(lib_a-stdio.o)
 .data          0x00000000        0x0 d:/elektronik/ides/chibistudio/tools/gnu tools arm embedded/4.6 2012q2/bin/../lib/gcc/arm-none-eabi/4.6.2/../../../../arm-none-eabi/lib/armv7e-m\libg.a(lib_a-stdio.o)
 .bss           0x00000000        0x0 d:/elektronik/ides/chibistudio/tools/gnu tools arm embedded/4.6 2012q2/bin/../lib/gcc/arm-none-eabi/4.6.2/../../../../arm-none-eabi/lib/armv7e-m\libg.a(lib_a-stdio.o)
 .text.__seofread
                0x00000000        0x4 d:/elektronik/ides/chibistudio/tools/gnu tools arm embedded/4.6 2012q2/bin/../lib/gcc/arm-none-eabi/4.6.2/../../../../arm-none-eabi/lib/armv7e-m\libg.a(lib_a-stdio.o)
 .text          0x00000000        0x0 d:/elektronik/ides/chibistudio/tools/gnu tools arm embedded/4.6 2012q2/bin/../lib/gcc/arm-none-eabi/4.6.2/../../../../arm-none-eabi/lib/armv7e-m\libg.a(lib_a-strchr.o)
 .data          0x00000000        0x0 d:/elektronik/ides/chibistudio/tools/gnu tools arm embedded/4.6 2012q2/bin/../lib/gcc/arm-none-eabi/4.6.2/../../../../arm-none-eabi/lib/armv7e-m\libg.a(lib_a-strchr.o)
 .bss           0x00000000        0x0 d:/elektronik/ides/chibistudio/tools/gnu tools arm embedded/4.6 2012q2/bin/../lib/gcc/arm-none-eabi/4.6.2/../../../../arm-none-eabi/lib/armv7e-m\libg.a(lib_a-strchr.o)
 .text.strchr   0x00000000       0xf0 d:/elektronik/ides/chibistudio/tools/gnu tools arm embedded/4.6 2012q2/bin/../lib/gcc/arm-none-eabi/4.6.2/../../../../arm-none-eabi/lib/armv7e-m\libg.a(lib_a-strchr.o)
 .text          0x00000000        0x0 d:/elektronik/ides/chibistudio/tools/gnu tools arm embedded/4.6 2012q2/bin/../lib/gcc/arm-none-eabi/4.6.2/../../../../arm-none-eabi/lib/armv7e-m\libg.a(lib_a-strcmp.o)
 .data          0x00000000        0x0 d:/elektronik/ides/chibistudio/tools/gnu tools arm embedded/4.6 2012q2/bin/../lib/gcc/arm-none-eabi/4.6.2/../../../../arm-none-eabi/lib/armv7e-m\libg.a(lib_a-strcmp.o)
 .bss           0x00000000        0x0 d:/elektronik/ides/chibistudio/tools/gnu tools arm embedded/4.6 2012q2/bin/../lib/gcc/arm-none-eabi/4.6.2/../../../../arm-none-eabi/lib/armv7e-m\libg.a(lib_a-strcmp.o)
 .text.strcmp   0x00000000       0x80 d:/elektronik/ides/chibistudio/tools/gnu tools arm embedded/4.6 2012q2/bin/../lib/gcc/arm-none-eabi/4.6.2/../../../../arm-none-eabi/lib/armv7e-m\libg.a(lib_a-strcmp.o)
 .text.strcmp_unaligned
                0x00000000      0x15c d:/elektronik/ides/chibistudio/tools/gnu tools arm embedded/4.6 2012q2/bin/../lib/gcc/arm-none-eabi/4.6.2/../../../../arm-none-eabi/lib/armv7e-m\libg.a(lib_a-strcmp.o)
 .text          0x00000000        0x0 d:/elektronik/ides/chibistudio/tools/gnu tools arm embedded/4.6 2012q2/bin/../lib/gcc/arm-none-eabi/4.6.2/../../../../arm-none-eabi/lib/armv7e-m\libg.a(lib_a-svfiprintf.o)
 .data          0x00000000        0x0 d:/elektronik/ides/chibistudio/tools/gnu tools arm embedded/4.6 2012q2/bin/../lib/gcc/arm-none-eabi/4.6.2/../../../../arm-none-eabi/lib/armv7e-m\libg.a(lib_a-svfiprintf.o)
 .bss           0x00000000        0x0 d:/elektronik/ides/chibistudio/tools/gnu tools arm embedded/4.6 2012q2/bin/../lib/gcc/arm-none-eabi/4.6.2/../../../../arm-none-eabi/lib/armv7e-m\libg.a(lib_a-svfiprintf.o)
 .text._svfiprintf_r
                0x00000000      0xa38 d:/elektronik/ides/chibistudio/tools/gnu tools arm embedded/4.6 2012q2/bin/../lib/gcc/arm-none-eabi/4.6.2/../../../../arm-none-eabi/lib/armv7e-m\libg.a(lib_a-svfiprintf.o)
 .rodata.zeroes.6534
                0x00000000       0x10 d:/elektronik/ides/chibistudio/tools/gnu tools arm embedded/4.6 2012q2/bin/../lib/gcc/arm-none-eabi/4.6.2/../../../../arm-none-eabi/lib/armv7e-m\libg.a(lib_a-svfiprintf.o)
 .rodata.str1.4
                0x00000000       0x30 d:/elektronik/ides/chibistudio/tools/gnu tools arm embedded/4.6 2012q2/bin/../lib/gcc/arm-none-eabi/4.6.2/../../../../arm-none-eabi/lib/armv7e-m\libg.a(lib_a-svfiprintf.o)
 .rodata.blanks.6533
                0x00000000       0x10 d:/elektronik/ides/chibistudio/tools/gnu tools arm embedded/4.6 2012q2/bin/../lib/gcc/arm-none-eabi/4.6.2/../../../../arm-none-eabi/lib/armv7e-m\libg.a(lib_a-svfiprintf.o)
 .text          0x00000000        0x0 d:/elektronik/ides/chibistudio/tools/gnu tools arm embedded/4.6 2012q2/bin/../lib/gcc/arm-none-eabi/4.6.2/../../../../arm-none-eabi/lib/armv7e-m\libg.a(lib_a-sysclose.o)
 .data          0x00000000        0x0 d:/elektronik/ides/chibistudio/tools/gnu tools arm embedded/4.6 2012q2/bin/../lib/gcc/arm-none-eabi/4.6.2/../../../../arm-none-eabi/lib/armv7e-m\libg.a(lib_a-sysclose.o)
 .bss           0x00000000        0x0 d:/elektronik/ides/chibistudio/tools/gnu tools arm embedded/4.6 2012q2/bin/../lib/gcc/arm-none-eabi/4.6.2/../../../../arm-none-eabi/lib/armv7e-m\libg.a(lib_a-sysclose.o)
 .text.close    0x00000000       0x10 d:/elektronik/ides/chibistudio/tools/gnu tools arm embedded/4.6 2012q2/bin/../lib/gcc/arm-none-eabi/4.6.2/../../../../arm-none-eabi/lib/armv7e-m\libg.a(lib_a-sysclose.o)
 .text          0x00000000        0x0 d:/elektronik/ides/chibistudio/tools/gnu tools arm embedded/4.6 2012q2/bin/../lib/gcc/arm-none-eabi/4.6.2/../../../../arm-none-eabi/lib/armv7e-m\libg.a(lib_a-sysfstat.o)
 .data          0x00000000        0x0 d:/elektronik/ides/chibistudio/tools/gnu tools arm embedded/4.6 2012q2/bin/../lib/gcc/arm-none-eabi/4.6.2/../../../../arm-none-eabi/lib/armv7e-m\libg.a(lib_a-sysfstat.o)
 .bss           0x00000000        0x0 d:/elektronik/ides/chibistudio/tools/gnu tools arm embedded/4.6 2012q2/bin/../lib/gcc/arm-none-eabi/4.6.2/../../../../arm-none-eabi/lib/armv7e-m\libg.a(lib_a-sysfstat.o)
 .text.fstat    0x00000000       0x14 d:/elektronik/ides/chibistudio/tools/gnu tools arm embedded/4.6 2012q2/bin/../lib/gcc/arm-none-eabi/4.6.2/../../../../arm-none-eabi/lib/armv7e-m\libg.a(lib_a-sysfstat.o)
 .text          0x00000000        0x0 d:/elektronik/ides/chibistudio/tools/gnu tools arm embedded/4.6 2012q2/bin/../lib/gcc/arm-none-eabi/4.6.2/../../../../arm-none-eabi/lib/armv7e-m\libg.a(lib_a-sysopen.o)
 .data          0x00000000        0x0 d:/elektronik/ides/chibistudio/tools/gnu tools arm embedded/4.6 2012q2/bin/../lib/gcc/arm-none-eabi/4.6.2/../../../../arm-none-eabi/lib/armv7e-m\libg.a(lib_a-sysopen.o)
 .bss           0x00000000        0x0 d:/elektronik/ides/chibistudio/tools/gnu tools arm embedded/4.6 2012q2/bin/../lib/gcc/arm-none-eabi/4.6.2/../../../../arm-none-eabi/lib/armv7e-m\libg.a(lib_a-sysopen.o)
 .text.open     0x00000000       0x30 d:/elektronik/ides/chibistudio/tools/gnu tools arm embedded/4.6 2012q2/bin/../lib/gcc/arm-none-eabi/4.6.2/../../../../arm-none-eabi/lib/armv7e-m\libg.a(lib_a-sysopen.o)
 .text          0x00000000        0x0 d:/elektronik/ides/chibistudio/tools/gnu tools arm embedded/4.6 2012q2/bin/../lib/gcc/arm-none-eabi/4.6.2/../../../../arm-none-eabi/lib/armv7e-m\libg.a(lib_a-sysread.o)
 .data          0x00000000        0x0 d:/elektronik/ides/chibistudio/tools/gnu tools arm embedded/4.6 2012q2/bin/../lib/gcc/arm-none-eabi/4.6.2/../../../../arm-none-eabi/lib/armv7e-m\libg.a(lib_a-sysread.o)
 .bss           0x00000000        0x0 d:/elektronik/ides/chibistudio/tools/gnu tools arm embedded/4.6 2012q2/bin/../lib/gcc/arm-none-eabi/4.6.2/../../../../arm-none-eabi/lib/armv7e-m\libg.a(lib_a-sysread.o)
 .text.read     0x00000000       0x1c d:/elektronik/ides/chibistudio/tools/gnu tools arm embedded/4.6 2012q2/bin/../lib/gcc/arm-none-eabi/4.6.2/../../../../arm-none-eabi/lib/armv7e-m\libg.a(lib_a-sysread.o)
 .text          0x00000000        0x0 d:/elektronik/ides/chibistudio/tools/gnu tools arm embedded/4.6 2012q2/bin/../lib/gcc/arm-none-eabi/4.6.2/../../../../arm-none-eabi/lib/armv7e-m\libg.a(lib_a-wbuf.o)
 .data          0x00000000        0x0 d:/elektronik/ides/chibistudio/tools/gnu tools arm embedded/4.6 2012q2/bin/../lib/gcc/arm-none-eabi/4.6.2/../../../../arm-none-eabi/lib/armv7e-m\libg.a(lib_a-wbuf.o)
 .bss           0x00000000        0x0 d:/elektronik/ides/chibistudio/tools/gnu tools arm embedded/4.6 2012q2/bin/../lib/gcc/arm-none-eabi/4.6.2/../../../../arm-none-eabi/lib/armv7e-m\libg.a(lib_a-wbuf.o)
 .text.__swbuf  0x00000000       0x14 d:/elektronik/ides/chibistudio/tools/gnu tools arm embedded/4.6 2012q2/bin/../lib/gcc/arm-none-eabi/4.6.2/../../../../arm-none-eabi/lib/armv7e-m\libg.a(lib_a-wbuf.o)
 .text          0x00000000        0x0 d:/elektronik/ides/chibistudio/tools/gnu tools arm embedded/4.6 2012q2/bin/../lib/gcc/arm-none-eabi/4.6.2/../../../../arm-none-eabi/lib/armv7e-m\libg.a(lib_a-wcrtomb.o)
 .data          0x00000000        0x0 d:/elektronik/ides/chibistudio/tools/gnu tools arm embedded/4.6 2012q2/bin/../lib/gcc/arm-none-eabi/4.6.2/../../../../arm-none-eabi/lib/armv7e-m\libg.a(lib_a-wcrtomb.o)
 .bss           0x00000000        0x0 d:/elektronik/ides/chibistudio/tools/gnu tools arm embedded/4.6 2012q2/bin/../lib/gcc/arm-none-eabi/4.6.2/../../../../arm-none-eabi/lib/armv7e-m\libg.a(lib_a-wcrtomb.o)
 .text.wcrtomb  0x00000000       0x60 d:/elektronik/ides/chibistudio/tools/gnu tools arm embedded/4.6 2012q2/bin/../lib/gcc/arm-none-eabi/4.6.2/../../../../arm-none-eabi/lib/armv7e-m\libg.a(lib_a-wcrtomb.o)
 .text          0x00000000        0x0 d:/elektronik/ides/chibistudio/tools/gnu tools arm embedded/4.6 2012q2/bin/../lib/gcc/arm-none-eabi/4.6.2/../../../../arm-none-eabi/lib/armv7e-m\libg.a(lib_a-wctomb_r.o)
 .data          0x00000000        0x0 d:/elektronik/ides/chibistudio/tools/gnu tools arm embedded/4.6 2012q2/bin/../lib/gcc/arm-none-eabi/4.6.2/../../../../arm-none-eabi/lib/armv7e-m\libg.a(lib_a-wctomb_r.o)
 .bss           0x00000000        0x0 d:/elektronik/ides/chibistudio/tools/gnu tools arm embedded/4.6 2012q2/bin/../lib/gcc/arm-none-eabi/4.6.2/../../../../arm-none-eabi/lib/armv7e-m\libg.a(lib_a-wctomb_r.o)
 .text._wctomb_r
                0x00000000       0x30 d:/elektronik/ides/chibistudio/tools/gnu tools arm embedded/4.6 2012q2/bin/../lib/gcc/arm-none-eabi/4.6.2/../../../../arm-none-eabi/lib/armv7e-m\libg.a(lib_a-wctomb_r.o)
 .text          0x00000000        0x0 d:/elektronik/ides/chibistudio/tools/gnu tools arm embedded/4.6 2012q2/bin/../lib/gcc/arm-none-eabi/4.6.2/../../../../arm-none-eabi/lib/armv7e-m\libg.a(lib_a-callocr.o)
 .data          0x00000000        0x0 d:/elektronik/ides/chibistudio/tools/gnu tools arm embedded/4.6 2012q2/bin/../lib/gcc/arm-none-eabi/4.6.2/../../../../arm-none-eabi/lib/armv7e-m\libg.a(lib_a-callocr.o)
 .bss           0x00000000        0x0 d:/elektronik/ides/chibistudio/tools/gnu tools arm embedded/4.6 2012q2/bin/../lib/gcc/arm-none-eabi/4.6.2/../../../../arm-none-eabi/lib/armv7e-m\libg.a(lib_a-callocr.o)
 .text          0x00000000        0x0 d:/elektronik/ides/chibistudio/tools/gnu tools arm embedded/4.6 2012q2/bin/../lib/gcc/arm-none-eabi/4.6.2/../../../../arm-none-eabi/lib/armv7e-m\libg.a(lib_a-fclose.o)
 .data          0x00000000        0x0 d:/elektronik/ides/chibistudio/tools/gnu tools arm embedded/4.6 2012q2/bin/../lib/gcc/arm-none-eabi/4.6.2/../../../../arm-none-eabi/lib/armv7e-m\libg.a(lib_a-fclose.o)
 .bss           0x00000000        0x0 d:/elektronik/ides/chibistudio/tools/gnu tools arm embedded/4.6 2012q2/bin/../lib/gcc/arm-none-eabi/4.6.2/../../../../arm-none-eabi/lib/armv7e-m\libg.a(lib_a-fclose.o)
 .text          0x00000000        0x0 d:/elektronik/ides/chibistudio/tools/gnu tools arm embedded/4.6 2012q2/bin/../lib/gcc/arm-none-eabi/4.6.2/../../../../arm-none-eabi/lib/armv7e-m\libg.a(lib_a-openr.o)
 .data          0x00000000        0x0 d:/elektronik/ides/chibistudio/tools/gnu tools arm embedded/4.6 2012q2/bin/../lib/gcc/arm-none-eabi/4.6.2/../../../../arm-none-eabi/lib/armv7e-m\libg.a(lib_a-openr.o)
 .bss           0x00000000        0x0 d:/elektronik/ides/chibistudio/tools/gnu tools arm embedded/4.6 2012q2/bin/../lib/gcc/arm-none-eabi/4.6.2/../../../../arm-none-eabi/lib/armv7e-m\libg.a(lib_a-openr.o)
 .text._open_r  0x00000000       0x28 d:/elektronik/ides/chibistudio/tools/gnu tools arm embedded/4.6 2012q2/bin/../lib/gcc/arm-none-eabi/4.6.2/../../../../arm-none-eabi/lib/armv7e-m\libg.a(lib_a-openr.o)
 .data          0x00000000        0x0 d:/elektronik/ides/chibistudio/tools/gnu tools arm embedded/4.6 2012q2/bin/../lib/gcc/arm-none-eabi/4.6.2/armv7e-m\libgcc.a(_arm_addsubdf3.o)
 .bss           0x00000000        0x0 d:/elektronik/ides/chibistudio/tools/gnu tools arm embedded/4.6 2012q2/bin/../lib/gcc/arm-none-eabi/4.6.2/armv7e-m\libgcc.a(_arm_addsubdf3.o)
 .data          0x00000000        0x0 d:/elektronik/ides/chibistudio/tools/gnu tools arm embedded/4.6 2012q2/bin/../lib/gcc/arm-none-eabi/4.6.2/armv7e-m\libgcc.a(_arm_muldivdf3.o)
 .bss           0x00000000        0x0 d:/elektronik/ides/chibistudio/tools/gnu tools arm embedded/4.6 2012q2/bin/../lib/gcc/arm-none-eabi/4.6.2/armv7e-m\libgcc.a(_arm_muldivdf3.o)
 .data          0x00000000        0x0 d:/elektronik/ides/chibistudio/tools/gnu tools arm embedded/4.6 2012q2/bin/../lib/gcc/arm-none-eabi/4.6.2/armv7e-m\libgcc.a(_arm_cmpdf2.o)
 .bss           0x00000000        0x0 d:/elektronik/ides/chibistudio/tools/gnu tools arm embedded/4.6 2012q2/bin/../lib/gcc/arm-none-eabi/4.6.2/armv7e-m\libgcc.a(_arm_cmpdf2.o)
 .data          0x00000000        0x0 d:/elektronik/ides/chibistudio/tools/gnu tools arm embedded/4.6 2012q2/bin/../lib/gcc/arm-none-eabi/4.6.2/armv7e-m\libgcc.a(_arm_fixdfsi.o)
 .bss           0x00000000        0x0 d:/elektronik/ides/chibistudio/tools/gnu tools arm embedded/4.6 2012q2/bin/../lib/gcc/arm-none-eabi/4.6.2/armv7e-m\libgcc.a(_arm_fixdfsi.o)
 .data          0x00000000        0x0 d:/elektronik/ides/chibistudio/tools/gnu tools arm embedded/4.6 2012q2/bin/../lib/gcc/arm-none-eabi/4.6.2/armv7e-m\libgcc.a(_aeabi_uldivmod.o)
 .bss           0x00000000        0x0 d:/elektronik/ides/chibistudio/tools/gnu tools arm embedded/4.6 2012q2/bin/../lib/gcc/arm-none-eabi/4.6.2/armv7e-m\libgcc.a(_aeabi_uldivmod.o)
 .data          0x00000000        0x0 d:/elektronik/ides/chibistudio/tools/gnu tools arm embedded/4.6 2012q2/bin/../lib/gcc/arm-none-eabi/4.6.2/armv7e-m\libgcc.a(bpabi.o)
 .bss           0x00000000        0x0 d:/elektronik/ides/chibistudio/tools/gnu tools arm embedded/4.6 2012q2/bin/../lib/gcc/arm-none-eabi/4.6.2/armv7e-m\libgcc.a(bpabi.o)
 .ARM.extab     0x00000000        0x0 d:/elektronik/ides/chibistudio/tools/gnu tools arm embedded/4.6 2012q2/bin/../lib/gcc/arm-none-eabi/4.6.2/armv7e-m\libgcc.a(bpabi.o)
 .data          0x00000000        0x0 d:/elektronik/ides/chibistudio/tools/gnu tools arm embedded/4.6 2012q2/bin/../lib/gcc/arm-none-eabi/4.6.2/armv7e-m\libgcc.a(unwind-arm.o)
 .bss           0x00000000        0x0 d:/elektronik/ides/chibistudio/tools/gnu tools arm embedded/4.6 2012q2/bin/../lib/gcc/arm-none-eabi/4.6.2/armv7e-m\libgcc.a(unwind-arm.o)
 .data          0x00000000        0x0 d:/elektronik/ides/chibistudio/tools/gnu tools arm embedded/4.6 2012q2/bin/../lib/gcc/arm-none-eabi/4.6.2/armv7e-m\libgcc.a(libunwind.o)
 .bss           0x00000000        0x0 d:/elektronik/ides/chibistudio/tools/gnu tools arm embedded/4.6 2012q2/bin/../lib/gcc/arm-none-eabi/4.6.2/armv7e-m\libgcc.a(libunwind.o)
 .data          0x00000000        0x0 d:/elektronik/ides/chibistudio/tools/gnu tools arm embedded/4.6 2012q2/bin/../lib/gcc/arm-none-eabi/4.6.2/armv7e-m\libgcc.a(pr-support.o)
 .bss           0x00000000        0x0 d:/elektronik/ides/chibistudio/tools/gnu tools arm embedded/4.6 2012q2/bin/../lib/gcc/arm-none-eabi/4.6.2/armv7e-m\libgcc.a(pr-support.o)
 .data          0x00000000        0x0 d:/elektronik/ides/chibistudio/tools/gnu tools arm embedded/4.6 2012q2/bin/../lib/gcc/arm-none-eabi/4.6.2/armv7e-m\libgcc.a(_dvmd_tls.o)
 .bss           0x00000000        0x0 d:/elektronik/ides/chibistudio/tools/gnu tools arm embedded/4.6 2012q2/bin/../lib/gcc/arm-none-eabi/4.6.2/armv7e-m\libgcc.a(_dvmd_tls.o)
 .data          0x00000000        0x0 d:/elektronik/ides/chibistudio/tools/gnu tools arm embedded/4.6 2012q2/bin/../lib/gcc/arm-none-eabi/4.6.2/armv7e-m\libgcc.a(_divdi3.o)
 .bss           0x00000000        0x0 d:/elektronik/ides/chibistudio/tools/gnu tools arm embedded/4.6 2012q2/bin/../lib/gcc/arm-none-eabi/4.6.2/armv7e-m\libgcc.a(_divdi3.o)
 .ARM.extab     0x00000000        0x0 d:/elektronik/ides/chibistudio/tools/gnu tools arm embedded/4.6 2012q2/bin/../lib/gcc/arm-none-eabi/4.6.2/armv7e-m\libgcc.a(_divdi3.o)
 .data          0x00000000        0x0 d:/elektronik/ides/chibistudio/tools/gnu tools arm embedded/4.6 2012q2/bin/../lib/gcc/arm-none-eabi/4.6.2/armv7e-m\libgcc.a(_udivdi3.o)
 .bss           0x00000000        0x0 d:/elektronik/ides/chibistudio/tools/gnu tools arm embedded/4.6 2012q2/bin/../lib/gcc/arm-none-eabi/4.6.2/armv7e-m\libgcc.a(_udivdi3.o)
 .ARM.extab     0x00000000        0x0 d:/elektronik/ides/chibistudio/tools/gnu tools arm embedded/4.6 2012q2/bin/../lib/gcc/arm-none-eabi/4.6.2/armv7e-m\libgcc.a(_udivdi3.o)
 .text          0x00000000        0x0 d:/elektronik/ides/chibistudio/tools/gnu tools arm embedded/4.6 2012q2/bin/../lib/gcc/arm-none-eabi/4.6.2/armv7e-m/crtend.o
 .data          0x00000000        0x0 d:/elektronik/ides/chibistudio/tools/gnu tools arm embedded/4.6 2012q2/bin/../lib/gcc/arm-none-eabi/4.6.2/armv7e-m/crtend.o
 .bss           0x00000000        0x0 d:/elektronik/ides/chibistudio/tools/gnu tools arm embedded/4.6 2012q2/bin/../lib/gcc/arm-none-eabi/4.6.2/armv7e-m/crtend.o
 .eh_frame      0x00000000        0x4 d:/elektronik/ides/chibistudio/tools/gnu tools arm embedded/4.6 2012q2/bin/../lib/gcc/arm-none-eabi/4.6.2/armv7e-m/crtend.o
 .jcr           0x00000000        0x4 d:/elektronik/ides/chibistudio/tools/gnu tools arm embedded/4.6 2012q2/bin/../lib/gcc/arm-none-eabi/4.6.2/armv7e-m/crtend.o
 .text          0x00000000        0x0 d:/elektronik/ides/chibistudio/tools/gnu tools arm embedded/4.6 2012q2/bin/../lib/gcc/arm-none-eabi/4.6.2/armv7e-m/crtn.o
 .data          0x00000000        0x0 d:/elektronik/ides/chibistudio/tools/gnu tools arm embedded/4.6 2012q2/bin/../lib/gcc/arm-none-eabi/4.6.2/armv7e-m/crtn.o
 .bss           0x00000000        0x0 d:/elektronik/ides/chibistudio/tools/gnu tools arm embedded/4.6 2012q2/bin/../lib/gcc/arm-none-eabi/4.6.2/armv7e-m/crtn.o

Memory Configuration

Name             Origin             Length             Attributes
FLASH            0x08000000         0x00100000         xr
RAM              0x20000000         0x00020000         xrw
MEMORY_B1        0x60000000         0x00000000         xr
*default*        0x00000000         0xffffffff

Linker script and memory map

LOAD d:/elektronik/ides/chibistudio/tools/gnu tools arm embedded/4.6 2012q2/bin/../lib/gcc/arm-none-eabi/4.6.2/armv7e-m/crti.o
LOAD d:/elektronik/ides/chibistudio/tools/gnu tools arm embedded/4.6 2012q2/bin/../lib/gcc/arm-none-eabi/4.6.2/armv7e-m/crtbegin.o
LOAD d:/elektronik/ides/chibistudio/tools/gnu tools arm embedded/4.6 2012q2/bin/../lib/gcc/arm-none-eabi/4.6.2/../../../../arm-none-eabi/lib/armv7e-m/crt0.o
LOAD ./STM32_USB_OTG_Driver/src/usb_core.o
LOAD ./STM32_USB_OTG_Driver/src/usb_hcd.o
LOAD ./STM32_USB_OTG_Driver/src/usb_hcd_int.o
LOAD ./STM32_USB_HOST_Library/Core/src/usbh_core.o
LOAD ./STM32_USB_HOST_Library/Core/src/usbh_hcs.o
LOAD ./STM32_USB_HOST_Library/Core/src/usbh_ioreq.o
LOAD ./STM32_USB_HOST_Library/Core/src/usbh_stdreq.o
LOAD ./STM32_USB_HOST_Library/Class/MSC/src/usbh_msc_bot.o
LOAD ./STM32_USB_HOST_Library/Class/MSC/src/usbh_msc_core.o
LOAD ./STM32_USB_HOST_Library/Class/MSC/src/usbh_msc_fatfs.o
LOAD ./STM32_USB_HOST_Library/Class/MSC/src/usbh_msc_scsi.o
LOAD ./STM32F4xx_StdPeriph_Driver/src/misc.o
LOAD ./STM32F4xx_StdPeriph_Driver/src/stm32f4xx_adc.o
LOAD ./STM32F4xx_StdPeriph_Driver/src/stm32f4xx_dac.o
LOAD ./STM32F4xx_StdPeriph_Driver/src/stm32f4xx_dbgmcu.o
LOAD ./STM32F4xx_StdPeriph_Driver/src/stm32f4xx_dma.o
LOAD ./STM32F4xx_StdPeriph_Driver/src/stm32f4xx_exti.o
LOAD ./STM32F4xx_StdPeriph_Driver/src/stm32f4xx_flash.o
LOAD ./STM32F4xx_StdPeriph_Driver/src/stm32f4xx_fsmc.o
LOAD ./STM32F4xx_StdPeriph_Driver/src/stm32f4xx_gpio.o
LOAD ./STM32F4xx_StdPeriph_Driver/src/stm32f4xx_i2c.o
LOAD ./STM32F4xx_StdPeriph_Driver/src/stm32f4xx_iwdg.o
LOAD ./STM32F4xx_StdPeriph_Driver/src/stm32f4xx_pwr.o
LOAD ./STM32F4xx_StdPeriph_Driver/src/stm32f4xx_rcc.o
LOAD ./STM32F4xx_StdPeriph_Driver/src/stm32f4xx_rng.o
LOAD ./STM32F4xx_StdPeriph_Driver/src/stm32f4xx_rtc.o
LOAD ./STM32F4xx_StdPeriph_Driver/src/stm32f4xx_sdio.o
LOAD ./STM32F4xx_StdPeriph_Driver/src/stm32f4xx_spi.o
LOAD ./STM32F4xx_StdPeriph_Driver/src/stm32f4xx_syscfg.o
LOAD ./STM32F4xx_StdPeriph_Driver/src/stm32f4xx_tim.o
LOAD ./STM32F4xx_StdPeriph_Driver/src/stm32f4xx_usart.o
LOAD ./STM32F4xx_StdPeriph_Driver/src/stm32f4xx_wwdg.o
LOAD ./STM32F4-Discovery/stm32f4_discovery.o
LOAD ./STM32F4-Discovery/stm32f4_discovery_audio_codec.o
LOAD ./STM32F4-Discovery/stm32f4_discovery_lis302dl.o
LOAD ./Menue/CMenue.o
LOAD ./HelixMP3/real/bitstream.o
LOAD ./HelixMP3/real/buffers.o
LOAD ./HelixMP3/real/dct32.o
LOAD ./HelixMP3/real/dequant.o
LOAD ./HelixMP3/real/dqchan.o
LOAD ./HelixMP3/real/huffman.o
LOAD ./HelixMP3/real/hufftabs.o
LOAD ./HelixMP3/real/imdct.o
LOAD ./HelixMP3/real/polyphase.o
LOAD ./HelixMP3/real/scalfact.o
LOAD ./HelixMP3/real/stproc.o
LOAD ./HelixMP3/real/subband.o
LOAD ./HelixMP3/real/trigtabs.o
LOAD ./HelixMP3/mp3dec.o
LOAD ./HelixMP3/mp3tabs.o
LOAD ./GraphicLCD/CGraphicLCD.o
LOAD ./GraphicLCD/CT6963CDriver.o
LOAD ./GraphicLCD/CT6963GPIOInterface.o
LOAD ./GraphicLCD/SansSerif12.o
LOAD ./GraphicLCD/SansSerif26.o
LOAD ./FreeRTOS_EC/Source/AManagedTask.o
LOAD ./FreeRTOS_EC/Source/ASyncObject.o
LOAD ./FreeRTOS_EC/Source/ATimer.o
LOAD ./FreeRTOS_EC/Source/CBinarySemaphore.o
LOAD ./FreeRTOS_EC/Source/CCountingSemaphore.o
LOAD ./FreeRTOS_EC/Source/CFreeRTOS.o
LOAD ./FreeRTOS_EC/Source/CMessageTask.o
LOAD ./FreeRTOS_EC/Source/CMutex.o
LOAD ./FreeRTOS_EC/Source/CQueue.o
LOAD ./FreeRTOS_EC/Source/CRecursiveMutex.o
LOAD ./FreeRTOS_EC/Source/CTask.o
LOAD ./FreeRTOS/Source/portable/GCC/ARM_CM4F/port.o
LOAD ./FreeRTOS/Source/croutine.o
LOAD ./FreeRTOS/Source/list.o
LOAD ./FreeRTOS/Source/queue.o
LOAD ./FreeRTOS/Source/tasks.o
LOAD ./FreeRTOS/Source/timers.o
LOAD ./Clock/CRTCHandler.o
LOAD ./Clock/CRTCTime.o
LOAD ./Clock/CRTCTime_test.o
LOAD ./Clock/CTime.o
LOAD ./Clock/CTime_test.o
LOAD ./Audio_MP3/USB_MSC/CUSBMassStorage.o
LOAD ./Audio_MP3/USB_MSC/usb_bsp.o
LOAD ./Audio_MP3/USB_MSC/usbh_usr.o
LOAD ./Audio_MP3/FatFs/src/option/syscall.o
LOAD ./Audio_MP3/FatFs/src/ff.o
LOAD ./Audio_MP3/CFileHandler.o
LOAD ./Audio_MP3/fattime.o
LOAD ./CLedHeartBeatSTM32F4Disc.o
LOAD ./LibraryHacks.o
LOAD ./main.o
LOAD ./startup_stm32f4xx.o
LOAD ./stm32f4xx_it.o
LOAD ./syscalls.o
LOAD ./system_stm32f4xx.o
LOAD ./ustime.o
LOAD d:/elektronik/ides/chibistudio/tools/gnu tools arm embedded/4.6 2012q2/bin/../lib/gcc/arm-none-eabi/4.6.2/../../../../arm-none-eabi/lib/armv7e-m\libstdc++.a
LOAD d:/elektronik/ides/chibistudio/tools/gnu tools arm embedded/4.6 2012q2/bin/../lib/gcc/arm-none-eabi/4.6.2/../../../../arm-none-eabi/lib/armv7e-m\libm.a
START GROUP
LOAD d:/elektronik/ides/chibistudio/tools/gnu tools arm embedded/4.6 2012q2/bin/../lib/gcc/arm-none-eabi/4.6.2/armv7e-m\libgcc.a
LOAD d:/elektronik/ides/chibistudio/tools/gnu tools arm embedded/4.6 2012q2/bin/../lib/gcc/arm-none-eabi/4.6.2/../../../../arm-none-eabi/lib/armv7e-m\libg.a
LOAD d:/elektronik/ides/chibistudio/tools/gnu tools arm embedded/4.6 2012q2/bin/../lib/gcc/arm-none-eabi/4.6.2/../../../../arm-none-eabi/lib/armv7e-m\libc.a
END GROUP
LOAD d:/elektronik/ides/chibistudio/tools/gnu tools arm embedded/4.6 2012q2/bin/../lib/gcc/arm-none-eabi/4.6.2/armv7e-m/crtend.o
LOAD d:/elektronik/ides/chibistudio/tools/gnu tools arm embedded/4.6 2012q2/bin/../lib/gcc/arm-none-eabi/4.6.2/armv7e-m/crtn.o
                0x20020000                _estack = 0x20020000
                0x00000000                _Min_Heap_Size = 0x0
                0x00000400                _Min_Stack_Size = 0x400

.isr_vector     0x08000000      0x188
                0x08000000                . = ALIGN (0x4)
 *(.isr_vector)
 .isr_vector    0x08000000      0x188 ./startup_stm32f4xx.o
                0x08000000                g_pfnVectors
                0x08000188                . = ALIGN (0x4)

.text           0x08000188    0x330fc
                0x08000188                . = ALIGN (0x4)
 *(.text)
 .text          0x08000188       0x54 d:/elektronik/ides/chibistudio/tools/gnu tools arm embedded/4.6 2012q2/bin/../lib/gcc/arm-none-eabi/4.6.2/armv7e-m/crtbegin.o
 .text          0x080001dc     0x135c ./STM32_USB_OTG_Driver/src/usb_core.o
                0x080002c8                USB_OTG_WritePacket
                0x0800034c                USB_OTG_ReadPacket
                0x080003b4                USB_OTG_SelectCore
                0x08000578                USB_OTG_CoreInit
                0x08000778                USB_OTG_EnableGlobalInt
                0x080007b4                USB_OTG_DisableGlobalInt
                0x080007f4                USB_OTG_FlushTxFifo
                0x08000874                USB_OTG_FlushRxFifo
                0x080008e0                USB_OTG_SetCurrentMode
                0x08000944                USB_OTG_GetMode
                0x08000964                USB_OTG_IsDeviceMode
                0x08000988                USB_OTG_IsHostMode
                0x080009ac                USB_OTG_ReadCoreItr
                0x080009dc                USB_OTG_ReadOtgItr
                0x080009f8                USB_OTG_CoreInitHost
                0x08000b70                USB_OTG_IsEvenFrame
                0x08000b98                USB_OTG_DriveVbus
                0x08000c18                USB_OTG_EnableHostInt
                0x08000ca4                USB_OTG_InitFSLSPClkSel
                0x08000cdc                USB_OTG_ReadHPRT0
                0x08000d1c                USB_OTG_ReadHostAllChannels_intr
                0x08000d38                USB_OTG_ResetPort
                0x08000d8c                USB_OTG_HC_Init
                0x08001064                USB_OTG_HC_StartXfer
                0x08001374                USB_OTG_HC_Halt
                0x08001420                USB_OTG_HC_DoPing
                0x080014a8                USB_OTG_StopHost
 .text          0x08001538      0x200 ./STM32_USB_OTG_Driver/src/usb_hcd.o
                0x08001538                HCD_Init
                0x080015e0                HCD_GetCurrentSpeed
                0x08001608                HCD_ResetPort
                0x08001624                HCD_IsDeviceConnected
                0x08001640                HCD_GetCurrentFrame
                0x08001664                HCD_GetURB_State
                0x08001688                HCD_GetXferCnt
                0x080016ac                HCD_GetHCState
                0x080016d0                HCD_HC_Init
                0x080016f4                HCD_SubmitRequest
 .text          0x08001738     0x1490 ./STM32_USB_OTG_Driver/src/usb_hcd_int.o
                0x08001738                USBH_OTG_ISR_Handler
 .text          0x08002bc8      0xb14 ./STM32_USB_HOST_Library/Core/src/usbh_core.o
                0x08002bc8                USBH_Connect
                0x08002bf8                USBH_Disconnect
                0x08002c28                USBH_Init
                0x08002ca4                USBH_DeInit
                0x08002d18                USBH_Process
                0x08002fac                USBH_ErrorHandle
                0x08003330                USBH_HandleControl
 .text          0x080036dc      0x2d4 ./STM32_USB_HOST_Library/Core/src/usbh_hcs.o
                0x080036dc                USBH_Open_Channel
                0x080037e4                USBH_Modify_Channel
                0x08003880                USBH_Alloc_Channel
                0x080038cc                USBH_Free_Channel
                0x08003918                USBH_DeAllocate_AllChannel
 .text          0x080039b0      0x598 ./STM32_USB_HOST_Library/Core/src/usbh_ioreq.o
                0x080039b0                USBH_CtlReq
                0x08003a58                USBH_CtlSendSetup
                0x08003ad4                USBH_CtlSendData
                0x08003b98                USBH_CtlReceiveData
                0x08003c14                USBH_BulkSendData
                0x08003cbc                USBH_BulkReceiveData
                0x08003d64                USBH_InterruptReceiveData
                0x08003e34                USBH_InterruptSendData
 .text          0x08003f48      0x658 ./STM32_USB_HOST_Library/Core/src/usbh_stdreq.o
                0x08003f48                USBH_Get_DevDesc
                0x08003fa4                USBH_Get_CfgDesc
                0x08004004                USBH_Get_StringDesc
                0x08004060                USBH_GetDescriptor
                0x080040c4                USBH_SetAddress
                0x08004118                USBH_SetCfg
                0x08004168                USBH_ClrFeature
 .text          0x080045a0      0x7d0 ./STM32_USB_HOST_Library/Class/MSC/src/usbh_msc_bot.o
                0x080045a0                USBH_MSC_Init
                0x08004618                USBH_MSC_HandleBOTXfer
                0x08004bfc                USBH_MSC_BOT_Abort
                0x08004c9c                USBH_MSC_DecodeCSW
 .text          0x08004d70      0x658 ./STM32_USB_HOST_Library/Class/MSC/src/usbh_msc_core.o
                0x08005344                USBH_MSC_ErrorHandle
 .text          0x080053c8      0x2c4 ./STM32_USB_HOST_Library/Class/MSC/src/usbh_msc_fatfs.o
                0x080053c8                disk_initialize
                0x08005418                disk_status
                0x08005448                disk_read
                0x08005504                disk_write
                0x080055dc                disk_ioctl
 .text          0x0800568c      0xabc ./STM32_USB_HOST_Library/Class/MSC/src/usbh_msc_scsi.o
                0x0800568c                USBH_MSC_TestUnitReady
                0x08005808                USBH_MSC_ReadCapacity10
                0x080059e4                USBH_MSC_ModeSense6
                0x08005b9c                USBH_MSC_RequestSense
                0x08005d80                USBH_MSC_Write10
                0x08005f44                USBH_MSC_Read10
 .text          0x08006148      0x1dc ./STM32F4xx_StdPeriph_Driver/src/misc.o
                0x08006148                NVIC_PriorityGroupConfig
                0x08006170                NVIC_Init
                0x08006254                NVIC_SetVectorTable
                0x08006280                NVIC_SystemLPConfig
                0x080062d8                SysTick_CLKSourceConfig
 .text          0x08006324      0x530 ./STM32F4xx_StdPeriph_Driver/src/stm32f4xx_dac.o
                0x08006324                DAC_DeInit
                0x08006344                DAC_Init
                0x080063b8                DAC_StructInit
                0x080063ec                DAC_Cmd
                0x08006454                DAC_SoftwareTriggerCmd
                0x080064c4                DAC_DualSoftwareTriggerCmd
                0x08006510                DAC_WaveGenerationCmd
                0x08006574                DAC_SetChannel1Data
                0x080065ac                DAC_SetChannel2Data
                0x080065e4                DAC_SetDualChannelData
                0x08006648                DAC_GetDataOutputValue
                0x08006684                DAC_DMACmd
                0x080066ec                DAC_ITConfig
                0x08006750                DAC_GetFlagStatus
                0x08006798                DAC_ClearFlag
                0x080067c0                DAC_GetITStatus
                0x0800682c                DAC_ClearITPendingBit
 .text          0x08006854      0x820 ./STM32F4xx_StdPeriph_Driver/src/stm32f4xx_dma.o
                0x08006854                DMA_DeInit
                0x08006a98                DMA_Init
                0x08006b48                DMA_StructInit
                0x08006bd4                DMA_Cmd
                0x08006c0c                DMA_PeriphIncOffsetSizeConfig
                0x08006c40                DMA_FlowControllerConfig
                0x08006c74                DMA_SetCurrDataCounter
                0x08006c90                DMA_GetCurrDataCounter
                0x08006cac                DMA_DoubleBufferModeConfig
                0x08006ce8                DMA_DoubleBufferModeCmd
                0x08006d20                DMA_MemoryTargetConfig
                0x08006d4c                DMA_GetCurrentMemoryTarget
                0x08006d84                DMA_GetCmdStatus
                0x08006dbc                DMA_GetFIFOStatus
                0x08006de4                DMA_GetFlagStatus
                0x08006e6c                DMA_ClearFlag
                0x08006ed0                DMA_ITConfig
                0x08006f48                DMA_GetITStatus
                0x08007010                DMA_ClearITPendingBit
 .text          0x08007074      0x2d4 ./STM32F4xx_StdPeriph_Driver/src/stm32f4xx_exti.o
                0x08007074                EXTI_DeInit
                0x080070c8                EXTI_Init
                0x0800720c                EXTI_StructInit
                0x08007240                EXTI_GenerateSWInterrupt
                0x0800726c                EXTI_GetFlagStatus
                0x080072ac                EXTI_ClearFlag
                0x080072cc                EXTI_GetITStatus
                0x08007328                EXTI_ClearITPendingBit
 .text          0x08007348      0x550 ./STM32F4xx_StdPeriph_Driver/src/stm32f4xx_gpio.o
                0x08007348                GPIO_DeInit
                0x080074c0                GPIO_Init
                0x08007614                GPIO_StructInit
                0x08007650                GPIO_PinLockConfig
                0x08007694                GPIO_ReadInputDataBit
                0x080076d0                GPIO_ReadInputData
                0x080076ec                GPIO_ReadOutputDataBit
                0x08007728                GPIO_ReadOutputData
                0x08007744                GPIO_SetBits
                0x08007760                GPIO_ResetBits
                0x0800777c                GPIO_WriteBit
                0x080077ac                GPIO_Write
                0x080077c8                GPIO_ToggleBits
                0x080077ec                GPIO_PinAFConfig
 .text          0x08007898      0xa10 ./STM32F4xx_StdPeriph_Driver/src/stm32f4xx_i2c.o
                0x08007898                I2C_DeInit
                0x08007920                I2C_Init
                0x08007acc                I2C_StructInit
                0x08007b10                I2C_Cmd
                0x08007b50                I2C_GenerateSTART
                0x08007b90                I2C_GenerateSTOP
                0x08007bd0                I2C_Send7bitAddress
                0x08007c0c                I2C_AcknowledgeConfig
                0x08007c4c                I2C_OwnAddress2Config
                0x08007c90                I2C_DualAddressCmd
                0x08007cd0                I2C_GeneralCallCmd
                0x08007d10                I2C_SoftwareResetCmd
                0x08007d58                I2C_StretchClockCmd
                0x08007d98                I2C_FastModeDutyCycleConfig
                0x08007dd8                I2C_NACKPositionConfig
                0x08007e18                I2C_SMBusAlertConfig
                0x08007e58                I2C_ARPCmd
                0x08007e98                I2C_SendData
                0x08007eb8                I2C_ReceiveData
                0x08007ed4                I2C_TransmitPEC
                0x08007f14                I2C_PECPositionConfig
                0x08007f54                I2C_CalculatePEC
                0x08007f94                I2C_GetPEC
                0x08007fb8                I2C_DMACmd
                0x08007ff8                I2C_DMALastTransferCmd
                0x08008038                I2C_ReadRegister
                0x08008068                I2C_ITConfig
                0x080080b0                I2C_CheckEvent
                0x08008120                I2C_GetLastEvent
                0x0800816c                I2C_GetFlagStatus
                0x080081e4                I2C_ClearFlag
                0x08008214                I2C_GetITStatus
                0x08008278                I2C_ClearITPendingBit
 .text          0x080082a8      0x290 ./STM32F4xx_StdPeriph_Driver/src/stm32f4xx_pwr.o
                0x080082a8                PWR_DeInit
                0x080082c8                PWR_BackupAccessCmd
                0x080082e8                PWR_PVDLevelConfig
                0x08008328                PWR_PVDCmd
                0x08008348                PWR_WakeUpPinCmd
                0x08008368                PWR_BackupRegulatorCmd
                0x08008388                PWR_MainRegulatorModeConfig
                0x080083d4                PWR_FlashPowerDownCmd
                0x080083f4                PWR_EnterSTOPMode
                0x08008474                PWR_EnterSTANDBYMode
                0x080084c8                PWR_GetFlagStatus
                0x08008508                PWR_ClearFlag
 .text          0x08008538      0xdd0 ./STM32F4xx_StdPeriph_Driver/src/stm32f4xx_rcc.o
                0x08008538                RCC_DeInit
                0x080085bc                RCC_HSEConfig
                0x080085ec                RCC_WaitForHSEStartUp
                0x08008650                RCC_AdjustHSICalibrationValue
                0x08008698                RCC_HSICmd
                0x080086b8                RCC_LSEConfig
                0x08008718                RCC_LSICmd
                0x08008738                RCC_PLLConfig
                0x08008780                RCC_PLLCmd
                0x080087a0                RCC_PLLI2SConfig
                0x080087d0                RCC_PLLI2SCmd
                0x080087f0                RCC_ClockSecuritySystemCmd
                0x08008810                RCC_MCO1Config
                0x08008858                RCC_MCO2Config
                0x080088a0                RCC_SYSCLKConfig
                0x080088e0                RCC_GetSYSCLKSource
                0x08008900                RCC_HCLKConfig
                0x08008940                RCC_PCLK1Config
                0x08008980                RCC_PCLK2Config
                0x080089c4                RCC_GetClocksFreq
                0x08008b94                RCC_RTCCLKConfig
                0x08008c0c                RCC_RTCCLKCmd
                0x08008c2c                RCC_BackupResetCmd
                0x08008c4c                RCC_I2SCLKConfig
                0x08008c6c                RCC_AHB1PeriphClockCmd
                0x08008cc4                RCC_AHB2PeriphClockCmd
                0x08008d1c                RCC_AHB3PeriphClockCmd
                0x08008d74                RCC_APB1PeriphClockCmd
                0x08008dcc                RCC_APB2PeriphClockCmd
                0x08008e24                RCC_AHB1PeriphResetCmd
                0x08008e7c                RCC_AHB2PeriphResetCmd
                0x08008ed4                RCC_AHB3PeriphResetCmd
                0x08008f2c                RCC_APB1PeriphResetCmd
                0x08008f84                RCC_APB2PeriphResetCmd
                0x08008fdc                RCC_AHB1PeriphClockLPModeCmd
                0x08009034                RCC_AHB2PeriphClockLPModeCmd
                0x0800908c                RCC_AHB3PeriphClockLPModeCmd
                0x080090e4                RCC_APB1PeriphClockLPModeCmd
                0x0800913c                RCC_APB2PeriphClockLPModeCmd
                0x08009194                RCC_ITConfig
                0x080091f4                RCC_GetFlagStatus
                0x08009284                RCC_ClearFlag
                0x080092a8                RCC_GetITStatus
                0x080092e8                RCC_ClearITPendingBit
 .text          0x08009308     0x1c18 ./STM32F4xx_StdPeriph_Driver/src/stm32f4xx_rtc.o
                0x08009308                RTC_DeInit
                0x08009474                RTC_Init
                0x08009538                RTC_StructInit
                0x08009564                RTC_WriteProtectionCmd
                0x080095ac                RTC_EnterInitMode
                0x08009640                RTC_ExitInitMode
                0x08009664                RTC_WaitForSynchro
                0x08009714                RTC_RefClockCmd
                0x080097b0                RTC_BypassShadowCmd
                0x08009828                RTC_SetTime
                0x08009970                RTC_TimeStructInit
                0x080099a4                RTC_GetTime
                0x08009a50                RTC_GetSubSecond
                0x08009a80                RTC_SetDate
                0x08009bc0                RTC_DateStructInit
                0x08009bf4                RTC_GetDate
                0x08009c9c                RTC_SetAlarm
                0x08009e18                RTC_AlarmStructInit
                0x08009e64                RTC_GetAlarm
                0x08009f50                RTC_AlarmCmd
                0x0800a040                RTC_AlarmSubSecondConfig
                0x0800a0b0                RTC_GetAlarmSubSecond
                0x0800a100                RTC_WakeUpClockConfig
                0x0800a170                RTC_SetWakeUpCounter
                0x0800a1b8                RTC_GetWakeUpCounter
                0x0800a1d8                RTC_WakeUpCmd
                0x0800a2b0                RTC_DayLightSavingConfig
                0x0800a324                RTC_GetStoreOperation
                0x0800a340                RTC_OutputConfig
                0x0800a3b4                RTC_CoarseCalibConfig
                0x0800a428                RTC_CoarseCalibCmd
                0x0800a4c4                RTC_CalibOutputCmd
                0x0800a53c                RTC_CalibOutputConfig
                0x0800a5ac                RTC_SmoothCalibConfig
                0x0800a668                RTC_TimeStampCmd
                0x0800a6ec                RTC_GetTimeStamp
                0x0800a820                RTC_GetTimeStampSubSecond
                0x0800a838                RTC_TamperTriggerConfig
                0x0800a894                RTC_TamperCmd
                0x0800a8ec                RTC_TamperFilterConfig
                0x0800a930                RTC_TamperSamplingFreqConfig
                0x0800a974                RTC_TamperPinsPrechargeDuration
                0x0800a9b8                RTC_TimeStampOnTamperDetectionCmd
                0x0800aa04                RTC_TamperPullUpCmd
                0x0800aa50                RTC_WriteBackupRegister
                0x0800aa88                RTC_ReadBackupRegister
                0x0800aabc                RTC_TamperPinSelection
                0x0800ab00                RTC_TimeStampPinSelection
                0x0800ab44                RTC_OutputTypeConfig
                0x0800ab88                RTC_SynchroShiftConfig
                0x0800ac68                RTC_ITConfig
                0x0800ad30                RTC_GetFlagStatus
                0x0800ad80                RTC_ClearFlag
                0x0800adc0                RTC_GetITStatus
                0x0800ae50                RTC_ClearITPendingBit
 .text          0x0800af20      0x908 ./STM32F4xx_StdPeriph_Driver/src/stm32f4xx_spi.o
                0x0800af20                SPI_I2S_DeInit
                0x0800afa8                SPI_Init
                0x0800b030                I2S_Init
                0x0800b264                SPI_StructInit
                0x0800b2c0                I2S_StructInit
                0x0800b304                SPI_Cmd
                0x0800b344                I2S_Cmd
                0x0800b384                SPI_DataSizeConfig
                0x0800b3bc                SPI_BiDirectionalLineConfig
                0x0800b3fc                SPI_NSSInternalSoftwareConfig
                0x0800b440                SPI_SSOutputCmd
                0x0800b480                SPI_TIModeCmd
                0x0800b4c0                I2S_FullDuplexConfig
                0x0800b564                SPI_I2S_ReceiveData
                0x0800b580                SPI_I2S_SendData
                0x0800b59c                SPI_CalculateCRC
                0x0800b5dc                SPI_TransmitCRC
                0x0800b600                SPI_GetCRC
                0x0800b634                SPI_GetCRCPolynomial
                0x0800b650                SPI_I2S_DMACmd
                0x0800b698                SPI_I2S_ITConfig
                0x0800b704                SPI_I2S_GetFlagStatus
                0x0800b744                SPI_I2S_ClearFlag
                0x0800b768                SPI_I2S_GetITStatus
                0x0800b7f0                SPI_I2S_ClearITPendingBit
 .text          0x0800b828      0x170 ./STM32F4xx_StdPeriph_Driver/src/stm32f4xx_syscfg.o
                0x0800b828                SYSCFG_DeInit
                0x0800b848                SYSCFG_MemoryRemapConfig
                0x0800b868                SYSCFG_EXTILineConfig
                0x0800b91c                SYSCFG_ETH_MediaInterfaceConfig
                0x0800b93c                SYSCFG_CompensationCellCmd
                0x0800b95c                SYSCFG_GetCompensationCellStatus
 .text          0x0800b998     0x1d74 ./STM32F4xx_StdPeriph_Driver/src/stm32f4xx_tim.o
                0x0800b998                TIM_DeInit
                0x0800bbd0                TIM_TimeBaseInit
                0x0800bcc4                TIM_TimeBaseStructInit
                0x0800bd00                TIM_PrescalerConfig
                0x0800bd28                TIM_CounterModeConfig
                0x0800bd60                TIM_SetCounter
                0x0800bd7c                TIM_SetAutoreload
                0x0800bd98                TIM_GetCounter
                0x0800bdb0                TIM_GetPrescaler
                0x0800bdcc                TIM_UpdateDisableConfig
                0x0800be0c                TIM_UpdateRequestConfig
                0x0800be4c                TIM_ARRPreloadConfig
                0x0800be8c                TIM_SelectOnePulseMode
                0x0800bec4                TIM_SetClockDivision
                0x0800befc                TIM_Cmd
                0x0800bf3c                TIM_OC1Init
                0x0800c038                TIM_OC2Init
                0x0800c160                TIM_OC3Init
                0x0800c280                TIM_OC4Init
                0x0800c360                TIM_OCStructInit
                0x0800c3b4                TIM_SelectOCxM
                0x0800c474                TIM_SetCompare1
                0x0800c490                TIM_SetCompare2
                0x0800c4ac                TIM_SetCompare3
                0x0800c4c8                TIM_SetCompare4
                0x0800c4e4                TIM_ForcedOC1Config
                0x0800c51c                TIM_ForcedOC2Config
                0x0800c55c                TIM_ForcedOC3Config
                0x0800c594                TIM_ForcedOC4Config
                0x0800c5d4                TIM_OC1PreloadConfig
                0x0800c60c                TIM_OC2PreloadConfig
                0x0800c64c                TIM_OC3PreloadConfig
                0x0800c684                TIM_OC4PreloadConfig
                0x0800c6c4                TIM_OC1FastConfig
                0x0800c6fc                TIM_OC2FastConfig
                0x0800c73c                TIM_OC3FastConfig
                0x0800c774                TIM_OC4FastConfig
                0x0800c7b4                TIM_ClearOC1Ref
                0x0800c7ec                TIM_ClearOC2Ref
                0x0800c830                TIM_ClearOC3Ref
                0x0800c868                TIM_ClearOC4Ref
                0x0800c8ac                TIM_OC1PolarityConfig
                0x0800c8e4                TIM_OC1NPolarityConfig
                0x0800c91c                TIM_OC2PolarityConfig
                0x0800c95c                TIM_OC2NPolarityConfig
                0x0800c99c                TIM_OC3PolarityConfig
                0x0800c9dc                TIM_OC3NPolarityConfig
                0x0800ca1c                TIM_OC4PolarityConfig
                0x0800ca5c                TIM_CCxCmd
                0x0800cab8                TIM_CCxNCmd
                0x0800cb14                TIM_ICInit
                0x0800cbbc                TIM_ICStructInit
                0x0800cbf8                TIM_PWMIConfig
                0x0800ccbc                TIM_GetCapture1
                0x0800ccd4                TIM_GetCapture2
                0x0800ccec                TIM_GetCapture3
                0x0800cd04                TIM_GetCapture4
                0x0800cd1c                TIM_SetIC1Prescaler
                0x0800cd54                TIM_SetIC2Prescaler
                0x0800cd90                TIM_SetIC3Prescaler
                0x0800cdc8                TIM_SetIC4Prescaler
                0x0800ce04                TIM_BDTRConfig
                0x0800ce54                TIM_BDTRStructInit
                0x0800cea0                TIM_CtrlPWMOutputs
                0x0800cef0                TIM_SelectCOM
                0x0800cf30                TIM_CCPreloadControl
                0x0800cf70                TIM_ITConfig
                0x0800cfb8                TIM_GenerateEvent
                0x0800cfd4                TIM_GetFlagStatus
                0x0800d014                TIM_ClearFlag
                0x0800d038                TIM_GetITStatus
                0x0800d098                TIM_ClearITPendingBit
                0x0800d0bc                TIM_DMAConfig
                0x0800d0e4                TIM_DMACmd
                0x0800d12c                TIM_SelectCCDMA
                0x0800d16c                TIM_InternalClockConfig
                0x0800d190                TIM_ITRxExternalClockConfig
                0x0800d1c0                TIM_TIxExternalClockConfig
                0x0800d218                TIM_ETRClockMode1Config
                0x0800d26c                TIM_ETRClockMode2Config
                0x0800d2a0                TIM_SelectInputTrigger
                0x0800d2d8                TIM_SelectOutputTrigger
                0x0800d310                TIM_SelectSlaveMode
                0x0800d348                TIM_SelectMasterSlaveMode
                0x0800d380                TIM_ETRConfig
                0x0800d3cc                TIM_EncoderInterfaceConfig
                0x0800d460                TIM_SelectHallSensor
                0x0800d4a0                TIM_RemapConfig
 .text          0x0800d70c      0x244 ./STM32F4-Discovery/stm32f4_discovery.o
                0x0800d70c                STM_EVAL_LEDInit
                0x0800d778                STM_EVAL_LEDOn
                0x0800d7ac                STM_EVAL_LEDOff
                0x0800d7e0                STM_EVAL_LEDToggle
                0x0800d828                STM_EVAL_PBInit
                0x0800d914                STM_EVAL_PBGetState
 .text          0x0800d950     0x141c ./STM32F4-Discovery/stm32f4_discovery_audio_codec.o
                0x0800d9a0                EVAL_AUDIO_SetAudioInterface
                0x0800db10                EVAL_AUDIO_Init
                0x0800db78                EVAL_AUDIO_DeInit
                0x0800db8c                EVAL_AUDIO_Play
                0x0800dc08                EVAL_AUDIO_PauseResume
                0x0800dc3c                EVAL_AUDIO_Stop
                0x0800dc7c                EVAL_AUDIO_VolumeCtl
                0x0800dcc8                EVAL_AUDIO_Mute
                0x0800de64                DMA1_Stream7_IRQHandler
                0x0800de70                DMA1_Stream0_IRQHandler
                0x0800de7c                SPI3_IRQHandler
                0x0800e8cc                Codec_TIMEOUT_UserCallback
                0x0800eb24                Audio_MAL_Play
                0x0800ecf4                DAC_Config
 .text          0x0800ed6c      0x6a4 ./STM32F4-Discovery/stm32f4_discovery_lis302dl.o
                0x0800ed6c                LIS302DL_Init
                0x0800edc0                LIS302DL_FilterConfig
                0x0800ee20                LIS302DL_InterruptConfig
                0x0800ee70                LIS302DL_LowpowerCmd
                0x0800eebc                LIS302DL_DataRateCmd
                0x0800ef08                LIS302DL_FullScaleCmd
                0x0800ef54                LIS302DL_RebootCmd
                0x0800ef90                LIS302DL_Write
                0x0800f000                LIS302DL_Read
                0x0800f080                LIS302DL_ReadACC
                0x0800f408                LIS302DL_TIMEOUT_UserCallback
 .text          0x0800f410      0x29c ./Menue/CMenue.o
                0x0800f410                CMenue::CMenue(CGraphicLCD*)
                0x0800f410                CMenue::CMenue(CGraphicLCD*)
                0x0800f440                CMenue::~CMenue()
                0x0800f440                CMenue::~CMenue()
                0x0800f478                CMenue::~CMenue()
                0x0800f498                CMenue::HardwareInit()
                0x0800f4b0                CMenue::Run()
 .text          0x0800f6ac      0x970 ./HelixMP3/real/bitstream.o
                0x0800f6ac                xmp3_SetBitstreamPointer
                0x0800f7f0                xmp3_GetBits
                0x0800f88c                xmp3_CalcBitsUsed
                0x0800f8c8                xmp3_CheckPadBit
                0x0800f904                xmp3_UnpackFrameHeader
                0x0800fc70                xmp3_UnpackSideInfo
 .text          0x0801001c      0x16c ./HelixMP3/real/buffers.o
                0x0801001c                ClearBuffer
                0x08010058                xmp3_AllocateBuffers
                0x08010174                xmp3_FreeBuffers
 .text          0x08010188     0x10dc ./HelixMP3/real/dct32.o
                0x080101ac                xmp3_FDCT32
 .text          0x08011264      0x430 ./HelixMP3/real/dequant.o
                0x08011284                xmp3_Dequantize
 .text          0x08011694      0x6d8 ./HelixMP3/real/dqchan.o
                0x0801199c                xmp3_DequantChannel
 .text          0x08011d6c      0xc84 ./HelixMP3/real/huffman.o
                0x080126c0                xmp3_DecodeHuffman
 .text          0x080129f0     0x1ff8 ./HelixMP3/real/imdct.o
                0x080146a8                xmp3_IMDCT
 .text          0x080149e8     0x1950 ./HelixMP3/real/polyphase.o
                0x08014ab8                xmp3_PolyphaseMono
                0x080153a8                xmp3_PolyphaseStereo
 .text          0x08016338      0xaac ./HelixMP3/real/scalfact.o
                0x08016bf0                xmp3_UnpackScaleFactors
 .text          0x08016de4      0xb70 ./HelixMP3/real/stproc.o
                0x08016e38                xmp3_MidSideProc
                0x08016ef8                xmp3_IntensityProcMPEG1
                0x080173d8                xmp3_IntensityProcMPEG2
 .text          0x08017954      0x1c8 ./HelixMP3/real/subband.o
                0x08017954                xmp3_Subband
 .text          0x08017b1c      0x768 ./HelixMP3/mp3dec.o
                0x08017b1c                MP3InitDecoder
                0x08017b38                MP3FreeDecoder
                0x08017b5c                MP3FindSyncWord
                0x08017c78                MP3GetLastFrameInfo
                0x08017d50                MP3GetNextFrameInfo
                0x08017e04                MP3Decode
 .text          0x08018284       0xdc ./GraphicLCD/CGraphicLCD.o
                0x08018284                CGraphicLCD::CGraphicLCD()
                0x08018284                CGraphicLCD::CGraphicLCD()
                0x080182ac                CGraphicLCD::CGraphicLCD(bool)
                0x080182ac                CGraphicLCD::CGraphicLCD(bool)
                0x080182d8                CGraphicLCD::~CGraphicLCD()
                0x080182d8                CGraphicLCD::~CGraphicLCD()
                0x0801830c                CGraphicLCD::~CGraphicLCD()
                0x0801832c                CGraphicLCD::Inverse()
                0x08018344                CGraphicLCD::Inverse(bool)
 .text          0x08018360      0xe5c ./GraphicLCD/CT6963CDriver.o
                0x08018360                CT6963CDriver::CT6963CDriver()
                0x08018360                CT6963CDriver::CT6963CDriver()
                0x08018388                CT6963CDriver::~CT6963CDriver()
                0x08018388                CT6963CDriver::~CT6963CDriver()
                0x080183c0                CT6963CDriver::~CT6963CDriver()
                0x080183e0                CT6963CDriver::Init()
                0x08018540                CT6963CDriver::SetAddressPointer(unsigned int)
                0x08018598                CT6963CDriver::TextGoTo(unsigned char, unsigned char)
                0x080185cc                CT6963CDriver::GraphicGoTo(unsigned char, unsigned char)
                0x0801860c                CT6963CDriver::Clear()
                0x080186a8                CT6963CDriver::WriteDisplayData(unsigned char)
                0x080186e0                CT6963CDriver::WriteChar(char)
                0x08018704                CT6963CDriver::WriteString(char const*, tFont const&, unsigned int, unsigned int)
                0x080188a0                CT6963CDriver::SetPixel(unsigned char, unsigned char)
                0x08018928                CT6963CDriver::Line(unsigned int, unsigned int, unsigned int, unsigned int)
                0x08018a78                CT6963CDriver::Window(unsigned int, unsigned int, unsigned int, unsigned int)
                0x08018dc0                CT6963CDriver::Rectangle(unsigned int, unsigned int, unsigned int, unsigned int, bool)
                0x08018f04                CT6963CDriver::SectorClear(unsigned int, unsigned int, unsigned int, unsigned int)
                0x08018f64                CT6963CDriver::Circle(unsigned char, unsigned char, unsigned char)
                0x080190e8                CT6963CDriver::Bitmap(unsigned char*, unsigned char, unsigned char, unsigned char, unsigned char)
 .text          0x080191bc      0x490 ./GraphicLCD/CT6963GPIOInterface.o
                0x080191bc                CT6963_GPIO_Interface::CT6963_GPIO_Interface()
                0x080191bc                CT6963_GPIO_Interface::CT6963_GPIO_Interface()
                0x080191e4                CT6963_GPIO_Interface::~CT6963_GPIO_Interface()
                0x080191e4                CT6963_GPIO_Interface::~CT6963_GPIO_Interface()
                0x0801921c                CT6963_GPIO_Interface::~CT6963_GPIO_Interface()
                0x0801923c                CheckStatus()
                0x080192f8                CT6963_GPIO_Interface::HardwareInit()
                0x080193b8                CT6963_GPIO_Interface::Reset()
                0x080193f0                CT6963_GPIO_Interface::WriteCommand(unsigned char)
                0x0801949c                CT6963_GPIO_Interface::WriteData(unsigned char)
                0x08019568                CT6963_GPIO_Interface::ReadData()
 .text          0x0801964c      0x250 ./FreeRTOS_EC/Source/AManagedTask.o
                0x0801964c                AManagedTask::AManagedTask()
                0x0801964c                AManagedTask::AManagedTask()
                0x08019684                AManagedTask::~AManagedTask()
                0x08019684                AManagedTask::~AManagedTask()
                0x080196c4                AManagedTask::~AManagedTask()
                0x080196e4                AManagedTask::Create(char const*, unsigned short, unsigned long)
                0x08019748                AManagedTask::taskControlFunc(void*)
                0x08019768                AManagedTask::AddToManagedTask(AManagedTask*)
                0x080197b8                AManagedTask::RemoveFromManagedTask(AManagedTask*)
                0x08019840                AManagedTask::InitHardwareForManagedTasks()
 .text          0x0801989c       0x40 ./FreeRTOS_EC/Source/CFreeRTOS.o
                0x0801989c                CFreeRTOS::CFreeRTOS()
                0x0801989c                CFreeRTOS::CFreeRTOS()
                0x080198b4                CFreeRTOS::~CFreeRTOS()
                0x080198b4                CFreeRTOS::~CFreeRTOS()
                0x080198cc                CFreeRTOS::InitHardwareForManagedTasks()
 .text          0x080198dc      0x1c0 ./FreeRTOS_EC/Source/CTask.o
                0x080198dc                CTask::CTask()
                0x080198dc                CTask::CTask()
                0x0801990c                CTask::CTask(void*)
                0x0801990c                CTask::CTask(void*)
                0x0801993c                CTask::~CTask()
                0x0801993c                CTask::~CTask()
                0x08019980                CTask::~CTask()
                0x080199a0                CTask::Attach(void*)
                0x080199f4                CTask::Create(void (*)(void*), char const*, unsigned short, void*, unsigned long)
                0x08019a50                CTask::CreateRestricted(xTASK_PARAMTERS*)
                0x08019a70                CTask::Delete()
 .text          0x08019a9c      0x248 ./FreeRTOS/Source/portable/GCC/ARM_CM4F/port.o
                0x08019a9c                pxPortInitialiseStack
                0x08019b04                SVC_Handler
                0x08019b24                vPortStartFirstTask
                0x08019b34                xPortStartScheduler
                0x08019b88                vPortEndScheduler
                0x08019b94                vPortYieldFromISR
                0x08019bac                vPortEnterCritical
                0x08019bd8                vPortExitCritical
                0x08019c10                PendSV_Handler
                0x08019c68                SysTick_Handler
 .text          0x08019ce4      0x17c ./FreeRTOS/Source/list.o
                0x08019ce4                vListInitialise
                0x08019d24                vListInitialiseItem
                0x08019d40                vListInsertEnd
                0x08019d94                vListInsert
                0x08019e0c                vListRemove
 .text          0x08019e60      0x7fc ./FreeRTOS/Source/queue.o
                0x08019e60                xQueueCreate
                0x08019f30                xQueueCreateMutex
                0x08019fc8                xQueueGenericSend
                0x0801a0ec                xQueueGenericSendFromISR
                0x0801a17c                xQueueGenericReceive
                0x0801a304                xQueueReceiveFromISR
                0x0801a398                uxQueueMessagesWaiting
                0x0801a3bc                uxQueueMessagesWaitingFromISR
                0x0801a3d8                vQueueDelete
                0x0801a5dc                xQueueIsQueueEmptyFromISR
                0x0801a630                xQueueIsQueueFullFromISR
 .text          0x0801a65c     0x17c0 ./FreeRTOS/Source/tasks.o
                0x0801a65c                xTaskGenericCreate
                0x0801a808                vTaskDelete
                0x0801a8c8                vTaskDelayUntil
                0x0801a97c                vTaskDelay
                0x0801a9d8                uxTaskPriorityGet
                0x0801aa10                vTaskPrioritySet
                0x0801ab3c                vTaskSuspend
                0x0801abfc                xTaskIsTaskSuspended
                0x0801ac4c                vTaskResume
                0x0801acf8                xTaskResumeFromISR
                0x0801adb8                vTaskStartScheduler
                0x0801ae34                vTaskEndScheduler
                0x0801ae54                vTaskSuspendAll
                0x0801ae78                xTaskResumeAll
                0x0801afcc                xTaskGetTickCount
                0x0801aff4                xTaskGetTickCountFromISR
                0x0801b02c                uxTaskGetNumberOfTasks
                0x0801b044                vTaskGetRunTimeStats
                0x0801b1a4                xTaskGetIdleTaskHandle
                0x0801b1bc                vTaskIncrementTick
                0x0801b374                vTaskSetApplicationTaskTag
                0x0801b3ac                xTaskGetApplicationTaskTag
                0x0801b3e8                xTaskCallApplicationTaskHook
                0x0801b434                vTaskSwitchContext
                0x0801b574                vTaskPlaceOnEventList
                0x0801b5ec                xTaskRemoveFromEventList
                0x0801b6b0                vTaskSetTimeOutState
                0x0801b6e0                xTaskCheckForTimeOut
                0x0801b784                vTaskMissedYield
                0x0801bc38                uxTaskGetStackHighWaterMark
                0x0801bc94                xTaskGetCurrentTaskHandle
                0x0801bcb4                vTaskPriorityInherit
                0x0801bd8c                vTaskPriorityDisinherit
 .text          0x0801be1c      0x43c ./Clock/CRTCHandler.o
                0x0801be1c                rtc_handler_namespace::CRTCHandler::CRTCHandler()
                0x0801be1c                rtc_handler_namespace::CRTCHandler::CRTCHandler()
                0x0801be44                rtc_handler_namespace::CRTCHandler::~CRTCHandler()
                0x0801be44                rtc_handler_namespace::CRTCHandler::~CRTCHandler()
                0x0801be7c                rtc_handler_namespace::CRTCHandler::~CRTCHandler()
                0x0801be9c                rtc_handler_namespace::CRTCHandler::GetTimeString()
                0x0801beb8                rtc_handler_namespace::CRTCHandler::GetAlarmString(rtc_handler_namespace::eAlarms)
                0x0801bed8                rtc_handler_namespace::CRTCHandler::SetTimeString(char const*)
                0x0801beec                rtc_handler_namespace::CRTCHandler::SetAlarmString(char const*, rtc_handler_namespace::eAlarms)
                0x0801bf04                rtc_handler_namespace::CRTCHandler::HardwareInit()
                0x0801bf4c                rtc_handler_namespace::CRTCHandler::Run()
                0x0801bf60                rtc_handler_namespace::CRTCHandler::RTC_Config()
                0x0801c048                rtc_handler_namespace::CRTCHandler::GetLSIFrequency()
                0x0801c1b0                TIM5_IRQHandler
 .text          0x0801c258      0x3c4 ./Clock/CTime.o
                0x0801c258                Time::CTime::CTime()
                0x0801c258                Time::CTime::CTime()
                0x0801c280                Time::CTime::CTime(Time::CTime const&)
                0x0801c280                Time::CTime::CTime(Time::CTime const&)
                0x0801c2ac                Time::CTime::CTime(unsigned char, unsigned char, unsigned char, unsigned char, unsigned char, unsigned short)
                0x0801c2ac                Time::CTime::CTime(unsigned char, unsigned char, unsigned char, unsigned char, unsigned char, unsigned short)
                0x0801c310                Time::CTime::~CTime()
                0x0801c310                Time::CTime::~CTime()
                0x0801c344                Time::CTime::~CTime()
                0x0801c364                Time::CTime::operator=(Time::CTime const&)
                0x0801c384                Time::CTime::getTimeString(char*)
                0x0801c3bc                Time::CTime::getDateString(char*)
                0x0801c3f4                Time::CTime::getWeekNumberString(char*)
                0x0801c42c                Time::operator+(Time::CTime const&, Time::CTime const&)
                0x0801c458                Time::operator-(Time::CTime const&, Time::CTime const&)
                0x0801c484                Time::operator+(Time::CTime const&, long long)
                0x0801c4b0                Time::operator-(Time::CTime const&, long long)
                0x0801c4dc                Time::operator+(long long, Time::CTime const&)
                0x0801c504                Time::operator-(long long, Time::CTime const&)
                0x0801c52c                Time::operator>(Time::CTime const&, Time::CTime const&)
                0x0801c554                Time::operator<(Time::CTime const&, Time::CTime const&)
                0x0801c57c                Time::operator>(Time::CTime const&, long long)
                0x0801c5a4                Time::operator<(Time::CTime const&, long long)
                0x0801c5cc                Time::operator>(long long, Time::CTime const&)
                0x0801c5f4                Time::operator<(long long, Time::CTime const&)
 .text          0x0801c61c      0x1d8 ./Clock/CTime_test.o
                0x0801c61c                Time::CTimeUnitTest()
 .text          0x0801c7f4      0x10c ./Audio_MP3/USB_MSC/CUSBMassStorage.o
                0x0801c7f4                CUSB_MassStorage::CUSB_MassStorage()
                0x0801c7f4                CUSB_MassStorage::CUSB_MassStorage()
                0x0801c81c                CUSB_MassStorage::~CUSB_MassStorage()
                0x0801c81c                CUSB_MassStorage::~CUSB_MassStorage()
                0x0801c854                CUSB_MassStorage::~CUSB_MassStorage()
                0x0801c874                CUSB_MassStorage::HardwareInit()
                0x0801c8b4                CUSB_MassStorage::Run()
                0x0801c8d4                CUSB_MassStorage::IsDeviceConnected()
 .text          0x0801c900      0x254 ./Audio_MP3/USB_MSC/usb_bsp.o
                0x0801c900                BSP_Init
                0x0801c914                USB_OTG_BSP_Init
                0x0801c9f4                USB_OTG_BSP_EnableInterrupt
                0x0801ca30                USB_OTG_BSP_DriveVBUS
                0x0801ca6c                USB_OTG_BSP_ConfigVBUS
                0x0801cad0                USB_OTG_BSP_uDelay
                0x0801cb28                USB_OTG_BSP_mDelay
                0x0801cb48                USB_OTG_BSP_TimerIRQ
 .text          0x0801cb54      0x254 ./Audio_MP3/USB_MSC/usbh_usr.o
                0x0801cb54                USBH_USR_Init
                0x0801cc18                USBH_USR_DeviceAttached
                0x0801cc24                USBH_USR_UnrecoveredError
                0x0801cc30                USBH_USR_DeviceDisconnected
                0x0801cc54                USBH_USR_ResetDevice
                0x0801cc60                USBH_USR_DeviceSpeedDetected
                0x0801cc74                USBH_USR_Device_DescAvailable
                0x0801cc88                USBH_USR_DeviceAddressAssigned
                0x0801cc94                USBH_USR_Configuration_DescAvailable
                0x0801ccac                USBH_USR_Manufacturer_String
                0x0801ccc0                USBH_USR_Product_String
                0x0801ccd4                USBH_USR_SerialNum_String
                0x0801cce8                USBH_USR_EnumerationDone
                0x0801cd2c                USBH_USR_DeviceNotSupported
                0x0801cd38                USBH_USR_UserInput
                0x0801cd48                USBH_USR_OverCurrentDetected
                0x0801cd54                USBH_USR_MSC_Application
                0x0801cd9c                USBH_USR_DeInit
 .text          0x0801cda8     0x44a0 ./Audio_MP3/FatFs/src/ff.o
                0x0801e804                f_mount
                0x0801e868                f_open
                0x0801ebcc                f_read
                0x0801eee0                f_write
                0x0801f254                f_sync
                0x0801f414                f_close
                0x0801f440                f_chdrive
                0x0801f474                f_chdir
                0x0801f550                f_lseek
                0x0801f85c                f_opendir
                0x0801f938                f_readdir
                0x0801f9d4                f_stat
                0x0801fa4c                f_getfree
                0x0801fc18                f_truncate
                0x0801fd40                f_unlink
                0x0801fef8                f_mkdir
                0x0802028c                f_chmod
                0x08020368                f_utime
                0x08020454                f_rename
                0x080206bc                f_mkfs
 .text          0x08021248      0xd84 ./Audio_MP3/CFileHandler.o
                0x08021248                CFileHandler::CFileHandler()
                0x08021248                CFileHandler::CFileHandler()
                0x080212e0                CFileHandler::~CFileHandler()
                0x080212e0                CFileHandler::~CFileHandler()
                0x08021318                CFileHandler::~CFileHandler()
                0x08021338                CFileHandler::HardwareInit()
                0x08021430                CFileHandler::Run()
                0x08021490                CFileHandler::RefillBuffer()
                0x08021564                CFileHandler::ReadConfig()
                0x08021578                CFileHandler::WriteConfig()
                0x0802158c                CFileHandler::MP3Player()
                0x08021898                CFileHandler::GetUSBRelease(unsigned long)
                0x080218e4                CFileHandler::ReleaseUSB()
                0x08021910                CFileHandler::PlayMP3(char const*)
                0x08021d38                CFileHandler::GetSong()
                0x08021d58                CFileHandler::PlayPause()
                0x08021d98                CFileHandler::SetVolume(unsigned char)
                0x08021dbc                CFileHandler::Mems_Config()
                0x08021ed8                CFileHandler::EXTILine_Config()
                0x08021f7c                EVAL_AUDIO_TransferComplete_CallBack
                0x08021fbc                EVAL_AUDIO_GetSampleCallBack
 .text          0x08021fcc       0x10 ./Audio_MP3/fattime.o
                0x08021fcc                get_fattime
 .text          0x08021fdc      0x1b0 ./CLedHeartBeatSTM32F4Disc.o
                0x08021fdc                CLedHeartBeatSTM32F4Disc::CLedHeartBeatSTM32F4Disc(unsigned long)
                0x08021fdc                CLedHeartBeatSTM32F4Disc::CLedHeartBeatSTM32F4Disc(unsigned long)
                0x08022014                CLedHeartBeatSTM32F4Disc::~CLedHeartBeatSTM32F4Disc()
                0x08022014                CLedHeartBeatSTM32F4Disc::~CLedHeartBeatSTM32F4Disc()
                0x0802204c                CLedHeartBeatSTM32F4Disc::~CLedHeartBeatSTM32F4Disc()
                0x0802206c                CLedHeartBeatSTM32F4Disc::HardwareInit()
                0x080220a4                CLedHeartBeatSTM32F4Disc::Run()
 .text          0x0802218c       0xd4 ./LibraryHacks.o
                0x0802218c                __gnu_cxx::__verbose_terminate_handler()
                0x08022194                __cxa_pure_virtual
                0x0802219c                operator new(unsigned int)
                0x080221b8                operator new[](unsigned int)
                0x080221d4                operator delete(void*)
                0x080221ec                operator delete[](void*)
                0x08022204                _sbrk
 .text          0x08022260      0x1d0 ./main.o
                0x08022260                main
                0x080222ec                vApplicationTickHook
                0x080222f8                vApplicationIdleHook
                0x08022304                vApplicationMallocFailedHook
                0x08022310                vApplicationStackOverflowHook
 .text          0x08022430       0xfc ./stm32f4xx_it.o
                0x08022430                NMI_Handler
                0x0802243c                HardFault_Handler
                0x08022444                MemManage_Handler
                0x0802244c                BusFault_Handler
                0x08022454                UsageFault_Handler
                0x0802245c                DebugMon_Handler
                0x08022468                EXTI1_IRQHandler
                0x080224bc                EXTI0_IRQHandler
                0x08022518                OTG_FS_IRQHandler
 .text          0x0802252c      0x160 ./syscalls.o
                0x0802252c                _exit
                0x08022538                _read_r
                0x08022558                _write_r
                0x08022578                _lseek_r
                0x080225a0                _close_r
                0x080225c4                _fstat_r
                0x08022604                _isatty_r
                0x08022620                _kill_r
                0x08022644                _getpid_r
                0x08022664                __malloc_lock
                0x08022678                __malloc_unlock
 .text          0x0802268c      0x3e8 ./system_stm32f4xx.o
                0x0802268c                SystemInit
                0x08022720                SystemCoreClockUpdate
 .text          0x08022a74      0x178 ./ustime.o
                0x08022a74                get_us_time
                0x08022b00                delay_us
                0x08022b5c                delay_ms
                0x08022b7c                init_us_timer
 .text          0x08022bec      0x370 d:/elektronik/ides/chibistudio/tools/gnu tools arm embedded/4.6 2012q2/bin/../lib/gcc/arm-none-eabi/4.6.2/armv7e-m\libgcc.a(_arm_addsubdf3.o)
                0x08022bec                __aeabi_drsub
                0x08022bf4                __aeabi_dsub
                0x08022bf4                __subdf3
                0x08022bf8                __aeabi_dadd
                0x08022bf8                __adddf3
                0x08022e70                __floatunsidf
                0x08022e70                __aeabi_ui2d
                0x08022e90                __floatsidf
                0x08022e90                __aeabi_i2d
                0x08022eb4                __aeabi_f2d
                0x08022eb4                __extendsfdf2
                0x08022ef0                __floatundidf
                0x08022ef0                __aeabi_ul2d
                0x08022f00                __floatdidf
                0x08022f00                __aeabi_l2d
 .text          0x08022f5c      0x424 d:/elektronik/ides/chibistudio/tools/gnu tools arm embedded/4.6 2012q2/bin/../lib/gcc/arm-none-eabi/4.6.2/armv7e-m\libgcc.a(_arm_muldivdf3.o)
                0x08022f5c                __aeabi_dmul
                0x08022f5c                __muldf3
                0x080231b0                __divdf3
                0x080231b0                __aeabi_ddiv
 .text          0x08023380      0x110 d:/elektronik/ides/chibistudio/tools/gnu tools arm embedded/4.6 2012q2/bin/../lib/gcc/arm-none-eabi/4.6.2/armv7e-m\libgcc.a(_arm_cmpdf2.o)
                0x08023380                __gtdf2
                0x08023380                __gedf2
                0x08023388                __ltdf2
                0x08023388                __ledf2
                0x08023390                __nedf2
                0x08023390                __eqdf2
                0x08023390                __cmpdf2
                0x0802340c                __aeabi_cdrcmple
                0x0802341c                __aeabi_cdcmpeq
                0x0802341c                __aeabi_cdcmple
                0x0802342c                __aeabi_dcmpeq
                0x08023440                __aeabi_dcmplt
                0x08023454                __aeabi_dcmple
                0x08023468                __aeabi_dcmpge
                0x0802347c                __aeabi_dcmpgt
 .text          0x08023490       0x50 d:/elektronik/ides/chibistudio/tools/gnu tools arm embedded/4.6 2012q2/bin/../lib/gcc/arm-none-eabi/4.6.2/armv7e-m\libgcc.a(_arm_fixdfsi.o)
                0x08023490                __aeabi_d2iz
                0x08023490                __fixdfsi
 .text          0x080234e0       0x2c d:/elektronik/ides/chibistudio/tools/gnu tools arm embedded/4.6 2012q2/bin/../lib/gcc/arm-none-eabi/4.6.2/armv7e-m\libgcc.a(_aeabi_uldivmod.o)
                0x080234e0                __aeabi_uldivmod
 .text          0x0802350c       0x58 d:/elektronik/ides/chibistudio/tools/gnu tools arm embedded/4.6 2012q2/bin/../lib/gcc/arm-none-eabi/4.6.2/armv7e-m\libgcc.a(bpabi.o)
                0x0802350c                __gnu_ldivmod_helper
                0x08023538                __gnu_uldivmod_helper
 .text          0x08023564      0xb54 d:/elektronik/ides/chibistudio/tools/gnu tools arm embedded/4.6 2012q2/bin/../lib/gcc/arm-none-eabi/4.6.2/armv7e-m\libgcc.a(unwind-arm.o)
                0x0802380c                _Unwind_VRS_Get
                0x0802384c                _Unwind_VRS_Set
                0x08023bac                __aeabi_unwind_cpp_pr2
                0x08023bb0                __aeabi_unwind_cpp_pr1
                0x08023bb4                __aeabi_unwind_cpp_pr0
                0x08023bb8                _Unwind_VRS_Pop
                0x08023f6c                _Unwind_GetCFA
                0x08023f70                __gnu_Unwind_RaiseException
                0x08023fd0                __gnu_Unwind_ForcedUnwind
                0x08023fe4                __gnu_Unwind_Resume
                0x08024020                __gnu_Unwind_Resume_or_Rethrow
                0x08024030                _Unwind_Complete
                0x08024034                _Unwind_DeleteException
                0x08024044                __gnu_Unwind_Backtrace
 .text          0x080240b8      0x1ac d:/elektronik/ides/chibistudio/tools/gnu tools arm embedded/4.6 2012q2/bin/../lib/gcc/arm-none-eabi/4.6.2/armv7e-m\libgcc.a(libunwind.o)
                0x080240b8                __restore_core_regs
                0x080240b8                restore_core_regs
                0x080240d0                __gnu_Unwind_Restore_VFP
                0x080240d8                __gnu_Unwind_Save_VFP
                0x080240e0                __gnu_Unwind_Restore_VFP_D
                0x080240e8                __gnu_Unwind_Save_VFP_D
                0x080240f0                __gnu_Unwind_Restore_VFP_D_16_to_31
                0x080240f8                __gnu_Unwind_Save_VFP_D_16_to_31
                0x08024100                __gnu_Unwind_Restore_WMMXD
                0x08024144                __gnu_Unwind_Save_WMMXD
                0x08024188                __gnu_Unwind_Restore_WMMXC
                0x0802419c                __gnu_Unwind_Save_WMMXC
                0x080241b0                ___Unwind_RaiseException
                0x080241b0                _Unwind_RaiseException
                0x080241d4                _Unwind_Resume
                0x080241d4                ___Unwind_Resume
                0x080241f8                _Unwind_Resume_or_Rethrow
                0x080241f8                ___Unwind_Resume_or_Rethrow
                0x0802421c                _Unwind_ForcedUnwind
                0x0802421c                ___Unwind_ForcedUnwind
                0x08024240                ___Unwind_Backtrace
                0x08024240                _Unwind_Backtrace
 .text          0x08024264      0x374 d:/elektronik/ides/chibistudio/tools/gnu tools arm embedded/4.6 2012q2/bin/../lib/gcc/arm-none-eabi/4.6.2/armv7e-m\libgcc.a(pr-support.o)
                0x080242b8                __gnu_unwind_execute
                0x08024580                __gnu_unwind_frame
                0x080245a8                _Unwind_GetRegionStart
                0x080245b4                _Unwind_GetLanguageSpecificData
                0x080245c8                _Unwind_GetDataRelBase
                0x080245d0                _Unwind_GetTextRelBase
 .text          0x080245d8        0x4 d:/elektronik/ides/chibistudio/tools/gnu tools arm embedded/4.6 2012q2/bin/../lib/gcc/arm-none-eabi/4.6.2/armv7e-m\libgcc.a(_dvmd_tls.o)
                0x080245d8                __aeabi_idiv0
                0x080245d8                __aeabi_ldiv0
 .text          0x080245dc      0x2c8 d:/elektronik/ides/chibistudio/tools/gnu tools arm embedded/4.6 2012q2/bin/../lib/gcc/arm-none-eabi/4.6.2/armv7e-m\libgcc.a(_divdi3.o)
                0x080245dc                __divdi3
 .text          0x080248a4      0x298 d:/elektronik/ides/chibistudio/tools/gnu tools arm embedded/4.6 2012q2/bin/../lib/gcc/arm-none-eabi/4.6.2/armv7e-m\libgcc.a(_udivdi3.o)
                0x080248a4                __udivdi3
 *(.text*)
 .text._ZNK5CTask7IsValidEv
                0x08024b3c       0x24 ./Menue/CMenue.o
                0x08024b3c                CTask::IsValid() const
 .text._ZN5CTask6DetachEv
                0x08024b60       0x24 ./Menue/CMenue.o
                0x08024b60                CTask::Detach()
 .text._ZN12AManagedTask8OnCreateEPKctm
                0x08024b84       0x20 ./Menue/CMenue.o
                0x08024b84                AManagedTask::OnCreate(char const*, unsigned short, unsigned long)
 .text._ZN5CTask13EnterCriticalEv
                0x08024ba4        0xc ./FreeRTOS_EC/Source/AManagedTask.o
                0x08024ba4                CTask::EnterCritical()
 .text._ZN5CTask12ExitCriticalEv
                0x08024bb0        0xc ./FreeRTOS_EC/Source/AManagedTask.o
                0x08024bb0                CTask::ExitCritical()
 .text._ZN12AManagedTask12HardwareInitEv
                0x08024bbc       0x18 ./FreeRTOS_EC/Source/AManagedTask.o
                0x08024bbc                AManagedTask::HardwareInit()
 .text._ZN9CFreeRTOS15SuspendAllTasksEv
                0x08024bd4        0xc ./FreeRTOS_EC/Source/AManagedTask.o
                0x08024bd4                CFreeRTOS::SuspendAllTasks()
 .text._ZN9CFreeRTOS14ResumeAllTasksEv
                0x08024be0       0x10 ./FreeRTOS_EC/Source/AManagedTask.o
                0x08024be0                CFreeRTOS::ResumeAllTasks()
 .text._ZN12IFreeRTOSObjC2Ev
                0x08024bf0       0x20 ./FreeRTOS_EC/Source/ASyncObject.o
                0x08024bf0                IFreeRTOSObj::IFreeRTOSObj()
                0x08024bf0                IFreeRTOSObj::IFreeRTOSObj()
 .text._ZN12CFileHandler15GetUSBConnectedEv
                0x08024c10       0x20 ./Audio_MP3/CFileHandler.o
                0x08024c10                CFileHandler::GetUSBConnected()
 .text._ZN9CFreeRTOS14StartSchedulerEv
                0x08024c30        0xc ./main.o
                0x08024c30                CFreeRTOS::StartScheduler()
 .text.Reset_Handler
                0x08024c3c       0x58 ./startup_stm32f4xx.o
                0x08024c3c                Reset_Handler
 .text.Default_Handler
                0x08024c94        0x2 ./startup_stm32f4xx.o
                0x08024c94                RTC_Alarm_IRQHandler
                0x08024c94                HASH_RNG_IRQHandler
                0x08024c94                EXTI2_IRQHandler
                0x08024c94                TIM8_CC_IRQHandler
                0x08024c94                TIM1_CC_IRQHandler
                0x08024c94                DMA2_Stream5_IRQHandler
                0x08024c94                DMA1_Stream5_IRQHandler
                0x08024c94                PVD_IRQHandler
                0x08024c94                SDIO_IRQHandler
                0x08024c94                TAMP_STAMP_IRQHandler
                0x08024c94                CAN2_RX1_IRQHandler
                0x08024c94                EXTI3_IRQHandler
                0x08024c94                TIM8_TRG_COM_TIM14_IRQHandler
                0x08024c94                TIM1_UP_TIM10_IRQHandler
                0x08024c94                TIM8_UP_TIM13_IRQHandler
                0x08024c94                I2C3_ER_IRQHandler
                0x08024c94                I2C2_EV_IRQHandler
                0x08024c94                DMA1_Stream2_IRQHandler
                0x08024c94                CAN1_RX0_IRQHandler
                0x08024c94                FPU_IRQHandler
                0x08024c94                OTG_HS_WKUP_IRQHandler
                0x08024c94                CAN2_SCE_IRQHandler
                0x08024c94                DMA2_Stream2_IRQHandler
                0x08024c94                SPI1_IRQHandler
                0x08024c94                TIM6_DAC_IRQHandler
                0x08024c94                TIM1_BRK_TIM9_IRQHandler
                0x08024c94                DCMI_IRQHandler
                0x08024c94                CAN2_RX0_IRQHandler
                0x08024c94                DMA2_Stream3_IRQHandler
                0x08024c94                USART6_IRQHandler
                0x08024c94                USART3_IRQHandler
                0x08024c94                CRYP_IRQHandler
                0x08024c94                CAN1_RX1_IRQHandler
                0x08024c94                UART5_IRQHandler
                0x08024c94                DMA2_Stream0_IRQHandler
                0x08024c94                TIM4_IRQHandler
                0x08024c94                I2C1_EV_IRQHandler
                0x08024c94                DMA1_Stream6_IRQHandler
                0x08024c94                DMA1_Stream1_IRQHandler
                0x08024c94                UART4_IRQHandler
                0x08024c94                TIM3_IRQHandler
                0x08024c94                RCC_IRQHandler
                0x08024c94                TIM8_BRK_TIM12_IRQHandler
                0x08024c94                Default_Handler
                0x08024c94                EXTI15_10_IRQHandler
                0x08024c94                ADC_IRQHandler
                0x08024c94                TIM7_IRQHandler
                0x08024c94                CAN2_TX_IRQHandler
                0x08024c94                DMA2_Stream7_IRQHandler
                0x08024c94                I2C3_EV_IRQHandler
                0x08024c94                EXTI9_5_IRQHandler
                0x08024c94                RTC_WKUP_IRQHandler
                0x08024c94                ETH_WKUP_IRQHandler
                0x08024c94                SPI2_IRQHandler
                0x08024c94                OTG_HS_EP1_IN_IRQHandler
                0x08024c94                CAN1_TX_IRQHandler
                0x08024c94                EXTI4_IRQHandler
                0x08024c94                FSMC_IRQHandler
                0x08024c94                ETH_IRQHandler
                0x08024c94                OTG_HS_EP1_OUT_IRQHandler
                0x08024c94                WWDG_IRQHandler
                0x08024c94                TIM2_IRQHandler
                0x08024c94                OTG_FS_WKUP_IRQHandler
                0x08024c94                TIM1_TRG_COM_TIM11_IRQHandler
                0x08024c94                OTG_HS_IRQHandler
                0x08024c94                USART2_IRQHandler
                0x08024c94                I2C2_ER_IRQHandler
                0x08024c94                DMA2_Stream1_IRQHandler
                0x08024c94                CAN1_SCE_IRQHandler
                0x08024c94                FLASH_IRQHandler
                0x08024c94                DMA2_Stream4_IRQHandler
                0x08024c94                USART1_IRQHandler
                0x08024c94                DMA1_Stream4_IRQHandler
                0x08024c94                I2C1_ER_IRQHandler
                0x08024c94                DMA2_Stream6_IRQHandler
                0x08024c94                DMA1_Stream3_IRQHandler
 *fill*         0x08024c96        0x2 00
 .text.__aeabi_atexit
                0x08024c98        0xc d:/elektronik/ides/chibistudio/tools/gnu tools arm embedded/4.6 2012q2/bin/../lib/gcc/arm-none-eabi/4.6.2/../../../../arm-none-eabi/lib/armv7e-m\libstdc++.a(atexit_arm.o)
                0x08024c98                __aeabi_atexit
 .text.__assert_func
                0x08024ca4       0x3c d:/elektronik/ides/chibistudio/tools/gnu tools arm embedded/4.6 2012q2/bin/../lib/gcc/arm-none-eabi/4.6.2/../../../../arm-none-eabi/lib/armv7e-m\libg.a(lib_a-assert.o)
                0x08024ca4                __assert_func
 .text.atexit   0x08024ce0        0xc d:/elektronik/ides/chibistudio/tools/gnu tools arm embedded/4.6 2012q2/bin/../lib/gcc/arm-none-eabi/4.6.2/../../../../arm-none-eabi/lib/armv7e-m\libg.a(lib_a-atexit.o)
                0x08024ce0                atexit
 .text.__cxa_atexit
                0x08024cec       0x14 d:/elektronik/ides/chibistudio/tools/gnu tools arm embedded/4.6 2012q2/bin/../lib/gcc/arm-none-eabi/4.6.2/../../../../arm-none-eabi/lib/armv7e-m\libg.a(lib_a-cxa_atexit.o)
                0x08024cec                __cxa_atexit
 .text.__libc_fini_array
                0x08024d00       0x2c d:/elektronik/ides/chibistudio/tools/gnu tools arm embedded/4.6 2012q2/bin/../lib/gcc/arm-none-eabi/4.6.2/../../../../arm-none-eabi/lib/armv7e-m\libg.a(lib_a-fini.o)
                0x08024d00                __libc_fini_array
 .text.fiprintf
                0x08024d2c       0x2c d:/elektronik/ides/chibistudio/tools/gnu tools arm embedded/4.6 2012q2/bin/../lib/gcc/arm-none-eabi/4.6.2/../../../../arm-none-eabi/lib/armv7e-m\libg.a(lib_a-fiprintf.o)
                0x08024d2c                fiprintf
 .text.gmtime   0x08024d58       0x10 d:/elektronik/ides/chibistudio/tools/gnu tools arm embedded/4.6 2012q2/bin/../lib/gcc/arm-none-eabi/4.6.2/../../../../arm-none-eabi/lib/armv7e-m\libg.a(lib_a-gmtime.o)
                0x08024d58                gmtime
 .text.gmtime_r
                0x08024d68        0x8 d:/elektronik/ides/chibistudio/tools/gnu tools arm embedded/4.6 2012q2/bin/../lib/gcc/arm-none-eabi/4.6.2/../../../../arm-none-eabi/lib/armv7e-m\libg.a(lib_a-gmtime_r.o)
                0x08024d68                gmtime_r
 .text.__libc_init_array
                0x08024d70       0x48 d:/elektronik/ides/chibistudio/tools/gnu tools arm embedded/4.6 2012q2/bin/../lib/gcc/arm-none-eabi/4.6.2/../../../../arm-none-eabi/lib/armv7e-m\libg.a(lib_a-init.o)
                0x08024d70                __libc_init_array
 .text.malloc   0x08024db8       0x10 d:/elektronik/ides/chibistudio/tools/gnu tools arm embedded/4.6 2012q2/bin/../lib/gcc/arm-none-eabi/4.6.2/../../../../arm-none-eabi/lib/armv7e-m\libg.a(lib_a-malloc.o)
                0x08024db8                malloc
 .text.free     0x08024dc8       0x10 d:/elektronik/ides/chibistudio/tools/gnu tools arm embedded/4.6 2012q2/bin/../lib/gcc/arm-none-eabi/4.6.2/../../../../arm-none-eabi/lib/armv7e-m\libg.a(lib_a-malloc.o)
                0x08024dc8                free
 .text._malloc_r
                0x08024dd8      0x540 d:/elektronik/ides/chibistudio/tools/gnu tools arm embedded/4.6 2012q2/bin/../lib/gcc/arm-none-eabi/4.6.2/../../../../arm-none-eabi/lib/armv7e-m\libg.a(lib_a-mallocr.o)
                0x08024dd8                _malloc_r
 .text.memcpy   0x08025318       0x84 d:/elektronik/ides/chibistudio/tools/gnu tools arm embedded/4.6 2012q2/bin/../lib/gcc/arm-none-eabi/4.6.2/../../../../arm-none-eabi/lib/armv7e-m\libg.a(lib_a-memcpy.o)
                0x08025318                memcpy
 .text.memmove  0x0802539c       0xb0 d:/elektronik/ides/chibistudio/tools/gnu tools arm embedded/4.6 2012q2/bin/../lib/gcc/arm-none-eabi/4.6.2/../../../../arm-none-eabi/lib/armv7e-m\libg.a(lib_a-memmove.o)
                0x0802539c                memmove
 .text.memset   0x0802544c       0x90 d:/elektronik/ides/chibistudio/tools/gnu tools arm embedded/4.6 2012q2/bin/../lib/gcc/arm-none-eabi/4.6.2/../../../../arm-none-eabi/lib/armv7e-m\libg.a(lib_a-memset.o)
                0x0802544c                memset
 .text.validate_structure
                0x080254dc      0x220 d:/elektronik/ides/chibistudio/tools/gnu tools arm embedded/4.6 2012q2/bin/../lib/gcc/arm-none-eabi/4.6.2/../../../../arm-none-eabi/lib/armv7e-m\libg.a(lib_a-mktime.o)
 .text.mktime   0x080256fc      0x2c4 d:/elektronik/ides/chibistudio/tools/gnu tools arm embedded/4.6 2012q2/bin/../lib/gcc/arm-none-eabi/4.6.2/../../../../arm-none-eabi/lib/armv7e-m\libg.a(lib_a-mktime.o)
                0x080256fc                mktime
 .text.__tzcalc_limits
                0x080259c0      0x180 d:/elektronik/ides/chibistudio/tools/gnu tools arm embedded/4.6 2012q2/bin/../lib/gcc/arm-none-eabi/4.6.2/../../../../arm-none-eabi/lib/armv7e-m\libg.a(lib_a-mktm_r.o)
                0x080259c0                __tzcalc_limits
 .text._mktm_r  0x08025b40      0x3ac d:/elektronik/ides/chibistudio/tools/gnu tools arm embedded/4.6 2012q2/bin/../lib/gcc/arm-none-eabi/4.6.2/../../../../arm-none-eabi/lib/armv7e-m\libg.a(lib_a-mktm_r.o)
                0x08025b40                _mktm_r
 .text._sbrk_r  0x08025eec       0x24 d:/elektronik/ides/chibistudio/tools/gnu tools arm embedded/4.6 2012q2/bin/../lib/gcc/arm-none-eabi/4.6.2/../../../../arm-none-eabi/lib/armv7e-m\libg.a(lib_a-sbrkr.o)
                0x08025eec                _sbrk_r
 .text.sprintf  0x08025f10       0x50 d:/elektronik/ides/chibistudio/tools/gnu tools arm embedded/4.6 2012q2/bin/../lib/gcc/arm-none-eabi/4.6.2/../../../../arm-none-eabi/lib/armv7e-m\libg.a(lib_a-sprintf.o)
                0x08025f10                sprintf
 .text.strcat   0x08025f60       0x4c d:/elektronik/ides/chibistudio/tools/gnu tools arm embedded/4.6 2012q2/bin/../lib/gcc/arm-none-eabi/4.6.2/../../../../arm-none-eabi/lib/armv7e-m\libg.a(lib_a-strcat.o)
                0x08025f60                strcat
 .text.strcpy   0x08025fac       0xbc d:/elektronik/ides/chibistudio/tools/gnu tools arm embedded/4.6 2012q2/bin/../lib/gcc/arm-none-eabi/4.6.2/../../../../arm-none-eabi/lib/armv7e-m\libg.a(lib_a-strcpy.o)
                0x08025fac                strcpy
 .text.iso_year_adjust
                0x08026068       0xe0 d:/elektronik/ides/chibistudio/tools/gnu tools arm embedded/4.6 2012q2/bin/../lib/gcc/arm-none-eabi/4.6.2/../../../../arm-none-eabi/lib/armv7e-m\libg.a(lib_a-strftime.o)
 .text.strftime
                0x08026148      0xc14 d:/elektronik/ides/chibistudio/tools/gnu tools arm embedded/4.6 2012q2/bin/../lib/gcc/arm-none-eabi/4.6.2/../../../../arm-none-eabi/lib/armv7e-m\libg.a(lib_a-strftime.o)
                0x08026148                strftime
 .text.strlen   0x08026d5c       0x60 d:/elektronik/ides/chibistudio/tools/gnu tools arm embedded/4.6 2012q2/bin/../lib/gcc/arm-none-eabi/4.6.2/../../../../arm-none-eabi/lib/armv7e-m\libg.a(lib_a-strlen.o)
                0x08026d5c                strlen
 .text.strncpy  0x08026dbc       0x68 d:/elektronik/ides/chibistudio/tools/gnu tools arm embedded/4.6 2012q2/bin/../lib/gcc/arm-none-eabi/4.6.2/../../../../arm-none-eabi/lib/armv7e-m\libg.a(lib_a-strncpy.o)
                0x08026dbc                strncpy
 .text._strtoul_r
                0x08026e24      0x130 d:/elektronik/ides/chibistudio/tools/gnu tools arm embedded/4.6 2012q2/bin/../lib/gcc/arm-none-eabi/4.6.2/../../../../arm-none-eabi/lib/armv7e-m\libg.a(lib_a-strtoul.o)
                0x08026e24                _strtoul_r
 .text.strtoul  0x08026f54       0x1c d:/elektronik/ides/chibistudio/tools/gnu tools arm embedded/4.6 2012q2/bin/../lib/gcc/arm-none-eabi/4.6.2/../../../../arm-none-eabi/lib/armv7e-m\libg.a(lib_a-strtoul.o)
                0x08026f54                strtoul
 .text._svfprintf_r
                0x08026f70     0x141c d:/elektronik/ides/chibistudio/tools/gnu tools arm embedded/4.6 2012q2/bin/../lib/gcc/arm-none-eabi/4.6.2/../../../../arm-none-eabi/lib/armv7e-m\libg.a(lib_a-svfprintf.o)
                0x08026f70                _svfprintf_r
 .text.__get_current_time_locale
                0x0802838c       0x24 d:/elektronik/ides/chibistudio/tools/gnu tools arm embedded/4.6 2012q2/bin/../lib/gcc/arm-none-eabi/4.6.2/../../../../arm-none-eabi/lib/armv7e-m\libg.a(lib_a-timelocal.o)
                0x0802838c                __get_current_time_locale
 .text.toupper  0x080283b0       0x18 d:/elektronik/ides/chibistudio/tools/gnu tools arm embedded/4.6 2012q2/bin/../lib/gcc/arm-none-eabi/4.6.2/../../../../arm-none-eabi/lib/armv7e-m\libg.a(lib_a-toupper.o)
                0x080283b0                toupper
 .text.__tz_lock
                0x080283c8        0x4 d:/elektronik/ides/chibistudio/tools/gnu tools arm embedded/4.6 2012q2/bin/../lib/gcc/arm-none-eabi/4.6.2/../../../../arm-none-eabi/lib/armv7e-m\libg.a(lib_a-tzlock.o)
                0x080283c8                __tz_lock
 .text.__tz_unlock
                0x080283cc        0x4 d:/elektronik/ides/chibistudio/tools/gnu tools arm embedded/4.6 2012q2/bin/../lib/gcc/arm-none-eabi/4.6.2/../../../../arm-none-eabi/lib/armv7e-m\libg.a(lib_a-tzlock.o)
                0x080283cc                __tz_unlock
 .text.__sprint_r
                0x080283d0       0x80 d:/elektronik/ides/chibistudio/tools/gnu tools arm embedded/4.6 2012q2/bin/../lib/gcc/arm-none-eabi/4.6.2/../../../../arm-none-eabi/lib/armv7e-m\libg.a(lib_a-vfiprintf.o)
                0x080283d0                __sprint_r
 .text._vfiprintf_r
                0x08028450      0xbd8 d:/elektronik/ides/chibistudio/tools/gnu tools arm embedded/4.6 2012q2/bin/../lib/gcc/arm-none-eabi/4.6.2/../../../../arm-none-eabi/lib/armv7e-m\libg.a(lib_a-vfiprintf.o)
                0x08028450                _vfiprintf_r
 .text.__swsetup_r
                0x08029028       0xbc d:/elektronik/ides/chibistudio/tools/gnu tools arm embedded/4.6 2012q2/bin/../lib/gcc/arm-none-eabi/4.6.2/../../../../arm-none-eabi/lib/armv7e-m\libg.a(lib_a-wsetup.o)
                0x08029028                __swsetup_r
 .text.__register_exitproc
                0x080290e4       0xac d:/elektronik/ides/chibistudio/tools/gnu tools arm embedded/4.6 2012q2/bin/../lib/gcc/arm-none-eabi/4.6.2/../../../../arm-none-eabi/lib/armv7e-m\libg.a(lib_a-__atexit.o)
                0x080290e4                __register_exitproc
 .text.startup.register_fini
                0x08029190       0x14 d:/elektronik/ides/chibistudio/tools/gnu tools arm embedded/4.6 2012q2/bin/../lib/gcc/arm-none-eabi/4.6.2/../../../../arm-none-eabi/lib/armv7e-m\libg.a(lib_a-__call_atexit.o)
 .text.abort    0x080291a4       0x10 d:/elektronik/ides/chibistudio/tools/gnu tools arm embedded/4.6 2012q2/bin/../lib/gcc/arm-none-eabi/4.6.2/../../../../arm-none-eabi/lib/armv7e-m\libg.a(lib_a-abort.o)
                0x080291a4                abort
 .text.abs      0x080291b4        0x8 d:/elektronik/ides/chibistudio/tools/gnu tools arm embedded/4.6 2012q2/bin/../lib/gcc/arm-none-eabi/4.6.2/../../../../arm-none-eabi/lib/armv7e-m\libg.a(lib_a-abs.o)
                0x080291b4                abs
 .text.div      0x080291bc       0x2c d:/elektronik/ides/chibistudio/tools/gnu tools arm embedded/4.6 2012q2/bin/../lib/gcc/arm-none-eabi/4.6.2/../../../../arm-none-eabi/lib/armv7e-m\libg.a(lib_a-div.o)
                0x080291bc                div
 .text.quorem   0x080291e8      0x14c d:/elektronik/ides/chibistudio/tools/gnu tools arm embedded/4.6 2012q2/bin/../lib/gcc/arm-none-eabi/4.6.2/../../../../arm-none-eabi/lib/armv7e-m\libg.a(lib_a-dtoa.o)
 *fill*         0x08029334        0x4 00
 .text._dtoa_r  0x08029338      0xe60 d:/elektronik/ides/chibistudio/tools/gnu tools arm embedded/4.6 2012q2/bin/../lib/gcc/arm-none-eabi/4.6.2/../../../../arm-none-eabi/lib/armv7e-m\libg.a(lib_a-dtoa.o)
                0x08029338                _dtoa_r
 .text._fflush_r
                0x0802a198      0x16c d:/elektronik/ides/chibistudio/tools/gnu tools arm embedded/4.6 2012q2/bin/../lib/gcc/arm-none-eabi/4.6.2/../../../../arm-none-eabi/lib/armv7e-m\libg.a(lib_a-fflush.o)
                0x0802a198                _fflush_r
 .text._cleanup_r
                0x0802a304        0xc d:/elektronik/ides/chibistudio/tools/gnu tools arm embedded/4.6 2012q2/bin/../lib/gcc/arm-none-eabi/4.6.2/../../../../arm-none-eabi/lib/armv7e-m\libg.a(lib_a-findfp.o)
                0x0802a304                _cleanup_r
 .text.std.isra.0
                0x0802a310       0x50 d:/elektronik/ides/chibistudio/tools/gnu tools arm embedded/4.6 2012q2/bin/../lib/gcc/arm-none-eabi/4.6.2/../../../../arm-none-eabi/lib/armv7e-m\libg.a(lib_a-findfp.o)
 .text.__sinit  0x0802a360       0x48 d:/elektronik/ides/chibistudio/tools/gnu tools arm embedded/4.6 2012q2/bin/../lib/gcc/arm-none-eabi/4.6.2/../../../../arm-none-eabi/lib/armv7e-m\libg.a(lib_a-findfp.o)
                0x0802a360                __sinit
 .text.__sfp_lock_acquire
                0x0802a3a8        0x4 d:/elektronik/ides/chibistudio/tools/gnu tools arm embedded/4.6 2012q2/bin/../lib/gcc/arm-none-eabi/4.6.2/../../../../arm-none-eabi/lib/armv7e-m\libg.a(lib_a-findfp.o)
                0x0802a3a8                __sfp_lock_acquire
 .text.__sfp_lock_release
                0x0802a3ac        0x4 d:/elektronik/ides/chibistudio/tools/gnu tools arm embedded/4.6 2012q2/bin/../lib/gcc/arm-none-eabi/4.6.2/../../../../arm-none-eabi/lib/armv7e-m\libg.a(lib_a-findfp.o)
                0x0802a3ac                __sfp_lock_release
 .text._fputwc_r
                0x0802a3b0       0xd0 d:/elektronik/ides/chibistudio/tools/gnu tools arm embedded/4.6 2012q2/bin/../lib/gcc/arm-none-eabi/4.6.2/../../../../arm-none-eabi/lib/armv7e-m\libg.a(lib_a-fputwc.o)
                0x0802a3b0                _fputwc_r
 .text._malloc_trim_r
                0x0802a480       0xa0 d:/elektronik/ides/chibistudio/tools/gnu tools arm embedded/4.6 2012q2/bin/../lib/gcc/arm-none-eabi/4.6.2/../../../../arm-none-eabi/lib/armv7e-m\libg.a(lib_a-freer.o)
                0x0802a480                _malloc_trim_r
 .text._free_r  0x0802a520      0x190 d:/elektronik/ides/chibistudio/tools/gnu tools arm embedded/4.6 2012q2/bin/../lib/gcc/arm-none-eabi/4.6.2/../../../../arm-none-eabi/lib/armv7e-m\libg.a(lib_a-freer.o)
                0x0802a520                _free_r
 .text.__sfvwrite_r
                0x0802a6b0      0x2f8 d:/elektronik/ides/chibistudio/tools/gnu tools arm embedded/4.6 2012q2/bin/../lib/gcc/arm-none-eabi/4.6.2/../../../../arm-none-eabi/lib/armv7e-m\libg.a(lib_a-fvwrite.o)
                0x0802a6b0                __sfvwrite_r
 .text._fwalk   0x0802a9a8       0x54 d:/elektronik/ides/chibistudio/tools/gnu tools arm embedded/4.6 2012q2/bin/../lib/gcc/arm-none-eabi/4.6.2/../../../../arm-none-eabi/lib/armv7e-m\libg.a(lib_a-fwalk.o)
                0x0802a9a8                _fwalk
 .text.__gettzinfo
                0x0802a9fc        0xc d:/elektronik/ides/chibistudio/tools/gnu tools arm embedded/4.6 2012q2/bin/../lib/gcc/arm-none-eabi/4.6.2/../../../../arm-none-eabi/lib/armv7e-m\libg.a(lib_a-gettzinfo.o)
                0x0802a9fc                __gettzinfo
 .text.labs     0x0802aa08        0x8 d:/elektronik/ides/chibistudio/tools/gnu tools arm embedded/4.6 2012q2/bin/../lib/gcc/arm-none-eabi/4.6.2/../../../../arm-none-eabi/lib/armv7e-m\libg.a(lib_a-labs.o)
                0x0802aa08                labs
 .text.__locale_charset
                0x0802aa10        0xc d:/elektronik/ides/chibistudio/tools/gnu tools arm embedded/4.6 2012q2/bin/../lib/gcc/arm-none-eabi/4.6.2/../../../../arm-none-eabi/lib/armv7e-m\libg.a(lib_a-locale.o)
                0x0802aa10                __locale_charset
 .text.__locale_mb_cur_max
                0x0802aa1c        0xc d:/elektronik/ides/chibistudio/tools/gnu tools arm embedded/4.6 2012q2/bin/../lib/gcc/arm-none-eabi/4.6.2/../../../../arm-none-eabi/lib/armv7e-m\libg.a(lib_a-locale.o)
                0x0802aa1c                __locale_mb_cur_max
 .text._localeconv_r
                0x0802aa28        0xc d:/elektronik/ides/chibistudio/tools/gnu tools arm embedded/4.6 2012q2/bin/../lib/gcc/arm-none-eabi/4.6.2/../../../../arm-none-eabi/lib/armv7e-m\libg.a(lib_a-locale.o)
                0x0802aa28                _localeconv_r
 .text.__smakebuf_r
                0x0802aa34       0xe0 d:/elektronik/ides/chibistudio/tools/gnu tools arm embedded/4.6 2012q2/bin/../lib/gcc/arm-none-eabi/4.6.2/../../../../arm-none-eabi/lib/armv7e-m\libg.a(lib_a-makebuf.o)
                0x0802aa34                __smakebuf_r
 .text.memchr   0x0802ab14       0x84 d:/elektronik/ides/chibistudio/tools/gnu tools arm embedded/4.6 2012q2/bin/../lib/gcc/arm-none-eabi/4.6.2/../../../../arm-none-eabi/lib/armv7e-m\libg.a(lib_a-memchr.o)
                0x0802ab14                memchr
 .text._Balloc  0x0802ab98       0x4c d:/elektronik/ides/chibistudio/tools/gnu tools arm embedded/4.6 2012q2/bin/../lib/gcc/arm-none-eabi/4.6.2/../../../../arm-none-eabi/lib/armv7e-m\libg.a(lib_a-mprec.o)
                0x0802ab98                _Balloc
 .text._Bfree   0x0802abe4       0x14 d:/elektronik/ides/chibistudio/tools/gnu tools arm embedded/4.6 2012q2/bin/../lib/gcc/arm-none-eabi/4.6.2/../../../../arm-none-eabi/lib/armv7e-m\libg.a(lib_a-mprec.o)
                0x0802abe4                _Bfree
 .text.__multadd
                0x0802abf8       0x84 d:/elektronik/ides/chibistudio/tools/gnu tools arm embedded/4.6 2012q2/bin/../lib/gcc/arm-none-eabi/4.6.2/../../../../arm-none-eabi/lib/armv7e-m\libg.a(lib_a-mprec.o)
                0x0802abf8                __multadd
 .text.__hi0bits
                0x0802ac7c       0x3c d:/elektronik/ides/chibistudio/tools/gnu tools arm embedded/4.6 2012q2/bin/../lib/gcc/arm-none-eabi/4.6.2/../../../../arm-none-eabi/lib/armv7e-m\libg.a(lib_a-mprec.o)
                0x0802ac7c                __hi0bits
 .text.__lo0bits
                0x0802acb8       0x5c d:/elektronik/ides/chibistudio/tools/gnu tools arm embedded/4.6 2012q2/bin/../lib/gcc/arm-none-eabi/4.6.2/../../../../arm-none-eabi/lib/armv7e-m\libg.a(lib_a-mprec.o)
                0x0802acb8                __lo0bits
 .text.__i2b    0x0802ad14       0x14 d:/elektronik/ides/chibistudio/tools/gnu tools arm embedded/4.6 2012q2/bin/../lib/gcc/arm-none-eabi/4.6.2/../../../../arm-none-eabi/lib/armv7e-m\libg.a(lib_a-mprec.o)
                0x0802ad14                __i2b
 .text.__multiply
                0x0802ad28      0x144 d:/elektronik/ides/chibistudio/tools/gnu tools arm embedded/4.6 2012q2/bin/../lib/gcc/arm-none-eabi/4.6.2/../../../../arm-none-eabi/lib/armv7e-m\libg.a(lib_a-mprec.o)
                0x0802ad28                __multiply
 .text.__pow5mult
                0x0802ae6c       0x98 d:/elektronik/ides/chibistudio/tools/gnu tools arm embedded/4.6 2012q2/bin/../lib/gcc/arm-none-eabi/4.6.2/../../../../arm-none-eabi/lib/armv7e-m\libg.a(lib_a-mprec.o)
                0x0802ae6c                __pow5mult
 .text.__lshift
                0x0802af04       0xc0 d:/elektronik/ides/chibistudio/tools/gnu tools arm embedded/4.6 2012q2/bin/../lib/gcc/arm-none-eabi/4.6.2/../../../../arm-none-eabi/lib/armv7e-m\libg.a(lib_a-mprec.o)
                0x0802af04                __lshift
 .text.__mcmp   0x0802afc4       0x3c d:/elektronik/ides/chibistudio/tools/gnu tools arm embedded/4.6 2012q2/bin/../lib/gcc/arm-none-eabi/4.6.2/../../../../arm-none-eabi/lib/armv7e-m\libg.a(lib_a-mprec.o)
                0x0802afc4                __mcmp
 .text.__mdiff  0x0802b000       0xd8 d:/elektronik/ides/chibistudio/tools/gnu tools arm embedded/4.6 2012q2/bin/../lib/gcc/arm-none-eabi/4.6.2/../../../../arm-none-eabi/lib/armv7e-m\libg.a(lib_a-mprec.o)
                0x0802b000                __mdiff
 .text.__d2b    0x0802b0d8       0xc8 d:/elektronik/ides/chibistudio/tools/gnu tools arm embedded/4.6 2012q2/bin/../lib/gcc/arm-none-eabi/4.6.2/../../../../arm-none-eabi/lib/armv7e-m\libg.a(lib_a-mprec.o)
                0x0802b0d8                __d2b
 .text._realloc_r
                0x0802b1a0      0x3e0 d:/elektronik/ides/chibistudio/tools/gnu tools arm embedded/4.6 2012q2/bin/../lib/gcc/arm-none-eabi/4.6.2/../../../../arm-none-eabi/lib/armv7e-m\libg.a(lib_a-reallocr.o)
                0x0802b1a0                _realloc_r
 .text.__fpclassifyd
                0x0802b580       0x68 d:/elektronik/ides/chibistudio/tools/gnu tools arm embedded/4.6 2012q2/bin/../lib/gcc/arm-none-eabi/4.6.2/../../../../arm-none-eabi/lib/armv7e-m\libg.a(lib_a-s_fpclassify.o)
                0x0802b580                __fpclassifyd
 .text._raise_r
                0x0802b5e8       0x58 d:/elektronik/ides/chibistudio/tools/gnu tools arm embedded/4.6 2012q2/bin/../lib/gcc/arm-none-eabi/4.6.2/../../../../arm-none-eabi/lib/armv7e-m\libg.a(lib_a-signal.o)
                0x0802b5e8                _raise_r
 .text.raise    0x0802b640       0x10 d:/elektronik/ides/chibistudio/tools/gnu tools arm embedded/4.6 2012q2/bin/../lib/gcc/arm-none-eabi/4.6.2/../../../../arm-none-eabi/lib/armv7e-m\libg.a(lib_a-signal.o)
                0x0802b640                raise
 .text.snprintf
                0x0802b650       0x6c d:/elektronik/ides/chibistudio/tools/gnu tools arm embedded/4.6 2012q2/bin/../lib/gcc/arm-none-eabi/4.6.2/../../../../arm-none-eabi/lib/armv7e-m\libg.a(lib_a-snprintf.o)
                0x0802b650                snprintf
 .text.__sread  0x0802b6bc       0x24 d:/elektronik/ides/chibistudio/tools/gnu tools arm embedded/4.6 2012q2/bin/../lib/gcc/arm-none-eabi/4.6.2/../../../../arm-none-eabi/lib/armv7e-m\libg.a(lib_a-stdio.o)
                0x0802b6bc                __sread
 .text.__swrite
                0x0802b6e0       0x3c d:/elektronik/ides/chibistudio/tools/gnu tools arm embedded/4.6 2012q2/bin/../lib/gcc/arm-none-eabi/4.6.2/../../../../arm-none-eabi/lib/armv7e-m\libg.a(lib_a-stdio.o)
                0x0802b6e0                __swrite
 .text.__sseek  0x0802b71c       0x24 d:/elektronik/ides/chibistudio/tools/gnu tools arm embedded/4.6 2012q2/bin/../lib/gcc/arm-none-eabi/4.6.2/../../../../arm-none-eabi/lib/armv7e-m\libg.a(lib_a-stdio.o)
                0x0802b71c                __sseek
 .text.__sclose
                0x0802b740        0x8 d:/elektronik/ides/chibistudio/tools/gnu tools arm embedded/4.6 2012q2/bin/../lib/gcc/arm-none-eabi/4.6.2/../../../../arm-none-eabi/lib/armv7e-m\libg.a(lib_a-stdio.o)
                0x0802b740                __sclose
 .text.__ssprint_r
                0x0802b748       0xfc d:/elektronik/ides/chibistudio/tools/gnu tools arm embedded/4.6 2012q2/bin/../lib/gcc/arm-none-eabi/4.6.2/../../../../arm-none-eabi/lib/armv7e-m\libg.a(lib_a-svfiprintf.o)
                0x0802b748                __ssprint_r
 .text.__swbuf_r
                0x0802b844       0xc0 d:/elektronik/ides/chibistudio/tools/gnu tools arm embedded/4.6 2012q2/bin/../lib/gcc/arm-none-eabi/4.6.2/../../../../arm-none-eabi/lib/armv7e-m\libg.a(lib_a-wbuf.o)
                0x0802b844                __swbuf_r
 .text._wcrtomb_r
                0x0802b904       0x4c d:/elektronik/ides/chibistudio/tools/gnu tools arm embedded/4.6 2012q2/bin/../lib/gcc/arm-none-eabi/4.6.2/../../../../arm-none-eabi/lib/armv7e-m\libg.a(lib_a-wcrtomb.o)
                0x0802b904                _wcrtomb_r
 .text.__ascii_wctomb
                0x0802b950       0x1c d:/elektronik/ides/chibistudio/tools/gnu tools arm embedded/4.6 2012q2/bin/../lib/gcc/arm-none-eabi/4.6.2/../../../../arm-none-eabi/lib/armv7e-m\libg.a(lib_a-wctomb_r.o)
                0x0802b950                __ascii_wctomb
 .text._calloc_r
                0x0802b96c       0x60 d:/elektronik/ides/chibistudio/tools/gnu tools arm embedded/4.6 2012q2/bin/../lib/gcc/arm-none-eabi/4.6.2/../../../../arm-none-eabi/lib/armv7e-m\libg.a(lib_a-callocr.o)
                0x0802b96c                _calloc_r
 .text._fclose_r
                0x0802b9cc       0x90 d:/elektronik/ides/chibistudio/tools/gnu tools arm embedded/4.6 2012q2/bin/../lib/gcc/arm-none-eabi/4.6.2/../../../../arm-none-eabi/lib/armv7e-m\libg.a(lib_a-fclose.o)
                0x0802b9cc                _fclose_r
 .text.fclose   0x0802ba5c       0x10 d:/elektronik/ides/chibistudio/tools/gnu tools arm embedded/4.6 2012q2/bin/../lib/gcc/arm-none-eabi/4.6.2/../../../../arm-none-eabi/lib/armv7e-m\libg.a(lib_a-fclose.o)
                0x0802ba5c                fclose
 *(.rodata)
 .rodata        0x0802ba6c        0x4 ./STM32_USB_HOST_Library/Core/src/usbh_core.o
 .rodata        0x0802ba70       0x60 ./Menue/CMenue.o
 .rodata        0x0802bad0       0x30 ./FreeRTOS_EC/Source/CTask.o
 .rodata        0x0802bb00       0x74 ./FreeRTOS/Source/tasks.o
 .rodata        0x0802bb74        0x4 ./Clock/CRTCHandler.o
 .rodata        0x0802bb78       0x1c ./Clock/CTime.o
 .rodata        0x0802bb94       0x34 ./Audio_MP3/FatFs/src/ff.o
 .rodata        0x0802bbc8       0x34 ./main.o
 *(.rodata*)
 .rodata.GPIO_PIN
                0x0802bbfc        0x8 ./STM32F4-Discovery/stm32f4_discovery.o
                0x0802bbfc                GPIO_PIN
 .rodata.GPIO_CLK
                0x0802bc04       0x10 ./STM32F4-Discovery/stm32f4_discovery.o
                0x0802bc04                GPIO_CLK
 .rodata.BUTTON_PIN
                0x0802bc14        0x4 ./STM32F4-Discovery/stm32f4_discovery.o
                0x0802bc14                BUTTON_PIN
 .rodata.BUTTON_CLK
                0x0802bc18        0x4 ./STM32F4-Discovery/stm32f4_discovery.o
                0x0802bc18                BUTTON_CLK
 .rodata.BUTTON_EXTI_LINE
                0x0802bc1c        0x4 ./STM32F4-Discovery/stm32f4_discovery.o
                0x0802bc1c                BUTTON_EXTI_LINE
 .rodata.BUTTON_PORT_SOURCE
                0x0802bc20        0x4 ./STM32F4-Discovery/stm32f4_discovery.o
                0x0802bc20                BUTTON_PORT_SOURCE
 .rodata.BUTTON_PIN_SOURCE
                0x0802bc24        0x4 ./STM32F4-Discovery/stm32f4_discovery.o
                0x0802bc24                BUTTON_PIN_SOURCE
 .rodata.BUTTON_IRQn
                0x0802bc28        0x4 ./STM32F4-Discovery/stm32f4_discovery.o
                0x0802bc28                BUTTON_IRQn
 *fill*         0x0802bc2c        0x4 00
 .rodata._ZTV6CMenue
                0x0802bc30       0x28 ./Menue/CMenue.o
                0x0802bc30                vtable for CMenue
 .rodata._ZL12c_FontNative
                0x0802bc58       0x18 ./Menue/CMenue.o
 .rodata.dcttab
                0x0802bc70       0xc0 ./HelixMP3/real/dct32.o
 .rodata.preTab
                0x0802bd30       0x18 ./HelixMP3/real/dqchan.o
 .rodata.pow14  0x0802bd48       0x10 ./HelixMP3/real/dqchan.o
 .rodata.pow43_14
                0x0802bd58      0x100 ./HelixMP3/real/dqchan.o
 .rodata.pow43  0x0802be58       0xc0 ./HelixMP3/real/dqchan.o
 .rodata.poly43lo
                0x0802bf18       0x14 ./HelixMP3/real/dqchan.o
 .rodata.poly43hi
                0x0802bf2c       0x14 ./HelixMP3/real/dqchan.o
 .rodata.pow2exp
                0x0802bf40       0x20 ./HelixMP3/real/dqchan.o
 .rodata.pow2frac
                0x0802bf60       0x20 ./HelixMP3/real/dqchan.o
 .rodata.xmp3_huffTable
                0x0802bf80     0x2124 ./HelixMP3/real/hufftabs.o
                0x0802bf80                xmp3_huffTable
 .rodata.xmp3_huffTabOffset
                0x0802e0a4       0x80 ./HelixMP3/real/hufftabs.o
                0x0802e0a4                xmp3_huffTabOffset
 .rodata.xmp3_huffTabLookup
                0x0802e124      0x100 ./HelixMP3/real/hufftabs.o
                0x0802e124                xmp3_huffTabLookup
 .rodata.xmp3_quadTable
                0x0802e224       0x50 ./HelixMP3/real/hufftabs.o
                0x0802e224                xmp3_quadTable
 .rodata.xmp3_quadTabOffset
                0x0802e274        0x8 ./HelixMP3/real/hufftabs.o
                0x0802e274                xmp3_quadTabOffset
 .rodata.xmp3_quadTabMaxBits
                0x0802e27c        0x8 ./HelixMP3/real/hufftabs.o
                0x0802e27c                xmp3_quadTabMaxBits
 .rodata.c9_0   0x0802e284        0x4 ./HelixMP3/real/imdct.o
 .rodata.c9_1   0x0802e288        0x4 ./HelixMP3/real/imdct.o
 .rodata.c9_2   0x0802e28c        0x4 ./HelixMP3/real/imdct.o
 .rodata.c9_3   0x0802e290        0x4 ./HelixMP3/real/imdct.o
 .rodata.c9_4   0x0802e294        0x4 ./HelixMP3/real/imdct.o
 .rodata.c18    0x0802e298       0x24 ./HelixMP3/real/imdct.o
 .rodata.fastWin36
                0x0802e2bc       0x48 ./HelixMP3/real/imdct.o
 .rodata.c3_0   0x0802e304        0x4 ./HelixMP3/real/imdct.o
 .rodata.c6     0x0802e308        0xc ./HelixMP3/real/imdct.o
 .rodata.SFLenTab
                0x0802e314       0x20 ./HelixMP3/real/scalfact.o
 .rodata.NRTab  0x0802e334       0x48 ./HelixMP3/real/scalfact.o
 .rodata.xmp3_imdctWin
                0x0802e37c      0x240 ./HelixMP3/real/trigtabs.o
                0x0802e37c                xmp3_imdctWin
 .rodata.xmp3_ISFMpeg1
                0x0802e5bc       0x38 ./HelixMP3/real/trigtabs.o
                0x0802e5bc                xmp3_ISFMpeg1
 .rodata.xmp3_ISFMpeg2
                0x0802e5f4      0x100 ./HelixMP3/real/trigtabs.o
                0x0802e5f4                xmp3_ISFMpeg2
 .rodata.xmp3_ISFIIP
                0x0802e6f4       0x10 ./HelixMP3/real/trigtabs.o
                0x0802e6f4                xmp3_ISFIIP
 .rodata.xmp3_csa
                0x0802e704       0x40 ./HelixMP3/real/trigtabs.o
                0x0802e704                xmp3_csa
 .rodata.xmp3_polyCoef
                0x0802e744      0x420 ./HelixMP3/real/trigtabs.o
                0x0802e744                xmp3_polyCoef
 .rodata.xmp3_samplerateTab
                0x0802eb64       0x24 ./HelixMP3/mp3tabs.o
                0x0802eb64                xmp3_samplerateTab
 .rodata.xmp3_bitrateTab
                0x0802eb88      0x110 ./HelixMP3/mp3tabs.o
                0x0802eb88                xmp3_bitrateTab
 .rodata.xmp3_samplesPerFrameTab
                0x0802ec98       0x14 ./HelixMP3/mp3tabs.o
                0x0802ec98                xmp3_samplesPerFrameTab
 .rodata.xmp3_sideBytesTab
                0x0802ecac        0xc ./HelixMP3/mp3tabs.o
                0x0802ecac                xmp3_sideBytesTab
 .rodata.xmp3_slotTab
                0x0802ecb8      0x110 ./HelixMP3/mp3tabs.o
                0x0802ecb8                xmp3_slotTab
 .rodata.xmp3_sfBandTable
                0x0802edc8      0x29c ./HelixMP3/mp3tabs.o
                0x0802edc8                xmp3_sfBandTable
 *fill*         0x0802f064        0x4 00
 .rodata._ZTV11CGraphicLCD
                0x0802f068       0x38 ./GraphicLCD/CGraphicLCD.o
                0x0802f068                vtable for CGraphicLCD
 .rodata._ZTV13CT6963CDriver
                0x0802f0a0       0x48 ./GraphicLCD/CT6963CDriver.o
                0x0802f0a0                vtable for CT6963CDriver
 .rodata._ZTV21CT6963_GPIO_Interface
                0x0802f0e8       0x48 ./GraphicLCD/CT6963GPIOInterface.o
                0x0802f0e8                vtable for CT6963_GPIO_Interface
 .rodata.c_FontSansSerif12
                0x0802f130       0x18 ./GraphicLCD/SansSerif12.o
                0x0802f130                c_FontSansSerif12
 .rodata._ZL35Microsoft_Sans_Serif__12_char_table
                0x0802f148      0xb40 ./GraphicLCD/SansSerif12.o
 .rodata._ZL38Microsoft_Sans_Serif__12_mapping_table
                0x0802fc88      0x100 ./GraphicLCD/SansSerif12.o
 .rodata._ZL36Microsoft_Sans_Serif__12_width_table
                0x0802fd88       0x5c ./GraphicLCD/SansSerif12.o
 .rodata._ZL37Microsoft_Sans_Serif__12_offset_table
                0x0802fde4      0x170 ./GraphicLCD/SansSerif12.o
 .rodata.c_FontSansSerif26
                0x0802ff54       0x18 ./GraphicLCD/SansSerif26.o
                0x0802ff54                c_FontSansSerif26
 .rodata._ZL35Microsoft_Sans_Serif__26_char_table
                0x0802ff6c     0x2828 ./GraphicLCD/SansSerif26.o
 .rodata._ZL38Microsoft_Sans_Serif__26_mapping_table
                0x08032794      0x100 ./GraphicLCD/SansSerif26.o
 .rodata._ZL36Microsoft_Sans_Serif__26_width_table
                0x08032894       0x5c ./GraphicLCD/SansSerif26.o
 .rodata._ZL37Microsoft_Sans_Serif__26_offset_table
                0x080328f0      0x170 ./GraphicLCD/SansSerif26.o
 .rodata._ZTV12AManagedTask
                0x08032a60       0x28 ./FreeRTOS_EC/Source/AManagedTask.o
                0x08032a60                vtable for AManagedTask
 .rodata._ZTV12IFreeRTOSObj
                0x08032a88       0x18 ./FreeRTOS_EC/Source/ASyncObject.o
                0x08032a88                vtable for IFreeRTOSObj
 .rodata._ZTV5CTask
                0x08032aa0       0x20 ./FreeRTOS_EC/Source/CTask.o
                0x08032aa0                vtable for CTask
 .rodata._ZZN5CTask6AttachEPvE19__PRETTY_FUNCTION__
                0x08032ac0       0x2c ./FreeRTOS_EC/Source/CTask.o
 *fill*         0x08032aec        0x4 00
 .rodata._ZTVN21rtc_handler_namespace11CRTCHandlerE
                0x08032af0       0x28 ./Clock/CRTCHandler.o
                0x08032af0                vtable for rtc_handler_namespace::CRTCHandler
 .rodata._ZTVN4Time5CTimeE
                0x08032b18       0x10 ./Clock/CTime.o
                0x08032b18                vtable for Time::CTime
 .rodata._ZTV16CUSB_MassStorage
                0x08032b28       0x28 ./Audio_MP3/USB_MSC/CUSBMassStorage.o
                0x08032b28                vtable for CUSB_MassStorage
 .rodata.sstbl.4504
                0x08032b50       0x2c ./Audio_MP3/FatFs/src/ff.o
 .rodata.cstbl.4505
                0x08032b7c       0x18 ./Audio_MP3/FatFs/src/ff.o
 .rodata.fatstr.4303
                0x08032b94        0x4 ./Audio_MP3/FatFs/src/ff.o
 .rodata._ZTV12CFileHandler
                0x08032b98       0x28 ./Audio_MP3/CFileHandler.o
                0x08032b98                vtable for CFileHandler
 .rodata._ZTV24CLedHeartBeatSTM32F4Disc
                0x08032bc0       0x28 ./CLedHeartBeatSTM32F4Disc.o
                0x08032bc0                vtable for CLedHeartBeatSTM32F4Disc
 .rodata.str1.4
                0x08032be8       0x3f d:/elektronik/ides/chibistudio/tools/gnu tools arm embedded/4.6 2012q2/bin/../lib/gcc/arm-none-eabi/4.6.2/../../../../arm-none-eabi/lib/armv7e-m\libg.a(lib_a-assert.o)
                                 0x44 (size before relaxing)
 *fill*         0x08032c27        0x1 00
 .rodata.str1.4
                0x08032c28        0x2 d:/elektronik/ides/chibistudio/tools/gnu tools arm embedded/4.6 2012q2/bin/../lib/gcc/arm-none-eabi/4.6.2/../../../../arm-none-eabi/lib/armv7e-m\libg.a(lib_a-impure.o)
                                  0x4 (size before relaxing)
 *fill*         0x08032c2a        0x2 00
 .rodata._global_impure_ptr
                0x08032c2c        0x4 d:/elektronik/ides/chibistudio/tools/gnu tools arm embedded/4.6 2012q2/bin/../lib/gcc/arm-none-eabi/4.6.2/../../../../arm-none-eabi/lib/armv7e-m\libg.a(lib_a-impure.o)
                0x08032c2c                _global_impure_ptr
 .rodata._DAYS_BEFORE_MONTH
                0x08032c30       0x30 d:/elektronik/ides/chibistudio/tools/gnu tools arm embedded/4.6 2012q2/bin/../lib/gcc/arm-none-eabi/4.6.2/../../../../arm-none-eabi/lib/armv7e-m\libg.a(lib_a-mktime.o)
 .rodata.DAYS_IN_MONTH
                0x08032c60       0x30 d:/elektronik/ides/chibistudio/tools/gnu tools arm embedded/4.6 2012q2/bin/../lib/gcc/arm-none-eabi/4.6.2/../../../../arm-none-eabi/lib/armv7e-m\libg.a(lib_a-mktime.o)
 .rodata.mon_lengths
                0x08032c90       0x60 d:/elektronik/ides/chibistudio/tools/gnu tools arm embedded/4.6 2012q2/bin/../lib/gcc/arm-none-eabi/4.6.2/../../../../arm-none-eabi/lib/armv7e-m\libg.a(lib_a-mktm_r.o)
 .rodata.year_lengths
                0x08032cf0        0x8 d:/elektronik/ides/chibistudio/tools/gnu tools arm embedded/4.6 2012q2/bin/../lib/gcc/arm-none-eabi/4.6.2/../../../../arm-none-eabi/lib/armv7e-m\libg.a(lib_a-mktm_r.o)
 .rodata.str1.4
                0x08032cf8       0x74 d:/elektronik/ides/chibistudio/tools/gnu tools arm embedded/4.6 2012q2/bin/../lib/gcc/arm-none-eabi/4.6.2/../../../../arm-none-eabi/lib/armv7e-m\libg.a(lib_a-strftime.o)
                                 0x78 (size before relaxing)
 .rodata.zeroes.6590
                0x08032d6c       0x10 d:/elektronik/ides/chibistudio/tools/gnu tools arm embedded/4.6 2012q2/bin/../lib/gcc/arm-none-eabi/4.6.2/../../../../arm-none-eabi/lib/armv7e-m\libg.a(lib_a-svfprintf.o)
 .rodata.str1.4
                0x08032d7c       0x42 d:/elektronik/ides/chibistudio/tools/gnu tools arm embedded/4.6 2012q2/bin/../lib/gcc/arm-none-eabi/4.6.2/../../../../arm-none-eabi/lib/armv7e-m\libg.a(lib_a-svfprintf.o)
                                 0x44 (size before relaxing)
 *fill*         0x08032dbe        0x2 00
 .rodata.blanks.6589
                0x08032dc0       0x10 d:/elektronik/ides/chibistudio/tools/gnu tools arm embedded/4.6 2012q2/bin/../lib/gcc/arm-none-eabi/4.6.2/../../../../arm-none-eabi/lib/armv7e-m\libg.a(lib_a-svfprintf.o)
 .rodata._C_time_locale
                0x08032dd0       0xfc d:/elektronik/ides/chibistudio/tools/gnu tools arm embedded/4.6 2012q2/bin/../lib/gcc/arm-none-eabi/4.6.2/../../../../arm-none-eabi/lib/armv7e-m\libg.a(lib_a-timelocal.o)
 .rodata.str1.4
                0x08032ecc      0x160 d:/elektronik/ides/chibistudio/tools/gnu tools arm embedded/4.6 2012q2/bin/../lib/gcc/arm-none-eabi/4.6.2/../../../../arm-none-eabi/lib/armv7e-m\libg.a(lib_a-timelocal.o)
                                0x164 (size before relaxing)
 .rodata.str1.4
                0x0803302c        0x4 d:/elektronik/ides/chibistudio/tools/gnu tools arm embedded/4.6 2012q2/bin/../lib/gcc/arm-none-eabi/4.6.2/../../../../arm-none-eabi/lib/armv7e-m\libg.a(lib_a-tzvars.o)
 .rodata.zeroes.6548
                0x08033030       0x10 d:/elektronik/ides/chibistudio/tools/gnu tools arm embedded/4.6 2012q2/bin/../lib/gcc/arm-none-eabi/4.6.2/../../../../arm-none-eabi/lib/armv7e-m\libg.a(lib_a-vfiprintf.o)
 .rodata.str1.4
                0x00000000       0x30 d:/elektronik/ides/chibistudio/tools/gnu tools arm embedded/4.6 2012q2/bin/../lib/gcc/arm-none-eabi/4.6.2/../../../../arm-none-eabi/lib/armv7e-m\libg.a(lib_a-vfiprintf.o)
 .rodata.blanks.6547
                0x08033040       0x10 d:/elektronik/ides/chibistudio/tools/gnu tools arm embedded/4.6 2012q2/bin/../lib/gcc/arm-none-eabi/4.6.2/../../../../arm-none-eabi/lib/armv7e-m\libg.a(lib_a-vfiprintf.o)
 .rodata._ctype_
                0x08033050      0x104 d:/elektronik/ides/chibistudio/tools/gnu tools arm embedded/4.6 2012q2/bin/../lib/gcc/arm-none-eabi/4.6.2/../../../../arm-none-eabi/lib/armv7e-m\libg.a(lib_a-ctype_.o)
                0x08033050                _ctype_
 .rodata.str1.4
                0x08033154       0x10 d:/elektronik/ides/chibistudio/tools/gnu tools arm embedded/4.6 2012q2/bin/../lib/gcc/arm-none-eabi/4.6.2/../../../../arm-none-eabi/lib/armv7e-m\libg.a(lib_a-dtoa.o)
                                 0x14 (size before relaxing)
 .rodata.str1.4
                0x08033164        0xc d:/elektronik/ides/chibistudio/tools/gnu tools arm embedded/4.6 2012q2/bin/../lib/gcc/arm-none-eabi/4.6.2/../../../../arm-none-eabi/lib/armv7e-m\libg.a(lib_a-locale.o)
                                 0x14 (size before relaxing)
 .rodata.__mprec_tens
                0x08033170       0xc8 d:/elektronik/ides/chibistudio/tools/gnu tools arm embedded/4.6 2012q2/bin/../lib/gcc/arm-none-eabi/4.6.2/../../../../arm-none-eabi/lib/armv7e-m\libg.a(lib_a-mprec.o)
                0x08033170                __mprec_tens
 .rodata.__mprec_bigtens
                0x08033238       0x28 d:/elektronik/ides/chibistudio/tools/gnu tools arm embedded/4.6 2012q2/bin/../lib/gcc/arm-none-eabi/4.6.2/../../../../arm-none-eabi/lib/armv7e-m\libg.a(lib_a-mprec.o)
                0x08033238                __mprec_bigtens
 .rodata.p05.5111
                0x08033260        0xc d:/elektronik/ides/chibistudio/tools/gnu tools arm embedded/4.6 2012q2/bin/../lib/gcc/arm-none-eabi/4.6.2/../../../../arm-none-eabi/lib/armv7e-m\libg.a(lib_a-mprec.o)
 *(.glue_7)
 .glue_7        0x00000000        0x0 linker stubs
 *(.glue_7t)
 .glue_7t       0x00000000        0x0 linker stubs
 *(.eh_frame)
 .eh_frame      0x0803326c        0x0 d:/elektronik/ides/chibistudio/tools/gnu tools arm embedded/4.6 2012q2/bin/../lib/gcc/arm-none-eabi/4.6.2/armv7e-m/crtbegin.o
 *(.init)
 .init          0x0803326c        0x4 d:/elektronik/ides/chibistudio/tools/gnu tools arm embedded/4.6 2012q2/bin/../lib/gcc/arm-none-eabi/4.6.2/armv7e-m/crti.o
                0x0803326c                _init
 .init          0x08033270        0x8 d:/elektronik/ides/chibistudio/tools/gnu tools arm embedded/4.6 2012q2/bin/../lib/gcc/arm-none-eabi/4.6.2/armv7e-m/crtn.o
 *(.fini)
 .fini          0x08033278        0x4 d:/elektronik/ides/chibistudio/tools/gnu tools arm embedded/4.6 2012q2/bin/../lib/gcc/arm-none-eabi/4.6.2/armv7e-m/crti.o
                0x08033278                _fini
 .fini          0x0803327c        0x8 d:/elektronik/ides/chibistudio/tools/gnu tools arm embedded/4.6 2012q2/bin/../lib/gcc/arm-none-eabi/4.6.2/armv7e-m/crtn.o
                0x08033284                . = ALIGN (0x4)
                0x08033284                _etext = .

.vfp11_veneer   0x08033284        0x0
 .vfp11_veneer  0x00000000        0x0 linker stubs

.v4_bx          0x08033284        0x0
 .v4_bx         0x00000000        0x0 linker stubs

.ARM.extab      0x08033284       0x30
 *(.ARM.extab* .gnu.linkonce.armextab.*)
 .ARM.extab     0x08033284       0x18 d:/elektronik/ides/chibistudio/tools/gnu tools arm embedded/4.6 2012q2/bin/../lib/gcc/arm-none-eabi/4.6.2/armv7e-m\libgcc.a(unwind-arm.o)
 .ARM.extab     0x0803329c       0x18 d:/elektronik/ides/chibistudio/tools/gnu tools arm embedded/4.6 2012q2/bin/../lib/gcc/arm-none-eabi/4.6.2/armv7e-m\libgcc.a(pr-support.o)

.ARM            0x080332b4       0xe0
                0x080332b4                __exidx_start = .
 *(.ARM.exidx*)
 .ARM.exidx.text.__aeabi_atexit
                0x08033394        0x0 d:/elektronik/ides/chibistudio/tools/gnu tools arm embedded/4.6 2012q2/bin/../lib/gcc/arm-none-eabi/4.6.2/../../../../arm-none-eabi/lib/armv7e-m\libstdc++.a(atexit_arm.o)
                                  0x8 (size before relaxing)
 .ARM.exidx     0x080332b4        0x8 d:/elektronik/ides/chibistudio/tools/gnu tools arm embedded/4.6 2012q2/bin/../lib/gcc/arm-none-eabi/4.6.2/armv7e-m\libgcc.a(bpabi.o)
                                 0x10 (size before relaxing)
 .ARM.exidx     0x080332bc       0x88 d:/elektronik/ides/chibistudio/tools/gnu tools arm embedded/4.6 2012q2/bin/../lib/gcc/arm-none-eabi/4.6.2/armv7e-m\libgcc.a(unwind-arm.o)
                                 0xc0 (size before relaxing)
 .ARM.exidx     0x08033344       0x38 d:/elektronik/ides/chibistudio/tools/gnu tools arm embedded/4.6 2012q2/bin/../lib/gcc/arm-none-eabi/4.6.2/armv7e-m\libgcc.a(pr-support.o)
                                 0x48 (size before relaxing)
 .ARM.exidx     0x0803337c        0x8 d:/elektronik/ides/chibistudio/tools/gnu tools arm embedded/4.6 2012q2/bin/../lib/gcc/arm-none-eabi/4.6.2/armv7e-m\libgcc.a(_divdi3.o)
 .ARM.exidx     0x08033384       0x10 d:/elektronik/ides/chibistudio/tools/gnu tools arm embedded/4.6 2012q2/bin/../lib/gcc/arm-none-eabi/4.6.2/armv7e-m\libgcc.a(_udivdi3.o)
                                  0x8 (size before relaxing)
                0x08033394                __exidx_end = .

.preinit_array  0x08033394        0x0
                0x08033394                PROVIDE (__preinit_array_start, .)
 *(.preinit_array*)
                0x08033394                PROVIDE (__preinit_array_end, .)

.init_array     0x08033394        0xc
                0x08033394                PROVIDE (__init_array_start, .)
 *(SORT(.init_array.*))
 .init_array.00000
                0x08033394        0x4 d:/elektronik/ides/chibistudio/tools/gnu tools arm embedded/4.6 2012q2/bin/../lib/gcc/arm-none-eabi/4.6.2/../../../../arm-none-eabi/lib/armv7e-m\libg.a(lib_a-__call_atexit.o)
 *(.init_array*)
 .init_array    0x08033398        0x4 d:/elektronik/ides/chibistudio/tools/gnu tools arm embedded/4.6 2012q2/bin/../lib/gcc/arm-none-eabi/4.6.2/armv7e-m/crtbegin.o
 .init_array    0x0803339c        0x4 ./main.o
                0x080333a0                PROVIDE (__init_array_end, .)

.fini_array     0x080333a0        0x4
                0x080333a0                PROVIDE (__fini_array_start, .)
 *(.fini_array*)
 .fini_array    0x080333a0        0x4 d:/elektronik/ides/chibistudio/tools/gnu tools arm embedded/4.6 2012q2/bin/../lib/gcc/arm-none-eabi/4.6.2/armv7e-m/crtbegin.o
 *(SORT(.fini_array.*))
                0x080333a4                PROVIDE (__fini_array_end, .)
                0x080333a4                _sidata = .

.data           0x20000000      0x9d0 load address 0x080333a8
                0x20000000                . = ALIGN (0x4)
                0x20000000                _sdata = .
 *(.data)
 .data          0x20000000        0x4 d:/elektronik/ides/chibistudio/tools/gnu tools arm embedded/4.6 2012q2/bin/../lib/gcc/arm-none-eabi/4.6.2/armv7e-m/crtbegin.o
                0x20000000                __dso_handle
 *(.data*)
 .data.USBH_DeviceConnStatus_cb
                0x20000004        0xc ./STM32_USB_HOST_Library/Core/src/usbh_core.o
                0x20000004                USBH_DeviceConnStatus_cb
 .data.USBH_MSC_cb
                0x20000010       0x10 ./STM32_USB_HOST_Library/Class/MSC/src/usbh_msc_core.o
                0x20000010                USBH_MSC_cb
 .data.Stat     0x20000020        0x1 ./STM32_USB_HOST_Library/Class/MSC/src/usbh_msc_fatfs.o
 .data.status.7749
                0x20000021        0x1 ./STM32_USB_HOST_Library/Class/MSC/src/usbh_msc_scsi.o
 *fill*         0x20000022        0x2 00
 .data.APBAHBPrescTable
                0x20000024       0x10 ./STM32F4xx_StdPeriph_Driver/src/stm32f4xx_rcc.o
 .data.GPIO_PORT
                0x20000034       0x10 ./STM32F4-Discovery/stm32f4_discovery.o
                0x20000034                GPIO_PORT
 .data.BUTTON_PORT
                0x20000044        0x4 ./STM32F4-Discovery/stm32f4_discovery.o
                0x20000044                BUTTON_PORT
 .data.AudioTotalSize
                0x20000048        0x4 ./STM32F4-Discovery/stm32f4_discovery_audio_codec.o
                0x20000048                AudioTotalSize
 .data.AudioRemSize
                0x2000004c        0x4 ./STM32F4-Discovery/stm32f4_discovery_audio_codec.o
                0x2000004c                AudioRemSize
 .data.CODECTimeout
                0x20000050        0x4 ./STM32F4-Discovery/stm32f4_discovery_audio_codec.o
                0x20000050                CODECTimeout
 .data.CurrAudioInterface
                0x20000054        0x4 ./STM32F4-Discovery/stm32f4_discovery_audio_codec.o
                0x20000054                CurrAudioInterface
 .data.AUDIO_MAL_DMA_CLOCK
                0x20000058        0x4 ./STM32F4-Discovery/stm32f4_discovery_audio_codec.o
                0x20000058                AUDIO_MAL_DMA_CLOCK
 .data.AUDIO_MAL_DMA_STREAM
                0x2000005c        0x4 ./STM32F4-Discovery/stm32f4_discovery_audio_codec.o
                0x2000005c                AUDIO_MAL_DMA_STREAM
 .data.AUDIO_MAL_DMA_DREG
                0x20000060        0x4 ./STM32F4-Discovery/stm32f4_discovery_audio_codec.o
                0x20000060                AUDIO_MAL_DMA_DREG
 .data.AUDIO_MAL_DMA_IRQ
                0x20000064        0x4 ./STM32F4-Discovery/stm32f4_discovery_audio_codec.o
                0x20000064                AUDIO_MAL_DMA_IRQ
 .data.AUDIO_MAL_DMA_FLAG_TC
                0x20000068        0x4 ./STM32F4-Discovery/stm32f4_discovery_audio_codec.o
                0x20000068                AUDIO_MAL_DMA_FLAG_TC
 .data.AUDIO_MAL_DMA_FLAG_HT
                0x2000006c        0x4 ./STM32F4-Discovery/stm32f4_discovery_audio_codec.o
                0x2000006c                AUDIO_MAL_DMA_FLAG_HT
 .data.AUDIO_MAL_DMA_FLAG_FE
                0x20000070        0x4 ./STM32F4-Discovery/stm32f4_discovery_audio_codec.o
                0x20000070                AUDIO_MAL_DMA_FLAG_FE
 .data.AUDIO_MAL_DMA_FLAG_TE
                0x20000074        0x4 ./STM32F4-Discovery/stm32f4_discovery_audio_codec.o
                0x20000074                AUDIO_MAL_DMA_FLAG_TE
 .data.AUDIO_MAL_DMA_FLAG_DME
                0x20000078        0x4 ./STM32F4-Discovery/stm32f4_discovery_audio_codec.o
                0x20000078                AUDIO_MAL_DMA_FLAG_DME
 .data.LIS302DLTimeout
                0x2000007c        0x4 ./STM32F4-Discovery/stm32f4_discovery_lis302dl.o
                0x2000007c                LIS302DLTimeout
 .data.uxCriticalNesting
                0x20000080        0x4 ./FreeRTOS/Source/portable/GCC/ARM_CM4F/port.o
 .data.xNextTaskUnblockTime
                0x20000084        0x4 ./FreeRTOS/Source/tasks.o
 .data.USR_Callbacks
                0x20000088       0x48 ./Audio_MP3/USB_MSC/usbh_usr.o
                0x20000088                USR_Callbacks
 .data.SystemCoreClock
                0x200000d0        0x4 ./system_stm32f4xx.o
                0x200000d0                SystemCoreClock
 .data.AHBPrescTable
                0x200000d4       0x10 ./system_stm32f4xx.o
                0x200000d4                AHBPrescTable
 *fill*         0x200000e4        0x4 00
 .data.impure_data
                0x200000e8      0x428 d:/elektronik/ides/chibistudio/tools/gnu tools arm embedded/4.6 2012q2/bin/../lib/gcc/arm-none-eabi/4.6.2/../../../../arm-none-eabi/lib/armv7e-m\libg.a(lib_a-impure.o)
 .data._impure_ptr
                0x20000510        0x4 d:/elektronik/ides/chibistudio/tools/gnu tools arm embedded/4.6 2012q2/bin/../lib/gcc/arm-none-eabi/4.6.2/../../../../arm-none-eabi/lib/armv7e-m\libg.a(lib_a-impure.o)
                0x20000510                _impure_ptr
 .data.__malloc_av_
                0x20000514      0x408 d:/elektronik/ides/chibistudio/tools/gnu tools arm embedded/4.6 2012q2/bin/../lib/gcc/arm-none-eabi/4.6.2/../../../../arm-none-eabi/lib/armv7e-m\libg.a(lib_a-mallocr.o)
                0x20000514                __malloc_av_
 .data.__malloc_trim_threshold
                0x2000091c        0x4 d:/elektronik/ides/chibistudio/tools/gnu tools arm embedded/4.6 2012q2/bin/../lib/gcc/arm-none-eabi/4.6.2/../../../../arm-none-eabi/lib/armv7e-m\libg.a(lib_a-mallocr.o)
                0x2000091c                __malloc_trim_threshold
 .data.__malloc_sbrk_base
                0x20000920        0x4 d:/elektronik/ides/chibistudio/tools/gnu tools arm embedded/4.6 2012q2/bin/../lib/gcc/arm-none-eabi/4.6.2/../../../../arm-none-eabi/lib/armv7e-m\libg.a(lib_a-mallocr.o)
                0x20000920                __malloc_sbrk_base
 .data._tzname  0x20000924        0x8 d:/elektronik/ides/chibistudio/tools/gnu tools arm embedded/4.6 2012q2/bin/../lib/gcc/arm-none-eabi/4.6.2/../../../../arm-none-eabi/lib/armv7e-m\libg.a(lib_a-tzvars.o)
                0x20000924                _tzname
 .data.__ctype_ptr__
                0x2000092c        0x4 d:/elektronik/ides/chibistudio/tools/gnu tools arm embedded/4.6 2012q2/bin/../lib/gcc/arm-none-eabi/4.6.2/../../../../arm-none-eabi/lib/armv7e-m\libg.a(lib_a-ctype_.o)
                0x2000092c                __ctype_ptr__
 .data.tzinfo   0x20000930       0x40 d:/elektronik/ides/chibistudio/tools/gnu tools arm embedded/4.6 2012q2/bin/../lib/gcc/arm-none-eabi/4.6.2/../../../../arm-none-eabi/lib/armv7e-m\libg.a(lib_a-gettzinfo.o)
 .data.lconv    0x20000970       0x38 d:/elektronik/ides/chibistudio/tools/gnu tools arm embedded/4.6 2012q2/bin/../lib/gcc/arm-none-eabi/4.6.2/../../../../arm-none-eabi/lib/armv7e-m\libg.a(lib_a-locale.o)
 .data.lc_ctype_charset
                0x200009a8       0x20 d:/elektronik/ides/chibistudio/tools/gnu tools arm embedded/4.6 2012q2/bin/../lib/gcc/arm-none-eabi/4.6.2/../../../../arm-none-eabi/lib/armv7e-m\libg.a(lib_a-locale.o)
 .data.__mb_cur_max
                0x200009c8        0x4 d:/elektronik/ides/chibistudio/tools/gnu tools arm embedded/4.6 2012q2/bin/../lib/gcc/arm-none-eabi/4.6.2/../../../../arm-none-eabi/lib/armv7e-m\libg.a(lib_a-locale.o)
                0x200009c8                __mb_cur_max
 .data.__wctomb
                0x200009cc        0x4 d:/elektronik/ides/chibistudio/tools/gnu tools arm embedded/4.6 2012q2/bin/../lib/gcc/arm-none-eabi/4.6.2/../../../../arm-none-eabi/lib/armv7e-m\libg.a(lib_a-wctomb_r.o)
                0x200009cc                __wctomb
                0x200009d0                . = ALIGN (0x4)
                0x200009d0                _edata = .

.jcr            0x200009d0        0x0 load address 0x08033d78
 .jcr           0x200009d0        0x0 d:/elektronik/ides/chibistudio/tools/gnu tools arm embedded/4.6 2012q2/bin/../lib/gcc/arm-none-eabi/4.6.2/armv7e-m/crtbegin.o
                0x200009d0                . = ALIGN (0x4)

.bss            0x200009d0     0x9b78 load address 0x08033d78
                0x200009d0                _sbss = .
                0x200009d0                __bss_start__ = _sbss
 *(.bss)
 .bss           0x200009d0       0x1c d:/elektronik/ides/chibistudio/tools/gnu tools arm embedded/4.6 2012q2/bin/../lib/gcc/arm-none-eabi/4.6.2/armv7e-m/crtbegin.o
 *(.bss*)
 .bss.timeout.7635
                0x200009ec        0x2 ./STM32_USB_HOST_Library/Core/src/usbh_core.o
 *fill*         0x200009ee        0x2 00
 .bss.BOTStallErrorCount
                0x200009f0        0x4 ./STM32_USB_HOST_Library/Class/MSC/src/usbh_msc_bot.o
 .bss.remainingDataLength.7696
                0x200009f4        0x4 ./STM32_USB_HOST_Library/Class/MSC/src/usbh_msc_bot.o
 .bss.datapointer.7697
                0x200009f8        0x4 ./STM32_USB_HOST_Library/Class/MSC/src/usbh_msc_bot.o
 .bss.error_direction.7698
                0x200009fc        0x1 ./STM32_USB_HOST_Library/Class/MSC/src/usbh_msc_bot.o
 .bss.MSCErrorCount
                0x200009fd        0x1 ./STM32_USB_HOST_Library/Class/MSC/src/usbh_msc_core.o
                0x200009fd                MSCErrorCount
 .bss.maxLunExceed.7721
                0x200009fe        0x1 ./STM32_USB_HOST_Library/Class/MSC/src/usbh_msc_core.o
 .bss.OutputDev
                0x200009ff        0x1 ./STM32F4-Discovery/stm32f4_discovery_audio_codec.o
                0x200009ff                OutputDev
 .bss.AUDIO_MAL_DMA_CHANNEL
                0x20000a00        0x4 ./STM32F4-Discovery/stm32f4_discovery_audio_codec.o
                0x20000a00                AUDIO_MAL_DMA_CHANNEL
 .bss._ZN12AManagedTask22s_pManagedTaskListHeadE
                0x20000a04        0x4 ./FreeRTOS_EC/Source/AManagedTask.o
                0x20000a04                AManagedTask::s_pManagedTaskListHead
 .bss.pxCurrentTCB
                0x20000a08        0x4 ./FreeRTOS/Source/tasks.o
                0x20000a08                pxCurrentTCB
 .bss.pxReadyTasksLists
                0x20000a0c       0xc8 ./FreeRTOS/Source/tasks.o
 .bss.xDelayedTaskList1
                0x20000ad4       0x14 ./FreeRTOS/Source/tasks.o
 .bss.xDelayedTaskList2
                0x20000ae8       0x14 ./FreeRTOS/Source/tasks.o
 .bss.pxDelayedTaskList
                0x20000afc        0x4 ./FreeRTOS/Source/tasks.o
 .bss.pxOverflowDelayedTaskList
                0x20000b00        0x4 ./FreeRTOS/Source/tasks.o
 .bss.xPendingReadyList
                0x20000b04       0x14 ./FreeRTOS/Source/tasks.o
 .bss.xTasksWaitingTermination
                0x20000b18       0x14 ./FreeRTOS/Source/tasks.o
 .bss.uxTasksDeleted
                0x20000b2c        0x4 ./FreeRTOS/Source/tasks.o
 .bss.xSuspendedTaskList
                0x20000b30       0x14 ./FreeRTOS/Source/tasks.o
 .bss.xIdleTaskHandle
                0x20000b44        0x4 ./FreeRTOS/Source/tasks.o
 .bss.uxCurrentNumberOfTasks
                0x20000b48        0x4 ./FreeRTOS/Source/tasks.o
 .bss.xTickCount
                0x20000b4c        0x4 ./FreeRTOS/Source/tasks.o
 .bss.uxTopUsedPriority
                0x20000b50        0x4 ./FreeRTOS/Source/tasks.o
 .bss.uxTopReadyPriority
                0x20000b54        0x4 ./FreeRTOS/Source/tasks.o
 .bss.xSchedulerRunning
                0x20000b58        0x4 ./FreeRTOS/Source/tasks.o
 .bss.uxSchedulerSuspended
                0x20000b5c        0x4 ./FreeRTOS/Source/tasks.o
 .bss.uxMissedTicks
                0x20000b60        0x4 ./FreeRTOS/Source/tasks.o
 .bss.xMissedYield
                0x20000b64        0x4 ./FreeRTOS/Source/tasks.o
 .bss.xNumOfOverflows
                0x20000b68        0x4 ./FreeRTOS/Source/tasks.o
 .bss.uxTaskNumber
                0x20000b6c        0x4 ./FreeRTOS/Source/tasks.o
 .bss.pcStatsString
                0x20000b70       0x34 ./FreeRTOS/Source/tasks.o
 .bss.ulTaskSwitchedInTime
                0x20000ba4        0x4 ./FreeRTOS/Source/tasks.o
 .bss._ZN21rtc_handler_namespace11PeriodValueE
                0x20000ba8        0x4 ./Clock/CRTCHandler.o
                0x20000ba8                rtc_handler_namespace::PeriodValue
 .bss._ZN21rtc_handler_namespace13CaptureNumberE
                0x20000bac        0x4 ./Clock/CRTCHandler.o
                0x20000bac                rtc_handler_namespace::CaptureNumber
 .bss._ZN21rtc_handler_namespace6tmpCC4E
                0x20000bb0        0x4 ./Clock/CRTCHandler.o
                0x20000bb0                rtc_handler_namespace::tmpCC4
 .bss.USB_OTG_Core
                0x20000bb4      0x4b0 ./Audio_MP3/USB_MSC/CUSBMassStorage.o
                0x20000bb4                USB_OTG_Core
 .bss.USB_Host  0x20001064       0x84 ./Audio_MP3/USB_MSC/CUSBMassStorage.o
                0x20001064                USB_Host
 .bss.FatFs     0x200010e8        0x4 ./Audio_MP3/FatFs/src/ff.o
 .bss.Fsid      0x200010ec        0x2 ./Audio_MP3/FatFs/src/ff.o
 .bss.Drive     0x200010ee        0x1 ./Audio_MP3/FatFs/src/ff.o
 *fill*         0x200010ef        0x1 00
 .bss.semI2SDMAFinished
                0x200010f0        0x4 ./Audio_MP3/CFileHandler.o
                0x200010f0                semI2SDMAFinished
 .bss.semUserButton
                0x200010f4        0x4 ./Audio_MP3/CFileHandler.o
                0x200010f4                semUserButton
 .bss.semShock  0x200010f8        0x4 ./Audio_MP3/CFileHandler.o
                0x200010f8                semShock
 .bss._ZL12uiReadBuffer
                0x200010fc      0x794 ./Audio_MP3/CFileHandler.o
 .bss._ZL11iPCMBuffer1
                0x20001890     0x1200 ./Audio_MP3/CFileHandler.o
 .bss._ZL11iPCMBuffer2
                0x20002a90     0x1200 ./Audio_MP3/CFileHandler.o
 .bss._ZZN12CFileHandler7PlayMP3EPKcE6offset
                0x20003c90        0x4 ./Audio_MP3/CFileHandler.o
 .bss._ZZN12CFileHandler7PlayMP3EPKcE3err
                0x20003c94        0x4 ./Audio_MP3/CFileHandler.o
 .bss._ZZ5_sbrkE4heap
                0x20003c98        0x4 ./LibraryHacks.o
 .bss.g_LedTast
                0x20003c9c       0x14 ./main.o
                0x20003c9c                g_LedTast
 .bss.g_Display
                0x20003cb0        0x8 ./main.o
                0x20003cb0                g_Display
 .bss.g_Menue   0x20003cb8       0x10 ./main.o
                0x20003cb8                g_Menue
 .bss.g_FileHandler
                0x20003cc8      0x2c4 ./main.o
                0x20003cc8                g_FileHandler
 .bss.g_MSC     0x20003f8c        0xc ./main.o
                0x20003f8c                g_MSC
 .bss.t0.6314   0x20003f98        0x2 ./ustime.o
 *fill*         0x20003f9a        0x6 00
 .bss.tickcount.6315
                0x20003fa0        0x8 ./ustime.o
 .bss.__malloc_max_total_mem
                0x20003fa8        0x4 d:/elektronik/ides/chibistudio/tools/gnu tools arm embedded/4.6 2012q2/bin/../lib/gcc/arm-none-eabi/4.6.2/../../../../arm-none-eabi/lib/armv7e-m\libg.a(lib_a-mallocr.o)
                0x20003fa8                __malloc_max_total_mem
 .bss.__malloc_max_sbrked_mem
                0x20003fac        0x4 d:/elektronik/ides/chibistudio/tools/gnu tools arm embedded/4.6 2012q2/bin/../lib/gcc/arm-none-eabi/4.6.2/../../../../arm-none-eabi/lib/armv7e-m\libg.a(lib_a-mallocr.o)
                0x20003fac                __malloc_max_sbrked_mem
 .bss.__malloc_top_pad
                0x20003fb0        0x4 d:/elektronik/ides/chibistudio/tools/gnu tools arm embedded/4.6 2012q2/bin/../lib/gcc/arm-none-eabi/4.6.2/../../../../arm-none-eabi/lib/armv7e-m\libg.a(lib_a-mallocr.o)
                0x20003fb0                __malloc_top_pad
 .bss.__malloc_current_mallinfo
                0x20003fb4       0x28 d:/elektronik/ides/chibistudio/tools/gnu tools arm embedded/4.6 2012q2/bin/../lib/gcc/arm-none-eabi/4.6.2/../../../../arm-none-eabi/lib/armv7e-m\libg.a(lib_a-mallocr.o)
                0x20003fb4                __malloc_current_mallinfo
 .bss._time_using_locale
                0x20003fdc        0x4 d:/elektronik/ides/chibistudio/tools/gnu tools arm embedded/4.6 2012q2/bin/../lib/gcc/arm-none-eabi/4.6.2/../../../../arm-none-eabi/lib/armv7e-m\libg.a(lib_a-timelocal.o)
 .bss._time_locale
                0x20003fe0       0xfc d:/elektronik/ides/chibistudio/tools/gnu tools arm embedded/4.6 2012q2/bin/../lib/gcc/arm-none-eabi/4.6.2/../../../../arm-none-eabi/lib/armv7e-m\libg.a(lib_a-timelocal.o)
 .bss._daylight
                0x200040dc        0x4 d:/elektronik/ides/chibistudio/tools/gnu tools arm embedded/4.6 2012q2/bin/../lib/gcc/arm-none-eabi/4.6.2/../../../../arm-none-eabi/lib/armv7e-m\libg.a(lib_a-tzvars.o)
                0x200040dc                _daylight
 *(COMMON)
 COMMON         0x200040e0       0x40 ./STM32_USB_HOST_Library/Class/MSC/src/usbh_msc_bot.o
                0x200040e0                USBH_MSC_CSWData
                0x200040f0                USBH_MSC_BOTXferParam
                0x20004100                USBH_MSC_CBWData
 COMMON         0x20004120       0x54 ./STM32_USB_HOST_Library/Class/MSC/src/usbh_msc_core.o
                0x20004120                MSC_Machine
                0x2000416c                MSC_Setup
 COMMON         0x20004174      0x410 ./STM32_USB_HOST_Library/Class/MSC/src/usbh_msc_scsi.o
                0x20004174                USBH_DataInBuffer
                0x20004374                USBH_MSC_Param
                0x20004384                USBH_DataOutBuffer
 COMMON         0x20004584       0x7c ./STM32F4-Discovery/stm32f4_discovery_audio_codec.o
                0x20004584                CurrentPos
                0x20004588                AUDIO_MAL_DMA_InitStructure
                0x200045c4                DMA_InitStructure
 COMMON         0x20004600     0x5d08 ./HelixMP3/real/buffers.o
                0x20004600                fh
                0x20004638                mp3DecInfo
                0x20004e28                sfi
                0x20004f44                si
                0x2000508c                sbi
                0x20007290                hi
                0x200084a0                di
                0x200087e8                mi
 COMMON         0x2000a308      0x23c ./Audio_MP3/USB_MSC/usbh_usr.o
                0x2000a308                semUSBApplication
                0x2000a30c                fatfs
                0x2000a540                semUSBMounted
 COMMON         0x2000a544        0x4 d:/elektronik/ides/chibistudio/tools/gnu tools arm embedded/4.6 2012q2/bin/../lib/gcc/arm-none-eabi/4.6.2/../../../../arm-none-eabi/lib/armv7e-m\libg.a(lib_a-reent.o)
                0x2000a544                errno
                0x2000a548                . = ALIGN (0x4)
                0x2000a548                _ebss = .
                0x2000a548                __bss_end__ = _ebss

._user_heap_stack
                0x2000a548      0x400 load address 0x08033d78
                0x2000a548                . = ALIGN (0x4)
                0x2000a548                PROVIDE (end, .)
                0x2000a548                PROVIDE (_end, .)
                0x2000a548                . = (. + _Min_Heap_Size)
                0x2000a948                . = (. + _Min_Stack_Size)
 *fill*         0x2000a548      0x400 00
                0x2000a948                . = ALIGN (0x4)

.memory_b1_text
 *(.mb1text)
 *(.mb1text*)
 *(.mb1rodata)
 *(.mb1rodata*)

/DISCARD/
 libc.a(*)
 libm.a(*)
 libgcc.a(*)

.ARM.attributes
                0x00000000       0x30
 *(.ARM.attributes)
 .ARM.attributes
                0x00000000       0x1e d:/elektronik/ides/chibistudio/tools/gnu tools arm embedded/4.6 2012q2/bin/../lib/gcc/arm-none-eabi/4.6.2/armv7e-m/crti.o
 .ARM.attributes
                0x0000001e       0x2e d:/elektronik/ides/chibistudio/tools/gnu tools arm embedded/4.6 2012q2/bin/../lib/gcc/arm-none-eabi/4.6.2/armv7e-m/crtbegin.o
 .ARM.attributes
                0x0000004c       0x1c d:/elektronik/ides/chibistudio/tools/gnu tools arm embedded/4.6 2012q2/bin/../lib/gcc/arm-none-eabi/4.6.2/../../../../arm-none-eabi/lib/armv7e-m/crt0.o
 .ARM.attributes
                0x00000068       0x39 ./STM32_USB_OTG_Driver/src/usb_core.o
 .ARM.attributes
                0x000000a1       0x39 ./STM32_USB_OTG_Driver/src/usb_hcd.o
 .ARM.attributes
                0x000000da       0x39 ./STM32_USB_OTG_Driver/src/usb_hcd_int.o
 .ARM.attributes
                0x00000113       0x39 ./STM32_USB_HOST_Library/Core/src/usbh_core.o
 .ARM.attributes
                0x0000014c       0x39 ./STM32_USB_HOST_Library/Core/src/usbh_hcs.o
 .ARM.attributes
                0x00000185       0x39 ./STM32_USB_HOST_Library/Core/src/usbh_ioreq.o
 .ARM.attributes
                0x000001be       0x39 ./STM32_USB_HOST_Library/Core/src/usbh_stdreq.o
 .ARM.attributes
                0x000001f7       0x39 ./STM32_USB_HOST_Library/Class/MSC/src/usbh_msc_bot.o
 .ARM.attributes
                0x00000230       0x39 ./STM32_USB_HOST_Library/Class/MSC/src/usbh_msc_core.o
 .ARM.attributes
                0x00000269       0x39 ./STM32_USB_HOST_Library/Class/MSC/src/usbh_msc_fatfs.o
 .ARM.attributes
                0x000002a2       0x39 ./STM32_USB_HOST_Library/Class/MSC/src/usbh_msc_scsi.o
 .ARM.attributes
                0x000002db       0x39 ./STM32F4xx_StdPeriph_Driver/src/misc.o
 .ARM.attributes
                0x00000314       0x39 ./STM32F4xx_StdPeriph_Driver/src/stm32f4xx_adc.o
 .ARM.attributes
                0x0000034d       0x39 ./STM32F4xx_StdPeriph_Driver/src/stm32f4xx_dac.o
 .ARM.attributes
                0x00000386       0x39 ./STM32F4xx_StdPeriph_Driver/src/stm32f4xx_dbgmcu.o
 .ARM.attributes
                0x000003bf       0x39 ./STM32F4xx_StdPeriph_Driver/src/stm32f4xx_dma.o
 .ARM.attributes
                0x000003f8       0x39 ./STM32F4xx_StdPeriph_Driver/src/stm32f4xx_exti.o
 .ARM.attributes
                0x00000431       0x39 ./STM32F4xx_StdPeriph_Driver/src/stm32f4xx_flash.o
 .ARM.attributes
                0x0000046a       0x39 ./STM32F4xx_StdPeriph_Driver/src/stm32f4xx_fsmc.o
 .ARM.attributes
                0x000004a3       0x39 ./STM32F4xx_StdPeriph_Driver/src/stm32f4xx_gpio.o
 .ARM.attributes
                0x000004dc       0x39 ./STM32F4xx_StdPeriph_Driver/src/stm32f4xx_i2c.o
 .ARM.attributes
                0x00000515       0x39 ./STM32F4xx_StdPeriph_Driver/src/stm32f4xx_iwdg.o
 .ARM.attributes
                0x0000054e       0x39 ./STM32F4xx_StdPeriph_Driver/src/stm32f4xx_pwr.o
 .ARM.attributes
                0x00000587       0x39 ./STM32F4xx_StdPeriph_Driver/src/stm32f4xx_rcc.o
 .ARM.attributes
                0x000005c0       0x39 ./STM32F4xx_StdPeriph_Driver/src/stm32f4xx_rng.o
 .ARM.attributes
                0x000005f9       0x39 ./STM32F4xx_StdPeriph_Driver/src/stm32f4xx_rtc.o
 .ARM.attributes
                0x00000632       0x39 ./STM32F4xx_StdPeriph_Driver/src/stm32f4xx_sdio.o
 .ARM.attributes
                0x0000066b       0x39 ./STM32F4xx_StdPeriph_Driver/src/stm32f4xx_spi.o
 .ARM.attributes
                0x000006a4       0x39 ./STM32F4xx_StdPeriph_Driver/src/stm32f4xx_syscfg.o
 .ARM.attributes
                0x000006dd       0x39 ./STM32F4xx_StdPeriph_Driver/src/stm32f4xx_tim.o
 .ARM.attributes
                0x00000716       0x39 ./STM32F4xx_StdPeriph_Driver/src/stm32f4xx_usart.o
 .ARM.attributes
                0x0000074f       0x39 ./STM32F4xx_StdPeriph_Driver/src/stm32f4xx_wwdg.o
 .ARM.attributes
                0x00000788       0x39 ./STM32F4-Discovery/stm32f4_discovery.o
 .ARM.attributes
                0x000007c1       0x39 ./STM32F4-Discovery/stm32f4_discovery_audio_codec.o
 .ARM.attributes
                0x000007fa       0x39 ./STM32F4-Discovery/stm32f4_discovery_lis302dl.o
 .ARM.attributes
                0x00000833       0x39 ./Menue/CMenue.o
 .ARM.attributes
                0x0000086c       0x39 ./HelixMP3/real/bitstream.o
 .ARM.attributes
                0x000008a5       0x39 ./HelixMP3/real/buffers.o
 .ARM.attributes
                0x000008de       0x39 ./HelixMP3/real/dct32.o
 .ARM.attributes
                0x00000917       0x39 ./HelixMP3/real/dequant.o
 .ARM.attributes
                0x00000950       0x39 ./HelixMP3/real/dqchan.o
 .ARM.attributes
                0x00000989       0x39 ./HelixMP3/real/huffman.o
 .ARM.attributes
                0x000009c2       0x39 ./HelixMP3/real/hufftabs.o
 .ARM.attributes
                0x000009fb       0x39 ./HelixMP3/real/imdct.o
 .ARM.attributes
                0x00000a34       0x39 ./HelixMP3/real/polyphase.o
 .ARM.attributes
                0x00000a6d       0x39 ./HelixMP3/real/scalfact.o
 .ARM.attributes
                0x00000aa6       0x39 ./HelixMP3/real/stproc.o
 .ARM.attributes
                0x00000adf       0x39 ./HelixMP3/real/subband.o
 .ARM.attributes
                0x00000b18       0x39 ./HelixMP3/real/trigtabs.o
 .ARM.attributes
                0x00000b51       0x39 ./HelixMP3/mp3dec.o
 .ARM.attributes
                0x00000b8a       0x39 ./HelixMP3/mp3tabs.o
 .ARM.attributes
                0x00000bc3       0x39 ./GraphicLCD/CGraphicLCD.o
 .ARM.attributes
                0x00000bfc       0x39 ./GraphicLCD/CT6963CDriver.o
 .ARM.attributes
                0x00000c35       0x39 ./GraphicLCD/CT6963GPIOInterface.o
 .ARM.attributes
                0x00000c6e       0x39 ./GraphicLCD/SansSerif12.o
 .ARM.attributes
                0x00000ca7       0x39 ./GraphicLCD/SansSerif26.o
 .ARM.attributes
                0x00000ce0       0x39 ./FreeRTOS_EC/Source/AManagedTask.o
 .ARM.attributes
                0x00000d19       0x39 ./FreeRTOS_EC/Source/ASyncObject.o
 .ARM.attributes
                0x00000d52       0x39 ./FreeRTOS_EC/Source/ATimer.o
 .ARM.attributes
                0x00000d8b       0x39 ./FreeRTOS_EC/Source/CBinarySemaphore.o
 .ARM.attributes
                0x00000dc4       0x39 ./FreeRTOS_EC/Source/CCountingSemaphore.o
 .ARM.attributes
                0x00000dfd       0x39 ./FreeRTOS_EC/Source/CFreeRTOS.o
 .ARM.attributes
                0x00000e36       0x39 ./FreeRTOS_EC/Source/CMessageTask.o
 .ARM.attributes
                0x00000e6f       0x39 ./FreeRTOS_EC/Source/CMutex.o
 .ARM.attributes
                0x00000ea8       0x39 ./FreeRTOS_EC/Source/CQueue.o
 .ARM.attributes
                0x00000ee1       0x39 ./FreeRTOS_EC/Source/CRecursiveMutex.o
 .ARM.attributes
                0x00000f1a       0x39 ./FreeRTOS_EC/Source/CTask.o
 .ARM.attributes
                0x00000f53       0x39 ./FreeRTOS/Source/portable/GCC/ARM_CM4F/port.o
 .ARM.attributes
                0x00000f8c       0x39 ./FreeRTOS/Source/croutine.o
 .ARM.attributes
                0x00000fc5       0x39 ./FreeRTOS/Source/list.o
 .ARM.attributes
                0x00000ffe       0x39 ./FreeRTOS/Source/queue.o
 .ARM.attributes
                0x00001037       0x39 ./FreeRTOS/Source/tasks.o
 .ARM.attributes
                0x00001070       0x39 ./FreeRTOS/Source/timers.o
 .ARM.attributes
                0x000010a9       0x39 ./Clock/CRTCHandler.o
 .ARM.attributes
                0x000010e2       0x39 ./Clock/CRTCTime.o
 .ARM.attributes
                0x0000111b       0x39 ./Clock/CRTCTime_test.o
 .ARM.attributes
                0x00001154       0x39 ./Clock/CTime.o
 .ARM.attributes
                0x0000118d       0x39 ./Clock/CTime_test.o
 .ARM.attributes
                0x000011c6       0x39 ./Audio_MP3/USB_MSC/CUSBMassStorage.o
 .ARM.attributes
                0x000011ff       0x39 ./Audio_MP3/USB_MSC/usb_bsp.o
 .ARM.attributes
                0x00001238       0x39 ./Audio_MP3/USB_MSC/usbh_usr.o
 .ARM.attributes
                0x00001271       0x39 ./Audio_MP3/FatFs/src/option/syscall.o
 .ARM.attributes
                0x000012aa       0x39 ./Audio_MP3/FatFs/src/ff.o
 .ARM.attributes
                0x000012e3       0x39 ./Audio_MP3/CFileHandler.o
 .ARM.attributes
                0x0000131c       0x39 ./Audio_MP3/fattime.o
 .ARM.attributes
                0x00001355       0x39 ./CLedHeartBeatSTM32F4Disc.o
 .ARM.attributes
                0x0000138e       0x39 ./LibraryHacks.o
 .ARM.attributes
                0x000013c7       0x39 ./main.o
 .ARM.attributes
                0x00001400       0x27 ./startup_stm32f4xx.o
 .ARM.attributes
                0x00001427       0x39 ./stm32f4xx_it.o
 .ARM.attributes
                0x00001460       0x39 ./syscalls.o
 .ARM.attributes
                0x00001499       0x39 ./system_stm32f4xx.o
 .ARM.attributes
                0x000014d2       0x39 ./ustime.o
 .ARM.attributes
                0x0000150b       0x2e d:/elektronik/ides/chibistudio/tools/gnu tools arm embedded/4.6 2012q2/bin/../lib/gcc/arm-none-eabi/4.6.2/../../../../arm-none-eabi/lib/armv7e-m\libstdc++.a(atexit_arm.o)
 .ARM.attributes
                0x00001539       0x2e d:/elektronik/ides/chibistudio/tools/gnu tools arm embedded/4.6 2012q2/bin/../lib/gcc/arm-none-eabi/4.6.2/../../../../arm-none-eabi/lib/armv7e-m\libg.a(lib_a-assert.o)
 .ARM.attributes
                0x00001567       0x2e d:/elektronik/ides/chibistudio/tools/gnu tools arm embedded/4.6 2012q2/bin/../lib/gcc/arm-none-eabi/4.6.2/../../../../arm-none-eabi/lib/armv7e-m\libg.a(lib_a-atexit.o)
 .ARM.attributes
                0x00001595       0x2e d:/elektronik/ides/chibistudio/tools/gnu tools arm embedded/4.6 2012q2/bin/../lib/gcc/arm-none-eabi/4.6.2/../../../../arm-none-eabi/lib/armv7e-m\libg.a(lib_a-cxa_atexit.o)
 .ARM.attributes
                0x000015c3       0x2e d:/elektronik/ides/chibistudio/tools/gnu tools arm embedded/4.6 2012q2/bin/../lib/gcc/arm-none-eabi/4.6.2/../../../../arm-none-eabi/lib/armv7e-m\libg.a(lib_a-exit.o)
 .ARM.attributes
                0x000015f1       0x2e d:/elektronik/ides/chibistudio/tools/gnu tools arm embedded/4.6 2012q2/bin/../lib/gcc/arm-none-eabi/4.6.2/../../../../arm-none-eabi/lib/armv7e-m\libg.a(lib_a-fini.o)
 .ARM.attributes
                0x0000161f       0x2e d:/elektronik/ides/chibistudio/tools/gnu tools arm embedded/4.6 2012q2/bin/../lib/gcc/arm-none-eabi/4.6.2/../../../../arm-none-eabi/lib/armv7e-m\libg.a(lib_a-fiprintf.o)
 .ARM.attributes
                0x0000164d       0x2e d:/elektronik/ides/chibistudio/tools/gnu tools arm embedded/4.6 2012q2/bin/../lib/gcc/arm-none-eabi/4.6.2/../../../../arm-none-eabi/lib/armv7e-m\libg.a(lib_a-gmtime.o)
 .ARM.attributes
                0x0000167b       0x2e d:/elektronik/ides/chibistudio/tools/gnu tools arm embedded/4.6 2012q2/bin/../lib/gcc/arm-none-eabi/4.6.2/../../../../arm-none-eabi/lib/armv7e-m\libg.a(lib_a-gmtime_r.o)
 .ARM.attributes
                0x000016a9       0x2e d:/elektronik/ides/chibistudio/tools/gnu tools arm embedded/4.6 2012q2/bin/../lib/gcc/arm-none-eabi/4.6.2/../../../../arm-none-eabi/lib/armv7e-m\libg.a(lib_a-impure.o)
 .ARM.attributes
                0x000016d7       0x2e d:/elektronik/ides/chibistudio/tools/gnu tools arm embedded/4.6 2012q2/bin/../lib/gcc/arm-none-eabi/4.6.2/../../../../arm-none-eabi/lib/armv7e-m\libg.a(lib_a-init.o)
 .ARM.attributes
                0x00001705       0x2e d:/elektronik/ides/chibistudio/tools/gnu tools arm embedded/4.6 2012q2/bin/../lib/gcc/arm-none-eabi/4.6.2/../../../../arm-none-eabi/lib/armv7e-m\libg.a(lib_a-malloc.o)
 .ARM.attributes
                0x00001733       0x2e d:/elektronik/ides/chibistudio/tools/gnu tools arm embedded/4.6 2012q2/bin/../lib/gcc/arm-none-eabi/4.6.2/../../../../arm-none-eabi/lib/armv7e-m\libg.a(lib_a-mallocr.o)
 .ARM.attributes
                0x00001761       0x2e d:/elektronik/ides/chibistudio/tools/gnu tools arm embedded/4.6 2012q2/bin/../lib/gcc/arm-none-eabi/4.6.2/../../../../arm-none-eabi/lib/armv7e-m\libg.a(lib_a-memcpy.o)
 .ARM.attributes
                0x0000178f       0x2e d:/elektronik/ides/chibistudio/tools/gnu tools arm embedded/4.6 2012q2/bin/../lib/gcc/arm-none-eabi/4.6.2/../../../../arm-none-eabi/lib/armv7e-m\libg.a(lib_a-memmove.o)
 .ARM.attributes
                0x000017bd       0x2e d:/elektronik/ides/chibistudio/tools/gnu tools arm embedded/4.6 2012q2/bin/../lib/gcc/arm-none-eabi/4.6.2/../../../../arm-none-eabi/lib/armv7e-m\libg.a(lib_a-memset.o)
 .ARM.attributes
                0x000017eb       0x2e d:/elektronik/ides/chibistudio/tools/gnu tools arm embedded/4.6 2012q2/bin/../lib/gcc/arm-none-eabi/4.6.2/../../../../arm-none-eabi/lib/armv7e-m\libg.a(lib_a-mktime.o)
 .ARM.attributes
                0x00001819       0x2e d:/elektronik/ides/chibistudio/tools/gnu tools arm embedded/4.6 2012q2/bin/../lib/gcc/arm-none-eabi/4.6.2/../../../../arm-none-eabi/lib/armv7e-m\libg.a(lib_a-mktm_r.o)
 .ARM.attributes
                0x00001847       0x2e d:/elektronik/ides/chibistudio/tools/gnu tools arm embedded/4.6 2012q2/bin/../lib/gcc/arm-none-eabi/4.6.2/../../../../arm-none-eabi/lib/armv7e-m\libg.a(lib_a-sbrkr.o)
 .ARM.attributes
                0x00001875       0x2e d:/elektronik/ides/chibistudio/tools/gnu tools arm embedded/4.6 2012q2/bin/../lib/gcc/arm-none-eabi/4.6.2/../../../../arm-none-eabi/lib/armv7e-m\libg.a(lib_a-sprintf.o)
 .ARM.attributes
                0x000018a3       0x2e d:/elektronik/ides/chibistudio/tools/gnu tools arm embedded/4.6 2012q2/bin/../lib/gcc/arm-none-eabi/4.6.2/../../../../arm-none-eabi/lib/armv7e-m\libg.a(lib_a-strcat.o)
 .ARM.attributes
                0x000018d1       0x2e d:/elektronik/ides/chibistudio/tools/gnu tools arm embedded/4.6 2012q2/bin/../lib/gcc/arm-none-eabi/4.6.2/../../../../arm-none-eabi/lib/armv7e-m\libg.a(lib_a-strcpy.o)
 .ARM.attributes
                0x000018ff       0x2e d:/elektronik/ides/chibistudio/tools/gnu tools arm embedded/4.6 2012q2/bin/../lib/gcc/arm-none-eabi/4.6.2/../../../../arm-none-eabi/lib/armv7e-m\libg.a(lib_a-strftime.o)
 .ARM.attributes
                0x0000192d       0x2e d:/elektronik/ides/chibistudio/tools/gnu tools arm embedded/4.6 2012q2/bin/../lib/gcc/arm-none-eabi/4.6.2/../../../../arm-none-eabi/lib/armv7e-m\libg.a(lib_a-strlen.o)
 .ARM.attributes
                0x0000195b       0x2e d:/elektronik/ides/chibistudio/tools/gnu tools arm embedded/4.6 2012q2/bin/../lib/gcc/arm-none-eabi/4.6.2/../../../../arm-none-eabi/lib/armv7e-m\libg.a(lib_a-strncpy.o)
 .ARM.attributes
                0x00001989       0x2e d:/elektronik/ides/chibistudio/tools/gnu tools arm embedded/4.6 2012q2/bin/../lib/gcc/arm-none-eabi/4.6.2/../../../../arm-none-eabi/lib/armv7e-m\libg.a(lib_a-strtoul.o)
 .ARM.attributes
                0x000019b7       0x2e d:/elektronik/ides/chibistudio/tools/gnu tools arm embedded/4.6 2012q2/bin/../lib/gcc/arm-none-eabi/4.6.2/../../../../arm-none-eabi/lib/armv7e-m\libg.a(lib_a-svfprintf.o)
 .ARM.attributes
                0x000019e5       0x2e d:/elektronik/ides/chibistudio/tools/gnu tools arm embedded/4.6 2012q2/bin/../lib/gcc/arm-none-eabi/4.6.2/../../../../arm-none-eabi/lib/armv7e-m\libg.a(lib_a-timelocal.o)
 .ARM.attributes
                0x00001a13       0x2e d:/elektronik/ides/chibistudio/tools/gnu tools arm embedded/4.6 2012q2/bin/../lib/gcc/arm-none-eabi/4.6.2/../../../../arm-none-eabi/lib/armv7e-m\libg.a(lib_a-toupper.o)
 .ARM.attributes
                0x00001a41       0x2e d:/elektronik/ides/chibistudio/tools/gnu tools arm embedded/4.6 2012q2/bin/../lib/gcc/arm-none-eabi/4.6.2/../../../../arm-none-eabi/lib/armv7e-m\libg.a(lib_a-tzlock.o)
 .ARM.attributes
                0x00001a6f       0x2e d:/elektronik/ides/chibistudio/tools/gnu tools arm embedded/4.6 2012q2/bin/../lib/gcc/arm-none-eabi/4.6.2/../../../../arm-none-eabi/lib/armv7e-m\libg.a(lib_a-tzvars.o)
 .ARM.attributes
                0x00001a9d       0x2e d:/elektronik/ides/chibistudio/tools/gnu tools arm embedded/4.6 2012q2/bin/../lib/gcc/arm-none-eabi/4.6.2/../../../../arm-none-eabi/lib/armv7e-m\libg.a(lib_a-vfiprintf.o)
 .ARM.attributes
                0x00001acb       0x2e d:/elektronik/ides/chibistudio/tools/gnu tools arm embedded/4.6 2012q2/bin/../lib/gcc/arm-none-eabi/4.6.2/../../../../arm-none-eabi/lib/armv7e-m\libg.a(lib_a-wsetup.o)
 .ARM.attributes
                0x00001af9       0x2e d:/elektronik/ides/chibistudio/tools/gnu tools arm embedded/4.6 2012q2/bin/../lib/gcc/arm-none-eabi/4.6.2/../../../../arm-none-eabi/lib/armv7e-m\libg.a(lib_a-__atexit.o)
 .ARM.attributes
                0x00001b27       0x2e d:/elektronik/ides/chibistudio/tools/gnu tools arm embedded/4.6 2012q2/bin/../lib/gcc/arm-none-eabi/4.6.2/../../../../arm-none-eabi/lib/armv7e-m\libg.a(lib_a-__call_atexit.o)
 .ARM.attributes
                0x00001b55       0x2e d:/elektronik/ides/chibistudio/tools/gnu tools arm embedded/4.6 2012q2/bin/../lib/gcc/arm-none-eabi/4.6.2/../../../../arm-none-eabi/lib/armv7e-m\libg.a(lib_a-abort.o)
 .ARM.attributes
                0x00001b83       0x2e d:/elektronik/ides/chibistudio/tools/gnu tools arm embedded/4.6 2012q2/bin/../lib/gcc/arm-none-eabi/4.6.2/../../../../arm-none-eabi/lib/armv7e-m\libg.a(lib_a-abs.o)
 .ARM.attributes
                0x00001bb1       0x2e d:/elektronik/ides/chibistudio/tools/gnu tools arm embedded/4.6 2012q2/bin/../lib/gcc/arm-none-eabi/4.6.2/../../../../arm-none-eabi/lib/armv7e-m\libg.a(lib_a-ctype_.o)
 .ARM.attributes
                0x00001bdf       0x2e d:/elektronik/ides/chibistudio/tools/gnu tools arm embedded/4.6 2012q2/bin/../lib/gcc/arm-none-eabi/4.6.2/../../../../arm-none-eabi/lib/armv7e-m\libg.a(lib_a-div.o)
 .ARM.attributes
                0x00001c0d       0x2e d:/elektronik/ides/chibistudio/tools/gnu tools arm embedded/4.6 2012q2/bin/../lib/gcc/arm-none-eabi/4.6.2/../../../../arm-none-eabi/lib/armv7e-m\libg.a(lib_a-dtoa.o)
 .ARM.attributes
                0x00001c3b       0x2e d:/elektronik/ides/chibistudio/tools/gnu tools arm embedded/4.6 2012q2/bin/../lib/gcc/arm-none-eabi/4.6.2/../../../../arm-none-eabi/lib/armv7e-m\libg.a(lib_a-fflush.o)
 .ARM.attributes
                0x00001c69       0x2e d:/elektronik/ides/chibistudio/tools/gnu tools arm embedded/4.6 2012q2/bin/../lib/gcc/arm-none-eabi/4.6.2/../../../../arm-none-eabi/lib/armv7e-m\libg.a(lib_a-findfp.o)
 .ARM.attributes
                0x00001c97       0x2e d:/elektronik/ides/chibistudio/tools/gnu tools arm embedded/4.6 2012q2/bin/../lib/gcc/arm-none-eabi/4.6.2/../../../../arm-none-eabi/lib/armv7e-m\libg.a(lib_a-fputwc.o)
 .ARM.attributes
                0x00001cc5       0x2e d:/elektronik/ides/chibistudio/tools/gnu tools arm embedded/4.6 2012q2/bin/../lib/gcc/arm-none-eabi/4.6.2/../../../../arm-none-eabi/lib/armv7e-m\libg.a(lib_a-freer.o)
 .ARM.attributes
                0x00001cf3       0x2e d:/elektronik/ides/chibistudio/tools/gnu tools arm embedded/4.6 2012q2/bin/../lib/gcc/arm-none-eabi/4.6.2/../../../../arm-none-eabi/lib/armv7e-m\libg.a(lib_a-fvwrite.o)
 .ARM.attributes
                0x00001d21       0x2e d:/elektronik/ides/chibistudio/tools/gnu tools arm embedded/4.6 2012q2/bin/../lib/gcc/arm-none-eabi/4.6.2/../../../../arm-none-eabi/lib/armv7e-m\libg.a(lib_a-fwalk.o)
 .ARM.attributes
                0x00001d4f       0x2e d:/elektronik/ides/chibistudio/tools/gnu tools arm embedded/4.6 2012q2/bin/../lib/gcc/arm-none-eabi/4.6.2/../../../../arm-none-eabi/lib/armv7e-m\libg.a(lib_a-gettzinfo.o)
 .ARM.attributes
                0x00001d7d       0x2e d:/elektronik/ides/chibistudio/tools/gnu tools arm embedded/4.6 2012q2/bin/../lib/gcc/arm-none-eabi/4.6.2/../../../../arm-none-eabi/lib/armv7e-m\libg.a(lib_a-labs.o)
 .ARM.attributes
                0x00001dab       0x2e d:/elektronik/ides/chibistudio/tools/gnu tools arm embedded/4.6 2012q2/bin/../lib/gcc/arm-none-eabi/4.6.2/../../../../arm-none-eabi/lib/armv7e-m\libg.a(lib_a-ldpart.o)
 .ARM.attributes
                0x00001dd9       0x2e d:/elektronik/ides/chibistudio/tools/gnu tools arm embedded/4.6 2012q2/bin/../lib/gcc/arm-none-eabi/4.6.2/../../../../arm-none-eabi/lib/armv7e-m\libg.a(lib_a-locale.o)
 .ARM.attributes
                0x00001e07       0x2e d:/elektronik/ides/chibistudio/tools/gnu tools arm embedded/4.6 2012q2/bin/../lib/gcc/arm-none-eabi/4.6.2/../../../../arm-none-eabi/lib/armv7e-m\libg.a(lib_a-makebuf.o)
 .ARM.attributes
                0x00001e35       0x2e d:/elektronik/ides/chibistudio/tools/gnu tools arm embedded/4.6 2012q2/bin/../lib/gcc/arm-none-eabi/4.6.2/../../../../arm-none-eabi/lib/armv7e-m\libg.a(lib_a-memchr.o)
 .ARM.attributes
                0x00001e63       0x2e d:/elektronik/ides/chibistudio/tools/gnu tools arm embedded/4.6 2012q2/bin/../lib/gcc/arm-none-eabi/4.6.2/../../../../arm-none-eabi/lib/armv7e-m\libg.a(lib_a-mprec.o)
 .ARM.attributes
                0x00001e91       0x2e d:/elektronik/ides/chibistudio/tools/gnu tools arm embedded/4.6 2012q2/bin/../lib/gcc/arm-none-eabi/4.6.2/../../../../arm-none-eabi/lib/armv7e-m\libg.a(lib_a-realloc.o)
 .ARM.attributes
                0x00001ebf       0x2e d:/elektronik/ides/chibistudio/tools/gnu tools arm embedded/4.6 2012q2/bin/../lib/gcc/arm-none-eabi/4.6.2/../../../../arm-none-eabi/lib/armv7e-m\libg.a(lib_a-reallocr.o)
 .ARM.attributes
                0x00001eed       0x2e d:/elektronik/ides/chibistudio/tools/gnu tools arm embedded/4.6 2012q2/bin/../lib/gcc/arm-none-eabi/4.6.2/../../../../arm-none-eabi/lib/armv7e-m\libg.a(lib_a-reent.o)
 .ARM.attributes
                0x00001f1b       0x2e d:/elektronik/ides/chibistudio/tools/gnu tools arm embedded/4.6 2012q2/bin/../lib/gcc/arm-none-eabi/4.6.2/../../../../arm-none-eabi/lib/armv7e-m\libg.a(lib_a-s_fpclassify.o)
 .ARM.attributes
                0x00001f49       0x2e d:/elektronik/ides/chibistudio/tools/gnu tools arm embedded/4.6 2012q2/bin/../lib/gcc/arm-none-eabi/4.6.2/../../../../arm-none-eabi/lib/armv7e-m\libg.a(lib_a-signal.o)
 .ARM.attributes
                0x00001f77       0x2e d:/elektronik/ides/chibistudio/tools/gnu tools arm embedded/4.6 2012q2/bin/../lib/gcc/arm-none-eabi/4.6.2/../../../../arm-none-eabi/lib/armv7e-m\libg.a(lib_a-snprintf.o)
 .ARM.attributes
                0x00001fa5       0x2e d:/elektronik/ides/chibistudio/tools/gnu tools arm embedded/4.6 2012q2/bin/../lib/gcc/arm-none-eabi/4.6.2/../../../../arm-none-eabi/lib/armv7e-m\libg.a(lib_a-stdio.o)
 .ARM.attributes
                0x00001fd3       0x2e d:/elektronik/ides/chibistudio/tools/gnu tools arm embedded/4.6 2012q2/bin/../lib/gcc/arm-none-eabi/4.6.2/../../../../arm-none-eabi/lib/armv7e-m\libg.a(lib_a-strchr.o)
 .ARM.attributes
                0x00002001       0x2e d:/elektronik/ides/chibistudio/tools/gnu tools arm embedded/4.6 2012q2/bin/../lib/gcc/arm-none-eabi/4.6.2/../../../../arm-none-eabi/lib/armv7e-m\libg.a(lib_a-strcmp.o)
 .ARM.attributes
                0x0000202f       0x2e d:/elektronik/ides/chibistudio/tools/gnu tools arm embedded/4.6 2012q2/bin/../lib/gcc/arm-none-eabi/4.6.2/../../../../arm-none-eabi/lib/armv7e-m\libg.a(lib_a-svfiprintf.o)
 .ARM.attributes
                0x0000205d       0x2e d:/elektronik/ides/chibistudio/tools/gnu tools arm embedded/4.6 2012q2/bin/../lib/gcc/arm-none-eabi/4.6.2/../../../../arm-none-eabi/lib/armv7e-m\libg.a(lib_a-sysclose.o)
 .ARM.attributes
                0x0000208b       0x2e d:/elektronik/ides/chibistudio/tools/gnu tools arm embedded/4.6 2012q2/bin/../lib/gcc/arm-none-eabi/4.6.2/../../../../arm-none-eabi/lib/armv7e-m\libg.a(lib_a-sysfstat.o)
 .ARM.attributes
                0x000020b9       0x2e d:/elektronik/ides/chibistudio/tools/gnu tools arm embedded/4.6 2012q2/bin/../lib/gcc/arm-none-eabi/4.6.2/../../../../arm-none-eabi/lib/armv7e-m\libg.a(lib_a-sysopen.o)
 .ARM.attributes
                0x000020e7       0x2e d:/elektronik/ides/chibistudio/tools/gnu tools arm embedded/4.6 2012q2/bin/../lib/gcc/arm-none-eabi/4.6.2/../../../../arm-none-eabi/lib/armv7e-m\libg.a(lib_a-sysread.o)
 .ARM.attributes
                0x00002115       0x2e d:/elektronik/ides/chibistudio/tools/gnu tools arm embedded/4.6 2012q2/bin/../lib/gcc/arm-none-eabi/4.6.2/../../../../arm-none-eabi/lib/armv7e-m\libg.a(lib_a-wbuf.o)
 .ARM.attributes
                0x00002143       0x2e d:/elektronik/ides/chibistudio/tools/gnu tools arm embedded/4.6 2012q2/bin/../lib/gcc/arm-none-eabi/4.6.2/../../../../arm-none-eabi/lib/armv7e-m\libg.a(lib_a-wcrtomb.o)
 .ARM.attributes
                0x00002171       0x2e d:/elektronik/ides/chibistudio/tools/gnu tools arm embedded/4.6 2012q2/bin/../lib/gcc/arm-none-eabi/4.6.2/../../../../arm-none-eabi/lib/armv7e-m\libg.a(lib_a-wctomb_r.o)
 .ARM.attributes
                0x0000219f       0x2e d:/elektronik/ides/chibistudio/tools/gnu tools arm embedded/4.6 2012q2/bin/../lib/gcc/arm-none-eabi/4.6.2/../../../../arm-none-eabi/lib/armv7e-m\libg.a(lib_a-callocr.o)
 .ARM.attributes
                0x000021cd       0x2e d:/elektronik/ides/chibistudio/tools/gnu tools arm embedded/4.6 2012q2/bin/../lib/gcc/arm-none-eabi/4.6.2/../../../../arm-none-eabi/lib/armv7e-m\libg.a(lib_a-fclose.o)
 .ARM.attributes
                0x000021fb       0x2e d:/elektronik/ides/chibistudio/tools/gnu tools arm embedded/4.6 2012q2/bin/../lib/gcc/arm-none-eabi/4.6.2/../../../../arm-none-eabi/lib/armv7e-m\libg.a(lib_a-openr.o)
 .ARM.attributes
                0x00002229       0x1e d:/elektronik/ides/chibistudio/tools/gnu tools arm embedded/4.6 2012q2/bin/../lib/gcc/arm-none-eabi/4.6.2/armv7e-m\libgcc.a(_arm_addsubdf3.o)
 .ARM.attributes
                0x00002247       0x1e d:/elektronik/ides/chibistudio/tools/gnu tools arm embedded/4.6 2012q2/bin/../lib/gcc/arm-none-eabi/4.6.2/armv7e-m\libgcc.a(_arm_muldivdf3.o)
 .ARM.attributes
                0x00002265       0x1e d:/elektronik/ides/chibistudio/tools/gnu tools arm embedded/4.6 2012q2/bin/../lib/gcc/arm-none-eabi/4.6.2/armv7e-m\libgcc.a(_arm_cmpdf2.o)
 .ARM.attributes
                0x00002283       0x1e d:/elektronik/ides/chibistudio/tools/gnu tools arm embedded/4.6 2012q2/bin/../lib/gcc/arm-none-eabi/4.6.2/armv7e-m\libgcc.a(_arm_fixdfsi.o)
 .ARM.attributes
                0x000022a1       0x1e d:/elektronik/ides/chibistudio/tools/gnu tools arm embedded/4.6 2012q2/bin/../lib/gcc/arm-none-eabi/4.6.2/armv7e-m\libgcc.a(_aeabi_uldivmod.o)
 .ARM.attributes
                0x000022bf       0x2e d:/elektronik/ides/chibistudio/tools/gnu tools arm embedded/4.6 2012q2/bin/../lib/gcc/arm-none-eabi/4.6.2/armv7e-m\libgcc.a(bpabi.o)
 .ARM.attributes
                0x000022ed       0x2e d:/elektronik/ides/chibistudio/tools/gnu tools arm embedded/4.6 2012q2/bin/../lib/gcc/arm-none-eabi/4.6.2/armv7e-m\libgcc.a(unwind-arm.o)
 .ARM.attributes
                0x0000231b       0x1e d:/elektronik/ides/chibistudio/tools/gnu tools arm embedded/4.6 2012q2/bin/../lib/gcc/arm-none-eabi/4.6.2/armv7e-m\libgcc.a(libunwind.o)
 .ARM.attributes
                0x00002339       0x2e d:/elektronik/ides/chibistudio/tools/gnu tools arm embedded/4.6 2012q2/bin/../lib/gcc/arm-none-eabi/4.6.2/armv7e-m\libgcc.a(pr-support.o)
 .ARM.attributes
                0x00002367       0x1e d:/elektronik/ides/chibistudio/tools/gnu tools arm embedded/4.6 2012q2/bin/../lib/gcc/arm-none-eabi/4.6.2/armv7e-m\libgcc.a(_dvmd_tls.o)
 .ARM.attributes
                0x00002385       0x2e d:/elektronik/ides/chibistudio/tools/gnu tools arm embedded/4.6 2012q2/bin/../lib/gcc/arm-none-eabi/4.6.2/armv7e-m\libgcc.a(_divdi3.o)
 .ARM.attributes
                0x000023b3       0x2e d:/elektronik/ides/chibistudio/tools/gnu tools arm embedded/4.6 2012q2/bin/../lib/gcc/arm-none-eabi/4.6.2/armv7e-m\libgcc.a(_udivdi3.o)
 .ARM.attributes
                0x000023e1       0x2e d:/elektronik/ides/chibistudio/tools/gnu tools arm embedded/4.6 2012q2/bin/../lib/gcc/arm-none-eabi/4.6.2/armv7e-m/crtend.o
 .ARM.attributes
                0x0000240f       0x1e d:/elektronik/ides/chibistudio/tools/gnu tools arm embedded/4.6 2012q2/bin/../lib/gcc/arm-none-eabi/4.6.2/armv7e-m/crtn.o
OUTPUT(ThunderCryer.elf elf32-littlearm)

.debug_info     0x00000000    0x3a325
 .debug_info    0x00000000     0x22eb ./STM32_USB_OTG_Driver/src/usb_core.o
 .debug_info    0x000022eb      0xdba ./STM32_USB_OTG_Driver/src/usb_hcd.o
 .debug_info    0x000030a5     0x1f57 ./STM32_USB_OTG_Driver/src/usb_hcd_int.o
 .debug_info    0x00004ffc     0x165a ./STM32_USB_HOST_Library/Core/src/usbh_core.o
 .debug_info    0x00006656      0xc38 ./STM32_USB_HOST_Library/Core/src/usbh_hcs.o
 .debug_info    0x0000728e     0x16c2 ./STM32_USB_HOST_Library/Core/src/usbh_ioreq.o
 .debug_info    0x00008950     0x18b7 ./STM32_USB_HOST_Library/Core/src/usbh_stdreq.o
 .debug_info    0x0000a207     0x1883 ./STM32_USB_HOST_Library/Class/MSC/src/usbh_msc_bot.o
 .debug_info    0x0000ba8a     0x17dc ./STM32_USB_HOST_Library/Class/MSC/src/usbh_msc_core.o
 .debug_info    0x0000d266     0x167a ./STM32_USB_HOST_Library/Class/MSC/src/usbh_msc_fatfs.o
 .debug_info    0x0000e8e0      0xff8 ./STM32_USB_HOST_Library/Class/MSC/src/usbh_msc_scsi.o
 .debug_info    0x0000f8d8      0x598 ./STM32F4xx_StdPeriph_Driver/src/misc.o
 .debug_info    0x0000fe70      0xcf9 ./STM32F4xx_StdPeriph_Driver/src/stm32f4xx_adc.o
 .debug_info    0x00010b69      0x687 ./STM32F4xx_StdPeriph_Driver/src/stm32f4xx_dac.o
 .debug_info    0x000111f0      0x1f3 ./STM32F4xx_StdPeriph_Driver/src/stm32f4xx_dbgmcu.o
 .debug_info    0x000113e3      0x7a7 ./STM32F4xx_StdPeriph_Driver/src/stm32f4xx_dma.o
 .debug_info    0x00011b8a      0x376 ./STM32F4xx_StdPeriph_Driver/src/stm32f4xx_exti.o
 .debug_info    0x00011f00      0x779 ./STM32F4xx_StdPeriph_Driver/src/stm32f4xx_flash.o
 .debug_info    0x00012679      0x9a9 ./STM32F4xx_StdPeriph_Driver/src/stm32f4xx_fsmc.o
 .debug_info    0x00013022      0x63d ./STM32F4xx_StdPeriph_Driver/src/stm32f4xx_gpio.o
 .debug_info    0x0001365f      0xb95 ./STM32F4xx_StdPeriph_Driver/src/stm32f4xx_i2c.o
 .debug_info    0x000141f4      0x20f ./STM32F4xx_StdPeriph_Driver/src/stm32f4xx_iwdg.o
 .debug_info    0x00014403      0x542 ./STM32F4xx_StdPeriph_Driver/src/stm32f4xx_pwr.o
 .debug_info    0x00014945      0xd28 ./STM32F4xx_StdPeriph_Driver/src/stm32f4xx_rcc.o
 .debug_info    0x0001566d      0x295 ./STM32F4xx_StdPeriph_Driver/src/stm32f4xx_rng.o
 .debug_info    0x00015902     0x1227 ./STM32F4xx_StdPeriph_Driver/src/stm32f4xx_rtc.o
 .debug_info    0x00016b29      0x8a8 ./STM32F4xx_StdPeriph_Driver/src/stm32f4xx_sdio.o
 .debug_info    0x000173d1      0xbd0 ./STM32F4xx_StdPeriph_Driver/src/stm32f4xx_spi.o
 .debug_info    0x00017fa1      0x27e ./STM32F4xx_StdPeriph_Driver/src/stm32f4xx_syscfg.o
 .debug_info    0x0001821f     0x1e2c ./STM32F4xx_StdPeriph_Driver/src/stm32f4xx_tim.o
 .debug_info    0x0001a04b      0xa53 ./STM32F4xx_StdPeriph_Driver/src/stm32f4xx_usart.o
 .debug_info    0x0001aa9e      0x25a ./STM32F4xx_StdPeriph_Driver/src/stm32f4xx_wwdg.o
 .debug_info    0x0001acf8      0x969 ./STM32F4-Discovery/stm32f4_discovery.o
 .debug_info    0x0001b661     0x145a ./STM32F4-Discovery/stm32f4_discovery_audio_codec.o
 .debug_info    0x0001cabb      0x85e ./STM32F4-Discovery/stm32f4_discovery_lis302dl.o
 .debug_info    0x0001d319     0x12ca ./Menue/CMenue.o
 .debug_info    0x0001e5e3      0x8ed ./HelixMP3/real/bitstream.o
 .debug_info    0x0001eed0      0x93e ./HelixMP3/real/buffers.o
 .debug_info    0x0001f80e      0x2ae ./HelixMP3/real/dct32.o
 .debug_info    0x0001fabc      0x7dd ./HelixMP3/real/dequant.o
 .debug_info    0x00020299      0x764 ./HelixMP3/real/dqchan.o
 .debug_info    0x000209fd      0xa87 ./HelixMP3/real/huffman.o
 .debug_info    0x00021484      0x1aa ./HelixMP3/real/hufftabs.o
 .debug_info    0x0002162e     0x131c ./HelixMP3/real/imdct.o
 .debug_info    0x0002294a      0x34b ./HelixMP3/real/polyphase.o
 .debug_info    0x00022c95      0x90e ./HelixMP3/real/scalfact.o
 .debug_info    0x000235a3      0x84b ./HelixMP3/real/stproc.o
 .debug_info    0x00023dee      0x39b ./HelixMP3/real/subband.o
 .debug_info    0x00024189      0x1ab ./HelixMP3/real/trigtabs.o
 .debug_info    0x00024334      0x66a ./HelixMP3/mp3dec.o
 .debug_info    0x0002499e      0x1bb ./HelixMP3/mp3tabs.o
 .debug_info    0x00024b59      0x554 ./GraphicLCD/CGraphicLCD.o
 .debug_info    0x000250ad      0xf6f ./GraphicLCD/CT6963CDriver.o
 .debug_info    0x0002601c      0x6e4 ./GraphicLCD/CT6963GPIOInterface.o
 .debug_info    0x00026700      0x16e ./GraphicLCD/SansSerif12.o
 .debug_info    0x0002686e      0x16e ./GraphicLCD/SansSerif26.o
 .debug_info    0x000269dc      0x7b8 ./FreeRTOS_EC/Source/AManagedTask.o
 .debug_info    0x00027194      0x5a7 ./FreeRTOS_EC/Source/ASyncObject.o
 .debug_info    0x0002773b       0x8e ./FreeRTOS_EC/Source/ATimer.o
 .debug_info    0x000277c9      0x630 ./FreeRTOS_EC/Source/CBinarySemaphore.o
 .debug_info    0x00027df9      0x63e ./FreeRTOS_EC/Source/CCountingSemaphore.o
 .debug_info    0x00028437      0x1d2 ./FreeRTOS_EC/Source/CFreeRTOS.o
 .debug_info    0x00028609      0xc9c ./FreeRTOS_EC/Source/CMessageTask.o
 .debug_info    0x000292a5      0x605 ./FreeRTOS_EC/Source/CMutex.o
 .debug_info    0x000298aa      0x834 ./FreeRTOS_EC/Source/CQueue.o
 .debug_info    0x0002a0de      0x588 ./FreeRTOS_EC/Source/CRecursiveMutex.o
 .debug_info    0x0002a666      0xa30 ./FreeRTOS_EC/Source/CTask.o
 .debug_info    0x0002b096      0x249 ./FreeRTOS/Source/portable/GCC/ARM_CM4F/port.o
 .debug_info    0x0002b2df      0x4fb ./FreeRTOS/Source/croutine.o
 .debug_info    0x0002b7da      0x2da ./FreeRTOS/Source/list.o
 .debug_info    0x0002bab4      0x78f ./FreeRTOS/Source/queue.o
 .debug_info    0x0002c243     0x10f3 ./FreeRTOS/Source/tasks.o
 .debug_info    0x0002d336       0x9c ./FreeRTOS/Source/timers.o
 .debug_info    0x0002d3d2     0x1139 ./Clock/CRTCHandler.o
 .debug_info    0x0002e50b      0x988 ./Clock/CRTCTime.o
 .debug_info    0x0002ee93      0x4a0 ./Clock/CRTCTime_test.o
 .debug_info    0x0002f333      0xd4f ./Clock/CTime.o
 .debug_info    0x00030082      0x53f ./Clock/CTime_test.o
 .debug_info    0x000305c1     0x191d ./Audio_MP3/USB_MSC/CUSBMassStorage.o
 .debug_info    0x00031ede     0x105b ./Audio_MP3/USB_MSC/usb_bsp.o
 .debug_info    0x00032f39      0x870 ./Audio_MP3/USB_MSC/usbh_usr.o
 .debug_info    0x000337a9       0xa3 ./Audio_MP3/FatFs/src/option/syscall.o
 .debug_info    0x0003384c     0x1929 ./Audio_MP3/FatFs/src/ff.o
 .debug_info    0x00035175     0x185d ./Audio_MP3/CFileHandler.o
 .debug_info    0x000369d2       0x86 ./Audio_MP3/fattime.o
 .debug_info    0x00036a58      0x661 ./CLedHeartBeatSTM32F4Disc.o
 .debug_info    0x000370b9      0x578 ./LibraryHacks.o
 .debug_info    0x00037631      0x6ff ./main.o
 .debug_info    0x00037d30       0x74 ./startup_stm32f4xx.o
 .debug_info    0x00037da4      0xb8a ./stm32f4xx_it.o
 .debug_info    0x0003892e      0xdca ./syscalls.o
 .debug_info    0x000396f8      0x621 ./system_stm32f4xx.o
 .debug_info    0x00039d19      0x60c ./ustime.o

.debug_abbrev   0x00000000     0x990d
 .debug_abbrev  0x00000000      0x258 ./STM32_USB_OTG_Driver/src/usb_core.o
 .debug_abbrev  0x00000258      0x193 ./STM32_USB_OTG_Driver/src/usb_hcd.o
 .debug_abbrev  0x000003eb      0x226 ./STM32_USB_OTG_Driver/src/usb_hcd_int.o
 .debug_abbrev  0x00000611      0x246 ./STM32_USB_HOST_Library/Core/src/usbh_core.o
 .debug_abbrev  0x00000857      0x17b ./STM32_USB_HOST_Library/Core/src/usbh_hcs.o
 .debug_abbrev  0x000009d2      0x1e7 ./STM32_USB_HOST_Library/Core/src/usbh_ioreq.o
 .debug_abbrev  0x00000bb9      0x236 ./STM32_USB_HOST_Library/Core/src/usbh_stdreq.o
 .debug_abbrev  0x00000def      0x20c ./STM32_USB_HOST_Library/Class/MSC/src/usbh_msc_bot.o
 .debug_abbrev  0x00000ffb      0x229 ./STM32_USB_HOST_Library/Class/MSC/src/usbh_msc_core.o
 .debug_abbrev  0x00001224      0x1de ./STM32_USB_HOST_Library/Class/MSC/src/usbh_msc_fatfs.o
 .debug_abbrev  0x00001402      0x1c4 ./STM32_USB_HOST_Library/Class/MSC/src/usbh_msc_scsi.o
 .debug_abbrev  0x000015c6      0x128 ./STM32F4xx_StdPeriph_Driver/src/misc.o
 .debug_abbrev  0x000016ee      0x18b ./STM32F4xx_StdPeriph_Driver/src/stm32f4xx_adc.o
 .debug_abbrev  0x00001879      0x174 ./STM32F4xx_StdPeriph_Driver/src/stm32f4xx_dac.o
 .debug_abbrev  0x000019ed       0xdc ./STM32F4xx_StdPeriph_Driver/src/stm32f4xx_dbgmcu.o
 .debug_abbrev  0x00001ac9      0x150 ./STM32F4xx_StdPeriph_Driver/src/stm32f4xx_dma.o
 .debug_abbrev  0x00001c19      0x19a ./STM32F4xx_StdPeriph_Driver/src/stm32f4xx_exti.o
 .debug_abbrev  0x00001db3      0x16a ./STM32F4xx_StdPeriph_Driver/src/stm32f4xx_flash.o
 .debug_abbrev  0x00001f1d      0x168 ./STM32F4xx_StdPeriph_Driver/src/stm32f4xx_fsmc.o
 .debug_abbrev  0x00002085      0x184 ./STM32F4xx_StdPeriph_Driver/src/stm32f4xx_gpio.o
 .debug_abbrev  0x00002209      0x15f ./STM32F4xx_StdPeriph_Driver/src/stm32f4xx_i2c.o
 .debug_abbrev  0x00002368       0xfc ./STM32F4xx_StdPeriph_Driver/src/stm32f4xx_iwdg.o
 .debug_abbrev  0x00002464      0x177 ./STM32F4xx_StdPeriph_Driver/src/stm32f4xx_pwr.o
 .debug_abbrev  0x000025db      0x1b9 ./STM32F4xx_StdPeriph_Driver/src/stm32f4xx_rcc.o
 .debug_abbrev  0x00002794      0x139 ./STM32F4xx_StdPeriph_Driver/src/stm32f4xx_rng.o
 .debug_abbrev  0x000028cd      0x16d ./STM32F4xx_StdPeriph_Driver/src/stm32f4xx_rtc.o
 .debug_abbrev  0x00002a3a      0x16f ./STM32F4xx_StdPeriph_Driver/src/stm32f4xx_sdio.o
 .debug_abbrev  0x00002ba9      0x162 ./STM32F4xx_StdPeriph_Driver/src/stm32f4xx_spi.o
 .debug_abbrev  0x00002d0b      0x12c ./STM32F4xx_StdPeriph_Driver/src/stm32f4xx_syscfg.o
 .debug_abbrev  0x00002e37      0x165 ./STM32F4xx_StdPeriph_Driver/src/stm32f4xx_tim.o
 .debug_abbrev  0x00002f9c      0x150 ./STM32F4xx_StdPeriph_Driver/src/stm32f4xx_usart.o
 .debug_abbrev  0x000030ec      0x120 ./STM32F4xx_StdPeriph_Driver/src/stm32f4xx_wwdg.o
 .debug_abbrev  0x0000320c      0x178 ./STM32F4-Discovery/stm32f4_discovery.o
 .debug_abbrev  0x00003384      0x212 ./STM32F4-Discovery/stm32f4_discovery_audio_codec.o
 .debug_abbrev  0x00003596      0x1d9 ./STM32F4-Discovery/stm32f4_discovery_lis302dl.o
 .debug_abbrev  0x0000376f      0x3ba ./Menue/CMenue.o
 .debug_abbrev  0x00003b29      0x1a4 ./HelixMP3/real/bitstream.o
 .debug_abbrev  0x00003ccd      0x187 ./HelixMP3/real/buffers.o
 .debug_abbrev  0x00003e54       0xdb ./HelixMP3/real/dct32.o
 .debug_abbrev  0x00003f2f      0x136 ./HelixMP3/real/dequant.o
 .debug_abbrev  0x00004065      0x12e ./HelixMP3/real/dqchan.o
 .debug_abbrev  0x00004193      0x1a1 ./HelixMP3/real/huffman.o
 .debug_abbrev  0x00004334       0xb3 ./HelixMP3/real/hufftabs.o
 .debug_abbrev  0x000043e7      0x1e2 ./HelixMP3/real/imdct.o
 .debug_abbrev  0x000045c9      0x10d ./HelixMP3/real/polyphase.o
 .debug_abbrev  0x000046d6      0x163 ./HelixMP3/real/scalfact.o
 .debug_abbrev  0x00004839      0x12f ./HelixMP3/real/stproc.o
 .debug_abbrev  0x00004968      0x103 ./HelixMP3/real/subband.o
 .debug_abbrev  0x00004a6b       0x70 ./HelixMP3/real/trigtabs.o
 .debug_abbrev  0x00004adb      0x19d ./HelixMP3/mp3dec.o
 .debug_abbrev  0x00004c78       0x81 ./HelixMP3/mp3tabs.o
 .debug_abbrev  0x00004cf9      0x1d4 ./GraphicLCD/CGraphicLCD.o
 .debug_abbrev  0x00004ecd      0x263 ./GraphicLCD/CT6963CDriver.o
 .debug_abbrev  0x00005130      0x258 ./GraphicLCD/CT6963GPIOInterface.o
 .debug_abbrev  0x00005388       0xa7 ./GraphicLCD/SansSerif12.o
 .debug_abbrev  0x0000542f       0xa7 ./GraphicLCD/SansSerif26.o
 .debug_abbrev  0x000054d6      0x31e ./FreeRTOS_EC/Source/AManagedTask.o
 .debug_abbrev  0x000057f4      0x242 ./FreeRTOS_EC/Source/ASyncObject.o
 .debug_abbrev  0x00005a36       0x51 ./FreeRTOS_EC/Source/ATimer.o
 .debug_abbrev  0x00005a87      0x247 ./FreeRTOS_EC/Source/CBinarySemaphore.o
 .debug_abbrev  0x00005cce      0x238 ./FreeRTOS_EC/Source/CCountingSemaphore.o
 .debug_abbrev  0x00005f06      0x102 ./FreeRTOS_EC/Source/CFreeRTOS.o
 .debug_abbrev  0x00006008      0x376 ./FreeRTOS_EC/Source/CMessageTask.o
 .debug_abbrev  0x0000637e      0x231 ./FreeRTOS_EC/Source/CMutex.o
 .debug_abbrev  0x000065af      0x277 ./FreeRTOS_EC/Source/CQueue.o
 .debug_abbrev  0x00006826      0x203 ./FreeRTOS_EC/Source/CRecursiveMutex.o
 .debug_abbrev  0x00006a29      0x334 ./FreeRTOS_EC/Source/CTask.o
 .debug_abbrev  0x00006d5d      0x14b ./FreeRTOS/Source/portable/GCC/ARM_CM4F/port.o
 .debug_abbrev  0x00006ea8      0x199 ./FreeRTOS/Source/croutine.o
 .debug_abbrev  0x00007041       0xb4 ./FreeRTOS/Source/list.o
 .debug_abbrev  0x000070f5      0x13c ./FreeRTOS/Source/queue.o
 .debug_abbrev  0x00007231      0x19e ./FreeRTOS/Source/tasks.o
 .debug_abbrev  0x000073cf       0x51 ./FreeRTOS/Source/timers.o
 .debug_abbrev  0x00007420      0x3c4 ./Clock/CRTCHandler.o
 .debug_abbrev  0x000077e4      0x28f ./Clock/CRTCTime.o
 .debug_abbrev  0x00007a73       0xc2 ./Clock/CRTCTime_test.o
 .debug_abbrev  0x00007b35      0x2a3 ./Clock/CTime.o
 .debug_abbrev  0x00007dd8      0x109 ./Clock/CTime_test.o
 .debug_abbrev  0x00007ee1      0x36a ./Audio_MP3/USB_MSC/CUSBMassStorage.o
 .debug_abbrev  0x0000824b      0x1f1 ./Audio_MP3/USB_MSC/usb_bsp.o
 .debug_abbrev  0x0000843c      0x1bd ./Audio_MP3/USB_MSC/usbh_usr.o
 .debug_abbrev  0x000085f9       0x51 ./Audio_MP3/FatFs/src/option/syscall.o
 .debug_abbrev  0x0000864a      0x1e8 ./Audio_MP3/FatFs/src/ff.o
 .debug_abbrev  0x00008832      0x4aa ./Audio_MP3/CFileHandler.o
 .debug_abbrev  0x00008cdc       0x50 ./Audio_MP3/fattime.o
 .debug_abbrev  0x00008d2c      0x2af ./CLedHeartBeatSTM32F4Disc.o
 .debug_abbrev  0x00008fdb      0x1c7 ./LibraryHacks.o
 .debug_abbrev  0x000091a2      0x1c7 ./main.o
 .debug_abbrev  0x00009369       0x12 ./startup_stm32f4xx.o
 .debug_abbrev  0x0000937b      0x171 ./stm32f4xx_it.o
 .debug_abbrev  0x000094ec      0x1c4 ./syscalls.o
 .debug_abbrev  0x000096b0      0x142 ./system_stm32f4xx.o
 .debug_abbrev  0x000097f2      0x11b ./ustime.o

.debug_loc      0x00000000     0xf5b0
 .debug_loc     0x00000000      0x658 ./STM32_USB_OTG_Driver/src/usb_core.o
 .debug_loc     0x00000658      0x230 ./STM32_USB_OTG_Driver/src/usb_hcd.o
 .debug_loc     0x00000888      0x26c ./STM32_USB_OTG_Driver/src/usb_hcd_int.o
 .debug_loc     0x00000af4      0x1c2 ./STM32_USB_HOST_Library/Core/src/usbh_core.o
 .debug_loc     0x00000cb6      0x150 ./STM32_USB_HOST_Library/Core/src/usbh_hcs.o
 .debug_loc     0x00000e06      0x1f8 ./STM32_USB_HOST_Library/Core/src/usbh_ioreq.o
 .debug_loc     0x00000ffe      0x2d8 ./STM32_USB_HOST_Library/Core/src/usbh_stdreq.o
 .debug_loc     0x000012d6       0xe0 ./STM32_USB_HOST_Library/Class/MSC/src/usbh_msc_bot.o
 .debug_loc     0x000013b6      0x188 ./STM32_USB_HOST_Library/Class/MSC/src/usbh_msc_core.o
 .debug_loc     0x0000153e      0x118 ./STM32_USB_HOST_Library/Class/MSC/src/usbh_msc_fatfs.o
 .debug_loc     0x00001656      0x150 ./STM32_USB_HOST_Library/Class/MSC/src/usbh_msc_scsi.o
 .debug_loc     0x000017a6      0x118 ./STM32F4xx_StdPeriph_Driver/src/misc.o
 .debug_loc     0x000018be      0x838 ./STM32F4xx_StdPeriph_Driver/src/stm32f4xx_adc.o
 .debug_loc     0x000020f6      0x3ac ./STM32F4xx_StdPeriph_Driver/src/stm32f4xx_dac.o
 .debug_loc     0x000024a2      0x100 ./STM32F4xx_StdPeriph_Driver/src/stm32f4xx_dbgmcu.o
 .debug_loc     0x000025a2      0x428 ./STM32F4xx_StdPeriph_Driver/src/stm32f4xx_dma.o
 .debug_loc     0x000029ca      0x1b4 ./STM32F4xx_StdPeriph_Driver/src/stm32f4xx_exti.o
 .debug_loc     0x00002b7e      0x624 ./STM32F4xx_StdPeriph_Driver/src/stm32f4xx_flash.o
 .debug_loc     0x000031a2      0x41c ./STM32F4xx_StdPeriph_Driver/src/stm32f4xx_fsmc.o
 .debug_loc     0x000035be      0x310 ./STM32F4xx_StdPeriph_Driver/src/stm32f4xx_gpio.o
 .debug_loc     0x000038ce      0x738 ./STM32F4xx_StdPeriph_Driver/src/stm32f4xx_i2c.o
 .debug_loc     0x00004006      0x138 ./STM32F4xx_StdPeriph_Driver/src/stm32f4xx_iwdg.o
 .debug_loc     0x0000413e      0x288 ./STM32F4xx_StdPeriph_Driver/src/stm32f4xx_pwr.o
 .debug_loc     0x000043c6      0x97c ./STM32F4xx_StdPeriph_Driver/src/stm32f4xx_rcc.o
 .debug_loc     0x00004d42      0x1a8 ./STM32F4xx_StdPeriph_Driver/src/stm32f4xx_rng.o
 .debug_loc     0x00004eea      0xc48 ./STM32F4xx_StdPeriph_Driver/src/stm32f4xx_rtc.o
 .debug_loc     0x00005b32      0x648 ./STM32F4xx_StdPeriph_Driver/src/stm32f4xx_sdio.o
 .debug_loc     0x0000617a      0x578 ./STM32F4xx_StdPeriph_Driver/src/stm32f4xx_spi.o
 .debug_loc     0x000066f2      0x144 ./STM32F4xx_StdPeriph_Driver/src/stm32f4xx_syscfg.o
 .debug_loc     0x00006836     0x1420 ./STM32F4xx_StdPeriph_Driver/src/stm32f4xx_tim.o
 .debug_loc     0x00007c56      0x658 ./STM32F4xx_StdPeriph_Driver/src/stm32f4xx_usart.o
 .debug_loc     0x000082ae      0x19c ./STM32F4xx_StdPeriph_Driver/src/stm32f4xx_wwdg.o
 .debug_loc     0x0000844a      0x150 ./STM32F4-Discovery/stm32f4_discovery.o
 .debug_loc     0x0000859a      0x75c ./STM32F4-Discovery/stm32f4_discovery_audio_codec.o
 .debug_loc     0x00008cf6      0x2cc ./STM32F4-Discovery/stm32f4_discovery_lis302dl.o
 .debug_loc     0x00008fc2      0x1c0 ./Menue/CMenue.o
 .debug_loc     0x00009182      0x18a ./HelixMP3/real/bitstream.o
 .debug_loc     0x0000930c       0xa8 ./HelixMP3/real/buffers.o
 .debug_loc     0x000093b4       0x72 ./HelixMP3/real/dct32.o
 .debug_loc     0x00009426       0x72 ./HelixMP3/real/dequant.o
 .debug_loc     0x00009498       0xe4 ./HelixMP3/real/dqchan.o
 .debug_loc     0x0000957c       0xae ./HelixMP3/real/huffman.o
 .debug_loc     0x0000962a      0x2ae ./HelixMP3/real/imdct.o
 .debug_loc     0x000098d8      0x11c ./HelixMP3/real/polyphase.o
 .debug_loc     0x000099f4       0xac ./HelixMP3/real/scalfact.o
 .debug_loc     0x00009aa0      0x11c ./HelixMP3/real/stproc.o
 .debug_loc     0x00009bbc       0x38 ./HelixMP3/real/subband.o
 .debug_loc     0x00009bf4      0x1c2 ./HelixMP3/mp3dec.o
 .debug_loc     0x00009db6      0x150 ./GraphicLCD/CGraphicLCD.o
 .debug_loc     0x00009f06      0x3f2 ./GraphicLCD/CT6963CDriver.o
 .debug_loc     0x0000a2f8      0x1f8 ./GraphicLCD/CT6963GPIOInterface.o
 .debug_loc     0x0000a4f0      0x350 ./FreeRTOS_EC/Source/AManagedTask.o
 .debug_loc     0x0000a840      0x1c0 ./FreeRTOS_EC/Source/ASyncObject.o
 .debug_loc     0x0000aa00      0x1f8 ./FreeRTOS_EC/Source/CBinarySemaphore.o
 .debug_loc     0x0000abf8      0x1f8 ./FreeRTOS_EC/Source/CCountingSemaphore.o
 .debug_loc     0x0000adf0       0x9c ./FreeRTOS_EC/Source/CFreeRTOS.o
 .debug_loc     0x0000ae8c      0x460 ./FreeRTOS_EC/Source/CMessageTask.o
 .debug_loc     0x0000b2ec      0x1f8 ./FreeRTOS_EC/Source/CMutex.o
 .debug_loc     0x0000b4e4      0x230 ./FreeRTOS_EC/Source/CQueue.o
 .debug_loc     0x0000b714      0x1f8 ./FreeRTOS_EC/Source/CRecursiveMutex.o
 .debug_loc     0x0000b90c      0x268 ./FreeRTOS_EC/Source/CTask.o
 .debug_loc     0x0000bb74      0x178 ./FreeRTOS/Source/portable/GCC/ARM_CM4F/port.o
 .debug_loc     0x0000bcec      0x188 ./FreeRTOS/Source/croutine.o
 .debug_loc     0x0000be74      0x118 ./FreeRTOS/Source/list.o
 .debug_loc     0x0000bf8c      0x380 ./FreeRTOS/Source/queue.o
 .debug_loc     0x0000c30c      0x8f6 ./FreeRTOS/Source/tasks.o
 .debug_loc     0x0000cc02      0x33c ./Clock/CRTCHandler.o
 .debug_loc     0x0000cf3e      0x1c0 ./Clock/CRTCTime.o
 .debug_loc     0x0000d0fe      0x498 ./Clock/CTime.o
 .debug_loc     0x0000d596       0x3a ./Clock/CTime_test.o
 .debug_loc     0x0000d5d0      0x1f8 ./Audio_MP3/USB_MSC/CUSBMassStorage.o
 .debug_loc     0x0000d7c8      0x1a8 ./Audio_MP3/USB_MSC/usb_bsp.o
 .debug_loc     0x0000d970      0x360 ./Audio_MP3/USB_MSC/usbh_usr.o
 .debug_loc     0x0000dcd0      0x97c ./Audio_MP3/FatFs/src/ff.o
 .debug_loc     0x0000e64c      0x4fc ./Audio_MP3/CFileHandler.o
 .debug_loc     0x0000eb48       0x2c ./Audio_MP3/fattime.o
 .debug_loc     0x0000eb74      0x1c0 ./CLedHeartBeatSTM32F4Disc.o
 .debug_loc     0x0000ed34      0x170 ./LibraryHacks.o
 .debug_loc     0x0000eea4      0x184 ./main.o
 .debug_loc     0x0000f028      0x1a4 ./stm32f4xx_it.o
 .debug_loc     0x0000f1cc      0x268 ./syscalls.o
 .debug_loc     0x0000f434       0x9c ./system_stm32f4xx.o
 .debug_loc     0x0000f4d0       0xe0 ./ustime.o

.debug_aranges  0x00000000      0xc78
 .debug_aranges
                0x00000000       0x20 ./STM32_USB_OTG_Driver/src/usb_core.o
 .debug_aranges
                0x00000020       0x20 ./STM32_USB_OTG_Driver/src/usb_hcd.o
 .debug_aranges
                0x00000040       0x20 ./STM32_USB_OTG_Driver/src/usb_hcd_int.o
 .debug_aranges
                0x00000060       0x20 ./STM32_USB_HOST_Library/Core/src/usbh_core.o
 .debug_aranges
                0x00000080       0x20 ./STM32_USB_HOST_Library/Core/src/usbh_hcs.o
 .debug_aranges
                0x000000a0       0x20 ./STM32_USB_HOST_Library/Core/src/usbh_ioreq.o
 .debug_aranges
                0x000000c0       0x20 ./STM32_USB_HOST_Library/Core/src/usbh_stdreq.o
 .debug_aranges
                0x000000e0       0x20 ./STM32_USB_HOST_Library/Class/MSC/src/usbh_msc_bot.o
 .debug_aranges
                0x00000100       0x20 ./STM32_USB_HOST_Library/Class/MSC/src/usbh_msc_core.o
 .debug_aranges
                0x00000120       0x20 ./STM32_USB_HOST_Library/Class/MSC/src/usbh_msc_fatfs.o
 .debug_aranges
                0x00000140       0x20 ./STM32_USB_HOST_Library/Class/MSC/src/usbh_msc_scsi.o
 .debug_aranges
                0x00000160       0x20 ./STM32F4xx_StdPeriph_Driver/src/misc.o
 .debug_aranges
                0x00000180       0x20 ./STM32F4xx_StdPeriph_Driver/src/stm32f4xx_adc.o
 .debug_aranges
                0x000001a0       0x20 ./STM32F4xx_StdPeriph_Driver/src/stm32f4xx_dac.o
 .debug_aranges
                0x000001c0       0x20 ./STM32F4xx_StdPeriph_Driver/src/stm32f4xx_dbgmcu.o
 .debug_aranges
                0x000001e0       0x20 ./STM32F4xx_StdPeriph_Driver/src/stm32f4xx_dma.o
 .debug_aranges
                0x00000200       0x20 ./STM32F4xx_StdPeriph_Driver/src/stm32f4xx_exti.o
 .debug_aranges
                0x00000220       0x20 ./STM32F4xx_StdPeriph_Driver/src/stm32f4xx_flash.o
 .debug_aranges
                0x00000240       0x20 ./STM32F4xx_StdPeriph_Driver/src/stm32f4xx_fsmc.o
 .debug_aranges
                0x00000260       0x20 ./STM32F4xx_StdPeriph_Driver/src/stm32f4xx_gpio.o
 .debug_aranges
                0x00000280       0x20 ./STM32F4xx_StdPeriph_Driver/src/stm32f4xx_i2c.o
 .debug_aranges
                0x000002a0       0x20 ./STM32F4xx_StdPeriph_Driver/src/stm32f4xx_iwdg.o
 .debug_aranges
                0x000002c0       0x20 ./STM32F4xx_StdPeriph_Driver/src/stm32f4xx_pwr.o
 .debug_aranges
                0x000002e0       0x20 ./STM32F4xx_StdPeriph_Driver/src/stm32f4xx_rcc.o
 .debug_aranges
                0x00000300       0x20 ./STM32F4xx_StdPeriph_Driver/src/stm32f4xx_rng.o
 .debug_aranges
                0x00000320       0x20 ./STM32F4xx_StdPeriph_Driver/src/stm32f4xx_rtc.o
 .debug_aranges
                0x00000340       0x20 ./STM32F4xx_StdPeriph_Driver/src/stm32f4xx_sdio.o
 .debug_aranges
                0x00000360       0x20 ./STM32F4xx_StdPeriph_Driver/src/stm32f4xx_spi.o
 .debug_aranges
                0x00000380       0x20 ./STM32F4xx_StdPeriph_Driver/src/stm32f4xx_syscfg.o
 .debug_aranges
                0x000003a0       0x20 ./STM32F4xx_StdPeriph_Driver/src/stm32f4xx_tim.o
 .debug_aranges
                0x000003c0       0x20 ./STM32F4xx_StdPeriph_Driver/src/stm32f4xx_usart.o
 .debug_aranges
                0x000003e0       0x20 ./STM32F4xx_StdPeriph_Driver/src/stm32f4xx_wwdg.o
 .debug_aranges
                0x00000400       0x20 ./STM32F4-Discovery/stm32f4_discovery.o
 .debug_aranges
                0x00000420       0x20 ./STM32F4-Discovery/stm32f4_discovery_audio_codec.o
 .debug_aranges
                0x00000440       0x20 ./STM32F4-Discovery/stm32f4_discovery_lis302dl.o
 .debug_aranges
                0x00000460       0x38 ./Menue/CMenue.o
 .debug_aranges
                0x00000498       0x20 ./HelixMP3/real/bitstream.o
 .debug_aranges
                0x000004b8       0x20 ./HelixMP3/real/buffers.o
 .debug_aranges
                0x000004d8       0x20 ./HelixMP3/real/dct32.o
 .debug_aranges
                0x000004f8       0x20 ./HelixMP3/real/dequant.o
 .debug_aranges
                0x00000518       0x20 ./HelixMP3/real/dqchan.o
 .debug_aranges
                0x00000538       0x20 ./HelixMP3/real/huffman.o
 .debug_aranges
                0x00000558       0x20 ./HelixMP3/real/imdct.o
 .debug_aranges
                0x00000578       0x20 ./HelixMP3/real/polyphase.o
 .debug_aranges
                0x00000598       0x20 ./HelixMP3/real/scalfact.o
 .debug_aranges
                0x000005b8       0x20 ./HelixMP3/real/stproc.o
 .debug_aranges
                0x000005d8       0x20 ./HelixMP3/real/subband.o
 .debug_aranges
                0x000005f8       0x20 ./HelixMP3/mp3dec.o
 .debug_aranges
                0x00000618       0x20 ./GraphicLCD/CGraphicLCD.o
 .debug_aranges
                0x00000638       0x20 ./GraphicLCD/CT6963CDriver.o
 .debug_aranges
                0x00000658       0x20 ./GraphicLCD/CT6963GPIOInterface.o
 .debug_aranges
                0x00000678       0x60 ./FreeRTOS_EC/Source/AManagedTask.o
 .debug_aranges
                0x000006d8       0x38 ./FreeRTOS_EC/Source/ASyncObject.o
 .debug_aranges
                0x00000710       0x40 ./FreeRTOS_EC/Source/CBinarySemaphore.o
 .debug_aranges
                0x00000750       0x40 ./FreeRTOS_EC/Source/CCountingSemaphore.o
 .debug_aranges
                0x00000790       0x20 ./FreeRTOS_EC/Source/CFreeRTOS.o
 .debug_aranges
                0x000007b0       0x70 ./FreeRTOS_EC/Source/CMessageTask.o
 .debug_aranges
                0x00000820       0x40 ./FreeRTOS_EC/Source/CMutex.o
 .debug_aranges
                0x00000860       0x38 ./FreeRTOS_EC/Source/CQueue.o
 .debug_aranges
                0x00000898       0x40 ./FreeRTOS_EC/Source/CRecursiveMutex.o
 .debug_aranges
                0x000008d8       0x38 ./FreeRTOS_EC/Source/CTask.o
 .debug_aranges
                0x00000910       0x20 ./FreeRTOS/Source/portable/GCC/ARM_CM4F/port.o
 .debug_aranges
                0x00000930       0x20 ./FreeRTOS/Source/croutine.o
 .debug_aranges
                0x00000950       0x20 ./FreeRTOS/Source/list.o
 .debug_aranges
                0x00000970       0x20 ./FreeRTOS/Source/queue.o
 .debug_aranges
                0x00000990       0x20 ./FreeRTOS/Source/tasks.o
 .debug_aranges
                0x000009b0       0x38 ./Clock/CRTCHandler.o
 .debug_aranges
                0x000009e8       0x30 ./Clock/CRTCTime.o
 .debug_aranges
                0x00000a18       0x20 ./Clock/CTime.o
 .debug_aranges
                0x00000a38       0x20 ./Clock/CTime_test.o
 .debug_aranges
                0x00000a58       0x38 ./Audio_MP3/USB_MSC/CUSBMassStorage.o
 .debug_aranges
                0x00000a90       0x20 ./Audio_MP3/USB_MSC/usb_bsp.o
 .debug_aranges
                0x00000ab0       0x20 ./Audio_MP3/USB_MSC/usbh_usr.o
 .debug_aranges
                0x00000ad0       0x20 ./Audio_MP3/FatFs/src/ff.o
 .debug_aranges
                0x00000af0       0x40 ./Audio_MP3/CFileHandler.o
 .debug_aranges
                0x00000b30       0x20 ./Audio_MP3/fattime.o
 .debug_aranges
                0x00000b50       0x38 ./CLedHeartBeatSTM32F4Disc.o
 .debug_aranges
                0x00000b88       0x20 ./LibraryHacks.o
 .debug_aranges
                0x00000ba8       0x28 ./main.o
 .debug_aranges
                0x00000bd0       0x28 ./startup_stm32f4xx.o
 .debug_aranges
                0x00000bf8       0x20 ./stm32f4xx_it.o
 .debug_aranges
                0x00000c18       0x20 ./syscalls.o
 .debug_aranges
                0x00000c38       0x20 ./system_stm32f4xx.o
 .debug_aranges
                0x00000c58       0x20 ./ustime.o

.debug_line     0x00000000    0x20cba
 .debug_line    0x00000000      0x81f ./STM32_USB_OTG_Driver/src/usb_core.o
 .debug_line    0x0000081f      0x58f ./STM32_USB_OTG_Driver/src/usb_hcd.o
 .debug_line    0x00000dae      0x6c4 ./STM32_USB_OTG_Driver/src/usb_hcd_int.o
 .debug_line    0x00001472      0x7ac ./STM32_USB_HOST_Library/Core/src/usbh_core.o
 .debug_line    0x00001c1e      0x5c4 ./STM32_USB_HOST_Library/Core/src/usbh_hcs.o
 .debug_line    0x000021e2      0x5e4 ./STM32_USB_HOST_Library/Core/src/usbh_ioreq.o
 .debug_line    0x000027c6      0x64a ./STM32_USB_HOST_Library/Core/src/usbh_stdreq.o
 .debug_line    0x00002e10      0x79c ./STM32_USB_HOST_Library/Class/MSC/src/usbh_msc_bot.o
 .debug_line    0x000035ac      0x74b ./STM32_USB_HOST_Library/Class/MSC/src/usbh_msc_core.o
 .debug_line    0x00003cf7      0x76a ./STM32_USB_HOST_Library/Class/MSC/src/usbh_msc_fatfs.o
 .debug_line    0x00004461      0x813 ./STM32_USB_HOST_Library/Class/MSC/src/usbh_msc_scsi.o
 .debug_line    0x00004c74      0x420 ./STM32F4xx_StdPeriph_Driver/src/misc.o
 .debug_line    0x00005094      0x585 ./STM32F4xx_StdPeriph_Driver/src/stm32f4xx_adc.o
 .debug_line    0x00005619      0x498 ./STM32F4xx_StdPeriph_Driver/src/stm32f4xx_dac.o
 .debug_line    0x00005ab1      0x433 ./STM32F4xx_StdPeriph_Driver/src/stm32f4xx_dbgmcu.o
 .debug_line    0x00005ee4      0x4fb ./STM32F4xx_StdPeriph_Driver/src/stm32f4xx_dma.o
 .debug_line    0x000063df      0x44f ./STM32F4xx_StdPeriph_Driver/src/stm32f4xx_exti.o
 .debug_line    0x0000682e      0x526 ./STM32F4xx_StdPeriph_Driver/src/stm32f4xx_flash.o
 .debug_line    0x00006d54      0x588 ./STM32F4xx_StdPeriph_Driver/src/stm32f4xx_fsmc.o
 .debug_line    0x000072dc      0x496 ./STM32F4xx_StdPeriph_Driver/src/stm32f4xx_gpio.o
 .debug_line    0x00007772      0x52a ./STM32F4xx_StdPeriph_Driver/src/stm32f4xx_i2c.o
 .debug_line    0x00007c9c      0x435 ./STM32F4xx_StdPeriph_Driver/src/stm32f4xx_iwdg.o
 .debug_line    0x000080d1      0x468 ./STM32F4xx_StdPeriph_Driver/src/stm32f4xx_pwr.o
 .debug_line    0x00008539      0x574 ./STM32F4xx_StdPeriph_Driver/src/stm32f4xx_rcc.o
 .debug_line    0x00008aad      0x447 ./STM32F4xx_StdPeriph_Driver/src/stm32f4xx_rng.o
 .debug_line    0x00008ef4      0x73b ./STM32F4xx_StdPeriph_Driver/src/stm32f4xx_rtc.o
 .debug_line    0x0000962f      0x4da ./STM32F4xx_StdPeriph_Driver/src/stm32f4xx_sdio.o
 .debug_line    0x00009b09      0x51f ./STM32F4xx_StdPeriph_Driver/src/stm32f4xx_spi.o
 .debug_line    0x0000a028      0x428 ./STM32F4xx_StdPeriph_Driver/src/stm32f4xx_syscfg.o
 .debug_line    0x0000a450      0x7d8 ./STM32F4xx_StdPeriph_Driver/src/stm32f4xx_tim.o
 .debug_line    0x0000ac28      0x540 ./STM32F4xx_StdPeriph_Driver/src/stm32f4xx_usart.o
 .debug_line    0x0000b168      0x430 ./STM32F4xx_StdPeriph_Driver/src/stm32f4xx_wwdg.o
 .debug_line    0x0000b598      0x443 ./STM32F4-Discovery/stm32f4_discovery.o
 .debug_line    0x0000b9db      0x674 ./STM32F4-Discovery/stm32f4_discovery_audio_codec.o
 .debug_line    0x0000c04f      0x520 ./STM32F4-Discovery/stm32f4_discovery_lis302dl.o
 .debug_line    0x0000c56f      0xa16 ./Menue/CMenue.o
 .debug_line    0x0000cf85      0x2f9 ./HelixMP3/real/bitstream.o
 .debug_line    0x0000d27e       0xf0 ./HelixMP3/real/buffers.o
 .debug_line    0x0000d36e      0x330 ./HelixMP3/real/dct32.o
 .debug_line    0x0000d69e      0x184 ./HelixMP3/real/dequant.o
 .debug_line    0x0000d822      0x249 ./HelixMP3/real/dqchan.o
 .debug_line    0x0000da6b      0x2c6 ./HelixMP3/real/huffman.o
 .debug_line    0x0000dd31       0xb0 ./HelixMP3/real/hufftabs.o
 .debug_line    0x0000dde1      0x5b8 ./HelixMP3/real/imdct.o
 .debug_line    0x0000e399      0x23b ./HelixMP3/real/polyphase.o
 .debug_line    0x0000e5d4      0x2c5 ./HelixMP3/real/scalfact.o
 .debug_line    0x0000e899      0x2ac ./HelixMP3/real/stproc.o
 .debug_line    0x0000eb45      0x129 ./HelixMP3/real/subband.o
 .debug_line    0x0000ec6e       0xb0 ./HelixMP3/real/trigtabs.o
 .debug_line    0x0000ed1e      0x482 ./HelixMP3/mp3dec.o
 .debug_line    0x0000f1a0       0x9f ./HelixMP3/mp3tabs.o
 .debug_line    0x0000f23f       0x7c ./GraphicLCD/CGraphicLCD.o
 .debug_line    0x0000f2bb      0x234 ./GraphicLCD/CT6963CDriver.o
 .debug_line    0x0000f4ef      0x645 ./GraphicLCD/CT6963GPIOInterface.o
 .debug_line    0x0000fb34       0x60 ./GraphicLCD/SansSerif12.o
 .debug_line    0x0000fb94       0x60 ./GraphicLCD/SansSerif26.o
 .debug_line    0x0000fbf4      0x68a ./FreeRTOS_EC/Source/AManagedTask.o
 .debug_line    0x0001027e      0x730 ./FreeRTOS_EC/Source/ASyncObject.o
 .debug_line    0x000109ae      0x6c0 ./FreeRTOS_EC/Source/ATimer.o
 .debug_line    0x0001106e      0x76d ./FreeRTOS_EC/Source/CBinarySemaphore.o
 .debug_line    0x000117db      0x769 ./FreeRTOS_EC/Source/CCountingSemaphore.o
 .debug_line    0x00011f44      0x57f ./FreeRTOS_EC/Source/CFreeRTOS.o
 .debug_line    0x000124c3      0x91a ./FreeRTOS_EC/Source/CMessageTask.o
 .debug_line    0x00012ddd      0x752 ./FreeRTOS_EC/Source/CMutex.o
 .debug_line    0x0001352f      0x72e ./FreeRTOS_EC/Source/CQueue.o
 .debug_line    0x00013c5d      0x751 ./FreeRTOS_EC/Source/CRecursiveMutex.o
 .debug_line    0x000143ae      0x732 ./FreeRTOS_EC/Source/CTask.o
 .debug_line    0x00014ae0      0x581 ./FreeRTOS/Source/portable/GCC/ARM_CM4F/port.o
 .debug_line    0x00015061      0x615 ./FreeRTOS/Source/croutine.o
 .debug_line    0x00015676      0x720 ./FreeRTOS/Source/list.o
 .debug_line    0x00015d96      0x859 ./FreeRTOS/Source/queue.o
 .debug_line    0x000165ef      0xb4a ./FreeRTOS/Source/tasks.o
 .debug_line    0x00017139      0x536 ./FreeRTOS/Source/timers.o
 .debug_line    0x0001766f      0x6c9 ./Clock/CRTCHandler.o
 .debug_line    0x00017d38      0x9b0 ./Clock/CRTCTime.o
 .debug_line    0x000186e8      0x92d ./Clock/CRTCTime_test.o
 .debug_line    0x00019015      0x553 ./Clock/CTime.o
 .debug_line    0x00019568      0x518 ./Clock/CTime_test.o
 .debug_line    0x00019a80      0xb19 ./Audio_MP3/USB_MSC/CUSBMassStorage.o
 .debug_line    0x0001a599      0x575 ./Audio_MP3/USB_MSC/usb_bsp.o
 .debug_line    0x0001ab0e      0xa73 ./Audio_MP3/USB_MSC/usbh_usr.o
 .debug_line    0x0001b581      0x742 ./Audio_MP3/FatFs/src/option/syscall.o
 .debug_line    0x0001bcc3      0xb95 ./Audio_MP3/FatFs/src/ff.o
 .debug_line    0x0001c858      0xd7f ./Audio_MP3/CFileHandler.o
 .debug_line    0x0001d5d7       0xa9 ./Audio_MP3/fattime.o
 .debug_line    0x0001d680      0x6a0 ./CLedHeartBeatSTM32F4Disc.o
 .debug_line    0x0001dd20      0x4df ./LibraryHacks.o
 .debug_line    0x0001e1ff      0xe90 ./main.o
 .debug_line    0x0001f08f       0x70 ./startup_stm32f4xx.o
 .debug_line    0x0001f0ff      0xa91 ./stm32f4xx_it.o
 .debug_line    0x0001fb90      0x7a6 ./syscalls.o
 .debug_line    0x00020336      0x447 ./system_stm32f4xx.o
 .debug_line    0x0002077d      0x53d ./ustime.o

.debug_macinfo  0x00000000  0x154c434
 .debug_macinfo
                0x00000000    0x4db41 ./STM32_USB_OTG_Driver/src/usb_core.o
 .debug_macinfo
                0x0004db41    0x4db56 ./STM32_USB_OTG_Driver/src/usb_hcd.o
 .debug_macinfo
                0x0009b697    0x4dd27 ./STM32_USB_OTG_Driver/src/usb_hcd_int.o
 .debug_macinfo
                0x000e93be    0x4e8bb ./STM32_USB_HOST_Library/Core/src/usbh_core.o
 .debug_macinfo
                0x00137c79    0x4e4f9 ./STM32_USB_HOST_Library/Core/src/usbh_hcs.o
 .debug_macinfo
                0x00186172    0x4e4f0 ./STM32_USB_HOST_Library/Core/src/usbh_ioreq.o
 .debug_macinfo
                0x001d4662    0x4e5ad ./STM32_USB_HOST_Library/Core/src/usbh_stdreq.o
 .debug_macinfo
                0x00222c0f    0x4f2ba ./STM32_USB_HOST_Library/Class/MSC/src/usbh_msc_bot.o
 .debug_macinfo
                0x00271ec9    0x4ee62 ./STM32_USB_HOST_Library/Class/MSC/src/usbh_msc_core.o
 .debug_macinfo
                0x002c0d2b    0x4efb0 ./STM32_USB_HOST_Library/Class/MSC/src/usbh_msc_fatfs.o
 .debug_macinfo
                0x0030fcdb    0x4ee46 ./STM32_USB_HOST_Library/Class/MSC/src/usbh_msc_scsi.o
 .debug_macinfo
                0x0035eb21    0x4cab4 ./STM32F4xx_StdPeriph_Driver/src/misc.o
 .debug_macinfo
                0x003ab5d5    0x50133 ./STM32F4xx_StdPeriph_Driver/src/stm32f4xx_adc.o
 .debug_macinfo
                0x003fb708    0x4cba6 ./STM32F4xx_StdPeriph_Driver/src/stm32f4xx_dac.o
 .debug_macinfo
                0x004482ae    0x4d000 ./STM32F4xx_StdPeriph_Driver/src/stm32f4xx_dbgmcu.o
 .debug_macinfo
                0x004952ae    0x4cdc8 ./STM32F4xx_StdPeriph_Driver/src/stm32f4xx_dma.o
 .debug_macinfo
                0x004e2076    0x4caac ./STM32F4xx_StdPeriph_Driver/src/stm32f4xx_exti.o
 .debug_macinfo
                0x0052eb22    0x4dd7b ./STM32F4xx_StdPeriph_Driver/src/stm32f4xx_flash.o
 .debug_macinfo
                0x0057c89d    0x4e42e ./STM32F4xx_StdPeriph_Driver/src/stm32f4xx_fsmc.o
 .debug_macinfo
                0x005caccb    0x4ca88 ./STM32F4xx_StdPeriph_Driver/src/stm32f4xx_gpio.o
 .debug_macinfo
                0x00617753    0x4caf2 ./STM32F4xx_StdPeriph_Driver/src/stm32f4xx_i2c.o
 .debug_macinfo
                0x00664245    0x4ce94 ./STM32F4xx_StdPeriph_Driver/src/stm32f4xx_iwdg.o
 .debug_macinfo
                0x006b10d9    0x4cd6d ./STM32F4xx_StdPeriph_Driver/src/stm32f4xx_pwr.o
 .debug_macinfo
                0x006fde46    0x4cf94 ./STM32F4xx_StdPeriph_Driver/src/stm32f4xx_rcc.o
 .debug_macinfo
                0x0074adda    0x4ccae ./STM32F4xx_StdPeriph_Driver/src/stm32f4xx_rng.o
 .debug_macinfo
                0x00797a88    0x4ccc9 ./STM32F4xx_StdPeriph_Driver/src/stm32f4xx_rtc.o
 .debug_macinfo
                0x007e4751    0x4f11b ./STM32F4xx_StdPeriph_Driver/src/stm32f4xx_sdio.o
 .debug_macinfo
                0x0083386c    0x4cb75 ./STM32F4xx_StdPeriph_Driver/src/stm32f4xx_spi.o
 .debug_macinfo
                0x008803e1    0x4cbf6 ./STM32F4xx_StdPeriph_Driver/src/stm32f4xx_syscfg.o
 .debug_macinfo
                0x008ccfd7    0x4cb61 ./STM32F4xx_StdPeriph_Driver/src/stm32f4xx_tim.o
 .debug_macinfo
                0x00919b38    0x4e07c ./STM32F4xx_StdPeriph_Driver/src/stm32f4xx_usart.o
 .debug_macinfo
                0x00967bb4    0x4cb96 ./STM32F4xx_StdPeriph_Driver/src/stm32f4xx_wwdg.o
 .debug_macinfo
                0x009b474a    0x4cd11 ./STM32F4-Discovery/stm32f4_discovery.o
 .debug_macinfo
                0x00a0145b    0x4d6b9 ./STM32F4-Discovery/stm32f4_discovery_audio_codec.o
 .debug_macinfo
                0x00a4eb14    0x4dc91 ./STM32F4-Discovery/stm32f4_discovery_lis302dl.o
 .debug_macinfo
                0x00a9c7a5    0x5242c ./Menue/CMenue.o
 .debug_macinfo
                0x00aeebd1     0x2c6d ./HelixMP3/real/bitstream.o
 .debug_macinfo
                0x00af183e     0x2c6c ./HelixMP3/real/buffers.o
 .debug_macinfo
                0x00af44aa     0x302f ./HelixMP3/real/dct32.o
 .debug_macinfo
                0x00af74d9     0x2c6d ./HelixMP3/real/dequant.o
 .debug_macinfo
                0x00afa146     0x2c83 ./HelixMP3/real/dqchan.o
 .debug_macinfo
                0x00afcdc9     0x2ee4 ./HelixMP3/real/huffman.o
 .debug_macinfo
                0x00affcad     0x2eab ./HelixMP3/real/hufftabs.o
 .debug_macinfo
                0x00b02b58     0x2c6d ./HelixMP3/real/imdct.o
 .debug_macinfo
                0x00b057c5     0x31a8 ./HelixMP3/real/polyphase.o
 .debug_macinfo
                0x00b0896d     0x2c5a ./HelixMP3/real/scalfact.o
 .debug_macinfo
                0x00b0b5c7     0x2c6d ./HelixMP3/real/stproc.o
 .debug_macinfo
                0x00b0e234     0x2c6d ./HelixMP3/real/subband.o
 .debug_macinfo
                0x00b10ea1     0x2c5a ./HelixMP3/real/trigtabs.o
 .debug_macinfo
                0x00b13afb     0x4371 ./HelixMP3/mp3dec.o
 .debug_macinfo
                0x00b17e6c     0x270d ./HelixMP3/mp3tabs.o
 .debug_macinfo
                0x00b1a579     0x2374 ./GraphicLCD/CGraphicLCD.o
 .debug_macinfo
                0x00b1c8ed     0x238c ./GraphicLCD/CT6963CDriver.o
 .debug_macinfo
                0x00b1ec79    0x4eeb2 ./GraphicLCD/CT6963GPIOInterface.o
 .debug_macinfo
                0x00b6db2b     0x238a ./GraphicLCD/SansSerif12.o
 .debug_macinfo
                0x00b6feb5     0x238a ./GraphicLCD/SansSerif26.o
 .debug_macinfo
                0x00b7223f    0x4ea6e ./FreeRTOS_EC/Source/AManagedTask.o
 .debug_macinfo
                0x00bc0cad    0x4f4df ./FreeRTOS_EC/Source/ASyncObject.o
 .debug_macinfo
                0x00c1018c    0x4f49e ./FreeRTOS_EC/Source/ATimer.o
 .debug_macinfo
                0x00c5f62a    0x4f561 ./FreeRTOS_EC/Source/CBinarySemaphore.o
 .debug_macinfo
                0x00caeb8b    0x4f563 ./FreeRTOS_EC/Source/CCountingSemaphore.o
 .debug_macinfo
                0x00cfe0ee    0x4ea6e ./FreeRTOS_EC/Source/CFreeRTOS.o
 .debug_macinfo
                0x00d4cb5c    0x51c77 ./FreeRTOS_EC/Source/CMessageTask.o
 .debug_macinfo
                0x00d9e7d3    0x4f4f0 ./FreeRTOS_EC/Source/CMutex.o
 .debug_macinfo
                0x00dedcc3    0x4eebe ./FreeRTOS_EC/Source/CQueue.o
 .debug_macinfo
                0x00e3cb81    0x4f4f9 ./FreeRTOS_EC/Source/CRecursiveMutex.o
 .debug_macinfo
                0x00e8c07a    0x4eefd ./FreeRTOS_EC/Source/CTask.o
 .debug_macinfo
                0x00edaf77    0x4ec7c ./FreeRTOS/Source/portable/GCC/ARM_CM4F/port.o
 .debug_macinfo
                0x00f29bf3    0x4f121 ./FreeRTOS/Source/croutine.o
 .debug_macinfo
                0x00f78d14    0x5028e ./FreeRTOS/Source/list.o
 .debug_macinfo
                0x00fc8fa2    0x5099d ./FreeRTOS/Source/queue.o
 .debug_macinfo
                0x0101993f    0x51f0e ./FreeRTOS/Source/tasks.o
 .debug_macinfo
                0x0106b84d    0x4f716 ./FreeRTOS/Source/timers.o
 .debug_macinfo
                0x010baf63    0x4ecfd ./Clock/CRTCHandler.o
 .debug_macinfo
                0x01109c60    0x5220d ./Clock/CRTCTime.o
 .debug_macinfo
                0x0115be6d    0x5220d ./Clock/CRTCTime_test.o
 .debug_macinfo
                0x011ae07a     0x60f4 ./Clock/CTime.o
 .debug_macinfo
                0x011b416e     0x60f4 ./Clock/CTime_test.o
 .debug_macinfo
                0x011ba262    0x54fc4 ./Audio_MP3/USB_MSC/CUSBMassStorage.o
 .debug_macinfo
                0x0120f226    0x4dcd4 ./Audio_MP3/USB_MSC/usb_bsp.o
 .debug_macinfo
                0x0125cefa    0x54b87 ./Audio_MP3/USB_MSC/usbh_usr.o
 .debug_macinfo
                0x012b1a81    0x51577 ./Audio_MP3/FatFs/src/option/syscall.o
 .debug_macinfo
                0x01302ff8     0x2ed6 ./Audio_MP3/FatFs/src/ff.o
 .debug_macinfo
                0x01305ece    0x56fab ./Audio_MP3/CFileHandler.o
 .debug_macinfo
                0x0135ce79     0x2349 ./Audio_MP3/fattime.o
 .debug_macinfo
                0x0135f1c2    0x4ed0a ./CLedHeartBeatSTM32F4Disc.o
 .debug_macinfo
                0x013adecc     0x57ae ./LibraryHacks.o
 .debug_macinfo
                0x013b367a    0x56410 ./main.o
 .debug_macinfo
                0x01409a8a    0x55ba2 ./stm32f4xx_it.o
 .debug_macinfo
                0x0145f62c    0x52094 ./syscalls.o
 .debug_macinfo
                0x014b16c0    0x4cae8 ./system_stm32f4xx.o
 .debug_macinfo
                0x014fe1a8    0x4e28c ./ustime.o

.debug_str      0x00000000     0xe25c
 .debug_str     0x00000000     0x1001 ./STM32_USB_OTG_Driver/src/usb_core.o
                               0x1321 (size before relaxing)
 .debug_str     0x00001001       0xcf ./STM32_USB_OTG_Driver/src/usb_hcd.o
                                0x8de (size before relaxing)
 .debug_str     0x000010d0      0x268 ./STM32_USB_OTG_Driver/src/usb_hcd_int.o
                                0xee8 (size before relaxing)
 .debug_str     0x00001338      0x94f ./STM32_USB_HOST_Library/Core/src/usbh_core.o
                               0x11fd (size before relaxing)
 .debug_str     0x00001c87       0xbc ./STM32_USB_HOST_Library/Core/src/usbh_hcs.o
                                0x848 (size before relaxing)
 .debug_str     0x00001d43       0xe3 ./STM32_USB_HOST_Library/Core/src/usbh_ioreq.o
                               0x11b9 (size before relaxing)
 .debug_str     0x00001e26      0x1de ./STM32_USB_HOST_Library/Core/src/usbh_stdreq.o
                               0x12b0 (size before relaxing)
 .debug_str     0x00002004      0x374 ./STM32_USB_HOST_Library/Class/MSC/src/usbh_msc_bot.o
                               0x145e (size before relaxing)
 .debug_str     0x00002378      0x213 ./STM32_USB_HOST_Library/Class/MSC/src/usbh_msc_core.o
                               0x1476 (size before relaxing)
 .debug_str     0x0000258b      0x156 ./STM32_USB_HOST_Library/Class/MSC/src/usbh_msc_fatfs.o
                               0x1275 (size before relaxing)
 .debug_str     0x000026e1      0x10e ./STM32_USB_HOST_Library/Class/MSC/src/usbh_msc_scsi.o
                                0xbf4 (size before relaxing)
 .debug_str     0x000027ef      0x23c ./STM32F4xx_StdPeriph_Driver/src/misc.o
                                0x395 (size before relaxing)
 .debug_str     0x00002a2b      0x634 ./STM32F4xx_StdPeriph_Driver/src/stm32f4xx_adc.o
                                0x7c0 (size before relaxing)
 .debug_str     0x0000305f      0x267 ./STM32F4xx_StdPeriph_Driver/src/stm32f4xx_dac.o
                                0x40f (size before relaxing)
 .debug_str     0x000032c6       0xc5 ./STM32F4xx_StdPeriph_Driver/src/stm32f4xx_dbgmcu.o
                                0x211 (size before relaxing)
 .debug_str     0x0000338b      0x36d ./STM32F4xx_StdPeriph_Driver/src/stm32f4xx_dma.o
                                0x508 (size before relaxing)
 .debug_str     0x000036f8      0x180 ./STM32F4xx_StdPeriph_Driver/src/stm32f4xx_exti.o
                                0x32a (size before relaxing)
 .debug_str     0x00003878      0x3b2 ./STM32F4xx_StdPeriph_Driver/src/stm32f4xx_flash.o
                                0x543 (size before relaxing)
 .debug_str     0x00003c2a      0x5c4 ./STM32F4xx_StdPeriph_Driver/src/stm32f4xx_fsmc.o
                                0x750 (size before relaxing)
 .debug_str     0x000041ee      0x291 ./STM32F4xx_StdPeriph_Driver/src/stm32f4xx_gpio.o
                                0x45f (size before relaxing)
 .debug_str     0x0000447f      0x427 ./STM32F4xx_StdPeriph_Driver/src/stm32f4xx_i2c.o
                                0x621 (size before relaxing)
 .debug_str     0x000048a6       0xd1 ./STM32F4xx_StdPeriph_Driver/src/stm32f4xx_iwdg.o
                                0x228 (size before relaxing)
 .debug_str     0x00004977      0x170 ./STM32F4xx_StdPeriph_Driver/src/stm32f4xx_pwr.o
                                0x34d (size before relaxing)
 .debug_str     0x00004ae7      0x5a6 ./STM32F4xx_StdPeriph_Driver/src/stm32f4xx_rcc.o
                                0x80c (size before relaxing)
 .debug_str     0x0000508d       0xc8 ./STM32F4xx_StdPeriph_Driver/src/stm32f4xx_rng.o
                                0x240 (size before relaxing)
 .debug_str     0x00005155      0x91d ./STM32F4xx_StdPeriph_Driver/src/stm32f4xx_rtc.o
                                0xb0f (size before relaxing)
 .debug_str     0x00005a72      0x46a ./STM32F4xx_StdPeriph_Driver/src/stm32f4xx_sdio.o
                                0x607 (size before relaxing)
 .debug_str     0x00005edc      0x382 ./STM32F4xx_StdPeriph_Driver/src/stm32f4xx_spi.o
                                0x646 (size before relaxing)
 .debug_str     0x0000625e      0x14c ./STM32F4xx_StdPeriph_Driver/src/stm32f4xx_syscfg.o
                                0x2bb (size before relaxing)
 .debug_str     0x000063aa      0xb2d ./STM32F4xx_StdPeriph_Driver/src/stm32f4xx_tim.o
                                0xd8c (size before relaxing)
 .debug_str     0x00006ed7      0x419 ./STM32F4xx_StdPeriph_Driver/src/stm32f4xx_usart.o
                                0x64b (size before relaxing)
 .debug_str     0x000072f0       0xcd ./STM32F4xx_StdPeriph_Driver/src/stm32f4xx_wwdg.o
                                0x23e (size before relaxing)
 .debug_str     0x000073bd      0x6b6 ./STM32F4-Discovery/stm32f4_discovery.o
                                0xae5 (size before relaxing)
 .debug_str     0x00007a73      0x49d ./STM32F4-Discovery/stm32f4_discovery_audio_codec.o
                               0x10c6 (size before relaxing)
 .debug_str     0x00007f10      0x2da ./STM32F4-Discovery/stm32f4_discovery_lis302dl.o
                                0x724 (size before relaxing)
 .debug_str     0x000081ea      0x630 ./Menue/CMenue.o
                                0x803 (size before relaxing)
 .debug_str     0x0000881a      0x3ca ./HelixMP3/real/bitstream.o
                                0x508 (size before relaxing)
 .debug_str     0x00008be4      0x173 ./HelixMP3/real/buffers.o
                                0x543 (size before relaxing)
 .debug_str     0x00008d57       0x4a ./HelixMP3/real/dct32.o
                                0x115 (size before relaxing)
 .debug_str     0x00008da1       0x39 ./HelixMP3/real/dequant.o
                                0x4b8 (size before relaxing)
 .debug_str     0x00008dda       0xf0 ./HelixMP3/real/dqchan.o
                                0x3d9 (size before relaxing)
 .debug_str     0x00008eca      0x1a1 ./HelixMP3/real/huffman.o
                                0x587 (size before relaxing)
 .debug_str     0x0000906b       0x1c ./HelixMP3/real/hufftabs.o
                                0x1cc (size before relaxing)
 .debug_str     0x00009087      0x197 ./HelixMP3/real/imdct.o
                                0x5b9 (size before relaxing)
 .debug_str     0x0000921e       0xab ./HelixMP3/real/polyphase.o
                                0x174 (size before relaxing)
 .debug_str     0x000092c9       0x90 ./HelixMP3/real/scalfact.o
                                0x4e0 (size before relaxing)
 .debug_str     0x00009359       0xc3 ./HelixMP3/real/stproc.o
                                0x314 (size before relaxing)
 .debug_str     0x0000941c       0x3d ./HelixMP3/real/subband.o
                                0x297 (size before relaxing)
 .debug_str     0x00009459       0x39 ./HelixMP3/real/trigtabs.o
                                0x132 (size before relaxing)
 .debug_str     0x00009492      0x292 ./HelixMP3/mp3dec.o
                                0x528 (size before relaxing)
 .debug_str     0x00009724       0x2a ./HelixMP3/mp3tabs.o
                                0x155 (size before relaxing)
 .debug_str     0x0000974e      0x1cf ./GraphicLCD/CGraphicLCD.o
                                0x314 (size before relaxing)
 .debug_str     0x0000991d      0x7b6 ./GraphicLCD/CT6963CDriver.o
                                0x977 (size before relaxing)
 .debug_str     0x0000a0d3      0x1c5 ./GraphicLCD/CT6963GPIOInterface.o
                                0x58d (size before relaxing)
 .debug_str     0x0000a298       0xb4 ./GraphicLCD/SansSerif12.o
                                0x1be (size before relaxing)
 .debug_str     0x0000a34c       0xb4 ./GraphicLCD/SansSerif26.o
                                0x1be (size before relaxing)
 .debug_str     0x0000a400      0x2a3 ./FreeRTOS_EC/Source/AManagedTask.o
                                0x54b (size before relaxing)
 .debug_str     0x0000a6a3      0x130 ./FreeRTOS_EC/Source/ASyncObject.o
                                0x354 (size before relaxing)
 .debug_str     0x0000a7d3       0x21 ./FreeRTOS_EC/Source/ATimer.o
                                0x13e (size before relaxing)
 .debug_str     0x0000a7f4       0xd3 ./FreeRTOS_EC/Source/CBinarySemaphore.o
                                0x36c (size before relaxing)
 .debug_str     0x0000a8c7       0xe3 ./FreeRTOS_EC/Source/CCountingSemaphore.o
                                0x38e (size before relaxing)
 .debug_str     0x0000a9aa       0x9a ./FreeRTOS_EC/Source/CFreeRTOS.o
                                0x26d (size before relaxing)
 .debug_str     0x0000aa44      0x405 ./FreeRTOS_EC/Source/CMessageTask.o
                                0x6fb (size before relaxing)
 .debug_str     0x0000ae49       0x61 ./FreeRTOS_EC/Source/CMutex.o
                                0x2fb (size before relaxing)
 .debug_str     0x0000aeaa      0x1bf ./FreeRTOS_EC/Source/CQueue.o
                                0x4d7 (size before relaxing)
 .debug_str     0x0000b069       0x91 ./FreeRTOS_EC/Source/CRecursiveMutex.o
                                0x314 (size before relaxing)
 .debug_str     0x0000b0fa      0x3fa ./FreeRTOS_EC/Source/CTask.o
                                0x793 (size before relaxing)
 .debug_str     0x0000b4f4      0x148 ./FreeRTOS/Source/portable/GCC/ARM_CM4F/port.o
                                0x292 (size before relaxing)
 .debug_str     0x0000b63c      0x336 ./FreeRTOS/Source/croutine.o
                                0x477 (size before relaxing)
 .debug_str     0x0000b972       0xad ./FreeRTOS/Source/list.o
                                0x26b (size before relaxing)
 .debug_str     0x0000ba1f      0x2bb ./FreeRTOS/Source/queue.o
                                0x4f5 (size before relaxing)
 .debug_str     0x0000bcda      0x741 ./FreeRTOS/Source/tasks.o
                                0xaa6 (size before relaxing)
 .debug_str     0x0000c41b       0x1c ./FreeRTOS/Source/timers.o
                                0x137 (size before relaxing)
 .debug_str     0x0000c437      0x44a ./Clock/CRTCHandler.o
                               0x1016 (size before relaxing)
 .debug_str     0x0000c881      0x1b4 ./Clock/CRTCTime.o
                                0x5a5 (size before relaxing)
 .debug_str     0x0000ca35       0x1b ./Clock/CRTCTime_test.o
                                0x31f (size before relaxing)
 .debug_str     0x0000ca50      0x25b ./Clock/CTime.o
                                0x5a1 (size before relaxing)
 .debug_str     0x0000ccab       0x6a ./Clock/CTime_test.o
                                0x373 (size before relaxing)
 .debug_str     0x0000cd15      0x159 ./Audio_MP3/USB_MSC/CUSBMassStorage.o
                               0x13eb (size before relaxing)
 .debug_str     0x0000ce6e       0xcf ./Audio_MP3/USB_MSC/usb_bsp.o
                                0xf83 (size before relaxing)
 .debug_str     0x0000cf3d      0x371 ./Audio_MP3/USB_MSC/usbh_usr.o
                                0x814 (size before relaxing)
 .debug_str     0x0000d2ae       0x28 ./Audio_MP3/FatFs/src/option/syscall.o
                                0x148 (size before relaxing)
 .debug_str     0x0000d2d6      0x319 ./Audio_MP3/FatFs/src/ff.o
                                0x62e (size before relaxing)
 .debug_str     0x0000d5ef      0x5c3 ./Audio_MP3/CFileHandler.o
                               0x16b0 (size before relaxing)
 .debug_str     0x0000dbb2       0x23 ./Audio_MP3/fattime.o
                                0x10a (size before relaxing)
 .debug_str     0x0000dbd5      0x153 ./CLedHeartBeatSTM32F4Disc.o
                                0x42a (size before relaxing)
 .debug_str     0x0000dd28      0x184 ./LibraryHacks.o
                                0x2c2 (size before relaxing)
 .debug_str     0x0000deac       0xfb ./main.o
                                0x537 (size before relaxing)
 .debug_str     0x0000dfa7       0xab ./stm32f4xx_it.o
                                0x820 (size before relaxing)
 .debug_str     0x0000e052      0x16c ./syscalls.o
                                0x673 (size before relaxing)
 .debug_str     0x0000e1be       0x5c ./system_stm32f4xx.o
                                0x34d (size before relaxing)
 .debug_str     0x0000e21a       0x42 ./ustime.o
                                0x36b (size before relaxing)

.comment        0x00000000       0x70
 .comment       0x00000000       0x70 ./STM32_USB_OTG_Driver/src/usb_core.o
                                 0x71 (size before relaxing)
 .comment       0x00000000       0x71 ./STM32_USB_OTG_Driver/src/usb_hcd.o
 .comment       0x00000000       0x71 ./STM32_USB_OTG_Driver/src/usb_hcd_int.o
 .comment       0x00000000       0x71 ./STM32_USB_HOST_Library/Core/src/usbh_core.o
 .comment       0x00000000       0x71 ./STM32_USB_HOST_Library/Core/src/usbh_hcs.o
 .comment       0x00000000       0x71 ./STM32_USB_HOST_Library/Core/src/usbh_ioreq.o
 .comment       0x00000000       0x71 ./STM32_USB_HOST_Library/Core/src/usbh_stdreq.o
 .comment       0x00000000       0x71 ./STM32_USB_HOST_Library/Class/MSC/src/usbh_msc_bot.o
 .comment       0x00000000       0x71 ./STM32_USB_HOST_Library/Class/MSC/src/usbh_msc_core.o
 .comment       0x00000000       0x71 ./STM32_USB_HOST_Library/Class/MSC/src/usbh_msc_fatfs.o
 .comment       0x00000000       0x71 ./STM32_USB_HOST_Library/Class/MSC/src/usbh_msc_scsi.o
 .comment       0x00000000       0x71 ./STM32F4xx_StdPeriph_Driver/src/misc.o
 .comment       0x00000000       0x71 ./STM32F4xx_StdPeriph_Driver/src/stm32f4xx_adc.o
 .comment       0x00000000       0x71 ./STM32F4xx_StdPeriph_Driver/src/stm32f4xx_dac.o
 .comment       0x00000000       0x71 ./STM32F4xx_StdPeriph_Driver/src/stm32f4xx_dbgmcu.o
 .comment       0x00000000       0x71 ./STM32F4xx_StdPeriph_Driver/src/stm32f4xx_dma.o
 .comment       0x00000000       0x71 ./STM32F4xx_StdPeriph_Driver/src/stm32f4xx_exti.o
 .comment       0x00000000       0x71 ./STM32F4xx_StdPeriph_Driver/src/stm32f4xx_flash.o
 .comment       0x00000000       0x71 ./STM32F4xx_StdPeriph_Driver/src/stm32f4xx_fsmc.o
 .comment       0x00000000       0x71 ./STM32F4xx_StdPeriph_Driver/src/stm32f4xx_gpio.o
 .comment       0x00000000       0x71 ./STM32F4xx_StdPeriph_Driver/src/stm32f4xx_i2c.o
 .comment       0x00000000       0x71 ./STM32F4xx_StdPeriph_Driver/src/stm32f4xx_iwdg.o
 .comment       0x00000000       0x71 ./STM32F4xx_StdPeriph_Driver/src/stm32f4xx_pwr.o
 .comment       0x00000000       0x71 ./STM32F4xx_StdPeriph_Driver/src/stm32f4xx_rcc.o
 .comment       0x00000000       0x71 ./STM32F4xx_StdPeriph_Driver/src/stm32f4xx_rng.o
 .comment       0x00000000       0x71 ./STM32F4xx_StdPeriph_Driver/src/stm32f4xx_rtc.o
 .comment       0x00000000       0x71 ./STM32F4xx_StdPeriph_Driver/src/stm32f4xx_sdio.o
 .comment       0x00000000       0x71 ./STM32F4xx_StdPeriph_Driver/src/stm32f4xx_spi.o
 .comment       0x00000000       0x71 ./STM32F4xx_StdPeriph_Driver/src/stm32f4xx_syscfg.o
 .comment       0x00000000       0x71 ./STM32F4xx_StdPeriph_Driver/src/stm32f4xx_tim.o
 .comment       0x00000000       0x71 ./STM32F4xx_StdPeriph_Driver/src/stm32f4xx_usart.o
 .comment       0x00000000       0x71 ./STM32F4xx_StdPeriph_Driver/src/stm32f4xx_wwdg.o
 .comment       0x00000000       0x71 ./STM32F4-Discovery/stm32f4_discovery.o
 .comment       0x00000000       0x71 ./STM32F4-Discovery/stm32f4_discovery_audio_codec.o
 .comment       0x00000000       0x71 ./STM32F4-Discovery/stm32f4_discovery_lis302dl.o
 .comment       0x00000000       0x71 ./Menue/CMenue.o
 .comment       0x00000000       0x71 ./HelixMP3/real/bitstream.o
 .comment       0x00000000       0x71 ./HelixMP3/real/buffers.o
 .comment       0x00000000       0x71 ./HelixMP3/real/dct32.o
 .comment       0x00000000       0x71 ./HelixMP3/real/dequant.o
 .comment       0x00000000       0x71 ./HelixMP3/real/dqchan.o
 .comment       0x00000000       0x71 ./HelixMP3/real/huffman.o
 .comment       0x00000000       0x71 ./HelixMP3/real/hufftabs.o
 .comment       0x00000000       0x71 ./HelixMP3/real/imdct.o
 .comment       0x00000000       0x71 ./HelixMP3/real/polyphase.o
 .comment       0x00000000       0x71 ./HelixMP3/real/scalfact.o
 .comment       0x00000000       0x71 ./HelixMP3/real/stproc.o
 .comment       0x00000000       0x71 ./HelixMP3/real/subband.o
 .comment       0x00000000       0x71 ./HelixMP3/real/trigtabs.o
 .comment       0x00000000       0x71 ./HelixMP3/mp3dec.o
 .comment       0x00000000       0x71 ./HelixMP3/mp3tabs.o
 .comment       0x00000000       0x71 ./GraphicLCD/CGraphicLCD.o
 .comment       0x00000000       0x71 ./GraphicLCD/CT6963CDriver.o
 .comment       0x00000000       0x71 ./GraphicLCD/CT6963GPIOInterface.o
 .comment       0x00000000       0x71 ./GraphicLCD/SansSerif12.o
 .comment       0x00000000       0x71 ./GraphicLCD/SansSerif26.o
 .comment       0x00000000       0x71 ./FreeRTOS_EC/Source/AManagedTask.o
 .comment       0x00000000       0x71 ./FreeRTOS_EC/Source/ASyncObject.o
 .comment       0x00000000       0x71 ./FreeRTOS_EC/Source/ATimer.o
 .comment       0x00000000       0x71 ./FreeRTOS_EC/Source/CBinarySemaphore.o
 .comment       0x00000000       0x71 ./FreeRTOS_EC/Source/CCountingSemaphore.o
 .comment       0x00000000       0x71 ./FreeRTOS_EC/Source/CFreeRTOS.o
 .comment       0x00000000       0x71 ./FreeRTOS_EC/Source/CMessageTask.o
 .comment       0x00000000       0x71 ./FreeRTOS_EC/Source/CMutex.o
 .comment       0x00000000       0x71 ./FreeRTOS_EC/Source/CQueue.o
 .comment       0x00000000       0x71 ./FreeRTOS_EC/Source/CRecursiveMutex.o
 .comment       0x00000000       0x71 ./FreeRTOS_EC/Source/CTask.o
 .comment       0x00000000       0x71 ./FreeRTOS/Source/portable/GCC/ARM_CM4F/port.o
 .comment       0x00000000       0x71 ./FreeRTOS/Source/croutine.o
 .comment       0x00000000       0x71 ./FreeRTOS/Source/list.o
 .comment       0x00000000       0x71 ./FreeRTOS/Source/queue.o
 .comment       0x00000000       0x71 ./FreeRTOS/Source/tasks.o
 .comment       0x00000000       0x71 ./FreeRTOS/Source/timers.o
 .comment       0x00000000       0x71 ./Clock/CRTCHandler.o
 .comment       0x00000000       0x71 ./Clock/CRTCTime.o
 .comment       0x00000000       0x71 ./Clock/CRTCTime_test.o
 .comment       0x00000000       0x71 ./Clock/CTime.o
 .comment       0x00000000       0x71 ./Clock/CTime_test.o
 .comment       0x00000000       0x71 ./Audio_MP3/USB_MSC/CUSBMassStorage.o
 .comment       0x00000000       0x71 ./Audio_MP3/USB_MSC/usb_bsp.o
 .comment       0x00000000       0x71 ./Audio_MP3/USB_MSC/usbh_usr.o
 .comment       0x00000000       0x71 ./Audio_MP3/FatFs/src/option/syscall.o
 .comment       0x00000000       0x71 ./Audio_MP3/FatFs/src/ff.o
 .comment       0x00000000       0x71 ./Audio_MP3/CFileHandler.o
 .comment       0x00000000       0x71 ./Audio_MP3/fattime.o
 .comment       0x00000000       0x71 ./CLedHeartBeatSTM32F4Disc.o
 .comment       0x00000000       0x71 ./LibraryHacks.o
 .comment       0x00000000       0x71 ./main.o
 .comment       0x00000000       0x71 ./stm32f4xx_it.o
 .comment       0x00000000       0x71 ./syscalls.o
 .comment       0x00000000       0x71 ./system_stm32f4xx.o
 .comment       0x00000000       0x71 ./ustime.o

.debug_frame    0x00000000     0xa188
 .debug_frame   0x00000000      0x370 ./STM32_USB_OTG_Driver/src/usb_core.o
 .debug_frame   0x00000370      0x138 ./STM32_USB_OTG_Driver/src/usb_hcd.o
 .debug_frame   0x000004a8      0x168 ./STM32_USB_OTG_Driver/src/usb_hcd_int.o
 .debug_frame   0x00000610      0x10c ./STM32_USB_HOST_Library/Core/src/usbh_core.o
 .debug_frame   0x0000071c       0xc4 ./STM32_USB_HOST_Library/Core/src/usbh_hcs.o
 .debug_frame   0x000007e0      0x12c ./STM32_USB_HOST_Library/Core/src/usbh_ioreq.o
 .debug_frame   0x0000090c      0x1a0 ./STM32_USB_HOST_Library/Core/src/usbh_stdreq.o
 .debug_frame   0x00000aac       0x90 ./STM32_USB_HOST_Library/Class/MSC/src/usbh_msc_bot.o
 .debug_frame   0x00000b3c       0xec ./STM32_USB_HOST_Library/Class/MSC/src/usbh_msc_core.o
 .debug_frame   0x00000c28       0xa8 ./STM32_USB_HOST_Library/Class/MSC/src/usbh_msc_fatfs.o
 .debug_frame   0x00000cd0       0xd0 ./STM32_USB_HOST_Library/Class/MSC/src/usbh_msc_scsi.o
 .debug_frame   0x00000da0       0x9c ./STM32F4xx_StdPeriph_Driver/src/misc.o
 .debug_frame   0x00000e3c      0x438 ./STM32F4xx_StdPeriph_Driver/src/stm32f4xx_adc.o
 .debug_frame   0x00001274      0x1ec ./STM32F4xx_StdPeriph_Driver/src/stm32f4xx_dac.o
 .debug_frame   0x00001460       0x9c ./STM32F4xx_StdPeriph_Driver/src/stm32f4xx_dbgmcu.o
 .debug_frame   0x000014fc      0x224 ./STM32F4xx_StdPeriph_Driver/src/stm32f4xx_dma.o
 .debug_frame   0x00001720       0xf0 ./STM32F4xx_StdPeriph_Driver/src/stm32f4xx_exti.o
 .debug_frame   0x00001810      0x384 ./STM32F4xx_StdPeriph_Driver/src/stm32f4xx_flash.o
 .debug_frame   0x00001b94      0x224 ./STM32F4xx_StdPeriph_Driver/src/stm32f4xx_fsmc.o
 .debug_frame   0x00001db8      0x19c ./STM32F4xx_StdPeriph_Driver/src/stm32f4xx_gpio.o
 .debug_frame   0x00001f54      0x3b4 ./STM32F4xx_StdPeriph_Driver/src/stm32f4xx_i2c.o
 .debug_frame   0x00002308       0xb8 ./STM32F4xx_StdPeriph_Driver/src/stm32f4xx_iwdg.o
 .debug_frame   0x000023c0      0x160 ./STM32F4xx_StdPeriph_Driver/src/stm32f4xx_pwr.o
 .debug_frame   0x00002520      0x4e4 ./STM32F4xx_StdPeriph_Driver/src/stm32f4xx_rcc.o
 .debug_frame   0x00002a04       0xf0 ./STM32F4xx_StdPeriph_Driver/src/stm32f4xx_rng.o
 .debug_frame   0x00002af4      0x68c ./STM32F4xx_StdPeriph_Driver/src/stm32f4xx_rtc.o
 .debug_frame   0x00003180      0x358 ./STM32F4xx_StdPeriph_Driver/src/stm32f4xx_sdio.o
 .debug_frame   0x000034d8      0x2d0 ./STM32F4xx_StdPeriph_Driver/src/stm32f4xx_spi.o
 .debug_frame   0x000037a8       0xbc ./STM32F4xx_StdPeriph_Driver/src/stm32f4xx_syscfg.o
 .debug_frame   0x00003864      0xa3c ./STM32F4xx_StdPeriph_Driver/src/stm32f4xx_tim.o
 .debug_frame   0x000042a0      0x344 ./STM32F4xx_StdPeriph_Driver/src/stm32f4xx_usart.o
 .debug_frame   0x000045e4       0xf0 ./STM32F4xx_StdPeriph_Driver/src/stm32f4xx_wwdg.o
 .debug_frame   0x000046d4       0xc4 ./STM32F4-Discovery/stm32f4_discovery.o
 .debug_frame   0x00004798      0x458 ./STM32F4-Discovery/stm32f4_discovery_audio_codec.o
 .debug_frame   0x00004bf0      0x1ac ./STM32F4-Discovery/stm32f4_discovery_lis302dl.o
 .debug_frame   0x00004d9c      0x104 ./Menue/CMenue.o
 .debug_frame   0x00004ea0       0xe0 ./HelixMP3/real/bitstream.o
 .debug_frame   0x00004f80       0x68 ./HelixMP3/real/buffers.o
 .debug_frame   0x00004fe8       0x54 ./HelixMP3/real/dct32.o
 .debug_frame   0x0000503c       0x5c ./HelixMP3/real/dequant.o
 .debug_frame   0x00005098       0x90 ./HelixMP3/real/dqchan.o
 .debug_frame   0x00005128       0x70 ./HelixMP3/real/huffman.o
 .debug_frame   0x00005198      0x1b8 ./HelixMP3/real/imdct.o
 .debug_frame   0x00005350       0xb8 ./HelixMP3/real/polyphase.o
 .debug_frame   0x00005408       0x78 ./HelixMP3/real/scalfact.o
 .debug_frame   0x00005480       0xac ./HelixMP3/real/stproc.o
 .debug_frame   0x0000552c       0x34 ./HelixMP3/real/subband.o
 .debug_frame   0x00005560      0x10c ./HelixMP3/mp3dec.o
 .debug_frame   0x0000566c       0xc0 ./GraphicLCD/CGraphicLCD.o
 .debug_frame   0x0000572c      0x25c ./GraphicLCD/CT6963CDriver.o
 .debug_frame   0x00005988      0x130 ./GraphicLCD/CT6963GPIOInterface.o
 .debug_frame   0x00005ab8      0x1f8 ./FreeRTOS_EC/Source/AManagedTask.o
 .debug_frame   0x00005cb0      0x104 ./FreeRTOS_EC/Source/ASyncObject.o
 .debug_frame   0x00005db4      0x128 ./FreeRTOS_EC/Source/CBinarySemaphore.o
 .debug_frame   0x00005edc      0x128 ./FreeRTOS_EC/Source/CCountingSemaphore.o
 .debug_frame   0x00006004       0x64 ./FreeRTOS_EC/Source/CFreeRTOS.o
 .debug_frame   0x00006068      0x280 ./FreeRTOS_EC/Source/CMessageTask.o
 .debug_frame   0x000062e8      0x128 ./FreeRTOS_EC/Source/CMutex.o
 .debug_frame   0x00006410      0x144 ./FreeRTOS_EC/Source/CQueue.o
 .debug_frame   0x00006554      0x120 ./FreeRTOS_EC/Source/CRecursiveMutex.o
 .debug_frame   0x00006674      0x160 ./FreeRTOS_EC/Source/CTask.o
 .debug_frame   0x000067d4      0x124 ./FreeRTOS/Source/portable/GCC/ARM_CM4F/port.o
 .debug_frame   0x000068f8       0xf0 ./FreeRTOS/Source/croutine.o
 .debug_frame   0x000069e8       0x9c ./FreeRTOS/Source/list.o
 .debug_frame   0x00006a84      0x204 ./FreeRTOS/Source/queue.o
 .debug_frame   0x00006c88      0x540 ./FreeRTOS/Source/tasks.o
 .debug_frame   0x000071c8      0x1d4 ./Clock/CRTCHandler.o
 .debug_frame   0x0000739c      0x110 ./Clock/CRTCTime.o
 .debug_frame   0x000074ac      0x28c ./Clock/CTime.o
 .debug_frame   0x00007738       0x34 ./Clock/CTime_test.o
 .debug_frame   0x0000776c      0x124 ./Audio_MP3/USB_MSC/CUSBMassStorage.o
 .debug_frame   0x00007890      0x104 ./Audio_MP3/USB_MSC/usb_bsp.o
 .debug_frame   0x00007994      0x208 ./Audio_MP3/USB_MSC/usbh_usr.o
 .debug_frame   0x00007b9c      0x554 ./Audio_MP3/FatFs/src/ff.o
 .debug_frame   0x000080f0      0x2d4 ./Audio_MP3/CFileHandler.o
 .debug_frame   0x000083c4       0x2c ./Audio_MP3/fattime.o
 .debug_frame   0x000083f0      0x104 ./CLedHeartBeatSTM32F4Disc.o
 .debug_frame   0x000084f4       0xe4 ./LibraryHacks.o
 .debug_frame   0x000085d8       0xf8 ./main.o
 .debug_frame   0x000086d0      0x114 ./stm32f4xx_it.o
 .debug_frame   0x000087e4      0x14c ./syscalls.o
 .debug_frame   0x00008930       0x64 ./system_stm32f4xx.o
 .debug_frame   0x00008994       0x8c ./ustime.o
 .debug_frame   0x00008a20       0x20 d:/elektronik/ides/chibistudio/tools/gnu tools arm embedded/4.6 2012q2/bin/../lib/gcc/arm-none-eabi/4.6.2/../../../../arm-none-eabi/lib/armv7e-m\libstdc++.a(atexit_arm.o)
 .debug_frame   0x00008a40       0x40 d:/elektronik/ides/chibistudio/tools/gnu tools arm embedded/4.6 2012q2/bin/../lib/gcc/arm-none-eabi/4.6.2/../../../../arm-none-eabi/lib/armv7e-m\libg.a(lib_a-assert.o)
 .debug_frame   0x00008a80       0x20 d:/elektronik/ides/chibistudio/tools/gnu tools arm embedded/4.6 2012q2/bin/../lib/gcc/arm-none-eabi/4.6.2/../../../../arm-none-eabi/lib/armv7e-m\libg.a(lib_a-atexit.o)
 .debug_frame   0x00008aa0       0x28 d:/elektronik/ides/chibistudio/tools/gnu tools arm embedded/4.6 2012q2/bin/../lib/gcc/arm-none-eabi/4.6.2/../../../../arm-none-eabi/lib/armv7e-m\libg.a(lib_a-cxa_atexit.o)
 .debug_frame   0x00008ac8       0x28 d:/elektronik/ides/chibistudio/tools/gnu tools arm embedded/4.6 2012q2/bin/../lib/gcc/arm-none-eabi/4.6.2/../../../../arm-none-eabi/lib/armv7e-m\libg.a(lib_a-exit.o)
 .debug_frame   0x00008af0       0x2c d:/elektronik/ides/chibistudio/tools/gnu tools arm embedded/4.6 2012q2/bin/../lib/gcc/arm-none-eabi/4.6.2/../../../../arm-none-eabi/lib/armv7e-m\libg.a(lib_a-fini.o)
 .debug_frame   0x00008b1c       0x58 d:/elektronik/ides/chibistudio/tools/gnu tools arm embedded/4.6 2012q2/bin/../lib/gcc/arm-none-eabi/4.6.2/../../../../arm-none-eabi/lib/armv7e-m\libg.a(lib_a-fiprintf.o)
 .debug_frame   0x00008b74       0x20 d:/elektronik/ides/chibistudio/tools/gnu tools arm embedded/4.6 2012q2/bin/../lib/gcc/arm-none-eabi/4.6.2/../../../../arm-none-eabi/lib/armv7e-m\libg.a(lib_a-gmtime.o)
 .debug_frame   0x00008b94       0x20 d:/elektronik/ides/chibistudio/tools/gnu tools arm embedded/4.6 2012q2/bin/../lib/gcc/arm-none-eabi/4.6.2/../../../../arm-none-eabi/lib/armv7e-m\libg.a(lib_a-gmtime_r.o)
 .debug_frame   0x00008bb4       0x2c d:/elektronik/ides/chibistudio/tools/gnu tools arm embedded/4.6 2012q2/bin/../lib/gcc/arm-none-eabi/4.6.2/../../../../arm-none-eabi/lib/armv7e-m\libg.a(lib_a-init.o)
 .debug_frame   0x00008be0       0x30 d:/elektronik/ides/chibistudio/tools/gnu tools arm embedded/4.6 2012q2/bin/../lib/gcc/arm-none-eabi/4.6.2/../../../../arm-none-eabi/lib/armv7e-m\libg.a(lib_a-malloc.o)
 .debug_frame   0x00008c10       0x38 d:/elektronik/ides/chibistudio/tools/gnu tools arm embedded/4.6 2012q2/bin/../lib/gcc/arm-none-eabi/4.6.2/../../../../arm-none-eabi/lib/armv7e-m\libg.a(lib_a-mallocr.o)
 .debug_frame   0x00008c48       0x2c d:/elektronik/ides/chibistudio/tools/gnu tools arm embedded/4.6 2012q2/bin/../lib/gcc/arm-none-eabi/4.6.2/../../../../arm-none-eabi/lib/armv7e-m\libg.a(lib_a-memcpy.o)
 .debug_frame   0x00008c74       0x2c d:/elektronik/ides/chibistudio/tools/gnu tools arm embedded/4.6 2012q2/bin/../lib/gcc/arm-none-eabi/4.6.2/../../../../arm-none-eabi/lib/armv7e-m\libg.a(lib_a-memmove.o)
 .debug_frame   0x00008ca0       0x2c d:/elektronik/ides/chibistudio/tools/gnu tools arm embedded/4.6 2012q2/bin/../lib/gcc/arm-none-eabi/4.6.2/../../../../arm-none-eabi/lib/armv7e-m\libg.a(lib_a-memset.o)
 .debug_frame   0x00008ccc       0x60 d:/elektronik/ides/chibistudio/tools/gnu tools arm embedded/4.6 2012q2/bin/../lib/gcc/arm-none-eabi/4.6.2/../../../../arm-none-eabi/lib/armv7e-m\libg.a(lib_a-mktime.o)
 .debug_frame   0x00008d2c       0x60 d:/elektronik/ides/chibistudio/tools/gnu tools arm embedded/4.6 2012q2/bin/../lib/gcc/arm-none-eabi/4.6.2/../../../../arm-none-eabi/lib/armv7e-m\libg.a(lib_a-mktm_r.o)
 .debug_frame   0x00008d8c       0x2c d:/elektronik/ides/chibistudio/tools/gnu tools arm embedded/4.6 2012q2/bin/../lib/gcc/arm-none-eabi/4.6.2/../../../../arm-none-eabi/lib/armv7e-m\libg.a(lib_a-sbrkr.o)
 .debug_frame   0x00008db8       0x60 d:/elektronik/ides/chibistudio/tools/gnu tools arm embedded/4.6 2012q2/bin/../lib/gcc/arm-none-eabi/4.6.2/../../../../arm-none-eabi/lib/armv7e-m\libg.a(lib_a-sprintf.o)
 .debug_frame   0x00008e18       0x2c d:/elektronik/ides/chibistudio/tools/gnu tools arm embedded/4.6 2012q2/bin/../lib/gcc/arm-none-eabi/4.6.2/../../../../arm-none-eabi/lib/armv7e-m\libg.a(lib_a-strcat.o)
 .debug_frame   0x00008e44       0x20 d:/elektronik/ides/chibistudio/tools/gnu tools arm embedded/4.6 2012q2/bin/../lib/gcc/arm-none-eabi/4.6.2/../../../../arm-none-eabi/lib/armv7e-m\libg.a(lib_a-strcpy.o)
 .debug_frame   0x00008e64       0x50 d:/elektronik/ides/chibistudio/tools/gnu tools arm embedded/4.6 2012q2/bin/../lib/gcc/arm-none-eabi/4.6.2/../../../../arm-none-eabi/lib/armv7e-m\libg.a(lib_a-strftime.o)
 .debug_frame   0x00008eb4       0x20 d:/elektronik/ides/chibistudio/tools/gnu tools arm embedded/4.6 2012q2/bin/../lib/gcc/arm-none-eabi/4.6.2/../../../../arm-none-eabi/lib/armv7e-m\libg.a(lib_a-strlen.o)
 .debug_frame   0x00008ed4       0x2c d:/elektronik/ides/chibistudio/tools/gnu tools arm embedded/4.6 2012q2/bin/../lib/gcc/arm-none-eabi/4.6.2/../../../../arm-none-eabi/lib/armv7e-m\libg.a(lib_a-strncpy.o)
 .debug_frame   0x00008f00       0x50 d:/elektronik/ides/chibistudio/tools/gnu tools arm embedded/4.6 2012q2/bin/../lib/gcc/arm-none-eabi/4.6.2/../../../../arm-none-eabi/lib/armv7e-m\libg.a(lib_a-strtoul.o)
 .debug_frame   0x00008f50       0x3c d:/elektronik/ides/chibistudio/tools/gnu tools arm embedded/4.6 2012q2/bin/../lib/gcc/arm-none-eabi/4.6.2/../../../../arm-none-eabi/lib/armv7e-m\libg.a(lib_a-svfprintf.o)
 .debug_frame   0x00008f8c       0x3c d:/elektronik/ides/chibistudio/tools/gnu tools arm embedded/4.6 2012q2/bin/../lib/gcc/arm-none-eabi/4.6.2/../../../../arm-none-eabi/lib/armv7e-m\libg.a(lib_a-timelocal.o)
 .debug_frame   0x00008fc8       0x20 d:/elektronik/ides/chibistudio/tools/gnu tools arm embedded/4.6 2012q2/bin/../lib/gcc/arm-none-eabi/4.6.2/../../../../arm-none-eabi/lib/armv7e-m\libg.a(lib_a-toupper.o)
 .debug_frame   0x00008fe8       0x30 d:/elektronik/ides/chibistudio/tools/gnu tools arm embedded/4.6 2012q2/bin/../lib/gcc/arm-none-eabi/4.6.2/../../../../arm-none-eabi/lib/armv7e-m\libg.a(lib_a-tzlock.o)
 .debug_frame   0x00009018       0x7c d:/elektronik/ides/chibistudio/tools/gnu tools arm embedded/4.6 2012q2/bin/../lib/gcc/arm-none-eabi/4.6.2/../../../../arm-none-eabi/lib/armv7e-m\libg.a(lib_a-vfiprintf.o)
 .debug_frame   0x00009094       0x2c d:/elektronik/ides/chibistudio/tools/gnu tools arm embedded/4.6 2012q2/bin/../lib/gcc/arm-none-eabi/4.6.2/../../../../arm-none-eabi/lib/armv7e-m\libg.a(lib_a-wsetup.o)
 .debug_frame   0x000090c0       0x34 d:/elektronik/ides/chibistudio/tools/gnu tools arm embedded/4.6 2012q2/bin/../lib/gcc/arm-none-eabi/4.6.2/../../../../arm-none-eabi/lib/armv7e-m\libg.a(lib_a-__atexit.o)
 .debug_frame   0x000090f4       0x48 d:/elektronik/ides/chibistudio/tools/gnu tools arm embedded/4.6 2012q2/bin/../lib/gcc/arm-none-eabi/4.6.2/../../../../arm-none-eabi/lib/armv7e-m\libg.a(lib_a-__call_atexit.o)
 .debug_frame   0x0000913c       0x28 d:/elektronik/ides/chibistudio/tools/gnu tools arm embedded/4.6 2012q2/bin/../lib/gcc/arm-none-eabi/4.6.2/../../../../arm-none-eabi/lib/armv7e-m\libg.a(lib_a-abort.o)
 .debug_frame   0x00009164       0x20 d:/elektronik/ides/chibistudio/tools/gnu tools arm embedded/4.6 2012q2/bin/../lib/gcc/arm-none-eabi/4.6.2/../../../../arm-none-eabi/lib/armv7e-m\libg.a(lib_a-abs.o)
 .debug_frame   0x00009184       0x28 d:/elektronik/ides/chibistudio/tools/gnu tools arm embedded/4.6 2012q2/bin/../lib/gcc/arm-none-eabi/4.6.2/../../../../arm-none-eabi/lib/armv7e-m\libg.a(lib_a-div.o)
 .debug_frame   0x000091ac       0x64 d:/elektronik/ides/chibistudio/tools/gnu tools arm embedded/4.6 2012q2/bin/../lib/gcc/arm-none-eabi/4.6.2/../../../../arm-none-eabi/lib/armv7e-m\libg.a(lib_a-dtoa.o)
 .debug_frame   0x00009210       0x40 d:/elektronik/ides/chibistudio/tools/gnu tools arm embedded/4.6 2012q2/bin/../lib/gcc/arm-none-eabi/4.6.2/../../../../arm-none-eabi/lib/armv7e-m\libg.a(lib_a-fflush.o)
 .debug_frame   0x00009250      0x11c d:/elektronik/ides/chibistudio/tools/gnu tools arm embedded/4.6 2012q2/bin/../lib/gcc/arm-none-eabi/4.6.2/../../../../arm-none-eabi/lib/armv7e-m\libg.a(lib_a-findfp.o)
 .debug_frame   0x0000936c       0x50 d:/elektronik/ides/chibistudio/tools/gnu tools arm embedded/4.6 2012q2/bin/../lib/gcc/arm-none-eabi/4.6.2/../../../../arm-none-eabi/lib/armv7e-m\libg.a(lib_a-fputwc.o)
 .debug_frame   0x000093bc       0x50 d:/elektronik/ides/chibistudio/tools/gnu tools arm embedded/4.6 2012q2/bin/../lib/gcc/arm-none-eabi/4.6.2/../../../../arm-none-eabi/lib/armv7e-m\libg.a(lib_a-freer.o)
 .debug_frame   0x0000940c       0x38 d:/elektronik/ides/chibistudio/tools/gnu tools arm embedded/4.6 2012q2/bin/../lib/gcc/arm-none-eabi/4.6.2/../../../../arm-none-eabi/lib/armv7e-m\libg.a(lib_a-fvwrite.o)
 .debug_frame   0x00009444       0x54 d:/elektronik/ides/chibistudio/tools/gnu tools arm embedded/4.6 2012q2/bin/../lib/gcc/arm-none-eabi/4.6.2/../../../../arm-none-eabi/lib/armv7e-m\libg.a(lib_a-fwalk.o)
 .debug_frame   0x00009498       0x20 d:/elektronik/ides/chibistudio/tools/gnu tools arm embedded/4.6 2012q2/bin/../lib/gcc/arm-none-eabi/4.6.2/../../../../arm-none-eabi/lib/armv7e-m\libg.a(lib_a-gettzinfo.o)
 .debug_frame   0x000094b8       0x20 d:/elektronik/ides/chibistudio/tools/gnu tools arm embedded/4.6 2012q2/bin/../lib/gcc/arm-none-eabi/4.6.2/../../../../arm-none-eabi/lib/armv7e-m\libg.a(lib_a-labs.o)
 .debug_frame   0x000094d8       0x40 d:/elektronik/ides/chibistudio/tools/gnu tools arm embedded/4.6 2012q2/bin/../lib/gcc/arm-none-eabi/4.6.2/../../../../arm-none-eabi/lib/armv7e-m\libg.a(lib_a-ldpart.o)
 .debug_frame   0x00009518       0x98 d:/elektronik/ides/chibistudio/tools/gnu tools arm embedded/4.6 2012q2/bin/../lib/gcc/arm-none-eabi/4.6.2/../../../../arm-none-eabi/lib/armv7e-m\libg.a(lib_a-locale.o)
 .debug_frame   0x000095b0       0x30 d:/elektronik/ides/chibistudio/tools/gnu tools arm embedded/4.6 2012q2/bin/../lib/gcc/arm-none-eabi/4.6.2/../../../../arm-none-eabi/lib/armv7e-m\libg.a(lib_a-makebuf.o)
 .debug_frame   0x000095e0       0x2c d:/elektronik/ides/chibistudio/tools/gnu tools arm embedded/4.6 2012q2/bin/../lib/gcc/arm-none-eabi/4.6.2/../../../../arm-none-eabi/lib/armv7e-m\libg.a(lib_a-memchr.o)
 .debug_frame   0x0000960c      0x228 d:/elektronik/ides/chibistudio/tools/gnu tools arm embedded/4.6 2012q2/bin/../lib/gcc/arm-none-eabi/4.6.2/../../../../arm-none-eabi/lib/armv7e-m\libg.a(lib_a-mprec.o)
 .debug_frame   0x00009834       0x20 d:/elektronik/ides/chibistudio/tools/gnu tools arm embedded/4.6 2012q2/bin/../lib/gcc/arm-none-eabi/4.6.2/../../../../arm-none-eabi/lib/armv7e-m\libg.a(lib_a-realloc.o)
 .debug_frame   0x00009854       0x38 d:/elektronik/ides/chibistudio/tools/gnu tools arm embedded/4.6 2012q2/bin/../lib/gcc/arm-none-eabi/4.6.2/../../../../arm-none-eabi/lib/armv7e-m\libg.a(lib_a-reallocr.o)
 .debug_frame   0x0000988c       0x68 d:/elektronik/ides/chibistudio/tools/gnu tools arm embedded/4.6 2012q2/bin/../lib/gcc/arm-none-eabi/4.6.2/../../../../arm-none-eabi/lib/armv7e-m\libg.a(lib_a-reent.o)
 .debug_frame   0x000098f4       0x20 d:/elektronik/ides/chibistudio/tools/gnu tools arm embedded/4.6 2012q2/bin/../lib/gcc/arm-none-eabi/4.6.2/../../../../arm-none-eabi/lib/armv7e-m\libg.a(lib_a-s_fpclassify.o)
 .debug_frame   0x00009914       0xc0 d:/elektronik/ides/chibistudio/tools/gnu tools arm embedded/4.6 2012q2/bin/../lib/gcc/arm-none-eabi/4.6.2/../../../../arm-none-eabi/lib/armv7e-m\libg.a(lib_a-signal.o)
 .debug_frame   0x000099d4       0x60 d:/elektronik/ides/chibistudio/tools/gnu tools arm embedded/4.6 2012q2/bin/../lib/gcc/arm-none-eabi/4.6.2/../../../../arm-none-eabi/lib/armv7e-m\libg.a(lib_a-snprintf.o)
 .debug_frame   0x00009a34       0x80 d:/elektronik/ides/chibistudio/tools/gnu tools arm embedded/4.6 2012q2/bin/../lib/gcc/arm-none-eabi/4.6.2/../../../../arm-none-eabi/lib/armv7e-m\libg.a(lib_a-stdio.o)
 .debug_frame   0x00009ab4       0x2c d:/elektronik/ides/chibistudio/tools/gnu tools arm embedded/4.6 2012q2/bin/../lib/gcc/arm-none-eabi/4.6.2/../../../../arm-none-eabi/lib/armv7e-m\libg.a(lib_a-strchr.o)
 .debug_frame   0x00009ae0       0x30 d:/elektronik/ides/chibistudio/tools/gnu tools arm embedded/4.6 2012q2/bin/../lib/gcc/arm-none-eabi/4.6.2/../../../../arm-none-eabi/lib/armv7e-m\libg.a(lib_a-strcmp.o)
 .debug_frame   0x00009b10       0x64 d:/elektronik/ides/chibistudio/tools/gnu tools arm embedded/4.6 2012q2/bin/../lib/gcc/arm-none-eabi/4.6.2/../../../../arm-none-eabi/lib/armv7e-m\libg.a(lib_a-svfiprintf.o)
 .debug_frame   0x00009b74       0x20 d:/elektronik/ides/chibistudio/tools/gnu tools arm embedded/4.6 2012q2/bin/../lib/gcc/arm-none-eabi/4.6.2/../../../../arm-none-eabi/lib/armv7e-m\libg.a(lib_a-sysclose.o)
 .debug_frame   0x00009b94       0x20 d:/elektronik/ides/chibistudio/tools/gnu tools arm embedded/4.6 2012q2/bin/../lib/gcc/arm-none-eabi/4.6.2/../../../../arm-none-eabi/lib/armv7e-m\libg.a(lib_a-sysfstat.o)
 .debug_frame   0x00009bb4       0x34 d:/elektronik/ides/chibistudio/tools/gnu tools arm embedded/4.6 2012q2/bin/../lib/gcc/arm-none-eabi/4.6.2/../../../../arm-none-eabi/lib/armv7e-m\libg.a(lib_a-sysopen.o)
 .debug_frame   0x00009be8       0x28 d:/elektronik/ides/chibistudio/tools/gnu tools arm embedded/4.6 2012q2/bin/../lib/gcc/arm-none-eabi/4.6.2/../../../../arm-none-eabi/lib/armv7e-m\libg.a(lib_a-sysread.o)
 .debug_frame   0x00009c10       0x3c d:/elektronik/ides/chibistudio/tools/gnu tools arm embedded/4.6 2012q2/bin/../lib/gcc/arm-none-eabi/4.6.2/../../../../arm-none-eabi/lib/armv7e-m\libg.a(lib_a-wbuf.o)
 .debug_frame   0x00009c4c       0x58 d:/elektronik/ides/chibistudio/tools/gnu tools arm embedded/4.6 2012q2/bin/../lib/gcc/arm-none-eabi/4.6.2/../../../../arm-none-eabi/lib/armv7e-m\libg.a(lib_a-wcrtomb.o)
 .debug_frame   0x00009ca4       0x44 d:/elektronik/ides/chibistudio/tools/gnu tools arm embedded/4.6 2012q2/bin/../lib/gcc/arm-none-eabi/4.6.2/../../../../arm-none-eabi/lib/armv7e-m\libg.a(lib_a-wctomb_r.o)
 .debug_frame   0x00009ce8       0x28 d:/elektronik/ides/chibistudio/tools/gnu tools arm embedded/4.6 2012q2/bin/../lib/gcc/arm-none-eabi/4.6.2/../../../../arm-none-eabi/lib/armv7e-m\libg.a(lib_a-callocr.o)
 .debug_frame   0x00009d10       0x3c d:/elektronik/ides/chibistudio/tools/gnu tools arm embedded/4.6 2012q2/bin/../lib/gcc/arm-none-eabi/4.6.2/../../../../arm-none-eabi/lib/armv7e-m\libg.a(lib_a-fclose.o)
 .debug_frame   0x00009d4c       0x2c d:/elektronik/ides/chibistudio/tools/gnu tools arm embedded/4.6 2012q2/bin/../lib/gcc/arm-none-eabi/4.6.2/../../../../arm-none-eabi/lib/armv7e-m\libg.a(lib_a-openr.o)
 .debug_frame   0x00009d78       0x50 d:/elektronik/ides/chibistudio/tools/gnu tools arm embedded/4.6 2012q2/bin/../lib/gcc/arm-none-eabi/4.6.2/armv7e-m\libgcc.a(bpabi.o)
 .debug_frame   0x00009dc8      0x26c d:/elektronik/ides/chibistudio/tools/gnu tools arm embedded/4.6 2012q2/bin/../lib/gcc/arm-none-eabi/4.6.2/armv7e-m\libgcc.a(unwind-arm.o)
 .debug_frame   0x0000a034       0xec d:/elektronik/ides/chibistudio/tools/gnu tools arm embedded/4.6 2012q2/bin/../lib/gcc/arm-none-eabi/4.6.2/armv7e-m\libgcc.a(pr-support.o)
 .debug_frame   0x0000a120       0x34 d:/elektronik/ides/chibistudio/tools/gnu tools arm embedded/4.6 2012q2/bin/../lib/gcc/arm-none-eabi/4.6.2/armv7e-m\libgcc.a(_divdi3.o)
 .debug_frame   0x0000a154       0x34 d:/elektronik/ides/chibistudio/tools/gnu tools arm embedded/4.6 2012q2/bin/../lib/gcc/arm-none-eabi/4.6.2/armv7e-m\libgcc.a(_udivdi3.o)

.debug_ranges   0x00000000      0x340
 .debug_ranges  0x00000000       0x28 ./Menue/CMenue.o
 .debug_ranges  0x00000028       0x50 ./FreeRTOS_EC/Source/AManagedTask.o
 .debug_ranges  0x00000078       0x28 ./FreeRTOS_EC/Source/ASyncObject.o
 .debug_ranges  0x000000a0       0x30 ./FreeRTOS_EC/Source/CBinarySemaphore.o
 .debug_ranges  0x000000d0       0x30 ./FreeRTOS_EC/Source/CCountingSemaphore.o
 .debug_ranges  0x00000100       0x78 ./FreeRTOS_EC/Source/CMessageTask.o
 .debug_ranges  0x00000178       0x30 ./FreeRTOS_EC/Source/CMutex.o
 .debug_ranges  0x000001a8       0x28 ./FreeRTOS_EC/Source/CQueue.o
 .debug_ranges  0x000001d0       0x30 ./FreeRTOS_EC/Source/CRecursiveMutex.o
 .debug_ranges  0x00000200       0x28 ./FreeRTOS_EC/Source/CTask.o
 .debug_ranges  0x00000228       0x28 ./Clock/CRTCHandler.o
 .debug_ranges  0x00000250       0x20 ./Clock/CRTCTime.o
 .debug_ranges  0x00000270       0x28 ./Audio_MP3/USB_MSC/CUSBMassStorage.o
 .debug_ranges  0x00000298       0x30 ./Audio_MP3/CFileHandler.o
 .debug_ranges  0x000002c8       0x28 ./CLedHeartBeatSTM32F4Disc.o
 .debug_ranges  0x000002f0       0x18 ./main.o
 .debug_ranges  0x00000308       0x20 ./startup_stm32f4xx.o
 .debug_ranges  0x00000328       0x18 ./ustime.o
