Archive member included because of file (symbol)

d:/elektronik/ides/eclipse/yagarto/bin/../lib/gcc/arm-none-eabi/4.6.2/../../../../arm-none-eabi/lib/thumb/v7m\libstdc++.a(atexit_arm.o)
                              ./main.o (__aeabi_atexit)
d:/elektronik/ides/eclipse/yagarto/bin/../lib/gcc/arm-none-eabi/4.6.2/../../../../arm-none-eabi/lib/thumb/v7m\libstdc++.a(del_op.o)
                              ./Menue/CMenue.o (operator delete(void*))
d:/elektronik/ides/eclipse/yagarto/bin/../lib/gcc/arm-none-eabi/4.6.2/../../../../arm-none-eabi/lib/thumb/v7m\libstdc++.a(pure.o)
                              ./GraphicLCD/CGraphicLCD.o (__cxa_pure_virtual)
d:/elektronik/ides/eclipse/yagarto/bin/../lib/gcc/arm-none-eabi/4.6.2/../../../../arm-none-eabi/lib/thumb/v7m\libstdc++.a(eh_terminate.o)
                              d:/elektronik/ides/eclipse/yagarto/bin/../lib/gcc/arm-none-eabi/4.6.2/../../../../arm-none-eabi/lib/thumb/v7m\libstdc++.a(pure.o) (std::terminate())
d:/elektronik/ides/eclipse/yagarto/bin/../lib/gcc/arm-none-eabi/4.6.2/../../../../arm-none-eabi/lib/thumb/v7m\libstdc++.a(eh_term_handler.o)
                              d:/elektronik/ides/eclipse/yagarto/bin/../lib/gcc/arm-none-eabi/4.6.2/../../../../arm-none-eabi/lib/thumb/v7m\libstdc++.a(eh_terminate.o) (__cxxabiv1::__terminate_handler)
d:/elektronik/ides/eclipse/yagarto/bin/../lib/gcc/arm-none-eabi/4.6.2/../../../../arm-none-eabi/lib/thumb/v7m\libstdc++.a(eh_unex_handler.o)
                              d:/elektronik/ides/eclipse/yagarto/bin/../lib/gcc/arm-none-eabi/4.6.2/../../../../arm-none-eabi/lib/thumb/v7m\libstdc++.a(eh_terminate.o) (__cxxabiv1::__unexpected_handler)
d:/elektronik/ides/eclipse/yagarto/bin/../lib/gcc/arm-none-eabi/4.6.2/../../../../arm-none-eabi/lib/thumb/v7m\libstdc++.a(vterminate.o)
                              d:/elektronik/ides/eclipse/yagarto/bin/../lib/gcc/arm-none-eabi/4.6.2/../../../../arm-none-eabi/lib/thumb/v7m\libstdc++.a(eh_term_handler.o) (__gnu_cxx::__verbose_terminate_handler())
d:/elektronik/ides/eclipse/yagarto/bin/../lib/gcc/arm-none-eabi/4.6.2/../../../../arm-none-eabi/lib/thumb/v7m\libstdc++.a(cp-demangle.o)
                              d:/elektronik/ides/eclipse/yagarto/bin/../lib/gcc/arm-none-eabi/4.6.2/../../../../arm-none-eabi/lib/thumb/v7m\libstdc++.a(vterminate.o) (__cxa_demangle)
d:/elektronik/ides/eclipse/yagarto/bin/../lib/gcc/arm-none-eabi/4.6.2/../../../../arm-none-eabi/lib/thumb/v7m\libstdc++.a(eh_arm.o)
                              d:/elektronik/ides/eclipse/yagarto/bin/../lib/gcc/arm-none-eabi/4.6.2/../../../../arm-none-eabi/lib/thumb/v7m\libstdc++.a(eh_terminate.o) (__cxa_end_cleanup)
d:/elektronik/ides/eclipse/yagarto/bin/../lib/gcc/arm-none-eabi/4.6.2/../../../../arm-none-eabi/lib/thumb/v7m\libstdc++.a(eh_aux_runtime.o)
                              d:/elektronik/ides/eclipse/yagarto/bin/../lib/gcc/arm-none-eabi/4.6.2/../../../../arm-none-eabi/lib/thumb/v7m\libstdc++.a(eh_arm.o) (__cxa_bad_typeid)
d:/elektronik/ides/eclipse/yagarto/bin/../lib/gcc/arm-none-eabi/4.6.2/../../../../arm-none-eabi/lib/thumb/v7m\libstdc++.a(eh_call.o)
                              d:/elektronik/ides/eclipse/yagarto/bin/../lib/gcc/arm-none-eabi/4.6.2/../../../../arm-none-eabi/lib/thumb/v7m\libstdc++.a(eh_terminate.o) (__cxa_call_unexpected)
d:/elektronik/ides/eclipse/yagarto/bin/../lib/gcc/arm-none-eabi/4.6.2/../../../../arm-none-eabi/lib/thumb/v7m\libstdc++.a(eh_catch.o)
                              d:/elektronik/ides/eclipse/yagarto/bin/../lib/gcc/arm-none-eabi/4.6.2/../../../../arm-none-eabi/lib/thumb/v7m\libstdc++.a(eh_terminate.o) (__cxa_begin_catch)
d:/elektronik/ides/eclipse/yagarto/bin/../lib/gcc/arm-none-eabi/4.6.2/../../../../arm-none-eabi/lib/thumb/v7m\libstdc++.a(eh_exception.o)
                              d:/elektronik/ides/eclipse/yagarto/bin/../lib/gcc/arm-none-eabi/4.6.2/../../../../arm-none-eabi/lib/thumb/v7m\libstdc++.a(vterminate.o) (typeinfo for std::exception)
d:/elektronik/ides/eclipse/yagarto/bin/../lib/gcc/arm-none-eabi/4.6.2/../../../../arm-none-eabi/lib/thumb/v7m\libstdc++.a(eh_globals.o)
                              d:/elektronik/ides/eclipse/yagarto/bin/../lib/gcc/arm-none-eabi/4.6.2/../../../../arm-none-eabi/lib/thumb/v7m\libstdc++.a(eh_call.o) (__cxa_get_globals_fast)
d:/elektronik/ides/eclipse/yagarto/bin/../lib/gcc/arm-none-eabi/4.6.2/../../../../arm-none-eabi/lib/thumb/v7m\libstdc++.a(eh_personality.o)
                              d:/elektronik/ides/eclipse/yagarto/bin/../lib/gcc/arm-none-eabi/4.6.2/../../../../arm-none-eabi/lib/thumb/v7m\libstdc++.a(eh_terminate.o) (__gxx_personality_v0)
d:/elektronik/ides/eclipse/yagarto/bin/../lib/gcc/arm-none-eabi/4.6.2/../../../../arm-none-eabi/lib/thumb/v7m\libstdc++.a(eh_throw.o)
                              d:/elektronik/ides/eclipse/yagarto/bin/../lib/gcc/arm-none-eabi/4.6.2/../../../../arm-none-eabi/lib/thumb/v7m\libstdc++.a(eh_aux_runtime.o) (__cxa_throw)
d:/elektronik/ides/eclipse/yagarto/bin/../lib/gcc/arm-none-eabi/4.6.2/../../../../arm-none-eabi/lib/thumb/v7m\libstdc++.a(eh_type.o)
                              d:/elektronik/ides/eclipse/yagarto/bin/../lib/gcc/arm-none-eabi/4.6.2/../../../../arm-none-eabi/lib/thumb/v7m\libstdc++.a(vterminate.o) (__cxa_current_exception_type)
d:/elektronik/ides/eclipse/yagarto/bin/../lib/gcc/arm-none-eabi/4.6.2/../../../../arm-none-eabi/lib/thumb/v7m\libstdc++.a(fundamental_type_info.o)
                              d:/elektronik/ides/eclipse/yagarto/bin/../lib/gcc/arm-none-eabi/4.6.2/../../../../arm-none-eabi/lib/thumb/v7m\libstdc++.a(eh_arm.o) (typeinfo for void)
d:/elektronik/ides/eclipse/yagarto/bin/../lib/gcc/arm-none-eabi/4.6.2/../../../../arm-none-eabi/lib/thumb/v7m\libstdc++.a(pointer_type_info.o)
                              d:/elektronik/ides/eclipse/yagarto/bin/../lib/gcc/arm-none-eabi/4.6.2/../../../../arm-none-eabi/lib/thumb/v7m\libstdc++.a(fundamental_type_info.o) (vtable for __cxxabiv1::__pointer_type_info)
d:/elektronik/ides/eclipse/yagarto/bin/../lib/gcc/arm-none-eabi/4.6.2/../../../../arm-none-eabi/lib/thumb/v7m\libstdc++.a(si_class_type_info.o)
                              d:/elektronik/ides/eclipse/yagarto/bin/../lib/gcc/arm-none-eabi/4.6.2/../../../../arm-none-eabi/lib/thumb/v7m\libstdc++.a(eh_exception.o) (vtable for __cxxabiv1::__si_class_type_info)
d:/elektronik/ides/eclipse/yagarto/bin/../lib/gcc/arm-none-eabi/4.6.2/../../../../arm-none-eabi/lib/thumb/v7m\libstdc++.a(tinfo.o)
                              d:/elektronik/ides/eclipse/yagarto/bin/../lib/gcc/arm-none-eabi/4.6.2/../../../../arm-none-eabi/lib/thumb/v7m\libstdc++.a(fundamental_type_info.o) (std::type_info::~type_info())
d:/elektronik/ides/eclipse/yagarto/bin/../lib/gcc/arm-none-eabi/4.6.2/../../../../arm-none-eabi/lib/thumb/v7m\libstdc++.a(bad_cast.o)
                              d:/elektronik/ides/eclipse/yagarto/bin/../lib/gcc/arm-none-eabi/4.6.2/../../../../arm-none-eabi/lib/thumb/v7m\libstdc++.a(eh_aux_runtime.o) (typeinfo for std::bad_cast)
d:/elektronik/ides/eclipse/yagarto/bin/../lib/gcc/arm-none-eabi/4.6.2/../../../../arm-none-eabi/lib/thumb/v7m\libstdc++.a(bad_typeid.o)
                              d:/elektronik/ides/eclipse/yagarto/bin/../lib/gcc/arm-none-eabi/4.6.2/../../../../arm-none-eabi/lib/thumb/v7m\libstdc++.a(eh_aux_runtime.o) (typeinfo for std::bad_typeid)
d:/elektronik/ides/eclipse/yagarto/bin/../lib/gcc/arm-none-eabi/4.6.2/../../../../arm-none-eabi/lib/thumb/v7m\libstdc++.a(class_type_info.o)
                              d:/elektronik/ides/eclipse/yagarto/bin/../lib/gcc/arm-none-eabi/4.6.2/../../../../arm-none-eabi/lib/thumb/v7m\libstdc++.a(si_class_type_info.o) (__cxxabiv1::__class_type_info::__do_upcast(__cxxabiv1::__class_type_info const*, void**) const)
d:/elektronik/ides/eclipse/yagarto/bin/../lib/gcc/arm-none-eabi/4.6.2/../../../../arm-none-eabi/lib/thumb/v7m\libstdc++.a(eh_alloc.o)
                              d:/elektronik/ides/eclipse/yagarto/bin/../lib/gcc/arm-none-eabi/4.6.2/../../../../arm-none-eabi/lib/thumb/v7m\libstdc++.a(eh_aux_runtime.o) (__cxa_allocate_exception)
d:/elektronik/ides/eclipse/yagarto/bin/../lib/gcc/arm-none-eabi/4.6.2/../../../../arm-none-eabi/lib/thumb/v7m\libstdc++.a(pbase_type_info.o)
                              d:/elektronik/ides/eclipse/yagarto/bin/../lib/gcc/arm-none-eabi/4.6.2/../../../../arm-none-eabi/lib/thumb/v7m\libstdc++.a(pointer_type_info.o) (__cxxabiv1::__pbase_type_info::~__pbase_type_info())
d:/elektronik/ides/eclipse/yagarto/bin/../lib/gcc/arm-none-eabi/4.6.2/thumb/v7m\libgcc.a(unwind-arm.o)
                              d:/elektronik/ides/eclipse/yagarto/bin/../lib/gcc/arm-none-eabi/4.6.2/../../../../arm-none-eabi/lib/thumb/v7m\libstdc++.a(eh_arm.o) (__aeabi_unwind_cpp_pr0)
d:/elektronik/ides/eclipse/yagarto/bin/../lib/gcc/arm-none-eabi/4.6.2/thumb/v7m\libgcc.a(libunwind.o)
                              d:/elektronik/ides/eclipse/yagarto/bin/../lib/gcc/arm-none-eabi/4.6.2/thumb/v7m\libgcc.a(unwind-arm.o) (restore_core_regs)
d:/elektronik/ides/eclipse/yagarto/bin/../lib/gcc/arm-none-eabi/4.6.2/thumb/v7m\libgcc.a(pr-support.o)
                              d:/elektronik/ides/eclipse/yagarto/bin/../lib/gcc/arm-none-eabi/4.6.2/thumb/v7m\libgcc.a(unwind-arm.o) (__gnu_unwind_execute)
d:/elektronik/ides/eclipse/yagarto/bin/../lib/gcc/arm-none-eabi/4.6.2/../../../../arm-none-eabi/lib/thumb/v7m\libg.a(lib_a-abort.o)
                              d:/elektronik/ides/eclipse/yagarto/bin/../lib/gcc/arm-none-eabi/4.6.2/../../../../arm-none-eabi/lib/thumb/v7m\libstdc++.a(eh_terminate.o) (abort)
d:/elektronik/ides/eclipse/yagarto/bin/../lib/gcc/arm-none-eabi/4.6.2/../../../../arm-none-eabi/lib/thumb/v7m\libg.a(lib_a-assert.o)
                              ./FreeRTOS_EC/Source/ASyncObject.o (__assert_func)
d:/elektronik/ides/eclipse/yagarto/bin/../lib/gcc/arm-none-eabi/4.6.2/../../../../arm-none-eabi/lib/thumb/v7m\libg.a(lib_a-atexit.o)
                              d:/elektronik/ides/eclipse/yagarto/bin/../lib/gcc/arm-none-eabi/4.6.2/../../../../arm-none-eabi/lib/thumb/v7m/crt0.o (atexit)
d:/elektronik/ides/eclipse/yagarto/bin/../lib/gcc/arm-none-eabi/4.6.2/../../../../arm-none-eabi/lib/thumb/v7m\libg.a(lib_a-cxa_atexit.o)
                              d:/elektronik/ides/eclipse/yagarto/bin/../lib/gcc/arm-none-eabi/4.6.2/../../../../arm-none-eabi/lib/thumb/v7m\libstdc++.a(atexit_arm.o) (__cxa_atexit)
d:/elektronik/ides/eclipse/yagarto/bin/../lib/gcc/arm-none-eabi/4.6.2/../../../../arm-none-eabi/lib/thumb/v7m\libg.a(lib_a-exit.o)
                              d:/elektronik/ides/eclipse/yagarto/bin/../lib/gcc/arm-none-eabi/4.6.2/../../../../arm-none-eabi/lib/thumb/v7m/crt0.o (exit)
d:/elektronik/ides/eclipse/yagarto/bin/../lib/gcc/arm-none-eabi/4.6.2/../../../../arm-none-eabi/lib/thumb/v7m\libg.a(lib_a-fini.o)
                              d:/elektronik/ides/eclipse/yagarto/bin/../lib/gcc/arm-none-eabi/4.6.2/../../../../arm-none-eabi/lib/thumb/v7m/crt0.o (__libc_fini_array)
d:/elektronik/ides/eclipse/yagarto/bin/../lib/gcc/arm-none-eabi/4.6.2/../../../../arm-none-eabi/lib/thumb/v7m\libg.a(lib_a-fiprintf.o)
                              d:/elektronik/ides/eclipse/yagarto/bin/../lib/gcc/arm-none-eabi/4.6.2/../../../../arm-none-eabi/lib/thumb/v7m\libg.a(lib_a-assert.o) (fiprintf)
d:/elektronik/ides/eclipse/yagarto/bin/../lib/gcc/arm-none-eabi/4.6.2/../../../../arm-none-eabi/lib/thumb/v7m\libg.a(lib_a-fputc.o)
                              d:/elektronik/ides/eclipse/yagarto/bin/../lib/gcc/arm-none-eabi/4.6.2/../../../../arm-none-eabi/lib/thumb/v7m\libstdc++.a(vterminate.o) (fputc)
d:/elektronik/ides/eclipse/yagarto/bin/../lib/gcc/arm-none-eabi/4.6.2/../../../../arm-none-eabi/lib/thumb/v7m\libg.a(lib_a-fputs.o)
                              d:/elektronik/ides/eclipse/yagarto/bin/../lib/gcc/arm-none-eabi/4.6.2/../../../../arm-none-eabi/lib/thumb/v7m\libstdc++.a(vterminate.o) (fputs)
d:/elektronik/ides/eclipse/yagarto/bin/../lib/gcc/arm-none-eabi/4.6.2/../../../../arm-none-eabi/lib/thumb/v7m\libg.a(lib_a-fvwrite.o)
                              d:/elektronik/ides/eclipse/yagarto/bin/../lib/gcc/arm-none-eabi/4.6.2/../../../../arm-none-eabi/lib/thumb/v7m\libg.a(lib_a-fputs.o) (__sfvwrite_r)
d:/elektronik/ides/eclipse/yagarto/bin/../lib/gcc/arm-none-eabi/4.6.2/../../../../arm-none-eabi/lib/thumb/v7m\libg.a(lib_a-fwrite.o)
                              d:/elektronik/ides/eclipse/yagarto/bin/../lib/gcc/arm-none-eabi/4.6.2/../../../../arm-none-eabi/lib/thumb/v7m\libstdc++.a(vterminate.o) (fwrite)
d:/elektronik/ides/eclipse/yagarto/bin/../lib/gcc/arm-none-eabi/4.6.2/../../../../arm-none-eabi/lib/thumb/v7m\libg.a(lib_a-impure.o)
                              d:/elektronik/ides/eclipse/yagarto/bin/../lib/gcc/arm-none-eabi/4.6.2/../../../../arm-none-eabi/lib/thumb/v7m\libg.a(lib_a-exit.o) (_global_impure_ptr)
d:/elektronik/ides/eclipse/yagarto/bin/../lib/gcc/arm-none-eabi/4.6.2/../../../../arm-none-eabi/lib/thumb/v7m\libg.a(lib_a-init.o)
                              d:/elektronik/ides/eclipse/yagarto/bin/../lib/gcc/arm-none-eabi/4.6.2/../../../../arm-none-eabi/lib/thumb/v7m/crt0.o (__libc_init_array)
d:/elektronik/ides/eclipse/yagarto/bin/../lib/gcc/arm-none-eabi/4.6.2/../../../../arm-none-eabi/lib/thumb/v7m\libg.a(lib_a-malloc.o)
                              ./FreeRTOS/Source/croutine.o (malloc)
d:/elektronik/ides/eclipse/yagarto/bin/../lib/gcc/arm-none-eabi/4.6.2/../../../../arm-none-eabi/lib/thumb/v7m\libg.a(lib_a-mallocr.o)
                              d:/elektronik/ides/eclipse/yagarto/bin/../lib/gcc/arm-none-eabi/4.6.2/../../../../arm-none-eabi/lib/thumb/v7m\libg.a(lib_a-fvwrite.o) (_malloc_r)
d:/elektronik/ides/eclipse/yagarto/bin/../lib/gcc/arm-none-eabi/4.6.2/../../../../arm-none-eabi/lib/thumb/v7m\libg.a(lib_a-memchr.o)
                              d:/elektronik/ides/eclipse/yagarto/bin/../lib/gcc/arm-none-eabi/4.6.2/../../../../arm-none-eabi/lib/thumb/v7m\libg.a(lib_a-fvwrite.o) (memchr)
d:/elektronik/ides/eclipse/yagarto/bin/../lib/gcc/arm-none-eabi/4.6.2/../../../../arm-none-eabi/lib/thumb/v7m\libg.a(lib_a-memcmp.o)
                              d:/elektronik/ides/eclipse/yagarto/bin/../lib/gcc/arm-none-eabi/4.6.2/../../../../arm-none-eabi/lib/thumb/v7m\libstdc++.a(cp-demangle.o) (memcmp)
d:/elektronik/ides/eclipse/yagarto/bin/../lib/gcc/arm-none-eabi/4.6.2/../../../../arm-none-eabi/lib/thumb/v7m\libg.a(lib_a-memcpy.o)
                              ./FreeRTOS/Source/queue.o (memcpy)
d:/elektronik/ides/eclipse/yagarto/bin/../lib/gcc/arm-none-eabi/4.6.2/../../../../arm-none-eabi/lib/thumb/v7m\libg.a(lib_a-memmove.o)
                              d:/elektronik/ides/eclipse/yagarto/bin/../lib/gcc/arm-none-eabi/4.6.2/../../../../arm-none-eabi/lib/thumb/v7m\libg.a(lib_a-fvwrite.o) (memmove)
d:/elektronik/ides/eclipse/yagarto/bin/../lib/gcc/arm-none-eabi/4.6.2/../../../../arm-none-eabi/lib/thumb/v7m\libg.a(lib_a-memset.o)
                              d:/elektronik/ides/eclipse/yagarto/bin/../lib/gcc/arm-none-eabi/4.6.2/../../../../arm-none-eabi/lib/thumb/v7m/crt0.o (memset)
d:/elektronik/ides/eclipse/yagarto/bin/../lib/gcc/arm-none-eabi/4.6.2/../../../../arm-none-eabi/lib/thumb/v7m\libg.a(lib_a-putc.o)
                              d:/elektronik/ides/eclipse/yagarto/bin/../lib/gcc/arm-none-eabi/4.6.2/../../../../arm-none-eabi/lib/thumb/v7m\libg.a(lib_a-fputc.o) (_putc_r)
d:/elektronik/ides/eclipse/yagarto/bin/../lib/gcc/arm-none-eabi/4.6.2/../../../../arm-none-eabi/lib/thumb/v7m\libg.a(lib_a-realloc.o)
                              d:/elektronik/ides/eclipse/yagarto/bin/../lib/gcc/arm-none-eabi/4.6.2/../../../../arm-none-eabi/lib/thumb/v7m\libstdc++.a(cp-demangle.o) (realloc)
d:/elektronik/ides/eclipse/yagarto/bin/../lib/gcc/arm-none-eabi/4.6.2/../../../../arm-none-eabi/lib/thumb/v7m\libg.a(lib_a-reallocr.o)
                              d:/elektronik/ides/eclipse/yagarto/bin/../lib/gcc/arm-none-eabi/4.6.2/../../../../arm-none-eabi/lib/thumb/v7m\libg.a(lib_a-fvwrite.o) (_realloc_r)
d:/elektronik/ides/eclipse/yagarto/bin/../lib/gcc/arm-none-eabi/4.6.2/../../../../arm-none-eabi/lib/thumb/v7m\libg.a(lib_a-signal.o)
                              d:/elektronik/ides/eclipse/yagarto/bin/../lib/gcc/arm-none-eabi/4.6.2/../../../../arm-none-eabi/lib/thumb/v7m\libg.a(lib_a-abort.o) (raise)
d:/elektronik/ides/eclipse/yagarto/bin/../lib/gcc/arm-none-eabi/4.6.2/../../../../arm-none-eabi/lib/thumb/v7m\libg.a(lib_a-sprintf.o)
                              ./FreeRTOS/Source/tasks.o (sprintf)
d:/elektronik/ides/eclipse/yagarto/bin/../lib/gcc/arm-none-eabi/4.6.2/../../../../arm-none-eabi/lib/thumb/v7m\libg.a(lib_a-strcat.o)
                              ./FreeRTOS/Source/tasks.o (strcat)
d:/elektronik/ides/eclipse/yagarto/bin/../lib/gcc/arm-none-eabi/4.6.2/../../../../arm-none-eabi/lib/thumb/v7m\libg.a(lib_a-strcmp.o)
                              d:/elektronik/ides/eclipse/yagarto/bin/../lib/gcc/arm-none-eabi/4.6.2/../../../../arm-none-eabi/lib/thumb/v7m\libstdc++.a(cp-demangle.o) (strcmp)
d:/elektronik/ides/eclipse/yagarto/bin/../lib/gcc/arm-none-eabi/4.6.2/../../../../arm-none-eabi/lib/thumb/v7m\libg.a(lib_a-strcpy.o)
                              d:/elektronik/ides/eclipse/yagarto/bin/../lib/gcc/arm-none-eabi/4.6.2/../../../../arm-none-eabi/lib/thumb/v7m\libstdc++.a(cp-demangle.o) (strcpy)
d:/elektronik/ides/eclipse/yagarto/bin/../lib/gcc/arm-none-eabi/4.6.2/../../../../arm-none-eabi/lib/thumb/v7m\libg.a(lib_a-strlen.o)
                              ./FreeRTOS/Source/tasks.o (strlen)
d:/elektronik/ides/eclipse/yagarto/bin/../lib/gcc/arm-none-eabi/4.6.2/../../../../arm-none-eabi/lib/thumb/v7m\libg.a(lib_a-strncmp.o)
                              d:/elektronik/ides/eclipse/yagarto/bin/../lib/gcc/arm-none-eabi/4.6.2/../../../../arm-none-eabi/lib/thumb/v7m\libstdc++.a(cp-demangle.o) (strncmp)
d:/elektronik/ides/eclipse/yagarto/bin/../lib/gcc/arm-none-eabi/4.6.2/../../../../arm-none-eabi/lib/thumb/v7m\libg.a(lib_a-strncpy.o)
                              ./FreeRTOS/Source/tasks.o (strncpy)
d:/elektronik/ides/eclipse/yagarto/bin/../lib/gcc/arm-none-eabi/4.6.2/../../../../arm-none-eabi/lib/thumb/v7m\libg.a(lib_a-svfprintf.o)
                              d:/elektronik/ides/eclipse/yagarto/bin/../lib/gcc/arm-none-eabi/4.6.2/../../../../arm-none-eabi/lib/thumb/v7m\libg.a(lib_a-sprintf.o) (_svfprintf_r)
d:/elektronik/ides/eclipse/yagarto/bin/../lib/gcc/arm-none-eabi/4.6.2/../../../../arm-none-eabi/lib/thumb/v7m\libg.a(lib_a-syswrite.o)
                              d:/elektronik/ides/eclipse/yagarto/bin/../lib/gcc/arm-none-eabi/4.6.2/../../../../arm-none-eabi/lib/thumb/v7m\libstdc++.a(pure.o) (write)
d:/elektronik/ides/eclipse/yagarto/bin/../lib/gcc/arm-none-eabi/4.6.2/../../../../arm-none-eabi/lib/thumb/v7m\libg.a(lib_a-vfiprintf.o)
                              d:/elektronik/ides/eclipse/yagarto/bin/../lib/gcc/arm-none-eabi/4.6.2/../../../../arm-none-eabi/lib/thumb/v7m\libg.a(lib_a-fiprintf.o) (_vfiprintf_r)
d:/elektronik/ides/eclipse/yagarto/bin/../lib/gcc/arm-none-eabi/4.6.2/../../../../arm-none-eabi/lib/thumb/v7m\libg.a(lib_a-wbuf.o)
                              d:/elektronik/ides/eclipse/yagarto/bin/../lib/gcc/arm-none-eabi/4.6.2/../../../../arm-none-eabi/lib/thumb/v7m\libg.a(lib_a-putc.o) (__swbuf_r)
d:/elektronik/ides/eclipse/yagarto/bin/../lib/gcc/arm-none-eabi/4.6.2/../../../../arm-none-eabi/lib/thumb/v7m\libg.a(lib_a-wsetup.o)
                              d:/elektronik/ides/eclipse/yagarto/bin/../lib/gcc/arm-none-eabi/4.6.2/../../../../arm-none-eabi/lib/thumb/v7m\libg.a(lib_a-fvwrite.o) (__swsetup_r)
d:/elektronik/ides/eclipse/yagarto/bin/../lib/gcc/arm-none-eabi/4.6.2/../../../../arm-none-eabi/lib/thumb/v7m\libg.a(lib_a-__atexit.o)
                              d:/elektronik/ides/eclipse/yagarto/bin/../lib/gcc/arm-none-eabi/4.6.2/../../../../arm-none-eabi/lib/thumb/v7m\libg.a(lib_a-atexit.o) (__register_exitproc)
d:/elektronik/ides/eclipse/yagarto/bin/../lib/gcc/arm-none-eabi/4.6.2/../../../../arm-none-eabi/lib/thumb/v7m\libg.a(lib_a-__call_atexit.o)
                              d:/elektronik/ides/eclipse/yagarto/bin/../lib/gcc/arm-none-eabi/4.6.2/../../../../arm-none-eabi/lib/thumb/v7m\libg.a(lib_a-exit.o) (__call_exitprocs)
d:/elektronik/ides/eclipse/yagarto/bin/../lib/gcc/arm-none-eabi/4.6.2/../../../../arm-none-eabi/lib/thumb/v7m\libg.a(lib_a-dtoa.o)
                              d:/elektronik/ides/eclipse/yagarto/bin/../lib/gcc/arm-none-eabi/4.6.2/../../../../arm-none-eabi/lib/thumb/v7m\libg.a(lib_a-svfprintf.o) (_dtoa_r)
d:/elektronik/ides/eclipse/yagarto/bin/../lib/gcc/arm-none-eabi/4.6.2/../../../../arm-none-eabi/lib/thumb/v7m\libg.a(lib_a-fflush.o)
                              d:/elektronik/ides/eclipse/yagarto/bin/../lib/gcc/arm-none-eabi/4.6.2/../../../../arm-none-eabi/lib/thumb/v7m\libg.a(lib_a-fvwrite.o) (_fflush_r)
d:/elektronik/ides/eclipse/yagarto/bin/../lib/gcc/arm-none-eabi/4.6.2/../../../../arm-none-eabi/lib/thumb/v7m\libg.a(lib_a-findfp.o)
                              d:/elektronik/ides/eclipse/yagarto/bin/../lib/gcc/arm-none-eabi/4.6.2/../../../../arm-none-eabi/lib/thumb/v7m\libg.a(lib_a-fputc.o) (__sinit)
d:/elektronik/ides/eclipse/yagarto/bin/../lib/gcc/arm-none-eabi/4.6.2/../../../../arm-none-eabi/lib/thumb/v7m\libg.a(lib_a-fputwc.o)
                              d:/elektronik/ides/eclipse/yagarto/bin/../lib/gcc/arm-none-eabi/4.6.2/../../../../arm-none-eabi/lib/thumb/v7m\libg.a(lib_a-vfiprintf.o) (_fputwc_r)
d:/elektronik/ides/eclipse/yagarto/bin/../lib/gcc/arm-none-eabi/4.6.2/../../../../arm-none-eabi/lib/thumb/v7m\libg.a(lib_a-freer.o)
                              d:/elektronik/ides/eclipse/yagarto/bin/../lib/gcc/arm-none-eabi/4.6.2/../../../../arm-none-eabi/lib/thumb/v7m\libg.a(lib_a-fvwrite.o) (_free_r)
d:/elektronik/ides/eclipse/yagarto/bin/../lib/gcc/arm-none-eabi/4.6.2/../../../../arm-none-eabi/lib/thumb/v7m\libg.a(lib_a-fwalk.o)
                              d:/elektronik/ides/eclipse/yagarto/bin/../lib/gcc/arm-none-eabi/4.6.2/../../../../arm-none-eabi/lib/thumb/v7m\libg.a(lib_a-findfp.o) (_fwalk)
d:/elektronik/ides/eclipse/yagarto/bin/../lib/gcc/arm-none-eabi/4.6.2/../../../../arm-none-eabi/lib/thumb/v7m\libg.a(lib_a-locale.o)
                              d:/elektronik/ides/eclipse/yagarto/bin/../lib/gcc/arm-none-eabi/4.6.2/../../../../arm-none-eabi/lib/thumb/v7m\libg.a(lib_a-fputwc.o) (__locale_mb_cur_max)
d:/elektronik/ides/eclipse/yagarto/bin/../lib/gcc/arm-none-eabi/4.6.2/../../../../arm-none-eabi/lib/thumb/v7m\libg.a(lib_a-makebuf.o)
                              d:/elektronik/ides/eclipse/yagarto/bin/../lib/gcc/arm-none-eabi/4.6.2/../../../../arm-none-eabi/lib/thumb/v7m\libg.a(lib_a-wsetup.o) (__smakebuf_r)
d:/elektronik/ides/eclipse/yagarto/bin/../lib/gcc/arm-none-eabi/4.6.2/../../../../arm-none-eabi/lib/thumb/v7m\libg.a(lib_a-mprec.o)
                              d:/elektronik/ides/eclipse/yagarto/bin/../lib/gcc/arm-none-eabi/4.6.2/../../../../arm-none-eabi/lib/thumb/v7m\libg.a(lib_a-dtoa.o) (_Balloc)
d:/elektronik/ides/eclipse/yagarto/bin/../lib/gcc/arm-none-eabi/4.6.2/../../../../arm-none-eabi/lib/thumb/v7m\libg.a(lib_a-s_fpclassify.o)
                              d:/elektronik/ides/eclipse/yagarto/bin/../lib/gcc/arm-none-eabi/4.6.2/../../../../arm-none-eabi/lib/thumb/v7m\libg.a(lib_a-svfprintf.o) (__fpclassifyd)
d:/elektronik/ides/eclipse/yagarto/bin/../lib/gcc/arm-none-eabi/4.6.2/../../../../arm-none-eabi/lib/thumb/v7m\libg.a(lib_a-stdio.o)
                              d:/elektronik/ides/eclipse/yagarto/bin/../lib/gcc/arm-none-eabi/4.6.2/../../../../arm-none-eabi/lib/thumb/v7m\libg.a(lib_a-findfp.o) (__sread)
d:/elektronik/ides/eclipse/yagarto/bin/../lib/gcc/arm-none-eabi/4.6.2/../../../../arm-none-eabi/lib/thumb/v7m\libg.a(lib_a-svfiprintf.o)
                              d:/elektronik/ides/eclipse/yagarto/bin/../lib/gcc/arm-none-eabi/4.6.2/../../../../arm-none-eabi/lib/thumb/v7m\libg.a(lib_a-svfprintf.o) (__ssprint_r)
d:/elektronik/ides/eclipse/yagarto/bin/../lib/gcc/arm-none-eabi/4.6.2/../../../../arm-none-eabi/lib/thumb/v7m\libg.a(lib_a-wcrtomb.o)
                              d:/elektronik/ides/eclipse/yagarto/bin/../lib/gcc/arm-none-eabi/4.6.2/../../../../arm-none-eabi/lib/thumb/v7m\libg.a(lib_a-fputwc.o) (_wcrtomb_r)
d:/elektronik/ides/eclipse/yagarto/bin/../lib/gcc/arm-none-eabi/4.6.2/../../../../arm-none-eabi/lib/thumb/v7m\libg.a(lib_a-wctomb_r.o)
                              d:/elektronik/ides/eclipse/yagarto/bin/../lib/gcc/arm-none-eabi/4.6.2/../../../../arm-none-eabi/lib/thumb/v7m\libg.a(lib_a-wcrtomb.o) (__wctomb)
d:/elektronik/ides/eclipse/yagarto/bin/../lib/gcc/arm-none-eabi/4.6.2/../../../../arm-none-eabi/lib/thumb/v7m\libg.a(lib_a-callocr.o)
                              d:/elektronik/ides/eclipse/yagarto/bin/../lib/gcc/arm-none-eabi/4.6.2/../../../../arm-none-eabi/lib/thumb/v7m\libg.a(lib_a-mprec.o) (_calloc_r)
d:/elektronik/ides/eclipse/yagarto/bin/../lib/gcc/arm-none-eabi/4.6.2/../../../../arm-none-eabi/lib/thumb/v7m\libg.a(lib_a-fclose.o)
                              d:/elektronik/ides/eclipse/yagarto/bin/../lib/gcc/arm-none-eabi/4.6.2/../../../../arm-none-eabi/lib/thumb/v7m\libg.a(lib_a-findfp.o) (fclose)
d:/elektronik/ides/eclipse/yagarto/bin/../lib/gcc/arm-none-eabi/4.6.2/thumb/v7m\libgcc.a(_udivsi3.o)
                              d:/elektronik/ides/eclipse/yagarto/bin/../lib/gcc/arm-none-eabi/4.6.2/../../../../arm-none-eabi/lib/thumb/v7m\libg.a(lib_a-fwrite.o) (__aeabi_uidiv)
d:/elektronik/ides/eclipse/yagarto/bin/../lib/gcc/arm-none-eabi/4.6.2/thumb/v7m\libgcc.a(_dvmd_tls.o)
                              d:/elektronik/ides/eclipse/yagarto/bin/../lib/gcc/arm-none-eabi/4.6.2/thumb/v7m\libgcc.a(_udivsi3.o) (__aeabi_idiv0)
d:/elektronik/ides/eclipse/yagarto/bin/../lib/gcc/arm-none-eabi/4.6.2/thumb/v7m\libgcc.a(_arm_addsubdf3.o)
                              d:/elektronik/ides/eclipse/yagarto/bin/../lib/gcc/arm-none-eabi/4.6.2/../../../../arm-none-eabi/lib/thumb/v7m\libg.a(lib_a-dtoa.o) (__aeabi_dsub)
d:/elektronik/ides/eclipse/yagarto/bin/../lib/gcc/arm-none-eabi/4.6.2/thumb/v7m\libgcc.a(_arm_muldivdf3.o)
                              d:/elektronik/ides/eclipse/yagarto/bin/../lib/gcc/arm-none-eabi/4.6.2/../../../../arm-none-eabi/lib/thumb/v7m\libg.a(lib_a-dtoa.o) (__aeabi_dmul)
d:/elektronik/ides/eclipse/yagarto/bin/../lib/gcc/arm-none-eabi/4.6.2/thumb/v7m\libgcc.a(_arm_cmpdf2.o)
                              d:/elektronik/ides/eclipse/yagarto/bin/../lib/gcc/arm-none-eabi/4.6.2/../../../../arm-none-eabi/lib/thumb/v7m\libg.a(lib_a-svfprintf.o) (__aeabi_dcmpeq)
d:/elektronik/ides/eclipse/yagarto/bin/../lib/gcc/arm-none-eabi/4.6.2/thumb/v7m\libgcc.a(_arm_fixdfsi.o)
                              d:/elektronik/ides/eclipse/yagarto/bin/../lib/gcc/arm-none-eabi/4.6.2/../../../../arm-none-eabi/lib/thumb/v7m\libg.a(lib_a-dtoa.o) (__aeabi_d2iz)

Allocating common symbols
Common symbol       size              file

SDIO_CmdInitStructure
                    0x14              ./Fatfs/stm32f4_sdio.o
CurrentPos          0x4               ./STM32F4-Discovery/stm32f4_discovery_audio_codec.o
__brkval            0x4               ./syscalls.o
SDCardInfo          0x50              ./Fatfs/FatFs/src/diskio.o
SDIO_InitStructure  0x18              ./Fatfs/stm32f4_sdio.o
SDIO_DataInitStructure
                    0x18              ./Fatfs/stm32f4_sdio.o
AUDIO_MAL_DMA_InitStructure
                    0x3c              ./STM32F4-Discovery/stm32f4_discovery_audio_codec.o
NVIC_InitStructure  0x4               ./STM32F4-Discovery/stm32f4_discovery.o
DMA_InitStructure   0x3c              ./STM32F4-Discovery/stm32f4_discovery_audio_codec.o

Discarded input sections

 .group         0x00000000        0x8 ./Menue/CMenue.o
 .group         0x00000000        0x8 ./Menue/CMenue.o
 .group         0x00000000        0x8 ./Menue/CMenue.o
 .group         0x00000000        0x8 ./FreeRTOS_EC/Source/AManagedTask.o
 .group         0x00000000        0x8 ./FreeRTOS_EC/Source/AManagedTask.o
 .group         0x00000000        0x8 ./FreeRTOS_EC/Source/AManagedTask.o
 .group         0x00000000        0x8 ./FreeRTOS_EC/Source/AManagedTask.o
 .group         0x00000000        0x8 ./FreeRTOS_EC/Source/AManagedTask.o
 .group         0x00000000        0x8 ./FreeRTOS_EC/Source/AManagedTask.o
 .group         0x00000000        0x8 ./FreeRTOS_EC/Source/AManagedTask.o
 .group         0x00000000        0x8 ./FreeRTOS_EC/Source/AManagedTask.o
 .text._ZNK5CTask7IsValidEv
                0x00000000       0x24 ./FreeRTOS_EC/Source/AManagedTask.o
 .text._ZN5CTask6DetachEv
                0x00000000       0x24 ./FreeRTOS_EC/Source/AManagedTask.o
 .text._ZN12AManagedTask8OnCreateEPKctm
                0x00000000       0x20 ./FreeRTOS_EC/Source/AManagedTask.o
 .group         0x00000000        0x8 ./FreeRTOS_EC/Source/ASyncObject.o
 .group         0x00000000        0x8 ./FreeRTOS_EC/Source/ASyncObject.o
 .group         0x00000000        0x8 ./FreeRTOS_EC/Source/ASyncObject.o
 .group         0x00000000        0x8 ./FreeRTOS_EC/Source/ASyncObject.o
 .group         0x00000000        0x8 ./FreeRTOS_EC/Source/CBinarySemaphore.o
 .group         0x00000000        0x8 ./FreeRTOS_EC/Source/CBinarySemaphore.o
 .group         0x00000000        0x8 ./FreeRTOS_EC/Source/CBinarySemaphore.o
 .group         0x00000000        0x8 ./FreeRTOS_EC/Source/CBinarySemaphore.o
 .text._ZNK11ASyncObject7IsValidEv
                0x00000000       0x24 ./FreeRTOS_EC/Source/CBinarySemaphore.o
 .text._ZN11ASyncObject6DetachEv
                0x00000000       0x24 ./FreeRTOS_EC/Source/CBinarySemaphore.o
 .group         0x00000000        0x8 ./FreeRTOS_EC/Source/CCountingSemaphore.o
 .group         0x00000000        0x8 ./FreeRTOS_EC/Source/CCountingSemaphore.o
 .group         0x00000000        0x8 ./FreeRTOS_EC/Source/CCountingSemaphore.o
 .group         0x00000000        0x8 ./FreeRTOS_EC/Source/CCountingSemaphore.o
 .text._ZNK11ASyncObject7IsValidEv
                0x00000000       0x24 ./FreeRTOS_EC/Source/CCountingSemaphore.o
 .text._ZN11ASyncObject6DetachEv
                0x00000000       0x24 ./FreeRTOS_EC/Source/CCountingSemaphore.o
 .group         0x00000000        0x8 ./FreeRTOS_EC/Source/CMessageTask.o
 .group         0x00000000        0x8 ./FreeRTOS_EC/Source/CMessageTask.o
 .group         0x00000000        0x8 ./FreeRTOS_EC/Source/CMessageTask.o
 .group         0x00000000        0x8 ./FreeRTOS_EC/Source/CMessageTask.o
 .group         0x00000000        0x8 ./FreeRTOS_EC/Source/CMessageTask.o
 .group         0x00000000        0x8 ./FreeRTOS_EC/Source/CMessageTask.o
 .group         0x00000000        0x8 ./FreeRTOS_EC/Source/CMessageTask.o
 .group         0x00000000        0x8 ./FreeRTOS_EC/Source/CMessageTask.o
 .group         0x00000000        0x8 ./FreeRTOS_EC/Source/CMessageTask.o
 .group         0x00000000        0x8 ./FreeRTOS_EC/Source/CMessageTask.o
 .text._ZNK5CTask7IsValidEv
                0x00000000       0x24 ./FreeRTOS_EC/Source/CMessageTask.o
 .text._ZN5CTask6DetachEv
                0x00000000       0x24 ./FreeRTOS_EC/Source/CMessageTask.o
 .text._ZN12AManagedTask12HardwareInitEv
                0x00000000       0x18 ./FreeRTOS_EC/Source/CMessageTask.o
 .group         0x00000000        0x8 ./FreeRTOS_EC/Source/CMutex.o
 .group         0x00000000        0x8 ./FreeRTOS_EC/Source/CMutex.o
 .group         0x00000000        0x8 ./FreeRTOS_EC/Source/CMutex.o
 .group         0x00000000        0x8 ./FreeRTOS_EC/Source/CMutex.o
 .text._ZNK11ASyncObject7IsValidEv
                0x00000000       0x24 ./FreeRTOS_EC/Source/CMutex.o
 .text._ZN11ASyncObject6DetachEv
                0x00000000       0x24 ./FreeRTOS_EC/Source/CMutex.o
 .group         0x00000000        0x8 ./FreeRTOS_EC/Source/CQueue.o
 .group         0x00000000        0x8 ./FreeRTOS_EC/Source/CQueue.o
 .group         0x00000000        0x8 ./FreeRTOS_EC/Source/CQueue.o
 .group         0x00000000        0x8 ./FreeRTOS_EC/Source/CQueue.o
 .text._ZN12IFreeRTOSObjC2Ev
                0x00000000       0x20 ./FreeRTOS_EC/Source/CQueue.o
 .rodata._ZTV12IFreeRTOSObj
                0x00000000       0x18 ./FreeRTOS_EC/Source/CQueue.o
 .group         0x00000000        0x8 ./FreeRTOS_EC/Source/CRecursiveMutex.o
 .group         0x00000000        0x8 ./FreeRTOS_EC/Source/CRecursiveMutex.o
 .group         0x00000000        0x8 ./FreeRTOS_EC/Source/CRecursiveMutex.o
 .group         0x00000000        0x8 ./FreeRTOS_EC/Source/CRecursiveMutex.o
 .text._ZNK11ASyncObject7IsValidEv
                0x00000000       0x24 ./FreeRTOS_EC/Source/CRecursiveMutex.o
 .text._ZN11ASyncObject6DetachEv
                0x00000000       0x24 ./FreeRTOS_EC/Source/CRecursiveMutex.o
 .group         0x00000000        0x8 ./FreeRTOS_EC/Source/CTask.o
 .group         0x00000000        0x8 ./FreeRTOS_EC/Source/CTask.o
 .group         0x00000000        0x8 ./FreeRTOS_EC/Source/CTask.o
 .group         0x00000000        0x8 ./FreeRTOS_EC/Source/CTask.o
 .text._ZNK5CTask7IsValidEv
                0x00000000       0x24 ./FreeRTOS_EC/Source/CTask.o
 .text._ZN5CTask6DetachEv
                0x00000000       0x24 ./FreeRTOS_EC/Source/CTask.o
 .text._ZN12IFreeRTOSObjC2Ev
                0x00000000       0x20 ./FreeRTOS_EC/Source/CTask.o
 .rodata._ZTV12IFreeRTOSObj
                0x00000000       0x18 ./FreeRTOS_EC/Source/CTask.o
 .group         0x00000000        0x8 ./CLedHeartBeatSTM32F4Disc.o
 .group         0x00000000        0x8 ./CLedHeartBeatSTM32F4Disc.o
 .group         0x00000000        0x8 ./CLedHeartBeatSTM32F4Disc.o
 .text._ZNK5CTask7IsValidEv
                0x00000000       0x24 ./CLedHeartBeatSTM32F4Disc.o
 .text._ZN5CTask6DetachEv
                0x00000000       0x24 ./CLedHeartBeatSTM32F4Disc.o
 .text._ZN12AManagedTask8OnCreateEPKctm
                0x00000000       0x20 ./CLedHeartBeatSTM32F4Disc.o
 .group         0x00000000        0x8 ./main.o
 .group         0x00000000        0x8 d:/elektronik/ides/eclipse/yagarto/bin/../lib/gcc/arm-none-eabi/4.6.2/../../../../arm-none-eabi/lib/thumb/v7m\libstdc++.a(fundamental_type_info.o)
 .group         0x00000000        0x8 d:/elektronik/ides/eclipse/yagarto/bin/../lib/gcc/arm-none-eabi/4.6.2/../../../../arm-none-eabi/lib/thumb/v7m\libstdc++.a(fundamental_type_info.o)
 .group         0x00000000        0x8 d:/elektronik/ides/eclipse/yagarto/bin/../lib/gcc/arm-none-eabi/4.6.2/../../../../arm-none-eabi/lib/thumb/v7m\libstdc++.a(fundamental_type_info.o)
 .group         0x00000000        0x8 d:/elektronik/ides/eclipse/yagarto/bin/../lib/gcc/arm-none-eabi/4.6.2/../../../../arm-none-eabi/lib/thumb/v7m\libstdc++.a(fundamental_type_info.o)
 .group         0x00000000        0x8 d:/elektronik/ides/eclipse/yagarto/bin/../lib/gcc/arm-none-eabi/4.6.2/../../../../arm-none-eabi/lib/thumb/v7m\libstdc++.a(fundamental_type_info.o)
 .group         0x00000000        0x8 d:/elektronik/ides/eclipse/yagarto/bin/../lib/gcc/arm-none-eabi/4.6.2/../../../../arm-none-eabi/lib/thumb/v7m\libstdc++.a(fundamental_type_info.o)
 .group         0x00000000        0x8 d:/elektronik/ides/eclipse/yagarto/bin/../lib/gcc/arm-none-eabi/4.6.2/../../../../arm-none-eabi/lib/thumb/v7m\libstdc++.a(fundamental_type_info.o)
 .group         0x00000000        0x8 d:/elektronik/ides/eclipse/yagarto/bin/../lib/gcc/arm-none-eabi/4.6.2/../../../../arm-none-eabi/lib/thumb/v7m\libstdc++.a(fundamental_type_info.o)
 .group         0x00000000        0x8 d:/elektronik/ides/eclipse/yagarto/bin/../lib/gcc/arm-none-eabi/4.6.2/../../../../arm-none-eabi/lib/thumb/v7m\libstdc++.a(fundamental_type_info.o)
 .group         0x00000000        0x8 d:/elektronik/ides/eclipse/yagarto/bin/../lib/gcc/arm-none-eabi/4.6.2/../../../../arm-none-eabi/lib/thumb/v7m\libstdc++.a(fundamental_type_info.o)
 .group         0x00000000        0x8 d:/elektronik/ides/eclipse/yagarto/bin/../lib/gcc/arm-none-eabi/4.6.2/../../../../arm-none-eabi/lib/thumb/v7m\libstdc++.a(fundamental_type_info.o)
 .group         0x00000000        0x8 d:/elektronik/ides/eclipse/yagarto/bin/../lib/gcc/arm-none-eabi/4.6.2/../../../../arm-none-eabi/lib/thumb/v7m\libstdc++.a(fundamental_type_info.o)
 .group         0x00000000        0x8 d:/elektronik/ides/eclipse/yagarto/bin/../lib/gcc/arm-none-eabi/4.6.2/../../../../arm-none-eabi/lib/thumb/v7m\libstdc++.a(fundamental_type_info.o)
 .group         0x00000000        0x8 d:/elektronik/ides/eclipse/yagarto/bin/../lib/gcc/arm-none-eabi/4.6.2/../../../../arm-none-eabi/lib/thumb/v7m\libstdc++.a(fundamental_type_info.o)
 .group         0x00000000        0x8 d:/elektronik/ides/eclipse/yagarto/bin/../lib/gcc/arm-none-eabi/4.6.2/../../../../arm-none-eabi/lib/thumb/v7m\libstdc++.a(fundamental_type_info.o)
 .group         0x00000000        0x8 d:/elektronik/ides/eclipse/yagarto/bin/../lib/gcc/arm-none-eabi/4.6.2/../../../../arm-none-eabi/lib/thumb/v7m\libstdc++.a(fundamental_type_info.o)
 .group         0x00000000        0x8 d:/elektronik/ides/eclipse/yagarto/bin/../lib/gcc/arm-none-eabi/4.6.2/../../../../arm-none-eabi/lib/thumb/v7m\libstdc++.a(fundamental_type_info.o)
 .group         0x00000000        0x8 d:/elektronik/ides/eclipse/yagarto/bin/../lib/gcc/arm-none-eabi/4.6.2/../../../../arm-none-eabi/lib/thumb/v7m\libstdc++.a(fundamental_type_info.o)
 .group         0x00000000        0x8 d:/elektronik/ides/eclipse/yagarto/bin/../lib/gcc/arm-none-eabi/4.6.2/../../../../arm-none-eabi/lib/thumb/v7m\libstdc++.a(fundamental_type_info.o)
 .group         0x00000000        0x8 d:/elektronik/ides/eclipse/yagarto/bin/../lib/gcc/arm-none-eabi/4.6.2/../../../../arm-none-eabi/lib/thumb/v7m\libstdc++.a(fundamental_type_info.o)
 .group         0x00000000        0x8 d:/elektronik/ides/eclipse/yagarto/bin/../lib/gcc/arm-none-eabi/4.6.2/../../../../arm-none-eabi/lib/thumb/v7m\libstdc++.a(fundamental_type_info.o)
 .group         0x00000000        0x8 d:/elektronik/ides/eclipse/yagarto/bin/../lib/gcc/arm-none-eabi/4.6.2/../../../../arm-none-eabi/lib/thumb/v7m\libstdc++.a(fundamental_type_info.o)
 .group         0x00000000        0x8 d:/elektronik/ides/eclipse/yagarto/bin/../lib/gcc/arm-none-eabi/4.6.2/../../../../arm-none-eabi/lib/thumb/v7m\libstdc++.a(fundamental_type_info.o)
 .group         0x00000000        0x8 d:/elektronik/ides/eclipse/yagarto/bin/../lib/gcc/arm-none-eabi/4.6.2/../../../../arm-none-eabi/lib/thumb/v7m\libstdc++.a(fundamental_type_info.o)
 .group         0x00000000        0x8 d:/elektronik/ides/eclipse/yagarto/bin/../lib/gcc/arm-none-eabi/4.6.2/../../../../arm-none-eabi/lib/thumb/v7m\libstdc++.a(fundamental_type_info.o)
 .group         0x00000000        0x8 d:/elektronik/ides/eclipse/yagarto/bin/../lib/gcc/arm-none-eabi/4.6.2/../../../../arm-none-eabi/lib/thumb/v7m\libstdc++.a(fundamental_type_info.o)
 .group         0x00000000        0x8 d:/elektronik/ides/eclipse/yagarto/bin/../lib/gcc/arm-none-eabi/4.6.2/../../../../arm-none-eabi/lib/thumb/v7m\libstdc++.a(fundamental_type_info.o)
 .group         0x00000000        0x8 d:/elektronik/ides/eclipse/yagarto/bin/../lib/gcc/arm-none-eabi/4.6.2/../../../../arm-none-eabi/lib/thumb/v7m\libstdc++.a(fundamental_type_info.o)
 .group         0x00000000        0x8 d:/elektronik/ides/eclipse/yagarto/bin/../lib/gcc/arm-none-eabi/4.6.2/../../../../arm-none-eabi/lib/thumb/v7m\libstdc++.a(fundamental_type_info.o)
 .group         0x00000000        0x8 d:/elektronik/ides/eclipse/yagarto/bin/../lib/gcc/arm-none-eabi/4.6.2/../../../../arm-none-eabi/lib/thumb/v7m\libstdc++.a(fundamental_type_info.o)
 .group         0x00000000        0x8 d:/elektronik/ides/eclipse/yagarto/bin/../lib/gcc/arm-none-eabi/4.6.2/../../../../arm-none-eabi/lib/thumb/v7m\libstdc++.a(fundamental_type_info.o)
 .group         0x00000000        0x8 d:/elektronik/ides/eclipse/yagarto/bin/../lib/gcc/arm-none-eabi/4.6.2/../../../../arm-none-eabi/lib/thumb/v7m\libstdc++.a(fundamental_type_info.o)
 .group         0x00000000        0x8 d:/elektronik/ides/eclipse/yagarto/bin/../lib/gcc/arm-none-eabi/4.6.2/../../../../arm-none-eabi/lib/thumb/v7m\libstdc++.a(fundamental_type_info.o)
 .group         0x00000000        0x8 d:/elektronik/ides/eclipse/yagarto/bin/../lib/gcc/arm-none-eabi/4.6.2/../../../../arm-none-eabi/lib/thumb/v7m\libstdc++.a(fundamental_type_info.o)
 .group         0x00000000        0x8 d:/elektronik/ides/eclipse/yagarto/bin/../lib/gcc/arm-none-eabi/4.6.2/../../../../arm-none-eabi/lib/thumb/v7m\libstdc++.a(fundamental_type_info.o)
 .group         0x00000000        0x8 d:/elektronik/ides/eclipse/yagarto/bin/../lib/gcc/arm-none-eabi/4.6.2/../../../../arm-none-eabi/lib/thumb/v7m\libstdc++.a(fundamental_type_info.o)
 .group         0x00000000        0x8 d:/elektronik/ides/eclipse/yagarto/bin/../lib/gcc/arm-none-eabi/4.6.2/../../../../arm-none-eabi/lib/thumb/v7m\libstdc++.a(fundamental_type_info.o)
 .group         0x00000000        0x8 d:/elektronik/ides/eclipse/yagarto/bin/../lib/gcc/arm-none-eabi/4.6.2/../../../../arm-none-eabi/lib/thumb/v7m\libstdc++.a(fundamental_type_info.o)
 .group         0x00000000        0x8 d:/elektronik/ides/eclipse/yagarto/bin/../lib/gcc/arm-none-eabi/4.6.2/../../../../arm-none-eabi/lib/thumb/v7m\libstdc++.a(fundamental_type_info.o)
 .group         0x00000000        0x8 d:/elektronik/ides/eclipse/yagarto/bin/../lib/gcc/arm-none-eabi/4.6.2/../../../../arm-none-eabi/lib/thumb/v7m\libstdc++.a(fundamental_type_info.o)
 .group         0x00000000        0x8 d:/elektronik/ides/eclipse/yagarto/bin/../lib/gcc/arm-none-eabi/4.6.2/../../../../arm-none-eabi/lib/thumb/v7m\libstdc++.a(fundamental_type_info.o)
 .group         0x00000000        0x8 d:/elektronik/ides/eclipse/yagarto/bin/../lib/gcc/arm-none-eabi/4.6.2/../../../../arm-none-eabi/lib/thumb/v7m\libstdc++.a(fundamental_type_info.o)
 .group         0x00000000        0x8 d:/elektronik/ides/eclipse/yagarto/bin/../lib/gcc/arm-none-eabi/4.6.2/../../../../arm-none-eabi/lib/thumb/v7m\libstdc++.a(fundamental_type_info.o)
 .group         0x00000000        0x8 d:/elektronik/ides/eclipse/yagarto/bin/../lib/gcc/arm-none-eabi/4.6.2/../../../../arm-none-eabi/lib/thumb/v7m\libstdc++.a(fundamental_type_info.o)
 .group         0x00000000        0x8 d:/elektronik/ides/eclipse/yagarto/bin/../lib/gcc/arm-none-eabi/4.6.2/../../../../arm-none-eabi/lib/thumb/v7m\libstdc++.a(fundamental_type_info.o)
 .group         0x00000000        0x8 d:/elektronik/ides/eclipse/yagarto/bin/../lib/gcc/arm-none-eabi/4.6.2/../../../../arm-none-eabi/lib/thumb/v7m\libstdc++.a(fundamental_type_info.o)
 .group         0x00000000        0x8 d:/elektronik/ides/eclipse/yagarto/bin/../lib/gcc/arm-none-eabi/4.6.2/../../../../arm-none-eabi/lib/thumb/v7m\libstdc++.a(fundamental_type_info.o)
 .group         0x00000000        0x8 d:/elektronik/ides/eclipse/yagarto/bin/../lib/gcc/arm-none-eabi/4.6.2/../../../../arm-none-eabi/lib/thumb/v7m\libstdc++.a(fundamental_type_info.o)
 .group         0x00000000        0x8 d:/elektronik/ides/eclipse/yagarto/bin/../lib/gcc/arm-none-eabi/4.6.2/../../../../arm-none-eabi/lib/thumb/v7m\libstdc++.a(fundamental_type_info.o)
 .group         0x00000000        0x8 d:/elektronik/ides/eclipse/yagarto/bin/../lib/gcc/arm-none-eabi/4.6.2/../../../../arm-none-eabi/lib/thumb/v7m\libstdc++.a(fundamental_type_info.o)
 .group         0x00000000        0x8 d:/elektronik/ides/eclipse/yagarto/bin/../lib/gcc/arm-none-eabi/4.6.2/../../../../arm-none-eabi/lib/thumb/v7m\libstdc++.a(fundamental_type_info.o)
 .group         0x00000000        0x8 d:/elektronik/ides/eclipse/yagarto/bin/../lib/gcc/arm-none-eabi/4.6.2/../../../../arm-none-eabi/lib/thumb/v7m\libstdc++.a(fundamental_type_info.o)
 .group         0x00000000        0x8 d:/elektronik/ides/eclipse/yagarto/bin/../lib/gcc/arm-none-eabi/4.6.2/../../../../arm-none-eabi/lib/thumb/v7m\libstdc++.a(fundamental_type_info.o)
 .group         0x00000000        0x8 d:/elektronik/ides/eclipse/yagarto/bin/../lib/gcc/arm-none-eabi/4.6.2/../../../../arm-none-eabi/lib/thumb/v7m\libstdc++.a(fundamental_type_info.o)
 .group         0x00000000        0x8 d:/elektronik/ides/eclipse/yagarto/bin/../lib/gcc/arm-none-eabi/4.6.2/../../../../arm-none-eabi/lib/thumb/v7m\libstdc++.a(fundamental_type_info.o)
 .group         0x00000000        0x8 d:/elektronik/ides/eclipse/yagarto/bin/../lib/gcc/arm-none-eabi/4.6.2/../../../../arm-none-eabi/lib/thumb/v7m\libstdc++.a(fundamental_type_info.o)
 .group         0x00000000        0x8 d:/elektronik/ides/eclipse/yagarto/bin/../lib/gcc/arm-none-eabi/4.6.2/../../../../arm-none-eabi/lib/thumb/v7m\libstdc++.a(fundamental_type_info.o)
 .group         0x00000000        0x8 d:/elektronik/ides/eclipse/yagarto/bin/../lib/gcc/arm-none-eabi/4.6.2/../../../../arm-none-eabi/lib/thumb/v7m\libstdc++.a(fundamental_type_info.o)
 .group         0x00000000        0x8 d:/elektronik/ides/eclipse/yagarto/bin/../lib/gcc/arm-none-eabi/4.6.2/../../../../arm-none-eabi/lib/thumb/v7m\libstdc++.a(fundamental_type_info.o)
 .group         0x00000000        0x8 d:/elektronik/ides/eclipse/yagarto/bin/../lib/gcc/arm-none-eabi/4.6.2/../../../../arm-none-eabi/lib/thumb/v7m\libstdc++.a(fundamental_type_info.o)
 .group         0x00000000        0x8 d:/elektronik/ides/eclipse/yagarto/bin/../lib/gcc/arm-none-eabi/4.6.2/../../../../arm-none-eabi/lib/thumb/v7m\libstdc++.a(fundamental_type_info.o)
 .group         0x00000000        0x8 d:/elektronik/ides/eclipse/yagarto/bin/../lib/gcc/arm-none-eabi/4.6.2/../../../../arm-none-eabi/lib/thumb/v7m\libstdc++.a(fundamental_type_info.o)
 .group         0x00000000        0x8 d:/elektronik/ides/eclipse/yagarto/bin/../lib/gcc/arm-none-eabi/4.6.2/../../../../arm-none-eabi/lib/thumb/v7m\libstdc++.a(fundamental_type_info.o)
 .group         0x00000000        0x8 d:/elektronik/ides/eclipse/yagarto/bin/../lib/gcc/arm-none-eabi/4.6.2/../../../../arm-none-eabi/lib/thumb/v7m\libstdc++.a(fundamental_type_info.o)
 .group         0x00000000        0x8 d:/elektronik/ides/eclipse/yagarto/bin/../lib/gcc/arm-none-eabi/4.6.2/../../../../arm-none-eabi/lib/thumb/v7m\libstdc++.a(fundamental_type_info.o)
 .group         0x00000000        0x8 d:/elektronik/ides/eclipse/yagarto/bin/../lib/gcc/arm-none-eabi/4.6.2/../../../../arm-none-eabi/lib/thumb/v7m\libstdc++.a(fundamental_type_info.o)
 .group         0x00000000        0x8 d:/elektronik/ides/eclipse/yagarto/bin/../lib/gcc/arm-none-eabi/4.6.2/../../../../arm-none-eabi/lib/thumb/v7m\libstdc++.a(fundamental_type_info.o)
 .group         0x00000000        0x8 d:/elektronik/ides/eclipse/yagarto/bin/../lib/gcc/arm-none-eabi/4.6.2/../../../../arm-none-eabi/lib/thumb/v7m\libstdc++.a(fundamental_type_info.o)
 .group         0x00000000        0x8 d:/elektronik/ides/eclipse/yagarto/bin/../lib/gcc/arm-none-eabi/4.6.2/../../../../arm-none-eabi/lib/thumb/v7m\libstdc++.a(fundamental_type_info.o)
 .group         0x00000000        0x8 d:/elektronik/ides/eclipse/yagarto/bin/../lib/gcc/arm-none-eabi/4.6.2/../../../../arm-none-eabi/lib/thumb/v7m\libstdc++.a(fundamental_type_info.o)
 .group         0x00000000        0x8 d:/elektronik/ides/eclipse/yagarto/bin/../lib/gcc/arm-none-eabi/4.6.2/../../../../arm-none-eabi/lib/thumb/v7m\libstdc++.a(fundamental_type_info.o)
 .group         0x00000000        0x8 d:/elektronik/ides/eclipse/yagarto/bin/../lib/gcc/arm-none-eabi/4.6.2/../../../../arm-none-eabi/lib/thumb/v7m\libstdc++.a(fundamental_type_info.o)
 .group         0x00000000        0x8 d:/elektronik/ides/eclipse/yagarto/bin/../lib/gcc/arm-none-eabi/4.6.2/../../../../arm-none-eabi/lib/thumb/v7m\libstdc++.a(fundamental_type_info.o)
 .group         0x00000000        0x8 d:/elektronik/ides/eclipse/yagarto/bin/../lib/gcc/arm-none-eabi/4.6.2/../../../../arm-none-eabi/lib/thumb/v7m\libstdc++.a(fundamental_type_info.o)
 .group         0x00000000        0x8 d:/elektronik/ides/eclipse/yagarto/bin/../lib/gcc/arm-none-eabi/4.6.2/../../../../arm-none-eabi/lib/thumb/v7m\libstdc++.a(fundamental_type_info.o)
 .group         0x00000000        0x8 d:/elektronik/ides/eclipse/yagarto/bin/../lib/gcc/arm-none-eabi/4.6.2/../../../../arm-none-eabi/lib/thumb/v7m\libstdc++.a(fundamental_type_info.o)
 .group         0x00000000        0x8 d:/elektronik/ides/eclipse/yagarto/bin/../lib/gcc/arm-none-eabi/4.6.2/../../../../arm-none-eabi/lib/thumb/v7m\libstdc++.a(fundamental_type_info.o)
 .group         0x00000000        0x8 d:/elektronik/ides/eclipse/yagarto/bin/../lib/gcc/arm-none-eabi/4.6.2/../../../../arm-none-eabi/lib/thumb/v7m\libstdc++.a(fundamental_type_info.o)
 .group         0x00000000        0x8 d:/elektronik/ides/eclipse/yagarto/bin/../lib/gcc/arm-none-eabi/4.6.2/../../../../arm-none-eabi/lib/thumb/v7m\libstdc++.a(fundamental_type_info.o)
 .group         0x00000000        0x8 d:/elektronik/ides/eclipse/yagarto/bin/../lib/gcc/arm-none-eabi/4.6.2/../../../../arm-none-eabi/lib/thumb/v7m\libstdc++.a(fundamental_type_info.o)
 .group         0x00000000        0x8 d:/elektronik/ides/eclipse/yagarto/bin/../lib/gcc/arm-none-eabi/4.6.2/../../../../arm-none-eabi/lib/thumb/v7m\libstdc++.a(fundamental_type_info.o)
 .group         0x00000000        0x8 d:/elektronik/ides/eclipse/yagarto/bin/../lib/gcc/arm-none-eabi/4.6.2/../../../../arm-none-eabi/lib/thumb/v7m\libstdc++.a(fundamental_type_info.o)
 .group         0x00000000        0x8 d:/elektronik/ides/eclipse/yagarto/bin/../lib/gcc/arm-none-eabi/4.6.2/../../../../arm-none-eabi/lib/thumb/v7m\libstdc++.a(fundamental_type_info.o)
 .group         0x00000000        0x8 d:/elektronik/ides/eclipse/yagarto/bin/../lib/gcc/arm-none-eabi/4.6.2/../../../../arm-none-eabi/lib/thumb/v7m\libstdc++.a(fundamental_type_info.o)
 .group         0x00000000        0x8 d:/elektronik/ides/eclipse/yagarto/bin/../lib/gcc/arm-none-eabi/4.6.2/../../../../arm-none-eabi/lib/thumb/v7m\libstdc++.a(fundamental_type_info.o)
 .group         0x00000000        0x8 d:/elektronik/ides/eclipse/yagarto/bin/../lib/gcc/arm-none-eabi/4.6.2/../../../../arm-none-eabi/lib/thumb/v7m\libstdc++.a(fundamental_type_info.o)
 .group         0x00000000        0x8 d:/elektronik/ides/eclipse/yagarto/bin/../lib/gcc/arm-none-eabi/4.6.2/../../../../arm-none-eabi/lib/thumb/v7m\libstdc++.a(fundamental_type_info.o)
 .group         0x00000000        0x8 d:/elektronik/ides/eclipse/yagarto/bin/../lib/gcc/arm-none-eabi/4.6.2/../../../../arm-none-eabi/lib/thumb/v7m\libstdc++.a(fundamental_type_info.o)
 .group         0x00000000        0x8 d:/elektronik/ides/eclipse/yagarto/bin/../lib/gcc/arm-none-eabi/4.6.2/../../../../arm-none-eabi/lib/thumb/v7m\libstdc++.a(fundamental_type_info.o)
 .group         0x00000000        0x8 d:/elektronik/ides/eclipse/yagarto/bin/../lib/gcc/arm-none-eabi/4.6.2/../../../../arm-none-eabi/lib/thumb/v7m\libstdc++.a(fundamental_type_info.o)
 .group         0x00000000        0x8 d:/elektronik/ides/eclipse/yagarto/bin/../lib/gcc/arm-none-eabi/4.6.2/../../../../arm-none-eabi/lib/thumb/v7m\libstdc++.a(fundamental_type_info.o)
 .group         0x00000000        0x8 d:/elektronik/ides/eclipse/yagarto/bin/../lib/gcc/arm-none-eabi/4.6.2/../../../../arm-none-eabi/lib/thumb/v7m\libstdc++.a(fundamental_type_info.o)
 .group         0x00000000        0x8 d:/elektronik/ides/eclipse/yagarto/bin/../lib/gcc/arm-none-eabi/4.6.2/../../../../arm-none-eabi/lib/thumb/v7m\libstdc++.a(fundamental_type_info.o)
 .group         0x00000000        0x8 d:/elektronik/ides/eclipse/yagarto/bin/../lib/gcc/arm-none-eabi/4.6.2/../../../../arm-none-eabi/lib/thumb/v7m\libstdc++.a(fundamental_type_info.o)
 .group         0x00000000        0x8 d:/elektronik/ides/eclipse/yagarto/bin/../lib/gcc/arm-none-eabi/4.6.2/../../../../arm-none-eabi/lib/thumb/v7m\libstdc++.a(fundamental_type_info.o)
 .group         0x00000000        0x8 d:/elektronik/ides/eclipse/yagarto/bin/../lib/gcc/arm-none-eabi/4.6.2/../../../../arm-none-eabi/lib/thumb/v7m\libstdc++.a(fundamental_type_info.o)
 .group         0x00000000        0x8 d:/elektronik/ides/eclipse/yagarto/bin/../lib/gcc/arm-none-eabi/4.6.2/../../../../arm-none-eabi/lib/thumb/v7m\libstdc++.a(fundamental_type_info.o)
 .group         0x00000000        0x8 d:/elektronik/ides/eclipse/yagarto/bin/../lib/gcc/arm-none-eabi/4.6.2/../../../../arm-none-eabi/lib/thumb/v7m\libstdc++.a(fundamental_type_info.o)
 .group         0x00000000        0x8 d:/elektronik/ides/eclipse/yagarto/bin/../lib/gcc/arm-none-eabi/4.6.2/../../../../arm-none-eabi/lib/thumb/v7m\libstdc++.a(fundamental_type_info.o)
 .group         0x00000000        0x8 d:/elektronik/ides/eclipse/yagarto/bin/../lib/gcc/arm-none-eabi/4.6.2/../../../../arm-none-eabi/lib/thumb/v7m\libstdc++.a(fundamental_type_info.o)
 .group         0x00000000        0x8 d:/elektronik/ides/eclipse/yagarto/bin/../lib/gcc/arm-none-eabi/4.6.2/../../../../arm-none-eabi/lib/thumb/v7m\libstdc++.a(fundamental_type_info.o)
 .group         0x00000000        0x8 d:/elektronik/ides/eclipse/yagarto/bin/../lib/gcc/arm-none-eabi/4.6.2/../../../../arm-none-eabi/lib/thumb/v7m\libstdc++.a(fundamental_type_info.o)
 .group         0x00000000        0x8 d:/elektronik/ides/eclipse/yagarto/bin/../lib/gcc/arm-none-eabi/4.6.2/../../../../arm-none-eabi/lib/thumb/v7m\libstdc++.a(fundamental_type_info.o)
 .group         0x00000000        0x8 d:/elektronik/ides/eclipse/yagarto/bin/../lib/gcc/arm-none-eabi/4.6.2/../../../../arm-none-eabi/lib/thumb/v7m\libstdc++.a(fundamental_type_info.o)
 .group         0x00000000        0x8 d:/elektronik/ides/eclipse/yagarto/bin/../lib/gcc/arm-none-eabi/4.6.2/../../../../arm-none-eabi/lib/thumb/v7m\libstdc++.a(fundamental_type_info.o)
 .group         0x00000000        0x8 d:/elektronik/ides/eclipse/yagarto/bin/../lib/gcc/arm-none-eabi/4.6.2/../../../../arm-none-eabi/lib/thumb/v7m\libstdc++.a(fundamental_type_info.o)
 .group         0x00000000        0x8 d:/elektronik/ides/eclipse/yagarto/bin/../lib/gcc/arm-none-eabi/4.6.2/../../../../arm-none-eabi/lib/thumb/v7m\libstdc++.a(fundamental_type_info.o)
 .group         0x00000000        0x8 d:/elektronik/ides/eclipse/yagarto/bin/../lib/gcc/arm-none-eabi/4.6.2/../../../../arm-none-eabi/lib/thumb/v7m\libstdc++.a(fundamental_type_info.o)
 .group         0x00000000        0x8 d:/elektronik/ides/eclipse/yagarto/bin/../lib/gcc/arm-none-eabi/4.6.2/../../../../arm-none-eabi/lib/thumb/v7m\libstdc++.a(fundamental_type_info.o)
 .group         0x00000000        0x8 d:/elektronik/ides/eclipse/yagarto/bin/../lib/gcc/arm-none-eabi/4.6.2/../../../../arm-none-eabi/lib/thumb/v7m\libstdc++.a(fundamental_type_info.o)
 .group         0x00000000        0x8 d:/elektronik/ides/eclipse/yagarto/bin/../lib/gcc/arm-none-eabi/4.6.2/../../../../arm-none-eabi/lib/thumb/v7m\libstdc++.a(fundamental_type_info.o)
 .group         0x00000000        0x8 d:/elektronik/ides/eclipse/yagarto/bin/../lib/gcc/arm-none-eabi/4.6.2/../../../../arm-none-eabi/lib/thumb/v7m\libstdc++.a(fundamental_type_info.o)
 .group         0x00000000        0x8 d:/elektronik/ides/eclipse/yagarto/bin/../lib/gcc/arm-none-eabi/4.6.2/../../../../arm-none-eabi/lib/thumb/v7m\libstdc++.a(fundamental_type_info.o)
 .group         0x00000000        0x8 d:/elektronik/ides/eclipse/yagarto/bin/../lib/gcc/arm-none-eabi/4.6.2/../../../../arm-none-eabi/lib/thumb/v7m\libstdc++.a(fundamental_type_info.o)
 .group         0x00000000        0x8 d:/elektronik/ides/eclipse/yagarto/bin/../lib/gcc/arm-none-eabi/4.6.2/../../../../arm-none-eabi/lib/thumb/v7m\libstdc++.a(fundamental_type_info.o)
 .group         0x00000000        0x8 d:/elektronik/ides/eclipse/yagarto/bin/../lib/gcc/arm-none-eabi/4.6.2/../../../../arm-none-eabi/lib/thumb/v7m\libstdc++.a(fundamental_type_info.o)
 .group         0x00000000        0x8 d:/elektronik/ides/eclipse/yagarto/bin/../lib/gcc/arm-none-eabi/4.6.2/../../../../arm-none-eabi/lib/thumb/v7m\libstdc++.a(fundamental_type_info.o)
 .group         0x00000000        0x8 d:/elektronik/ides/eclipse/yagarto/bin/../lib/gcc/arm-none-eabi/4.6.2/../../../../arm-none-eabi/lib/thumb/v7m\libstdc++.a(fundamental_type_info.o)
 .group         0x00000000        0x8 d:/elektronik/ides/eclipse/yagarto/bin/../lib/gcc/arm-none-eabi/4.6.2/../../../../arm-none-eabi/lib/thumb/v7m\libstdc++.a(fundamental_type_info.o)
 .group         0x00000000        0x8 d:/elektronik/ides/eclipse/yagarto/bin/../lib/gcc/arm-none-eabi/4.6.2/../../../../arm-none-eabi/lib/thumb/v7m\libstdc++.a(fundamental_type_info.o)
 .group         0x00000000        0x8 d:/elektronik/ides/eclipse/yagarto/bin/../lib/gcc/arm-none-eabi/4.6.2/../../../../arm-none-eabi/lib/thumb/v7m\libstdc++.a(fundamental_type_info.o)
 .group         0x00000000        0x8 d:/elektronik/ides/eclipse/yagarto/bin/../lib/gcc/arm-none-eabi/4.6.2/../../../../arm-none-eabi/lib/thumb/v7m\libstdc++.a(fundamental_type_info.o)
 .group         0x00000000        0x8 d:/elektronik/ides/eclipse/yagarto/bin/../lib/gcc/arm-none-eabi/4.6.2/../../../../arm-none-eabi/lib/thumb/v7m\libstdc++.a(fundamental_type_info.o)
 .group         0x00000000        0x8 d:/elektronik/ides/eclipse/yagarto/bin/../lib/gcc/arm-none-eabi/4.6.2/../../../../arm-none-eabi/lib/thumb/v7m\libstdc++.a(fundamental_type_info.o)
 .group         0x00000000        0x8 d:/elektronik/ides/eclipse/yagarto/bin/../lib/gcc/arm-none-eabi/4.6.2/../../../../arm-none-eabi/lib/thumb/v7m\libstdc++.a(fundamental_type_info.o)
 .group         0x00000000        0x8 d:/elektronik/ides/eclipse/yagarto/bin/../lib/gcc/arm-none-eabi/4.6.2/../../../../arm-none-eabi/lib/thumb/v7m\libstdc++.a(fundamental_type_info.o)
 .group         0x00000000        0x8 d:/elektronik/ides/eclipse/yagarto/bin/../lib/gcc/arm-none-eabi/4.6.2/../../../../arm-none-eabi/lib/thumb/v7m\libstdc++.a(fundamental_type_info.o)
 .group         0x00000000        0x8 d:/elektronik/ides/eclipse/yagarto/bin/../lib/gcc/arm-none-eabi/4.6.2/../../../../arm-none-eabi/lib/thumb/v7m\libstdc++.a(fundamental_type_info.o)
 .group         0x00000000        0x8 d:/elektronik/ides/eclipse/yagarto/bin/../lib/gcc/arm-none-eabi/4.6.2/../../../../arm-none-eabi/lib/thumb/v7m\libstdc++.a(fundamental_type_info.o)
 .group         0x00000000        0x8 d:/elektronik/ides/eclipse/yagarto/bin/../lib/gcc/arm-none-eabi/4.6.2/../../../../arm-none-eabi/lib/thumb/v7m\libstdc++.a(fundamental_type_info.o)
 .group         0x00000000        0x8 d:/elektronik/ides/eclipse/yagarto/bin/../lib/gcc/arm-none-eabi/4.6.2/../../../../arm-none-eabi/lib/thumb/v7m\libstdc++.a(fundamental_type_info.o)
 .group         0x00000000        0x8 d:/elektronik/ides/eclipse/yagarto/bin/../lib/gcc/arm-none-eabi/4.6.2/../../../../arm-none-eabi/lib/thumb/v7m\libstdc++.a(fundamental_type_info.o)
 .group         0x00000000        0x8 d:/elektronik/ides/eclipse/yagarto/bin/../lib/gcc/arm-none-eabi/4.6.2/../../../../arm-none-eabi/lib/thumb/v7m\libstdc++.a(fundamental_type_info.o)
 .group         0x00000000        0x8 d:/elektronik/ides/eclipse/yagarto/bin/../lib/gcc/arm-none-eabi/4.6.2/../../../../arm-none-eabi/lib/thumb/v7m\libstdc++.a(fundamental_type_info.o)
 .group         0x00000000        0x8 d:/elektronik/ides/eclipse/yagarto/bin/../lib/gcc/arm-none-eabi/4.6.2/../../../../arm-none-eabi/lib/thumb/v7m\libstdc++.a(fundamental_type_info.o)
 .group         0x00000000        0x8 d:/elektronik/ides/eclipse/yagarto/bin/../lib/gcc/arm-none-eabi/4.6.2/../../../../arm-none-eabi/lib/thumb/v7m\libstdc++.a(fundamental_type_info.o)
 .group         0x00000000        0x8 d:/elektronik/ides/eclipse/yagarto/bin/../lib/gcc/arm-none-eabi/4.6.2/../../../../arm-none-eabi/lib/thumb/v7m\libstdc++.a(fundamental_type_info.o)
 .group         0x00000000        0x8 d:/elektronik/ides/eclipse/yagarto/bin/../lib/gcc/arm-none-eabi/4.6.2/../../../../arm-none-eabi/lib/thumb/v7m\libstdc++.a(fundamental_type_info.o)
 .group         0x00000000       0x10 d:/elektronik/ides/eclipse/yagarto/bin/../lib/gcc/arm-none-eabi/4.6.2/../../../../arm-none-eabi/lib/thumb/v7m\libstdc++.a(pbase_type_info.o)

Memory Configuration

Name             Origin             Length             Attributes
FLASH            0x08000000         0x00100000         xr
RAM              0x20000000         0x00020000         xrw
MEMORY_B1        0x60000000         0x00000000         xr
*default*        0x00000000         0xffffffff

Linker script and memory map

LOAD d:/elektronik/ides/eclipse/yagarto/bin/../lib/gcc/arm-none-eabi/4.6.2/thumb/v7m/crti.o
LOAD d:/elektronik/ides/eclipse/yagarto/bin/../lib/gcc/arm-none-eabi/4.6.2/thumb/v7m/crtbegin.o
LOAD d:/elektronik/ides/eclipse/yagarto/bin/../lib/gcc/arm-none-eabi/4.6.2/../../../../arm-none-eabi/lib/thumb/v7m/crt0.o
LOAD ./STM32F4xx_StdPeriph_Driver/src/misc.o
LOAD ./STM32F4xx_StdPeriph_Driver/src/stm32f4xx_adc.o
LOAD ./STM32F4xx_StdPeriph_Driver/src/stm32f4xx_can.o
LOAD ./STM32F4xx_StdPeriph_Driver/src/stm32f4xx_crc.o
LOAD ./STM32F4xx_StdPeriph_Driver/src/stm32f4xx_cryp.o
LOAD ./STM32F4xx_StdPeriph_Driver/src/stm32f4xx_cryp_aes.o
LOAD ./STM32F4xx_StdPeriph_Driver/src/stm32f4xx_cryp_des.o
LOAD ./STM32F4xx_StdPeriph_Driver/src/stm32f4xx_cryp_tdes.o
LOAD ./STM32F4xx_StdPeriph_Driver/src/stm32f4xx_dac.o
LOAD ./STM32F4xx_StdPeriph_Driver/src/stm32f4xx_dbgmcu.o
LOAD ./STM32F4xx_StdPeriph_Driver/src/stm32f4xx_dcmi.o
LOAD ./STM32F4xx_StdPeriph_Driver/src/stm32f4xx_dma.o
LOAD ./STM32F4xx_StdPeriph_Driver/src/stm32f4xx_exti.o
LOAD ./STM32F4xx_StdPeriph_Driver/src/stm32f4xx_flash.o
LOAD ./STM32F4xx_StdPeriph_Driver/src/stm32f4xx_fsmc.o
LOAD ./STM32F4xx_StdPeriph_Driver/src/stm32f4xx_gpio.o
LOAD ./STM32F4xx_StdPeriph_Driver/src/stm32f4xx_hash.o
LOAD ./STM32F4xx_StdPeriph_Driver/src/stm32f4xx_hash_md5.o
LOAD ./STM32F4xx_StdPeriph_Driver/src/stm32f4xx_hash_sha1.o
LOAD ./STM32F4xx_StdPeriph_Driver/src/stm32f4xx_i2c.o
LOAD ./STM32F4xx_StdPeriph_Driver/src/stm32f4xx_iwdg.o
LOAD ./STM32F4xx_StdPeriph_Driver/src/stm32f4xx_pwr.o
LOAD ./STM32F4xx_StdPeriph_Driver/src/stm32f4xx_rcc.o
LOAD ./STM32F4xx_StdPeriph_Driver/src/stm32f4xx_rng.o
LOAD ./STM32F4xx_StdPeriph_Driver/src/stm32f4xx_rtc.o
LOAD ./STM32F4xx_StdPeriph_Driver/src/stm32f4xx_sdio.o
LOAD ./STM32F4xx_StdPeriph_Driver/src/stm32f4xx_spi.o
LOAD ./STM32F4xx_StdPeriph_Driver/src/stm32f4xx_syscfg.o
LOAD ./STM32F4xx_StdPeriph_Driver/src/stm32f4xx_tim.o
LOAD ./STM32F4xx_StdPeriph_Driver/src/stm32f4xx_usart.o
LOAD ./STM32F4xx_StdPeriph_Driver/src/stm32f4xx_wwdg.o
LOAD ./STM32F4-Discovery/stm32f4_discovery.o
LOAD ./STM32F4-Discovery/stm32f4_discovery_audio_codec.o
LOAD ./STM32F4-Discovery/stm32f4_discovery_lis302dl.o
LOAD ./Menue/CMenue.o
LOAD ./GraphicLCD/CGraphicLCD.o
LOAD ./GraphicLCD/CT6963CDriver.o
LOAD ./GraphicLCD/CT6963GPIOInterface.o
LOAD ./GraphicLCD/SansSerif12.o
LOAD ./FreeRTOS_EC/Source/AManagedTask.o
LOAD ./FreeRTOS_EC/Source/ASyncObject.o
LOAD ./FreeRTOS_EC/Source/ATimer.o
LOAD ./FreeRTOS_EC/Source/CBinarySemaphore.o
LOAD ./FreeRTOS_EC/Source/CCountingSemaphore.o
LOAD ./FreeRTOS_EC/Source/CFreeRTOS.o
LOAD ./FreeRTOS_EC/Source/CMessageTask.o
LOAD ./FreeRTOS_EC/Source/CMutex.o
LOAD ./FreeRTOS_EC/Source/CQueue.o
LOAD ./FreeRTOS_EC/Source/CRecursiveMutex.o
LOAD ./FreeRTOS_EC/Source/CTask.o
LOAD ./FreeRTOS/Source/portable/GCC/ARM_CM4F/port.o
LOAD ./FreeRTOS/Source/croutine.o
LOAD ./FreeRTOS/Source/list.o
LOAD ./FreeRTOS/Source/queue.o
LOAD ./FreeRTOS/Source/tasks.o
LOAD ./FreeRTOS/Source/timers.o
LOAD ./Fatfs/FatFs/src/option/syscall.o
LOAD ./Fatfs/FatFs/src/diskio.o
LOAD ./Fatfs/FatFs/src/ff.o
LOAD ./Fatfs/CFileHandler.o
LOAD ./Fatfs/fattime.o
LOAD ./Fatfs/stm32f4_sdio.o
LOAD ./CLedHeartBeatSTM32F4Disc.o
LOAD ./main.o
LOAD ./startup_stm32f4xx.o
LOAD ./stm32f4xx_it.o
LOAD ./syscalls.o
LOAD ./system_stm32f4xx.o
LOAD ./ustime.o
LOAD d:/elektronik/ides/eclipse/yagarto/bin/../lib/gcc/arm-none-eabi/4.6.2/../../../../arm-none-eabi/lib/thumb/v7m\libstdc++.a
LOAD d:/elektronik/ides/eclipse/yagarto/bin/../lib/gcc/arm-none-eabi/4.6.2/../../../../arm-none-eabi/lib/thumb/v7m\libm.a
START GROUP
LOAD d:/elektronik/ides/eclipse/yagarto/bin/../lib/gcc/arm-none-eabi/4.6.2/thumb/v7m\libgcc.a
LOAD d:/elektronik/ides/eclipse/yagarto/bin/../lib/gcc/arm-none-eabi/4.6.2/../../../../arm-none-eabi/lib/thumb/v7m\libg.a
LOAD d:/elektronik/ides/eclipse/yagarto/bin/../lib/gcc/arm-none-eabi/4.6.2/../../../../arm-none-eabi/lib/thumb/v7m\libc.a
END GROUP
LOAD d:/elektronik/ides/eclipse/yagarto/bin/../lib/gcc/arm-none-eabi/4.6.2/thumb/v7m/crtend.o
LOAD d:/elektronik/ides/eclipse/yagarto/bin/../lib/gcc/arm-none-eabi/4.6.2/thumb/v7m/crtn.o
                0x20020000                _estack = 0x20020000
                0x00000000                _Min_Heap_Size = 0x0
                0x00000400                _Min_Stack_Size = 0x400

.isr_vector     0x08000000      0x188
                0x08000000                . = ALIGN (0x4)
 *(.isr_vector)
 .isr_vector    0x08000000      0x188 ./startup_stm32f4xx.o
                0x08000000                g_pfnVectors
                0x08000188                . = ALIGN (0x4)

.text           0x08000188    0x307e8
                0x08000188                . = ALIGN (0x4)
 *(.text)
 .text          0x08000188        0x0 d:/elektronik/ides/eclipse/yagarto/bin/../lib/gcc/arm-none-eabi/4.6.2/thumb/v7m/crti.o
 .text          0x08000188       0x54 d:/elektronik/ides/eclipse/yagarto/bin/../lib/gcc/arm-none-eabi/4.6.2/thumb/v7m/crtbegin.o
 .text          0x080001dc       0x70 d:/elektronik/ides/eclipse/yagarto/bin/../lib/gcc/arm-none-eabi/4.6.2/../../../../arm-none-eabi/lib/thumb/v7m/crt0.o
                0x080001dc                _start
                0x080001dc                start
                0x080001dc                _mainCRTStartup
 .text          0x0800024c        0x0 ./STM32F4xx_StdPeriph_Driver/src/misc.o
 .text          0x0800024c        0x0 ./STM32F4xx_StdPeriph_Driver/src/stm32f4xx_adc.o
 .text          0x0800024c        0x0 ./STM32F4xx_StdPeriph_Driver/src/stm32f4xx_can.o
 .text          0x0800024c        0x0 ./STM32F4xx_StdPeriph_Driver/src/stm32f4xx_crc.o
 .text          0x0800024c        0x0 ./STM32F4xx_StdPeriph_Driver/src/stm32f4xx_cryp.o
 .text          0x0800024c        0x0 ./STM32F4xx_StdPeriph_Driver/src/stm32f4xx_cryp_aes.o
 .text          0x0800024c        0x0 ./STM32F4xx_StdPeriph_Driver/src/stm32f4xx_cryp_des.o
 .text          0x0800024c        0x0 ./STM32F4xx_StdPeriph_Driver/src/stm32f4xx_cryp_tdes.o
 .text          0x0800024c        0x0 ./STM32F4xx_StdPeriph_Driver/src/stm32f4xx_dac.o
 .text          0x0800024c        0x0 ./STM32F4xx_StdPeriph_Driver/src/stm32f4xx_dbgmcu.o
 .text          0x0800024c        0x0 ./STM32F4xx_StdPeriph_Driver/src/stm32f4xx_dcmi.o
 .text          0x0800024c        0x0 ./STM32F4xx_StdPeriph_Driver/src/stm32f4xx_dma.o
 .text          0x0800024c        0x0 ./STM32F4xx_StdPeriph_Driver/src/stm32f4xx_exti.o
 .text          0x0800024c        0x0 ./STM32F4xx_StdPeriph_Driver/src/stm32f4xx_flash.o
 .text          0x0800024c        0x0 ./STM32F4xx_StdPeriph_Driver/src/stm32f4xx_fsmc.o
 .text          0x0800024c        0x0 ./STM32F4xx_StdPeriph_Driver/src/stm32f4xx_gpio.o
 .text          0x0800024c        0x0 ./STM32F4xx_StdPeriph_Driver/src/stm32f4xx_hash.o
 .text          0x0800024c        0x0 ./STM32F4xx_StdPeriph_Driver/src/stm32f4xx_hash_md5.o
 .text          0x0800024c        0x0 ./STM32F4xx_StdPeriph_Driver/src/stm32f4xx_hash_sha1.o
 .text          0x0800024c        0x0 ./STM32F4xx_StdPeriph_Driver/src/stm32f4xx_i2c.o
 .text          0x0800024c        0x0 ./STM32F4xx_StdPeriph_Driver/src/stm32f4xx_iwdg.o
 .text          0x0800024c        0x0 ./STM32F4xx_StdPeriph_Driver/src/stm32f4xx_pwr.o
 .text          0x0800024c        0x0 ./STM32F4xx_StdPeriph_Driver/src/stm32f4xx_rcc.o
 .text          0x0800024c        0x0 ./STM32F4xx_StdPeriph_Driver/src/stm32f4xx_rng.o
 .text          0x0800024c        0x0 ./STM32F4xx_StdPeriph_Driver/src/stm32f4xx_rtc.o
 .text          0x0800024c        0x0 ./STM32F4xx_StdPeriph_Driver/src/stm32f4xx_sdio.o
 .text          0x0800024c        0x0 ./STM32F4xx_StdPeriph_Driver/src/stm32f4xx_spi.o
 .text          0x0800024c        0x0 ./STM32F4xx_StdPeriph_Driver/src/stm32f4xx_syscfg.o
 .text          0x0800024c        0x0 ./STM32F4xx_StdPeriph_Driver/src/stm32f4xx_tim.o
 .text          0x0800024c        0x0 ./STM32F4xx_StdPeriph_Driver/src/stm32f4xx_usart.o
 .text          0x0800024c        0x0 ./STM32F4xx_StdPeriph_Driver/src/stm32f4xx_wwdg.o
 .text          0x0800024c        0x0 ./STM32F4-Discovery/stm32f4_discovery.o
 .text          0x0800024c        0x0 ./STM32F4-Discovery/stm32f4_discovery_audio_codec.o
 .text          0x0800024c        0x0 ./STM32F4-Discovery/stm32f4_discovery_lis302dl.o
 .text          0x0800024c        0x0 ./Menue/CMenue.o
 .text          0x0800024c        0x0 ./GraphicLCD/CGraphicLCD.o
 .text          0x0800024c        0x0 ./GraphicLCD/CT6963CDriver.o
 .text          0x0800024c        0x0 ./GraphicLCD/CT6963GPIOInterface.o
 .text          0x0800024c        0x0 ./GraphicLCD/SansSerif12.o
 .text          0x0800024c        0x0 ./FreeRTOS_EC/Source/AManagedTask.o
 .text          0x0800024c        0x0 ./FreeRTOS_EC/Source/ASyncObject.o
 .text          0x0800024c        0x0 ./FreeRTOS_EC/Source/ATimer.o
 .text          0x0800024c        0x0 ./FreeRTOS_EC/Source/CBinarySemaphore.o
 .text          0x0800024c        0x0 ./FreeRTOS_EC/Source/CCountingSemaphore.o
 .text          0x0800024c        0x0 ./FreeRTOS_EC/Source/CFreeRTOS.o
 .text          0x0800024c        0x0 ./FreeRTOS_EC/Source/CMessageTask.o
 .text          0x0800024c        0x0 ./FreeRTOS_EC/Source/CMutex.o
 .text          0x0800024c        0x0 ./FreeRTOS_EC/Source/CQueue.o
 .text          0x0800024c        0x0 ./FreeRTOS_EC/Source/CRecursiveMutex.o
 .text          0x0800024c        0x0 ./FreeRTOS_EC/Source/CTask.o
 .text          0x0800024c        0x0 ./FreeRTOS/Source/portable/GCC/ARM_CM4F/port.o
 .text          0x0800024c        0x0 ./FreeRTOS/Source/croutine.o
 .text          0x0800024c        0x0 ./FreeRTOS/Source/list.o
 .text          0x0800024c        0x0 ./FreeRTOS/Source/queue.o
 .text          0x0800024c        0x0 ./FreeRTOS/Source/tasks.o
 .text          0x0800024c        0x0 ./FreeRTOS/Source/timers.o
 .text          0x0800024c        0x0 ./Fatfs/FatFs/src/option/syscall.o
 .text          0x0800024c        0x0 ./Fatfs/FatFs/src/diskio.o
 .text          0x0800024c        0x0 ./Fatfs/FatFs/src/ff.o
 .text          0x0800024c        0x0 ./Fatfs/CFileHandler.o
 .text          0x0800024c        0x0 ./Fatfs/fattime.o
 .text          0x0800024c        0x0 ./Fatfs/stm32f4_sdio.o
 .text          0x0800024c        0x0 ./CLedHeartBeatSTM32F4Disc.o
 .text          0x0800024c        0x0 ./main.o
 .text          0x0800024c       0x14 ./startup_stm32f4xx.o
 .text          0x08000260        0x0 ./stm32f4xx_it.o
 .text          0x08000260        0x0 ./syscalls.o
 .text          0x08000260        0x0 ./system_stm32f4xx.o
 .text          0x08000260        0x0 ./ustime.o
 .text          0x08000260        0x0 d:/elektronik/ides/eclipse/yagarto/bin/../lib/gcc/arm-none-eabi/4.6.2/../../../../arm-none-eabi/lib/thumb/v7m\libstdc++.a(atexit_arm.o)
 .text          0x08000260        0x0 d:/elektronik/ides/eclipse/yagarto/bin/../lib/gcc/arm-none-eabi/4.6.2/../../../../arm-none-eabi/lib/thumb/v7m\libstdc++.a(del_op.o)
 .text          0x08000260        0x0 d:/elektronik/ides/eclipse/yagarto/bin/../lib/gcc/arm-none-eabi/4.6.2/../../../../arm-none-eabi/lib/thumb/v7m\libstdc++.a(pure.o)
 .text          0x08000260        0x0 d:/elektronik/ides/eclipse/yagarto/bin/../lib/gcc/arm-none-eabi/4.6.2/../../../../arm-none-eabi/lib/thumb/v7m\libstdc++.a(eh_terminate.o)
 .text          0x08000260        0x0 d:/elektronik/ides/eclipse/yagarto/bin/../lib/gcc/arm-none-eabi/4.6.2/../../../../arm-none-eabi/lib/thumb/v7m\libstdc++.a(eh_term_handler.o)
 .text          0x08000260        0x0 d:/elektronik/ides/eclipse/yagarto/bin/../lib/gcc/arm-none-eabi/4.6.2/../../../../arm-none-eabi/lib/thumb/v7m\libstdc++.a(eh_unex_handler.o)
 .text          0x08000260        0x0 d:/elektronik/ides/eclipse/yagarto/bin/../lib/gcc/arm-none-eabi/4.6.2/../../../../arm-none-eabi/lib/thumb/v7m\libstdc++.a(vterminate.o)
 .text          0x08000260     0x58f8 d:/elektronik/ides/eclipse/yagarto/bin/../lib/gcc/arm-none-eabi/4.6.2/../../../../arm-none-eabi/lib/thumb/v7m\libstdc++.a(cp-demangle.o)
                0x08005a28                __cxa_demangle
                0x08005b0c                __gcclibcxx_demangle_callback
 .text          0x08005b58        0x0 d:/elektronik/ides/eclipse/yagarto/bin/../lib/gcc/arm-none-eabi/4.6.2/../../../../arm-none-eabi/lib/thumb/v7m\libstdc++.a(eh_arm.o)
 .text          0x08005b58        0x0 d:/elektronik/ides/eclipse/yagarto/bin/../lib/gcc/arm-none-eabi/4.6.2/../../../../arm-none-eabi/lib/thumb/v7m\libstdc++.a(eh_aux_runtime.o)
 .text          0x08005b58        0x0 d:/elektronik/ides/eclipse/yagarto/bin/../lib/gcc/arm-none-eabi/4.6.2/../../../../arm-none-eabi/lib/thumb/v7m\libstdc++.a(eh_call.o)
 .text          0x08005b58        0x0 d:/elektronik/ides/eclipse/yagarto/bin/../lib/gcc/arm-none-eabi/4.6.2/../../../../arm-none-eabi/lib/thumb/v7m\libstdc++.a(eh_catch.o)
 .text          0x08005b58        0x0 d:/elektronik/ides/eclipse/yagarto/bin/../lib/gcc/arm-none-eabi/4.6.2/../../../../arm-none-eabi/lib/thumb/v7m\libstdc++.a(eh_exception.o)
 .text          0x08005b58        0x0 d:/elektronik/ides/eclipse/yagarto/bin/../lib/gcc/arm-none-eabi/4.6.2/../../../../arm-none-eabi/lib/thumb/v7m\libstdc++.a(eh_globals.o)
 .text          0x08005b58        0x0 d:/elektronik/ides/eclipse/yagarto/bin/../lib/gcc/arm-none-eabi/4.6.2/../../../../arm-none-eabi/lib/thumb/v7m\libstdc++.a(eh_personality.o)
 .text          0x08005b58        0x0 d:/elektronik/ides/eclipse/yagarto/bin/../lib/gcc/arm-none-eabi/4.6.2/../../../../arm-none-eabi/lib/thumb/v7m\libstdc++.a(eh_throw.o)
 .text          0x08005b58        0x0 d:/elektronik/ides/eclipse/yagarto/bin/../lib/gcc/arm-none-eabi/4.6.2/../../../../arm-none-eabi/lib/thumb/v7m\libstdc++.a(eh_type.o)
 .text          0x08005b58        0x0 d:/elektronik/ides/eclipse/yagarto/bin/../lib/gcc/arm-none-eabi/4.6.2/../../../../arm-none-eabi/lib/thumb/v7m\libstdc++.a(fundamental_type_info.o)
 .text          0x08005b58        0x0 d:/elektronik/ides/eclipse/yagarto/bin/../lib/gcc/arm-none-eabi/4.6.2/../../../../arm-none-eabi/lib/thumb/v7m\libstdc++.a(pointer_type_info.o)
 .text          0x08005b58        0x0 d:/elektronik/ides/eclipse/yagarto/bin/../lib/gcc/arm-none-eabi/4.6.2/../../../../arm-none-eabi/lib/thumb/v7m\libstdc++.a(si_class_type_info.o)
 .text          0x08005b58        0x0 d:/elektronik/ides/eclipse/yagarto/bin/../lib/gcc/arm-none-eabi/4.6.2/../../../../arm-none-eabi/lib/thumb/v7m\libstdc++.a(tinfo.o)
 .text          0x08005b58        0x0 d:/elektronik/ides/eclipse/yagarto/bin/../lib/gcc/arm-none-eabi/4.6.2/../../../../arm-none-eabi/lib/thumb/v7m\libstdc++.a(bad_cast.o)
 .text          0x08005b58        0x0 d:/elektronik/ides/eclipse/yagarto/bin/../lib/gcc/arm-none-eabi/4.6.2/../../../../arm-none-eabi/lib/thumb/v7m\libstdc++.a(bad_typeid.o)
 .text          0x08005b58        0x0 d:/elektronik/ides/eclipse/yagarto/bin/../lib/gcc/arm-none-eabi/4.6.2/../../../../arm-none-eabi/lib/thumb/v7m\libstdc++.a(class_type_info.o)
 .text          0x08005b58        0x0 d:/elektronik/ides/eclipse/yagarto/bin/../lib/gcc/arm-none-eabi/4.6.2/../../../../arm-none-eabi/lib/thumb/v7m\libstdc++.a(eh_alloc.o)
 .text          0x08005b58        0x0 d:/elektronik/ides/eclipse/yagarto/bin/../lib/gcc/arm-none-eabi/4.6.2/../../../../arm-none-eabi/lib/thumb/v7m\libstdc++.a(pbase_type_info.o)
 .text          0x08005b58      0xa10 d:/elektronik/ides/eclipse/yagarto/bin/../lib/gcc/arm-none-eabi/4.6.2/thumb/v7m\libgcc.a(unwind-arm.o)
                0x08005e14                _Unwind_VRS_Get
                0x08005e60                _Unwind_VRS_Set
                0x08006174                __aeabi_unwind_cpp_pr2
                0x08006178                __aeabi_unwind_cpp_pr1
                0x0800617c                __aeabi_unwind_cpp_pr0
                0x08006180                _Unwind_VRS_Pop
                0x08006410                _Unwind_GetCFA
                0x08006414                __gnu_Unwind_RaiseException
                0x08006474                __gnu_Unwind_ForcedUnwind
                0x08006488                __gnu_Unwind_Resume
                0x080064c4                __gnu_Unwind_Resume_or_Rethrow
                0x080064d4                _Unwind_Complete
                0x080064d8                _Unwind_DeleteException
                0x080064e8                __gnu_Unwind_Backtrace
 .text          0x08006568      0x1ac d:/elektronik/ides/eclipse/yagarto/bin/../lib/gcc/arm-none-eabi/4.6.2/thumb/v7m\libgcc.a(libunwind.o)
                0x08006568                __restore_core_regs
                0x08006568                restore_core_regs
                0x08006580                __gnu_Unwind_Restore_VFP
                0x08006588                __gnu_Unwind_Save_VFP
                0x08006590                __gnu_Unwind_Restore_VFP_D
                0x08006598                __gnu_Unwind_Save_VFP_D
                0x080065a0                __gnu_Unwind_Restore_VFP_D_16_to_31
                0x080065a8                __gnu_Unwind_Save_VFP_D_16_to_31
                0x080065b0                __gnu_Unwind_Restore_WMMXD
                0x080065f4                __gnu_Unwind_Save_WMMXD
                0x08006638                __gnu_Unwind_Restore_WMMXC
                0x0800664c                __gnu_Unwind_Save_WMMXC
                0x08006660                ___Unwind_RaiseException
                0x08006660                _Unwind_RaiseException
                0x08006684                _Unwind_Resume
                0x08006684                ___Unwind_Resume
                0x080066a8                _Unwind_Resume_or_Rethrow
                0x080066a8                ___Unwind_Resume_or_Rethrow
                0x080066cc                _Unwind_ForcedUnwind
                0x080066cc                ___Unwind_ForcedUnwind
                0x080066f0                ___Unwind_Backtrace
                0x080066f0                _Unwind_Backtrace
 .text          0x08006714      0x3d4 d:/elektronik/ides/eclipse/yagarto/bin/../lib/gcc/arm-none-eabi/4.6.2/thumb/v7m\libgcc.a(pr-support.o)
                0x08006768                __gnu_unwind_execute
                0x08006a8c                __gnu_unwind_frame
                0x08006ab8                _Unwind_GetRegionStart
                0x08006ac4                _Unwind_GetLanguageSpecificData
                0x08006ad8                _Unwind_GetDataRelBase
                0x08006ae0                _Unwind_GetTextRelBase
 .text          0x08006ae8       0x10 d:/elektronik/ides/eclipse/yagarto/bin/../lib/gcc/arm-none-eabi/4.6.2/../../../../arm-none-eabi/lib/thumb/v7m\libg.a(lib_a-abort.o)
                0x08006ae8                abort
 .text          0x08006af8       0x48 d:/elektronik/ides/eclipse/yagarto/bin/../lib/gcc/arm-none-eabi/4.6.2/../../../../arm-none-eabi/lib/thumb/v7m\libg.a(lib_a-assert.o)
                0x08006af8                __assert_func
                0x08006b34                __assert
 .text          0x08006b40        0xc d:/elektronik/ides/eclipse/yagarto/bin/../lib/gcc/arm-none-eabi/4.6.2/../../../../arm-none-eabi/lib/thumb/v7m\libg.a(lib_a-atexit.o)
                0x08006b40                atexit
 .text          0x08006b4c       0x14 d:/elektronik/ides/eclipse/yagarto/bin/../lib/gcc/arm-none-eabi/4.6.2/../../../../arm-none-eabi/lib/thumb/v7m\libg.a(lib_a-cxa_atexit.o)
                0x08006b4c                __cxa_atexit
 .text          0x08006b60       0x20 d:/elektronik/ides/eclipse/yagarto/bin/../lib/gcc/arm-none-eabi/4.6.2/../../../../arm-none-eabi/lib/thumb/v7m\libg.a(lib_a-exit.o)
                0x08006b60                exit
 .text          0x08006b80       0x2c d:/elektronik/ides/eclipse/yagarto/bin/../lib/gcc/arm-none-eabi/4.6.2/../../../../arm-none-eabi/lib/thumb/v7m\libg.a(lib_a-fini.o)
                0x08006b80                __libc_fini_array
 .text          0x08006bac       0x4c d:/elektronik/ides/eclipse/yagarto/bin/../lib/gcc/arm-none-eabi/4.6.2/../../../../arm-none-eabi/lib/thumb/v7m\libg.a(lib_a-fiprintf.o)
                0x08006bac                _fiprintf_r
                0x08006bcc                fiprintf
 .text          0x08006bf8       0x4c d:/elektronik/ides/eclipse/yagarto/bin/../lib/gcc/arm-none-eabi/4.6.2/../../../../arm-none-eabi/lib/thumb/v7m\libg.a(lib_a-fputc.o)
                0x08006bf8                _fputc_r
                0x08006c1c                fputc
 .text          0x08006c44       0x60 d:/elektronik/ides/eclipse/yagarto/bin/../lib/gcc/arm-none-eabi/4.6.2/../../../../arm-none-eabi/lib/thumb/v7m\libg.a(lib_a-fputs.o)
                0x08006c44                _fputs_r
                0x08006c94                fputs
 .text          0x08006ca4      0x334 d:/elektronik/ides/eclipse/yagarto/bin/../lib/gcc/arm-none-eabi/4.6.2/../../../../arm-none-eabi/lib/thumb/v7m\libg.a(lib_a-fvwrite.o)
                0x08006ca4                __sfvwrite_r
 .text          0x08006fd8       0x94 d:/elektronik/ides/eclipse/yagarto/bin/../lib/gcc/arm-none-eabi/4.6.2/../../../../arm-none-eabi/lib/thumb/v7m\libg.a(lib_a-fwrite.o)
                0x08006fd8                _fwrite_r
                0x08007044                fwrite
 .text          0x0800706c        0x0 d:/elektronik/ides/eclipse/yagarto/bin/../lib/gcc/arm-none-eabi/4.6.2/../../../../arm-none-eabi/lib/thumb/v7m\libg.a(lib_a-impure.o)
 .text          0x0800706c       0x48 d:/elektronik/ides/eclipse/yagarto/bin/../lib/gcc/arm-none-eabi/4.6.2/../../../../arm-none-eabi/lib/thumb/v7m\libg.a(lib_a-init.o)
                0x0800706c                __libc_init_array
 .text          0x080070b4       0x20 d:/elektronik/ides/eclipse/yagarto/bin/../lib/gcc/arm-none-eabi/4.6.2/../../../../arm-none-eabi/lib/thumb/v7m\libg.a(lib_a-malloc.o)
                0x080070b4                malloc
                0x080070c4                free
 .text          0x080070d4      0x564 d:/elektronik/ides/eclipse/yagarto/bin/../lib/gcc/arm-none-eabi/4.6.2/../../../../arm-none-eabi/lib/thumb/v7m\libg.a(lib_a-mallocr.o)
                0x080070d4                _malloc_r
 .text          0x08007638       0x88 d:/elektronik/ides/eclipse/yagarto/bin/../lib/gcc/arm-none-eabi/4.6.2/../../../../arm-none-eabi/lib/thumb/v7m\libg.a(lib_a-memchr.o)
                0x08007638                memchr
 .text          0x080076c0       0x60 d:/elektronik/ides/eclipse/yagarto/bin/../lib/gcc/arm-none-eabi/4.6.2/../../../../arm-none-eabi/lib/thumb/v7m\libg.a(lib_a-memcmp.o)
                0x080076c0                memcmp
 .text          0x08007720       0x84 d:/elektronik/ides/eclipse/yagarto/bin/../lib/gcc/arm-none-eabi/4.6.2/../../../../arm-none-eabi/lib/thumb/v7m\libg.a(lib_a-memcpy.o)
                0x08007720                memcpy
 .text          0x080077a4       0xc8 d:/elektronik/ides/eclipse/yagarto/bin/../lib/gcc/arm-none-eabi/4.6.2/../../../../arm-none-eabi/lib/thumb/v7m\libg.a(lib_a-memmove.o)
                0x080077a4                memmove
 .text          0x0800786c       0x94 d:/elektronik/ides/eclipse/yagarto/bin/../lib/gcc/arm-none-eabi/4.6.2/../../../../arm-none-eabi/lib/thumb/v7m\libg.a(lib_a-memset.o)
                0x0800786c                memset
 .text          0x08007900       0xc8 d:/elektronik/ides/eclipse/yagarto/bin/../lib/gcc/arm-none-eabi/4.6.2/../../../../arm-none-eabi/lib/thumb/v7m\libg.a(lib_a-putc.o)
                0x08007900                _putc_r
                0x08007960                putc
 .text          0x080079c8       0x14 d:/elektronik/ides/eclipse/yagarto/bin/../lib/gcc/arm-none-eabi/4.6.2/../../../../arm-none-eabi/lib/thumb/v7m\libg.a(lib_a-realloc.o)
                0x080079c8                realloc
 .text          0x080079dc      0x410 d:/elektronik/ides/eclipse/yagarto/bin/../lib/gcc/arm-none-eabi/4.6.2/../../../../arm-none-eabi/lib/thumb/v7m\libg.a(lib_a-reallocr.o)
                0x080079dc                _realloc_r
 .text          0x08007dec      0x158 d:/elektronik/ides/eclipse/yagarto/bin/../lib/gcc/arm-none-eabi/4.6.2/../../../../arm-none-eabi/lib/thumb/v7m\libg.a(lib_a-signal.o)
                0x08007dec                _init_signal_r
                0x08007e20                _signal_r
                0x08007e60                _raise_r
                0x08007eb8                __sigtramp_r
                0x08007f08                raise
                0x08007f18                signal
                0x08007f28                _init_signal
                0x08007f34                __sigtramp
 .text          0x08007f44       0x94 d:/elektronik/ides/eclipse/yagarto/bin/../lib/gcc/arm-none-eabi/4.6.2/../../../../arm-none-eabi/lib/thumb/v7m\libg.a(lib_a-sprintf.o)
                0x08007f44                _sprintf_r
                0x08007f88                sprintf
 .text          0x08007fd8       0x50 d:/elektronik/ides/eclipse/yagarto/bin/../lib/gcc/arm-none-eabi/4.6.2/../../../../arm-none-eabi/lib/thumb/v7m\libg.a(lib_a-strcat.o)
                0x08007fd8                strcat
 .text          0x08008028      0x1dc d:/elektronik/ides/eclipse/yagarto/bin/../lib/gcc/arm-none-eabi/4.6.2/../../../../arm-none-eabi/lib/thumb/v7m\libg.a(lib_a-strcmp.o)
                0x08008028                strcmp
 .text          0x08008204       0xbc d:/elektronik/ides/eclipse/yagarto/bin/../lib/gcc/arm-none-eabi/4.6.2/../../../../arm-none-eabi/lib/thumb/v7m\libg.a(lib_a-strcpy.o)
                0x08008204                strcpy
 .text          0x080082c0       0x60 d:/elektronik/ides/eclipse/yagarto/bin/../lib/gcc/arm-none-eabi/4.6.2/../../../../arm-none-eabi/lib/thumb/v7m\libg.a(lib_a-strlen.o)
                0x080082c0                strlen
 .text          0x08008320       0xa8 d:/elektronik/ides/eclipse/yagarto/bin/../lib/gcc/arm-none-eabi/4.6.2/../../../../arm-none-eabi/lib/thumb/v7m\libg.a(lib_a-strncmp.o)
                0x08008320                strncmp
 .text          0x080083c8       0x70 d:/elektronik/ides/eclipse/yagarto/bin/../lib/gcc/arm-none-eabi/4.6.2/../../../../arm-none-eabi/lib/thumb/v7m\libg.a(lib_a-strncpy.o)
                0x080083c8                strncpy
 .text          0x08008438     0x1314 d:/elektronik/ides/eclipse/yagarto/bin/../lib/gcc/arm-none-eabi/4.6.2/../../../../arm-none-eabi/lib/thumb/v7m\libg.a(lib_a-svfprintf.o)
                0x08008438                _svfprintf_r
 .text          0x0800974c       0x1c d:/elektronik/ides/eclipse/yagarto/bin/../lib/gcc/arm-none-eabi/4.6.2/../../../../arm-none-eabi/lib/thumb/v7m\libg.a(lib_a-syswrite.o)
                0x0800974c                write
 .text          0x08009768      0xb54 d:/elektronik/ides/eclipse/yagarto/bin/../lib/gcc/arm-none-eabi/4.6.2/../../../../arm-none-eabi/lib/thumb/v7m\libg.a(lib_a-vfiprintf.o)
                0x08009768                __sprint_r
                0x080097e8                _vfiprintf_r
                0x0800a2a0                vfiprintf
 .text          0x0800a2bc       0xc8 d:/elektronik/ides/eclipse/yagarto/bin/../lib/gcc/arm-none-eabi/4.6.2/../../../../arm-none-eabi/lib/thumb/v7m\libg.a(lib_a-wbuf.o)
                0x0800a2bc                __swbuf_r
                0x0800a374                __swbuf
 .text          0x0800a384       0xb8 d:/elektronik/ides/eclipse/yagarto/bin/../lib/gcc/arm-none-eabi/4.6.2/../../../../arm-none-eabi/lib/thumb/v7m\libg.a(lib_a-wsetup.o)
                0x0800a384                __swsetup_r
 .text          0x0800a43c       0xb0 d:/elektronik/ides/eclipse/yagarto/bin/../lib/gcc/arm-none-eabi/4.6.2/../../../../arm-none-eabi/lib/thumb/v7m\libg.a(lib_a-__atexit.o)
                0x0800a43c                __register_exitproc
 .text          0x0800a4ec       0xd8 d:/elektronik/ides/eclipse/yagarto/bin/../lib/gcc/arm-none-eabi/4.6.2/../../../../arm-none-eabi/lib/thumb/v7m\libg.a(lib_a-__call_atexit.o)
                0x0800a4ec                __call_exitprocs
 *fill*         0x0800a5c4        0x4 00
 .text          0x0800a5c8     0x1040 d:/elektronik/ides/eclipse/yagarto/bin/../lib/gcc/arm-none-eabi/4.6.2/../../../../arm-none-eabi/lib/thumb/v7m\libg.a(lib_a-dtoa.o)
                0x0800a70c                _dtoa_r
 .text          0x0800b608      0x1a4 d:/elektronik/ides/eclipse/yagarto/bin/../lib/gcc/arm-none-eabi/4.6.2/../../../../arm-none-eabi/lib/thumb/v7m\libg.a(lib_a-fflush.o)
                0x0800b608                _fflush_r
                0x0800b78c                fflush
 .text          0x0800b7ac      0x1c4 d:/elektronik/ides/eclipse/yagarto/bin/../lib/gcc/arm-none-eabi/4.6.2/../../../../arm-none-eabi/lib/thumb/v7m\libg.a(lib_a-findfp.o)
                0x0800b7b4                _cleanup_r
                0x0800b814                __sfmoreglue
                0x0800b840                _cleanup
                0x0800b84c                __sinit
                0x0800b894                __sfp
                0x0800b930                __sfp_lock_acquire
                0x0800b934                __sfp_lock_release
                0x0800b938                __sinit_lock_acquire
                0x0800b93c                __sinit_lock_release
                0x0800b940                __fp_lock_all
                0x0800b958                __fp_unlock_all
 .text          0x0800b970      0x104 d:/elektronik/ides/eclipse/yagarto/bin/../lib/gcc/arm-none-eabi/4.6.2/../../../../arm-none-eabi/lib/thumb/v7m\libg.a(lib_a-fputwc.o)
                0x0800b970                _fputwc_r
                0x0800ba50                fputwc
 .text          0x0800ba74      0x224 d:/elektronik/ides/eclipse/yagarto/bin/../lib/gcc/arm-none-eabi/4.6.2/../../../../arm-none-eabi/lib/thumb/v7m\libg.a(lib_a-freer.o)
                0x0800ba74                _malloc_trim_r
                0x0800bb14                _free_r
 .text          0x0800bc98       0xa0 d:/elektronik/ides/eclipse/yagarto/bin/../lib/gcc/arm-none-eabi/4.6.2/../../../../arm-none-eabi/lib/thumb/v7m\libg.a(lib_a-fwalk.o)
                0x0800bc98                _fwalk
                0x0800bce4                _fwalk_reent
 .text          0x0800bd38       0x88 d:/elektronik/ides/eclipse/yagarto/bin/../lib/gcc/arm-none-eabi/4.6.2/../../../../arm-none-eabi/lib/thumb/v7m\libg.a(lib_a-locale.o)
                0x0800bd38                _setlocale_r
                0x0800bd7c                __locale_charset
                0x0800bd88                __locale_mb_cur_max
                0x0800bd94                __locale_msgcharset
                0x0800bd9c                __locale_cjk_lang
                0x0800bda0                _localeconv_r
                0x0800bda8                setlocale
                0x0800bdb8                localeconv
 .text          0x0800bdc0       0xe4 d:/elektronik/ides/eclipse/yagarto/bin/../lib/gcc/arm-none-eabi/4.6.2/../../../../arm-none-eabi/lib/thumb/v7m\libg.a(lib_a-makebuf.o)
                0x0800bdc0                __smakebuf_r
 .text          0x0800bea4      0x8c8 d:/elektronik/ides/eclipse/yagarto/bin/../lib/gcc/arm-none-eabi/4.6.2/../../../../arm-none-eabi/lib/thumb/v7m\libg.a(lib_a-mprec.o)
                0x0800bea4                _Balloc
                0x0800bef0                _Bfree
                0x0800bf04                __multadd
                0x0800bf88                __s2b
                0x0800c01c                __hi0bits
                0x0800c058                __lo0bits
                0x0800c0b4                __i2b
                0x0800c0c8                __multiply
                0x0800c200                __pow5mult
                0x0800c298                __lshift
                0x0800c358                __mcmp
                0x0800c398                __mdiff
                0x0800c47c                __ulp
                0x0800c4c0                __b2d
                0x0800c56c                __d2b
                0x0800c634                __ratio
                0x0800c690                _mprec_log10
                0x0800c6c4                __copybits
                0x0800c70c                __any_on
 .text          0x0800c76c       0x90 d:/elektronik/ides/eclipse/yagarto/bin/../lib/gcc/arm-none-eabi/4.6.2/../../../../arm-none-eabi/lib/thumb/v7m\libg.a(lib_a-s_fpclassify.o)
                0x0800c76c                __fpclassifyd
 .text          0x0800c7fc       0x8c d:/elektronik/ides/eclipse/yagarto/bin/../lib/gcc/arm-none-eabi/4.6.2/../../../../arm-none-eabi/lib/thumb/v7m\libg.a(lib_a-stdio.o)
                0x0800c7fc                __sread
                0x0800c820                __seofread
                0x0800c824                __swrite
                0x0800c85c                __sseek
                0x0800c880                __sclose
 .text          0x0800c888      0xa00 d:/elektronik/ides/eclipse/yagarto/bin/../lib/gcc/arm-none-eabi/4.6.2/../../../../arm-none-eabi/lib/thumb/v7m\libg.a(lib_a-svfiprintf.o)
                0x0800c888                __ssprint_r
                0x0800c9a0                _svfiprintf_r
 .text          0x0800d288       0xac d:/elektronik/ides/eclipse/yagarto/bin/../lib/gcc/arm-none-eabi/4.6.2/../../../../arm-none-eabi/lib/thumb/v7m\libg.a(lib_a-wcrtomb.o)
                0x0800d288                _wcrtomb_r
                0x0800d2d4                wcrtomb
 .text          0x0800d334       0x4c d:/elektronik/ides/eclipse/yagarto/bin/../lib/gcc/arm-none-eabi/4.6.2/../../../../arm-none-eabi/lib/thumb/v7m\libg.a(lib_a-wctomb_r.o)
                0x0800d334                __ascii_wctomb
                0x0800d350                _wctomb_r
 .text          0x0800d380       0x60 d:/elektronik/ides/eclipse/yagarto/bin/../lib/gcc/arm-none-eabi/4.6.2/../../../../arm-none-eabi/lib/thumb/v7m\libg.a(lib_a-callocr.o)
                0x0800d380                _calloc_r
 .text          0x0800d3e0       0x9c d:/elektronik/ides/eclipse/yagarto/bin/../lib/gcc/arm-none-eabi/4.6.2/../../../../arm-none-eabi/lib/thumb/v7m\libg.a(lib_a-fclose.o)
                0x0800d3e0                _fclose_r
                0x0800d46c                fclose
 *fill*         0x0800d47c        0x4 00
 .text          0x0800d480      0x278 d:/elektronik/ides/eclipse/yagarto/bin/../lib/gcc/arm-none-eabi/4.6.2/thumb/v7m\libgcc.a(_udivsi3.o)
                0x0800d480                __aeabi_uidiv
                0x0800d480                __udivsi3
                0x0800d6dc                __aeabi_uidivmod
 .text          0x0800d6f8        0x4 d:/elektronik/ides/eclipse/yagarto/bin/../lib/gcc/arm-none-eabi/4.6.2/thumb/v7m\libgcc.a(_dvmd_tls.o)
                0x0800d6f8                __aeabi_idiv0
                0x0800d6f8                __aeabi_ldiv0
 .text          0x0800d6fc      0x370 d:/elektronik/ides/eclipse/yagarto/bin/../lib/gcc/arm-none-eabi/4.6.2/thumb/v7m\libgcc.a(_arm_addsubdf3.o)
                0x0800d6fc                __aeabi_drsub
                0x0800d704                __aeabi_dsub
                0x0800d704                __subdf3
                0x0800d708                __aeabi_dadd
                0x0800d708                __adddf3
                0x0800d980                __floatunsidf
                0x0800d980                __aeabi_ui2d
                0x0800d9a0                __floatsidf
                0x0800d9a0                __aeabi_i2d
                0x0800d9c4                __aeabi_f2d
                0x0800d9c4                __extendsfdf2
                0x0800da00                __floatundidf
                0x0800da00                __aeabi_ul2d
                0x0800da10                __floatdidf
                0x0800da10                __aeabi_l2d
 .text          0x0800da6c      0x424 d:/elektronik/ides/eclipse/yagarto/bin/../lib/gcc/arm-none-eabi/4.6.2/thumb/v7m\libgcc.a(_arm_muldivdf3.o)
                0x0800da6c                __aeabi_dmul
                0x0800da6c                __muldf3
                0x0800dcc0                __divdf3
                0x0800dcc0                __aeabi_ddiv
 .text          0x0800de90      0x110 d:/elektronik/ides/eclipse/yagarto/bin/../lib/gcc/arm-none-eabi/4.6.2/thumb/v7m\libgcc.a(_arm_cmpdf2.o)
                0x0800de90                __gtdf2
                0x0800de90                __gedf2
                0x0800de98                __ltdf2
                0x0800de98                __ledf2
                0x0800dea0                __nedf2
                0x0800dea0                __eqdf2
                0x0800dea0                __cmpdf2
                0x0800df1c                __aeabi_cdrcmple
                0x0800df2c                __aeabi_cdcmpeq
                0x0800df2c                __aeabi_cdcmple
                0x0800df3c                __aeabi_dcmpeq
                0x0800df50                __aeabi_dcmplt
                0x0800df64                __aeabi_dcmple
                0x0800df78                __aeabi_dcmpge
                0x0800df8c                __aeabi_dcmpgt
 .text          0x0800dfa0       0x50 d:/elektronik/ides/eclipse/yagarto/bin/../lib/gcc/arm-none-eabi/4.6.2/thumb/v7m\libgcc.a(_arm_fixdfsi.o)
                0x0800dfa0                __aeabi_d2iz
                0x0800dfa0                __fixdfsi
 .text          0x0800dff0        0x0 d:/elektronik/ides/eclipse/yagarto/bin/../lib/gcc/arm-none-eabi/4.6.2/thumb/v7m/crtend.o
 .text          0x0800dff0        0x0 d:/elektronik/ides/eclipse/yagarto/bin/../lib/gcc/arm-none-eabi/4.6.2/thumb/v7m/crtn.o
 *(.text*)
 .text.NVIC_PriorityGroupConfig
                0x0800dff0       0x28 ./STM32F4xx_StdPeriph_Driver/src/misc.o
                0x0800dff0                NVIC_PriorityGroupConfig
 .text.NVIC_Init
                0x0800e018       0xe4 ./STM32F4xx_StdPeriph_Driver/src/misc.o
                0x0800e018                NVIC_Init
 .text.NVIC_SetVectorTable
                0x0800e0fc       0x2c ./STM32F4xx_StdPeriph_Driver/src/misc.o
                0x0800e0fc                NVIC_SetVectorTable
 .text.NVIC_SystemLPConfig
                0x0800e128       0x58 ./STM32F4xx_StdPeriph_Driver/src/misc.o
                0x0800e128                NVIC_SystemLPConfig
 .text.SysTick_CLKSourceConfig
                0x0800e180       0x4c ./STM32F4xx_StdPeriph_Driver/src/misc.o
                0x0800e180                SysTick_CLKSourceConfig
 .text.ADC_DeInit
                0x0800e1cc       0x20 ./STM32F4xx_StdPeriph_Driver/src/stm32f4xx_adc.o
                0x0800e1cc                ADC_DeInit
 .text.ADC_Init
                0x0800e1ec       0xb8 ./STM32F4xx_StdPeriph_Driver/src/stm32f4xx_adc.o
                0x0800e1ec                ADC_Init
 .text.ADC_StructInit
                0x0800e2a4       0x4c ./STM32F4xx_StdPeriph_Driver/src/stm32f4xx_adc.o
                0x0800e2a4                ADC_StructInit
 .text.ADC_CommonInit
                0x0800e2f0       0x5c ./STM32F4xx_StdPeriph_Driver/src/stm32f4xx_adc.o
                0x0800e2f0                ADC_CommonInit
 .text.ADC_CommonStructInit
                0x0800e34c       0x34 ./STM32F4xx_StdPeriph_Driver/src/stm32f4xx_adc.o
                0x0800e34c                ADC_CommonStructInit
 .text.ADC_Cmd  0x0800e380       0x38 ./STM32F4xx_StdPeriph_Driver/src/stm32f4xx_adc.o
                0x0800e380                ADC_Cmd
 .text.ADC_AnalogWatchdogCmd
                0x0800e3b8       0x3c ./STM32F4xx_StdPeriph_Driver/src/stm32f4xx_adc.o
                0x0800e3b8                ADC_AnalogWatchdogCmd
 .text.ADC_AnalogWatchdogThresholdsConfig
                0x0800e3f4       0x28 ./STM32F4xx_StdPeriph_Driver/src/stm32f4xx_adc.o
                0x0800e3f4                ADC_AnalogWatchdogThresholdsConfig
 .text.ADC_AnalogWatchdogSingleChannelConfig
                0x0800e41c       0x38 ./STM32F4xx_StdPeriph_Driver/src/stm32f4xx_adc.o
                0x0800e41c                ADC_AnalogWatchdogSingleChannelConfig
 .text.ADC_TempSensorVrefintCmd
                0x0800e454       0x4c ./STM32F4xx_StdPeriph_Driver/src/stm32f4xx_adc.o
                0x0800e454                ADC_TempSensorVrefintCmd
 .text.ADC_VBATCmd
                0x0800e4a0       0x4c ./STM32F4xx_StdPeriph_Driver/src/stm32f4xx_adc.o
                0x0800e4a0                ADC_VBATCmd
 .text.ADC_RegularChannelConfig
                0x0800e4ec      0x1bc ./STM32F4xx_StdPeriph_Driver/src/stm32f4xx_adc.o
                0x0800e4ec                ADC_RegularChannelConfig
 .text.ADC_SoftwareStartConv
                0x0800e6a8       0x20 ./STM32F4xx_StdPeriph_Driver/src/stm32f4xx_adc.o
                0x0800e6a8                ADC_SoftwareStartConv
 .text.ADC_GetSoftwareStartConvStatus
                0x0800e6c8       0x38 ./STM32F4xx_StdPeriph_Driver/src/stm32f4xx_adc.o
                0x0800e6c8                ADC_GetSoftwareStartConvStatus
 .text.ADC_EOCOnEachRegularChannelCmd
                0x0800e700       0x38 ./STM32F4xx_StdPeriph_Driver/src/stm32f4xx_adc.o
                0x0800e700                ADC_EOCOnEachRegularChannelCmd
 .text.ADC_ContinuousModeCmd
                0x0800e738       0x38 ./STM32F4xx_StdPeriph_Driver/src/stm32f4xx_adc.o
                0x0800e738                ADC_ContinuousModeCmd
 .text.ADC_DiscModeChannelCountConfig
                0x0800e770       0x4c ./STM32F4xx_StdPeriph_Driver/src/stm32f4xx_adc.o
                0x0800e770                ADC_DiscModeChannelCountConfig
 .text.ADC_DiscModeCmd
                0x0800e7bc       0x38 ./STM32F4xx_StdPeriph_Driver/src/stm32f4xx_adc.o
                0x0800e7bc                ADC_DiscModeCmd
 .text.ADC_GetConversionValue
                0x0800e7f4       0x1c ./STM32F4xx_StdPeriph_Driver/src/stm32f4xx_adc.o
                0x0800e7f4                ADC_GetConversionValue
 .text.ADC_GetMultiModeConversionValue
                0x0800e810       0x18 ./STM32F4xx_StdPeriph_Driver/src/stm32f4xx_adc.o
                0x0800e810                ADC_GetMultiModeConversionValue
 .text.ADC_DMACmd
                0x0800e828       0x38 ./STM32F4xx_StdPeriph_Driver/src/stm32f4xx_adc.o
                0x0800e828                ADC_DMACmd
 .text.ADC_DMARequestAfterLastTransferCmd
                0x0800e860       0x38 ./STM32F4xx_StdPeriph_Driver/src/stm32f4xx_adc.o
                0x0800e860                ADC_DMARequestAfterLastTransferCmd
 .text.ADC_MultiModeDMARequestAfterLastTransferCmd
                0x0800e898       0x4c ./STM32F4xx_StdPeriph_Driver/src/stm32f4xx_adc.o
                0x0800e898                ADC_MultiModeDMARequestAfterLastTransferCmd
 .text.ADC_InjectedChannelConfig
                0x0800e8e4      0x144 ./STM32F4xx_StdPeriph_Driver/src/stm32f4xx_adc.o
                0x0800e8e4                ADC_InjectedChannelConfig
 .text.ADC_InjectedSequencerLengthConfig
                0x0800ea28       0x4c ./STM32F4xx_StdPeriph_Driver/src/stm32f4xx_adc.o
                0x0800ea28                ADC_InjectedSequencerLengthConfig
 .text.ADC_SetInjectedOffset
                0x0800ea74       0x34 ./STM32F4xx_StdPeriph_Driver/src/stm32f4xx_adc.o
                0x0800ea74                ADC_SetInjectedOffset
 .text.ADC_ExternalTrigInjectedConvConfig
                0x0800eaa8       0x38 ./STM32F4xx_StdPeriph_Driver/src/stm32f4xx_adc.o
                0x0800eaa8                ADC_ExternalTrigInjectedConvConfig
 .text.ADC_ExternalTrigInjectedConvEdgeConfig
                0x0800eae0       0x38 ./STM32F4xx_StdPeriph_Driver/src/stm32f4xx_adc.o
                0x0800eae0                ADC_ExternalTrigInjectedConvEdgeConfig
 .text.ADC_SoftwareStartInjectedConv
                0x0800eb18       0x20 ./STM32F4xx_StdPeriph_Driver/src/stm32f4xx_adc.o
                0x0800eb18                ADC_SoftwareStartInjectedConv
 .text.ADC_GetSoftwareStartInjectedConvCmdStatus
                0x0800eb38       0x38 ./STM32F4xx_StdPeriph_Driver/src/stm32f4xx_adc.o
                0x0800eb38                ADC_GetSoftwareStartInjectedConvCmdStatus
 .text.ADC_AutoInjectedConvCmd
                0x0800eb70       0x38 ./STM32F4xx_StdPeriph_Driver/src/stm32f4xx_adc.o
                0x0800eb70                ADC_AutoInjectedConvCmd
 .text.ADC_InjectedDiscModeCmd
                0x0800eba8       0x38 ./STM32F4xx_StdPeriph_Driver/src/stm32f4xx_adc.o
                0x0800eba8                ADC_InjectedDiscModeCmd
 .text.ADC_GetInjectedConversionValue
                0x0800ebe0       0x34 ./STM32F4xx_StdPeriph_Driver/src/stm32f4xx_adc.o
                0x0800ebe0                ADC_GetInjectedConversionValue
 .text.ADC_ITConfig
                0x0800ec14       0x5c ./STM32F4xx_StdPeriph_Driver/src/stm32f4xx_adc.o
                0x0800ec14                ADC_ITConfig
 .text.ADC_GetFlagStatus
                0x0800ec70       0x3c ./STM32F4xx_StdPeriph_Driver/src/stm32f4xx_adc.o
                0x0800ec70                ADC_GetFlagStatus
 .text.ADC_ClearFlag
                0x0800ecac       0x20 ./STM32F4xx_StdPeriph_Driver/src/stm32f4xx_adc.o
                0x0800ecac                ADC_ClearFlag
 .text.ADC_GetITStatus
                0x0800eccc       0x70 ./STM32F4xx_StdPeriph_Driver/src/stm32f4xx_adc.o
                0x0800eccc                ADC_GetITStatus
 .text.ADC_ClearITPendingBit
                0x0800ed3c       0x30 ./STM32F4xx_StdPeriph_Driver/src/stm32f4xx_adc.o
                0x0800ed3c                ADC_ClearITPendingBit
 .text.CAN_DeInit
                0x0800ed6c       0x50 ./STM32F4xx_StdPeriph_Driver/src/stm32f4xx_can.o
                0x0800ed6c                CAN_DeInit
 .text.CAN_Init
                0x0800edbc      0x1c0 ./STM32F4xx_StdPeriph_Driver/src/stm32f4xx_can.o
                0x0800edbc                CAN_Init
 .text.CAN_FilterInit
                0x0800ef7c      0x220 ./STM32F4xx_StdPeriph_Driver/src/stm32f4xx_can.o
                0x0800ef7c                CAN_FilterInit
 .text.CAN_StructInit
                0x0800f19c       0x6c ./STM32F4xx_StdPeriph_Driver/src/stm32f4xx_can.o
                0x0800f19c                CAN_StructInit
 .text.CAN_SlaveStartBank
                0x0800f208       0x90 ./STM32F4xx_StdPeriph_Driver/src/stm32f4xx_can.o
                0x0800f208                CAN_SlaveStartBank
 .text.CAN_DBGFreeze
                0x0800f298       0x38 ./STM32F4xx_StdPeriph_Driver/src/stm32f4xx_can.o
                0x0800f298                CAN_DBGFreeze
 .text.CAN_TTComModeCmd
                0x0800f2d0       0x98 ./STM32F4xx_StdPeriph_Driver/src/stm32f4xx_can.o
                0x0800f2d0                CAN_TTComModeCmd
 .text.CAN_Transmit
                0x0800f368      0x1e4 ./STM32F4xx_StdPeriph_Driver/src/stm32f4xx_can.o
                0x0800f368                CAN_Transmit
 .text.CAN_TransmitStatus
                0x0800f54c      0x114 ./STM32F4xx_StdPeriph_Driver/src/stm32f4xx_can.o
                0x0800f54c                CAN_TransmitStatus
 .text.CAN_CancelTransmit
                0x0800f660       0x50 ./STM32F4xx_StdPeriph_Driver/src/stm32f4xx_can.o
                0x0800f660                CAN_CancelTransmit
 .text.CAN_Receive
                0x0800f6b0      0x1a8 ./STM32F4xx_StdPeriph_Driver/src/stm32f4xx_can.o
                0x0800f6b0                CAN_Receive
 .text.CAN_FIFORelease
                0x0800f858       0x38 ./STM32F4xx_StdPeriph_Driver/src/stm32f4xx_can.o
                0x0800f858                CAN_FIFORelease
 .text.CAN_MessagePending
                0x0800f890       0x50 ./STM32F4xx_StdPeriph_Driver/src/stm32f4xx_can.o
                0x0800f890                CAN_MessagePending
 .text.CAN_OperatingModeRequest
                0x0800f8e0      0x114 ./STM32F4xx_StdPeriph_Driver/src/stm32f4xx_can.o
                0x0800f8e0                CAN_OperatingModeRequest
 .text.CAN_Sleep
                0x0800f9f4       0x40 ./STM32F4xx_StdPeriph_Driver/src/stm32f4xx_can.o
                0x0800f9f4                CAN_Sleep
 .text.CAN_WakeUp
                0x0800fa34       0x5c ./STM32F4xx_StdPeriph_Driver/src/stm32f4xx_can.o
                0x0800fa34                CAN_WakeUp
 .text.CAN_GetLastErrorCode
                0x0800fa90       0x28 ./STM32F4xx_StdPeriph_Driver/src/stm32f4xx_can.o
                0x0800fa90                CAN_GetLastErrorCode
 .text.CAN_GetReceiveErrorCounter
                0x0800fab8       0x28 ./STM32F4xx_StdPeriph_Driver/src/stm32f4xx_can.o
                0x0800fab8                CAN_GetReceiveErrorCounter
 .text.CAN_GetLSBTransmitErrorCounter
                0x0800fae0       0x2c ./STM32F4xx_StdPeriph_Driver/src/stm32f4xx_can.o
                0x0800fae0                CAN_GetLSBTransmitErrorCounter
 .text.CAN_ITConfig
                0x0800fb0c       0x40 ./STM32F4xx_StdPeriph_Driver/src/stm32f4xx_can.o
                0x0800fb0c                CAN_ITConfig
 .text.CAN_GetFlagStatus
                0x0800fb4c      0x104 ./STM32F4xx_StdPeriph_Driver/src/stm32f4xx_can.o
                0x0800fb4c                CAN_GetFlagStatus
 .text.CAN_ClearFlag
                0x0800fc50       0x7c ./STM32F4xx_StdPeriph_Driver/src/stm32f4xx_can.o
                0x0800fc50                CAN_ClearFlag
 .text.CAN_GetITStatus
                0x0800fccc      0x1bc ./STM32F4xx_StdPeriph_Driver/src/stm32f4xx_can.o
                0x0800fccc                CAN_GetITStatus
 .text.CAN_ClearITPendingBit
                0x0800fe88       0xfc ./STM32F4xx_StdPeriph_Driver/src/stm32f4xx_can.o
                0x0800fe88                CAN_ClearITPendingBit
 .text.CheckITStatus
                0x0800ff84       0x38 ./STM32F4xx_StdPeriph_Driver/src/stm32f4xx_can.o
 .text.CRC_ResetDR
                0x0800ffbc       0x18 ./STM32F4xx_StdPeriph_Driver/src/stm32f4xx_crc.o
                0x0800ffbc                CRC_ResetDR
 .text.CRC_CalcCRC
                0x0800ffd4       0x2c ./STM32F4xx_StdPeriph_Driver/src/stm32f4xx_crc.o
                0x0800ffd4                CRC_CalcCRC
 .text.CRC_CalcBlockCRC
                0x08010000       0x54 ./STM32F4xx_StdPeriph_Driver/src/stm32f4xx_crc.o
                0x08010000                CRC_CalcBlockCRC
 .text.CRC_GetCRC
                0x08010054       0x18 ./STM32F4xx_StdPeriph_Driver/src/stm32f4xx_crc.o
                0x08010054                CRC_GetCRC
 .text.CRC_SetIDRegister
                0x0801006c       0x20 ./STM32F4xx_StdPeriph_Driver/src/stm32f4xx_crc.o
                0x0801006c                CRC_SetIDRegister
 .text.CRC_GetIDRegister
                0x0801008c       0x18 ./STM32F4xx_StdPeriph_Driver/src/stm32f4xx_crc.o
                0x0801008c                CRC_GetIDRegister
 .text.CRYP_DeInit
                0x080100a4       0x20 ./STM32F4xx_StdPeriph_Driver/src/stm32f4xx_cryp.o
                0x080100a4                CRYP_DeInit
 .text.CRYP_Init
                0x080100c4      0x104 ./STM32F4xx_StdPeriph_Driver/src/stm32f4xx_cryp.o
                0x080100c4                CRYP_Init
 .text.CRYP_StructInit
                0x080101c8       0x34 ./STM32F4xx_StdPeriph_Driver/src/stm32f4xx_cryp.o
                0x080101c8                CRYP_StructInit
 .text.CRYP_KeyInit
                0x080101fc       0x84 ./STM32F4xx_StdPeriph_Driver/src/stm32f4xx_cryp.o
                0x080101fc                CRYP_KeyInit
 .text.CRYP_KeyStructInit
                0x08010280       0x54 ./STM32F4xx_StdPeriph_Driver/src/stm32f4xx_cryp.o
                0x08010280                CRYP_KeyStructInit
 .text.CRYP_IVInit
                0x080102d4       0x4c ./STM32F4xx_StdPeriph_Driver/src/stm32f4xx_cryp.o
                0x080102d4                CRYP_IVInit
 .text.CRYP_IVStructInit
                0x08010320       0x34 ./STM32F4xx_StdPeriph_Driver/src/stm32f4xx_cryp.o
                0x08010320                CRYP_IVStructInit
 .text.CRYP_FIFOFlush
                0x08010354       0x24 ./STM32F4xx_StdPeriph_Driver/src/stm32f4xx_cryp.o
                0x08010354                CRYP_FIFOFlush
 .text.CRYP_Cmd
                0x08010378       0x4c ./STM32F4xx_StdPeriph_Driver/src/stm32f4xx_cryp.o
                0x08010378                CRYP_Cmd
 .text.CRYP_DataIn
                0x080103c4       0x20 ./STM32F4xx_StdPeriph_Driver/src/stm32f4xx_cryp.o
                0x080103c4                CRYP_DataIn
 .text.CRYP_DataOut
                0x080103e4       0x18 ./STM32F4xx_StdPeriph_Driver/src/stm32f4xx_cryp.o
                0x080103e4                CRYP_DataOut
 .text.CRYP_SaveContext
                0x080103fc      0x170 ./STM32F4xx_StdPeriph_Driver/src/stm32f4xx_cryp.o
                0x080103fc                CRYP_SaveContext
 .text.CRYP_RestoreContext
                0x0801056c       0xe0 ./STM32F4xx_StdPeriph_Driver/src/stm32f4xx_cryp.o
                0x0801056c                CRYP_RestoreContext
 .text.CRYP_DMACmd
                0x0801064c       0x5c ./STM32F4xx_StdPeriph_Driver/src/stm32f4xx_cryp.o
                0x0801064c                CRYP_DMACmd
 .text.CRYP_ITConfig
                0x080106a8       0x5c ./STM32F4xx_StdPeriph_Driver/src/stm32f4xx_cryp.o
                0x080106a8                CRYP_ITConfig
 .text.CRYP_GetITStatus
                0x08010704       0x40 ./STM32F4xx_StdPeriph_Driver/src/stm32f4xx_cryp.o
                0x08010704                CRYP_GetITStatus
 .text.CRYP_GetFlagStatus
                0x08010744       0x60 ./STM32F4xx_StdPeriph_Driver/src/stm32f4xx_cryp.o
                0x08010744                CRYP_GetFlagStatus
 .text.CRYP_AES_ECB
                0x080107a4      0x4b0 ./STM32F4xx_StdPeriph_Driver/src/stm32f4xx_cryp_aes.o
                0x080107a4                CRYP_AES_ECB
 .text.CRYP_AES_CBC
                0x08010c54      0x5cc ./STM32F4xx_StdPeriph_Driver/src/stm32f4xx_cryp_aes.o
                0x08010c54                CRYP_AES_CBC
 .text.CRYP_AES_CTR
                0x08011220      0x550 ./STM32F4xx_StdPeriph_Driver/src/stm32f4xx_cryp_aes.o
                0x08011220                CRYP_AES_CTR
 .text.CRYP_DES_ECB
                0x08011770      0x160 ./STM32F4xx_StdPeriph_Driver/src/stm32f4xx_cryp_des.o
                0x08011770                CRYP_DES_ECB
 .text.CRYP_DES_CBC
                0x080118d0      0x1b0 ./STM32F4xx_StdPeriph_Driver/src/stm32f4xx_cryp_des.o
                0x080118d0                CRYP_DES_CBC
 .text.CRYP_TDES_ECB
                0x08011a80      0x1d0 ./STM32F4xx_StdPeriph_Driver/src/stm32f4xx_cryp_tdes.o
                0x08011a80                CRYP_TDES_ECB
 .text.CRYP_TDES_CBC
                0x08011c50      0x268 ./STM32F4xx_StdPeriph_Driver/src/stm32f4xx_cryp_tdes.o
                0x08011c50                CRYP_TDES_CBC
 .text.DAC_DeInit
                0x08011eb8       0x20 ./STM32F4xx_StdPeriph_Driver/src/stm32f4xx_dac.o
                0x08011eb8                DAC_DeInit
 .text.DAC_Init
                0x08011ed8       0x74 ./STM32F4xx_StdPeriph_Driver/src/stm32f4xx_dac.o
                0x08011ed8                DAC_Init
 .text.DAC_StructInit
                0x08011f4c       0x34 ./STM32F4xx_StdPeriph_Driver/src/stm32f4xx_dac.o
                0x08011f4c                DAC_StructInit
 .text.DAC_Cmd  0x08011f80       0x68 ./STM32F4xx_StdPeriph_Driver/src/stm32f4xx_dac.o
                0x08011f80                DAC_Cmd
 .text.DAC_SoftwareTriggerCmd
                0x08011fe8       0x70 ./STM32F4xx_StdPeriph_Driver/src/stm32f4xx_dac.o
                0x08011fe8                DAC_SoftwareTriggerCmd
 .text.DAC_DualSoftwareTriggerCmd
                0x08012058       0x4c ./STM32F4xx_StdPeriph_Driver/src/stm32f4xx_dac.o
                0x08012058                DAC_DualSoftwareTriggerCmd
 .text.DAC_WaveGenerationCmd
                0x080120a4       0x64 ./STM32F4xx_StdPeriph_Driver/src/stm32f4xx_dac.o
                0x080120a4                DAC_WaveGenerationCmd
 .text.DAC_SetChannel1Data
                0x08012108       0x38 ./STM32F4xx_StdPeriph_Driver/src/stm32f4xx_dac.o
                0x08012108                DAC_SetChannel1Data
 .text.DAC_SetChannel2Data
                0x08012140       0x38 ./STM32F4xx_StdPeriph_Driver/src/stm32f4xx_dac.o
                0x08012140                DAC_SetChannel2Data
 .text.DAC_SetDualChannelData
                0x08012178       0x64 ./STM32F4xx_StdPeriph_Driver/src/stm32f4xx_dac.o
                0x08012178                DAC_SetDualChannelData
 .text.DAC_GetDataOutputValue
                0x080121dc       0x3c ./STM32F4xx_StdPeriph_Driver/src/stm32f4xx_dac.o
                0x080121dc                DAC_GetDataOutputValue
 .text.DAC_DMACmd
                0x08012218       0x68 ./STM32F4xx_StdPeriph_Driver/src/stm32f4xx_dac.o
                0x08012218                DAC_DMACmd
 .text.DAC_ITConfig
                0x08012280       0x64 ./STM32F4xx_StdPeriph_Driver/src/stm32f4xx_dac.o
                0x08012280                DAC_ITConfig
 .text.DAC_GetFlagStatus
                0x080122e4       0x48 ./STM32F4xx_StdPeriph_Driver/src/stm32f4xx_dac.o
                0x080122e4                DAC_GetFlagStatus
 .text.DAC_ClearFlag
                0x0801232c       0x28 ./STM32F4xx_StdPeriph_Driver/src/stm32f4xx_dac.o
                0x0801232c                DAC_ClearFlag
 .text.DAC_GetITStatus
                0x08012354       0x6c ./STM32F4xx_StdPeriph_Driver/src/stm32f4xx_dac.o
                0x08012354                DAC_GetITStatus
 .text.DAC_ClearITPendingBit
                0x080123c0       0x28 ./STM32F4xx_StdPeriph_Driver/src/stm32f4xx_dac.o
                0x080123c0                DAC_ClearITPendingBit
 .text.DBGMCU_GetREVID
                0x080123e8       0x1c ./STM32F4xx_StdPeriph_Driver/src/stm32f4xx_dbgmcu.o
                0x080123e8                DBGMCU_GetREVID
 .text.DBGMCU_GetDEVID
                0x08012404       0x20 ./STM32F4xx_StdPeriph_Driver/src/stm32f4xx_dbgmcu.o
                0x08012404                DBGMCU_GetDEVID
 .text.DBGMCU_Config
                0x08012424       0x58 ./STM32F4xx_StdPeriph_Driver/src/stm32f4xx_dbgmcu.o
                0x08012424                DBGMCU_Config
 .text.DBGMCU_APB1PeriphConfig
                0x0801247c       0x58 ./STM32F4xx_StdPeriph_Driver/src/stm32f4xx_dbgmcu.o
                0x0801247c                DBGMCU_APB1PeriphConfig
 .text.DBGMCU_APB2PeriphConfig
                0x080124d4       0x58 ./STM32F4xx_StdPeriph_Driver/src/stm32f4xx_dbgmcu.o
                0x080124d4                DBGMCU_APB2PeriphConfig
 .text.DCMI_DeInit
                0x0801252c       0x6c ./STM32F4xx_StdPeriph_Driver/src/stm32f4xx_dcmi.o
                0x0801252c                DCMI_DeInit
 .text.DCMI_Init
                0x08012598       0x94 ./STM32F4xx_StdPeriph_Driver/src/stm32f4xx_dcmi.o
                0x08012598                DCMI_Init
 .text.DCMI_StructInit
                0x0801262c       0x4c ./STM32F4xx_StdPeriph_Driver/src/stm32f4xx_dcmi.o
                0x0801262c                DCMI_StructInit
 .text.DCMI_CROPConfig
                0x08012678       0x48 ./STM32F4xx_StdPeriph_Driver/src/stm32f4xx_dcmi.o
                0x08012678                DCMI_CROPConfig
 .text.DCMI_CROPCmd
                0x080126c0       0x4c ./STM32F4xx_StdPeriph_Driver/src/stm32f4xx_dcmi.o
                0x080126c0                DCMI_CROPCmd
 .text.DCMI_SetEmbeddedSynchroCodes
                0x0801270c       0x40 ./STM32F4xx_StdPeriph_Driver/src/stm32f4xx_dcmi.o
                0x0801270c                DCMI_SetEmbeddedSynchroCodes
 .text.DCMI_JPEGCmd
                0x0801274c       0x4c ./STM32F4xx_StdPeriph_Driver/src/stm32f4xx_dcmi.o
                0x0801274c                DCMI_JPEGCmd
 .text.DCMI_Cmd
                0x08012798       0x4c ./STM32F4xx_StdPeriph_Driver/src/stm32f4xx_dcmi.o
                0x08012798                DCMI_Cmd
 .text.DCMI_CaptureCmd
                0x080127e4       0x4c ./STM32F4xx_StdPeriph_Driver/src/stm32f4xx_dcmi.o
                0x080127e4                DCMI_CaptureCmd
 .text.DCMI_ReadData
                0x08012830       0x18 ./STM32F4xx_StdPeriph_Driver/src/stm32f4xx_dcmi.o
                0x08012830                DCMI_ReadData
 .text.DCMI_ITConfig
                0x08012848       0x5c ./STM32F4xx_StdPeriph_Driver/src/stm32f4xx_dcmi.o
                0x08012848                DCMI_ITConfig
 .text.DCMI_GetFlagStatus
                0x080128a4       0x7c ./STM32F4xx_StdPeriph_Driver/src/stm32f4xx_dcmi.o
                0x080128a4                DCMI_GetFlagStatus
 .text.DCMI_ClearFlag
                0x08012920       0x20 ./STM32F4xx_StdPeriph_Driver/src/stm32f4xx_dcmi.o
                0x08012920                DCMI_ClearFlag
 .text.DCMI_GetITStatus
                0x08012940       0x4c ./STM32F4xx_StdPeriph_Driver/src/stm32f4xx_dcmi.o
                0x08012940                DCMI_GetITStatus
 .text.DCMI_ClearITPendingBit
                0x0801298c       0x20 ./STM32F4xx_StdPeriph_Driver/src/stm32f4xx_dcmi.o
                0x0801298c                DCMI_ClearITPendingBit
 .text.DMA_DeInit
                0x080129ac      0x244 ./STM32F4xx_StdPeriph_Driver/src/stm32f4xx_dma.o
                0x080129ac                DMA_DeInit
 .text.DMA_Init
                0x08012bf0       0xb0 ./STM32F4xx_StdPeriph_Driver/src/stm32f4xx_dma.o
                0x08012bf0                DMA_Init
 .text.DMA_StructInit
                0x08012ca0       0x8c ./STM32F4xx_StdPeriph_Driver/src/stm32f4xx_dma.o
                0x08012ca0                DMA_StructInit
 .text.DMA_Cmd  0x08012d2c       0x38 ./STM32F4xx_StdPeriph_Driver/src/stm32f4xx_dma.o
                0x08012d2c                DMA_Cmd
 .text.DMA_PeriphIncOffsetSizeConfig
                0x08012d64       0x34 ./STM32F4xx_StdPeriph_Driver/src/stm32f4xx_dma.o
                0x08012d64                DMA_PeriphIncOffsetSizeConfig
 .text.DMA_FlowControllerConfig
                0x08012d98       0x34 ./STM32F4xx_StdPeriph_Driver/src/stm32f4xx_dma.o
                0x08012d98                DMA_FlowControllerConfig
 .text.DMA_SetCurrDataCounter
                0x08012dcc       0x1c ./STM32F4xx_StdPeriph_Driver/src/stm32f4xx_dma.o
                0x08012dcc                DMA_SetCurrDataCounter
 .text.DMA_GetCurrDataCounter
                0x08012de8       0x1c ./STM32F4xx_StdPeriph_Driver/src/stm32f4xx_dma.o
                0x08012de8                DMA_GetCurrDataCounter
 .text.DMA_DoubleBufferModeConfig
                0x08012e04       0x3c ./STM32F4xx_StdPeriph_Driver/src/stm32f4xx_dma.o
                0x08012e04                DMA_DoubleBufferModeConfig
 .text.DMA_DoubleBufferModeCmd
                0x08012e40       0x38 ./STM32F4xx_StdPeriph_Driver/src/stm32f4xx_dma.o
                0x08012e40                DMA_DoubleBufferModeCmd
 .text.DMA_MemoryTargetConfig
                0x08012e78       0x2c ./STM32F4xx_StdPeriph_Driver/src/stm32f4xx_dma.o
                0x08012e78                DMA_MemoryTargetConfig
 .text.DMA_GetCurrentMemoryTarget
                0x08012ea4       0x38 ./STM32F4xx_StdPeriph_Driver/src/stm32f4xx_dma.o
                0x08012ea4                DMA_GetCurrentMemoryTarget
 .text.DMA_GetCmdStatus
                0x08012edc       0x38 ./STM32F4xx_StdPeriph_Driver/src/stm32f4xx_dma.o
                0x08012edc                DMA_GetCmdStatus
 .text.DMA_GetFIFOStatus
                0x08012f14       0x28 ./STM32F4xx_StdPeriph_Driver/src/stm32f4xx_dma.o
                0x08012f14                DMA_GetFIFOStatus
 .text.DMA_GetFlagStatus
                0x08012f3c       0x88 ./STM32F4xx_StdPeriph_Driver/src/stm32f4xx_dma.o
                0x08012f3c                DMA_GetFlagStatus
 .text.DMA_ClearFlag
                0x08012fc4       0x64 ./STM32F4xx_StdPeriph_Driver/src/stm32f4xx_dma.o
                0x08012fc4                DMA_ClearFlag
 .text.DMA_ITConfig
                0x08013028       0x78 ./STM32F4xx_StdPeriph_Driver/src/stm32f4xx_dma.o
                0x08013028                DMA_ITConfig
 .text.DMA_GetITStatus
                0x080130a0       0xc8 ./STM32F4xx_StdPeriph_Driver/src/stm32f4xx_dma.o
                0x080130a0                DMA_GetITStatus
 .text.DMA_ClearITPendingBit
                0x08013168       0x64 ./STM32F4xx_StdPeriph_Driver/src/stm32f4xx_dma.o
                0x08013168                DMA_ClearITPendingBit
 .text.EXTI_DeInit
                0x080131cc       0x54 ./STM32F4xx_StdPeriph_Driver/src/stm32f4xx_exti.o
                0x080131cc                EXTI_DeInit
 .text.EXTI_Init
                0x08013220      0x144 ./STM32F4xx_StdPeriph_Driver/src/stm32f4xx_exti.o
                0x08013220                EXTI_Init
 .text.EXTI_StructInit
                0x08013364       0x34 ./STM32F4xx_StdPeriph_Driver/src/stm32f4xx_exti.o
                0x08013364                EXTI_StructInit
 .text.EXTI_GenerateSWInterrupt
                0x08013398       0x2c ./STM32F4xx_StdPeriph_Driver/src/stm32f4xx_exti.o
                0x08013398                EXTI_GenerateSWInterrupt
 .text.EXTI_GetFlagStatus
                0x080133c4       0x40 ./STM32F4xx_StdPeriph_Driver/src/stm32f4xx_exti.o
                0x080133c4                EXTI_GetFlagStatus
 .text.EXTI_ClearFlag
                0x08013404       0x20 ./STM32F4xx_StdPeriph_Driver/src/stm32f4xx_exti.o
                0x08013404                EXTI_ClearFlag
 .text.EXTI_GetITStatus
                0x08013424       0x5c ./STM32F4xx_StdPeriph_Driver/src/stm32f4xx_exti.o
                0x08013424                EXTI_GetITStatus
 .text.EXTI_ClearITPendingBit
                0x08013480       0x20 ./STM32F4xx_StdPeriph_Driver/src/stm32f4xx_exti.o
                0x08013480                EXTI_ClearITPendingBit
 .text.FLASH_SetLatency
                0x080134a0       0x20 ./STM32F4xx_StdPeriph_Driver/src/stm32f4xx_flash.o
                0x080134a0                FLASH_SetLatency
 .text.FLASH_PrefetchBufferCmd
                0x080134c0       0x4c ./STM32F4xx_StdPeriph_Driver/src/stm32f4xx_flash.o
                0x080134c0                FLASH_PrefetchBufferCmd
 .text.FLASH_InstructionCacheCmd
                0x0801350c       0x4c ./STM32F4xx_StdPeriph_Driver/src/stm32f4xx_flash.o
                0x0801350c                FLASH_InstructionCacheCmd
 .text.FLASH_DataCacheCmd
                0x08013558       0x4c ./STM32F4xx_StdPeriph_Driver/src/stm32f4xx_flash.o
                0x08013558                FLASH_DataCacheCmd
 .text.FLASH_InstructionCacheReset
                0x080135a4       0x24 ./STM32F4xx_StdPeriph_Driver/src/stm32f4xx_flash.o
                0x080135a4                FLASH_InstructionCacheReset
 .text.FLASH_DataCacheReset
                0x080135c8       0x24 ./STM32F4xx_StdPeriph_Driver/src/stm32f4xx_flash.o
                0x080135c8                FLASH_DataCacheReset
 .text.FLASH_Unlock
                0x080135ec       0x3c ./STM32F4xx_StdPeriph_Driver/src/stm32f4xx_flash.o
                0x080135ec                FLASH_Unlock
 .text.FLASH_Lock
                0x08013628       0x24 ./STM32F4xx_StdPeriph_Driver/src/stm32f4xx_flash.o
                0x08013628                FLASH_Lock
 .text.FLASH_EraseSector
                0x0801364c      0x11c ./STM32F4xx_StdPeriph_Driver/src/stm32f4xx_flash.o
                0x0801364c                FLASH_EraseSector
 .text.FLASH_EraseAllSectors
                0x08013768       0xe4 ./STM32F4xx_StdPeriph_Driver/src/stm32f4xx_flash.o
                0x08013768                FLASH_EraseAllSectors
 .text.FLASH_ProgramDoubleWord
                0x0801384c       0xa0 ./STM32F4xx_StdPeriph_Driver/src/stm32f4xx_flash.o
                0x0801384c                FLASH_ProgramDoubleWord
 .text.FLASH_ProgramWord
                0x080138ec       0x98 ./STM32F4xx_StdPeriph_Driver/src/stm32f4xx_flash.o
                0x080138ec                FLASH_ProgramWord
 .text.FLASH_ProgramHalfWord
                0x08013984       0x9c ./STM32F4xx_StdPeriph_Driver/src/stm32f4xx_flash.o
                0x08013984                FLASH_ProgramHalfWord
 .text.FLASH_ProgramByte
                0x08013a20       0x98 ./STM32F4xx_StdPeriph_Driver/src/stm32f4xx_flash.o
                0x08013a20                FLASH_ProgramByte
 .text.FLASH_OB_Unlock
                0x08013ab8       0x44 ./STM32F4xx_StdPeriph_Driver/src/stm32f4xx_flash.o
                0x08013ab8                FLASH_OB_Unlock
 .text.FLASH_OB_Lock
                0x08013afc       0x24 ./STM32F4xx_StdPeriph_Driver/src/stm32f4xx_flash.o
                0x08013afc                FLASH_OB_Lock
 .text.FLASH_OB_WRPConfig
                0x08013b20       0x74 ./STM32F4xx_StdPeriph_Driver/src/stm32f4xx_flash.o
                0x08013b20                FLASH_OB_WRPConfig
 .text.FLASH_OB_RDPConfig
                0x08013b94       0x34 ./STM32F4xx_StdPeriph_Driver/src/stm32f4xx_flash.o
                0x08013b94                FLASH_OB_RDPConfig
 .text.FLASH_OB_UserConfig
                0x08013bc8       0x64 ./STM32F4xx_StdPeriph_Driver/src/stm32f4xx_flash.o
                0x08013bc8                FLASH_OB_UserConfig
 .text.FLASH_OB_BORConfig
                0x08013c2c       0x4c ./STM32F4xx_StdPeriph_Driver/src/stm32f4xx_flash.o
                0x08013c2c                FLASH_OB_BORConfig
 .text.FLASH_OB_Launch
                0x08013c78       0x3c ./STM32F4xx_StdPeriph_Driver/src/stm32f4xx_flash.o
                0x08013c78                FLASH_OB_Launch
 .text.FLASH_OB_GetUser
                0x08013cb4       0x1c ./STM32F4xx_StdPeriph_Driver/src/stm32f4xx_flash.o
                0x08013cb4                FLASH_OB_GetUser
 .text.FLASH_OB_GetWRP
                0x08013cd0       0x18 ./STM32F4xx_StdPeriph_Driver/src/stm32f4xx_flash.o
                0x08013cd0                FLASH_OB_GetWRP
 .text.FLASH_OB_GetRDP
                0x08013ce8       0x38 ./STM32F4xx_StdPeriph_Driver/src/stm32f4xx_flash.o
                0x08013ce8                FLASH_OB_GetRDP
 .text.FLASH_OB_GetBOR
                0x08013d20       0x20 ./STM32F4xx_StdPeriph_Driver/src/stm32f4xx_flash.o
                0x08013d20                FLASH_OB_GetBOR
 .text.FLASH_ITConfig
                0x08013d40       0x58 ./STM32F4xx_StdPeriph_Driver/src/stm32f4xx_flash.o
                0x08013d40                FLASH_ITConfig
 .text.FLASH_GetFlagStatus
                0x08013d98       0x40 ./STM32F4xx_StdPeriph_Driver/src/stm32f4xx_flash.o
                0x08013d98                FLASH_GetFlagStatus
 .text.FLASH_ClearFlag
                0x08013dd8       0x20 ./STM32F4xx_StdPeriph_Driver/src/stm32f4xx_flash.o
                0x08013dd8                FLASH_ClearFlag
 .text.FLASH_GetStatus
                0x08013df8       0x88 ./STM32F4xx_StdPeriph_Driver/src/stm32f4xx_flash.o
                0x08013df8                FLASH_GetStatus
 .text.FLASH_WaitForLastOperation
                0x08013e80       0x34 ./STM32F4xx_StdPeriph_Driver/src/stm32f4xx_flash.o
                0x08013e80                FLASH_WaitForLastOperation
 .text.FSMC_NORSRAMDeInit
                0x08013eb4       0x5c ./STM32F4xx_StdPeriph_Driver/src/stm32f4xx_fsmc.o
                0x08013eb4                FSMC_NORSRAMDeInit
 .text.FSMC_NORSRAMInit
                0x08013f10      0x150 ./STM32F4xx_StdPeriph_Driver/src/stm32f4xx_fsmc.o
                0x08013f10                FSMC_NORSRAMInit
 .text.FSMC_NORSRAMStructInit
                0x08014060      0x108 ./STM32F4xx_StdPeriph_Driver/src/stm32f4xx_fsmc.o
                0x08014060                FSMC_NORSRAMStructInit
 .text.FSMC_NORSRAMCmd
                0x08014168       0x58 ./STM32F4xx_StdPeriph_Driver/src/stm32f4xx_fsmc.o
                0x08014168                FSMC_NORSRAMCmd
 .text.FSMC_NANDDeInit
                0x080141c0       0x8c ./STM32F4xx_StdPeriph_Driver/src/stm32f4xx_fsmc.o
                0x080141c0                FSMC_NANDDeInit
 .text.FSMC_NANDInit
                0x0801424c      0x100 ./STM32F4xx_StdPeriph_Driver/src/stm32f4xx_fsmc.o
                0x0801424c                FSMC_NANDInit
 .text.FSMC_NANDStructInit
                0x0801434c       0x9c ./STM32F4xx_StdPeriph_Driver/src/stm32f4xx_fsmc.o
                0x0801434c                FSMC_NANDStructInit
 .text.FSMC_NANDCmd
                0x080143e8       0xa0 ./STM32F4xx_StdPeriph_Driver/src/stm32f4xx_fsmc.o
                0x080143e8                FSMC_NANDCmd
 .text.FSMC_NANDECCCmd
                0x08014488       0xa0 ./STM32F4xx_StdPeriph_Driver/src/stm32f4xx_fsmc.o
                0x08014488                FSMC_NANDECCCmd
 .text.FSMC_GetECC
                0x08014528       0x3c ./STM32F4xx_StdPeriph_Driver/src/stm32f4xx_fsmc.o
                0x08014528                FSMC_GetECC
 .text.FSMC_PCCARDDeInit
                0x08014564       0x50 ./STM32F4xx_StdPeriph_Driver/src/stm32f4xx_fsmc.o
                0x08014564                FSMC_PCCARDDeInit
 .text.FSMC_PCCARDInit
                0x080145b4       0xd4 ./STM32F4xx_StdPeriph_Driver/src/stm32f4xx_fsmc.o
                0x080145b4                FSMC_PCCARDInit
 .text.FSMC_PCCARDStructInit
                0x08014688       0xa4 ./STM32F4xx_StdPeriph_Driver/src/stm32f4xx_fsmc.o
                0x08014688                FSMC_PCCARDStructInit
 .text.FSMC_PCCARDCmd
                0x0801472c       0x54 ./STM32F4xx_StdPeriph_Driver/src/stm32f4xx_fsmc.o
                0x0801472c                FSMC_PCCARDCmd
 .text.FSMC_ITConfig
                0x08014780       0xec ./STM32F4xx_StdPeriph_Driver/src/stm32f4xx_fsmc.o
                0x08014780                FSMC_ITConfig
 .text.FSMC_GetFlagStatus
                0x0801486c       0x74 ./STM32F4xx_StdPeriph_Driver/src/stm32f4xx_fsmc.o
                0x0801486c                FSMC_GetFlagStatus
 .text.FSMC_ClearFlag
                0x080148e0       0x80 ./STM32F4xx_StdPeriph_Driver/src/stm32f4xx_fsmc.o
                0x080148e0                FSMC_ClearFlag
 .text.FSMC_GetITStatus
                0x08014960       0x94 ./STM32F4xx_StdPeriph_Driver/src/stm32f4xx_fsmc.o
                0x08014960                FSMC_GetITStatus
 .text.FSMC_ClearITPendingBit
                0x080149f4       0x8c ./STM32F4xx_StdPeriph_Driver/src/stm32f4xx_fsmc.o
                0x080149f4                FSMC_ClearITPendingBit
 .text.GPIO_DeInit
                0x08014a80      0x178 ./STM32F4xx_StdPeriph_Driver/src/stm32f4xx_gpio.o
                0x08014a80                GPIO_DeInit
 .text.GPIO_Init
                0x08014bf8      0x154 ./STM32F4xx_StdPeriph_Driver/src/stm32f4xx_gpio.o
                0x08014bf8                GPIO_Init
 .text.GPIO_StructInit
                0x08014d4c       0x3c ./STM32F4xx_StdPeriph_Driver/src/stm32f4xx_gpio.o
                0x08014d4c                GPIO_StructInit
 .text.GPIO_PinLockConfig
                0x08014d88       0x44 ./STM32F4xx_StdPeriph_Driver/src/stm32f4xx_gpio.o
                0x08014d88                GPIO_PinLockConfig
 .text.GPIO_ReadInputDataBit
                0x08014dcc       0x3c ./STM32F4xx_StdPeriph_Driver/src/stm32f4xx_gpio.o
                0x08014dcc                GPIO_ReadInputDataBit
 .text.GPIO_ReadInputData
                0x08014e08       0x1c ./STM32F4xx_StdPeriph_Driver/src/stm32f4xx_gpio.o
                0x08014e08                GPIO_ReadInputData
 .text.GPIO_ReadOutputDataBit
                0x08014e24       0x3c ./STM32F4xx_StdPeriph_Driver/src/stm32f4xx_gpio.o
                0x08014e24                GPIO_ReadOutputDataBit
 .text.GPIO_ReadOutputData
                0x08014e60       0x1c ./STM32F4xx_StdPeriph_Driver/src/stm32f4xx_gpio.o
                0x08014e60                GPIO_ReadOutputData
 .text.GPIO_SetBits
                0x08014e7c       0x1c ./STM32F4xx_StdPeriph_Driver/src/stm32f4xx_gpio.o
                0x08014e7c                GPIO_SetBits
 .text.GPIO_ResetBits
                0x08014e98       0x1c ./STM32F4xx_StdPeriph_Driver/src/stm32f4xx_gpio.o
                0x08014e98                GPIO_ResetBits
 .text.GPIO_WriteBit
                0x08014eb4       0x30 ./STM32F4xx_StdPeriph_Driver/src/stm32f4xx_gpio.o
                0x08014eb4                GPIO_WriteBit
 .text.GPIO_Write
                0x08014ee4       0x1c ./STM32F4xx_StdPeriph_Driver/src/stm32f4xx_gpio.o
                0x08014ee4                GPIO_Write
 .text.GPIO_ToggleBits
                0x08014f00       0x24 ./STM32F4xx_StdPeriph_Driver/src/stm32f4xx_gpio.o
                0x08014f00                GPIO_ToggleBits
 .text.GPIO_PinAFConfig
                0x08014f24       0xac ./STM32F4xx_StdPeriph_Driver/src/stm32f4xx_gpio.o
                0x08014f24                GPIO_PinAFConfig
 .text.HASH_DeInit
                0x08014fd0       0x20 ./STM32F4xx_StdPeriph_Driver/src/stm32f4xx_hash.o
                0x08014fd0                HASH_DeInit
 .text.HASH_Init
                0x08014ff0       0xa8 ./STM32F4xx_StdPeriph_Driver/src/stm32f4xx_hash.o
                0x08014ff0                HASH_Init
 .text.HASH_StructInit
                0x08015098       0x34 ./STM32F4xx_StdPeriph_Driver/src/stm32f4xx_hash.o
                0x08015098                HASH_StructInit
 .text.HASH_Reset
                0x080150cc       0x24 ./STM32F4xx_StdPeriph_Driver/src/stm32f4xx_hash.o
                0x080150cc                HASH_Reset
 .text.HASH_SetLastWordValidBitsNbr
                0x080150f0       0x48 ./STM32F4xx_StdPeriph_Driver/src/stm32f4xx_hash.o
                0x080150f0                HASH_SetLastWordValidBitsNbr
 .text.HASH_DataIn
                0x08015138       0x20 ./STM32F4xx_StdPeriph_Driver/src/stm32f4xx_hash.o
                0x08015138                HASH_DataIn
 .text.HASH_GetInFIFOWordsNbr
                0x08015158       0x20 ./STM32F4xx_StdPeriph_Driver/src/stm32f4xx_hash.o
                0x08015158                HASH_GetInFIFOWordsNbr
 .text.HASH_GetDigest
                0x08015178       0x64 ./STM32F4xx_StdPeriph_Driver/src/stm32f4xx_hash.o
                0x08015178                HASH_GetDigest
 .text.HASH_StartDigest
                0x080151dc       0x24 ./STM32F4xx_StdPeriph_Driver/src/stm32f4xx_hash.o
                0x080151dc                HASH_StartDigest
 .text.HASH_SaveContext
                0x08015200       0x84 ./STM32F4xx_StdPeriph_Driver/src/stm32f4xx_hash.o
                0x08015200                HASH_SaveContext
 .text.HASH_RestoreContext
                0x08015284       0x94 ./STM32F4xx_StdPeriph_Driver/src/stm32f4xx_hash.o
                0x08015284                HASH_RestoreContext
 .text.HASH_DMACmd
                0x08015318       0x4c ./STM32F4xx_StdPeriph_Driver/src/stm32f4xx_hash.o
                0x08015318                HASH_DMACmd
 .text.HASH_ITConfig
                0x08015364       0x5c ./STM32F4xx_StdPeriph_Driver/src/stm32f4xx_hash.o
                0x08015364                HASH_ITConfig
 .text.HASH_GetFlagStatus
                0x080153c0       0x60 ./STM32F4xx_StdPeriph_Driver/src/stm32f4xx_hash.o
                0x080153c0                HASH_GetFlagStatus
 .text.HASH_ClearFlag
                0x08015420       0x24 ./STM32F4xx_StdPeriph_Driver/src/stm32f4xx_hash.o
                0x08015420                HASH_ClearFlag
 .text.HASH_GetITStatus
                0x08015444       0x58 ./STM32F4xx_StdPeriph_Driver/src/stm32f4xx_hash.o
                0x08015444                HASH_GetITStatus
 .text.HASH_ClearITPendingBit
                0x0801549c       0x28 ./STM32F4xx_StdPeriph_Driver/src/stm32f4xx_hash.o
                0x0801549c                HASH_ClearITPendingBit
 .text.HASH_MD5
                0x080154c4      0x140 ./STM32F4xx_StdPeriph_Driver/src/stm32f4xx_hash_md5.o
                0x080154c4                HASH_MD5
 .text.HMAC_MD5
                0x08015604      0x258 ./STM32F4xx_StdPeriph_Driver/src/stm32f4xx_hash_md5.o
                0x08015604                HMAC_MD5
 .text.HASH_SHA1
                0x0801585c      0x158 ./STM32F4xx_StdPeriph_Driver/src/stm32f4xx_hash_sha1.o
                0x0801585c                HASH_SHA1
 .text.HMAC_SHA1
                0x080159b4      0x270 ./STM32F4xx_StdPeriph_Driver/src/stm32f4xx_hash_sha1.o
                0x080159b4                HMAC_SHA1
 .text.I2C_DeInit
                0x08015c24       0x88 ./STM32F4xx_StdPeriph_Driver/src/stm32f4xx_i2c.o
                0x08015c24                I2C_DeInit
 .text.I2C_Init
                0x08015cac      0x1ac ./STM32F4xx_StdPeriph_Driver/src/stm32f4xx_i2c.o
                0x08015cac                I2C_Init
 .text.I2C_StructInit
                0x08015e58       0x44 ./STM32F4xx_StdPeriph_Driver/src/stm32f4xx_i2c.o
                0x08015e58                I2C_StructInit
 .text.I2C_Cmd  0x08015e9c       0x40 ./STM32F4xx_StdPeriph_Driver/src/stm32f4xx_i2c.o
                0x08015e9c                I2C_Cmd
 .text.I2C_GenerateSTART
                0x08015edc       0x40 ./STM32F4xx_StdPeriph_Driver/src/stm32f4xx_i2c.o
                0x08015edc                I2C_GenerateSTART
 .text.I2C_GenerateSTOP
                0x08015f1c       0x40 ./STM32F4xx_StdPeriph_Driver/src/stm32f4xx_i2c.o
                0x08015f1c                I2C_GenerateSTOP
 .text.I2C_Send7bitAddress
                0x08015f5c       0x3c ./STM32F4xx_StdPeriph_Driver/src/stm32f4xx_i2c.o
                0x08015f5c                I2C_Send7bitAddress
 .text.I2C_AcknowledgeConfig
                0x08015f98       0x40 ./STM32F4xx_StdPeriph_Driver/src/stm32f4xx_i2c.o
                0x08015f98                I2C_AcknowledgeConfig
 .text.I2C_OwnAddress2Config
                0x08015fd8       0x44 ./STM32F4xx_StdPeriph_Driver/src/stm32f4xx_i2c.o
                0x08015fd8                I2C_OwnAddress2Config
 .text.I2C_DualAddressCmd
                0x0801601c       0x40 ./STM32F4xx_StdPeriph_Driver/src/stm32f4xx_i2c.o
                0x0801601c                I2C_DualAddressCmd
 .text.I2C_GeneralCallCmd
                0x0801605c       0x40 ./STM32F4xx_StdPeriph_Driver/src/stm32f4xx_i2c.o
                0x0801605c                I2C_GeneralCallCmd
 .text.I2C_SoftwareResetCmd
                0x0801609c       0x48 ./STM32F4xx_StdPeriph_Driver/src/stm32f4xx_i2c.o
                0x0801609c                I2C_SoftwareResetCmd
 .text.I2C_StretchClockCmd
                0x080160e4       0x40 ./STM32F4xx_StdPeriph_Driver/src/stm32f4xx_i2c.o
                0x080160e4                I2C_StretchClockCmd
 .text.I2C_FastModeDutyCycleConfig
                0x08016124       0x40 ./STM32F4xx_StdPeriph_Driver/src/stm32f4xx_i2c.o
                0x08016124                I2C_FastModeDutyCycleConfig
 .text.I2C_NACKPositionConfig
                0x08016164       0x40 ./STM32F4xx_StdPeriph_Driver/src/stm32f4xx_i2c.o
                0x08016164                I2C_NACKPositionConfig
 .text.I2C_SMBusAlertConfig
                0x080161a4       0x40 ./STM32F4xx_StdPeriph_Driver/src/stm32f4xx_i2c.o
                0x080161a4                I2C_SMBusAlertConfig
 .text.I2C_ARPCmd
                0x080161e4       0x40 ./STM32F4xx_StdPeriph_Driver/src/stm32f4xx_i2c.o
                0x080161e4                I2C_ARPCmd
 .text.I2C_SendData
                0x08016224       0x20 ./STM32F4xx_StdPeriph_Driver/src/stm32f4xx_i2c.o
                0x08016224                I2C_SendData
 .text.I2C_ReceiveData
                0x08016244       0x1c ./STM32F4xx_StdPeriph_Driver/src/stm32f4xx_i2c.o
                0x08016244                I2C_ReceiveData
 .text.I2C_TransmitPEC
                0x08016260       0x40 ./STM32F4xx_StdPeriph_Driver/src/stm32f4xx_i2c.o
                0x08016260                I2C_TransmitPEC
 .text.I2C_PECPositionConfig
                0x080162a0       0x40 ./STM32F4xx_StdPeriph_Driver/src/stm32f4xx_i2c.o
                0x080162a0                I2C_PECPositionConfig
 .text.I2C_CalculatePEC
                0x080162e0       0x40 ./STM32F4xx_StdPeriph_Driver/src/stm32f4xx_i2c.o
                0x080162e0                I2C_CalculatePEC
 .text.I2C_GetPEC
                0x08016320       0x24 ./STM32F4xx_StdPeriph_Driver/src/stm32f4xx_i2c.o
                0x08016320                I2C_GetPEC
 .text.I2C_DMACmd
                0x08016344       0x40 ./STM32F4xx_StdPeriph_Driver/src/stm32f4xx_i2c.o
                0x08016344                I2C_DMACmd
 .text.I2C_DMALastTransferCmd
                0x08016384       0x40 ./STM32F4xx_StdPeriph_Driver/src/stm32f4xx_i2c.o
                0x08016384                I2C_DMALastTransferCmd
 .text.I2C_ReadRegister
                0x080163c4       0x30 ./STM32F4xx_StdPeriph_Driver/src/stm32f4xx_i2c.o
                0x080163c4                I2C_ReadRegister
 .text.I2C_ITConfig
                0x080163f4       0x48 ./STM32F4xx_StdPeriph_Driver/src/stm32f4xx_i2c.o
                0x080163f4                I2C_ITConfig
 .text.I2C_CheckEvent
                0x0801643c       0x70 ./STM32F4xx_StdPeriph_Driver/src/stm32f4xx_i2c.o
                0x0801643c                I2C_CheckEvent
 .text.I2C_GetLastEvent
                0x080164ac       0x4c ./STM32F4xx_StdPeriph_Driver/src/stm32f4xx_i2c.o
                0x080164ac                I2C_GetLastEvent
 .text.I2C_GetFlagStatus
                0x080164f8       0x78 ./STM32F4xx_StdPeriph_Driver/src/stm32f4xx_i2c.o
                0x080164f8                I2C_GetFlagStatus
 .text.I2C_ClearFlag
                0x08016570       0x30 ./STM32F4xx_StdPeriph_Driver/src/stm32f4xx_i2c.o
                0x08016570                I2C_ClearFlag
 .text.I2C_GetITStatus
                0x080165a0       0x64 ./STM32F4xx_StdPeriph_Driver/src/stm32f4xx_i2c.o
                0x080165a0                I2C_GetITStatus
 .text.I2C_ClearITPendingBit
                0x08016604       0x30 ./STM32F4xx_StdPeriph_Driver/src/stm32f4xx_i2c.o
                0x08016604                I2C_ClearITPendingBit
 .text.IWDG_WriteAccessCmd
                0x08016634       0x20 ./STM32F4xx_StdPeriph_Driver/src/stm32f4xx_iwdg.o
                0x08016634                IWDG_WriteAccessCmd
 .text.IWDG_SetPrescaler
                0x08016654       0x20 ./STM32F4xx_StdPeriph_Driver/src/stm32f4xx_iwdg.o
                0x08016654                IWDG_SetPrescaler
 .text.IWDG_SetReload
                0x08016674       0x20 ./STM32F4xx_StdPeriph_Driver/src/stm32f4xx_iwdg.o
                0x08016674                IWDG_SetReload
 .text.IWDG_ReloadCounter
                0x08016694       0x18 ./STM32F4xx_StdPeriph_Driver/src/stm32f4xx_iwdg.o
                0x08016694                IWDG_ReloadCounter
 .text.IWDG_Enable
                0x080166ac       0x18 ./STM32F4xx_StdPeriph_Driver/src/stm32f4xx_iwdg.o
                0x080166ac                IWDG_Enable
 .text.IWDG_GetFlagStatus
                0x080166c4       0x40 ./STM32F4xx_StdPeriph_Driver/src/stm32f4xx_iwdg.o
                0x080166c4                IWDG_GetFlagStatus
 .text.PWR_DeInit
                0x08016704       0x20 ./STM32F4xx_StdPeriph_Driver/src/stm32f4xx_pwr.o
                0x08016704                PWR_DeInit
 .text.PWR_BackupAccessCmd
                0x08016724       0x20 ./STM32F4xx_StdPeriph_Driver/src/stm32f4xx_pwr.o
                0x08016724                PWR_BackupAccessCmd
 .text.PWR_PVDLevelConfig
                0x08016744       0x40 ./STM32F4xx_StdPeriph_Driver/src/stm32f4xx_pwr.o
                0x08016744                PWR_PVDLevelConfig
 .text.PWR_PVDCmd
                0x08016784       0x20 ./STM32F4xx_StdPeriph_Driver/src/stm32f4xx_pwr.o
                0x08016784                PWR_PVDCmd
 .text.PWR_WakeUpPinCmd
                0x080167a4       0x20 ./STM32F4xx_StdPeriph_Driver/src/stm32f4xx_pwr.o
                0x080167a4                PWR_WakeUpPinCmd
 .text.PWR_BackupRegulatorCmd
                0x080167c4       0x20 ./STM32F4xx_StdPeriph_Driver/src/stm32f4xx_pwr.o
                0x080167c4                PWR_BackupRegulatorCmd
 .text.PWR_MainRegulatorModeConfig
                0x080167e4       0x4c ./STM32F4xx_StdPeriph_Driver/src/stm32f4xx_pwr.o
                0x080167e4                PWR_MainRegulatorModeConfig
 .text.PWR_FlashPowerDownCmd
                0x08016830       0x20 ./STM32F4xx_StdPeriph_Driver/src/stm32f4xx_pwr.o
                0x08016830                PWR_FlashPowerDownCmd
 .text.PWR_EnterSTOPMode
                0x08016850       0x80 ./STM32F4xx_StdPeriph_Driver/src/stm32f4xx_pwr.o
                0x08016850                PWR_EnterSTOPMode
 .text.PWR_EnterSTANDBYMode
                0x080168d0       0x54 ./STM32F4xx_StdPeriph_Driver/src/stm32f4xx_pwr.o
                0x080168d0                PWR_EnterSTANDBYMode
 .text.PWR_GetFlagStatus
                0x08016924       0x40 ./STM32F4xx_StdPeriph_Driver/src/stm32f4xx_pwr.o
                0x08016924                PWR_GetFlagStatus
 .text.PWR_ClearFlag
                0x08016964       0x30 ./STM32F4xx_StdPeriph_Driver/src/stm32f4xx_pwr.o
                0x08016964                PWR_ClearFlag
 .text.RCC_DeInit
                0x08016994       0x84 ./STM32F4xx_StdPeriph_Driver/src/stm32f4xx_rcc.o
                0x08016994                RCC_DeInit
 .text.RCC_HSEConfig
                0x08016a18       0x30 ./STM32F4xx_StdPeriph_Driver/src/stm32f4xx_rcc.o
                0x08016a18                RCC_HSEConfig
 .text.RCC_WaitForHSEStartUp
                0x08016a48       0x64 ./STM32F4xx_StdPeriph_Driver/src/stm32f4xx_rcc.o
                0x08016a48                RCC_WaitForHSEStartUp
 .text.RCC_AdjustHSICalibrationValue
                0x08016aac       0x48 ./STM32F4xx_StdPeriph_Driver/src/stm32f4xx_rcc.o
                0x08016aac                RCC_AdjustHSICalibrationValue
 .text.RCC_HSICmd
                0x08016af4       0x20 ./STM32F4xx_StdPeriph_Driver/src/stm32f4xx_rcc.o
                0x08016af4                RCC_HSICmd
 .text.RCC_LSEConfig
                0x08016b14       0x60 ./STM32F4xx_StdPeriph_Driver/src/stm32f4xx_rcc.o
                0x08016b14                RCC_LSEConfig
 .text.RCC_LSICmd
                0x08016b74       0x20 ./STM32F4xx_StdPeriph_Driver/src/stm32f4xx_rcc.o
                0x08016b74                RCC_LSICmd
 .text.RCC_PLLConfig
                0x08016b94       0x48 ./STM32F4xx_StdPeriph_Driver/src/stm32f4xx_rcc.o
                0x08016b94                RCC_PLLConfig
 .text.RCC_PLLCmd
                0x08016bdc       0x20 ./STM32F4xx_StdPeriph_Driver/src/stm32f4xx_rcc.o
                0x08016bdc                RCC_PLLCmd
 .text.RCC_PLLI2SConfig
                0x08016bfc       0x30 ./STM32F4xx_StdPeriph_Driver/src/stm32f4xx_rcc.o
                0x08016bfc                RCC_PLLI2SConfig
 .text.RCC_PLLI2SCmd
                0x08016c2c       0x20 ./STM32F4xx_StdPeriph_Driver/src/stm32f4xx_rcc.o
                0x08016c2c                RCC_PLLI2SCmd
 .text.RCC_ClockSecuritySystemCmd
                0x08016c4c       0x20 ./STM32F4xx_StdPeriph_Driver/src/stm32f4xx_rcc.o
                0x08016c4c                RCC_ClockSecuritySystemCmd
 .text.RCC_MCO1Config
                0x08016c6c       0x48 ./STM32F4xx_StdPeriph_Driver/src/stm32f4xx_rcc.o
                0x08016c6c                RCC_MCO1Config
 .text.RCC_MCO2Config
                0x08016cb4       0x48 ./STM32F4xx_StdPeriph_Driver/src/stm32f4xx_rcc.o
                0x08016cb4                RCC_MCO2Config
 .text.RCC_SYSCLKConfig
                0x08016cfc       0x40 ./STM32F4xx_StdPeriph_Driver/src/stm32f4xx_rcc.o
                0x08016cfc                RCC_SYSCLKConfig
 .text.RCC_GetSYSCLKSource
                0x08016d3c       0x20 ./STM32F4xx_StdPeriph_Driver/src/stm32f4xx_rcc.o
                0x08016d3c                RCC_GetSYSCLKSource
 .text.RCC_HCLKConfig
                0x08016d5c       0x40 ./STM32F4xx_StdPeriph_Driver/src/stm32f4xx_rcc.o
                0x08016d5c                RCC_HCLKConfig
 .text.RCC_PCLK1Config
                0x08016d9c       0x40 ./STM32F4xx_StdPeriph_Driver/src/stm32f4xx_rcc.o
                0x08016d9c                RCC_PCLK1Config
 .text.RCC_PCLK2Config
                0x08016ddc       0x44 ./STM32F4xx_StdPeriph_Driver/src/stm32f4xx_rcc.o
                0x08016ddc                RCC_PCLK2Config
 .text.RCC_GetClocksFreq
                0x08016e20      0x1d0 ./STM32F4xx_StdPeriph_Driver/src/stm32f4xx_rcc.o
                0x08016e20                RCC_GetClocksFreq
 .text.RCC_RTCCLKConfig
                0x08016ff0       0x78 ./STM32F4xx_StdPeriph_Driver/src/stm32f4xx_rcc.o
                0x08016ff0                RCC_RTCCLKConfig
 .text.RCC_RTCCLKCmd
                0x08017068       0x20 ./STM32F4xx_StdPeriph_Driver/src/stm32f4xx_rcc.o
                0x08017068                RCC_RTCCLKCmd
 .text.RCC_BackupResetCmd
                0x08017088       0x20 ./STM32F4xx_StdPeriph_Driver/src/stm32f4xx_rcc.o
                0x08017088                RCC_BackupResetCmd
 .text.RCC_I2SCLKConfig
                0x080170a8       0x20 ./STM32F4xx_StdPeriph_Driver/src/stm32f4xx_rcc.o
                0x080170a8                RCC_I2SCLKConfig
 .text.RCC_AHB1PeriphClockCmd
                0x080170c8       0x58 ./STM32F4xx_StdPeriph_Driver/src/stm32f4xx_rcc.o
                0x080170c8                RCC_AHB1PeriphClockCmd
 .text.RCC_AHB2PeriphClockCmd
                0x08017120       0x58 ./STM32F4xx_StdPeriph_Driver/src/stm32f4xx_rcc.o
                0x08017120                RCC_AHB2PeriphClockCmd
 .text.RCC_AHB3PeriphClockCmd
                0x08017178       0x58 ./STM32F4xx_StdPeriph_Driver/src/stm32f4xx_rcc.o
                0x08017178                RCC_AHB3PeriphClockCmd
 .text.RCC_APB1PeriphClockCmd
                0x080171d0       0x58 ./STM32F4xx_StdPeriph_Driver/src/stm32f4xx_rcc.o
                0x080171d0                RCC_APB1PeriphClockCmd
 .text.RCC_APB2PeriphClockCmd
                0x08017228       0x58 ./STM32F4xx_StdPeriph_Driver/src/stm32f4xx_rcc.o
                0x08017228                RCC_APB2PeriphClockCmd
 .text.RCC_AHB1PeriphResetCmd
                0x08017280       0x58 ./STM32F4xx_StdPeriph_Driver/src/stm32f4xx_rcc.o
                0x08017280                RCC_AHB1PeriphResetCmd
 .text.RCC_AHB2PeriphResetCmd
                0x080172d8       0x58 ./STM32F4xx_StdPeriph_Driver/src/stm32f4xx_rcc.o
                0x080172d8                RCC_AHB2PeriphResetCmd
 .text.RCC_AHB3PeriphResetCmd
                0x08017330       0x58 ./STM32F4xx_StdPeriph_Driver/src/stm32f4xx_rcc.o
                0x08017330                RCC_AHB3PeriphResetCmd
 .text.RCC_APB1PeriphResetCmd
                0x08017388       0x58 ./STM32F4xx_StdPeriph_Driver/src/stm32f4xx_rcc.o
                0x08017388                RCC_APB1PeriphResetCmd
 .text.RCC_APB2PeriphResetCmd
                0x080173e0       0x58 ./STM32F4xx_StdPeriph_Driver/src/stm32f4xx_rcc.o
                0x080173e0                RCC_APB2PeriphResetCmd
 .text.RCC_AHB1PeriphClockLPModeCmd
                0x08017438       0x58 ./STM32F4xx_StdPeriph_Driver/src/stm32f4xx_rcc.o
                0x08017438                RCC_AHB1PeriphClockLPModeCmd
 .text.RCC_AHB2PeriphClockLPModeCmd
                0x08017490       0x58 ./STM32F4xx_StdPeriph_Driver/src/stm32f4xx_rcc.o
                0x08017490                RCC_AHB2PeriphClockLPModeCmd
 .text.RCC_AHB3PeriphClockLPModeCmd
                0x080174e8       0x58 ./STM32F4xx_StdPeriph_Driver/src/stm32f4xx_rcc.o
                0x080174e8                RCC_AHB3PeriphClockLPModeCmd
 .text.RCC_APB1PeriphClockLPModeCmd
                0x08017540       0x58 ./STM32F4xx_StdPeriph_Driver/src/stm32f4xx_rcc.o
                0x08017540                RCC_APB1PeriphClockLPModeCmd
 .text.RCC_APB2PeriphClockLPModeCmd
                0x08017598       0x58 ./STM32F4xx_StdPeriph_Driver/src/stm32f4xx_rcc.o
                0x08017598                RCC_APB2PeriphClockLPModeCmd
 .text.RCC_ITConfig
                0x080175f0       0x60 ./STM32F4xx_StdPeriph_Driver/src/stm32f4xx_rcc.o
                0x080175f0                RCC_ITConfig
 .text.RCC_GetFlagStatus
                0x08017650       0x90 ./STM32F4xx_StdPeriph_Driver/src/stm32f4xx_rcc.o
                0x08017650                RCC_GetFlagStatus
 .text.RCC_ClearFlag
                0x080176e0       0x24 ./STM32F4xx_StdPeriph_Driver/src/stm32f4xx_rcc.o
                0x080176e0                RCC_ClearFlag
 .text.RCC_GetITStatus
                0x08017704       0x40 ./STM32F4xx_StdPeriph_Driver/src/stm32f4xx_rcc.o
                0x08017704                RCC_GetITStatus
 .text.RCC_ClearITPendingBit
                0x08017744       0x20 ./STM32F4xx_StdPeriph_Driver/src/stm32f4xx_rcc.o
                0x08017744                RCC_ClearITPendingBit
 .text.RNG_DeInit
                0x08017764       0x20 ./STM32F4xx_StdPeriph_Driver/src/stm32f4xx_rng.o
                0x08017764                RNG_DeInit
 .text.RNG_Cmd  0x08017784       0x4c ./STM32F4xx_StdPeriph_Driver/src/stm32f4xx_rng.o
                0x08017784                RNG_Cmd
 .text.RNG_GetRandomNumber
                0x080177d0       0x18 ./STM32F4xx_StdPeriph_Driver/src/stm32f4xx_rng.o
                0x080177d0                RNG_GetRandomNumber
 .text.RNG_ITConfig
                0x080177e8       0x4c ./STM32F4xx_StdPeriph_Driver/src/stm32f4xx_rng.o
                0x080177e8                RNG_ITConfig
 .text.RNG_GetFlagStatus
                0x08017834       0x40 ./STM32F4xx_StdPeriph_Driver/src/stm32f4xx_rng.o
                0x08017834                RNG_GetFlagStatus
 .text.RNG_ClearFlag
                0x08017874       0x28 ./STM32F4xx_StdPeriph_Driver/src/stm32f4xx_rng.o
                0x08017874                RNG_ClearFlag
 .text.RNG_GetITStatus
                0x0801789c       0x40 ./STM32F4xx_StdPeriph_Driver/src/stm32f4xx_rng.o
                0x0801789c                RNG_GetITStatus
 .text.RNG_ClearITPendingBit
                0x080178dc       0x28 ./STM32F4xx_StdPeriph_Driver/src/stm32f4xx_rng.o
                0x080178dc                RNG_ClearITPendingBit
 .text.RTC_DeInit
                0x08017904      0x16c ./STM32F4xx_StdPeriph_Driver/src/stm32f4xx_rtc.o
                0x08017904                RTC_DeInit
 .text.RTC_Init
                0x08017a70       0xc4 ./STM32F4xx_StdPeriph_Driver/src/stm32f4xx_rtc.o
                0x08017a70                RTC_Init
 .text.RTC_StructInit
                0x08017b34       0x2c ./STM32F4xx_StdPeriph_Driver/src/stm32f4xx_rtc.o
                0x08017b34                RTC_StructInit
 .text.RTC_WriteProtectionCmd
                0x08017b60       0x48 ./STM32F4xx_StdPeriph_Driver/src/stm32f4xx_rtc.o
                0x08017b60                RTC_WriteProtectionCmd
 .text.RTC_EnterInitMode
                0x08017ba8       0x94 ./STM32F4xx_StdPeriph_Driver/src/stm32f4xx_rtc.o
                0x08017ba8                RTC_EnterInitMode
 .text.RTC_ExitInitMode
                0x08017c3c       0x24 ./STM32F4xx_StdPeriph_Driver/src/stm32f4xx_rtc.o
                0x08017c3c                RTC_ExitInitMode
 .text.RTC_WaitForSynchro
                0x08017c60       0xb0 ./STM32F4xx_StdPeriph_Driver/src/stm32f4xx_rtc.o
                0x08017c60                RTC_WaitForSynchro
 .text.RTC_RefClockCmd
                0x08017d10       0x9c ./STM32F4xx_StdPeriph_Driver/src/stm32f4xx_rtc.o
                0x08017d10                RTC_RefClockCmd
 .text.RTC_BypassShadowCmd
                0x08017dac       0x78 ./STM32F4xx_StdPeriph_Driver/src/stm32f4xx_rtc.o
                0x08017dac                RTC_BypassShadowCmd
 .text.RTC_SetTime
                0x08017e24      0x148 ./STM32F4xx_StdPeriph_Driver/src/stm32f4xx_rtc.o
                0x08017e24                RTC_SetTime
 .text.RTC_TimeStructInit
                0x08017f6c       0x34 ./STM32F4xx_StdPeriph_Driver/src/stm32f4xx_rtc.o
                0x08017f6c                RTC_TimeStructInit
 .text.RTC_GetTime
                0x08017fa0       0xac ./STM32F4xx_StdPeriph_Driver/src/stm32f4xx_rtc.o
                0x08017fa0                RTC_GetTime
 .text.RTC_GetSubSecond
                0x0801804c       0x30 ./STM32F4xx_StdPeriph_Driver/src/stm32f4xx_rtc.o
                0x0801804c                RTC_GetSubSecond
 .text.RTC_SetDate
                0x0801807c      0x140 ./STM32F4xx_StdPeriph_Driver/src/stm32f4xx_rtc.o
                0x0801807c                RTC_SetDate
 .text.RTC_DateStructInit
                0x080181bc       0x34 ./STM32F4xx_StdPeriph_Driver/src/stm32f4xx_rtc.o
                0x080181bc                RTC_DateStructInit
 .text.RTC_GetDate
                0x080181f0       0xa8 ./STM32F4xx_StdPeriph_Driver/src/stm32f4xx_rtc.o
                0x080181f0                RTC_GetDate
 .text.RTC_SetAlarm
                0x08018298      0x17c ./STM32F4xx_StdPeriph_Driver/src/stm32f4xx_rtc.o
                0x08018298                RTC_SetAlarm
 .text.RTC_AlarmStructInit
                0x08018414       0x4c ./STM32F4xx_StdPeriph_Driver/src/stm32f4xx_rtc.o
                0x08018414                RTC_AlarmStructInit
 .text.RTC_GetAlarm
                0x08018460       0xec ./STM32F4xx_StdPeriph_Driver/src/stm32f4xx_rtc.o
                0x08018460                RTC_GetAlarm
 .text.RTC_AlarmCmd
                0x0801854c       0xf0 ./STM32F4xx_StdPeriph_Driver/src/stm32f4xx_rtc.o
                0x0801854c                RTC_AlarmCmd
 .text.RTC_AlarmSubSecondConfig
                0x0801863c       0x70 ./STM32F4xx_StdPeriph_Driver/src/stm32f4xx_rtc.o
                0x0801863c                RTC_AlarmSubSecondConfig
 .text.RTC_GetAlarmSubSecond
                0x080186ac       0x50 ./STM32F4xx_StdPeriph_Driver/src/stm32f4xx_rtc.o
                0x080186ac                RTC_GetAlarmSubSecond
 .text.RTC_WakeUpClockConfig
                0x080186fc       0x70 ./STM32F4xx_StdPeriph_Driver/src/stm32f4xx_rtc.o
                0x080186fc                RTC_WakeUpClockConfig
 .text.RTC_SetWakeUpCounter
                0x0801876c       0x48 ./STM32F4xx_StdPeriph_Driver/src/stm32f4xx_rtc.o
                0x0801876c                RTC_SetWakeUpCounter
 .text.RTC_GetWakeUpCounter
                0x080187b4       0x20 ./STM32F4xx_StdPeriph_Driver/src/stm32f4xx_rtc.o
                0x080187b4                RTC_GetWakeUpCounter
 .text.RTC_WakeUpCmd
                0x080187d4       0xd8 ./STM32F4xx_StdPeriph_Driver/src/stm32f4xx_rtc.o
                0x080187d4                RTC_WakeUpCmd
 .text.RTC_DayLightSavingConfig
                0x080188ac       0x74 ./STM32F4xx_StdPeriph_Driver/src/stm32f4xx_rtc.o
                0x080188ac                RTC_DayLightSavingConfig
 .text.RTC_GetStoreOperation
                0x08018920       0x1c ./STM32F4xx_StdPeriph_Driver/src/stm32f4xx_rtc.o
                0x08018920                RTC_GetStoreOperation
 .text.RTC_OutputConfig
                0x0801893c       0x74 ./STM32F4xx_StdPeriph_Driver/src/stm32f4xx_rtc.o
                0x0801893c                RTC_OutputConfig
 .text.RTC_CoarseCalibConfig
                0x080189b0       0x74 ./STM32F4xx_StdPeriph_Driver/src/stm32f4xx_rtc.o
                0x080189b0                RTC_CoarseCalibConfig
 .text.RTC_CoarseCalibCmd
                0x08018a24       0x9c ./STM32F4xx_StdPeriph_Driver/src/stm32f4xx_rtc.o
                0x08018a24                RTC_CoarseCalibCmd
 .text.RTC_CalibOutputCmd
                0x08018ac0       0x78 ./STM32F4xx_StdPeriph_Driver/src/stm32f4xx_rtc.o
                0x08018ac0                RTC_CalibOutputCmd
 .text.RTC_CalibOutputConfig
                0x08018b38       0x70 ./STM32F4xx_StdPeriph_Driver/src/stm32f4xx_rtc.o
                0x08018b38                RTC_CalibOutputConfig
 .text.RTC_SmoothCalibConfig
                0x08018ba8       0xbc ./STM32F4xx_StdPeriph_Driver/src/stm32f4xx_rtc.o
                0x08018ba8                RTC_SmoothCalibConfig
 .text.RTC_TimeStampCmd
                0x08018c64       0x84 ./STM32F4xx_StdPeriph_Driver/src/stm32f4xx_rtc.o
                0x08018c64                RTC_TimeStampCmd
 .text.RTC_GetTimeStamp
                0x08018ce8      0x134 ./STM32F4xx_StdPeriph_Driver/src/stm32f4xx_rtc.o
                0x08018ce8                RTC_GetTimeStamp
 .text.RTC_GetTimeStampSubSecond
                0x08018e1c       0x18 ./STM32F4xx_StdPeriph_Driver/src/stm32f4xx_rtc.o
                0x08018e1c                RTC_GetTimeStampSubSecond
 .text.RTC_TamperTriggerConfig
                0x08018e34       0x5c ./STM32F4xx_StdPeriph_Driver/src/stm32f4xx_rtc.o
                0x08018e34                RTC_TamperTriggerConfig
 .text.RTC_TamperCmd
                0x08018e90       0x58 ./STM32F4xx_StdPeriph_Driver/src/stm32f4xx_rtc.o
                0x08018e90                RTC_TamperCmd
 .text.RTC_TamperFilterConfig
                0x08018ee8       0x44 ./STM32F4xx_StdPeriph_Driver/src/stm32f4xx_rtc.o
                0x08018ee8                RTC_TamperFilterConfig
 .text.RTC_TamperSamplingFreqConfig
                0x08018f2c       0x44 ./STM32F4xx_StdPeriph_Driver/src/stm32f4xx_rtc.o
                0x08018f2c                RTC_TamperSamplingFreqConfig
 .text.RTC_TamperPinsPrechargeDuration
                0x08018f70       0x44 ./STM32F4xx_StdPeriph_Driver/src/stm32f4xx_rtc.o
                0x08018f70                RTC_TamperPinsPrechargeDuration
 .text.RTC_TimeStampOnTamperDetectionCmd
                0x08018fb4       0x4c ./STM32F4xx_StdPeriph_Driver/src/stm32f4xx_rtc.o
                0x08018fb4                RTC_TimeStampOnTamperDetectionCmd
 .text.RTC_TamperPullUpCmd
                0x08019000       0x4c ./STM32F4xx_StdPeriph_Driver/src/stm32f4xx_rtc.o
                0x08019000                RTC_TamperPullUpCmd
 .text.RTC_WriteBackupRegister
                0x0801904c       0x38 ./STM32F4xx_StdPeriph_Driver/src/stm32f4xx_rtc.o
                0x0801904c                RTC_WriteBackupRegister
 .text.RTC_ReadBackupRegister
                0x08019084       0x34 ./STM32F4xx_StdPeriph_Driver/src/stm32f4xx_rtc.o
                0x08019084                RTC_ReadBackupRegister
 .text.RTC_TamperPinSelection
                0x080190b8       0x44 ./STM32F4xx_StdPeriph_Driver/src/stm32f4xx_rtc.o
                0x080190b8                RTC_TamperPinSelection
 .text.RTC_TimeStampPinSelection
                0x080190fc       0x44 ./STM32F4xx_StdPeriph_Driver/src/stm32f4xx_rtc.o
                0x080190fc                RTC_TimeStampPinSelection
 .text.RTC_OutputTypeConfig
                0x08019140       0x44 ./STM32F4xx_StdPeriph_Driver/src/stm32f4xx_rtc.o
                0x08019140                RTC_OutputTypeConfig
 .text.RTC_SynchroShiftConfig
                0x08019184       0xe0 ./STM32F4xx_StdPeriph_Driver/src/stm32f4xx_rtc.o
                0x08019184                RTC_SynchroShiftConfig
 .text.RTC_ITConfig
                0x08019264       0xc8 ./STM32F4xx_StdPeriph_Driver/src/stm32f4xx_rtc.o
                0x08019264                RTC_ITConfig
 .text.RTC_GetFlagStatus
                0x0801932c       0x50 ./STM32F4xx_StdPeriph_Driver/src/stm32f4xx_rtc.o
                0x0801932c                RTC_GetFlagStatus
 .text.RTC_ClearFlag
                0x0801937c       0x40 ./STM32F4xx_StdPeriph_Driver/src/stm32f4xx_rtc.o
                0x0801937c                RTC_ClearFlag
 .text.RTC_GetITStatus
                0x080193bc       0x90 ./STM32F4xx_StdPeriph_Driver/src/stm32f4xx_rtc.o
                0x080193bc                RTC_GetITStatus
 .text.RTC_ClearITPendingBit
                0x0801944c       0x4c ./STM32F4xx_StdPeriph_Driver/src/stm32f4xx_rtc.o
                0x0801944c                RTC_ClearITPendingBit
 .text.RTC_ByteToBcd2
                0x08019498       0x44 ./STM32F4xx_StdPeriph_Driver/src/stm32f4xx_rtc.o
 .text.RTC_Bcd2ToByte
                0x080194dc       0x40 ./STM32F4xx_StdPeriph_Driver/src/stm32f4xx_rtc.o
 .text.SDIO_DeInit
                0x0801951c       0x20 ./STM32F4xx_StdPeriph_Driver/src/stm32f4xx_sdio.o
                0x0801951c                SDIO_DeInit
 .text.SDIO_Init
                0x0801953c       0x68 ./STM32F4xx_StdPeriph_Driver/src/stm32f4xx_sdio.o
                0x0801953c                SDIO_Init
 .text.SDIO_StructInit
                0x080195a4       0x44 ./STM32F4xx_StdPeriph_Driver/src/stm32f4xx_sdio.o
                0x080195a4                SDIO_StructInit
 .text.SDIO_ClockCmd
                0x080195e8       0x20 ./STM32F4xx_StdPeriph_Driver/src/stm32f4xx_sdio.o
                0x080195e8                SDIO_ClockCmd
 .text.SDIO_SetPowerState
                0x08019608       0x20 ./STM32F4xx_StdPeriph_Driver/src/stm32f4xx_sdio.o
                0x08019608                SDIO_SetPowerState
 .text.SDIO_GetPowerState
                0x08019628       0x1c ./STM32F4xx_StdPeriph_Driver/src/stm32f4xx_sdio.o
                0x08019628                SDIO_GetPowerState
 .text.SDIO_SendCommand
                0x08019644       0x68 ./STM32F4xx_StdPeriph_Driver/src/stm32f4xx_sdio.o
                0x08019644                SDIO_SendCommand
 .text.SDIO_CmdStructInit
                0x080196ac       0x3c ./STM32F4xx_StdPeriph_Driver/src/stm32f4xx_sdio.o
                0x080196ac                SDIO_CmdStructInit
 .text.SDIO_GetCommandResponse
                0x080196e8       0x18 ./STM32F4xx_StdPeriph_Driver/src/stm32f4xx_sdio.o
                0x080196e8                SDIO_GetCommandResponse
 .text.SDIO_GetResponse
                0x08019700       0x2c ./STM32F4xx_StdPeriph_Driver/src/stm32f4xx_sdio.o
                0x08019700                SDIO_GetResponse
 .text.SDIO_DataConfig
                0x0801972c       0x70 ./STM32F4xx_StdPeriph_Driver/src/stm32f4xx_sdio.o
                0x0801972c                SDIO_DataConfig
 .text.SDIO_DataStructInit
                0x0801979c       0x44 ./STM32F4xx_StdPeriph_Driver/src/stm32f4xx_sdio.o
                0x0801979c                SDIO_DataStructInit
 .text.SDIO_GetDataCounter
                0x080197e0       0x18 ./STM32F4xx_StdPeriph_Driver/src/stm32f4xx_sdio.o
                0x080197e0                SDIO_GetDataCounter
 .text.SDIO_ReadData
                0x080197f8       0x18 ./STM32F4xx_StdPeriph_Driver/src/stm32f4xx_sdio.o
                0x080197f8                SDIO_ReadData
 .text.SDIO_WriteData
                0x08019810       0x20 ./STM32F4xx_StdPeriph_Driver/src/stm32f4xx_sdio.o
                0x08019810                SDIO_WriteData
 .text.SDIO_GetFIFOCount
                0x08019830       0x18 ./STM32F4xx_StdPeriph_Driver/src/stm32f4xx_sdio.o
                0x08019830                SDIO_GetFIFOCount
 .text.SDIO_StartSDIOReadWait
                0x08019848       0x20 ./STM32F4xx_StdPeriph_Driver/src/stm32f4xx_sdio.o
                0x08019848                SDIO_StartSDIOReadWait
 .text.SDIO_StopSDIOReadWait
                0x08019868       0x20 ./STM32F4xx_StdPeriph_Driver/src/stm32f4xx_sdio.o
                0x08019868                SDIO_StopSDIOReadWait
 .text.SDIO_SetSDIOReadWaitMode
                0x08019888       0x20 ./STM32F4xx_StdPeriph_Driver/src/stm32f4xx_sdio.o
                0x08019888                SDIO_SetSDIOReadWaitMode
 .text.SDIO_SetSDIOOperation
                0x080198a8       0x20 ./STM32F4xx_StdPeriph_Driver/src/stm32f4xx_sdio.o
                0x080198a8                SDIO_SetSDIOOperation
 .text.SDIO_SendSDIOSuspendCmd
                0x080198c8       0x20 ./STM32F4xx_StdPeriph_Driver/src/stm32f4xx_sdio.o
                0x080198c8                SDIO_SendSDIOSuspendCmd
 .text.SDIO_CommandCompletionCmd
                0x080198e8       0x20 ./STM32F4xx_StdPeriph_Driver/src/stm32f4xx_sdio.o
                0x080198e8                SDIO_CommandCompletionCmd
 .text.SDIO_CEATAITCmd
                0x08019908       0x2c ./STM32F4xx_StdPeriph_Driver/src/stm32f4xx_sdio.o
                0x08019908                SDIO_CEATAITCmd
 .text.SDIO_SendCEATACmd
                0x08019934       0x20 ./STM32F4xx_StdPeriph_Driver/src/stm32f4xx_sdio.o
                0x08019934                SDIO_SendCEATACmd
 .text.SDIO_DMACmd
                0x08019954       0x20 ./STM32F4xx_StdPeriph_Driver/src/stm32f4xx_sdio.o
                0x08019954                SDIO_DMACmd
 .text.SDIO_ITConfig
                0x08019974       0x58 ./STM32F4xx_StdPeriph_Driver/src/stm32f4xx_sdio.o
                0x08019974                SDIO_ITConfig
 .text.SDIO_GetFlagStatus
                0x080199cc       0x40 ./STM32F4xx_StdPeriph_Driver/src/stm32f4xx_sdio.o
                0x080199cc                SDIO_GetFlagStatus
 .text.SDIO_ClearFlag
                0x08019a0c       0x20 ./STM32F4xx_StdPeriph_Driver/src/stm32f4xx_sdio.o
                0x08019a0c                SDIO_ClearFlag
 .text.SDIO_GetITStatus
                0x08019a2c       0x40 ./STM32F4xx_StdPeriph_Driver/src/stm32f4xx_sdio.o
                0x08019a2c                SDIO_GetITStatus
 .text.SDIO_ClearITPendingBit
                0x08019a6c       0x20 ./STM32F4xx_StdPeriph_Driver/src/stm32f4xx_sdio.o
                0x08019a6c                SDIO_ClearITPendingBit
 .text.SPI_I2S_DeInit
                0x08019a8c       0x88 ./STM32F4xx_StdPeriph_Driver/src/stm32f4xx_spi.o
                0x08019a8c                SPI_I2S_DeInit
 .text.SPI_Init
                0x08019b14       0x88 ./STM32F4xx_StdPeriph_Driver/src/stm32f4xx_spi.o
                0x08019b14                SPI_Init
 .text.I2S_Init
                0x08019b9c      0x214 ./STM32F4xx_StdPeriph_Driver/src/stm32f4xx_spi.o
                0x08019b9c                I2S_Init
 .text.SPI_StructInit
                0x08019db0       0x5c ./STM32F4xx_StdPeriph_Driver/src/stm32f4xx_spi.o
                0x08019db0                SPI_StructInit
 .text.I2S_StructInit
                0x08019e0c       0x44 ./STM32F4xx_StdPeriph_Driver/src/stm32f4xx_spi.o
                0x08019e0c                I2S_StructInit
 .text.SPI_Cmd  0x08019e50       0x40 ./STM32F4xx_StdPeriph_Driver/src/stm32f4xx_spi.o
                0x08019e50                SPI_Cmd
 .text.I2S_Cmd  0x08019e90       0x40 ./STM32F4xx_StdPeriph_Driver/src/stm32f4xx_spi.o
                0x08019e90                I2S_Cmd
 .text.SPI_DataSizeConfig
                0x08019ed0       0x38 ./STM32F4xx_StdPeriph_Driver/src/stm32f4xx_spi.o
                0x08019ed0                SPI_DataSizeConfig
 .text.SPI_BiDirectionalLineConfig
                0x08019f08       0x40 ./STM32F4xx_StdPeriph_Driver/src/stm32f4xx_spi.o
                0x08019f08                SPI_BiDirectionalLineConfig
 .text.SPI_NSSInternalSoftwareConfig
                0x08019f48       0x44 ./STM32F4xx_StdPeriph_Driver/src/stm32f4xx_spi.o
                0x08019f48                SPI_NSSInternalSoftwareConfig
 .text.SPI_SSOutputCmd
                0x08019f8c       0x40 ./STM32F4xx_StdPeriph_Driver/src/stm32f4xx_spi.o
                0x08019f8c                SPI_SSOutputCmd
 .text.SPI_TIModeCmd
                0x08019fcc       0x40 ./STM32F4xx_StdPeriph_Driver/src/stm32f4xx_spi.o
                0x08019fcc                SPI_TIModeCmd
 .text.I2S_FullDuplexConfig
                0x0801a00c       0xa4 ./STM32F4xx_StdPeriph_Driver/src/stm32f4xx_spi.o
                0x0801a00c                I2S_FullDuplexConfig
 .text.SPI_I2S_ReceiveData
                0x0801a0b0       0x1c ./STM32F4xx_StdPeriph_Driver/src/stm32f4xx_spi.o
                0x0801a0b0                SPI_I2S_ReceiveData
 .text.SPI_I2S_SendData
                0x0801a0cc       0x1c ./STM32F4xx_StdPeriph_Driver/src/stm32f4xx_spi.o
                0x0801a0cc                SPI_I2S_SendData
 .text.SPI_CalculateCRC
                0x0801a0e8       0x40 ./STM32F4xx_StdPeriph_Driver/src/stm32f4xx_spi.o
                0x0801a0e8                SPI_CalculateCRC
 .text.SPI_TransmitCRC
                0x0801a128       0x24 ./STM32F4xx_StdPeriph_Driver/src/stm32f4xx_spi.o
                0x0801a128                SPI_TransmitCRC
 .text.SPI_GetCRC
                0x0801a14c       0x34 ./STM32F4xx_StdPeriph_Driver/src/stm32f4xx_spi.o
                0x0801a14c                SPI_GetCRC
 .text.SPI_GetCRCPolynomial
                0x0801a180       0x1c ./STM32F4xx_StdPeriph_Driver/src/stm32f4xx_spi.o
                0x0801a180                SPI_GetCRCPolynomial
 .text.SPI_I2S_DMACmd
                0x0801a19c       0x48 ./STM32F4xx_StdPeriph_Driver/src/stm32f4xx_spi.o
                0x0801a19c                SPI_I2S_DMACmd
 .text.SPI_I2S_ITConfig
                0x0801a1e4       0x6c ./STM32F4xx_StdPeriph_Driver/src/stm32f4xx_spi.o
                0x0801a1e4                SPI_I2S_ITConfig
 .text.SPI_I2S_GetFlagStatus
                0x0801a250       0x40 ./STM32F4xx_StdPeriph_Driver/src/stm32f4xx_spi.o
                0x0801a250                SPI_I2S_GetFlagStatus
 .text.SPI_I2S_ClearFlag
                0x0801a290       0x24 ./STM32F4xx_StdPeriph_Driver/src/stm32f4xx_spi.o
                0x0801a290                SPI_I2S_ClearFlag
 .text.SPI_I2S_GetITStatus
                0x0801a2b4       0x88 ./STM32F4xx_StdPeriph_Driver/src/stm32f4xx_spi.o
                0x0801a2b4                SPI_I2S_GetITStatus
 .text.SPI_I2S_ClearITPendingBit
                0x0801a33c       0x38 ./STM32F4xx_StdPeriph_Driver/src/stm32f4xx_spi.o
                0x0801a33c                SPI_I2S_ClearITPendingBit
 .text.SYSCFG_DeInit
                0x0801a374       0x20 ./STM32F4xx_StdPeriph_Driver/src/stm32f4xx_syscfg.o
                0x0801a374                SYSCFG_DeInit
 .text.SYSCFG_MemoryRemapConfig
                0x0801a394       0x20 ./STM32F4xx_StdPeriph_Driver/src/stm32f4xx_syscfg.o
                0x0801a394                SYSCFG_MemoryRemapConfig
 .text.SYSCFG_EXTILineConfig
                0x0801a3b4       0xb4 ./STM32F4xx_StdPeriph_Driver/src/stm32f4xx_syscfg.o
                0x0801a3b4                SYSCFG_EXTILineConfig
 .text.SYSCFG_ETH_MediaInterfaceConfig
                0x0801a468       0x20 ./STM32F4xx_StdPeriph_Driver/src/stm32f4xx_syscfg.o
                0x0801a468                SYSCFG_ETH_MediaInterfaceConfig
 .text.SYSCFG_CompensationCellCmd
                0x0801a488       0x20 ./STM32F4xx_StdPeriph_Driver/src/stm32f4xx_syscfg.o
                0x0801a488                SYSCFG_CompensationCellCmd
 .text.SYSCFG_GetCompensationCellStatus
                0x0801a4a8       0x3c ./STM32F4xx_StdPeriph_Driver/src/stm32f4xx_syscfg.o
                0x0801a4a8                SYSCFG_GetCompensationCellStatus
 .text.TIM_DeInit
                0x0801a4e4      0x238 ./STM32F4xx_StdPeriph_Driver/src/stm32f4xx_tim.o
                0x0801a4e4                TIM_DeInit
 .text.TIM_TimeBaseInit
                0x0801a71c       0xf4 ./STM32F4xx_StdPeriph_Driver/src/stm32f4xx_tim.o
                0x0801a71c                TIM_TimeBaseInit
 .text.TIM_TimeBaseStructInit
                0x0801a810       0x3c ./STM32F4xx_StdPeriph_Driver/src/stm32f4xx_tim.o
                0x0801a810                TIM_TimeBaseStructInit
 .text.TIM_PrescalerConfig
                0x0801a84c       0x28 ./STM32F4xx_StdPeriph_Driver/src/stm32f4xx_tim.o
                0x0801a84c                TIM_PrescalerConfig
 .text.TIM_CounterModeConfig
                0x0801a874       0x38 ./STM32F4xx_StdPeriph_Driver/src/stm32f4xx_tim.o
                0x0801a874                TIM_CounterModeConfig
 .text.TIM_SetCounter
                0x0801a8ac       0x1c ./STM32F4xx_StdPeriph_Driver/src/stm32f4xx_tim.o
                0x0801a8ac                TIM_SetCounter
 .text.TIM_SetAutoreload
                0x0801a8c8       0x1c ./STM32F4xx_StdPeriph_Driver/src/stm32f4xx_tim.o
                0x0801a8c8                TIM_SetAutoreload
 .text.TIM_GetCounter
                0x0801a8e4       0x18 ./STM32F4xx_StdPeriph_Driver/src/stm32f4xx_tim.o
                0x0801a8e4                TIM_GetCounter
 .text.TIM_GetPrescaler
                0x0801a8fc       0x1c ./STM32F4xx_StdPeriph_Driver/src/stm32f4xx_tim.o
                0x0801a8fc                TIM_GetPrescaler
 .text.TIM_UpdateDisableConfig
                0x0801a918       0x40 ./STM32F4xx_StdPeriph_Driver/src/stm32f4xx_tim.o
                0x0801a918                TIM_UpdateDisableConfig
 .text.TIM_UpdateRequestConfig
                0x0801a958       0x40 ./STM32F4xx_StdPeriph_Driver/src/stm32f4xx_tim.o
                0x0801a958                TIM_UpdateRequestConfig
 .text.TIM_ARRPreloadConfig
                0x0801a998       0x40 ./STM32F4xx_StdPeriph_Driver/src/stm32f4xx_tim.o
                0x0801a998                TIM_ARRPreloadConfig
 .text.TIM_SelectOnePulseMode
                0x0801a9d8       0x38 ./STM32F4xx_StdPeriph_Driver/src/stm32f4xx_tim.o
                0x0801a9d8                TIM_SelectOnePulseMode
 .text.TIM_SetClockDivision
                0x0801aa10       0x38 ./STM32F4xx_StdPeriph_Driver/src/stm32f4xx_tim.o
                0x0801aa10                TIM_SetClockDivision
 .text.TIM_Cmd  0x0801aa48       0x40 ./STM32F4xx_StdPeriph_Driver/src/stm32f4xx_tim.o
                0x0801aa48                TIM_Cmd
 .text.TIM_OC1Init
                0x0801aa88       0xfc ./STM32F4xx_StdPeriph_Driver/src/stm32f4xx_tim.o
                0x0801aa88                TIM_OC1Init
 .text.TIM_OC2Init
                0x0801ab84      0x128 ./STM32F4xx_StdPeriph_Driver/src/stm32f4xx_tim.o
                0x0801ab84                TIM_OC2Init
 .text.TIM_OC3Init
                0x0801acac      0x120 ./STM32F4xx_StdPeriph_Driver/src/stm32f4xx_tim.o
                0x0801acac                TIM_OC3Init
 .text.TIM_OC4Init
                0x0801adcc       0xe0 ./STM32F4xx_StdPeriph_Driver/src/stm32f4xx_tim.o
                0x0801adcc                TIM_OC4Init
 .text.TIM_OCStructInit
                0x0801aeac       0x54 ./STM32F4xx_StdPeriph_Driver/src/stm32f4xx_tim.o
                0x0801aeac                TIM_OCStructInit
 .text.TIM_SelectOCxM
                0x0801af00       0xc0 ./STM32F4xx_StdPeriph_Driver/src/stm32f4xx_tim.o
                0x0801af00                TIM_SelectOCxM
 .text.TIM_SetCompare1
                0x0801afc0       0x1c ./STM32F4xx_StdPeriph_Driver/src/stm32f4xx_tim.o
                0x0801afc0                TIM_SetCompare1
 .text.TIM_SetCompare2
                0x0801afdc       0x1c ./STM32F4xx_StdPeriph_Driver/src/stm32f4xx_tim.o
                0x0801afdc                TIM_SetCompare2
 .text.TIM_SetCompare3
                0x0801aff8       0x1c ./STM32F4xx_StdPeriph_Driver/src/stm32f4xx_tim.o
                0x0801aff8                TIM_SetCompare3
 .text.TIM_SetCompare4
                0x0801b014       0x1c ./STM32F4xx_StdPeriph_Driver/src/stm32f4xx_tim.o
                0x0801b014                TIM_SetCompare4
 .text.TIM_ForcedOC1Config
                0x0801b030       0x38 ./STM32F4xx_StdPeriph_Driver/src/stm32f4xx_tim.o
                0x0801b030                TIM_ForcedOC1Config
 .text.TIM_ForcedOC2Config
                0x0801b068       0x40 ./STM32F4xx_StdPeriph_Driver/src/stm32f4xx_tim.o
                0x0801b068                TIM_ForcedOC2Config
 .text.TIM_ForcedOC3Config
                0x0801b0a8       0x38 ./STM32F4xx_StdPeriph_Driver/src/stm32f4xx_tim.o
                0x0801b0a8                TIM_ForcedOC3Config
 .text.TIM_ForcedOC4Config
                0x0801b0e0       0x40 ./STM32F4xx_StdPeriph_Driver/src/stm32f4xx_tim.o
                0x0801b0e0                TIM_ForcedOC4Config
 .text.TIM_OC1PreloadConfig
                0x0801b120       0x38 ./STM32F4xx_StdPeriph_Driver/src/stm32f4xx_tim.o
                0x0801b120                TIM_OC1PreloadConfig
 .text.TIM_OC2PreloadConfig
                0x0801b158       0x40 ./STM32F4xx_StdPeriph_Driver/src/stm32f4xx_tim.o
                0x0801b158                TIM_OC2PreloadConfig
 .text.TIM_OC3PreloadConfig
                0x0801b198       0x38 ./STM32F4xx_StdPeriph_Driver/src/stm32f4xx_tim.o
                0x0801b198                TIM_OC3PreloadConfig
 .text.TIM_OC4PreloadConfig
                0x0801b1d0       0x40 ./STM32F4xx_StdPeriph_Driver/src/stm32f4xx_tim.o
                0x0801b1d0                TIM_OC4PreloadConfig
 .text.TIM_OC1FastConfig
                0x0801b210       0x38 ./STM32F4xx_StdPeriph_Driver/src/stm32f4xx_tim.o
                0x0801b210                TIM_OC1FastConfig
 .text.TIM_OC2FastConfig
                0x0801b248       0x40 ./STM32F4xx_StdPeriph_Driver/src/stm32f4xx_tim.o
                0x0801b248                TIM_OC2FastConfig
 .text.TIM_OC3FastConfig
                0x0801b288       0x38 ./STM32F4xx_StdPeriph_Driver/src/stm32f4xx_tim.o
                0x0801b288                TIM_OC3FastConfig
 .text.TIM_OC4FastConfig
                0x0801b2c0       0x40 ./STM32F4xx_StdPeriph_Driver/src/stm32f4xx_tim.o
                0x0801b2c0                TIM_OC4FastConfig
 .text.TIM_ClearOC1Ref
                0x0801b300       0x38 ./STM32F4xx_StdPeriph_Driver/src/stm32f4xx_tim.o
                0x0801b300                TIM_ClearOC1Ref
 .text.TIM_ClearOC2Ref
                0x0801b338       0x44 ./STM32F4xx_StdPeriph_Driver/src/stm32f4xx_tim.o
                0x0801b338                TIM_ClearOC2Ref
 .text.TIM_ClearOC3Ref
                0x0801b37c       0x38 ./STM32F4xx_StdPeriph_Driver/src/stm32f4xx_tim.o
                0x0801b37c                TIM_ClearOC3Ref
 .text.TIM_ClearOC4Ref
                0x0801b3b4       0x44 ./STM32F4xx_StdPeriph_Driver/src/stm32f4xx_tim.o
                0x0801b3b4                TIM_ClearOC4Ref
 .text.TIM_OC1PolarityConfig
                0x0801b3f8       0x38 ./STM32F4xx_StdPeriph_Driver/src/stm32f4xx_tim.o
                0x0801b3f8                TIM_OC1PolarityConfig
 .text.TIM_OC1NPolarityConfig
                0x0801b430       0x38 ./STM32F4xx_StdPeriph_Driver/src/stm32f4xx_tim.o
                0x0801b430                TIM_OC1NPolarityConfig
 .text.TIM_OC2PolarityConfig
                0x0801b468       0x40 ./STM32F4xx_StdPeriph_Driver/src/stm32f4xx_tim.o
                0x0801b468                TIM_OC2PolarityConfig
 .text.TIM_OC2NPolarityConfig
                0x0801b4a8       0x40 ./STM32F4xx_StdPeriph_Driver/src/stm32f4xx_tim.o
                0x0801b4a8                TIM_OC2NPolarityConfig
 .text.TIM_OC3PolarityConfig
                0x0801b4e8       0x40 ./STM32F4xx_StdPeriph_Driver/src/stm32f4xx_tim.o
                0x0801b4e8                TIM_OC3PolarityConfig
 .text.TIM_OC3NPolarityConfig
                0x0801b528       0x40 ./STM32F4xx_StdPeriph_Driver/src/stm32f4xx_tim.o
                0x0801b528                TIM_OC3NPolarityConfig
 .text.TIM_OC4PolarityConfig
                0x0801b568       0x40 ./STM32F4xx_StdPeriph_Driver/src/stm32f4xx_tim.o
                0x0801b568                TIM_OC4PolarityConfig
 .text.TIM_CCxCmd
                0x0801b5a8       0x5c ./STM32F4xx_StdPeriph_Driver/src/stm32f4xx_tim.o
                0x0801b5a8                TIM_CCxCmd
 .text.TIM_CCxNCmd
                0x0801b604       0x5c ./STM32F4xx_StdPeriph_Driver/src/stm32f4xx_tim.o
                0x0801b604                TIM_CCxNCmd
 .text.TIM_ICInit
                0x0801b660       0xa8 ./STM32F4xx_StdPeriph_Driver/src/stm32f4xx_tim.o
                0x0801b660                TIM_ICInit
 .text.TIM_ICStructInit
                0x0801b708       0x3c ./STM32F4xx_StdPeriph_Driver/src/stm32f4xx_tim.o
                0x0801b708                TIM_ICStructInit
 .text.TIM_PWMIConfig
                0x0801b744       0xc4 ./STM32F4xx_StdPeriph_Driver/src/stm32f4xx_tim.o
                0x0801b744                TIM_PWMIConfig
 .text.TIM_GetCapture1
                0x0801b808       0x18 ./STM32F4xx_StdPeriph_Driver/src/stm32f4xx_tim.o
                0x0801b808                TIM_GetCapture1
 .text.TIM_GetCapture2
                0x0801b820       0x18 ./STM32F4xx_StdPeriph_Driver/src/stm32f4xx_tim.o
                0x0801b820                TIM_GetCapture2
 .text.TIM_GetCapture3
                0x0801b838       0x18 ./STM32F4xx_StdPeriph_Driver/src/stm32f4xx_tim.o
                0x0801b838                TIM_GetCapture3
 .text.TIM_GetCapture4
                0x0801b850       0x18 ./STM32F4xx_StdPeriph_Driver/src/stm32f4xx_tim.o
                0x0801b850                TIM_GetCapture4
 .text.TIM_SetIC1Prescaler
                0x0801b868       0x38 ./STM32F4xx_StdPeriph_Driver/src/stm32f4xx_tim.o
                0x0801b868                TIM_SetIC1Prescaler
 .text.TIM_SetIC2Prescaler
                0x0801b8a0       0x3c ./STM32F4xx_StdPeriph_Driver/src/stm32f4xx_tim.o
                0x0801b8a0                TIM_SetIC2Prescaler
 .text.TIM_SetIC3Prescaler
                0x0801b8dc       0x38 ./STM32F4xx_StdPeriph_Driver/src/stm32f4xx_tim.o
                0x0801b8dc                TIM_SetIC3Prescaler
 .text.TIM_SetIC4Prescaler
                0x0801b914       0x3c ./STM32F4xx_StdPeriph_Driver/src/stm32f4xx_tim.o
                0x0801b914                TIM_SetIC4Prescaler
 .text.TIM_BDTRConfig
                0x0801b950       0x50 ./STM32F4xx_StdPeriph_Driver/src/stm32f4xx_tim.o
                0x0801b950                TIM_BDTRConfig
 .text.TIM_BDTRStructInit
                0x0801b9a0       0x4c ./STM32F4xx_StdPeriph_Driver/src/stm32f4xx_tim.o
                0x0801b9a0                TIM_BDTRStructInit
 .text.TIM_CtrlPWMOutputs
                0x0801b9ec       0x50 ./STM32F4xx_StdPeriph_Driver/src/stm32f4xx_tim.o
                0x0801b9ec                TIM_CtrlPWMOutputs
 .text.TIM_SelectCOM
                0x0801ba3c       0x40 ./STM32F4xx_StdPeriph_Driver/src/stm32f4xx_tim.o
                0x0801ba3c                TIM_SelectCOM
 .text.TIM_CCPreloadControl
                0x0801ba7c       0x40 ./STM32F4xx_StdPeriph_Driver/src/stm32f4xx_tim.o
                0x0801ba7c                TIM_CCPreloadControl
 .text.TIM_ITConfig
                0x0801babc       0x48 ./STM32F4xx_StdPeriph_Driver/src/stm32f4xx_tim.o
                0x0801babc                TIM_ITConfig
 .text.TIM_GenerateEvent
                0x0801bb04       0x1c ./STM32F4xx_StdPeriph_Driver/src/stm32f4xx_tim.o
                0x0801bb04                TIM_GenerateEvent
 .text.TIM_GetFlagStatus
                0x0801bb20       0x40 ./STM32F4xx_StdPeriph_Driver/src/stm32f4xx_tim.o
                0x0801bb20                TIM_GetFlagStatus
 .text.TIM_ClearFlag
                0x0801bb60       0x24 ./STM32F4xx_StdPeriph_Driver/src/stm32f4xx_tim.o
                0x0801bb60                TIM_ClearFlag
 .text.TIM_GetITStatus
                0x0801bb84       0x60 ./STM32F4xx_StdPeriph_Driver/src/stm32f4xx_tim.o
                0x0801bb84                TIM_GetITStatus
 .text.TIM_ClearITPendingBit
                0x0801bbe4       0x24 ./STM32F4xx_StdPeriph_Driver/src/stm32f4xx_tim.o
                0x0801bbe4                TIM_ClearITPendingBit
 .text.TIM_DMAConfig
                0x0801bc08       0x28 ./STM32F4xx_StdPeriph_Driver/src/stm32f4xx_tim.o
                0x0801bc08                TIM_DMAConfig
 .text.TIM_DMACmd
                0x0801bc30       0x48 ./STM32F4xx_StdPeriph_Driver/src/stm32f4xx_tim.o
                0x0801bc30                TIM_DMACmd
 .text.TIM_SelectCCDMA
                0x0801bc78       0x40 ./STM32F4xx_StdPeriph_Driver/src/stm32f4xx_tim.o
                0x0801bc78                TIM_SelectCCDMA
 .text.TIM_InternalClockConfig
                0x0801bcb8       0x24 ./STM32F4xx_StdPeriph_Driver/src/stm32f4xx_tim.o
                0x0801bcb8                TIM_InternalClockConfig
 .text.TIM_ITRxExternalClockConfig
                0x0801bcdc       0x30 ./STM32F4xx_StdPeriph_Driver/src/stm32f4xx_tim.o
                0x0801bcdc                TIM_ITRxExternalClockConfig
 .text.TIM_TIxExternalClockConfig
                0x0801bd0c       0x58 ./STM32F4xx_StdPeriph_Driver/src/stm32f4xx_tim.o
                0x0801bd0c                TIM_TIxExternalClockConfig
 .text.TIM_ETRClockMode1Config
                0x0801bd64       0x54 ./STM32F4xx_StdPeriph_Driver/src/stm32f4xx_tim.o
                0x0801bd64                TIM_ETRClockMode1Config
 .text.TIM_ETRClockMode2Config
                0x0801bdb8       0x34 ./STM32F4xx_StdPeriph_Driver/src/stm32f4xx_tim.o
                0x0801bdb8                TIM_ETRClockMode2Config
 .text.TIM_SelectInputTrigger
                0x0801bdec       0x38 ./STM32F4xx_StdPeriph_Driver/src/stm32f4xx_tim.o
                0x0801bdec                TIM_SelectInputTrigger
 .text.TIM_SelectOutputTrigger
                0x0801be24       0x38 ./STM32F4xx_StdPeriph_Driver/src/stm32f4xx_tim.o
                0x0801be24                TIM_SelectOutputTrigger
 .text.TIM_SelectSlaveMode
                0x0801be5c       0x38 ./STM32F4xx_StdPeriph_Driver/src/stm32f4xx_tim.o
                0x0801be5c                TIM_SelectSlaveMode
 .text.TIM_SelectMasterSlaveMode
                0x0801be94       0x38 ./STM32F4xx_StdPeriph_Driver/src/stm32f4xx_tim.o
                0x0801be94                TIM_SelectMasterSlaveMode
 .text.TIM_ETRConfig
                0x0801becc       0x4c ./STM32F4xx_StdPeriph_Driver/src/stm32f4xx_tim.o
                0x0801becc                TIM_ETRConfig
 .text.TIM_EncoderInterfaceConfig
                0x0801bf18       0x94 ./STM32F4xx_StdPeriph_Driver/src/stm32f4xx_tim.o
                0x0801bf18                TIM_EncoderInterfaceConfig
 .text.TIM_SelectHallSensor
                0x0801bfac       0x40 ./STM32F4xx_StdPeriph_Driver/src/stm32f4xx_tim.o
                0x0801bfac                TIM_SelectHallSensor
 .text.TIM_RemapConfig
                0x0801bfec       0x20 ./STM32F4xx_StdPeriph_Driver/src/stm32f4xx_tim.o
                0x0801bfec                TIM_RemapConfig
 .text.TI1_Config
                0x0801c00c       0x80 ./STM32F4xx_StdPeriph_Driver/src/stm32f4xx_tim.o
 .text.TI2_Config
                0x0801c08c       0x9c ./STM32F4xx_StdPeriph_Driver/src/stm32f4xx_tim.o
 .text.TI3_Config
                0x0801c128       0x8c ./STM32F4xx_StdPeriph_Driver/src/stm32f4xx_tim.o
 .text.TI4_Config
                0x0801c1b4       0xa4 ./STM32F4xx_StdPeriph_Driver/src/stm32f4xx_tim.o
 .text.USART_DeInit
                0x0801c258      0x100 ./STM32F4xx_StdPeriph_Driver/src/stm32f4xx_usart.o
                0x0801c258                USART_DeInit
 .text.USART_Init
                0x0801c358      0x1ac ./STM32F4xx_StdPeriph_Driver/src/stm32f4xx_usart.o
                0x0801c358                USART_Init
 .text.USART_StructInit
                0x0801c504       0x44 ./STM32F4xx_StdPeriph_Driver/src/stm32f4xx_usart.o
                0x0801c504                USART_StructInit
 .text.USART_ClockInit
                0x0801c548       0x54 ./STM32F4xx_StdPeriph_Driver/src/stm32f4xx_usart.o
                0x0801c548                USART_ClockInit
 .text.USART_ClockStructInit
                0x0801c59c       0x34 ./STM32F4xx_StdPeriph_Driver/src/stm32f4xx_usart.o
                0x0801c59c                USART_ClockStructInit
 .text.USART_Cmd
                0x0801c5d0       0x40 ./STM32F4xx_StdPeriph_Driver/src/stm32f4xx_usart.o
                0x0801c5d0                USART_Cmd
 .text.USART_SetPrescaler
                0x0801c610       0x38 ./STM32F4xx_StdPeriph_Driver/src/stm32f4xx_usart.o
                0x0801c610                USART_SetPrescaler
 .text.USART_OverSampling8Cmd
                0x0801c648       0x48 ./STM32F4xx_StdPeriph_Driver/src/stm32f4xx_usart.o
                0x0801c648                USART_OverSampling8Cmd
 .text.USART_OneBitMethodCmd
                0x0801c690       0x40 ./STM32F4xx_StdPeriph_Driver/src/stm32f4xx_usart.o
                0x0801c690                USART_OneBitMethodCmd
 .text.USART_SendData
                0x0801c6d0       0x28 ./STM32F4xx_StdPeriph_Driver/src/stm32f4xx_usart.o
                0x0801c6d0                USART_SendData
 .text.USART_ReceiveData
                0x0801c6f8       0x24 ./STM32F4xx_StdPeriph_Driver/src/stm32f4xx_usart.o
                0x0801c6f8                USART_ReceiveData
 .text.USART_SetAddress
                0x0801c71c       0x38 ./STM32F4xx_StdPeriph_Driver/src/stm32f4xx_usart.o
                0x0801c71c                USART_SetAddress
 .text.USART_ReceiverWakeUpCmd
                0x0801c754       0x40 ./STM32F4xx_StdPeriph_Driver/src/stm32f4xx_usart.o
                0x0801c754                USART_ReceiverWakeUpCmd
 .text.USART_WakeUpConfig
                0x0801c794       0x38 ./STM32F4xx_StdPeriph_Driver/src/stm32f4xx_usart.o
                0x0801c794                USART_WakeUpConfig
 .text.USART_LINBreakDetectLengthConfig
                0x0801c7cc       0x38 ./STM32F4xx_StdPeriph_Driver/src/stm32f4xx_usart.o
                0x0801c7cc                USART_LINBreakDetectLengthConfig
 .text.USART_LINCmd
                0x0801c804       0x40 ./STM32F4xx_StdPeriph_Driver/src/stm32f4xx_usart.o
                0x0801c804                USART_LINCmd
 .text.USART_SendBreak
                0x0801c844       0x24 ./STM32F4xx_StdPeriph_Driver/src/stm32f4xx_usart.o
                0x0801c844                USART_SendBreak
 .text.USART_HalfDuplexCmd
                0x0801c868       0x40 ./STM32F4xx_StdPeriph_Driver/src/stm32f4xx_usart.o
                0x0801c868                USART_HalfDuplexCmd
 .text.USART_SetGuardTime
                0x0801c8a8       0x3c ./STM32F4xx_StdPeriph_Driver/src/stm32f4xx_usart.o
                0x0801c8a8                USART_SetGuardTime
 .text.USART_SmartCardCmd
                0x0801c8e4       0x40 ./STM32F4xx_StdPeriph_Driver/src/stm32f4xx_usart.o
                0x0801c8e4                USART_SmartCardCmd
 .text.USART_SmartCardNACKCmd
                0x0801c924       0x40 ./STM32F4xx_StdPeriph_Driver/src/stm32f4xx_usart.o
                0x0801c924                USART_SmartCardNACKCmd
 .text.USART_IrDAConfig
                0x0801c964       0x38 ./STM32F4xx_StdPeriph_Driver/src/stm32f4xx_usart.o
                0x0801c964                USART_IrDAConfig
 .text.USART_IrDACmd
                0x0801c99c       0x40 ./STM32F4xx_StdPeriph_Driver/src/stm32f4xx_usart.o
                0x0801c99c                USART_IrDACmd
 .text.USART_DMACmd
                0x0801c9dc       0x48 ./STM32F4xx_StdPeriph_Driver/src/stm32f4xx_usart.o
                0x0801c9dc                USART_DMACmd
 .text.USART_ITConfig
                0x0801ca24       0xa4 ./STM32F4xx_StdPeriph_Driver/src/stm32f4xx_usart.o
                0x0801ca24                USART_ITConfig
 .text.USART_GetFlagStatus
                0x0801cac8       0x40 ./STM32F4xx_StdPeriph_Driver/src/stm32f4xx_usart.o
                0x0801cac8                USART_GetFlagStatus
 .text.USART_ClearFlag
                0x0801cb08       0x24 ./STM32F4xx_StdPeriph_Driver/src/stm32f4xx_usart.o
                0x0801cb08                USART_ClearFlag
 .text.USART_GetITStatus
                0x0801cb2c       0xc4 ./STM32F4xx_StdPeriph_Driver/src/stm32f4xx_usart.o
                0x0801cb2c                USART_GetITStatus
 .text.USART_ClearITPendingBit
                0x0801cbf0       0x44 ./STM32F4xx_StdPeriph_Driver/src/stm32f4xx_usart.o
                0x0801cbf0                USART_ClearITPendingBit
 .text.WWDG_DeInit
                0x0801cc34       0x20 ./STM32F4xx_StdPeriph_Driver/src/stm32f4xx_wwdg.o
                0x0801cc34                WWDG_DeInit
 .text.WWDG_SetPrescaler
                0x0801cc54       0x3c ./STM32F4xx_StdPeriph_Driver/src/stm32f4xx_wwdg.o
                0x0801cc54                WWDG_SetPrescaler
 .text.WWDG_SetWindowValue
                0x0801cc90       0x44 ./STM32F4xx_StdPeriph_Driver/src/stm32f4xx_wwdg.o
                0x0801cc90                WWDG_SetWindowValue
 .text.WWDG_EnableIT
                0x0801ccd4       0x18 ./STM32F4xx_StdPeriph_Driver/src/stm32f4xx_wwdg.o
                0x0801ccd4                WWDG_EnableIT
 .text.WWDG_SetCounter
                0x0801ccec       0x24 ./STM32F4xx_StdPeriph_Driver/src/stm32f4xx_wwdg.o
                0x0801ccec                WWDG_SetCounter
 .text.WWDG_Enable
                0x0801cd10       0x28 ./STM32F4xx_StdPeriph_Driver/src/stm32f4xx_wwdg.o
                0x0801cd10                WWDG_Enable
 .text.WWDG_GetFlagStatus
                0x0801cd38       0x38 ./STM32F4xx_StdPeriph_Driver/src/stm32f4xx_wwdg.o
                0x0801cd38                WWDG_GetFlagStatus
 .text.WWDG_ClearFlag
                0x0801cd70       0x18 ./STM32F4xx_StdPeriph_Driver/src/stm32f4xx_wwdg.o
                0x0801cd70                WWDG_ClearFlag
 .text.STM_EVAL_LEDInit
                0x0801cd88       0x6c ./STM32F4-Discovery/stm32f4_discovery.o
                0x0801cd88                STM_EVAL_LEDInit
 .text.STM_EVAL_LEDOn
                0x0801cdf4       0x34 ./STM32F4-Discovery/stm32f4_discovery.o
                0x0801cdf4                STM_EVAL_LEDOn
 .text.STM_EVAL_LEDOff
                0x0801ce28       0x34 ./STM32F4-Discovery/stm32f4_discovery.o
                0x0801ce28                STM_EVAL_LEDOff
 .text.STM_EVAL_LEDToggle
                0x0801ce5c       0x48 ./STM32F4-Discovery/stm32f4_discovery.o
                0x0801ce5c                STM_EVAL_LEDToggle
 .text.STM_EVAL_PBInit
                0x0801cea4       0xec ./STM32F4-Discovery/stm32f4_discovery.o
                0x0801cea4                STM_EVAL_PBInit
 .text.STM_EVAL_PBGetState
                0x0801cf90       0x3c ./STM32F4-Discovery/stm32f4_discovery.o
                0x0801cf90                STM_EVAL_PBGetState
 .text.EVAL_AUDIO_SetAudioInterface
                0x0801cfcc      0x170 ./STM32F4-Discovery/stm32f4_discovery_audio_codec.o
                0x0801cfcc                EVAL_AUDIO_SetAudioInterface
 .text.EVAL_AUDIO_Init
                0x0801d13c       0x68 ./STM32F4-Discovery/stm32f4_discovery_audio_codec.o
                0x0801d13c                EVAL_AUDIO_Init
 .text.EVAL_AUDIO_DeInit
                0x0801d1a4       0x14 ./STM32F4-Discovery/stm32f4_discovery_audio_codec.o
                0x0801d1a4                EVAL_AUDIO_DeInit
 .text.EVAL_AUDIO_Play
                0x0801d1b8       0x98 ./STM32F4-Discovery/stm32f4_discovery_audio_codec.o
                0x0801d1b8                EVAL_AUDIO_Play
 .text.EVAL_AUDIO_PauseResume
                0x0801d250       0x34 ./STM32F4-Discovery/stm32f4_discovery_audio_codec.o
                0x0801d250                EVAL_AUDIO_PauseResume
 .text.EVAL_AUDIO_Stop
                0x0801d284       0x40 ./STM32F4-Discovery/stm32f4_discovery_audio_codec.o
                0x0801d284                EVAL_AUDIO_Stop
 .text.EVAL_AUDIO_VolumeCtl
                0x0801d2c4       0x4c ./STM32F4-Discovery/stm32f4_discovery_audio_codec.o
                0x0801d2c4                EVAL_AUDIO_VolumeCtl
 .text.EVAL_AUDIO_Mute
                0x0801d310       0x1c ./STM32F4-Discovery/stm32f4_discovery_audio_codec.o
                0x0801d310                EVAL_AUDIO_Mute
 .text.Audio_MAL_IRQHandler
                0x0801d32c      0x180 ./STM32F4-Discovery/stm32f4_discovery_audio_codec.o
 .text.DMA1_Stream7_IRQHandler
                0x0801d4ac        0xc ./STM32F4-Discovery/stm32f4_discovery_audio_codec.o
                0x0801d4ac                DMA1_Stream7_IRQHandler
 .text.DMA1_Stream0_IRQHandler
                0x0801d4b8        0xc ./STM32F4-Discovery/stm32f4_discovery_audio_codec.o
                0x0801d4b8                DMA1_Stream0_IRQHandler
 .text.SPI3_IRQHandler
                0x0801d4c4       0x50 ./STM32F4-Discovery/stm32f4_discovery_audio_codec.o
                0x0801d4c4                SPI3_IRQHandler
 .text.Codec_Init
                0x0801d514      0x1a8 ./STM32F4-Discovery/stm32f4_discovery_audio_codec.o
 .text.Codec_DeInit
                0x0801d6bc       0x3c ./STM32F4-Discovery/stm32f4_discovery_audio_codec.o
 .text.Codec_Play
                0x0801d6f8       0x10 ./STM32F4-Discovery/stm32f4_discovery_audio_codec.o
 .text.Codec_PauseResume
                0x0801d708       0x88 ./STM32F4-Discovery/stm32f4_discovery_audio_codec.o
 .text.Codec_Stop
                0x0801d790       0x70 ./STM32F4-Discovery/stm32f4_discovery_audio_codec.o
 .text.Codec_VolumeCtrl
                0x0801d800       0x8c ./STM32F4-Discovery/stm32f4_discovery_audio_codec.o
 .text.Codec_Mute
                0x0801d88c       0x54 ./STM32F4-Discovery/stm32f4_discovery_audio_codec.o
 .text.Codec_Reset
                0x0801d8e0       0x38 ./STM32F4-Discovery/stm32f4_discovery_audio_codec.o
 .text.Codec_WriteRegister
                0x0801d918      0x23c ./STM32F4-Discovery/stm32f4_discovery_audio_codec.o
 .text.Codec_ReadRegister
                0x0801db54      0x388 ./STM32F4-Discovery/stm32f4_discovery_audio_codec.o
 .text.Codec_CtrlInterface_Init
                0x0801dedc       0x70 ./STM32F4-Discovery/stm32f4_discovery_audio_codec.o
 .text.Codec_CtrlInterface_DeInit
                0x0801df4c        0xc ./STM32F4-Discovery/stm32f4_discovery_audio_codec.o
 .text.Codec_AudioInterface_Init
                0x0801df58       0xa4 ./STM32F4-Discovery/stm32f4_discovery_audio_codec.o
 .text.Codec_AudioInterface_DeInit
                0x0801dffc       0x30 ./STM32F4-Discovery/stm32f4_discovery_audio_codec.o
 .text.Codec_GPIO_Init
                0x0801e02c      0x1ac ./STM32F4-Discovery/stm32f4_discovery_audio_codec.o
 .text.Codec_GPIO_DeInit
                0x0801e1d8       0xb8 ./STM32F4-Discovery/stm32f4_discovery_audio_codec.o
 .text.Delay    0x0801e290       0x24 ./STM32F4-Discovery/stm32f4_discovery_audio_codec.o
 .text.Audio_MAL_Init
                0x0801e2b4      0x1ec ./STM32F4-Discovery/stm32f4_discovery_audio_codec.o
 .text.Audio_MAL_DeInit
                0x0801e4a0       0x5c ./STM32F4-Discovery/stm32f4_discovery_audio_codec.o
 .text.Audio_MAL_Play
                0x0801e4fc       0xd4 ./STM32F4-Discovery/stm32f4_discovery_audio_codec.o
                0x0801e4fc                Audio_MAL_Play
 .text.Audio_MAL_PauseResume
                0x0801e5d0       0x90 ./STM32F4-Discovery/stm32f4_discovery_audio_codec.o
 .text.Audio_MAL_Stop
                0x0801e660       0x6c ./STM32F4-Discovery/stm32f4_discovery_audio_codec.o
 .text.DAC_Config
                0x0801e6cc       0x78 ./STM32F4-Discovery/stm32f4_discovery_audio_codec.o
                0x0801e6cc                DAC_Config
 .text.LIS302DL_Init
                0x0801e744       0x54 ./STM32F4-Discovery/stm32f4_discovery_lis302dl.o
                0x0801e744                LIS302DL_Init
 .text.LIS302DL_FilterConfig
                0x0801e798       0x60 ./STM32F4-Discovery/stm32f4_discovery_lis302dl.o
                0x0801e798                LIS302DL_FilterConfig
 .text.LIS302DL_InterruptConfig
                0x0801e7f8       0x50 ./STM32F4-Discovery/stm32f4_discovery_lis302dl.o
                0x0801e7f8                LIS302DL_InterruptConfig
 .text.LIS302DL_LowpowerCmd
                0x0801e848       0x4c ./STM32F4-Discovery/stm32f4_discovery_lis302dl.o
                0x0801e848                LIS302DL_LowpowerCmd
 .text.LIS302DL_DataRateCmd
                0x0801e894       0x4c ./STM32F4-Discovery/stm32f4_discovery_lis302dl.o
                0x0801e894                LIS302DL_DataRateCmd
 .text.LIS302DL_FullScaleCmd
                0x0801e8e0       0x4c ./STM32F4-Discovery/stm32f4_discovery_lis302dl.o
                0x0801e8e0                LIS302DL_FullScaleCmd
 .text.LIS302DL_RebootCmd
                0x0801e92c       0x3c ./STM32F4-Discovery/stm32f4_discovery_lis302dl.o
                0x0801e92c                LIS302DL_RebootCmd
 .text.LIS302DL_Write
                0x0801e968       0x70 ./STM32F4-Discovery/stm32f4_discovery_lis302dl.o
                0x0801e968                LIS302DL_Write
 .text.LIS302DL_Read
                0x0801e9d8       0x80 ./STM32F4-Discovery/stm32f4_discovery_lis302dl.o
                0x0801e9d8                LIS302DL_Read
 .text.LIS302DL_ReadACC
                0x0801ea58       0xd8 ./STM32F4-Discovery/stm32f4_discovery_lis302dl.o
                0x0801ea58                LIS302DL_ReadACC
 .text.LIS302DL_LowLevel_Init
                0x0801eb30      0x1cc ./STM32F4-Discovery/stm32f4_discovery_lis302dl.o
 .text.LIS302DL_SendByte
                0x0801ecfc       0xe4 ./STM32F4-Discovery/stm32f4_discovery_lis302dl.o
 .text._ZNK5CTask7IsValidEv
                0x0801ede0       0x24 ./Menue/CMenue.o
                0x0801ede0                CTask::IsValid() const
 .text._ZN5CTask6DetachEv
                0x0801ee04       0x24 ./Menue/CMenue.o
                0x0801ee04                CTask::Detach()
 .text._ZN12AManagedTask8OnCreateEPKctm
                0x0801ee28       0x20 ./Menue/CMenue.o
                0x0801ee28                AManagedTask::OnCreate(char const*, unsigned short, unsigned long)
 .text._ZN6CMenueC2EP11CGraphicLCD
                0x0801ee48       0x30 ./Menue/CMenue.o
                0x0801ee48                CMenue::CMenue(CGraphicLCD*)
                0x0801ee48                CMenue::CMenue(CGraphicLCD*)
 .text._ZN6CMenueD2Ev
                0x0801ee78       0x38 ./Menue/CMenue.o
                0x0801ee78                CMenue::~CMenue()
                0x0801ee78                CMenue::~CMenue()
 .text._ZN6CMenueD0Ev
                0x0801eeb0       0x20 ./Menue/CMenue.o
                0x0801eeb0                CMenue::~CMenue()
 .text._ZN6CMenue12HardwareInitEv
                0x0801eed0       0x18 ./Menue/CMenue.o
                0x0801eed0                CMenue::HardwareInit()
 .text._ZN6CMenue3RunEv
                0x0801eee8      0x108 ./Menue/CMenue.o
                0x0801eee8                CMenue::Run()
 .text._ZN11CGraphicLCDC2Ev
                0x0801eff0       0x28 ./GraphicLCD/CGraphicLCD.o
                0x0801eff0                CGraphicLCD::CGraphicLCD()
                0x0801eff0                CGraphicLCD::CGraphicLCD()
 .text._ZN11CGraphicLCDC2Eb
                0x0801f018       0x2c ./GraphicLCD/CGraphicLCD.o
                0x0801f018                CGraphicLCD::CGraphicLCD(bool)
                0x0801f018                CGraphicLCD::CGraphicLCD(bool)
 .text._ZN11CGraphicLCDD2Ev
                0x0801f044       0x34 ./GraphicLCD/CGraphicLCD.o
                0x0801f044                CGraphicLCD::~CGraphicLCD()
                0x0801f044                CGraphicLCD::~CGraphicLCD()
 .text._ZN11CGraphicLCDD0Ev
                0x0801f078       0x20 ./GraphicLCD/CGraphicLCD.o
                0x0801f078                CGraphicLCD::~CGraphicLCD()
 .text._ZN11CGraphicLCD7InverseEv
                0x0801f098       0x18 ./GraphicLCD/CGraphicLCD.o
                0x0801f098                CGraphicLCD::Inverse()
 .text._ZN11CGraphicLCD7InverseEb
                0x0801f0b0       0x1c ./GraphicLCD/CGraphicLCD.o
                0x0801f0b0                CGraphicLCD::Inverse(bool)
 .text._ZN13CT6963CDriverC2Ev
                0x0801f0cc       0x28 ./GraphicLCD/CT6963CDriver.o
                0x0801f0cc                CT6963CDriver::CT6963CDriver()
                0x0801f0cc                CT6963CDriver::CT6963CDriver()
 .text._ZN13CT6963CDriverD2Ev
                0x0801f0f4       0x38 ./GraphicLCD/CT6963CDriver.o
                0x0801f0f4                CT6963CDriver::~CT6963CDriver()
                0x0801f0f4                CT6963CDriver::~CT6963CDriver()
 .text._ZN13CT6963CDriverD0Ev
                0x0801f12c       0x20 ./GraphicLCD/CT6963CDriver.o
                0x0801f12c                CT6963CDriver::~CT6963CDriver()
 .text._ZN13CT6963CDriver4InitEv
                0x0801f14c      0x160 ./GraphicLCD/CT6963CDriver.o
                0x0801f14c                CT6963CDriver::Init()
 .text._ZN13CT6963CDriver17SetAddressPointerEj
                0x0801f2ac       0x5c ./GraphicLCD/CT6963CDriver.o
                0x0801f2ac                CT6963CDriver::SetAddressPointer(unsigned int)
 .text._ZN13CT6963CDriver8TextGoToEhh
                0x0801f308       0x34 ./GraphicLCD/CT6963CDriver.o
                0x0801f308                CT6963CDriver::TextGoTo(unsigned char, unsigned char)
 .text._ZN13CT6963CDriver11GraphicGoToEhh
                0x0801f33c       0x40 ./GraphicLCD/CT6963CDriver.o
                0x0801f33c                CT6963CDriver::GraphicGoTo(unsigned char, unsigned char)
 .text._ZN13CT6963CDriver5ClearEv
                0x0801f37c       0x80 ./GraphicLCD/CT6963CDriver.o
                0x0801f37c                CT6963CDriver::Clear()
 .text._ZN13CT6963CDriver16WriteDisplayDataEh
                0x0801f3fc       0x38 ./GraphicLCD/CT6963CDriver.o
                0x0801f3fc                CT6963CDriver::WriteDisplayData(unsigned char)
 .text._ZN13CT6963CDriver9WriteCharEc
                0x0801f434       0x24 ./GraphicLCD/CT6963CDriver.o
                0x0801f434                CT6963CDriver::WriteChar(char)
 .text._ZN13CT6963CDriver11WriteStringEPc5tFontjj
                0x0801f458       0x20 ./GraphicLCD/CT6963CDriver.o
                0x0801f458                CT6963CDriver::WriteString(char*, tFont, unsigned int, unsigned int)
 .text._ZN13CT6963CDriver8SetPixelEhh
                0x0801f478       0x90 ./GraphicLCD/CT6963CDriver.o
                0x0801f478                CT6963CDriver::SetPixel(unsigned char, unsigned char)
 .text._ZN13CT6963CDriver4LineEjjjj
                0x0801f508      0x150 ./GraphicLCD/CT6963CDriver.o
                0x0801f508                CT6963CDriver::Line(unsigned int, unsigned int, unsigned int, unsigned int)
 .text._ZN13CT6963CDriver6WindowEjjjj
                0x0801f658      0x3b4 ./GraphicLCD/CT6963CDriver.o
                0x0801f658                CT6963CDriver::Window(unsigned int, unsigned int, unsigned int, unsigned int)
 .text._ZN13CT6963CDriver9RectangleEjjjjb
                0x0801fa0c      0x144 ./GraphicLCD/CT6963CDriver.o
                0x0801fa0c                CT6963CDriver::Rectangle(unsigned int, unsigned int, unsigned int, unsigned int, bool)
 .text._ZN13CT6963CDriver11SectorClearEjjjj
                0x0801fb50       0x60 ./GraphicLCD/CT6963CDriver.o
                0x0801fb50                CT6963CDriver::SectorClear(unsigned int, unsigned int, unsigned int, unsigned int)
 .text._ZN13CT6963CDriver6CircleEhhh
                0x0801fbb0      0x184 ./GraphicLCD/CT6963CDriver.o
                0x0801fbb0                CT6963CDriver::Circle(unsigned char, unsigned char, unsigned char)
 .text._ZN13CT6963CDriver6BitmapEPhhhhh
                0x0801fd34       0xd4 ./GraphicLCD/CT6963CDriver.o
                0x0801fd34                CT6963CDriver::Bitmap(unsigned char*, unsigned char, unsigned char, unsigned char, unsigned char)
 .text._ZN21CT6963_GPIO_InterfaceC2Ev
                0x0801fe08       0x28 ./GraphicLCD/CT6963GPIOInterface.o
                0x0801fe08                CT6963_GPIO_Interface::CT6963_GPIO_Interface()
                0x0801fe08                CT6963_GPIO_Interface::CT6963_GPIO_Interface()
 .text._ZN21CT6963_GPIO_InterfaceD2Ev
                0x0801fe30       0x38 ./GraphicLCD/CT6963GPIOInterface.o
                0x0801fe30                CT6963_GPIO_Interface::~CT6963_GPIO_Interface()
                0x0801fe30                CT6963_GPIO_Interface::~CT6963_GPIO_Interface()
 .text._ZN21CT6963_GPIO_InterfaceD0Ev
                0x0801fe68       0x20 ./GraphicLCD/CT6963GPIOInterface.o
                0x0801fe68                CT6963_GPIO_Interface::~CT6963_GPIO_Interface()
 .text._Z11CheckStatusv
                0x0801fe88       0xbc ./GraphicLCD/CT6963GPIOInterface.o
                0x0801fe88                CheckStatus()
 .text._ZN21CT6963_GPIO_Interface12HardwareInitEv
                0x0801ff44       0xb8 ./GraphicLCD/CT6963GPIOInterface.o
                0x0801ff44                CT6963_GPIO_Interface::HardwareInit()
 .text._ZN21CT6963_GPIO_Interface5ResetEv
                0x0801fffc       0x38 ./GraphicLCD/CT6963GPIOInterface.o
                0x0801fffc                CT6963_GPIO_Interface::Reset()
 .text._ZN21CT6963_GPIO_Interface12WriteCommandEh
                0x08020034       0xac ./GraphicLCD/CT6963GPIOInterface.o
                0x08020034                CT6963_GPIO_Interface::WriteCommand(unsigned char)
 .text._ZN21CT6963_GPIO_Interface9WriteDataEh
                0x080200e0       0xcc ./GraphicLCD/CT6963GPIOInterface.o
                0x080200e0                CT6963_GPIO_Interface::WriteData(unsigned char)
 .text._ZN21CT6963_GPIO_Interface8ReadDataEv
                0x080201ac       0xd4 ./GraphicLCD/CT6963GPIOInterface.o
                0x080201ac                CT6963_GPIO_Interface::ReadData()
 .text._ZN5CTask13EnterCriticalEv
                0x08020280        0xc ./FreeRTOS_EC/Source/AManagedTask.o
                0x08020280                CTask::EnterCritical()
 .text._ZN5CTask12ExitCriticalEv
                0x0802028c        0xc ./FreeRTOS_EC/Source/AManagedTask.o
                0x0802028c                CTask::ExitCritical()
 .text._ZN12AManagedTask12HardwareInitEv
                0x08020298       0x18 ./FreeRTOS_EC/Source/AManagedTask.o
                0x08020298                AManagedTask::HardwareInit()
 .text._ZN9CFreeRTOS15SuspendAllTasksEv
                0x080202b0        0xc ./FreeRTOS_EC/Source/AManagedTask.o
                0x080202b0                CFreeRTOS::SuspendAllTasks()
 .text._ZN9CFreeRTOS14ResumeAllTasksEv
                0x080202bc       0x10 ./FreeRTOS_EC/Source/AManagedTask.o
                0x080202bc                CFreeRTOS::ResumeAllTasks()
 .text._ZN12AManagedTaskC2Ev
                0x080202cc       0x38 ./FreeRTOS_EC/Source/AManagedTask.o
                0x080202cc                AManagedTask::AManagedTask()
                0x080202cc                AManagedTask::AManagedTask()
 .text._ZN12AManagedTaskD2Ev
                0x08020304       0x40 ./FreeRTOS_EC/Source/AManagedTask.o
                0x08020304                AManagedTask::~AManagedTask()
                0x08020304                AManagedTask::~AManagedTask()
 .text._ZN12AManagedTaskD0Ev
                0x08020344       0x20 ./FreeRTOS_EC/Source/AManagedTask.o
                0x08020344                AManagedTask::~AManagedTask()
 .text._ZN12AManagedTask6CreateEPKctm
                0x08020364       0x64 ./FreeRTOS_EC/Source/AManagedTask.o
                0x08020364                AManagedTask::Create(char const*, unsigned short, unsigned long)
 .text._ZN12AManagedTask15taskControlFuncEPv
                0x080203c8       0x20 ./FreeRTOS_EC/Source/AManagedTask.o
                0x080203c8                AManagedTask::taskControlFunc(void*)
 .text._ZN12AManagedTask16AddToManagedTaskEPS_
                0x080203e8       0x50 ./FreeRTOS_EC/Source/AManagedTask.o
                0x080203e8                AManagedTask::AddToManagedTask(AManagedTask*)
 .text._ZN12AManagedTask21RemoveFromManagedTaskEPS_
                0x08020438       0x88 ./FreeRTOS_EC/Source/AManagedTask.o
                0x08020438                AManagedTask::RemoveFromManagedTask(AManagedTask*)
 .text._ZN12AManagedTask27InitHardwareForManagedTasksEv
                0x080204c0       0x5c ./FreeRTOS_EC/Source/AManagedTask.o
                0x080204c0                AManagedTask::InitHardwareForManagedTasks()
 .text._ZNK11ASyncObject7IsValidEv
                0x0802051c       0x24 ./FreeRTOS_EC/Source/ASyncObject.o
                0x0802051c                ASyncObject::IsValid() const
 .text._ZN11ASyncObject6DetachEv
                0x08020540       0x24 ./FreeRTOS_EC/Source/ASyncObject.o
                0x08020540                ASyncObject::Detach()
 .text._ZN12IFreeRTOSObjC2Ev
                0x08020564       0x20 ./FreeRTOS_EC/Source/ASyncObject.o
                0x08020564                IFreeRTOSObj::IFreeRTOSObj()
                0x08020564                IFreeRTOSObj::IFreeRTOSObj()
 .text._ZN11ASyncObjectC2Ev
                0x08020584       0x30 ./FreeRTOS_EC/Source/ASyncObject.o
                0x08020584                ASyncObject::ASyncObject()
                0x08020584                ASyncObject::ASyncObject()
 .text._ZN11ASyncObjectD2Ev
                0x080205b4       0x44 ./FreeRTOS_EC/Source/ASyncObject.o
                0x080205b4                ASyncObject::~ASyncObject()
                0x080205b4                ASyncObject::~ASyncObject()
 .text._ZN11ASyncObjectD0Ev
                0x080205f8       0x20 ./FreeRTOS_EC/Source/ASyncObject.o
                0x080205f8                ASyncObject::~ASyncObject()
 .text._ZN11ASyncObject6DeleteEv
                0x08020618       0x2c ./FreeRTOS_EC/Source/ASyncObject.o
                0x08020618                ASyncObject::Delete()
 .text._ZN11ASyncObject6AttachEPv
                0x08020644       0x54 ./FreeRTOS_EC/Source/ASyncObject.o
                0x08020644                ASyncObject::Attach(void*)
 .text._ZN16CBinarySemaphore4TakeEm
                0x08020698       0x5c ./FreeRTOS_EC/Source/CBinarySemaphore.o
                0x08020698                CBinarySemaphore::Take(unsigned long)
 .text._ZN16CBinarySemaphore4GiveEv
                0x080206f4       0x5c ./FreeRTOS_EC/Source/CBinarySemaphore.o
                0x080206f4                CBinarySemaphore::Give()
 .text._ZN16CBinarySemaphoreC2Ev
                0x08020750       0x28 ./FreeRTOS_EC/Source/CBinarySemaphore.o
                0x08020750                CBinarySemaphore::CBinarySemaphore()
                0x08020750                CBinarySemaphore::CBinarySemaphore()
 .text._ZN16CBinarySemaphoreD2Ev
                0x08020778       0x38 ./FreeRTOS_EC/Source/CBinarySemaphore.o
                0x08020778                CBinarySemaphore::~CBinarySemaphore()
                0x08020778                CBinarySemaphore::~CBinarySemaphore()
 .text._ZN16CBinarySemaphoreD0Ev
                0x080207b0       0x20 ./FreeRTOS_EC/Source/CBinarySemaphore.o
                0x080207b0                CBinarySemaphore::~CBinarySemaphore()
 .text._ZN16CBinarySemaphoreC2EPv
                0x080207d0       0x34 ./FreeRTOS_EC/Source/CBinarySemaphore.o
                0x080207d0                CBinarySemaphore::CBinarySemaphore(void*)
                0x080207d0                CBinarySemaphore::CBinarySemaphore(void*)
 .text._ZN16CBinarySemaphore6CreateEv
                0x08020804       0x60 ./FreeRTOS_EC/Source/CBinarySemaphore.o
                0x08020804                CBinarySemaphore::Create()
 .text._ZN18CCountingSemaphore4TakeEm
                0x08020864       0x5c ./FreeRTOS_EC/Source/CCountingSemaphore.o
                0x08020864                CCountingSemaphore::Take(unsigned long)
 .text._ZN18CCountingSemaphore4GiveEv
                0x080208c0       0x5c ./FreeRTOS_EC/Source/CCountingSemaphore.o
                0x080208c0                CCountingSemaphore::Give()
 .text._ZN18CCountingSemaphoreC2Ev
                0x0802091c       0x28 ./FreeRTOS_EC/Source/CCountingSemaphore.o
                0x0802091c                CCountingSemaphore::CCountingSemaphore()
                0x0802091c                CCountingSemaphore::CCountingSemaphore()
 .text._ZN18CCountingSemaphoreD2Ev
                0x08020944       0x38 ./FreeRTOS_EC/Source/CCountingSemaphore.o
                0x08020944                CCountingSemaphore::~CCountingSemaphore()
                0x08020944                CCountingSemaphore::~CCountingSemaphore()
 .text._ZN18CCountingSemaphoreD0Ev
                0x0802097c       0x20 ./FreeRTOS_EC/Source/CCountingSemaphore.o
                0x0802097c                CCountingSemaphore::~CCountingSemaphore()
 .text._ZN18CCountingSemaphoreC2EPv
                0x0802099c       0x34 ./FreeRTOS_EC/Source/CCountingSemaphore.o
                0x0802099c                CCountingSemaphore::CCountingSemaphore(void*)
                0x0802099c                CCountingSemaphore::CCountingSemaphore(void*)
 .text._ZN18CCountingSemaphore6CreateEmm
                0x080209d0       0x24 ./FreeRTOS_EC/Source/CCountingSemaphore.o
                0x080209d0                CCountingSemaphore::Create(unsigned long, unsigned long)
 .text._ZN9CFreeRTOSC2Ev
                0x080209f4       0x18 ./FreeRTOS_EC/Source/CFreeRTOS.o
                0x080209f4                CFreeRTOS::CFreeRTOS()
                0x080209f4                CFreeRTOS::CFreeRTOS()
 .text._ZN9CFreeRTOSD2Ev
                0x08020a0c       0x18 ./FreeRTOS_EC/Source/CFreeRTOS.o
                0x08020a0c                CFreeRTOS::~CFreeRTOS()
                0x08020a0c                CFreeRTOS::~CFreeRTOS()
 .text._ZN9CFreeRTOS27InitHardwareForManagedTasksEv
                0x08020a24       0x10 ./FreeRTOS_EC/Source/CFreeRTOS.o
                0x08020a24                CFreeRTOS::InitHardwareForManagedTasks()
 .text._ZN6CQueue4SendEPKvm
                0x08020a34       0x2c ./FreeRTOS_EC/Source/CMessageTask.o
                0x08020a34                CQueue::Send(void const*, unsigned long)
 .text._ZN6CQueue11SendFromISREPKvPl
                0x08020a60       0x2c ./FreeRTOS_EC/Source/CMessageTask.o
                0x08020a60                CQueue::SendFromISR(void const*, long*)
 .text._ZN6CQueue11SendToFrontEPKvm
                0x08020a8c       0x5c ./FreeRTOS_EC/Source/CMessageTask.o
                0x08020a8c                CQueue::SendToFront(void const*, unsigned long)
 .text._ZN6CQueue7ReceiveEPvm
                0x08020ae8       0x5c ./FreeRTOS_EC/Source/CMessageTask.o
                0x08020ae8                CQueue::Receive(void*, unsigned long)
 .text._ZN6CQueue18SendToFrontFromISREPKvPl
                0x08020b44       0x5c ./FreeRTOS_EC/Source/CMessageTask.o
                0x08020b44                CQueue::SendToFrontFromISR(void const*, long*)
 .text._ZN12CMessageTask6OnInitEv
                0x08020ba0       0x18 ./FreeRTOS_EC/Source/CMessageTask.o
                0x08020ba0                CMessageTask::OnInit()
 .text._ZN12CMessageTask9OnTimeOutEv
                0x08020bb8       0x14 ./FreeRTOS_EC/Source/CMessageTask.o
                0x08020bb8                CMessageTask::OnTimeOut()
 .text._ZN12CMessageTaskC2Ev
                0x08020bcc       0x44 ./FreeRTOS_EC/Source/CMessageTask.o
                0x08020bcc                CMessageTask::CMessageTask()
                0x08020bcc                CMessageTask::CMessageTask()
 .text._ZN12CMessageTaskD2Ev
                0x08020c10       0x44 ./FreeRTOS_EC/Source/CMessageTask.o
                0x08020c10                CMessageTask::~CMessageTask()
                0x08020c10                CMessageTask::~CMessageTask()
 .text._ZN12CMessageTaskD0Ev
                0x08020c54       0x20 ./FreeRTOS_EC/Source/CMessageTask.o
                0x08020c54                CMessageTask::~CMessageTask()
 .text._ZN12CMessageTask8OnCreateEPKctm
                0x08020c74       0x40 ./FreeRTOS_EC/Source/CMessageTask.o
                0x08020c74                CMessageTask::OnCreate(char const*, unsigned short, unsigned long)
 .text._ZN12CMessageTask3RunEv
                0x08020cb4       0xc4 ./FreeRTOS_EC/Source/CMessageTask.o
                0x08020cb4                CMessageTask::Run()
 .text._ZN12CMessageTask15DispatchMessageERK8CMessage
                0x08020d78      0x134 ./FreeRTOS_EC/Source/CMessageTask.o
                0x08020d78                CMessageTask::DispatchMessage(CMessage const&)
 .text._ZN12CMessageTask11PostMessageEP8CMessagem
                0x08020eac       0x34 ./FreeRTOS_EC/Source/CMessageTask.o
                0x08020eac                CMessageTask::PostMessage(CMessage*, unsigned long)
 .text._ZN12CMessageTask18PostMessageFromISREP8CMessagePl
                0x08020ee0       0x34 ./FreeRTOS_EC/Source/CMessageTask.o
                0x08020ee0                CMessageTask::PostMessageFromISR(CMessage*, long*)
 .text._ZN12CMessageTask11SendMessageEP8CMessagem
                0x08020f14       0x34 ./FreeRTOS_EC/Source/CMessageTask.o
                0x08020f14                CMessageTask::SendMessage(CMessage*, unsigned long)
 .text._ZN12CMessageTask11SenfFromISREP8CMessagePl
                0x08020f48       0x34 ./FreeRTOS_EC/Source/CMessageTask.o
                0x08020f48                CMessageTask::SenfFromISR(CMessage*, long*)
 .text._ZN6CMutex4TakeEm
                0x08020f7c       0x5c ./FreeRTOS_EC/Source/CMutex.o
                0x08020f7c                CMutex::Take(unsigned long)
 .text._ZN6CMutex4GiveEv
                0x08020fd8       0x5c ./FreeRTOS_EC/Source/CMutex.o
                0x08020fd8                CMutex::Give()
 .text._ZN6CMutexC2Ev
                0x08021034       0x28 ./FreeRTOS_EC/Source/CMutex.o
                0x08021034                CMutex::CMutex()
                0x08021034                CMutex::CMutex()
 .text._ZN6CMutexD2Ev
                0x0802105c       0x38 ./FreeRTOS_EC/Source/CMutex.o
                0x0802105c                CMutex::~CMutex()
                0x0802105c                CMutex::~CMutex()
 .text._ZN6CMutexD0Ev
                0x08021094       0x20 ./FreeRTOS_EC/Source/CMutex.o
                0x08021094                CMutex::~CMutex()
 .text._ZN6CMutexC2EPv
                0x080210b4       0x34 ./FreeRTOS_EC/Source/CMutex.o
                0x080210b4                CMutex::CMutex(void*)
                0x080210b4                CMutex::CMutex(void*)
 .text._ZN6CMutex6CreateEv
                0x080210e8       0x40 ./FreeRTOS_EC/Source/CMutex.o
                0x080210e8                CMutex::Create()
 .text._ZNK6CQueue7IsValidEv
                0x08021128       0x24 ./FreeRTOS_EC/Source/CQueue.o
                0x08021128                CQueue::IsValid() const
 .text._ZN6CQueue6DetachEv
                0x0802114c       0x24 ./FreeRTOS_EC/Source/CQueue.o
                0x0802114c                CQueue::Detach()
 .text._ZN6CQueueC2Ev
                0x08021170       0x30 ./FreeRTOS_EC/Source/CQueue.o
                0x08021170                CQueue::CQueue()
                0x08021170                CQueue::CQueue()
 .text._ZN6CQueueD2Ev
                0x080211a0       0x44 ./FreeRTOS_EC/Source/CQueue.o
                0x080211a0                CQueue::~CQueue()
                0x080211a0                CQueue::~CQueue()
 .text._ZN6CQueueD0Ev
                0x080211e4       0x20 ./FreeRTOS_EC/Source/CQueue.o
                0x080211e4                CQueue::~CQueue()
 .text._ZN6CQueueC2EPv
                0x08021204       0x30 ./FreeRTOS_EC/Source/CQueue.o
                0x08021204                CQueue::CQueue(void*)
                0x08021204                CQueue::CQueue(void*)
 .text._ZN6CQueue6CreateEmm
                0x08021234       0x6c ./FreeRTOS_EC/Source/CQueue.o
                0x08021234                CQueue::Create(unsigned long, unsigned long)
 .text._ZN6CQueue6AttachEPv
                0x080212a0       0x54 ./FreeRTOS_EC/Source/CQueue.o
                0x080212a0                CQueue::Attach(void*)
 .text._ZN6CQueue6DeleteEv
                0x080212f4       0x2c ./FreeRTOS_EC/Source/CQueue.o
                0x080212f4                CQueue::Delete()
 .text._ZN15CRecursiveMutex4TakeEm
                0x08021320       0x1c ./FreeRTOS_EC/Source/CRecursiveMutex.o
                0x08021320                CRecursiveMutex::Take(unsigned long)
 .text._ZN15CRecursiveMutex4GiveEv
                0x0802133c       0x18 ./FreeRTOS_EC/Source/CRecursiveMutex.o
                0x0802133c                CRecursiveMutex::Give()
 .text._ZN15CRecursiveMutexC2Ev
                0x08021354       0x28 ./FreeRTOS_EC/Source/CRecursiveMutex.o
                0x08021354                CRecursiveMutex::CRecursiveMutex()
                0x08021354                CRecursiveMutex::CRecursiveMutex()
 .text._ZN15CRecursiveMutexC2EPv
                0x0802137c       0x34 ./FreeRTOS_EC/Source/CRecursiveMutex.o
                0x0802137c                CRecursiveMutex::CRecursiveMutex(void*)
                0x0802137c                CRecursiveMutex::CRecursiveMutex(void*)
 .text._ZN15CRecursiveMutexD2Ev
                0x080213b0       0x38 ./FreeRTOS_EC/Source/CRecursiveMutex.o
                0x080213b0                CRecursiveMutex::~CRecursiveMutex()
                0x080213b0                CRecursiveMutex::~CRecursiveMutex()
 .text._ZN15CRecursiveMutexD0Ev
                0x080213e8       0x20 ./FreeRTOS_EC/Source/CRecursiveMutex.o
                0x080213e8                CRecursiveMutex::~CRecursiveMutex()
 .text._ZN15CRecursiveMutex6CreateEv
                0x08021408       0x20 ./FreeRTOS_EC/Source/CRecursiveMutex.o
                0x08021408                CRecursiveMutex::Create()
 .text._ZN5CTaskC2Ev
                0x08021428       0x30 ./FreeRTOS_EC/Source/CTask.o
                0x08021428                CTask::CTask()
                0x08021428                CTask::CTask()
 .text._ZN5CTaskC2EPv
                0x08021458       0x30 ./FreeRTOS_EC/Source/CTask.o
                0x08021458                CTask::CTask(void*)
                0x08021458                CTask::CTask(void*)
 .text._ZN5CTaskD2Ev
                0x08021488       0x44 ./FreeRTOS_EC/Source/CTask.o
                0x08021488                CTask::~CTask()
                0x08021488                CTask::~CTask()
 .text._ZN5CTaskD0Ev
                0x080214cc       0x20 ./FreeRTOS_EC/Source/CTask.o
                0x080214cc                CTask::~CTask()
 .text._ZN5CTask6AttachEPv
                0x080214ec       0x54 ./FreeRTOS_EC/Source/CTask.o
                0x080214ec                CTask::Attach(void*)
 .text._ZN5CTask6CreateEPFvPvEPKctS0_m
                0x08021540       0x5c ./FreeRTOS_EC/Source/CTask.o
                0x08021540                CTask::Create(void (*)(void*), char const*, unsigned short, void*, unsigned long)
 .text._ZN5CTask16CreateRestrictedEP15xTASK_PARAMTERS
                0x0802159c       0x20 ./FreeRTOS_EC/Source/CTask.o
                0x0802159c                CTask::CreateRestricted(xTASK_PARAMTERS*)
 .text._ZN5CTask6DeleteEv
                0x080215bc       0x2c ./FreeRTOS_EC/Source/CTask.o
                0x080215bc                CTask::Delete()
 .text.pxPortInitialiseStack
                0x080215e8       0x68 ./FreeRTOS/Source/portable/GCC/ARM_CM4F/port.o
                0x080215e8                pxPortInitialiseStack
 .text.SVC_Handler
                0x08021650       0x20 ./FreeRTOS/Source/portable/GCC/ARM_CM4F/port.o
                0x08021650                SVC_Handler
 .text.vPortStartFirstTask
                0x08021670       0x14 ./FreeRTOS/Source/portable/GCC/ARM_CM4F/port.o
                0x08021670                vPortStartFirstTask
 .text.xPortStartScheduler
                0x08021684       0x54 ./FreeRTOS/Source/portable/GCC/ARM_CM4F/port.o
                0x08021684                xPortStartScheduler
 .text.vPortEndScheduler
                0x080216d8        0xc ./FreeRTOS/Source/portable/GCC/ARM_CM4F/port.o
                0x080216d8                vPortEndScheduler
 .text.vPortYieldFromISR
                0x080216e4       0x18 ./FreeRTOS/Source/portable/GCC/ARM_CM4F/port.o
                0x080216e4                vPortYieldFromISR
 .text.vPortEnterCritical
                0x080216fc       0x2c ./FreeRTOS/Source/portable/GCC/ARM_CM4F/port.o
                0x080216fc                vPortEnterCritical
 .text.vPortExitCritical
                0x08021728       0x38 ./FreeRTOS/Source/portable/GCC/ARM_CM4F/port.o
                0x08021728                vPortExitCritical
 .text.PendSV_Handler
                0x08021760       0x58 ./FreeRTOS/Source/portable/GCC/ARM_CM4F/port.o
                0x08021760                PendSV_Handler
 .text.SysTick_Handler
                0x080217b8       0x38 ./FreeRTOS/Source/portable/GCC/ARM_CM4F/port.o
                0x080217b8                SysTick_Handler
 .text.prvSetupTimerInterrupt
                0x080217f0       0x40 ./FreeRTOS/Source/portable/GCC/ARM_CM4F/port.o
 .text.xCoRoutineCreate
                0x08021830       0xf4 ./FreeRTOS/Source/croutine.o
                0x08021830                xCoRoutineCreate
 .text.vCoRoutineAddToDelayedList
                0x08021924       0xb4 ./FreeRTOS/Source/croutine.o
                0x08021924                vCoRoutineAddToDelayedList
 .text.prvCheckPendingReadyList
                0x080219d8       0xa0 ./FreeRTOS/Source/croutine.o
 .text.prvCheckDelayedList
                0x08021a78      0x170 ./FreeRTOS/Source/croutine.o
 .text.vCoRoutineSchedule
                0x08021be8       0xf0 ./FreeRTOS/Source/croutine.o
                0x08021be8                vCoRoutineSchedule
 .text.prvInitialiseCoRoutineLists
                0x08021cd8       0x8c ./FreeRTOS/Source/croutine.o
 .text.xCoRoutineRemoveFromEventList
                0x08021d64       0x60 ./FreeRTOS/Source/croutine.o
                0x08021d64                xCoRoutineRemoveFromEventList
 .text.vListInitialise
                0x08021dc4       0x40 ./FreeRTOS/Source/list.o
                0x08021dc4                vListInitialise
 .text.vListInitialiseItem
                0x08021e04       0x1c ./FreeRTOS/Source/list.o
                0x08021e04                vListInitialiseItem
 .text.vListInsertEnd
                0x08021e20       0x54 ./FreeRTOS/Source/list.o
                0x08021e20                vListInsertEnd
 .text.vListInsert
                0x08021e74       0x78 ./FreeRTOS/Source/list.o
                0x08021e74                vListInsert
 .text.vListRemove
                0x08021eec       0x54 ./FreeRTOS/Source/list.o
                0x08021eec                vListRemove
 .text.xQueueCreate
                0x08021f40       0xd0 ./FreeRTOS/Source/queue.o
                0x08021f40                xQueueCreate
 .text.xQueueCreateMutex
                0x08022010       0x98 ./FreeRTOS/Source/queue.o
                0x08022010                xQueueCreateMutex
 .text.xQueueGenericSend
                0x080220a8      0x124 ./FreeRTOS/Source/queue.o
                0x080220a8                xQueueGenericSend
 .text.xQueueGenericSendFromISR
                0x080221cc       0x90 ./FreeRTOS/Source/queue.o
                0x080221cc                xQueueGenericSendFromISR
 .text.xQueueGenericReceive
                0x0802225c      0x188 ./FreeRTOS/Source/queue.o
                0x0802225c                xQueueGenericReceive
 .text.xQueueReceiveFromISR
                0x080223e4       0x94 ./FreeRTOS/Source/queue.o
                0x080223e4                xQueueReceiveFromISR
 .text.uxQueueMessagesWaiting
                0x08022478       0x24 ./FreeRTOS/Source/queue.o
                0x08022478                uxQueueMessagesWaiting
 .text.uxQueueMessagesWaitingFromISR
                0x0802249c       0x1c ./FreeRTOS/Source/queue.o
                0x0802249c                uxQueueMessagesWaitingFromISR
 .text.vQueueDelete
                0x080224b8       0x20 ./FreeRTOS/Source/queue.o
                0x080224b8                vQueueDelete
 .text.prvCopyDataToQueue
                0x080224d8       0xc8 ./FreeRTOS/Source/queue.o
 .text.prvCopyDataFromQueue
                0x080225a0       0x50 ./FreeRTOS/Source/queue.o
 .text.prvUnlockQueue
                0x080225f0       0xa0 ./FreeRTOS/Source/queue.o
 .text.prvIsQueueEmpty
                0x08022690       0x2c ./FreeRTOS/Source/queue.o
 .text.xQueueIsQueueEmptyFromISR
                0x080226bc       0x24 ./FreeRTOS/Source/queue.o
                0x080226bc                xQueueIsQueueEmptyFromISR
 .text.prvIsQueueFull
                0x080226e0       0x30 ./FreeRTOS/Source/queue.o
 .text.xQueueIsQueueFullFromISR
                0x08022710       0x2c ./FreeRTOS/Source/queue.o
                0x08022710                xQueueIsQueueFullFromISR
 .text.xTaskGenericCreate
                0x0802273c      0x1ac ./FreeRTOS/Source/tasks.o
                0x0802273c                xTaskGenericCreate
 .text.vTaskDelete
                0x080228e8       0xc0 ./FreeRTOS/Source/tasks.o
                0x080228e8                vTaskDelete
 .text.vTaskDelayUntil
                0x080229a8       0xb4 ./FreeRTOS/Source/tasks.o
                0x080229a8                vTaskDelayUntil
 .text.vTaskDelay
                0x08022a5c       0x5c ./FreeRTOS/Source/tasks.o
                0x08022a5c                vTaskDelay
 .text.uxTaskPriorityGet
                0x08022ab8       0x38 ./FreeRTOS/Source/tasks.o
                0x08022ab8                uxTaskPriorityGet
 .text.vTaskPrioritySet
                0x08022af0      0x12c ./FreeRTOS/Source/tasks.o
                0x08022af0                vTaskPrioritySet
 .text.vTaskSuspend
                0x08022c1c       0xc0 ./FreeRTOS/Source/tasks.o
                0x08022c1c                vTaskSuspend
 .text.xTaskIsTaskSuspended
                0x08022cdc       0x50 ./FreeRTOS/Source/tasks.o
                0x08022cdc                xTaskIsTaskSuspended
 .text.vTaskResume
                0x08022d2c       0xac ./FreeRTOS/Source/tasks.o
                0x08022d2c                vTaskResume
 .text.xTaskResumeFromISR
                0x08022dd8       0xc0 ./FreeRTOS/Source/tasks.o
                0x08022dd8                xTaskResumeFromISR
 .text.vTaskStartScheduler
                0x08022e98       0x7c ./FreeRTOS/Source/tasks.o
                0x08022e98                vTaskStartScheduler
 .text.vTaskEndScheduler
                0x08022f14       0x20 ./FreeRTOS/Source/tasks.o
                0x08022f14                vTaskEndScheduler
 .text.vTaskSuspendAll
                0x08022f34       0x24 ./FreeRTOS/Source/tasks.o
                0x08022f34                vTaskSuspendAll
 .text.xTaskResumeAll
                0x08022f58      0x154 ./FreeRTOS/Source/tasks.o
                0x08022f58                xTaskResumeAll
 .text.xTaskGetTickCount
                0x080230ac       0x28 ./FreeRTOS/Source/tasks.o
                0x080230ac                xTaskGetTickCount
 .text.xTaskGetTickCountFromISR
                0x080230d4       0x38 ./FreeRTOS/Source/tasks.o
                0x080230d4                xTaskGetTickCountFromISR
 .text.uxTaskGetNumberOfTasks
                0x0802310c       0x18 ./FreeRTOS/Source/tasks.o
                0x0802310c                uxTaskGetNumberOfTasks
 .text.vTaskGetRunTimeStats
                0x08023124      0x160 ./FreeRTOS/Source/tasks.o
                0x08023124                vTaskGetRunTimeStats
 .text.xTaskGetIdleTaskHandle
                0x08023284       0x18 ./FreeRTOS/Source/tasks.o
                0x08023284                xTaskGetIdleTaskHandle
 .text.vTaskIncrementTick
                0x0802329c      0x1b8 ./FreeRTOS/Source/tasks.o
                0x0802329c                vTaskIncrementTick
 .text.vTaskSetApplicationTaskTag
                0x08023454       0x38 ./FreeRTOS/Source/tasks.o
                0x08023454                vTaskSetApplicationTaskTag
 .text.xTaskGetApplicationTaskTag
                0x0802348c       0x3c ./FreeRTOS/Source/tasks.o
                0x0802348c                xTaskGetApplicationTaskTag
 .text.xTaskCallApplicationTaskHook
                0x080234c8       0x4c ./FreeRTOS/Source/tasks.o
                0x080234c8                xTaskCallApplicationTaskHook
 .text.vTaskSwitchContext
                0x08023514      0x140 ./FreeRTOS/Source/tasks.o
                0x08023514                vTaskSwitchContext
 .text.vTaskPlaceOnEventList
                0x08023654       0x78 ./FreeRTOS/Source/tasks.o
                0x08023654                vTaskPlaceOnEventList
 .text.xTaskRemoveFromEventList
                0x080236cc       0xc4 ./FreeRTOS/Source/tasks.o
                0x080236cc                xTaskRemoveFromEventList
 .text.vTaskSetTimeOutState
                0x08023790       0x30 ./FreeRTOS/Source/tasks.o
                0x08023790                vTaskSetTimeOutState
 .text.xTaskCheckForTimeOut
                0x080237c0       0xa4 ./FreeRTOS/Source/tasks.o
                0x080237c0                xTaskCheckForTimeOut
 .text.vTaskMissedYield
                0x08023864       0x18 ./FreeRTOS/Source/tasks.o
                0x08023864                vTaskMissedYield
 .text.prvIdleTask
                0x0802387c       0x24 ./FreeRTOS/Source/tasks.o
 .text.prvInitialiseTCBVariables
                0x080238a0       0x88 ./FreeRTOS/Source/tasks.o
 .text.prvInitialiseTaskLists
                0x08023928       0xa4 ./FreeRTOS/Source/tasks.o
 .text.prvCheckTasksWaitingTermination
                0x080239cc       0x98 ./FreeRTOS/Source/tasks.o
 .text.prvAddCurrentTaskToDelayedList
                0x08023a64       0x8c ./FreeRTOS/Source/tasks.o
 .text.prvAllocateTCBAndStack
                0x08023af0       0x74 ./FreeRTOS/Source/tasks.o
 .text.prvGenerateRunTimeStatsForTasksInList
                0x08023b64      0x17c ./FreeRTOS/Source/tasks.o
 .text.usTaskCheckFreeStackSpace
                0x08023ce0       0x38 ./FreeRTOS/Source/tasks.o
 .text.uxTaskGetStackHighWaterMark
                0x08023d18       0x3c ./FreeRTOS/Source/tasks.o
                0x08023d18                uxTaskGetStackHighWaterMark
 .text.prvDeleteTCB
                0x08023d54       0x20 ./FreeRTOS/Source/tasks.o
 .text.xTaskGetCurrentTaskHandle
                0x08023d74       0x20 ./FreeRTOS/Source/tasks.o
                0x08023d74                xTaskGetCurrentTaskHandle
 .text.vTaskPriorityInherit
                0x08023d94       0xd8 ./FreeRTOS/Source/tasks.o
                0x08023d94                vTaskPriorityInherit
 .text.vTaskPriorityDisinherit
                0x08023e6c       0x90 ./FreeRTOS/Source/tasks.o
                0x08023e6c                vTaskPriorityDisinherit
 .text.disk_initialize
                0x08023efc       0x80 ./Fatfs/FatFs/src/diskio.o
                0x08023efc                disk_initialize
 .text.disk_status
                0x08023f7c       0x40 ./Fatfs/FatFs/src/diskio.o
                0x08023f7c                disk_status
 .text.disk_read
                0x08023fbc       0x80 ./Fatfs/FatFs/src/diskio.o
                0x08023fbc                disk_read
 .text.disk_write
                0x0802403c       0x80 ./Fatfs/FatFs/src/diskio.o
                0x0802403c                disk_write
 .text.disk_ioctl
                0x080240bc       0x80 ./Fatfs/FatFs/src/diskio.o
                0x080240bc                disk_ioctl
 .text.mem_cpy  0x0802413c       0x50 ./Fatfs/FatFs/src/ff.o
 .text.mem_set  0x0802418c       0x44 ./Fatfs/FatFs/src/ff.o
 .text.mem_cmp  0x080241d0       0x70 ./Fatfs/FatFs/src/ff.o
 .text.chk_chr  0x08024240       0x38 ./Fatfs/FatFs/src/ff.o
 .text.move_window
                0x08024278       0xd4 ./Fatfs/FatFs/src/ff.o
 .text.sync     0x0802434c      0x180 ./Fatfs/FatFs/src/ff.o
 .text.get_fat  0x080244cc      0x1f4 ./Fatfs/FatFs/src/ff.o
 .text.put_fat  0x080246c0      0x274 ./Fatfs/FatFs/src/ff.o
 .text.remove_chain
                0x08024934       0xb0 ./Fatfs/FatFs/src/ff.o
 .text.create_chain
                0x080249e4      0x120 ./Fatfs/FatFs/src/ff.o
 .text.clust2sect
                0x08024b04       0x44 ./Fatfs/FatFs/src/ff.o
 .text.dir_seek
                0x08024b48      0x118 ./Fatfs/FatFs/src/ff.o
 .text.dir_next
                0x08024c60      0x1e4 ./Fatfs/FatFs/src/ff.o
 .text.dir_find
                0x08024e44       0xa4 ./Fatfs/FatFs/src/ff.o
 .text.dir_read
                0x08024ee8       0x9c ./Fatfs/FatFs/src/ff.o
 .text.dir_register
                0x08024f84       0xd4 ./Fatfs/FatFs/src/ff.o
 .text.dir_remove
                0x08025058       0x58 ./Fatfs/FatFs/src/ff.o
 .text.create_name
                0x080250b0      0x210 ./Fatfs/FatFs/src/ff.o
 .text.get_fileinfo
                0x080252c0      0x18c ./Fatfs/FatFs/src/ff.o
 .text.follow_path
                0x0802544c      0x11c ./Fatfs/FatFs/src/ff.o
 .text.check_fs
                0x08025568       0xbc ./Fatfs/FatFs/src/ff.o
 .text.auto_mount
                0x08025624      0x520 ./Fatfs/FatFs/src/ff.o
 .text.validate
                0x08025b44       0x54 ./Fatfs/FatFs/src/ff.o
 .text.f_mount  0x08025b98       0x64 ./Fatfs/FatFs/src/ff.o
                0x08025b98                f_mount
 .text.f_open   0x08025bfc      0x364 ./Fatfs/FatFs/src/ff.o
                0x08025bfc                f_open
 .text.f_read   0x08025f60      0x314 ./Fatfs/FatFs/src/ff.o
                0x08025f60                f_read
 .text.f_write  0x08026274      0x374 ./Fatfs/FatFs/src/ff.o
                0x08026274                f_write
 .text.f_sync   0x080265e8      0x1c0 ./Fatfs/FatFs/src/ff.o
                0x080265e8                f_sync
 .text.f_close  0x080267a8       0x2c ./Fatfs/FatFs/src/ff.o
                0x080267a8                f_close
 .text.f_chdrive
                0x080267d4       0x34 ./Fatfs/FatFs/src/ff.o
                0x080267d4                f_chdrive
 .text.f_chdir  0x08026808       0xdc ./Fatfs/FatFs/src/ff.o
                0x08026808                f_chdir
 .text.f_lseek  0x080268e4      0x30c ./Fatfs/FatFs/src/ff.o
                0x080268e4                f_lseek
 .text.f_opendir
                0x08026bf0       0xdc ./Fatfs/FatFs/src/ff.o
                0x08026bf0                f_opendir
 .text.f_readdir
                0x08026ccc       0x9c ./Fatfs/FatFs/src/ff.o
                0x08026ccc                f_readdir
 .text.f_stat   0x08026d68       0x78 ./Fatfs/FatFs/src/ff.o
                0x08026d68                f_stat
 .text.f_getfree
                0x08026de0      0x1cc ./Fatfs/FatFs/src/ff.o
                0x08026de0                f_getfree
 .text.f_truncate
                0x08026fac      0x128 ./Fatfs/FatFs/src/ff.o
                0x08026fac                f_truncate
 .text.f_unlink
                0x080270d4      0x1b8 ./Fatfs/FatFs/src/ff.o
                0x080270d4                f_unlink
 .text.f_mkdir  0x0802728c      0x394 ./Fatfs/FatFs/src/ff.o
                0x0802728c                f_mkdir
 .text.f_chmod  0x08027620       0xdc ./Fatfs/FatFs/src/ff.o
                0x08027620                f_chmod
 .text.f_utime  0x080276fc       0xec ./Fatfs/FatFs/src/ff.o
                0x080276fc                f_utime
 .text.f_rename
                0x080277e8      0x268 ./Fatfs/FatFs/src/ff.o
                0x080277e8                f_rename
 .text.f_mkfs   0x08027a50      0xb8c ./Fatfs/FatFs/src/ff.o
                0x08027a50                f_mkfs
 .text._ZN12CFileHandlerC2Ev
                0x080285dc       0x20 ./Fatfs/CFileHandler.o
                0x080285dc                CFileHandler::CFileHandler()
                0x080285dc                CFileHandler::CFileHandler()
 .text._ZN12CFileHandlerD2Ev
                0x080285fc       0x34 ./Fatfs/CFileHandler.o
                0x080285fc                CFileHandler::~CFileHandler()
                0x080285fc                CFileHandler::~CFileHandler()
 .text._ZN12CFileHandlerD0Ev
                0x08028630       0x20 ./Fatfs/CFileHandler.o
                0x08028630                CFileHandler::~CFileHandler()
 .text.get_fattime
                0x08028650       0x10 ./Fatfs/fattime.o
                0x08028650                get_fattime
 .text.SD_LowLevel_DeInit
                0x08028660       0xf4 ./Fatfs/stm32f4_sdio.o
                0x08028660                SD_LowLevel_DeInit
 .text.SD_LowLevel_Init
                0x08028754      0x12c ./Fatfs/stm32f4_sdio.o
                0x08028754                SD_LowLevel_Init
 .text.SD_LowLevel_DMA_TxConfig
                0x08028880       0xe0 ./Fatfs/stm32f4_sdio.o
                0x08028880                SD_LowLevel_DMA_TxConfig
 .text.SD_LowLevel_DMA_RxConfig
                0x08028960       0xe0 ./Fatfs/stm32f4_sdio.o
                0x08028960                SD_LowLevel_DMA_RxConfig
 .text.SD_DeInit
                0x08028a40        0xc ./Fatfs/stm32f4_sdio.o
                0x08028a40                SD_DeInit
 .text.SD_Init  0x08028a4c       0xf4 ./Fatfs/stm32f4_sdio.o
                0x08028a4c                SD_Init
 .text.SD_GetStatus
                0x08028b40       0x3c ./Fatfs/stm32f4_sdio.o
                0x08028b40                SD_GetStatus
 .text.SD_GetState
                0x08028b7c       0x4c ./Fatfs/stm32f4_sdio.o
                0x08028b7c                SD_GetState
 .text.SD_Detect
                0x08028bc8       0x38 ./Fatfs/stm32f4_sdio.o
                0x08028bc8                SD_Detect
 .text.SD_PowerON
                0x08028c00      0x38c ./Fatfs/stm32f4_sdio.o
                0x08028c00                SD_PowerON
 .text.SD_PowerOFF
                0x08028f8c       0x20 ./Fatfs/stm32f4_sdio.o
                0x08028f8c                SD_PowerOFF
 .text.SD_InitializeCards
                0x08028fac      0x274 ./Fatfs/stm32f4_sdio.o
                0x08028fac                SD_InitializeCards
 .text.SD_GetCardInfo
                0x08029220      0x6f4 ./Fatfs/stm32f4_sdio.o
                0x08029220                SD_GetCardInfo
 .text.SD_GetCardStatus
                0x08029914      0x1b0 ./Fatfs/stm32f4_sdio.o
                0x08029914                SD_GetCardStatus
 .text.SD_EnableWideBusOperation
                0x08029ac4      0x15c ./Fatfs/stm32f4_sdio.o
                0x08029ac4                SD_EnableWideBusOperation
 .text.SD_SelectDeselect
                0x08029c20       0x78 ./Fatfs/stm32f4_sdio.o
                0x08029c20                SD_SelectDeselect
 .text.SD_ReadBlock
                0x08029c98      0x1bc ./Fatfs/stm32f4_sdio.o
                0x08029c98                SD_ReadBlock
 .text.SD_ReadMultiBlocks
                0x08029e54      0x1cc ./Fatfs/stm32f4_sdio.o
                0x08029e54                SD_ReadMultiBlocks
 .text.SD_WaitReadOperation
                0x0802a020       0xe0 ./Fatfs/stm32f4_sdio.o
                0x0802a020                SD_WaitReadOperation
 .text.SD_WriteBlock
                0x0802a100      0x1bc ./Fatfs/stm32f4_sdio.o
                0x0802a100                SD_WriteBlock
 .text.SD_WriteMultiBlocks
                0x0802a2bc      0x2a4 ./Fatfs/stm32f4_sdio.o
                0x0802a2bc                SD_WriteMultiBlocks
 .text.SD_WaitWriteOperation
                0x0802a560       0xe0 ./Fatfs/stm32f4_sdio.o
                0x0802a560                SD_WaitWriteOperation
 .text.SD_GetTransferState
                0x0802a640       0x28 ./Fatfs/stm32f4_sdio.o
                0x0802a640                SD_GetTransferState
 .text.SD_StopTransfer
                0x0802a668       0x78 ./Fatfs/stm32f4_sdio.o
                0x0802a668                SD_StopTransfer
 .text.SD_Erase
                0x0802a6e0      0x260 ./Fatfs/stm32f4_sdio.o
                0x0802a6e0                SD_Erase
 .text.SD_SendStatus
                0x0802a940       0xac ./Fatfs/stm32f4_sdio.o
                0x0802a940                SD_SendStatus
 .text.SD_SendSDStatus
                0x0802a9ec      0x2f4 ./Fatfs/stm32f4_sdio.o
                0x0802a9ec                SD_SendSDStatus
 .text.SD_ProcessIRQSrc
                0x0802ace0      0x110 ./Fatfs/stm32f4_sdio.o
                0x0802ace0                SD_ProcessIRQSrc
 .text.SD_ProcessDMAIRQ
                0x0802adf0       0x38 ./Fatfs/stm32f4_sdio.o
                0x0802adf0                SD_ProcessDMAIRQ
 .text.CmdError
                0x0802ae28       0x54 ./Fatfs/stm32f4_sdio.o
 .text.CmdResp7Error
                0x0802ae7c       0x90 ./Fatfs/stm32f4_sdio.o
 .text.CmdResp1Error
                0x0802af0c      0x1e4 ./Fatfs/stm32f4_sdio.o
 .text.CmdResp3Error
                0x0802b0f0       0x60 ./Fatfs/stm32f4_sdio.o
 .text.CmdResp2Error
                0x0802b150       0x80 ./Fatfs/stm32f4_sdio.o
 .text.CmdResp6Error
                0x0802b1d0       0xf0 ./Fatfs/stm32f4_sdio.o
 .text.SDEnWideBus
                0x0802b2c0      0x250 ./Fatfs/stm32f4_sdio.o
 .text.IsCardProgramming
                0x0802b510      0x260 ./Fatfs/stm32f4_sdio.o
 .text.FindSCR  0x0802b770      0x2f8 ./Fatfs/stm32f4_sdio.o
 .text.convert_from_bytes_to_power_of_two
                0x0802ba68       0x38 ./Fatfs/stm32f4_sdio.o
                0x0802ba68                convert_from_bytes_to_power_of_two
 .text._ZN24CLedHeartBeatSTM32F4DiscC2Em
                0x0802baa0       0x38 ./CLedHeartBeatSTM32F4Disc.o
                0x0802baa0                CLedHeartBeatSTM32F4Disc::CLedHeartBeatSTM32F4Disc(unsigned long)
                0x0802baa0                CLedHeartBeatSTM32F4Disc::CLedHeartBeatSTM32F4Disc(unsigned long)
 .text._ZN24CLedHeartBeatSTM32F4DiscD2Ev
                0x0802bad8       0x38 ./CLedHeartBeatSTM32F4Disc.o
                0x0802bad8                CLedHeartBeatSTM32F4Disc::~CLedHeartBeatSTM32F4Disc()
                0x0802bad8                CLedHeartBeatSTM32F4Disc::~CLedHeartBeatSTM32F4Disc()
 .text._ZN24CLedHeartBeatSTM32F4DiscD0Ev
                0x0802bb10       0x20 ./CLedHeartBeatSTM32F4Disc.o
                0x0802bb10                CLedHeartBeatSTM32F4Disc::~CLedHeartBeatSTM32F4Disc()
 .text._ZN24CLedHeartBeatSTM32F4Disc12HardwareInitEv
                0x0802bb30       0x38 ./CLedHeartBeatSTM32F4Disc.o
                0x0802bb30                CLedHeartBeatSTM32F4Disc::HardwareInit()
 .text._ZN24CLedHeartBeatSTM32F4Disc3RunEv
                0x0802bb68       0xe8 ./CLedHeartBeatSTM32F4Disc.o
                0x0802bb68                CLedHeartBeatSTM32F4Disc::Run()
 .text._ZN9CFreeRTOS14StartSchedulerEv
                0x0802bc50        0xc ./main.o
                0x0802bc50                CFreeRTOS::StartScheduler()
 .text.main     0x0802bc5c       0x50 ./main.o
                0x0802bc5c                main
 .text.vApplicationTickHook
                0x0802bcac        0xc ./main.o
                0x0802bcac                vApplicationTickHook
 .text.vApplicationIdleHook
                0x0802bcb8        0xc ./main.o
                0x0802bcb8                vApplicationIdleHook
 .text.vApplicationMallocFailedHook
                0x0802bcc4        0xc ./main.o
                0x0802bcc4                vApplicationMallocFailedHook
 .text.vApplicationStackOverflowHook
                0x0802bcd0        0xc ./main.o
                0x0802bcd0                vApplicationStackOverflowHook
 .text.EVAL_AUDIO_GetSampleCallBack
                0x0802bcdc       0x10 ./main.o
                0x0802bcdc                EVAL_AUDIO_GetSampleCallBack
 .text.EVAL_AUDIO_TransferComplete_CallBack
                0x0802bcec       0x14 ./main.o
                0x0802bcec                EVAL_AUDIO_TransferComplete_CallBack
 .text.EVAL_AUDIO_HalfTransfer_CallBack
                0x0802bd00       0x14 ./main.o
                0x0802bd00                EVAL_AUDIO_HalfTransfer_CallBack
 .text.EVAL_AUDIO_Error_CallBack
                0x0802bd14       0x14 ./main.o
                0x0802bd14                EVAL_AUDIO_Error_CallBack
 .text.Codec_TIMEOUT_UserCallback
                0x0802bd28       0x10 ./main.o
                0x0802bd28                Codec_TIMEOUT_UserCallback
 .text.LIS302DL_TIMEOUT_UserCallback
                0x0802bd38       0x10 ./main.o
                0x0802bd38                LIS302DL_TIMEOUT_UserCallback
 .text._Z41__static_initialization_and_destruction_0ii
                0x0802bd48       0xac ./main.o
 .text._GLOBAL__sub_I_g_LedTast
                0x0802bdf4       0x14 ./main.o
 .text.Reset_Handler
                0x0802be08       0x58 ./startup_stm32f4xx.o
                0x0802be08                Reset_Handler
 .text.Default_Handler
                0x0802be60        0x2 ./startup_stm32f4xx.o
                0x0802be60                RTC_Alarm_IRQHandler
                0x0802be60                HASH_RNG_IRQHandler
                0x0802be60                EXTI2_IRQHandler
                0x0802be60                TIM8_CC_IRQHandler
                0x0802be60                TIM1_CC_IRQHandler
                0x0802be60                DMA2_Stream5_IRQHandler
                0x0802be60                DMA1_Stream5_IRQHandler
                0x0802be60                PVD_IRQHandler
                0x0802be60                TAMP_STAMP_IRQHandler
                0x0802be60                CAN2_RX1_IRQHandler
                0x0802be60                EXTI3_IRQHandler
                0x0802be60                TIM8_TRG_COM_TIM14_IRQHandler
                0x0802be60                TIM1_UP_TIM10_IRQHandler
                0x0802be60                TIM8_UP_TIM13_IRQHandler
                0x0802be60                I2C3_ER_IRQHandler
                0x0802be60                EXTI0_IRQHandler
                0x0802be60                I2C2_EV_IRQHandler
                0x0802be60                DMA1_Stream2_IRQHandler
                0x0802be60                CAN1_RX0_IRQHandler
                0x0802be60                FPU_IRQHandler
                0x0802be60                OTG_HS_WKUP_IRQHandler
                0x0802be60                CAN2_SCE_IRQHandler
                0x0802be60                DMA2_Stream2_IRQHandler
                0x0802be60                SPI1_IRQHandler
                0x0802be60                TIM6_DAC_IRQHandler
                0x0802be60                TIM1_BRK_TIM9_IRQHandler
                0x0802be60                DCMI_IRQHandler
                0x0802be60                CAN2_RX0_IRQHandler
                0x0802be60                USART6_IRQHandler
                0x0802be60                USART3_IRQHandler
                0x0802be60                CRYP_IRQHandler
                0x0802be60                CAN1_RX1_IRQHandler
                0x0802be60                UART5_IRQHandler
                0x0802be60                DMA2_Stream0_IRQHandler
                0x0802be60                TIM4_IRQHandler
                0x0802be60                I2C1_EV_IRQHandler
                0x0802be60                DMA1_Stream6_IRQHandler
                0x0802be60                DMA1_Stream1_IRQHandler
                0x0802be60                UART4_IRQHandler
                0x0802be60                TIM3_IRQHandler
                0x0802be60                RCC_IRQHandler
                0x0802be60                TIM8_BRK_TIM12_IRQHandler
                0x0802be60                Default_Handler
                0x0802be60                EXTI15_10_IRQHandler
                0x0802be60                ADC_IRQHandler
                0x0802be60                TIM7_IRQHandler
                0x0802be60                CAN2_TX_IRQHandler
                0x0802be60                TIM5_IRQHandler
                0x0802be60                DMA2_Stream7_IRQHandler
                0x0802be60                I2C3_EV_IRQHandler
                0x0802be60                EXTI9_5_IRQHandler
                0x0802be60                RTC_WKUP_IRQHandler
                0x0802be60                ETH_WKUP_IRQHandler
                0x0802be60                SPI2_IRQHandler
                0x0802be60                OTG_HS_EP1_IN_IRQHandler
                0x0802be60                CAN1_TX_IRQHandler
                0x0802be60                EXTI4_IRQHandler
                0x0802be60                FSMC_IRQHandler
                0x0802be60                ETH_IRQHandler
                0x0802be60                OTG_HS_EP1_OUT_IRQHandler
                0x0802be60                WWDG_IRQHandler
                0x0802be60                TIM2_IRQHandler
                0x0802be60                OTG_FS_WKUP_IRQHandler
                0x0802be60                TIM1_TRG_COM_TIM11_IRQHandler
                0x0802be60                OTG_HS_IRQHandler
                0x0802be60                EXTI1_IRQHandler
                0x0802be60                USART2_IRQHandler
                0x0802be60                I2C2_ER_IRQHandler
                0x0802be60                DMA2_Stream1_IRQHandler
                0x0802be60                CAN1_SCE_IRQHandler
                0x0802be60                FLASH_IRQHandler
                0x0802be60                DMA2_Stream4_IRQHandler
                0x0802be60                USART1_IRQHandler
                0x0802be60                OTG_FS_IRQHandler
                0x0802be60                DMA1_Stream4_IRQHandler
                0x0802be60                I2C1_ER_IRQHandler
                0x0802be60                DMA2_Stream6_IRQHandler
                0x0802be60                DMA1_Stream3_IRQHandler
 *fill*         0x0802be62        0x2 00
 .text.NMI_Handler
                0x0802be64        0xc ./stm32f4xx_it.o
                0x0802be64                NMI_Handler
 .text.HardFault_Handler
                0x0802be70        0x8 ./stm32f4xx_it.o
                0x0802be70                HardFault_Handler
 .text.MemManage_Handler
                0x0802be78        0x8 ./stm32f4xx_it.o
                0x0802be78                MemManage_Handler
 .text.BusFault_Handler
                0x0802be80        0x8 ./stm32f4xx_it.o
                0x0802be80                BusFault_Handler
 .text.UsageFault_Handler
                0x0802be88        0x8 ./stm32f4xx_it.o
                0x0802be88                UsageFault_Handler
 .text.DebugMon_Handler
                0x0802be90        0xc ./stm32f4xx_it.o
                0x0802be90                DebugMon_Handler
 .text.SDIO_IRQHandler
                0x0802be9c        0xc ./stm32f4xx_it.o
                0x0802be9c                SDIO_IRQHandler
 .text.DMA2_Stream3_IRQHandler
                0x0802bea8        0xc ./stm32f4xx_it.o
                0x0802bea8                DMA2_Stream3_IRQHandler
 .text._exit    0x0802beb4        0xc ./syscalls.o
                0x0802beb4                _exit
 .text._read_r  0x0802bec0       0x20 ./syscalls.o
                0x0802bec0                _read_r
 .text._write_r
                0x0802bee0       0x20 ./syscalls.o
                0x0802bee0                _write_r
 .text._lseek_r
                0x0802bf00       0x28 ./syscalls.o
                0x0802bf00                _lseek_r
 .text._close_r
                0x0802bf28       0x24 ./syscalls.o
                0x0802bf28                _close_r
 .text._fstat_r
                0x0802bf4c       0x40 ./syscalls.o
                0x0802bf4c                _fstat_r
 .text._isatty_r
                0x0802bf8c       0x1c ./syscalls.o
                0x0802bf8c                _isatty_r
 .text._sbrk_r  0x0802bfa8       0x90 ./syscalls.o
                0x0802bfa8                _sbrk_r
 .text._kill_r  0x0802c038       0x24 ./syscalls.o
                0x0802c038                _kill_r
 .text._getpid_r
                0x0802c05c       0x20 ./syscalls.o
                0x0802c05c                _getpid_r
 .text.__malloc_lock
                0x0802c07c       0x14 ./syscalls.o
                0x0802c07c                __malloc_lock
 .text.__malloc_unlock
                0x0802c090       0x14 ./syscalls.o
                0x0802c090                __malloc_unlock
 .text.SystemInit
                0x0802c0a4       0x94 ./system_stm32f4xx.o
                0x0802c0a4                SystemInit
 .text.SystemCoreClockUpdate
                0x0802c138      0x174 ./system_stm32f4xx.o
                0x0802c138                SystemCoreClockUpdate
 .text.SetSysClock
                0x0802c2ac      0x1e0 ./system_stm32f4xx.o
 .text.get_us_time
                0x0802c48c       0x8c ./ustime.o
                0x0802c48c                get_us_time
 .text.delay_us
                0x0802c518       0x5c ./ustime.o
                0x0802c518                delay_us
 .text.delay_ms
                0x0802c574       0x20 ./ustime.o
                0x0802c574                delay_ms
 .text.init_us_timer
                0x0802c594       0x70 ./ustime.o
                0x0802c594                init_us_timer
 .text.__aeabi_atexit
                0x0802c604        0xc d:/elektronik/ides/eclipse/yagarto/bin/../lib/gcc/arm-none-eabi/4.6.2/../../../../arm-none-eabi/lib/thumb/v7m\libstdc++.a(atexit_arm.o)
                0x0802c604                __aeabi_atexit
 .text._ZdlPv   0x0802c610        0x8 d:/elektronik/ides/eclipse/yagarto/bin/../lib/gcc/arm-none-eabi/4.6.2/../../../../arm-none-eabi/lib/thumb/v7m\libstdc++.a(del_op.o)
                0x0802c610                operator delete(void*)
 .text.__cxa_pure_virtual
                0x0802c618       0x18 d:/elektronik/ides/eclipse/yagarto/bin/../lib/gcc/arm-none-eabi/4.6.2/../../../../arm-none-eabi/lib/thumb/v7m\libstdc++.a(pure.o)
                0x0802c618                __cxa_pure_virtual
 .text._ZN10__cxxabiv111__terminateEPFvvE
                0x0802c630       0x28 d:/elektronik/ides/eclipse/yagarto/bin/../lib/gcc/arm-none-eabi/4.6.2/../../../../arm-none-eabi/lib/thumb/v7m\libstdc++.a(eh_terminate.o)
                0x0802c630                __cxxabiv1::__terminate(void (*)())
 .text._ZSt9terminatev
                0x0802c658       0x10 d:/elektronik/ides/eclipse/yagarto/bin/../lib/gcc/arm-none-eabi/4.6.2/../../../../arm-none-eabi/lib/thumb/v7m\libstdc++.a(eh_terminate.o)
                0x0802c658                std::terminate()
 .text._ZN10__cxxabiv112__unexpectedEPFvvE
                0x0802c668        0x8 d:/elektronik/ides/eclipse/yagarto/bin/../lib/gcc/arm-none-eabi/4.6.2/../../../../arm-none-eabi/lib/thumb/v7m\libstdc++.a(eh_terminate.o)
                0x0802c668                __cxxabiv1::__unexpected(void (*)())
 .text._ZSt10unexpectedv
                0x0802c670       0x14 d:/elektronik/ides/eclipse/yagarto/bin/../lib/gcc/arm-none-eabi/4.6.2/../../../../arm-none-eabi/lib/thumb/v7m\libstdc++.a(eh_terminate.o)
                0x0802c670                std::unexpected()
 .text._ZSt13set_terminatePFvvE
                0x0802c684       0x10 d:/elektronik/ides/eclipse/yagarto/bin/../lib/gcc/arm-none-eabi/4.6.2/../../../../arm-none-eabi/lib/thumb/v7m\libstdc++.a(eh_terminate.o)
                0x0802c684                std::set_terminate(void (*)())
 .text._ZSt14set_unexpectedPFvvE
                0x0802c694       0x10 d:/elektronik/ides/eclipse/yagarto/bin/../lib/gcc/arm-none-eabi/4.6.2/../../../../arm-none-eabi/lib/thumb/v7m\libstdc++.a(eh_terminate.o)
                0x0802c694                std::set_unexpected(void (*)())
 .text._ZN9__gnu_cxx27__verbose_terminate_handlerEv
                0x0802c6a4      0x118 d:/elektronik/ides/eclipse/yagarto/bin/../lib/gcc/arm-none-eabi/4.6.2/../../../../arm-none-eabi/lib/thumb/v7m\libstdc++.a(vterminate.o)
                0x0802c6a4                __gnu_cxx::__verbose_terminate_handler()
 .text.__cxa_end_cleanup
                0x0802c7bc        0xc d:/elektronik/ides/eclipse/yagarto/bin/../lib/gcc/arm-none-eabi/4.6.2/../../../../arm-none-eabi/lib/thumb/v7m\libstdc++.a(eh_arm.o)
                0x0802c7bc                __cxa_end_cleanup
 .text.__cxa_type_match
                0x0802c7c8       0xe4 d:/elektronik/ides/eclipse/yagarto/bin/../lib/gcc/arm-none-eabi/4.6.2/../../../../arm-none-eabi/lib/thumb/v7m\libstdc++.a(eh_arm.o)
                0x0802c7c8                __cxa_type_match
 .text.__cxa_begin_cleanup
                0x0802c8ac       0x68 d:/elektronik/ides/eclipse/yagarto/bin/../lib/gcc/arm-none-eabi/4.6.2/../../../../arm-none-eabi/lib/thumb/v7m\libstdc++.a(eh_arm.o)
                0x0802c8ac                __cxa_begin_cleanup
 .text.__gnu_end_cleanup
                0x0802c914       0x74 d:/elektronik/ides/eclipse/yagarto/bin/../lib/gcc/arm-none-eabi/4.6.2/../../../../arm-none-eabi/lib/thumb/v7m\libstdc++.a(eh_arm.o)
                0x0802c914                __gnu_end_cleanup
 .text.__cxa_bad_cast
                0x0802c988       0x24 d:/elektronik/ides/eclipse/yagarto/bin/../lib/gcc/arm-none-eabi/4.6.2/../../../../arm-none-eabi/lib/thumb/v7m\libstdc++.a(eh_aux_runtime.o)
                0x0802c988                __cxa_bad_cast
 .text.__cxa_bad_typeid
                0x0802c9ac       0x24 d:/elektronik/ides/eclipse/yagarto/bin/../lib/gcc/arm-none-eabi/4.6.2/../../../../arm-none-eabi/lib/thumb/v7m\libstdc++.a(eh_aux_runtime.o)
                0x0802c9ac                __cxa_bad_typeid
 .text.__cxa_call_terminate
                0x0802c9d0       0x48 d:/elektronik/ides/eclipse/yagarto/bin/../lib/gcc/arm-none-eabi/4.6.2/../../../../arm-none-eabi/lib/thumb/v7m\libstdc++.a(eh_call.o)
                0x0802c9d0                __cxa_call_terminate
 .text.__cxa_call_unexpected
                0x0802ca18      0x11c d:/elektronik/ides/eclipse/yagarto/bin/../lib/gcc/arm-none-eabi/4.6.2/../../../../arm-none-eabi/lib/thumb/v7m\libstdc++.a(eh_call.o)
                0x0802ca18                __cxa_call_unexpected
 .text.__cxa_get_exception_ptr
                0x0802cb34        0x4 d:/elektronik/ides/eclipse/yagarto/bin/../lib/gcc/arm-none-eabi/4.6.2/../../../../arm-none-eabi/lib/thumb/v7m\libstdc++.a(eh_catch.o)
                0x0802cb34                __cxa_get_exception_ptr
 .text.__cxa_begin_catch
                0x0802cb38       0x88 d:/elektronik/ides/eclipse/yagarto/bin/../lib/gcc/arm-none-eabi/4.6.2/../../../../arm-none-eabi/lib/thumb/v7m\libstdc++.a(eh_catch.o)
                0x0802cb38                __cxa_begin_catch
 .text.__cxa_end_catch
                0x0802cbc0       0x90 d:/elektronik/ides/eclipse/yagarto/bin/../lib/gcc/arm-none-eabi/4.6.2/../../../../arm-none-eabi/lib/thumb/v7m\libstdc++.a(eh_catch.o)
                0x0802cbc0                __cxa_end_catch
 .text._ZSt18uncaught_exceptionv
                0x0802cc50       0x10 d:/elektronik/ides/eclipse/yagarto/bin/../lib/gcc/arm-none-eabi/4.6.2/../../../../arm-none-eabi/lib/thumb/v7m\libstdc++.a(eh_catch.o)
                0x0802cc50                std::uncaught_exception()
 .text._ZNSt9exceptionD2Ev
                0x0802cc60        0xc d:/elektronik/ides/eclipse/yagarto/bin/../lib/gcc/arm-none-eabi/4.6.2/../../../../arm-none-eabi/lib/thumb/v7m\libstdc++.a(eh_exception.o)
                0x0802cc60                std::exception::~exception()
                0x0802cc60                std::exception::~exception()
 .text._ZNSt13bad_exceptionD2Ev
                0x0802cc6c        0xc d:/elektronik/ides/eclipse/yagarto/bin/../lib/gcc/arm-none-eabi/4.6.2/../../../../arm-none-eabi/lib/thumb/v7m\libstdc++.a(eh_exception.o)
                0x0802cc6c                std::bad_exception::~bad_exception()
                0x0802cc6c                std::bad_exception::~bad_exception()
 .text._ZN10__cxxabiv115__forced_unwindD2Ev
                0x0802cc78        0xc d:/elektronik/ides/eclipse/yagarto/bin/../lib/gcc/arm-none-eabi/4.6.2/../../../../arm-none-eabi/lib/thumb/v7m\libstdc++.a(eh_exception.o)
                0x0802cc78                __cxxabiv1::__forced_unwind::~__forced_unwind()
                0x0802cc78                __cxxabiv1::__forced_unwind::~__forced_unwind()
 .text._ZN10__cxxabiv119__foreign_exceptionD2Ev
                0x0802cc84        0xc d:/elektronik/ides/eclipse/yagarto/bin/../lib/gcc/arm-none-eabi/4.6.2/../../../../arm-none-eabi/lib/thumb/v7m\libstdc++.a(eh_exception.o)
                0x0802cc84                __cxxabiv1::__foreign_exception::~__foreign_exception()
                0x0802cc84                __cxxabiv1::__foreign_exception::~__foreign_exception()
 .text._ZNKSt9exception4whatEv
                0x0802cc90        0xc d:/elektronik/ides/eclipse/yagarto/bin/../lib/gcc/arm-none-eabi/4.6.2/../../../../arm-none-eabi/lib/thumb/v7m\libstdc++.a(eh_exception.o)
                0x0802cc90                std::exception::what() const
 .text._ZNKSt13bad_exception4whatEv
                0x0802cc9c        0xc d:/elektronik/ides/eclipse/yagarto/bin/../lib/gcc/arm-none-eabi/4.6.2/../../../../arm-none-eabi/lib/thumb/v7m\libstdc++.a(eh_exception.o)
                0x0802cc9c                std::bad_exception::what() const
 .text._ZN10__cxxabiv119__foreign_exceptionD0Ev
                0x0802cca8       0x14 d:/elektronik/ides/eclipse/yagarto/bin/../lib/gcc/arm-none-eabi/4.6.2/../../../../arm-none-eabi/lib/thumb/v7m\libstdc++.a(eh_exception.o)
                0x0802cca8                __cxxabiv1::__foreign_exception::~__foreign_exception()
 .text._ZN10__cxxabiv115__forced_unwindD0Ev
                0x0802ccbc       0x14 d:/elektronik/ides/eclipse/yagarto/bin/../lib/gcc/arm-none-eabi/4.6.2/../../../../arm-none-eabi/lib/thumb/v7m\libstdc++.a(eh_exception.o)
                0x0802ccbc                __cxxabiv1::__forced_unwind::~__forced_unwind()
 .text._ZNSt13bad_exceptionD0Ev
                0x0802ccd0       0x14 d:/elektronik/ides/eclipse/yagarto/bin/../lib/gcc/arm-none-eabi/4.6.2/../../../../arm-none-eabi/lib/thumb/v7m\libstdc++.a(eh_exception.o)
                0x0802ccd0                std::bad_exception::~bad_exception()
 .text._ZNSt9exceptionD0Ev
                0x0802cce4       0x14 d:/elektronik/ides/eclipse/yagarto/bin/../lib/gcc/arm-none-eabi/4.6.2/../../../../arm-none-eabi/lib/thumb/v7m\libstdc++.a(eh_exception.o)
                0x0802cce4                std::exception::~exception()
 .text.__cxa_get_globals_fast
                0x0802ccf8        0xc d:/elektronik/ides/eclipse/yagarto/bin/../lib/gcc/arm-none-eabi/4.6.2/../../../../arm-none-eabi/lib/thumb/v7m\libstdc++.a(eh_globals.o)
                0x0802ccf8                __cxa_get_globals_fast
 .text.__cxa_get_globals
                0x0802cd04        0xc d:/elektronik/ides/eclipse/yagarto/bin/../lib/gcc/arm-none-eabi/4.6.2/../../../../arm-none-eabi/lib/thumb/v7m\libstdc++.a(eh_globals.o)
                0x0802cd04                __cxa_get_globals
 .text._ZL12read_sleb128PKhPl
                0x0802cd10       0x3c d:/elektronik/ides/eclipse/yagarto/bin/../lib/gcc/arm-none-eabi/4.6.2/../../../../arm-none-eabi/lib/thumb/v7m\libstdc++.a(eh_personality.o)
 .text._ZL28read_encoded_value_with_basehjPKhPj
                0x0802cd4c       0xc0 d:/elektronik/ides/eclipse/yagarto/bin/../lib/gcc/arm-none-eabi/4.6.2/../../../../arm-none-eabi/lib/thumb/v7m\libstdc++.a(eh_personality.o)
 .text._ZL21base_of_encoded_valuehP15_Unwind_Context
                0x0802ce0c       0x4c d:/elektronik/ides/eclipse/yagarto/bin/../lib/gcc/arm-none-eabi/4.6.2/../../../../arm-none-eabi/lib/thumb/v7m\libstdc++.a(eh_personality.o)
 .text._ZL17parse_lsda_headerP15_Unwind_ContextPKhP16lsda_header_info.constprop.1
                0x0802ce58       0x8c d:/elektronik/ides/eclipse/yagarto/bin/../lib/gcc/arm-none-eabi/4.6.2/../../../../arm-none-eabi/lib/thumb/v7m\libstdc++.a(eh_personality.o)
 .text.__gxx_personality_v0
                0x0802cee4      0x3a8 d:/elektronik/ides/eclipse/yagarto/bin/../lib/gcc/arm-none-eabi/4.6.2/../../../../arm-none-eabi/lib/thumb/v7m\libstdc++.a(eh_personality.o)
                0x0802cee4                __gxx_personality_v0
 .text._ZL23__gxx_exception_cleanup19_Unwind_Reason_CodeP21_Unwind_Control_Block
                0x0802d28c       0x4c d:/elektronik/ides/eclipse/yagarto/bin/../lib/gcc/arm-none-eabi/4.6.2/../../../../arm-none-eabi/lib/thumb/v7m\libstdc++.a(eh_throw.o)
 .text.__cxa_throw
                0x0802d2d8       0x78 d:/elektronik/ides/eclipse/yagarto/bin/../lib/gcc/arm-none-eabi/4.6.2/../../../../arm-none-eabi/lib/thumb/v7m\libstdc++.a(eh_throw.o)
                0x0802d2d8                __cxa_throw
 .text.__cxa_rethrow
                0x0802d350       0x70 d:/elektronik/ides/eclipse/yagarto/bin/../lib/gcc/arm-none-eabi/4.6.2/../../../../arm-none-eabi/lib/thumb/v7m\libstdc++.a(eh_throw.o)
                0x0802d350                __cxa_rethrow
 .text.__cxa_current_exception_type
                0x0802d3c0       0x1c d:/elektronik/ides/eclipse/yagarto/bin/../lib/gcc/arm-none-eabi/4.6.2/../../../../arm-none-eabi/lib/thumb/v7m\libstdc++.a(eh_type.o)
                0x0802d3c0                __cxa_current_exception_type
 .text._ZN10__cxxabiv123__fundamental_type_infoD2Ev
                0x0802d3dc       0x14 d:/elektronik/ides/eclipse/yagarto/bin/../lib/gcc/arm-none-eabi/4.6.2/../../../../arm-none-eabi/lib/thumb/v7m\libstdc++.a(fundamental_type_info.o)
                0x0802d3dc                __cxxabiv1::__fundamental_type_info::~__fundamental_type_info()
                0x0802d3dc                __cxxabiv1::__fundamental_type_info::~__fundamental_type_info()
 .text._ZN10__cxxabiv123__fundamental_type_infoD0Ev
                0x0802d3f0       0x1c d:/elektronik/ides/eclipse/yagarto/bin/../lib/gcc/arm-none-eabi/4.6.2/../../../../arm-none-eabi/lib/thumb/v7m\libstdc++.a(fundamental_type_info.o)
                0x0802d3f0                __cxxabiv1::__fundamental_type_info::~__fundamental_type_info()
 .text._ZNK10__cxxabiv119__pointer_type_info14__is_pointer_pEv
                0x0802d40c        0x4 d:/elektronik/ides/eclipse/yagarto/bin/../lib/gcc/arm-none-eabi/4.6.2/../../../../arm-none-eabi/lib/thumb/v7m\libstdc++.a(pointer_type_info.o)
                0x0802d40c                __cxxabiv1::__pointer_type_info::__is_pointer_p() const
 .text._ZN10__cxxabiv119__pointer_type_infoD2Ev
                0x0802d410       0x14 d:/elektronik/ides/eclipse/yagarto/bin/../lib/gcc/arm-none-eabi/4.6.2/../../../../arm-none-eabi/lib/thumb/v7m\libstdc++.a(pointer_type_info.o)
                0x0802d410                __cxxabiv1::__pointer_type_info::~__pointer_type_info()
                0x0802d410                __cxxabiv1::__pointer_type_info::~__pointer_type_info()
 .text._ZN10__cxxabiv119__pointer_type_infoD0Ev
                0x0802d424       0x1c d:/elektronik/ides/eclipse/yagarto/bin/../lib/gcc/arm-none-eabi/4.6.2/../../../../arm-none-eabi/lib/thumb/v7m\libstdc++.a(pointer_type_info.o)
                0x0802d424                __cxxabiv1::__pointer_type_info::~__pointer_type_info()
 .text._ZNK10__cxxabiv119__pointer_type_info15__pointer_catchEPKNS_17__pbase_type_infoEPPvj
                0x0802d440       0x48 d:/elektronik/ides/eclipse/yagarto/bin/../lib/gcc/arm-none-eabi/4.6.2/../../../../arm-none-eabi/lib/thumb/v7m\libstdc++.a(pointer_type_info.o)
                0x0802d440                __cxxabiv1::__pointer_type_info::__pointer_catch(__cxxabiv1::__pbase_type_info const*, void**, unsigned int) const
 .text._ZN10__cxxabiv120__si_class_type_infoD2Ev
                0x0802d488       0x14 d:/elektronik/ides/eclipse/yagarto/bin/../lib/gcc/arm-none-eabi/4.6.2/../../../../arm-none-eabi/lib/thumb/v7m\libstdc++.a(si_class_type_info.o)
                0x0802d488                __cxxabiv1::__si_class_type_info::~__si_class_type_info()
                0x0802d488                __cxxabiv1::__si_class_type_info::~__si_class_type_info()
 .text._ZN10__cxxabiv120__si_class_type_infoD0Ev
                0x0802d49c       0x1c d:/elektronik/ides/eclipse/yagarto/bin/../lib/gcc/arm-none-eabi/4.6.2/../../../../arm-none-eabi/lib/thumb/v7m\libstdc++.a(si_class_type_info.o)
                0x0802d49c                __cxxabiv1::__si_class_type_info::~__si_class_type_info()
 .text._ZNK10__cxxabiv120__si_class_type_info11__do_upcastEPKNS_17__class_type_infoEPKvRNS1_15__upcast_resultE
                0x0802d4b8       0x28 d:/elektronik/ides/eclipse/yagarto/bin/../lib/gcc/arm-none-eabi/4.6.2/../../../../arm-none-eabi/lib/thumb/v7m\libstdc++.a(si_class_type_info.o)
                0x0802d4b8                __cxxabiv1::__si_class_type_info::__do_upcast(__cxxabiv1::__class_type_info const*, void const*, __cxxabiv1::__class_type_info::__upcast_result&) const
 .text._ZNK10__cxxabiv120__si_class_type_info12__do_dyncastEiNS_17__class_type_info10__sub_kindEPKS1_PKvS4_S6_RNS1_16__dyncast_resultE
                0x0802d4e0       0x88 d:/elektronik/ides/eclipse/yagarto/bin/../lib/gcc/arm-none-eabi/4.6.2/../../../../arm-none-eabi/lib/thumb/v7m\libstdc++.a(si_class_type_info.o)
                0x0802d4e0                __cxxabiv1::__si_class_type_info::__do_dyncast(int, __cxxabiv1::__class_type_info::__sub_kind, __cxxabiv1::__class_type_info const*, void const*, __cxxabiv1::__class_type_info const*, void const*, __cxxabiv1::__class_type_info::__dyncast_result&) const
 .text._ZNK10__cxxabiv120__si_class_type_info20__do_find_public_srcEiPKvPKNS_17__class_type_infoES2_
                0x0802d568       0x38 d:/elektronik/ides/eclipse/yagarto/bin/../lib/gcc/arm-none-eabi/4.6.2/../../../../arm-none-eabi/lib/thumb/v7m\libstdc++.a(si_class_type_info.o)
                0x0802d568                __cxxabiv1::__si_class_type_info::__do_find_public_src(int, void const*, __cxxabiv1::__class_type_info const*, void const*) const
 .text._ZNSt9type_infoD2Ev
                0x0802d5a0        0xc d:/elektronik/ides/eclipse/yagarto/bin/../lib/gcc/arm-none-eabi/4.6.2/../../../../arm-none-eabi/lib/thumb/v7m\libstdc++.a(tinfo.o)
                0x0802d5a0                std::type_info::~type_info()
                0x0802d5a0                std::type_info::~type_info()
 .text._ZNKSt9type_info14__is_pointer_pEv
                0x0802d5ac        0x4 d:/elektronik/ides/eclipse/yagarto/bin/../lib/gcc/arm-none-eabi/4.6.2/../../../../arm-none-eabi/lib/thumb/v7m\libstdc++.a(tinfo.o)
                0x0802d5ac                std::type_info::__is_pointer_p() const
 .text._ZNKSt9type_info15__is_function_pEv
                0x0802d5b0        0x4 d:/elektronik/ides/eclipse/yagarto/bin/../lib/gcc/arm-none-eabi/4.6.2/../../../../arm-none-eabi/lib/thumb/v7m\libstdc++.a(tinfo.o)
                0x0802d5b0                std::type_info::__is_function_p() const
 .text._ZNKSt9type_info11__do_upcastEPKN10__cxxabiv117__class_type_infoEPPv
                0x0802d5b4        0x4 d:/elektronik/ides/eclipse/yagarto/bin/../lib/gcc/arm-none-eabi/4.6.2/../../../../arm-none-eabi/lib/thumb/v7m\libstdc++.a(tinfo.o)
                0x0802d5b4                std::type_info::__do_upcast(__cxxabiv1::__class_type_info const*, void**) const
 .text._ZNSt9type_infoD0Ev
                0x0802d5b8       0x14 d:/elektronik/ides/eclipse/yagarto/bin/../lib/gcc/arm-none-eabi/4.6.2/../../../../arm-none-eabi/lib/thumb/v7m\libstdc++.a(tinfo.o)
                0x0802d5b8                std::type_info::~type_info()
 .text._ZNKSt9type_infoeqERKS_
                0x0802d5cc       0x38 d:/elektronik/ides/eclipse/yagarto/bin/../lib/gcc/arm-none-eabi/4.6.2/../../../../arm-none-eabi/lib/thumb/v7m\libstdc++.a(tinfo.o)
                0x0802d5cc                std::type_info::operator==(std::type_info const&) const
 .text._ZNKSt9type_info10__do_catchEPKS_PPvj
                0x0802d604        0x4 d:/elektronik/ides/eclipse/yagarto/bin/../lib/gcc/arm-none-eabi/4.6.2/../../../../arm-none-eabi/lib/thumb/v7m\libstdc++.a(tinfo.o)
                0x0802d604                std::type_info::__do_catch(std::type_info const*, void**, unsigned int) const
 .text._ZNKSt8bad_cast4whatEv
                0x0802d608        0xc d:/elektronik/ides/eclipse/yagarto/bin/../lib/gcc/arm-none-eabi/4.6.2/../../../../arm-none-eabi/lib/thumb/v7m\libstdc++.a(bad_cast.o)
                0x0802d608                std::bad_cast::what() const
 .text._ZNSt8bad_castD2Ev
                0x0802d614       0x14 d:/elektronik/ides/eclipse/yagarto/bin/../lib/gcc/arm-none-eabi/4.6.2/../../../../arm-none-eabi/lib/thumb/v7m\libstdc++.a(bad_cast.o)
                0x0802d614                std::bad_cast::~bad_cast()
                0x0802d614                std::bad_cast::~bad_cast()
 .text._ZNSt8bad_castD0Ev
                0x0802d628       0x1c d:/elektronik/ides/eclipse/yagarto/bin/../lib/gcc/arm-none-eabi/4.6.2/../../../../arm-none-eabi/lib/thumb/v7m\libstdc++.a(bad_cast.o)
                0x0802d628                std::bad_cast::~bad_cast()
 .text._ZNKSt10bad_typeid4whatEv
                0x0802d644        0xc d:/elektronik/ides/eclipse/yagarto/bin/../lib/gcc/arm-none-eabi/4.6.2/../../../../arm-none-eabi/lib/thumb/v7m\libstdc++.a(bad_typeid.o)
                0x0802d644                std::bad_typeid::what() const
 .text._ZNSt10bad_typeidD2Ev
                0x0802d650       0x14 d:/elektronik/ides/eclipse/yagarto/bin/../lib/gcc/arm-none-eabi/4.6.2/../../../../arm-none-eabi/lib/thumb/v7m\libstdc++.a(bad_typeid.o)
                0x0802d650                std::bad_typeid::~bad_typeid()
                0x0802d650                std::bad_typeid::~bad_typeid()
 .text._ZNSt10bad_typeidD0Ev
                0x0802d664       0x1c d:/elektronik/ides/eclipse/yagarto/bin/../lib/gcc/arm-none-eabi/4.6.2/../../../../arm-none-eabi/lib/thumb/v7m\libstdc++.a(bad_typeid.o)
                0x0802d664                std::bad_typeid::~bad_typeid()
 .text._ZNK10__cxxabiv117__class_type_info11__do_upcastEPKS0_PPv
                0x0802d680       0x38 d:/elektronik/ides/eclipse/yagarto/bin/../lib/gcc/arm-none-eabi/4.6.2/../../../../arm-none-eabi/lib/thumb/v7m\libstdc++.a(class_type_info.o)
                0x0802d680                __cxxabiv1::__class_type_info::__do_upcast(__cxxabiv1::__class_type_info const*, void**) const
 .text._ZNK10__cxxabiv117__class_type_info20__do_find_public_srcEiPKvPKS0_S2_
                0x0802d6b8        0xc d:/elektronik/ides/eclipse/yagarto/bin/../lib/gcc/arm-none-eabi/4.6.2/../../../../arm-none-eabi/lib/thumb/v7m\libstdc++.a(class_type_info.o)
                0x0802d6b8                __cxxabiv1::__class_type_info::__do_find_public_src(int, void const*, __cxxabiv1::__class_type_info const*, void const*) const
 .text._ZNK10__cxxabiv117__class_type_info11__do_upcastEPKS0_PKvRNS0_15__upcast_resultE
                0x0802d6c4       0x1c d:/elektronik/ides/eclipse/yagarto/bin/../lib/gcc/arm-none-eabi/4.6.2/../../../../arm-none-eabi/lib/thumb/v7m\libstdc++.a(class_type_info.o)
                0x0802d6c4                __cxxabiv1::__class_type_info::__do_upcast(__cxxabiv1::__class_type_info const*, void const*, __cxxabiv1::__class_type_info::__upcast_result&) const
 .text._ZN10__cxxabiv117__class_type_infoD2Ev
                0x0802d6e0       0x14 d:/elektronik/ides/eclipse/yagarto/bin/../lib/gcc/arm-none-eabi/4.6.2/../../../../arm-none-eabi/lib/thumb/v7m\libstdc++.a(class_type_info.o)
                0x0802d6e0                __cxxabiv1::__class_type_info::~__class_type_info()
                0x0802d6e0                __cxxabiv1::__class_type_info::~__class_type_info()
 .text._ZN10__cxxabiv117__class_type_infoD0Ev
                0x0802d6f4       0x1c d:/elektronik/ides/eclipse/yagarto/bin/../lib/gcc/arm-none-eabi/4.6.2/../../../../arm-none-eabi/lib/thumb/v7m\libstdc++.a(class_type_info.o)
                0x0802d6f4                __cxxabiv1::__class_type_info::~__class_type_info()
 .text._ZNK10__cxxabiv117__class_type_info12__do_dyncastEiNS0_10__sub_kindEPKS0_PKvS3_S5_RNS0_16__dyncast_resultE
                0x0802d710       0x3c d:/elektronik/ides/eclipse/yagarto/bin/../lib/gcc/arm-none-eabi/4.6.2/../../../../arm-none-eabi/lib/thumb/v7m\libstdc++.a(class_type_info.o)
                0x0802d710                __cxxabiv1::__class_type_info::__do_dyncast(int, __cxxabiv1::__class_type_info::__sub_kind, __cxxabiv1::__class_type_info const*, void const*, __cxxabiv1::__class_type_info const*, void const*, __cxxabiv1::__class_type_info::__dyncast_result&) const
 .text._ZNK10__cxxabiv117__class_type_info10__do_catchEPKSt9type_infoPPvj
                0x0802d74c       0x28 d:/elektronik/ides/eclipse/yagarto/bin/../lib/gcc/arm-none-eabi/4.6.2/../../../../arm-none-eabi/lib/thumb/v7m\libstdc++.a(class_type_info.o)
                0x0802d74c                __cxxabiv1::__class_type_info::__do_catch(std::type_info const*, void**, unsigned int) const
 .text.__cxa_allocate_exception
                0x0802d774       0x64 d:/elektronik/ides/eclipse/yagarto/bin/../lib/gcc/arm-none-eabi/4.6.2/../../../../arm-none-eabi/lib/thumb/v7m\libstdc++.a(eh_alloc.o)
                0x0802d774                __cxa_allocate_exception
 .text.__cxa_free_exception
                0x0802d7d8       0x34 d:/elektronik/ides/eclipse/yagarto/bin/../lib/gcc/arm-none-eabi/4.6.2/../../../../arm-none-eabi/lib/thumb/v7m\libstdc++.a(eh_alloc.o)
                0x0802d7d8                __cxa_free_exception
 .text.__cxa_allocate_dependent_exception
                0x0802d80c       0x58 d:/elektronik/ides/eclipse/yagarto/bin/../lib/gcc/arm-none-eabi/4.6.2/../../../../arm-none-eabi/lib/thumb/v7m\libstdc++.a(eh_alloc.o)
                0x0802d80c                __cxa_allocate_dependent_exception
 .text.__cxa_free_dependent_exception
                0x0802d864       0x44 d:/elektronik/ides/eclipse/yagarto/bin/../lib/gcc/arm-none-eabi/4.6.2/../../../../arm-none-eabi/lib/thumb/v7m\libstdc++.a(eh_alloc.o)
                0x0802d864                __cxa_free_dependent_exception
 .text._ZNK10__cxxabiv117__pbase_type_info15__pointer_catchEPKS0_PPvj
                0x0802d8a8       0x14 d:/elektronik/ides/eclipse/yagarto/bin/../lib/gcc/arm-none-eabi/4.6.2/../../../../arm-none-eabi/lib/thumb/v7m\libstdc++.a(pbase_type_info.o)
                0x0802d8a8                __cxxabiv1::__pbase_type_info::__pointer_catch(__cxxabiv1::__pbase_type_info const*, void**, unsigned int) const
 .text._ZN10__cxxabiv117__pbase_type_infoD2Ev
                0x0802d8bc       0x14 d:/elektronik/ides/eclipse/yagarto/bin/../lib/gcc/arm-none-eabi/4.6.2/../../../../arm-none-eabi/lib/thumb/v7m\libstdc++.a(pbase_type_info.o)
                0x0802d8bc                __cxxabiv1::__pbase_type_info::~__pbase_type_info()
                0x0802d8bc                __cxxabiv1::__pbase_type_info::~__pbase_type_info()
 .text._ZN10__cxxabiv117__pbase_type_infoD0Ev
                0x0802d8d0       0x1c d:/elektronik/ides/eclipse/yagarto/bin/../lib/gcc/arm-none-eabi/4.6.2/../../../../arm-none-eabi/lib/thumb/v7m\libstdc++.a(pbase_type_info.o)
                0x0802d8d0                __cxxabiv1::__pbase_type_info::~__pbase_type_info()
 .text._ZNK10__cxxabiv117__pbase_type_info10__do_catchEPKSt9type_infoPPvj
                0x0802d8ec       0x6c d:/elektronik/ides/eclipse/yagarto/bin/../lib/gcc/arm-none-eabi/4.6.2/../../../../arm-none-eabi/lib/thumb/v7m\libstdc++.a(pbase_type_info.o)
                0x0802d8ec                __cxxabiv1::__pbase_type_info::__do_catch(std::type_info const*, void**, unsigned int) const
 *(.rodata)
 .rodata        0x0802d958        0x8 ./Menue/CMenue.o
 .rodata        0x0802d960       0x38 ./FreeRTOS_EC/Source/ASyncObject.o
 .rodata        0x0802d998       0x38 ./FreeRTOS_EC/Source/CBinarySemaphore.o
 .rodata        0x0802d9d0       0x38 ./FreeRTOS_EC/Source/CCountingSemaphore.o
 .rodata        0x0802da08       0x2c ./FreeRTOS_EC/Source/CMessageTask.o
 .rodata        0x0802da34       0x2c ./FreeRTOS_EC/Source/CMutex.o
 .rodata        0x0802da60       0x40 ./FreeRTOS_EC/Source/CQueue.o
 .rodata        0x0802daa0       0x30 ./FreeRTOS_EC/Source/CTask.o
 .rodata        0x0802dad0       0x74 ./FreeRTOS/Source/tasks.o
 .rodata        0x0802db44       0x34 ./Fatfs/FatFs/src/ff.o
 .rodata        0x0802db78       0x18 ./main.o
 .rodata        0x0802db90      0xdd8 d:/elektronik/ides/eclipse/yagarto/bin/../lib/gcc/arm-none-eabi/4.6.2/../../../../arm-none-eabi/lib/thumb/v7m\libstdc++.a(cp-demangle.o)
 .rodata        0x0802e968        0x4 d:/elektronik/ides/eclipse/yagarto/bin/../lib/gcc/arm-none-eabi/4.6.2/../../../../arm-none-eabi/lib/thumb/v7m\libg.a(lib_a-impure.o)
                0x0802e968                _global_impure_ptr
 .rodata        0x0802e96c       0x20 d:/elektronik/ides/eclipse/yagarto/bin/../lib/gcc/arm-none-eabi/4.6.2/../../../../arm-none-eabi/lib/thumb/v7m\libg.a(lib_a-svfprintf.o)
 .rodata        0x0802e98c       0x20 d:/elektronik/ides/eclipse/yagarto/bin/../lib/gcc/arm-none-eabi/4.6.2/../../../../arm-none-eabi/lib/thumb/v7m\libg.a(lib_a-vfiprintf.o)
 *fill*         0x0802e9ac        0x4 00
 .rodata        0x0802e9b0      0x128 d:/elektronik/ides/eclipse/yagarto/bin/../lib/gcc/arm-none-eabi/4.6.2/../../../../arm-none-eabi/lib/thumb/v7m\libg.a(lib_a-mprec.o)
                0x0802e9c0                __mprec_tens
                0x0802ea88                __mprec_tinytens
                0x0802eab0                __mprec_bigtens
 .rodata        0x0802ead8       0x20 d:/elektronik/ides/eclipse/yagarto/bin/../lib/gcc/arm-none-eabi/4.6.2/../../../../arm-none-eabi/lib/thumb/v7m\libg.a(lib_a-svfiprintf.o)
 *(.rodata*)
 .rodata.GPIO_PIN
                0x0802eaf8        0x8 ./STM32F4-Discovery/stm32f4_discovery.o
                0x0802eaf8                GPIO_PIN
 .rodata.GPIO_CLK
                0x0802eb00       0x10 ./STM32F4-Discovery/stm32f4_discovery.o
                0x0802eb00                GPIO_CLK
 .rodata.BUTTON_PIN
                0x0802eb10        0x4 ./STM32F4-Discovery/stm32f4_discovery.o
                0x0802eb10                BUTTON_PIN
 .rodata.BUTTON_CLK
                0x0802eb14        0x4 ./STM32F4-Discovery/stm32f4_discovery.o
                0x0802eb14                BUTTON_CLK
 .rodata.BUTTON_EXTI_LINE
                0x0802eb18        0x4 ./STM32F4-Discovery/stm32f4_discovery.o
                0x0802eb18                BUTTON_EXTI_LINE
 .rodata.BUTTON_PORT_SOURCE
                0x0802eb1c        0x4 ./STM32F4-Discovery/stm32f4_discovery.o
                0x0802eb1c                BUTTON_PORT_SOURCE
 .rodata.BUTTON_PIN_SOURCE
                0x0802eb20        0x4 ./STM32F4-Discovery/stm32f4_discovery.o
                0x0802eb20                BUTTON_PIN_SOURCE
 .rodata.BUTTON_IRQn
                0x0802eb24        0x4 ./STM32F4-Discovery/stm32f4_discovery.o
                0x0802eb24                BUTTON_IRQn
 .rodata._ZTV6CMenue
                0x0802eb28       0x28 ./Menue/CMenue.o
                0x0802eb28                vtable for CMenue
 .rodata._ZL12c_FontNative
                0x0802eb50       0x18 ./Menue/CMenue.o
 .rodata._ZTV11CGraphicLCD
                0x0802eb68       0x38 ./GraphicLCD/CGraphicLCD.o
                0x0802eb68                vtable for CGraphicLCD
 .rodata._ZTV13CT6963CDriver
                0x0802eba0       0x48 ./GraphicLCD/CT6963CDriver.o
                0x0802eba0                vtable for CT6963CDriver
 .rodata._ZL12c_FontNative
                0x0802ebe8       0x18 ./GraphicLCD/CT6963CDriver.o
 .rodata._ZL20GLCD_NUMBER_OF_LINES
                0x0802ec00        0x1 ./GraphicLCD/CT6963CDriver.o
 .rodata._ZL20GLCD_PIXELS_PER_LINE
                0x0802ec01        0x1 ./GraphicLCD/CT6963CDriver.o
 .rodata._ZL15GLCD_FONT_WIDTH
                0x0802ec02        0x1 ./GraphicLCD/CT6963CDriver.o
 .rodata._ZL17GLCD_GRAPHIC_AREA
                0x0802ec03        0x1 ./GraphicLCD/CT6963CDriver.o
 .rodata._ZL14GLCD_TEXT_AREA
                0x0802ec04        0x1 ./GraphicLCD/CT6963CDriver.o
 *fill*         0x0802ec05        0x3 00
 .rodata._ZL17GLCD_GRAPHIC_SIZE
                0x0802ec08        0x4 ./GraphicLCD/CT6963CDriver.o
 .rodata._ZL14GLCD_TEXT_SIZE
                0x0802ec0c        0x4 ./GraphicLCD/CT6963CDriver.o
 .rodata._ZL14GLCD_TEXT_HOME
                0x0802ec10        0x4 ./GraphicLCD/CT6963CDriver.o
 .rodata._ZL17GLCD_GRAPHIC_HOME
                0x0802ec14        0x4 ./GraphicLCD/CT6963CDriver.o
 .rodata._ZL20GLCD_OFFSET_REGISTER
                0x0802ec18        0x1 ./GraphicLCD/CT6963CDriver.o
 *fill*         0x0802ec19        0x3 00
 .rodata._ZL21GLCD_EXTERNAL_CG_HOME
                0x0802ec1c        0x4 ./GraphicLCD/CT6963CDriver.o
 .rodata._ZL24T6963_SET_CURSOR_POINTER
                0x0802ec20        0x1 ./GraphicLCD/CT6963CDriver.o
 .rodata._ZL25T6963_SET_OFFSET_REGISTER
                0x0802ec21        0x1 ./GraphicLCD/CT6963CDriver.o
 .rodata._ZL25T6963_SET_ADDRESS_POINTER
                0x0802ec22        0x1 ./GraphicLCD/CT6963CDriver.o
 .rodata._ZL27T6963_SET_TEXT_HOME_ADDRESS
                0x0802ec23        0x1 ./GraphicLCD/CT6963CDriver.o
 .rodata._ZL19T6963_SET_TEXT_AREA
                0x0802ec24        0x1 ./GraphicLCD/CT6963CDriver.o
 .rodata._ZL30T6963_SET_GRAPHIC_HOME_ADDRESS
                0x0802ec25        0x1 ./GraphicLCD/CT6963CDriver.o
 .rodata._ZL22T6963_SET_GRAPHIC_AREA
                0x0802ec26        0x1 ./GraphicLCD/CT6963CDriver.o
 .rodata._ZL14T6963_MODE_SET
                0x0802ec27        0x1 ./GraphicLCD/CT6963CDriver.o
 .rodata._ZL18T6963_DISPLAY_MODE
                0x0802ec28        0x1 ./GraphicLCD/CT6963CDriver.o
 .rodata._ZL21T6963_CURSOR_BLINK_ON
                0x0802ec29        0x1 ./GraphicLCD/CT6963CDriver.o
 .rodata._ZL23T6963_CURSOR_DISPLAY_ON
                0x0802ec2a        0x1 ./GraphicLCD/CT6963CDriver.o
 .rodata._ZL21T6963_TEXT_DISPLAY_ON
                0x0802ec2b        0x1 ./GraphicLCD/CT6963CDriver.o
 .rodata._ZL24T6963_GRAPHIC_DISPLAY_ON
                0x0802ec2c        0x1 ./GraphicLCD/CT6963CDriver.o
 .rodata._ZL27T6963_CURSOR_PATTERN_SELECT
                0x0802ec2d        0x1 ./GraphicLCD/CT6963CDriver.o
 .rodata._ZL19T6963_CURSOR_1_LINE
                0x0802ec2e        0x1 ./GraphicLCD/CT6963CDriver.o
 .rodata._ZL19T6963_CURSOR_2_LINE
                0x0802ec2f        0x1 ./GraphicLCD/CT6963CDriver.o
 .rodata._ZL19T6963_CURSOR_3_LINE
                0x0802ec30        0x1 ./GraphicLCD/CT6963CDriver.o
 .rodata._ZL19T6963_CURSOR_4_LINE
                0x0802ec31        0x1 ./GraphicLCD/CT6963CDriver.o
 .rodata._ZL19T6963_CURSOR_5_LINE
                0x0802ec32        0x1 ./GraphicLCD/CT6963CDriver.o
 .rodata._ZL19T6963_CURSOR_6_LINE
                0x0802ec33        0x1 ./GraphicLCD/CT6963CDriver.o
 .rodata._ZL19T6963_CURSOR_7_LINE
                0x0802ec34        0x1 ./GraphicLCD/CT6963CDriver.o
 .rodata._ZL19T6963_CURSOR_8_LINE
                0x0802ec35        0x1 ./GraphicLCD/CT6963CDriver.o
 .rodata._ZL25T6963_SET_DATA_AUTO_WRITE
                0x0802ec36        0x1 ./GraphicLCD/CT6963CDriver.o
 .rodata._ZL24T6963_SET_DATA_AUTO_READ
                0x0802ec37        0x1 ./GraphicLCD/CT6963CDriver.o
 .rodata._ZL16T6963_AUTO_RESET
                0x0802ec38        0x1 ./GraphicLCD/CT6963CDriver.o
 .rodata._ZL30T6963_DATA_WRITE_AND_INCREMENT
                0x0802ec39        0x1 ./GraphicLCD/CT6963CDriver.o
 .rodata._ZL29T6963_DATA_READ_AND_INCREMENT
                0x0802ec3a        0x1 ./GraphicLCD/CT6963CDriver.o
 .rodata._ZL30T6963_DATA_WRITE_AND_DECREMENT
                0x0802ec3b        0x1 ./GraphicLCD/CT6963CDriver.o
 .rodata._ZL29T6963_DATA_READ_AND_DECREMENT
                0x0802ec3c        0x1 ./GraphicLCD/CT6963CDriver.o
 .rodata._ZL32T6963_DATA_WRITE_AND_NONVARIALBE
                0x0802ec3d        0x1 ./GraphicLCD/CT6963CDriver.o
 .rodata._ZL31T6963_DATA_READ_AND_NONVARIABLE
                0x0802ec3e        0x1 ./GraphicLCD/CT6963CDriver.o
 .rodata._ZL17T6963_SCREEN_PEEK
                0x0802ec3f        0x1 ./GraphicLCD/CT6963CDriver.o
 .rodata._ZL17T6963_SCREEN_COPY
                0x0802ec40        0x1 ./GraphicLCD/CT6963CDriver.o
 *fill*         0x0802ec41        0x7 00
 .rodata._ZTV21CT6963_GPIO_Interface
                0x0802ec48       0x48 ./GraphicLCD/CT6963GPIOInterface.o
                0x0802ec48                vtable for CT6963_GPIO_Interface
 .rodata._ZL12c_FontNative
                0x0802ec90       0x18 ./GraphicLCD/CT6963GPIOInterface.o
 .rodata._ZL12c_iDelayFore
                0x0802eca8        0x4 ./GraphicLCD/CT6963GPIOInterface.o
 .rodata._ZL13c_iDelayAfter
                0x0802ecac        0x4 ./GraphicLCD/CT6963GPIOInterface.o
 .rodata._ZL35Microsoft_Sans_Serif__12_char_table
                0x0802ecb0      0xb40 ./GraphicLCD/SansSerif12.o
 .rodata._ZL38Microsoft_Sans_Serif__12_mapping_table
                0x0802f7f0      0x100 ./GraphicLCD/SansSerif12.o
 .rodata._ZL36Microsoft_Sans_Serif__12_width_table
                0x0802f8f0       0x5c ./GraphicLCD/SansSerif12.o
 .rodata._ZL37Microsoft_Sans_Serif__12_offset_table
                0x0802f94c      0x170 ./GraphicLCD/SansSerif12.o
 .rodata._ZL17c_FontSansSerif12
                0x0802fabc       0x18 ./GraphicLCD/SansSerif12.o
 *fill*         0x0802fad4        0x4 00
 .rodata._ZTV12AManagedTask
                0x0802fad8       0x28 ./FreeRTOS_EC/Source/AManagedTask.o
                0x0802fad8                vtable for AManagedTask
 .rodata._ZTV11ASyncObject
                0x0802fb00       0x28 ./FreeRTOS_EC/Source/ASyncObject.o
                0x0802fb00                vtable for ASyncObject
 .rodata._ZTV12IFreeRTOSObj
                0x0802fb28       0x18 ./FreeRTOS_EC/Source/ASyncObject.o
                0x0802fb28                vtable for IFreeRTOSObj
 .rodata._ZZN11ASyncObject6AttachEPvE19__PRETTY_FUNCTION__
                0x0802fb40       0x34 ./FreeRTOS_EC/Source/ASyncObject.o
 *fill*         0x0802fb74        0x4 00
 .rodata._ZTV16CBinarySemaphore
                0x0802fb78       0x28 ./FreeRTOS_EC/Source/CBinarySemaphore.o
                0x0802fb78                vtable for CBinarySemaphore
 .rodata._ZZN16CBinarySemaphore4GiveEvE19__PRETTY_FUNCTION__
                0x0802fba0       0x2c ./FreeRTOS_EC/Source/CBinarySemaphore.o
 .rodata._ZZN16CBinarySemaphore4TakeEmE19__PRETTY_FUNCTION__
                0x0802fbcc       0x38 ./FreeRTOS_EC/Source/CBinarySemaphore.o
 *fill*         0x0802fc04        0x4 00
 .rodata._ZTV18CCountingSemaphore
                0x0802fc08       0x28 ./FreeRTOS_EC/Source/CCountingSemaphore.o
                0x0802fc08                vtable for CCountingSemaphore
 .rodata._ZZN18CCountingSemaphore4GiveEvE19__PRETTY_FUNCTION__
                0x0802fc30       0x2c ./FreeRTOS_EC/Source/CCountingSemaphore.o
 .rodata._ZZN18CCountingSemaphore4TakeEmE19__PRETTY_FUNCTION__
                0x0802fc5c       0x38 ./FreeRTOS_EC/Source/CCountingSemaphore.o
 .rodata._ZN12CMessageTask13s_message_mapE
                0x0802fc94        0xc ./FreeRTOS_EC/Source/CMessageTask.o
                0x0802fc94                CMessageTask::s_message_map
 .rodata._ZTV12CMessageTask
                0x0802fca0       0x38 ./FreeRTOS_EC/Source/CMessageTask.o
                0x0802fca0                vtable for CMessageTask
 .rodata._ZZN6CQueue18SendToFrontFromISREPKvPlE19__PRETTY_FUNCTION__
                0x0802fcd8       0x3c ./FreeRTOS_EC/Source/CMessageTask.o
 .rodata._ZZN6CQueue11SendToFrontEPKvmE19__PRETTY_FUNCTION__
                0x0802fd14       0x38 ./FreeRTOS_EC/Source/CMessageTask.o
 .rodata._ZZN6CQueue7ReceiveEPvmE19__PRETTY_FUNCTION__
                0x0802fd4c       0x30 ./FreeRTOS_EC/Source/CMessageTask.o
 *fill*         0x0802fd7c        0x4 00
 .rodata._ZTV6CMutex
                0x0802fd80       0x28 ./FreeRTOS_EC/Source/CMutex.o
                0x0802fd80                vtable for CMutex
 .rodata._ZZN6CMutex4GiveEvE19__PRETTY_FUNCTION__
                0x0802fda8       0x20 ./FreeRTOS_EC/Source/CMutex.o
 .rodata._ZZN6CMutex4TakeEmE19__PRETTY_FUNCTION__
                0x0802fdc8       0x2c ./FreeRTOS_EC/Source/CMutex.o
 *fill*         0x0802fdf4        0x4 00
 .rodata._ZTV6CQueue
                0x0802fdf8       0x20 ./FreeRTOS_EC/Source/CQueue.o
                0x0802fdf8                vtable for CQueue
 .rodata._ZZN6CQueue6AttachEPvE19__PRETTY_FUNCTION__
                0x0802fe18       0x2c ./FreeRTOS_EC/Source/CQueue.o
 .rodata._ZZN6CQueue6CreateEmmE19__PRETTY_FUNCTION__
                0x0802fe44       0x40 ./FreeRTOS_EC/Source/CQueue.o
 *fill*         0x0802fe84        0x4 00
 .rodata._ZTV15CRecursiveMutex
                0x0802fe88       0x28 ./FreeRTOS_EC/Source/CRecursiveMutex.o
                0x0802fe88                vtable for CRecursiveMutex
 .rodata._ZTV5CTask
                0x0802feb0       0x20 ./FreeRTOS_EC/Source/CTask.o
                0x0802feb0                vtable for CTask
 .rodata._ZZN5CTask6AttachEPvE19__PRETTY_FUNCTION__
                0x0802fed0       0x2c ./FreeRTOS_EC/Source/CTask.o
 .rodata.ulKernelPriority
                0x0802fefc        0x4 ./FreeRTOS/Source/portable/GCC/ARM_CM4F/port.o
                0x0802fefc                ulKernelPriority
 .rodata.sstbl.1840
                0x0802ff00       0x2c ./Fatfs/FatFs/src/ff.o
 .rodata.cstbl.1841
                0x0802ff2c       0x18 ./Fatfs/FatFs/src/ff.o
 .rodata.fatstr.1639
                0x0802ff44        0x4 ./Fatfs/FatFs/src/ff.o
 .rodata._ZTV12CFileHandler
                0x0802ff48       0x10 ./Fatfs/CFileHandler.o
                0x0802ff48                vtable for CFileHandler
 .rodata._ZTV24CLedHeartBeatSTM32F4Disc
                0x0802ff58       0x28 ./CLedHeartBeatSTM32F4Disc.o
                0x0802ff58                vtable for CLedHeartBeatSTM32F4Disc
 .rodata._ZL12c_FontNative
                0x0802ff80       0x18 ./main.o
 .rodata.str1.4
                0x0802ff98       0x1c d:/elektronik/ides/eclipse/yagarto/bin/../lib/gcc/arm-none-eabi/4.6.2/../../../../arm-none-eabi/lib/thumb/v7m\libstdc++.a(pure.o)
 .rodata.str1.4
                0x0802ffb4       0x94 d:/elektronik/ides/eclipse/yagarto/bin/../lib/gcc/arm-none-eabi/4.6.2/../../../../arm-none-eabi/lib/thumb/v7m\libstdc++.a(vterminate.o)
 .rodata._ZTVN10__cxxabiv115__forced_unwindE
                0x08030048       0x18 d:/elektronik/ides/eclipse/yagarto/bin/../lib/gcc/arm-none-eabi/4.6.2/../../../../arm-none-eabi/lib/thumb/v7m\libstdc++.a(eh_exception.o)
                0x08030048                vtable for __cxxabiv1::__forced_unwind
 .rodata._ZTVSt9exception
                0x08030060       0x18 d:/elektronik/ides/eclipse/yagarto/bin/../lib/gcc/arm-none-eabi/4.6.2/../../../../arm-none-eabi/lib/thumb/v7m\libstdc++.a(eh_exception.o)
                0x08030060                vtable for std::exception
 .rodata._ZTIN10__cxxabiv115__forced_unwindE
                0x08030078        0x8 d:/elektronik/ides/eclipse/yagarto/bin/../lib/gcc/arm-none-eabi/4.6.2/../../../../arm-none-eabi/lib/thumb/v7m\libstdc++.a(eh_exception.o)
                0x08030078                typeinfo for __cxxabiv1::__forced_unwind
 .rodata._ZTISt9exception
                0x08030080        0x8 d:/elektronik/ides/eclipse/yagarto/bin/../lib/gcc/arm-none-eabi/4.6.2/../../../../arm-none-eabi/lib/thumb/v7m\libstdc++.a(eh_exception.o)
                0x08030080                typeinfo for std::exception
 .rodata._ZTSSt13bad_exception
                0x08030088       0x14 d:/elektronik/ides/eclipse/yagarto/bin/../lib/gcc/arm-none-eabi/4.6.2/../../../../arm-none-eabi/lib/thumb/v7m\libstdc++.a(eh_exception.o)
                0x08030088                typeinfo name for std::bad_exception
 .rodata.str1.4
                0x0803009c       0x23 d:/elektronik/ides/eclipse/yagarto/bin/../lib/gcc/arm-none-eabi/4.6.2/../../../../arm-none-eabi/lib/thumb/v7m\libstdc++.a(eh_exception.o)
                                 0x24 (size before relaxing)
 *fill*         0x080300bf        0x1 00
 .rodata._ZTSN10__cxxabiv119__foreign_exceptionE
                0x080300c0       0x24 d:/elektronik/ides/eclipse/yagarto/bin/../lib/gcc/arm-none-eabi/4.6.2/../../../../arm-none-eabi/lib/thumb/v7m\libstdc++.a(eh_exception.o)
                0x080300c0                typeinfo name for __cxxabiv1::__foreign_exception
 .rodata._ZTIN10__cxxabiv119__foreign_exceptionE
                0x080300e4        0x8 d:/elektronik/ides/eclipse/yagarto/bin/../lib/gcc/arm-none-eabi/4.6.2/../../../../arm-none-eabi/lib/thumb/v7m\libstdc++.a(eh_exception.o)
                0x080300e4                typeinfo for __cxxabiv1::__foreign_exception
 *fill*         0x080300ec        0x4 00
 .rodata._ZTVSt13bad_exception
                0x080300f0       0x18 d:/elektronik/ides/eclipse/yagarto/bin/../lib/gcc/arm-none-eabi/4.6.2/../../../../arm-none-eabi/lib/thumb/v7m\libstdc++.a(eh_exception.o)
                0x080300f0                vtable for std::bad_exception
 .rodata._ZTSSt9exception
                0x08030108       0x10 d:/elektronik/ides/eclipse/yagarto/bin/../lib/gcc/arm-none-eabi/4.6.2/../../../../arm-none-eabi/lib/thumb/v7m\libstdc++.a(eh_exception.o)
                0x08030108                typeinfo name for std::exception
 .rodata._ZTVN10__cxxabiv119__foreign_exceptionE
                0x08030118       0x18 d:/elektronik/ides/eclipse/yagarto/bin/../lib/gcc/arm-none-eabi/4.6.2/../../../../arm-none-eabi/lib/thumb/v7m\libstdc++.a(eh_exception.o)
                0x08030118                vtable for __cxxabiv1::__foreign_exception
 .rodata._ZTSN10__cxxabiv115__forced_unwindE
                0x08030130       0x20 d:/elektronik/ides/eclipse/yagarto/bin/../lib/gcc/arm-none-eabi/4.6.2/../../../../arm-none-eabi/lib/thumb/v7m\libstdc++.a(eh_exception.o)
                0x08030130                typeinfo name for __cxxabiv1::__forced_unwind
 .rodata._ZTISt13bad_exception
                0x08030150        0xc d:/elektronik/ides/eclipse/yagarto/bin/../lib/gcc/arm-none-eabi/4.6.2/../../../../arm-none-eabi/lib/thumb/v7m\libstdc++.a(eh_exception.o)
                0x08030150                typeinfo for std::bad_exception
 .rodata._ZTIPKDn
                0x0803015c       0x10 d:/elektronik/ides/eclipse/yagarto/bin/../lib/gcc/arm-none-eabi/4.6.2/../../../../arm-none-eabi/lib/thumb/v7m\libstdc++.a(fundamental_type_info.o)
                0x0803015c                typeinfo for decltype(nullptr) const*
 .rodata._ZTIPDn
                0x0803016c       0x10 d:/elektronik/ides/eclipse/yagarto/bin/../lib/gcc/arm-none-eabi/4.6.2/../../../../arm-none-eabi/lib/thumb/v7m\libstdc++.a(fundamental_type_info.o)
                0x0803016c                typeinfo for decltype(nullptr)*
 .rodata._ZTIDn
                0x0803017c        0x8 d:/elektronik/ides/eclipse/yagarto/bin/../lib/gcc/arm-none-eabi/4.6.2/../../../../arm-none-eabi/lib/thumb/v7m\libstdc++.a(fundamental_type_info.o)
                0x0803017c                typeinfo for decltype(nullptr)
 .rodata._ZTIPKDe
                0x08030184       0x10 d:/elektronik/ides/eclipse/yagarto/bin/../lib/gcc/arm-none-eabi/4.6.2/../../../../arm-none-eabi/lib/thumb/v7m\libstdc++.a(fundamental_type_info.o)
                0x08030184                typeinfo for decimal128 const*
 .rodata._ZTIPDe
                0x08030194       0x10 d:/elektronik/ides/eclipse/yagarto/bin/../lib/gcc/arm-none-eabi/4.6.2/../../../../arm-none-eabi/lib/thumb/v7m\libstdc++.a(fundamental_type_info.o)
                0x08030194                typeinfo for decimal128*
 .rodata._ZTIDe
                0x080301a4        0x8 d:/elektronik/ides/eclipse/yagarto/bin/../lib/gcc/arm-none-eabi/4.6.2/../../../../arm-none-eabi/lib/thumb/v7m\libstdc++.a(fundamental_type_info.o)
                0x080301a4                typeinfo for decimal128
 .rodata._ZTIPKDd
                0x080301ac       0x10 d:/elektronik/ides/eclipse/yagarto/bin/../lib/gcc/arm-none-eabi/4.6.2/../../../../arm-none-eabi/lib/thumb/v7m\libstdc++.a(fundamental_type_info.o)
                0x080301ac                typeinfo for decimal64 const*
 .rodata._ZTIPDd
                0x080301bc       0x10 d:/elektronik/ides/eclipse/yagarto/bin/../lib/gcc/arm-none-eabi/4.6.2/../../../../arm-none-eabi/lib/thumb/v7m\libstdc++.a(fundamental_type_info.o)
                0x080301bc                typeinfo for decimal64*
 .rodata._ZTIDd
                0x080301cc        0x8 d:/elektronik/ides/eclipse/yagarto/bin/../lib/gcc/arm-none-eabi/4.6.2/../../../../arm-none-eabi/lib/thumb/v7m\libstdc++.a(fundamental_type_info.o)
                0x080301cc                typeinfo for decimal64
 .rodata._ZTIPKDf
                0x080301d4       0x10 d:/elektronik/ides/eclipse/yagarto/bin/../lib/gcc/arm-none-eabi/4.6.2/../../../../arm-none-eabi/lib/thumb/v7m\libstdc++.a(fundamental_type_info.o)
                0x080301d4                typeinfo for decimal32 const*
 .rodata._ZTIPDf
                0x080301e4       0x10 d:/elektronik/ides/eclipse/yagarto/bin/../lib/gcc/arm-none-eabi/4.6.2/../../../../arm-none-eabi/lib/thumb/v7m\libstdc++.a(fundamental_type_info.o)
                0x080301e4                typeinfo for decimal32*
 .rodata._ZTIDf
                0x080301f4        0x8 d:/elektronik/ides/eclipse/yagarto/bin/../lib/gcc/arm-none-eabi/4.6.2/../../../../arm-none-eabi/lib/thumb/v7m\libstdc++.a(fundamental_type_info.o)
                0x080301f4                typeinfo for decimal32
 .rodata._ZTIPKe
                0x080301fc       0x10 d:/elektronik/ides/eclipse/yagarto/bin/../lib/gcc/arm-none-eabi/4.6.2/../../../../arm-none-eabi/lib/thumb/v7m\libstdc++.a(fundamental_type_info.o)
                0x080301fc                typeinfo for long double const*
 .rodata._ZTIPe
                0x0803020c       0x10 d:/elektronik/ides/eclipse/yagarto/bin/../lib/gcc/arm-none-eabi/4.6.2/../../../../arm-none-eabi/lib/thumb/v7m\libstdc++.a(fundamental_type_info.o)
                0x0803020c                typeinfo for long double*
 .rodata._ZTIe  0x0803021c        0x8 d:/elektronik/ides/eclipse/yagarto/bin/../lib/gcc/arm-none-eabi/4.6.2/../../../../arm-none-eabi/lib/thumb/v7m\libstdc++.a(fundamental_type_info.o)
                0x0803021c                typeinfo for long double
 .rodata._ZTIPKd
                0x08030224       0x10 d:/elektronik/ides/eclipse/yagarto/bin/../lib/gcc/arm-none-eabi/4.6.2/../../../../arm-none-eabi/lib/thumb/v7m\libstdc++.a(fundamental_type_info.o)
                0x08030224                typeinfo for double const*
 .rodata._ZTIPd
                0x08030234       0x10 d:/elektronik/ides/eclipse/yagarto/bin/../lib/gcc/arm-none-eabi/4.6.2/../../../../arm-none-eabi/lib/thumb/v7m\libstdc++.a(fundamental_type_info.o)
                0x08030234                typeinfo for double*
 .rodata._ZTId  0x08030244        0x8 d:/elektronik/ides/eclipse/yagarto/bin/../lib/gcc/arm-none-eabi/4.6.2/../../../../arm-none-eabi/lib/thumb/v7m\libstdc++.a(fundamental_type_info.o)
                0x08030244                typeinfo for double
 .rodata._ZTIPKf
                0x0803024c       0x10 d:/elektronik/ides/eclipse/yagarto/bin/../lib/gcc/arm-none-eabi/4.6.2/../../../../arm-none-eabi/lib/thumb/v7m\libstdc++.a(fundamental_type_info.o)
                0x0803024c                typeinfo for float const*
 .rodata._ZTIPf
                0x0803025c       0x10 d:/elektronik/ides/eclipse/yagarto/bin/../lib/gcc/arm-none-eabi/4.6.2/../../../../arm-none-eabi/lib/thumb/v7m\libstdc++.a(fundamental_type_info.o)
                0x0803025c                typeinfo for float*
 .rodata._ZTIf  0x0803026c        0x8 d:/elektronik/ides/eclipse/yagarto/bin/../lib/gcc/arm-none-eabi/4.6.2/../../../../arm-none-eabi/lib/thumb/v7m\libstdc++.a(fundamental_type_info.o)
                0x0803026c                typeinfo for float
 .rodata._ZTIPKy
                0x08030274       0x10 d:/elektronik/ides/eclipse/yagarto/bin/../lib/gcc/arm-none-eabi/4.6.2/../../../../arm-none-eabi/lib/thumb/v7m\libstdc++.a(fundamental_type_info.o)
                0x08030274                typeinfo for unsigned long long const*
 .rodata._ZTIPy
                0x08030284       0x10 d:/elektronik/ides/eclipse/yagarto/bin/../lib/gcc/arm-none-eabi/4.6.2/../../../../arm-none-eabi/lib/thumb/v7m\libstdc++.a(fundamental_type_info.o)
                0x08030284                typeinfo for unsigned long long*
 .rodata._ZTIy  0x08030294        0x8 d:/elektronik/ides/eclipse/yagarto/bin/../lib/gcc/arm-none-eabi/4.6.2/../../../../arm-none-eabi/lib/thumb/v7m\libstdc++.a(fundamental_type_info.o)
                0x08030294                typeinfo for unsigned long long
 .rodata._ZTIPKx
                0x0803029c       0x10 d:/elektronik/ides/eclipse/yagarto/bin/../lib/gcc/arm-none-eabi/4.6.2/../../../../arm-none-eabi/lib/thumb/v7m\libstdc++.a(fundamental_type_info.o)
                0x0803029c                typeinfo for long long const*
 .rodata._ZTIPx
                0x080302ac       0x10 d:/elektronik/ides/eclipse/yagarto/bin/../lib/gcc/arm-none-eabi/4.6.2/../../../../arm-none-eabi/lib/thumb/v7m\libstdc++.a(fundamental_type_info.o)
                0x080302ac                typeinfo for long long*
 .rodata._ZTIx  0x080302bc        0x8 d:/elektronik/ides/eclipse/yagarto/bin/../lib/gcc/arm-none-eabi/4.6.2/../../../../arm-none-eabi/lib/thumb/v7m\libstdc++.a(fundamental_type_info.o)
                0x080302bc                typeinfo for long long
 .rodata._ZTIPKm
                0x080302c4       0x10 d:/elektronik/ides/eclipse/yagarto/bin/../lib/gcc/arm-none-eabi/4.6.2/../../../../arm-none-eabi/lib/thumb/v7m\libstdc++.a(fundamental_type_info.o)
                0x080302c4                typeinfo for unsigned long const*
 .rodata._ZTIPm
                0x080302d4       0x10 d:/elektronik/ides/eclipse/yagarto/bin/../lib/gcc/arm-none-eabi/4.6.2/../../../../arm-none-eabi/lib/thumb/v7m\libstdc++.a(fundamental_type_info.o)
                0x080302d4                typeinfo for unsigned long*
 .rodata._ZTIm  0x080302e4        0x8 d:/elektronik/ides/eclipse/yagarto/bin/../lib/gcc/arm-none-eabi/4.6.2/../../../../arm-none-eabi/lib/thumb/v7m\libstdc++.a(fundamental_type_info.o)
                0x080302e4                typeinfo for unsigned long
 .rodata._ZTIPKl
                0x080302ec       0x10 d:/elektronik/ides/eclipse/yagarto/bin/../lib/gcc/arm-none-eabi/4.6.2/../../../../arm-none-eabi/lib/thumb/v7m\libstdc++.a(fundamental_type_info.o)
                0x080302ec                typeinfo for long const*
 .rodata._ZTIPl
                0x080302fc       0x10 d:/elektronik/ides/eclipse/yagarto/bin/../lib/gcc/arm-none-eabi/4.6.2/../../../../arm-none-eabi/lib/thumb/v7m\libstdc++.a(fundamental_type_info.o)
                0x080302fc                typeinfo for long*
 .rodata._ZTIl  0x0803030c        0x8 d:/elektronik/ides/eclipse/yagarto/bin/../lib/gcc/arm-none-eabi/4.6.2/../../../../arm-none-eabi/lib/thumb/v7m\libstdc++.a(fundamental_type_info.o)
                0x0803030c                typeinfo for long
 .rodata._ZTIPKj
                0x08030314       0x10 d:/elektronik/ides/eclipse/yagarto/bin/../lib/gcc/arm-none-eabi/4.6.2/../../../../arm-none-eabi/lib/thumb/v7m\libstdc++.a(fundamental_type_info.o)
                0x08030314                typeinfo for unsigned int const*
 .rodata._ZTIPj
                0x08030324       0x10 d:/elektronik/ides/eclipse/yagarto/bin/../lib/gcc/arm-none-eabi/4.6.2/../../../../arm-none-eabi/lib/thumb/v7m\libstdc++.a(fundamental_type_info.o)
                0x08030324                typeinfo for unsigned int*
 .rodata._ZTIj  0x08030334        0x8 d:/elektronik/ides/eclipse/yagarto/bin/../lib/gcc/arm-none-eabi/4.6.2/../../../../arm-none-eabi/lib/thumb/v7m\libstdc++.a(fundamental_type_info.o)
                0x08030334                typeinfo for unsigned int
 .rodata._ZTIPKi
                0x0803033c       0x10 d:/elektronik/ides/eclipse/yagarto/bin/../lib/gcc/arm-none-eabi/4.6.2/../../../../arm-none-eabi/lib/thumb/v7m\libstdc++.a(fundamental_type_info.o)
                0x0803033c                typeinfo for int const*
 .rodata._ZTIPi
                0x0803034c       0x10 d:/elektronik/ides/eclipse/yagarto/bin/../lib/gcc/arm-none-eabi/4.6.2/../../../../arm-none-eabi/lib/thumb/v7m\libstdc++.a(fundamental_type_info.o)
                0x0803034c                typeinfo for int*
 .rodata._ZTIi  0x0803035c        0x8 d:/elektronik/ides/eclipse/yagarto/bin/../lib/gcc/arm-none-eabi/4.6.2/../../../../arm-none-eabi/lib/thumb/v7m\libstdc++.a(fundamental_type_info.o)
                0x0803035c                typeinfo for int
 .rodata._ZTIPKt
                0x08030364       0x10 d:/elektronik/ides/eclipse/yagarto/bin/../lib/gcc/arm-none-eabi/4.6.2/../../../../arm-none-eabi/lib/thumb/v7m\libstdc++.a(fundamental_type_info.o)
                0x08030364                typeinfo for unsigned short const*
 .rodata._ZTIPt
                0x08030374       0x10 d:/elektronik/ides/eclipse/yagarto/bin/../lib/gcc/arm-none-eabi/4.6.2/../../../../arm-none-eabi/lib/thumb/v7m\libstdc++.a(fundamental_type_info.o)
                0x08030374                typeinfo for unsigned short*
 .rodata._ZTIt  0x08030384        0x8 d:/elektronik/ides/eclipse/yagarto/bin/../lib/gcc/arm-none-eabi/4.6.2/../../../../arm-none-eabi/lib/thumb/v7m\libstdc++.a(fundamental_type_info.o)
                0x08030384                typeinfo for unsigned short
 .rodata._ZTIPKs
                0x0803038c       0x10 d:/elektronik/ides/eclipse/yagarto/bin/../lib/gcc/arm-none-eabi/4.6.2/../../../../arm-none-eabi/lib/thumb/v7m\libstdc++.a(fundamental_type_info.o)
                0x0803038c                typeinfo for short const*
 .rodata._ZTIPs
                0x0803039c       0x10 d:/elektronik/ides/eclipse/yagarto/bin/../lib/gcc/arm-none-eabi/4.6.2/../../../../arm-none-eabi/lib/thumb/v7m\libstdc++.a(fundamental_type_info.o)
                0x0803039c                typeinfo for short*
 .rodata._ZTIs  0x080303ac        0x8 d:/elektronik/ides/eclipse/yagarto/bin/../lib/gcc/arm-none-eabi/4.6.2/../../../../arm-none-eabi/lib/thumb/v7m\libstdc++.a(fundamental_type_info.o)
                0x080303ac                typeinfo for short
 .rodata._ZTIPKh
                0x080303b4       0x10 d:/elektronik/ides/eclipse/yagarto/bin/../lib/gcc/arm-none-eabi/4.6.2/../../../../arm-none-eabi/lib/thumb/v7m\libstdc++.a(fundamental_type_info.o)
                0x080303b4                typeinfo for unsigned char const*
 .rodata._ZTIPh
                0x080303c4       0x10 d:/elektronik/ides/eclipse/yagarto/bin/../lib/gcc/arm-none-eabi/4.6.2/../../../../arm-none-eabi/lib/thumb/v7m\libstdc++.a(fundamental_type_info.o)
                0x080303c4                typeinfo for unsigned char*
 .rodata._ZTIh  0x080303d4        0x8 d:/elektronik/ides/eclipse/yagarto/bin/../lib/gcc/arm-none-eabi/4.6.2/../../../../arm-none-eabi/lib/thumb/v7m\libstdc++.a(fundamental_type_info.o)
                0x080303d4                typeinfo for unsigned char
 .rodata._ZTIPKa
                0x080303dc       0x10 d:/elektronik/ides/eclipse/yagarto/bin/../lib/gcc/arm-none-eabi/4.6.2/../../../../arm-none-eabi/lib/thumb/v7m\libstdc++.a(fundamental_type_info.o)
                0x080303dc                typeinfo for signed char const*
 .rodata._ZTIPa
                0x080303ec       0x10 d:/elektronik/ides/eclipse/yagarto/bin/../lib/gcc/arm-none-eabi/4.6.2/../../../../arm-none-eabi/lib/thumb/v7m\libstdc++.a(fundamental_type_info.o)
                0x080303ec                typeinfo for signed char*
 .rodata._ZTIa  0x080303fc        0x8 d:/elektronik/ides/eclipse/yagarto/bin/../lib/gcc/arm-none-eabi/4.6.2/../../../../arm-none-eabi/lib/thumb/v7m\libstdc++.a(fundamental_type_info.o)
                0x080303fc                typeinfo for signed char
 .rodata._ZTIPKc
                0x08030404       0x10 d:/elektronik/ides/eclipse/yagarto/bin/../lib/gcc/arm-none-eabi/4.6.2/../../../../arm-none-eabi/lib/thumb/v7m\libstdc++.a(fundamental_type_info.o)
                0x08030404                typeinfo for char const*
 .rodata._ZTIPc
                0x08030414       0x10 d:/elektronik/ides/eclipse/yagarto/bin/../lib/gcc/arm-none-eabi/4.6.2/../../../../arm-none-eabi/lib/thumb/v7m\libstdc++.a(fundamental_type_info.o)
                0x08030414                typeinfo for char*
 .rodata._ZTIc  0x08030424        0x8 d:/elektronik/ides/eclipse/yagarto/bin/../lib/gcc/arm-none-eabi/4.6.2/../../../../arm-none-eabi/lib/thumb/v7m\libstdc++.a(fundamental_type_info.o)
                0x08030424                typeinfo for char
 .rodata._ZTIPKDi
                0x0803042c       0x10 d:/elektronik/ides/eclipse/yagarto/bin/../lib/gcc/arm-none-eabi/4.6.2/../../../../arm-none-eabi/lib/thumb/v7m\libstdc++.a(fundamental_type_info.o)
                0x0803042c                typeinfo for char32_t const*
 .rodata._ZTIPDi
                0x0803043c       0x10 d:/elektronik/ides/eclipse/yagarto/bin/../lib/gcc/arm-none-eabi/4.6.2/../../../../arm-none-eabi/lib/thumb/v7m\libstdc++.a(fundamental_type_info.o)
                0x0803043c                typeinfo for char32_t*
 .rodata._ZTIDi
                0x0803044c        0x8 d:/elektronik/ides/eclipse/yagarto/bin/../lib/gcc/arm-none-eabi/4.6.2/../../../../arm-none-eabi/lib/thumb/v7m\libstdc++.a(fundamental_type_info.o)
                0x0803044c                typeinfo for char32_t
 .rodata._ZTIPKDs
                0x08030454       0x10 d:/elektronik/ides/eclipse/yagarto/bin/../lib/gcc/arm-none-eabi/4.6.2/../../../../arm-none-eabi/lib/thumb/v7m\libstdc++.a(fundamental_type_info.o)
                0x08030454                typeinfo for char16_t const*
 .rodata._ZTIPDs
                0x08030464       0x10 d:/elektronik/ides/eclipse/yagarto/bin/../lib/gcc/arm-none-eabi/4.6.2/../../../../arm-none-eabi/lib/thumb/v7m\libstdc++.a(fundamental_type_info.o)
                0x08030464                typeinfo for char16_t*
 .rodata._ZTIDs
                0x08030474        0x8 d:/elektronik/ides/eclipse/yagarto/bin/../lib/gcc/arm-none-eabi/4.6.2/../../../../arm-none-eabi/lib/thumb/v7m\libstdc++.a(fundamental_type_info.o)
                0x08030474                typeinfo for char16_t
 .rodata._ZTIPKw
                0x0803047c       0x10 d:/elektronik/ides/eclipse/yagarto/bin/../lib/gcc/arm-none-eabi/4.6.2/../../../../arm-none-eabi/lib/thumb/v7m\libstdc++.a(fundamental_type_info.o)
                0x0803047c                typeinfo for wchar_t const*
 .rodata._ZTIPw
                0x0803048c       0x10 d:/elektronik/ides/eclipse/yagarto/bin/../lib/gcc/arm-none-eabi/4.6.2/../../../../arm-none-eabi/lib/thumb/v7m\libstdc++.a(fundamental_type_info.o)
                0x0803048c                typeinfo for wchar_t*
 .rodata._ZTIw  0x0803049c        0x8 d:/elektronik/ides/eclipse/yagarto/bin/../lib/gcc/arm-none-eabi/4.6.2/../../../../arm-none-eabi/lib/thumb/v7m\libstdc++.a(fundamental_type_info.o)
                0x0803049c                typeinfo for wchar_t
 .rodata._ZTIPKb
                0x080304a4       0x10 d:/elektronik/ides/eclipse/yagarto/bin/../lib/gcc/arm-none-eabi/4.6.2/../../../../arm-none-eabi/lib/thumb/v7m\libstdc++.a(fundamental_type_info.o)
                0x080304a4                typeinfo for bool const*
 .rodata._ZTIPb
                0x080304b4       0x10 d:/elektronik/ides/eclipse/yagarto/bin/../lib/gcc/arm-none-eabi/4.6.2/../../../../arm-none-eabi/lib/thumb/v7m\libstdc++.a(fundamental_type_info.o)
                0x080304b4                typeinfo for bool*
 .rodata._ZTIb  0x080304c4        0x8 d:/elektronik/ides/eclipse/yagarto/bin/../lib/gcc/arm-none-eabi/4.6.2/../../../../arm-none-eabi/lib/thumb/v7m\libstdc++.a(fundamental_type_info.o)
                0x080304c4                typeinfo for bool
 .rodata._ZTIPKv
                0x080304cc       0x10 d:/elektronik/ides/eclipse/yagarto/bin/../lib/gcc/arm-none-eabi/4.6.2/../../../../arm-none-eabi/lib/thumb/v7m\libstdc++.a(fundamental_type_info.o)
                0x080304cc                typeinfo for void const*
 .rodata._ZTIPv
                0x080304dc       0x10 d:/elektronik/ides/eclipse/yagarto/bin/../lib/gcc/arm-none-eabi/4.6.2/../../../../arm-none-eabi/lib/thumb/v7m\libstdc++.a(fundamental_type_info.o)
                0x080304dc                typeinfo for void*
 .rodata._ZTIv  0x080304ec        0x8 d:/elektronik/ides/eclipse/yagarto/bin/../lib/gcc/arm-none-eabi/4.6.2/../../../../arm-none-eabi/lib/thumb/v7m\libstdc++.a(fundamental_type_info.o)
                0x080304ec                typeinfo for void
 .rodata._ZTSPKDn
                0x080304f4        0x8 d:/elektronik/ides/eclipse/yagarto/bin/../lib/gcc/arm-none-eabi/4.6.2/../../../../arm-none-eabi/lib/thumb/v7m\libstdc++.a(fundamental_type_info.o)
                0x080304f4                typeinfo name for decltype(nullptr) const*
 .rodata._ZTSPDn
                0x080304fc        0x4 d:/elektronik/ides/eclipse/yagarto/bin/../lib/gcc/arm-none-eabi/4.6.2/../../../../arm-none-eabi/lib/thumb/v7m\libstdc++.a(fundamental_type_info.o)
                0x080304fc                typeinfo name for decltype(nullptr)*
 .rodata._ZTSDn
                0x08030500        0x4 d:/elektronik/ides/eclipse/yagarto/bin/../lib/gcc/arm-none-eabi/4.6.2/../../../../arm-none-eabi/lib/thumb/v7m\libstdc++.a(fundamental_type_info.o)
                0x08030500                typeinfo name for decltype(nullptr)
 .rodata._ZTSPKDe
                0x08030504        0x8 d:/elektronik/ides/eclipse/yagarto/bin/../lib/gcc/arm-none-eabi/4.6.2/../../../../arm-none-eabi/lib/thumb/v7m\libstdc++.a(fundamental_type_info.o)
                0x08030504                typeinfo name for decimal128 const*
 .rodata._ZTSPDe
                0x0803050c        0x4 d:/elektronik/ides/eclipse/yagarto/bin/../lib/gcc/arm-none-eabi/4.6.2/../../../../arm-none-eabi/lib/thumb/v7m\libstdc++.a(fundamental_type_info.o)
                0x0803050c                typeinfo name for decimal128*
 .rodata._ZTSDe
                0x08030510        0x4 d:/elektronik/ides/eclipse/yagarto/bin/../lib/gcc/arm-none-eabi/4.6.2/../../../../arm-none-eabi/lib/thumb/v7m\libstdc++.a(fundamental_type_info.o)
                0x08030510                typeinfo name for decimal128
 .rodata._ZTSPKDd
                0x08030514        0x8 d:/elektronik/ides/eclipse/yagarto/bin/../lib/gcc/arm-none-eabi/4.6.2/../../../../arm-none-eabi/lib/thumb/v7m\libstdc++.a(fundamental_type_info.o)
                0x08030514                typeinfo name for decimal64 const*
 .rodata._ZTSPDd
                0x0803051c        0x4 d:/elektronik/ides/eclipse/yagarto/bin/../lib/gcc/arm-none-eabi/4.6.2/../../../../arm-none-eabi/lib/thumb/v7m\libstdc++.a(fundamental_type_info.o)
                0x0803051c                typeinfo name for decimal64*
 .rodata._ZTSDd
                0x08030520        0x4 d:/elektronik/ides/eclipse/yagarto/bin/../lib/gcc/arm-none-eabi/4.6.2/../../../../arm-none-eabi/lib/thumb/v7m\libstdc++.a(fundamental_type_info.o)
                0x08030520                typeinfo name for decimal64
 .rodata._ZTSPKDf
                0x08030524        0x8 d:/elektronik/ides/eclipse/yagarto/bin/../lib/gcc/arm-none-eabi/4.6.2/../../../../arm-none-eabi/lib/thumb/v7m\libstdc++.a(fundamental_type_info.o)
                0x08030524                typeinfo name for decimal32 const*
 .rodata._ZTSPDf
                0x0803052c        0x4 d:/elektronik/ides/eclipse/yagarto/bin/../lib/gcc/arm-none-eabi/4.6.2/../../../../arm-none-eabi/lib/thumb/v7m\libstdc++.a(fundamental_type_info.o)
                0x0803052c                typeinfo name for decimal32*
 .rodata._ZTSDf
                0x08030530        0x4 d:/elektronik/ides/eclipse/yagarto/bin/../lib/gcc/arm-none-eabi/4.6.2/../../../../arm-none-eabi/lib/thumb/v7m\libstdc++.a(fundamental_type_info.o)
                0x08030530                typeinfo name for decimal32
 .rodata._ZTSPKe
                0x08030534        0x4 d:/elektronik/ides/eclipse/yagarto/bin/../lib/gcc/arm-none-eabi/4.6.2/../../../../arm-none-eabi/lib/thumb/v7m\libstdc++.a(fundamental_type_info.o)
                0x08030534                typeinfo name for long double const*
 .rodata._ZTSPe
                0x08030538        0x4 d:/elektronik/ides/eclipse/yagarto/bin/../lib/gcc/arm-none-eabi/4.6.2/../../../../arm-none-eabi/lib/thumb/v7m\libstdc++.a(fundamental_type_info.o)
                0x08030538                typeinfo name for long double*
 .rodata._ZTSe  0x0803053c        0x4 d:/elektronik/ides/eclipse/yagarto/bin/../lib/gcc/arm-none-eabi/4.6.2/../../../../arm-none-eabi/lib/thumb/v7m\libstdc++.a(fundamental_type_info.o)
                0x0803053c                typeinfo name for long double
 .rodata._ZTSPKd
                0x08030540        0x4 d:/elektronik/ides/eclipse/yagarto/bin/../lib/gcc/arm-none-eabi/4.6.2/../../../../arm-none-eabi/lib/thumb/v7m\libstdc++.a(fundamental_type_info.o)
                0x08030540                typeinfo name for double const*
 .rodata._ZTSPd
                0x08030544        0x4 d:/elektronik/ides/eclipse/yagarto/bin/../lib/gcc/arm-none-eabi/4.6.2/../../../../arm-none-eabi/lib/thumb/v7m\libstdc++.a(fundamental_type_info.o)
                0x08030544                typeinfo name for double*
 .rodata._ZTSd  0x08030548        0x4 d:/elektronik/ides/eclipse/yagarto/bin/../lib/gcc/arm-none-eabi/4.6.2/../../../../arm-none-eabi/lib/thumb/v7m\libstdc++.a(fundamental_type_info.o)
                0x08030548                typeinfo name for double
 .rodata._ZTSPKf
                0x0803054c        0x4 d:/elektronik/ides/eclipse/yagarto/bin/../lib/gcc/arm-none-eabi/4.6.2/../../../../arm-none-eabi/lib/thumb/v7m\libstdc++.a(fundamental_type_info.o)
                0x0803054c                typeinfo name for float const*
 .rodata._ZTSPf
                0x08030550        0x4 d:/elektronik/ides/eclipse/yagarto/bin/../lib/gcc/arm-none-eabi/4.6.2/../../../../arm-none-eabi/lib/thumb/v7m\libstdc++.a(fundamental_type_info.o)
                0x08030550                typeinfo name for float*
 .rodata._ZTSf  0x08030554        0x4 d:/elektronik/ides/eclipse/yagarto/bin/../lib/gcc/arm-none-eabi/4.6.2/../../../../arm-none-eabi/lib/thumb/v7m\libstdc++.a(fundamental_type_info.o)
                0x08030554                typeinfo name for float
 .rodata._ZTSPKy
                0x08030558        0x4 d:/elektronik/ides/eclipse/yagarto/bin/../lib/gcc/arm-none-eabi/4.6.2/../../../../arm-none-eabi/lib/thumb/v7m\libstdc++.a(fundamental_type_info.o)
                0x08030558                typeinfo name for unsigned long long const*
 .rodata._ZTSPy
                0x0803055c        0x4 d:/elektronik/ides/eclipse/yagarto/bin/../lib/gcc/arm-none-eabi/4.6.2/../../../../arm-none-eabi/lib/thumb/v7m\libstdc++.a(fundamental_type_info.o)
                0x0803055c                typeinfo name for unsigned long long*
 .rodata._ZTSy  0x08030560        0x4 d:/elektronik/ides/eclipse/yagarto/bin/../lib/gcc/arm-none-eabi/4.6.2/../../../../arm-none-eabi/lib/thumb/v7m\libstdc++.a(fundamental_type_info.o)
                0x08030560                typeinfo name for unsigned long long
 .rodata._ZTSPKx
                0x08030564        0x4 d:/elektronik/ides/eclipse/yagarto/bin/../lib/gcc/arm-none-eabi/4.6.2/../../../../arm-none-eabi/lib/thumb/v7m\libstdc++.a(fundamental_type_info.o)
                0x08030564                typeinfo name for long long const*
 .rodata._ZTSPx
                0x08030568        0x4 d:/elektronik/ides/eclipse/yagarto/bin/../lib/gcc/arm-none-eabi/4.6.2/../../../../arm-none-eabi/lib/thumb/v7m\libstdc++.a(fundamental_type_info.o)
                0x08030568                typeinfo name for long long*
 .rodata._ZTSx  0x0803056c        0x4 d:/elektronik/ides/eclipse/yagarto/bin/../lib/gcc/arm-none-eabi/4.6.2/../../../../arm-none-eabi/lib/thumb/v7m\libstdc++.a(fundamental_type_info.o)
                0x0803056c                typeinfo name for long long
 .rodata._ZTSPKm
                0x08030570        0x4 d:/elektronik/ides/eclipse/yagarto/bin/../lib/gcc/arm-none-eabi/4.6.2/../../../../arm-none-eabi/lib/thumb/v7m\libstdc++.a(fundamental_type_info.o)
                0x08030570                typeinfo name for unsigned long const*
 .rodata._ZTSPm
                0x08030574        0x4 d:/elektronik/ides/eclipse/yagarto/bin/../lib/gcc/arm-none-eabi/4.6.2/../../../../arm-none-eabi/lib/thumb/v7m\libstdc++.a(fundamental_type_info.o)
                0x08030574                typeinfo name for unsigned long*
 .rodata._ZTSm  0x08030578        0x4 d:/elektronik/ides/eclipse/yagarto/bin/../lib/gcc/arm-none-eabi/4.6.2/../../../../arm-none-eabi/lib/thumb/v7m\libstdc++.a(fundamental_type_info.o)
                0x08030578                typeinfo name for unsigned long
 .rodata._ZTSPKl
                0x0803057c        0x4 d:/elektronik/ides/eclipse/yagarto/bin/../lib/gcc/arm-none-eabi/4.6.2/../../../../arm-none-eabi/lib/thumb/v7m\libstdc++.a(fundamental_type_info.o)
                0x0803057c                typeinfo name for long const*
 .rodata._ZTSPl
                0x08030580        0x4 d:/elektronik/ides/eclipse/yagarto/bin/../lib/gcc/arm-none-eabi/4.6.2/../../../../arm-none-eabi/lib/thumb/v7m\libstdc++.a(fundamental_type_info.o)
                0x08030580                typeinfo name for long*
 .rodata._ZTSl  0x08030584        0x4 d:/elektronik/ides/eclipse/yagarto/bin/../lib/gcc/arm-none-eabi/4.6.2/../../../../arm-none-eabi/lib/thumb/v7m\libstdc++.a(fundamental_type_info.o)
                0x08030584                typeinfo name for long
 .rodata._ZTSPKj
                0x08030588        0x4 d:/elektronik/ides/eclipse/yagarto/bin/../lib/gcc/arm-none-eabi/4.6.2/../../../../arm-none-eabi/lib/thumb/v7m\libstdc++.a(fundamental_type_info.o)
                0x08030588                typeinfo name for unsigned int const*
 .rodata._ZTSPj
                0x0803058c        0x4 d:/elektronik/ides/eclipse/yagarto/bin/../lib/gcc/arm-none-eabi/4.6.2/../../../../arm-none-eabi/lib/thumb/v7m\libstdc++.a(fundamental_type_info.o)
                0x0803058c                typeinfo name for unsigned int*
 .rodata._ZTSj  0x08030590        0x4 d:/elektronik/ides/eclipse/yagarto/bin/../lib/gcc/arm-none-eabi/4.6.2/../../../../arm-none-eabi/lib/thumb/v7m\libstdc++.a(fundamental_type_info.o)
                0x08030590                typeinfo name for unsigned int
 .rodata._ZTSPKi
                0x08030594        0x4 d:/elektronik/ides/eclipse/yagarto/bin/../lib/gcc/arm-none-eabi/4.6.2/../../../../arm-none-eabi/lib/thumb/v7m\libstdc++.a(fundamental_type_info.o)
                0x08030594                typeinfo name for int const*
 .rodata._ZTSPi
                0x08030598        0x4 d:/elektronik/ides/eclipse/yagarto/bin/../lib/gcc/arm-none-eabi/4.6.2/../../../../arm-none-eabi/lib/thumb/v7m\libstdc++.a(fundamental_type_info.o)
                0x08030598                typeinfo name for int*
 .rodata._ZTSi  0x0803059c        0x4 d:/elektronik/ides/eclipse/yagarto/bin/../lib/gcc/arm-none-eabi/4.6.2/../../../../arm-none-eabi/lib/thumb/v7m\libstdc++.a(fundamental_type_info.o)
                0x0803059c                typeinfo name for int
 .rodata._ZTSPKt
                0x080305a0        0x4 d:/elektronik/ides/eclipse/yagarto/bin/../lib/gcc/arm-none-eabi/4.6.2/../../../../arm-none-eabi/lib/thumb/v7m\libstdc++.a(fundamental_type_info.o)
                0x080305a0                typeinfo name for unsigned short const*
 .rodata._ZTSPt
                0x080305a4        0x4 d:/elektronik/ides/eclipse/yagarto/bin/../lib/gcc/arm-none-eabi/4.6.2/../../../../arm-none-eabi/lib/thumb/v7m\libstdc++.a(fundamental_type_info.o)
                0x080305a4                typeinfo name for unsigned short*
 .rodata._ZTSt  0x080305a8        0x4 d:/elektronik/ides/eclipse/yagarto/bin/../lib/gcc/arm-none-eabi/4.6.2/../../../../arm-none-eabi/lib/thumb/v7m\libstdc++.a(fundamental_type_info.o)
                0x080305a8                typeinfo name for unsigned short
 .rodata._ZTSPKs
                0x080305ac        0x4 d:/elektronik/ides/eclipse/yagarto/bin/../lib/gcc/arm-none-eabi/4.6.2/../../../../arm-none-eabi/lib/thumb/v7m\libstdc++.a(fundamental_type_info.o)
                0x080305ac                typeinfo name for short const*
 .rodata._ZTSPs
                0x080305b0        0x4 d:/elektronik/ides/eclipse/yagarto/bin/../lib/gcc/arm-none-eabi/4.6.2/../../../../arm-none-eabi/lib/thumb/v7m\libstdc++.a(fundamental_type_info.o)
                0x080305b0                typeinfo name for short*
 .rodata._ZTSs  0x080305b4        0x4 d:/elektronik/ides/eclipse/yagarto/bin/../lib/gcc/arm-none-eabi/4.6.2/../../../../arm-none-eabi/lib/thumb/v7m\libstdc++.a(fundamental_type_info.o)
                0x080305b4                typeinfo name for short
 .rodata._ZTSPKh
                0x080305b8        0x4 d:/elektronik/ides/eclipse/yagarto/bin/../lib/gcc/arm-none-eabi/4.6.2/../../../../arm-none-eabi/lib/thumb/v7m\libstdc++.a(fundamental_type_info.o)
                0x080305b8                typeinfo name for unsigned char const*
 .rodata._ZTSPh
                0x080305bc        0x4 d:/elektronik/ides/eclipse/yagarto/bin/../lib/gcc/arm-none-eabi/4.6.2/../../../../arm-none-eabi/lib/thumb/v7m\libstdc++.a(fundamental_type_info.o)
                0x080305bc                typeinfo name for unsigned char*
 .rodata._ZTSh  0x080305c0        0x4 d:/elektronik/ides/eclipse/yagarto/bin/../lib/gcc/arm-none-eabi/4.6.2/../../../../arm-none-eabi/lib/thumb/v7m\libstdc++.a(fundamental_type_info.o)
                0x080305c0                typeinfo name for unsigned char
 .rodata._ZTSPKa
                0x080305c4        0x4 d:/elektronik/ides/eclipse/yagarto/bin/../lib/gcc/arm-none-eabi/4.6.2/../../../../arm-none-eabi/lib/thumb/v7m\libstdc++.a(fundamental_type_info.o)
                0x080305c4                typeinfo name for signed char const*
 .rodata._ZTSPa
                0x080305c8        0x4 d:/elektronik/ides/eclipse/yagarto/bin/../lib/gcc/arm-none-eabi/4.6.2/../../../../arm-none-eabi/lib/thumb/v7m\libstdc++.a(fundamental_type_info.o)
                0x080305c8                typeinfo name for signed char*
 .rodata._ZTSa  0x080305cc        0x4 d:/elektronik/ides/eclipse/yagarto/bin/../lib/gcc/arm-none-eabi/4.6.2/../../../../arm-none-eabi/lib/thumb/v7m\libstdc++.a(fundamental_type_info.o)
                0x080305cc                typeinfo name for signed char
 .rodata._ZTSPKc
                0x080305d0        0x4 d:/elektronik/ides/eclipse/yagarto/bin/../lib/gcc/arm-none-eabi/4.6.2/../../../../arm-none-eabi/lib/thumb/v7m\libstdc++.a(fundamental_type_info.o)
                0x080305d0                typeinfo name for char const*
 .rodata._ZTSPc
                0x080305d4        0x4 d:/elektronik/ides/eclipse/yagarto/bin/../lib/gcc/arm-none-eabi/4.6.2/../../../../arm-none-eabi/lib/thumb/v7m\libstdc++.a(fundamental_type_info.o)
                0x080305d4                typeinfo name for char*
 .rodata._ZTSc  0x080305d8        0x4 d:/elektronik/ides/eclipse/yagarto/bin/../lib/gcc/arm-none-eabi/4.6.2/../../../../arm-none-eabi/lib/thumb/v7m\libstdc++.a(fundamental_type_info.o)
                0x080305d8                typeinfo name for char
 .rodata._ZTSPKDi
                0x080305dc        0x8 d:/elektronik/ides/eclipse/yagarto/bin/../lib/gcc/arm-none-eabi/4.6.2/../../../../arm-none-eabi/lib/thumb/v7m\libstdc++.a(fundamental_type_info.o)
                0x080305dc                typeinfo name for char32_t const*
 .rodata._ZTSPDi
                0x080305e4        0x4 d:/elektronik/ides/eclipse/yagarto/bin/../lib/gcc/arm-none-eabi/4.6.2/../../../../arm-none-eabi/lib/thumb/v7m\libstdc++.a(fundamental_type_info.o)
                0x080305e4                typeinfo name for char32_t*
 .rodata._ZTSDi
                0x080305e8        0x4 d:/elektronik/ides/eclipse/yagarto/bin/../lib/gcc/arm-none-eabi/4.6.2/../../../../arm-none-eabi/lib/thumb/v7m\libstdc++.a(fundamental_type_info.o)
                0x080305e8                typeinfo name for char32_t
 .rodata._ZTSPKDs
                0x080305ec        0x8 d:/elektronik/ides/eclipse/yagarto/bin/../lib/gcc/arm-none-eabi/4.6.2/../../../../arm-none-eabi/lib/thumb/v7m\libstdc++.a(fundamental_type_info.o)
                0x080305ec                typeinfo name for char16_t const*
 .rodata._ZTSPDs
                0x080305f4        0x4 d:/elektronik/ides/eclipse/yagarto/bin/../lib/gcc/arm-none-eabi/4.6.2/../../../../arm-none-eabi/lib/thumb/v7m\libstdc++.a(fundamental_type_info.o)
                0x080305f4                typeinfo name for char16_t*
 .rodata._ZTSDs
                0x080305f8        0x4 d:/elektronik/ides/eclipse/yagarto/bin/../lib/gcc/arm-none-eabi/4.6.2/../../../../arm-none-eabi/lib/thumb/v7m\libstdc++.a(fundamental_type_info.o)
                0x080305f8                typeinfo name for char16_t
 .rodata._ZTSPKw
                0x080305fc        0x4 d:/elektronik/ides/eclipse/yagarto/bin/../lib/gcc/arm-none-eabi/4.6.2/../../../../arm-none-eabi/lib/thumb/v7m\libstdc++.a(fundamental_type_info.o)
                0x080305fc                typeinfo name for wchar_t const*
 .rodata._ZTSPw
                0x08030600        0x4 d:/elektronik/ides/eclipse/yagarto/bin/../lib/gcc/arm-none-eabi/4.6.2/../../../../arm-none-eabi/lib/thumb/v7m\libstdc++.a(fundamental_type_info.o)
                0x08030600                typeinfo name for wchar_t*
 .rodata._ZTSw  0x08030604        0x4 d:/elektronik/ides/eclipse/yagarto/bin/../lib/gcc/arm-none-eabi/4.6.2/../../../../arm-none-eabi/lib/thumb/v7m\libstdc++.a(fundamental_type_info.o)
                0x08030604                typeinfo name for wchar_t
 .rodata._ZTSPKb
                0x08030608        0x4 d:/elektronik/ides/eclipse/yagarto/bin/../lib/gcc/arm-none-eabi/4.6.2/../../../../arm-none-eabi/lib/thumb/v7m\libstdc++.a(fundamental_type_info.o)
                0x08030608                typeinfo name for bool const*
 .rodata._ZTSPb
                0x0803060c        0x4 d:/elektronik/ides/eclipse/yagarto/bin/../lib/gcc/arm-none-eabi/4.6.2/../../../../arm-none-eabi/lib/thumb/v7m\libstdc++.a(fundamental_type_info.o)
                0x0803060c                typeinfo name for bool*
 .rodata._ZTSb  0x08030610        0x4 d:/elektronik/ides/eclipse/yagarto/bin/../lib/gcc/arm-none-eabi/4.6.2/../../../../arm-none-eabi/lib/thumb/v7m\libstdc++.a(fundamental_type_info.o)
                0x08030610                typeinfo name for bool
 .rodata._ZTSPKv
                0x08030614        0x4 d:/elektronik/ides/eclipse/yagarto/bin/../lib/gcc/arm-none-eabi/4.6.2/../../../../arm-none-eabi/lib/thumb/v7m\libstdc++.a(fundamental_type_info.o)
                0x08030614                typeinfo name for void const*
 .rodata._ZTSPv
                0x08030618        0x4 d:/elektronik/ides/eclipse/yagarto/bin/../lib/gcc/arm-none-eabi/4.6.2/../../../../arm-none-eabi/lib/thumb/v7m\libstdc++.a(fundamental_type_info.o)
                0x08030618                typeinfo name for void*
 .rodata._ZTSv  0x0803061c        0x4 d:/elektronik/ides/eclipse/yagarto/bin/../lib/gcc/arm-none-eabi/4.6.2/../../../../arm-none-eabi/lib/thumb/v7m\libstdc++.a(fundamental_type_info.o)
                0x0803061c                typeinfo name for void
 .rodata._ZTIN10__cxxabiv123__fundamental_type_infoE
                0x08030620        0xc d:/elektronik/ides/eclipse/yagarto/bin/../lib/gcc/arm-none-eabi/4.6.2/../../../../arm-none-eabi/lib/thumb/v7m\libstdc++.a(fundamental_type_info.o)
                0x08030620                typeinfo for __cxxabiv1::__fundamental_type_info
 .rodata._ZTSN10__cxxabiv123__fundamental_type_infoE
                0x0803062c       0x28 d:/elektronik/ides/eclipse/yagarto/bin/../lib/gcc/arm-none-eabi/4.6.2/../../../../arm-none-eabi/lib/thumb/v7m\libstdc++.a(fundamental_type_info.o)
                0x0803062c                typeinfo name for __cxxabiv1::__fundamental_type_info
 *fill*         0x08030654        0x4 00
 .rodata._ZTVN10__cxxabiv123__fundamental_type_infoE
                0x08030658       0x20 d:/elektronik/ides/eclipse/yagarto/bin/../lib/gcc/arm-none-eabi/4.6.2/../../../../arm-none-eabi/lib/thumb/v7m\libstdc++.a(fundamental_type_info.o)
                0x08030658                vtable for __cxxabiv1::__fundamental_type_info
 .rodata._ZTSN10__cxxabiv119__pointer_type_infoE
                0x08030678       0x24 d:/elektronik/ides/eclipse/yagarto/bin/../lib/gcc/arm-none-eabi/4.6.2/../../../../arm-none-eabi/lib/thumb/v7m\libstdc++.a(pointer_type_info.o)
                0x08030678                typeinfo name for __cxxabiv1::__pointer_type_info
 .rodata._ZTIN10__cxxabiv119__pointer_type_infoE
                0x0803069c        0xc d:/elektronik/ides/eclipse/yagarto/bin/../lib/gcc/arm-none-eabi/4.6.2/../../../../arm-none-eabi/lib/thumb/v7m\libstdc++.a(pointer_type_info.o)
                0x0803069c                typeinfo for __cxxabiv1::__pointer_type_info
 .rodata._ZTVN10__cxxabiv119__pointer_type_infoE
                0x080306a8       0x28 d:/elektronik/ides/eclipse/yagarto/bin/../lib/gcc/arm-none-eabi/4.6.2/../../../../arm-none-eabi/lib/thumb/v7m\libstdc++.a(pointer_type_info.o)
                0x080306a8                vtable for __cxxabiv1::__pointer_type_info
 .rodata._ZTVN10__cxxabiv120__si_class_type_infoE
                0x080306d0       0x30 d:/elektronik/ides/eclipse/yagarto/bin/../lib/gcc/arm-none-eabi/4.6.2/../../../../arm-none-eabi/lib/thumb/v7m\libstdc++.a(si_class_type_info.o)
                0x080306d0                vtable for __cxxabiv1::__si_class_type_info
 .rodata._ZTIN10__cxxabiv120__si_class_type_infoE
                0x08030700        0xc d:/elektronik/ides/eclipse/yagarto/bin/../lib/gcc/arm-none-eabi/4.6.2/../../../../arm-none-eabi/lib/thumb/v7m\libstdc++.a(si_class_type_info.o)
                0x08030700                typeinfo for __cxxabiv1::__si_class_type_info
 .rodata._ZTSN10__cxxabiv120__si_class_type_infoE
                0x0803070c       0x28 d:/elektronik/ides/eclipse/yagarto/bin/../lib/gcc/arm-none-eabi/4.6.2/../../../../arm-none-eabi/lib/thumb/v7m\libstdc++.a(si_class_type_info.o)
                0x0803070c                typeinfo name for __cxxabiv1::__si_class_type_info
 .rodata._ZTISt9type_info
                0x08030734        0x8 d:/elektronik/ides/eclipse/yagarto/bin/../lib/gcc/arm-none-eabi/4.6.2/../../../../arm-none-eabi/lib/thumb/v7m\libstdc++.a(tinfo.o)
                0x08030734                typeinfo for std::type_info
 .rodata._ZTSSt9type_info
                0x0803073c       0x10 d:/elektronik/ides/eclipse/yagarto/bin/../lib/gcc/arm-none-eabi/4.6.2/../../../../arm-none-eabi/lib/thumb/v7m\libstdc++.a(tinfo.o)
                0x0803073c                typeinfo name for std::type_info
 *fill*         0x0803074c        0x4 00
 .rodata._ZTVSt9type_info
                0x08030750       0x20 d:/elektronik/ides/eclipse/yagarto/bin/../lib/gcc/arm-none-eabi/4.6.2/../../../../arm-none-eabi/lib/thumb/v7m\libstdc++.a(tinfo.o)
                0x08030750                vtable for std::type_info
 .rodata._ZTISt8bad_cast
                0x08030770        0xc d:/elektronik/ides/eclipse/yagarto/bin/../lib/gcc/arm-none-eabi/4.6.2/../../../../arm-none-eabi/lib/thumb/v7m\libstdc++.a(bad_cast.o)
                0x08030770                typeinfo for std::bad_cast
 .rodata._ZTSSt8bad_cast
                0x0803077c        0xc d:/elektronik/ides/eclipse/yagarto/bin/../lib/gcc/arm-none-eabi/4.6.2/../../../../arm-none-eabi/lib/thumb/v7m\libstdc++.a(bad_cast.o)
                0x0803077c                typeinfo name for std::bad_cast
 .rodata._ZTVSt8bad_cast
                0x08030788       0x18 d:/elektronik/ides/eclipse/yagarto/bin/../lib/gcc/arm-none-eabi/4.6.2/../../../../arm-none-eabi/lib/thumb/v7m\libstdc++.a(bad_cast.o)
                0x08030788                vtable for std::bad_cast
 .rodata.str1.4
                0x080307a0        0xe d:/elektronik/ides/eclipse/yagarto/bin/../lib/gcc/arm-none-eabi/4.6.2/../../../../arm-none-eabi/lib/thumb/v7m\libstdc++.a(bad_cast.o)
                                 0x10 (size before relaxing)
 *fill*         0x080307ae        0x2 00
 .rodata._ZTVSt10bad_typeid
                0x080307b0       0x18 d:/elektronik/ides/eclipse/yagarto/bin/../lib/gcc/arm-none-eabi/4.6.2/../../../../arm-none-eabi/lib/thumb/v7m\libstdc++.a(bad_typeid.o)
                0x080307b0                vtable for std::bad_typeid
 .rodata._ZTISt10bad_typeid
                0x080307c8        0xc d:/elektronik/ides/eclipse/yagarto/bin/../lib/gcc/arm-none-eabi/4.6.2/../../../../arm-none-eabi/lib/thumb/v7m\libstdc++.a(bad_typeid.o)
                0x080307c8                typeinfo for std::bad_typeid
 .rodata.str1.4
                0x080307d4       0x10 d:/elektronik/ides/eclipse/yagarto/bin/../lib/gcc/arm-none-eabi/4.6.2/../../../../arm-none-eabi/lib/thumb/v7m\libstdc++.a(bad_typeid.o)
 .rodata._ZTSSt10bad_typeid
                0x080307e4       0x10 d:/elektronik/ides/eclipse/yagarto/bin/../lib/gcc/arm-none-eabi/4.6.2/../../../../arm-none-eabi/lib/thumb/v7m\libstdc++.a(bad_typeid.o)
                0x080307e4                typeinfo name for std::bad_typeid
 *fill*         0x080307f4        0x4 00
 .rodata._ZTVN10__cxxabiv117__class_type_infoE
                0x080307f8       0x30 d:/elektronik/ides/eclipse/yagarto/bin/../lib/gcc/arm-none-eabi/4.6.2/../../../../arm-none-eabi/lib/thumb/v7m\libstdc++.a(class_type_info.o)
                0x080307f8                vtable for __cxxabiv1::__class_type_info
 .rodata._ZTIN10__cxxabiv117__class_type_infoE
                0x08030828        0xc d:/elektronik/ides/eclipse/yagarto/bin/../lib/gcc/arm-none-eabi/4.6.2/../../../../arm-none-eabi/lib/thumb/v7m\libstdc++.a(class_type_info.o)
                0x08030828                typeinfo for __cxxabiv1::__class_type_info
 .rodata._ZTSN10__cxxabiv117__class_type_infoE
                0x08030834       0x24 d:/elektronik/ides/eclipse/yagarto/bin/../lib/gcc/arm-none-eabi/4.6.2/../../../../arm-none-eabi/lib/thumb/v7m\libstdc++.a(class_type_info.o)
                0x08030834                typeinfo name for __cxxabiv1::__class_type_info
 .rodata._ZTIN10__cxxabiv117__pbase_type_infoE
                0x08030858        0xc d:/elektronik/ides/eclipse/yagarto/bin/../lib/gcc/arm-none-eabi/4.6.2/../../../../arm-none-eabi/lib/thumb/v7m\libstdc++.a(pbase_type_info.o)
                0x08030858                typeinfo for __cxxabiv1::__pbase_type_info
 .rodata._ZTSN10__cxxabiv117__pbase_type_infoE
                0x08030864       0x24 d:/elektronik/ides/eclipse/yagarto/bin/../lib/gcc/arm-none-eabi/4.6.2/../../../../arm-none-eabi/lib/thumb/v7m\libstdc++.a(pbase_type_info.o)
                0x08030864                typeinfo name for __cxxabiv1::__pbase_type_info
 .rodata._ZTVN10__cxxabiv117__pbase_type_infoE
                0x08030888       0x28 d:/elektronik/ides/eclipse/yagarto/bin/../lib/gcc/arm-none-eabi/4.6.2/../../../../arm-none-eabi/lib/thumb/v7m\libstdc++.a(pbase_type_info.o)
                0x08030888                vtable for __cxxabiv1::__pbase_type_info
 .rodata.str1.4
                0x080308b0       0x3f d:/elektronik/ides/eclipse/yagarto/bin/../lib/gcc/arm-none-eabi/4.6.2/../../../../arm-none-eabi/lib/thumb/v7m\libg.a(lib_a-assert.o)
                                 0x44 (size before relaxing)
 *fill*         0x080308ef        0x1 00
 .rodata.str1.4
                0x080308f0        0x2 d:/elektronik/ides/eclipse/yagarto/bin/../lib/gcc/arm-none-eabi/4.6.2/../../../../arm-none-eabi/lib/thumb/v7m\libg.a(lib_a-impure.o)
                                  0x4 (size before relaxing)
 *fill*         0x080308f2        0x2 00
 .rodata.str1.4
                0x080308f4       0x42 d:/elektronik/ides/eclipse/yagarto/bin/../lib/gcc/arm-none-eabi/4.6.2/../../../../arm-none-eabi/lib/thumb/v7m\libg.a(lib_a-svfprintf.o)
                                 0x44 (size before relaxing)
 .rodata.str1.4
                0x00000000       0x30 d:/elektronik/ides/eclipse/yagarto/bin/../lib/gcc/arm-none-eabi/4.6.2/../../../../arm-none-eabi/lib/thumb/v7m\libg.a(lib_a-vfiprintf.o)
 *fill*         0x08030936        0x2 00
 .rodata.str1.4
                0x08030938       0x10 d:/elektronik/ides/eclipse/yagarto/bin/../lib/gcc/arm-none-eabi/4.6.2/../../../../arm-none-eabi/lib/thumb/v7m\libg.a(lib_a-dtoa.o)
                                 0x14 (size before relaxing)
 .rodata.str1.4
                0x08030948        0xc d:/elektronik/ides/eclipse/yagarto/bin/../lib/gcc/arm-none-eabi/4.6.2/../../../../arm-none-eabi/lib/thumb/v7m\libg.a(lib_a-locale.o)
                                 0x14 (size before relaxing)
 .rodata.str1.4
                0x00000000       0x30 d:/elektronik/ides/eclipse/yagarto/bin/../lib/gcc/arm-none-eabi/4.6.2/../../../../arm-none-eabi/lib/thumb/v7m\libg.a(lib_a-svfiprintf.o)
 *(.glue_7)
 .glue_7        0x00000000        0x0 linker stubs
 *(.glue_7t)
 .glue_7t       0x00000000        0x0 linker stubs
 *(.eh_frame)
 .eh_frame      0x08030954        0x0 d:/elektronik/ides/eclipse/yagarto/bin/../lib/gcc/arm-none-eabi/4.6.2/thumb/v7m/crtbegin.o
 .eh_frame      0x08030954        0x4 d:/elektronik/ides/eclipse/yagarto/bin/../lib/gcc/arm-none-eabi/4.6.2/thumb/v7m/crtend.o
 *(.init)
 .init          0x08030958        0x4 d:/elektronik/ides/eclipse/yagarto/bin/../lib/gcc/arm-none-eabi/4.6.2/thumb/v7m/crti.o
                0x08030958                _init
 .init          0x0803095c        0x8 d:/elektronik/ides/eclipse/yagarto/bin/../lib/gcc/arm-none-eabi/4.6.2/thumb/v7m/crtn.o
 *(.fini)
 .fini          0x08030964        0x4 d:/elektronik/ides/eclipse/yagarto/bin/../lib/gcc/arm-none-eabi/4.6.2/thumb/v7m/crti.o
                0x08030964                _fini
 .fini          0x08030968        0x8 d:/elektronik/ides/eclipse/yagarto/bin/../lib/gcc/arm-none-eabi/4.6.2/thumb/v7m/crtn.o
                0x08030970                . = ALIGN (0x4)
                0x08030970                _etext = .

.vfp11_veneer   0x08030970        0x0
 .vfp11_veneer  0x00000000        0x0 linker stubs

.v4_bx          0x08030970        0x0
 .v4_bx         0x00000000        0x0 linker stubs

.ARM.extab      0x08030970      0x144
 *(.ARM.extab* .gnu.linkonce.armextab.*)
 .ARM.extab     0x08030970        0x0 d:/elektronik/ides/eclipse/yagarto/bin/../lib/gcc/arm-none-eabi/4.6.2/../../../../arm-none-eabi/lib/thumb/v7m/crt0.o
 .ARM.extab.text.__aeabi_atexit
                0x08030970        0x0 d:/elektronik/ides/eclipse/yagarto/bin/../lib/gcc/arm-none-eabi/4.6.2/../../../../arm-none-eabi/lib/thumb/v7m\libstdc++.a(atexit_arm.o)
 .ARM.extab.text._ZdlPv
                0x08030970        0x0 d:/elektronik/ides/eclipse/yagarto/bin/../lib/gcc/arm-none-eabi/4.6.2/../../../../arm-none-eabi/lib/thumb/v7m\libstdc++.a(del_op.o)
 .ARM.extab.text.__cxa_pure_virtual
                0x08030970        0xc d:/elektronik/ides/eclipse/yagarto/bin/../lib/gcc/arm-none-eabi/4.6.2/../../../../arm-none-eabi/lib/thumb/v7m\libstdc++.a(pure.o)
 .ARM.extab.text._ZN10__cxxabiv111__terminateEPFvvE
                0x0803097c       0x2c d:/elektronik/ides/eclipse/yagarto/bin/../lib/gcc/arm-none-eabi/4.6.2/../../../../arm-none-eabi/lib/thumb/v7m\libstdc++.a(eh_terminate.o)
 .ARM.extab.text._ZSt9terminatev
                0x080309a8        0x0 d:/elektronik/ides/eclipse/yagarto/bin/../lib/gcc/arm-none-eabi/4.6.2/../../../../arm-none-eabi/lib/thumb/v7m\libstdc++.a(eh_terminate.o)
 .ARM.extab.text._ZN10__cxxabiv112__unexpectedEPFvvE
                0x080309a8        0xc d:/elektronik/ides/eclipse/yagarto/bin/../lib/gcc/arm-none-eabi/4.6.2/../../../../arm-none-eabi/lib/thumb/v7m\libstdc++.a(eh_terminate.o)
 .ARM.extab.text._ZSt10unexpectedv
                0x080309b4        0xc d:/elektronik/ides/eclipse/yagarto/bin/../lib/gcc/arm-none-eabi/4.6.2/../../../../arm-none-eabi/lib/thumb/v7m\libstdc++.a(eh_terminate.o)
 .ARM.extab.text._ZSt13set_terminatePFvvE
                0x080309c0        0x0 d:/elektronik/ides/eclipse/yagarto/bin/../lib/gcc/arm-none-eabi/4.6.2/../../../../arm-none-eabi/lib/thumb/v7m\libstdc++.a(eh_terminate.o)
 .ARM.extab.text._ZSt14set_unexpectedPFvvE
                0x080309c0        0x0 d:/elektronik/ides/eclipse/yagarto/bin/../lib/gcc/arm-none-eabi/4.6.2/../../../../arm-none-eabi/lib/thumb/v7m\libstdc++.a(eh_terminate.o)
 .ARM.extab.text._ZN9__gnu_cxx27__verbose_terminate_handlerEv
                0x080309c0       0x3c d:/elektronik/ides/eclipse/yagarto/bin/../lib/gcc/arm-none-eabi/4.6.2/../../../../arm-none-eabi/lib/thumb/v7m\libstdc++.a(vterminate.o)
 .ARM.extab.text.__cxa_type_match
                0x080309fc        0x0 d:/elektronik/ides/eclipse/yagarto/bin/../lib/gcc/arm-none-eabi/4.6.2/../../../../arm-none-eabi/lib/thumb/v7m\libstdc++.a(eh_arm.o)
 .ARM.extab.text.__cxa_begin_cleanup
                0x080309fc        0x0 d:/elektronik/ides/eclipse/yagarto/bin/../lib/gcc/arm-none-eabi/4.6.2/../../../../arm-none-eabi/lib/thumb/v7m\libstdc++.a(eh_arm.o)
 .ARM.extab.text.__gnu_end_cleanup
                0x080309fc        0x0 d:/elektronik/ides/eclipse/yagarto/bin/../lib/gcc/arm-none-eabi/4.6.2/../../../../arm-none-eabi/lib/thumb/v7m\libstdc++.a(eh_arm.o)
 .ARM.extab.text.__cxa_bad_cast
                0x080309fc        0xc d:/elektronik/ides/eclipse/yagarto/bin/../lib/gcc/arm-none-eabi/4.6.2/../../../../arm-none-eabi/lib/thumb/v7m\libstdc++.a(eh_aux_runtime.o)
 .ARM.extab.text.__cxa_bad_typeid
                0x08030a08        0xc d:/elektronik/ides/eclipse/yagarto/bin/../lib/gcc/arm-none-eabi/4.6.2/../../../../arm-none-eabi/lib/thumb/v7m\libstdc++.a(eh_aux_runtime.o)
 .ARM.extab.text.__cxa_call_terminate
                0x08030a14        0x0 d:/elektronik/ides/eclipse/yagarto/bin/../lib/gcc/arm-none-eabi/4.6.2/../../../../arm-none-eabi/lib/thumb/v7m\libstdc++.a(eh_call.o)
 .ARM.extab.text.__cxa_call_unexpected
                0x08030a14       0x28 d:/elektronik/ides/eclipse/yagarto/bin/../lib/gcc/arm-none-eabi/4.6.2/../../../../arm-none-eabi/lib/thumb/v7m\libstdc++.a(eh_call.o)
 .ARM.extab.text.__cxa_get_exception_ptr
                0x08030a3c        0x0 d:/elektronik/ides/eclipse/yagarto/bin/../lib/gcc/arm-none-eabi/4.6.2/../../../../arm-none-eabi/lib/thumb/v7m\libstdc++.a(eh_catch.o)
 .ARM.extab.text.__cxa_begin_catch
                0x08030a3c       0x1c d:/elektronik/ides/eclipse/yagarto/bin/../lib/gcc/arm-none-eabi/4.6.2/../../../../arm-none-eabi/lib/thumb/v7m\libstdc++.a(eh_catch.o)
 .ARM.extab.text.__cxa_end_catch
                0x08030a58        0x0 d:/elektronik/ides/eclipse/yagarto/bin/../lib/gcc/arm-none-eabi/4.6.2/../../../../arm-none-eabi/lib/thumb/v7m\libstdc++.a(eh_catch.o)
 .ARM.extab.text._ZSt18uncaught_exceptionv
                0x08030a58        0x0 d:/elektronik/ides/eclipse/yagarto/bin/../lib/gcc/arm-none-eabi/4.6.2/../../../../arm-none-eabi/lib/thumb/v7m\libstdc++.a(eh_catch.o)
 .ARM.extab.text._ZNSt9exceptionD2Ev
                0x08030a58        0x0 d:/elektronik/ides/eclipse/yagarto/bin/../lib/gcc/arm-none-eabi/4.6.2/../../../../arm-none-eabi/lib/thumb/v7m\libstdc++.a(eh_exception.o)
 .ARM.extab.text._ZNSt13bad_exceptionD2Ev
                0x08030a58        0x0 d:/elektronik/ides/eclipse/yagarto/bin/../lib/gcc/arm-none-eabi/4.6.2/../../../../arm-none-eabi/lib/thumb/v7m\libstdc++.a(eh_exception.o)
 .ARM.extab.text._ZN10__cxxabiv115__forced_unwindD2Ev
                0x08030a58        0x0 d:/elektronik/ides/eclipse/yagarto/bin/../lib/gcc/arm-none-eabi/4.6.2/../../../../arm-none-eabi/lib/thumb/v7m\libstdc++.a(eh_exception.o)
 .ARM.extab.text._ZN10__cxxabiv119__foreign_exceptionD2Ev
                0x08030a58        0x0 d:/elektronik/ides/eclipse/yagarto/bin/../lib/gcc/arm-none-eabi/4.6.2/../../../../arm-none-eabi/lib/thumb/v7m\libstdc++.a(eh_exception.o)
 .ARM.extab.text._ZNKSt9exception4whatEv
                0x08030a58        0x0 d:/elektronik/ides/eclipse/yagarto/bin/../lib/gcc/arm-none-eabi/4.6.2/../../../../arm-none-eabi/lib/thumb/v7m\libstdc++.a(eh_exception.o)
 .ARM.extab.text._ZNKSt13bad_exception4whatEv
                0x08030a58        0x0 d:/elektronik/ides/eclipse/yagarto/bin/../lib/gcc/arm-none-eabi/4.6.2/../../../../arm-none-eabi/lib/thumb/v7m\libstdc++.a(eh_exception.o)
 .ARM.extab.text._ZN10__cxxabiv119__foreign_exceptionD0Ev
                0x08030a58        0x0 d:/elektronik/ides/eclipse/yagarto/bin/../lib/gcc/arm-none-eabi/4.6.2/../../../../arm-none-eabi/lib/thumb/v7m\libstdc++.a(eh_exception.o)
 .ARM.extab.text._ZN10__cxxabiv115__forced_unwindD0Ev
                0x08030a58        0x0 d:/elektronik/ides/eclipse/yagarto/bin/../lib/gcc/arm-none-eabi/4.6.2/../../../../arm-none-eabi/lib/thumb/v7m\libstdc++.a(eh_exception.o)
 .ARM.extab.text._ZNSt13bad_exceptionD0Ev
                0x08030a58        0x0 d:/elektronik/ides/eclipse/yagarto/bin/../lib/gcc/arm-none-eabi/4.6.2/../../../../arm-none-eabi/lib/thumb/v7m\libstdc++.a(eh_exception.o)
 .ARM.extab.text._ZNSt9exceptionD0Ev
                0x08030a58        0x0 d:/elektronik/ides/eclipse/yagarto/bin/../lib/gcc/arm-none-eabi/4.6.2/../../../../arm-none-eabi/lib/thumb/v7m\libstdc++.a(eh_exception.o)
 .ARM.extab.text.__cxa_get_globals_fast
                0x08030a58        0x0 d:/elektronik/ides/eclipse/yagarto/bin/../lib/gcc/arm-none-eabi/4.6.2/../../../../arm-none-eabi/lib/thumb/v7m\libstdc++.a(eh_globals.o)
 .ARM.extab.text.__cxa_get_globals
                0x08030a58        0x0 d:/elektronik/ides/eclipse/yagarto/bin/../lib/gcc/arm-none-eabi/4.6.2/../../../../arm-none-eabi/lib/thumb/v7m\libstdc++.a(eh_globals.o)
 .ARM.extab.text._ZL12read_sleb128PKhPl
                0x08030a58        0x0 d:/elektronik/ides/eclipse/yagarto/bin/../lib/gcc/arm-none-eabi/4.6.2/../../../../arm-none-eabi/lib/thumb/v7m\libstdc++.a(eh_personality.o)
 .ARM.extab.text._ZL28read_encoded_value_with_basehjPKhPj
                0x08030a58        0x0 d:/elektronik/ides/eclipse/yagarto/bin/../lib/gcc/arm-none-eabi/4.6.2/../../../../arm-none-eabi/lib/thumb/v7m\libstdc++.a(eh_personality.o)
 .ARM.extab.text._ZL21base_of_encoded_valuehP15_Unwind_Context
                0x08030a58        0xc d:/elektronik/ides/eclipse/yagarto/bin/../lib/gcc/arm-none-eabi/4.6.2/../../../../arm-none-eabi/lib/thumb/v7m\libstdc++.a(eh_personality.o)
 .ARM.extab.text._ZL17parse_lsda_headerP15_Unwind_ContextPKhP16lsda_header_info.constprop.1
                0x08030a64        0x0 d:/elektronik/ides/eclipse/yagarto/bin/../lib/gcc/arm-none-eabi/4.6.2/../../../../arm-none-eabi/lib/thumb/v7m\libstdc++.a(eh_personality.o)
 .ARM.extab.text.__gxx_personality_v0
                0x08030a64       0x20 d:/elektronik/ides/eclipse/yagarto/bin/../lib/gcc/arm-none-eabi/4.6.2/../../../../arm-none-eabi/lib/thumb/v7m\libstdc++.a(eh_personality.o)
 .ARM.extab.text._ZL23__gxx_exception_cleanup19_Unwind_Reason_CodeP21_Unwind_Control_Block
                0x08030a84        0x0 d:/elektronik/ides/eclipse/yagarto/bin/../lib/gcc/arm-none-eabi/4.6.2/../../../../arm-none-eabi/lib/thumb/v7m\libstdc++.a(eh_throw.o)
 .ARM.extab.text.__cxa_throw
                0x08030a84        0x0 d:/elektronik/ides/eclipse/yagarto/bin/../lib/gcc/arm-none-eabi/4.6.2/../../../../arm-none-eabi/lib/thumb/v7m\libstdc++.a(eh_throw.o)
 .ARM.extab.text.__cxa_rethrow
                0x08030a84        0x0 d:/elektronik/ides/eclipse/yagarto/bin/../lib/gcc/arm-none-eabi/4.6.2/../../../../arm-none-eabi/lib/thumb/v7m\libstdc++.a(eh_throw.o)
 .ARM.extab.text.__cxa_current_exception_type
                0x08030a84        0x0 d:/elektronik/ides/eclipse/yagarto/bin/../lib/gcc/arm-none-eabi/4.6.2/../../../../arm-none-eabi/lib/thumb/v7m\libstdc++.a(eh_type.o)
 .ARM.extab.text._ZN10__cxxabiv123__fundamental_type_infoD2Ev
                0x08030a84        0x0 d:/elektronik/ides/eclipse/yagarto/bin/../lib/gcc/arm-none-eabi/4.6.2/../../../../arm-none-eabi/lib/thumb/v7m\libstdc++.a(fundamental_type_info.o)
 .ARM.extab.text._ZN10__cxxabiv123__fundamental_type_infoD0Ev
                0x08030a84        0x0 d:/elektronik/ides/eclipse/yagarto/bin/../lib/gcc/arm-none-eabi/4.6.2/../../../../arm-none-eabi/lib/thumb/v7m\libstdc++.a(fundamental_type_info.o)
 .ARM.extab.text._ZNK10__cxxabiv119__pointer_type_info14__is_pointer_pEv
                0x08030a84        0x0 d:/elektronik/ides/eclipse/yagarto/bin/../lib/gcc/arm-none-eabi/4.6.2/../../../../arm-none-eabi/lib/thumb/v7m\libstdc++.a(pointer_type_info.o)
 .ARM.extab.text._ZN10__cxxabiv119__pointer_type_infoD2Ev
                0x08030a84        0x0 d:/elektronik/ides/eclipse/yagarto/bin/../lib/gcc/arm-none-eabi/4.6.2/../../../../arm-none-eabi/lib/thumb/v7m\libstdc++.a(pointer_type_info.o)
 .ARM.extab.text._ZN10__cxxabiv119__pointer_type_infoD0Ev
                0x08030a84        0x0 d:/elektronik/ides/eclipse/yagarto/bin/../lib/gcc/arm-none-eabi/4.6.2/../../../../arm-none-eabi/lib/thumb/v7m\libstdc++.a(pointer_type_info.o)
 .ARM.extab.text._ZNK10__cxxabiv119__pointer_type_info15__pointer_catchEPKNS_17__pbase_type_infoEPPvj
                0x08030a84        0x0 d:/elektronik/ides/eclipse/yagarto/bin/../lib/gcc/arm-none-eabi/4.6.2/../../../../arm-none-eabi/lib/thumb/v7m\libstdc++.a(pointer_type_info.o)
 .ARM.extab.text._ZN10__cxxabiv120__si_class_type_infoD2Ev
                0x08030a84        0x0 d:/elektronik/ides/eclipse/yagarto/bin/../lib/gcc/arm-none-eabi/4.6.2/../../../../arm-none-eabi/lib/thumb/v7m\libstdc++.a(si_class_type_info.o)
 .ARM.extab.text._ZN10__cxxabiv120__si_class_type_infoD0Ev
                0x08030a84        0x0 d:/elektronik/ides/eclipse/yagarto/bin/../lib/gcc/arm-none-eabi/4.6.2/../../../../arm-none-eabi/lib/thumb/v7m\libstdc++.a(si_class_type_info.o)
 .ARM.extab.text._ZNK10__cxxabiv120__si_class_type_info11__do_upcastEPKNS_17__class_type_infoEPKvRNS1_15__upcast_resultE
                0x08030a84        0x0 d:/elektronik/ides/eclipse/yagarto/bin/../lib/gcc/arm-none-eabi/4.6.2/../../../../arm-none-eabi/lib/thumb/v7m\libstdc++.a(si_class_type_info.o)
 .ARM.extab.text._ZNK10__cxxabiv120__si_class_type_info12__do_dyncastEiNS_17__class_type_info10__sub_kindEPKS1_PKvS4_S6_RNS1_16__dyncast_resultE
                0x08030a84        0x0 d:/elektronik/ides/eclipse/yagarto/bin/../lib/gcc/arm-none-eabi/4.6.2/../../../../arm-none-eabi/lib/thumb/v7m\libstdc++.a(si_class_type_info.o)
 .ARM.extab.text._ZNK10__cxxabiv120__si_class_type_info20__do_find_public_srcEiPKvPKNS_17__class_type_infoES2_
                0x08030a84        0x0 d:/elektronik/ides/eclipse/yagarto/bin/../lib/gcc/arm-none-eabi/4.6.2/../../../../arm-none-eabi/lib/thumb/v7m\libstdc++.a(si_class_type_info.o)
 .ARM.extab.text._ZNSt9type_infoD2Ev
                0x08030a84        0x0 d:/elektronik/ides/eclipse/yagarto/bin/../lib/gcc/arm-none-eabi/4.6.2/../../../../arm-none-eabi/lib/thumb/v7m\libstdc++.a(tinfo.o)
 .ARM.extab.text._ZNKSt9type_info14__is_pointer_pEv
                0x08030a84        0x0 d:/elektronik/ides/eclipse/yagarto/bin/../lib/gcc/arm-none-eabi/4.6.2/../../../../arm-none-eabi/lib/thumb/v7m\libstdc++.a(tinfo.o)
 .ARM.extab.text._ZNKSt9type_info15__is_function_pEv
                0x08030a84        0x0 d:/elektronik/ides/eclipse/yagarto/bin/../lib/gcc/arm-none-eabi/4.6.2/../../../../arm-none-eabi/lib/thumb/v7m\libstdc++.a(tinfo.o)
 .ARM.extab.text._ZNKSt9type_info11__do_upcastEPKN10__cxxabiv117__class_type_infoEPPv
                0x08030a84        0x0 d:/elektronik/ides/eclipse/yagarto/bin/../lib/gcc/arm-none-eabi/4.6.2/../../../../arm-none-eabi/lib/thumb/v7m\libstdc++.a(tinfo.o)
 .ARM.extab.text._ZNSt9type_infoD0Ev
                0x08030a84        0x0 d:/elektronik/ides/eclipse/yagarto/bin/../lib/gcc/arm-none-eabi/4.6.2/../../../../arm-none-eabi/lib/thumb/v7m\libstdc++.a(tinfo.o)
 .ARM.extab.text._ZNKSt9type_infoeqERKS_
                0x08030a84        0x0 d:/elektronik/ides/eclipse/yagarto/bin/../lib/gcc/arm-none-eabi/4.6.2/../../../../arm-none-eabi/lib/thumb/v7m\libstdc++.a(tinfo.o)
 .ARM.extab.text._ZNKSt9type_info10__do_catchEPKS_PPvj
                0x08030a84        0x0 d:/elektronik/ides/eclipse/yagarto/bin/../lib/gcc/arm-none-eabi/4.6.2/../../../../arm-none-eabi/lib/thumb/v7m\libstdc++.a(tinfo.o)
 .ARM.extab.text._ZNKSt8bad_cast4whatEv
                0x08030a84        0x0 d:/elektronik/ides/eclipse/yagarto/bin/../lib/gcc/arm-none-eabi/4.6.2/../../../../arm-none-eabi/lib/thumb/v7m\libstdc++.a(bad_cast.o)
 .ARM.extab.text._ZNSt8bad_castD2Ev
                0x08030a84        0x0 d:/elektronik/ides/eclipse/yagarto/bin/../lib/gcc/arm-none-eabi/4.6.2/../../../../arm-none-eabi/lib/thumb/v7m\libstdc++.a(bad_cast.o)
 .ARM.extab.text._ZNSt8bad_castD0Ev
                0x08030a84        0x0 d:/elektronik/ides/eclipse/yagarto/bin/../lib/gcc/arm-none-eabi/4.6.2/../../../../arm-none-eabi/lib/thumb/v7m\libstdc++.a(bad_cast.o)
 .ARM.extab.text._ZNKSt10bad_typeid4whatEv
                0x08030a84        0x0 d:/elektronik/ides/eclipse/yagarto/bin/../lib/gcc/arm-none-eabi/4.6.2/../../../../arm-none-eabi/lib/thumb/v7m\libstdc++.a(bad_typeid.o)
 .ARM.extab.text._ZNSt10bad_typeidD2Ev
                0x08030a84        0x0 d:/elektronik/ides/eclipse/yagarto/bin/../lib/gcc/arm-none-eabi/4.6.2/../../../../arm-none-eabi/lib/thumb/v7m\libstdc++.a(bad_typeid.o)
 .ARM.extab.text._ZNSt10bad_typeidD0Ev
                0x08030a84        0x0 d:/elektronik/ides/eclipse/yagarto/bin/../lib/gcc/arm-none-eabi/4.6.2/../../../../arm-none-eabi/lib/thumb/v7m\libstdc++.a(bad_typeid.o)
 .ARM.extab.text._ZNK10__cxxabiv117__class_type_info11__do_upcastEPKS0_PPv
                0x08030a84        0x0 d:/elektronik/ides/eclipse/yagarto/bin/../lib/gcc/arm-none-eabi/4.6.2/../../../../arm-none-eabi/lib/thumb/v7m\libstdc++.a(class_type_info.o)
 .ARM.extab.text._ZNK10__cxxabiv117__class_type_info20__do_find_public_srcEiPKvPKS0_S2_
                0x08030a84        0x0 d:/elektronik/ides/eclipse/yagarto/bin/../lib/gcc/arm-none-eabi/4.6.2/../../../../arm-none-eabi/lib/thumb/v7m\libstdc++.a(class_type_info.o)
 .ARM.extab.text._ZNK10__cxxabiv117__class_type_info11__do_upcastEPKS0_PKvRNS0_15__upcast_resultE
                0x08030a84        0x0 d:/elektronik/ides/eclipse/yagarto/bin/../lib/gcc/arm-none-eabi/4.6.2/../../../../arm-none-eabi/lib/thumb/v7m\libstdc++.a(class_type_info.o)
 .ARM.extab.text._ZN10__cxxabiv117__class_type_infoD2Ev
                0x08030a84        0x0 d:/elektronik/ides/eclipse/yagarto/bin/../lib/gcc/arm-none-eabi/4.6.2/../../../../arm-none-eabi/lib/thumb/v7m\libstdc++.a(class_type_info.o)
 .ARM.extab.text._ZN10__cxxabiv117__class_type_infoD0Ev
                0x08030a84        0x0 d:/elektronik/ides/eclipse/yagarto/bin/../lib/gcc/arm-none-eabi/4.6.2/../../../../arm-none-eabi/lib/thumb/v7m\libstdc++.a(class_type_info.o)
 .ARM.extab.text._ZNK10__cxxabiv117__class_type_info12__do_dyncastEiNS0_10__sub_kindEPKS0_PKvS3_S5_RNS0_16__dyncast_resultE
                0x08030a84        0x0 d:/elektronik/ides/eclipse/yagarto/bin/../lib/gcc/arm-none-eabi/4.6.2/../../../../arm-none-eabi/lib/thumb/v7m\libstdc++.a(class_type_info.o)
 .ARM.extab.text._ZNK10__cxxabiv117__class_type_info10__do_catchEPKSt9type_infoPPvj
                0x08030a84        0x0 d:/elektronik/ides/eclipse/yagarto/bin/../lib/gcc/arm-none-eabi/4.6.2/../../../../arm-none-eabi/lib/thumb/v7m\libstdc++.a(class_type_info.o)
 .ARM.extab.text.__cxa_allocate_exception
                0x08030a84        0x0 d:/elektronik/ides/eclipse/yagarto/bin/../lib/gcc/arm-none-eabi/4.6.2/../../../../arm-none-eabi/lib/thumb/v7m\libstdc++.a(eh_alloc.o)
 .ARM.extab.text.__cxa_free_exception
                0x08030a84        0x0 d:/elektronik/ides/eclipse/yagarto/bin/../lib/gcc/arm-none-eabi/4.6.2/../../../../arm-none-eabi/lib/thumb/v7m\libstdc++.a(eh_alloc.o)
 .ARM.extab.text.__cxa_allocate_dependent_exception
                0x08030a84        0x0 d:/elektronik/ides/eclipse/yagarto/bin/../lib/gcc/arm-none-eabi/4.6.2/../../../../arm-none-eabi/lib/thumb/v7m\libstdc++.a(eh_alloc.o)
 .ARM.extab.text.__cxa_free_dependent_exception
                0x08030a84        0x0 d:/elektronik/ides/eclipse/yagarto/bin/../lib/gcc/arm-none-eabi/4.6.2/../../../../arm-none-eabi/lib/thumb/v7m\libstdc++.a(eh_alloc.o)
 .ARM.extab.text._ZNK10__cxxabiv117__pbase_type_info15__pointer_catchEPKS0_PPvj
                0x08030a84        0x0 d:/elektronik/ides/eclipse/yagarto/bin/../lib/gcc/arm-none-eabi/4.6.2/../../../../arm-none-eabi/lib/thumb/v7m\libstdc++.a(pbase_type_info.o)
 .ARM.extab.text._ZN10__cxxabiv117__pbase_type_infoD2Ev
                0x08030a84        0x0 d:/elektronik/ides/eclipse/yagarto/bin/../lib/gcc/arm-none-eabi/4.6.2/../../../../arm-none-eabi/lib/thumb/v7m\libstdc++.a(pbase_type_info.o)
 .ARM.extab.text._ZN10__cxxabiv117__pbase_type_infoD0Ev
                0x08030a84        0x0 d:/elektronik/ides/eclipse/yagarto/bin/../lib/gcc/arm-none-eabi/4.6.2/../../../../arm-none-eabi/lib/thumb/v7m\libstdc++.a(pbase_type_info.o)
 .ARM.extab.text._ZNK10__cxxabiv117__pbase_type_info10__do_catchEPKSt9type_infoPPvj
                0x08030a84        0x0 d:/elektronik/ides/eclipse/yagarto/bin/../lib/gcc/arm-none-eabi/4.6.2/../../../../arm-none-eabi/lib/thumb/v7m\libstdc++.a(pbase_type_info.o)
 .ARM.extab     0x08030a84       0x18 d:/elektronik/ides/eclipse/yagarto/bin/../lib/gcc/arm-none-eabi/4.6.2/thumb/v7m\libgcc.a(unwind-arm.o)
 .ARM.extab     0x08030a9c       0x18 d:/elektronik/ides/eclipse/yagarto/bin/../lib/gcc/arm-none-eabi/4.6.2/thumb/v7m\libgcc.a(pr-support.o)

.ARM            0x08030ab4      0x220
                0x08030ab4                __exidx_start = .
 *(.ARM.exidx*)
 .ARM.exidx     0x08030ab4        0x8 d:/elektronik/ides/eclipse/yagarto/bin/../lib/gcc/arm-none-eabi/4.6.2/../../../../arm-none-eabi/lib/thumb/v7m/crt0.o
 .ARM.exidx.text.__aeabi_atexit
                0x08030b74        0x0 d:/elektronik/ides/eclipse/yagarto/bin/../lib/gcc/arm-none-eabi/4.6.2/../../../../arm-none-eabi/lib/thumb/v7m\libstdc++.a(atexit_arm.o)
                                  0x8 (size before relaxing)
 .ARM.exidx.text._ZdlPv
                0x08030b74        0x0 d:/elektronik/ides/eclipse/yagarto/bin/../lib/gcc/arm-none-eabi/4.6.2/../../../../arm-none-eabi/lib/thumb/v7m\libstdc++.a(del_op.o)
                                  0x8 (size before relaxing)
 .ARM.exidx.text.__cxa_pure_virtual
                0x08030b74        0x8 d:/elektronik/ides/eclipse/yagarto/bin/../lib/gcc/arm-none-eabi/4.6.2/../../../../arm-none-eabi/lib/thumb/v7m\libstdc++.a(pure.o)
 .ARM.exidx.text._ZN10__cxxabiv111__terminateEPFvvE
                0x08030b7c        0x8 d:/elektronik/ides/eclipse/yagarto/bin/../lib/gcc/arm-none-eabi/4.6.2/../../../../arm-none-eabi/lib/thumb/v7m\libstdc++.a(eh_terminate.o)
 .ARM.exidx.text._ZSt9terminatev
                0x08030b84        0x8 d:/elektronik/ides/eclipse/yagarto/bin/../lib/gcc/arm-none-eabi/4.6.2/../../../../arm-none-eabi/lib/thumb/v7m\libstdc++.a(eh_terminate.o)
 .ARM.exidx.text._ZN10__cxxabiv112__unexpectedEPFvvE
                0x08030b8c        0x8 d:/elektronik/ides/eclipse/yagarto/bin/../lib/gcc/arm-none-eabi/4.6.2/../../../../arm-none-eabi/lib/thumb/v7m\libstdc++.a(eh_terminate.o)
 .ARM.exidx.text._ZSt10unexpectedv
                0x08030b94        0x8 d:/elektronik/ides/eclipse/yagarto/bin/../lib/gcc/arm-none-eabi/4.6.2/../../../../arm-none-eabi/lib/thumb/v7m\libstdc++.a(eh_terminate.o)
 .ARM.exidx.text._ZSt13set_terminatePFvvE
                0x08030b9c        0x8 d:/elektronik/ides/eclipse/yagarto/bin/../lib/gcc/arm-none-eabi/4.6.2/../../../../arm-none-eabi/lib/thumb/v7m\libstdc++.a(eh_terminate.o)
 .ARM.exidx.text._ZSt14set_unexpectedPFvvE
                0x08030ba4        0x0 d:/elektronik/ides/eclipse/yagarto/bin/../lib/gcc/arm-none-eabi/4.6.2/../../../../arm-none-eabi/lib/thumb/v7m\libstdc++.a(eh_terminate.o)
                                  0x8 (size before relaxing)
 .ARM.exidx.text._ZN9__gnu_cxx27__verbose_terminate_handlerEv
                0x08030ba4       0x10 d:/elektronik/ides/eclipse/yagarto/bin/../lib/gcc/arm-none-eabi/4.6.2/../../../../arm-none-eabi/lib/thumb/v7m\libstdc++.a(vterminate.o)
                                  0x8 (size before relaxing)
 .ARM.exidx.text.__cxa_type_match
                0x08030bb4        0x8 d:/elektronik/ides/eclipse/yagarto/bin/../lib/gcc/arm-none-eabi/4.6.2/../../../../arm-none-eabi/lib/thumb/v7m\libstdc++.a(eh_arm.o)
 .ARM.exidx.text.__cxa_begin_cleanup
                0x08030bbc        0x8 d:/elektronik/ides/eclipse/yagarto/bin/../lib/gcc/arm-none-eabi/4.6.2/../../../../arm-none-eabi/lib/thumb/v7m\libstdc++.a(eh_arm.o)
 .ARM.exidx.text.__gnu_end_cleanup
                0x08030bc4        0x0 d:/elektronik/ides/eclipse/yagarto/bin/../lib/gcc/arm-none-eabi/4.6.2/../../../../arm-none-eabi/lib/thumb/v7m\libstdc++.a(eh_arm.o)
                                  0x8 (size before relaxing)
 .ARM.exidx.text.__cxa_bad_cast
                0x08030bc4        0x8 d:/elektronik/ides/eclipse/yagarto/bin/../lib/gcc/arm-none-eabi/4.6.2/../../../../arm-none-eabi/lib/thumb/v7m\libstdc++.a(eh_aux_runtime.o)
 .ARM.exidx.text.__cxa_bad_typeid
                0x08030bcc        0x8 d:/elektronik/ides/eclipse/yagarto/bin/../lib/gcc/arm-none-eabi/4.6.2/../../../../arm-none-eabi/lib/thumb/v7m\libstdc++.a(eh_aux_runtime.o)
 .ARM.exidx.text.__cxa_call_terminate
                0x08030bd4        0x8 d:/elektronik/ides/eclipse/yagarto/bin/../lib/gcc/arm-none-eabi/4.6.2/../../../../arm-none-eabi/lib/thumb/v7m\libstdc++.a(eh_call.o)
 .ARM.exidx.text.__cxa_call_unexpected
                0x08030bdc        0x8 d:/elektronik/ides/eclipse/yagarto/bin/../lib/gcc/arm-none-eabi/4.6.2/../../../../arm-none-eabi/lib/thumb/v7m\libstdc++.a(eh_call.o)
 .ARM.exidx.text.__cxa_get_exception_ptr
                0x08030be4        0x8 d:/elektronik/ides/eclipse/yagarto/bin/../lib/gcc/arm-none-eabi/4.6.2/../../../../arm-none-eabi/lib/thumb/v7m\libstdc++.a(eh_catch.o)
 .ARM.exidx.text.__cxa_begin_catch
                0x08030bec        0x8 d:/elektronik/ides/eclipse/yagarto/bin/../lib/gcc/arm-none-eabi/4.6.2/../../../../arm-none-eabi/lib/thumb/v7m\libstdc++.a(eh_catch.o)
 .ARM.exidx.text.__cxa_end_catch
                0x08030bf4        0x8 d:/elektronik/ides/eclipse/yagarto/bin/../lib/gcc/arm-none-eabi/4.6.2/../../../../arm-none-eabi/lib/thumb/v7m\libstdc++.a(eh_catch.o)
 .ARM.exidx.text._ZSt18uncaught_exceptionv
                0x08030bfc        0x0 d:/elektronik/ides/eclipse/yagarto/bin/../lib/gcc/arm-none-eabi/4.6.2/../../../../arm-none-eabi/lib/thumb/v7m\libstdc++.a(eh_catch.o)
                                  0x8 (size before relaxing)
 .ARM.exidx.text._ZNSt9exceptionD2Ev
                0x08030bfc        0x0 d:/elektronik/ides/eclipse/yagarto/bin/../lib/gcc/arm-none-eabi/4.6.2/../../../../arm-none-eabi/lib/thumb/v7m\libstdc++.a(eh_exception.o)
                                  0x8 (size before relaxing)
 .ARM.exidx.text._ZNSt13bad_exceptionD2Ev
                0x08030bfc        0x0 d:/elektronik/ides/eclipse/yagarto/bin/../lib/gcc/arm-none-eabi/4.6.2/../../../../arm-none-eabi/lib/thumb/v7m\libstdc++.a(eh_exception.o)
                                  0x8 (size before relaxing)
 .ARM.exidx.text._ZN10__cxxabiv115__forced_unwindD2Ev
                0x08030bfc        0x0 d:/elektronik/ides/eclipse/yagarto/bin/../lib/gcc/arm-none-eabi/4.6.2/../../../../arm-none-eabi/lib/thumb/v7m\libstdc++.a(eh_exception.o)
                                  0x8 (size before relaxing)
 .ARM.exidx.text._ZN10__cxxabiv119__foreign_exceptionD2Ev
                0x08030bfc        0x0 d:/elektronik/ides/eclipse/yagarto/bin/../lib/gcc/arm-none-eabi/4.6.2/../../../../arm-none-eabi/lib/thumb/v7m\libstdc++.a(eh_exception.o)
                                  0x8 (size before relaxing)
 .ARM.exidx.text._ZNKSt9exception4whatEv
                0x08030bfc        0x0 d:/elektronik/ides/eclipse/yagarto/bin/../lib/gcc/arm-none-eabi/4.6.2/../../../../arm-none-eabi/lib/thumb/v7m\libstdc++.a(eh_exception.o)
                                  0x8 (size before relaxing)
 .ARM.exidx.text._ZNKSt13bad_exception4whatEv
                0x08030bfc        0x0 d:/elektronik/ides/eclipse/yagarto/bin/../lib/gcc/arm-none-eabi/4.6.2/../../../../arm-none-eabi/lib/thumb/v7m\libstdc++.a(eh_exception.o)
                                  0x8 (size before relaxing)
 .ARM.exidx.text._ZN10__cxxabiv119__foreign_exceptionD0Ev
                0x08030bfc        0x0 d:/elektronik/ides/eclipse/yagarto/bin/../lib/gcc/arm-none-eabi/4.6.2/../../../../arm-none-eabi/lib/thumb/v7m\libstdc++.a(eh_exception.o)
                                  0x8 (size before relaxing)
 .ARM.exidx.text._ZN10__cxxabiv115__forced_unwindD0Ev
                0x08030bfc        0x0 d:/elektronik/ides/eclipse/yagarto/bin/../lib/gcc/arm-none-eabi/4.6.2/../../../../arm-none-eabi/lib/thumb/v7m\libstdc++.a(eh_exception.o)
                                  0x8 (size before relaxing)
 .ARM.exidx.text._ZNSt13bad_exceptionD0Ev
                0x08030bfc        0x0 d:/elektronik/ides/eclipse/yagarto/bin/../lib/gcc/arm-none-eabi/4.6.2/../../../../arm-none-eabi/lib/thumb/v7m\libstdc++.a(eh_exception.o)
                                  0x8 (size before relaxing)
 .ARM.exidx.text._ZNSt9exceptionD0Ev
                0x08030bfc        0x0 d:/elektronik/ides/eclipse/yagarto/bin/../lib/gcc/arm-none-eabi/4.6.2/../../../../arm-none-eabi/lib/thumb/v7m\libstdc++.a(eh_exception.o)
                                  0x8 (size before relaxing)
 .ARM.exidx.text.__cxa_get_globals_fast
                0x08030bfc        0x0 d:/elektronik/ides/eclipse/yagarto/bin/../lib/gcc/arm-none-eabi/4.6.2/../../../../arm-none-eabi/lib/thumb/v7m\libstdc++.a(eh_globals.o)
                                  0x8 (size before relaxing)
 .ARM.exidx.text.__cxa_get_globals
                0x08030bfc        0x0 d:/elektronik/ides/eclipse/yagarto/bin/../lib/gcc/arm-none-eabi/4.6.2/../../../../arm-none-eabi/lib/thumb/v7m\libstdc++.a(eh_globals.o)
                                  0x8 (size before relaxing)
 .ARM.exidx.text._ZL12read_sleb128PKhPl
                0x08030bfc        0x0 d:/elektronik/ides/eclipse/yagarto/bin/../lib/gcc/arm-none-eabi/4.6.2/../../../../arm-none-eabi/lib/thumb/v7m\libstdc++.a(eh_personality.o)
                                  0x8 (size before relaxing)
 .ARM.exidx.text._ZL28read_encoded_value_with_basehjPKhPj
                0x08030bfc        0x8 d:/elektronik/ides/eclipse/yagarto/bin/../lib/gcc/arm-none-eabi/4.6.2/../../../../arm-none-eabi/lib/thumb/v7m\libstdc++.a(eh_personality.o)
 .ARM.exidx.text._ZL21base_of_encoded_valuehP15_Unwind_Context
                0x08030c04        0x8 d:/elektronik/ides/eclipse/yagarto/bin/../lib/gcc/arm-none-eabi/4.6.2/../../../../arm-none-eabi/lib/thumb/v7m\libstdc++.a(eh_personality.o)
 .ARM.exidx.text._ZL17parse_lsda_headerP15_Unwind_ContextPKhP16lsda_header_info.constprop.1
                0x08030c0c        0x8 d:/elektronik/ides/eclipse/yagarto/bin/../lib/gcc/arm-none-eabi/4.6.2/../../../../arm-none-eabi/lib/thumb/v7m\libstdc++.a(eh_personality.o)
 .ARM.exidx.text.__gxx_personality_v0
                0x08030c14        0x8 d:/elektronik/ides/eclipse/yagarto/bin/../lib/gcc/arm-none-eabi/4.6.2/../../../../arm-none-eabi/lib/thumb/v7m\libstdc++.a(eh_personality.o)
 .ARM.exidx.text._ZL23__gxx_exception_cleanup19_Unwind_Reason_CodeP21_Unwind_Control_Block
                0x08030c1c        0x8 d:/elektronik/ides/eclipse/yagarto/bin/../lib/gcc/arm-none-eabi/4.6.2/../../../../arm-none-eabi/lib/thumb/v7m\libstdc++.a(eh_throw.o)
 .ARM.exidx.text.__cxa_throw
                0x08030c24        0x8 d:/elektronik/ides/eclipse/yagarto/bin/../lib/gcc/arm-none-eabi/4.6.2/../../../../arm-none-eabi/lib/thumb/v7m\libstdc++.a(eh_throw.o)
 .ARM.exidx.text.__cxa_rethrow
                0x08030c2c        0x8 d:/elektronik/ides/eclipse/yagarto/bin/../lib/gcc/arm-none-eabi/4.6.2/../../../../arm-none-eabi/lib/thumb/v7m\libstdc++.a(eh_throw.o)
 .ARM.exidx.text.__cxa_current_exception_type
                0x08030c34        0x8 d:/elektronik/ides/eclipse/yagarto/bin/../lib/gcc/arm-none-eabi/4.6.2/../../../../arm-none-eabi/lib/thumb/v7m\libstdc++.a(eh_type.o)
 .ARM.exidx.text._ZN10__cxxabiv123__fundamental_type_infoD2Ev
                0x08030c3c        0x8 d:/elektronik/ides/eclipse/yagarto/bin/../lib/gcc/arm-none-eabi/4.6.2/../../../../arm-none-eabi/lib/thumb/v7m\libstdc++.a(fundamental_type_info.o)
 .ARM.exidx.text._ZN10__cxxabiv123__fundamental_type_infoD0Ev
                0x08030c44        0x0 d:/elektronik/ides/eclipse/yagarto/bin/../lib/gcc/arm-none-eabi/4.6.2/../../../../arm-none-eabi/lib/thumb/v7m\libstdc++.a(fundamental_type_info.o)
                                  0x8 (size before relaxing)
 .ARM.exidx.text._ZNK10__cxxabiv119__pointer_type_info14__is_pointer_pEv
                0x08030c44        0x8 d:/elektronik/ides/eclipse/yagarto/bin/../lib/gcc/arm-none-eabi/4.6.2/../../../../arm-none-eabi/lib/thumb/v7m\libstdc++.a(pointer_type_info.o)
 .ARM.exidx.text._ZN10__cxxabiv119__pointer_type_infoD2Ev
                0x08030c4c        0x8 d:/elektronik/ides/eclipse/yagarto/bin/../lib/gcc/arm-none-eabi/4.6.2/../../../../arm-none-eabi/lib/thumb/v7m\libstdc++.a(pointer_type_info.o)
 .ARM.exidx.text._ZN10__cxxabiv119__pointer_type_infoD0Ev
                0x08030c54        0x0 d:/elektronik/ides/eclipse/yagarto/bin/../lib/gcc/arm-none-eabi/4.6.2/../../../../arm-none-eabi/lib/thumb/v7m\libstdc++.a(pointer_type_info.o)
                                  0x8 (size before relaxing)
 .ARM.exidx.text._ZNK10__cxxabiv119__pointer_type_info15__pointer_catchEPKNS_17__pbase_type_infoEPPvj
                0x08030c54        0x8 d:/elektronik/ides/eclipse/yagarto/bin/../lib/gcc/arm-none-eabi/4.6.2/../../../../arm-none-eabi/lib/thumb/v7m\libstdc++.a(pointer_type_info.o)
 .ARM.exidx.text._ZN10__cxxabiv120__si_class_type_infoD2Ev
                0x08030c5c        0x8 d:/elektronik/ides/eclipse/yagarto/bin/../lib/gcc/arm-none-eabi/4.6.2/../../../../arm-none-eabi/lib/thumb/v7m\libstdc++.a(si_class_type_info.o)
 .ARM.exidx.text._ZN10__cxxabiv120__si_class_type_infoD0Ev
                0x08030c64        0x0 d:/elektronik/ides/eclipse/yagarto/bin/../lib/gcc/arm-none-eabi/4.6.2/../../../../arm-none-eabi/lib/thumb/v7m\libstdc++.a(si_class_type_info.o)
                                  0x8 (size before relaxing)
 .ARM.exidx.text._ZNK10__cxxabiv120__si_class_type_info11__do_upcastEPKNS_17__class_type_infoEPKvRNS1_15__upcast_resultE
                0x08030c64        0x8 d:/elektronik/ides/eclipse/yagarto/bin/../lib/gcc/arm-none-eabi/4.6.2/../../../../arm-none-eabi/lib/thumb/v7m\libstdc++.a(si_class_type_info.o)
 .ARM.exidx.text._ZNK10__cxxabiv120__si_class_type_info12__do_dyncastEiNS_17__class_type_info10__sub_kindEPKS1_PKvS4_S6_RNS1_16__dyncast_resultE
                0x08030c6c        0x8 d:/elektronik/ides/eclipse/yagarto/bin/../lib/gcc/arm-none-eabi/4.6.2/../../../../arm-none-eabi/lib/thumb/v7m\libstdc++.a(si_class_type_info.o)
 .ARM.exidx.text._ZNK10__cxxabiv120__si_class_type_info20__do_find_public_srcEiPKvPKNS_17__class_type_infoES2_
                0x08030c74        0x8 d:/elektronik/ides/eclipse/yagarto/bin/../lib/gcc/arm-none-eabi/4.6.2/../../../../arm-none-eabi/lib/thumb/v7m\libstdc++.a(si_class_type_info.o)
 .ARM.exidx.text._ZNSt9type_infoD2Ev
                0x08030c7c        0x8 d:/elektronik/ides/eclipse/yagarto/bin/../lib/gcc/arm-none-eabi/4.6.2/../../../../arm-none-eabi/lib/thumb/v7m\libstdc++.a(tinfo.o)
 .ARM.exidx.text._ZNKSt9type_info14__is_pointer_pEv
                0x08030c84        0x0 d:/elektronik/ides/eclipse/yagarto/bin/../lib/gcc/arm-none-eabi/4.6.2/../../../../arm-none-eabi/lib/thumb/v7m\libstdc++.a(tinfo.o)
                                  0x8 (size before relaxing)
 .ARM.exidx.text._ZNKSt9type_info15__is_function_pEv
                0x08030c84        0x0 d:/elektronik/ides/eclipse/yagarto/bin/../lib/gcc/arm-none-eabi/4.6.2/../../../../arm-none-eabi/lib/thumb/v7m\libstdc++.a(tinfo.o)
                                  0x8 (size before relaxing)
 .ARM.exidx.text._ZNKSt9type_info11__do_upcastEPKN10__cxxabiv117__class_type_infoEPPv
                0x08030c84        0x0 d:/elektronik/ides/eclipse/yagarto/bin/../lib/gcc/arm-none-eabi/4.6.2/../../../../arm-none-eabi/lib/thumb/v7m\libstdc++.a(tinfo.o)
                                  0x8 (size before relaxing)
 .ARM.exidx.text._ZNSt9type_infoD0Ev
                0x08030c84        0x0 d:/elektronik/ides/eclipse/yagarto/bin/../lib/gcc/arm-none-eabi/4.6.2/../../../../arm-none-eabi/lib/thumb/v7m\libstdc++.a(tinfo.o)
                                  0x8 (size before relaxing)
 .ARM.exidx.text._ZNKSt9type_infoeqERKS_
                0x08030c84        0x0 d:/elektronik/ides/eclipse/yagarto/bin/../lib/gcc/arm-none-eabi/4.6.2/../../../../arm-none-eabi/lib/thumb/v7m\libstdc++.a(tinfo.o)
                                  0x8 (size before relaxing)
 .ARM.exidx.text._ZNKSt9type_info10__do_catchEPKS_PPvj
                0x08030c84        0x0 d:/elektronik/ides/eclipse/yagarto/bin/../lib/gcc/arm-none-eabi/4.6.2/../../../../arm-none-eabi/lib/thumb/v7m\libstdc++.a(tinfo.o)
                                  0x8 (size before relaxing)
 .ARM.exidx.text._ZNKSt8bad_cast4whatEv
                0x08030c84        0x0 d:/elektronik/ides/eclipse/yagarto/bin/../lib/gcc/arm-none-eabi/4.6.2/../../../../arm-none-eabi/lib/thumb/v7m\libstdc++.a(bad_cast.o)
                                  0x8 (size before relaxing)
 .ARM.exidx.text._ZNSt8bad_castD2Ev
                0x08030c84        0x0 d:/elektronik/ides/eclipse/yagarto/bin/../lib/gcc/arm-none-eabi/4.6.2/../../../../arm-none-eabi/lib/thumb/v7m\libstdc++.a(bad_cast.o)
                                  0x8 (size before relaxing)
 .ARM.exidx.text._ZNSt8bad_castD0Ev
                0x08030c84        0x0 d:/elektronik/ides/eclipse/yagarto/bin/../lib/gcc/arm-none-eabi/4.6.2/../../../../arm-none-eabi/lib/thumb/v7m\libstdc++.a(bad_cast.o)
                                  0x8 (size before relaxing)
 .ARM.exidx.text._ZNKSt10bad_typeid4whatEv
                0x08030c84        0x0 d:/elektronik/ides/eclipse/yagarto/bin/../lib/gcc/arm-none-eabi/4.6.2/../../../../arm-none-eabi/lib/thumb/v7m\libstdc++.a(bad_typeid.o)
                                  0x8 (size before relaxing)
 .ARM.exidx.text._ZNSt10bad_typeidD2Ev
                0x08030c84        0x0 d:/elektronik/ides/eclipse/yagarto/bin/../lib/gcc/arm-none-eabi/4.6.2/../../../../arm-none-eabi/lib/thumb/v7m\libstdc++.a(bad_typeid.o)
                                  0x8 (size before relaxing)
 .ARM.exidx.text._ZNSt10bad_typeidD0Ev
                0x08030c84        0x0 d:/elektronik/ides/eclipse/yagarto/bin/../lib/gcc/arm-none-eabi/4.6.2/../../../../arm-none-eabi/lib/thumb/v7m\libstdc++.a(bad_typeid.o)
                                  0x8 (size before relaxing)
 .ARM.exidx.text._ZNK10__cxxabiv117__class_type_info11__do_upcastEPKS0_PPv
                0x08030c84        0x8 d:/elektronik/ides/eclipse/yagarto/bin/../lib/gcc/arm-none-eabi/4.6.2/../../../../arm-none-eabi/lib/thumb/v7m\libstdc++.a(class_type_info.o)
 .ARM.exidx.text._ZNK10__cxxabiv117__class_type_info20__do_find_public_srcEiPKvPKS0_S2_
                0x08030c8c        0x8 d:/elektronik/ides/eclipse/yagarto/bin/../lib/gcc/arm-none-eabi/4.6.2/../../../../arm-none-eabi/lib/thumb/v7m\libstdc++.a(class_type_info.o)
 .ARM.exidx.text._ZNK10__cxxabiv117__class_type_info11__do_upcastEPKS0_PKvRNS0_15__upcast_resultE
                0x08030c94        0x8 d:/elektronik/ides/eclipse/yagarto/bin/../lib/gcc/arm-none-eabi/4.6.2/../../../../arm-none-eabi/lib/thumb/v7m\libstdc++.a(class_type_info.o)
 .ARM.exidx.text._ZN10__cxxabiv117__class_type_infoD2Ev
                0x08030c9c        0x8 d:/elektronik/ides/eclipse/yagarto/bin/../lib/gcc/arm-none-eabi/4.6.2/../../../../arm-none-eabi/lib/thumb/v7m\libstdc++.a(class_type_info.o)
 .ARM.exidx.text._ZN10__cxxabiv117__class_type_infoD0Ev
                0x08030ca4        0x0 d:/elektronik/ides/eclipse/yagarto/bin/../lib/gcc/arm-none-eabi/4.6.2/../../../../arm-none-eabi/lib/thumb/v7m\libstdc++.a(class_type_info.o)
                                  0x8 (size before relaxing)
 .ARM.exidx.text._ZNK10__cxxabiv117__class_type_info12__do_dyncastEiNS0_10__sub_kindEPKS0_PKvS3_S5_RNS0_16__dyncast_resultE
                0x08030ca4        0x8 d:/elektronik/ides/eclipse/yagarto/bin/../lib/gcc/arm-none-eabi/4.6.2/../../../../arm-none-eabi/lib/thumb/v7m\libstdc++.a(class_type_info.o)
 .ARM.exidx.text._ZNK10__cxxabiv117__class_type_info10__do_catchEPKSt9type_infoPPvj
                0x08030cac        0x8 d:/elektronik/ides/eclipse/yagarto/bin/../lib/gcc/arm-none-eabi/4.6.2/../../../../arm-none-eabi/lib/thumb/v7m\libstdc++.a(class_type_info.o)
 .ARM.exidx.text.__cxa_allocate_exception
                0x08030cb4        0x8 d:/elektronik/ides/eclipse/yagarto/bin/../lib/gcc/arm-none-eabi/4.6.2/../../../../arm-none-eabi/lib/thumb/v7m\libstdc++.a(eh_alloc.o)
 .ARM.exidx.text.__cxa_free_exception
                0x08030cbc        0x0 d:/elektronik/ides/eclipse/yagarto/bin/../lib/gcc/arm-none-eabi/4.6.2/../../../../arm-none-eabi/lib/thumb/v7m\libstdc++.a(eh_alloc.o)
                                  0x8 (size before relaxing)
 .ARM.exidx.text.__cxa_allocate_dependent_exception
                0x08030cbc        0x0 d:/elektronik/ides/eclipse/yagarto/bin/../lib/gcc/arm-none-eabi/4.6.2/../../../../arm-none-eabi/lib/thumb/v7m\libstdc++.a(eh_alloc.o)
                                  0x8 (size before relaxing)
 .ARM.exidx.text.__cxa_free_dependent_exception
                0x08030cbc        0x0 d:/elektronik/ides/eclipse/yagarto/bin/../lib/gcc/arm-none-eabi/4.6.2/../../../../arm-none-eabi/lib/thumb/v7m\libstdc++.a(eh_alloc.o)
                                  0x8 (size before relaxing)
 .ARM.exidx.text._ZNK10__cxxabiv117__pbase_type_info15__pointer_catchEPKS0_PPvj
                0x08030cbc        0x8 d:/elektronik/ides/eclipse/yagarto/bin/../lib/gcc/arm-none-eabi/4.6.2/../../../../arm-none-eabi/lib/thumb/v7m\libstdc++.a(pbase_type_info.o)
 .ARM.exidx.text._ZN10__cxxabiv117__pbase_type_infoD2Ev
                0x08030cc4        0x0 d:/elektronik/ides/eclipse/yagarto/bin/../lib/gcc/arm-none-eabi/4.6.2/../../../../arm-none-eabi/lib/thumb/v7m\libstdc++.a(pbase_type_info.o)
                                  0x8 (size before relaxing)
 .ARM.exidx.text._ZN10__cxxabiv117__pbase_type_infoD0Ev
                0x08030cc4        0x0 d:/elektronik/ides/eclipse/yagarto/bin/../lib/gcc/arm-none-eabi/4.6.2/../../../../arm-none-eabi/lib/thumb/v7m\libstdc++.a(pbase_type_info.o)
                                  0x8 (size before relaxing)
 .ARM.exidx.text._ZNK10__cxxabiv117__pbase_type_info10__do_catchEPKSt9type_infoPPvj
                0x08030cc4       0x10 d:/elektronik/ides/eclipse/yagarto/bin/../lib/gcc/arm-none-eabi/4.6.2/../../../../arm-none-eabi/lib/thumb/v7m\libstdc++.a(pbase_type_info.o)
                                  0x8 (size before relaxing)
 .ARM.exidx     0x08030abc       0x80 d:/elektronik/ides/eclipse/yagarto/bin/../lib/gcc/arm-none-eabi/4.6.2/thumb/v7m\libgcc.a(unwind-arm.o)
                                 0xc0 (size before relaxing)
 .ARM.exidx     0x08030b3c       0x38 d:/elektronik/ides/eclipse/yagarto/bin/../lib/gcc/arm-none-eabi/4.6.2/thumb/v7m\libgcc.a(pr-support.o)
                                 0x48 (size before relaxing)
                0x08030cd4                __exidx_end = .

.preinit_array  0x08030cd4        0x0
                0x08030cd4                PROVIDE (__preinit_array_start, .)
 *(.preinit_array*)
                0x08030cd4                PROVIDE (__preinit_array_end, .)

.init_array     0x08030cd4        0x8
                0x08030cd4                PROVIDE (__init_array_start, .)
 *(SORT(.init_array.*))
 *(.init_array*)
 .init_array    0x08030cd4        0x4 d:/elektronik/ides/eclipse/yagarto/bin/../lib/gcc/arm-none-eabi/4.6.2/thumb/v7m/crtbegin.o
 .init_array    0x08030cd8        0x4 ./main.o
                0x08030cdc                PROVIDE (__init_array_end, .)

.fini_array     0x08030cdc        0x4
                0x08030cdc                PROVIDE (__fini_array_start, .)
 *(.fini_array*)
 .fini_array    0x08030cdc        0x4 d:/elektronik/ides/eclipse/yagarto/bin/../lib/gcc/arm-none-eabi/4.6.2/thumb/v7m/crtbegin.o
 *(SORT(.fini_array.*))
                0x08030ce0                PROVIDE (__fini_array_end, .)
                0x08030ce0                _sidata = .

.data           0x20000000      0x94c load address 0x08030ce0
                0x20000000                . = ALIGN (0x4)
                0x20000000                _sdata = .
 *(.data)
 .data          0x20000000        0x0 d:/elektronik/ides/eclipse/yagarto/bin/../lib/gcc/arm-none-eabi/4.6.2/thumb/v7m/crti.o
 .data          0x20000000        0x4 d:/elektronik/ides/eclipse/yagarto/bin/../lib/gcc/arm-none-eabi/4.6.2/thumb/v7m/crtbegin.o
                0x20000000                __dso_handle
 .data          0x20000004        0x0 d:/elektronik/ides/eclipse/yagarto/bin/../lib/gcc/arm-none-eabi/4.6.2/../../../../arm-none-eabi/lib/thumb/v7m/crt0.o
 .data          0x20000004        0x0 ./STM32F4xx_StdPeriph_Driver/src/misc.o
 .data          0x20000004        0x0 ./STM32F4xx_StdPeriph_Driver/src/stm32f4xx_adc.o
 .data          0x20000004        0x0 ./STM32F4xx_StdPeriph_Driver/src/stm32f4xx_can.o
 .data          0x20000004        0x0 ./STM32F4xx_StdPeriph_Driver/src/stm32f4xx_crc.o
 .data          0x20000004        0x0 ./STM32F4xx_StdPeriph_Driver/src/stm32f4xx_cryp.o
 .data          0x20000004        0x0 ./STM32F4xx_StdPeriph_Driver/src/stm32f4xx_cryp_aes.o
 .data          0x20000004        0x0 ./STM32F4xx_StdPeriph_Driver/src/stm32f4xx_cryp_des.o
 .data          0x20000004        0x0 ./STM32F4xx_StdPeriph_Driver/src/stm32f4xx_cryp_tdes.o
 .data          0x20000004        0x0 ./STM32F4xx_StdPeriph_Driver/src/stm32f4xx_dac.o
 .data          0x20000004        0x0 ./STM32F4xx_StdPeriph_Driver/src/stm32f4xx_dbgmcu.o
 .data          0x20000004        0x0 ./STM32F4xx_StdPeriph_Driver/src/stm32f4xx_dcmi.o
 .data          0x20000004        0x0 ./STM32F4xx_StdPeriph_Driver/src/stm32f4xx_dma.o
 .data          0x20000004        0x0 ./STM32F4xx_StdPeriph_Driver/src/stm32f4xx_exti.o
 .data          0x20000004        0x0 ./STM32F4xx_StdPeriph_Driver/src/stm32f4xx_flash.o
 .data          0x20000004        0x0 ./STM32F4xx_StdPeriph_Driver/src/stm32f4xx_fsmc.o
 .data          0x20000004        0x0 ./STM32F4xx_StdPeriph_Driver/src/stm32f4xx_gpio.o
 .data          0x20000004        0x0 ./STM32F4xx_StdPeriph_Driver/src/stm32f4xx_hash.o
 .data          0x20000004        0x0 ./STM32F4xx_StdPeriph_Driver/src/stm32f4xx_hash_md5.o
 .data          0x20000004        0x0 ./STM32F4xx_StdPeriph_Driver/src/stm32f4xx_hash_sha1.o
 .data          0x20000004        0x0 ./STM32F4xx_StdPeriph_Driver/src/stm32f4xx_i2c.o
 .data          0x20000004        0x0 ./STM32F4xx_StdPeriph_Driver/src/stm32f4xx_iwdg.o
 .data          0x20000004        0x0 ./STM32F4xx_StdPeriph_Driver/src/stm32f4xx_pwr.o
 .data          0x20000004        0x0 ./STM32F4xx_StdPeriph_Driver/src/stm32f4xx_rcc.o
 .data          0x20000004        0x0 ./STM32F4xx_StdPeriph_Driver/src/stm32f4xx_rng.o
 .data          0x20000004        0x0 ./STM32F4xx_StdPeriph_Driver/src/stm32f4xx_rtc.o
 .data          0x20000004        0x0 ./STM32F4xx_StdPeriph_Driver/src/stm32f4xx_sdio.o
 .data          0x20000004        0x0 ./STM32F4xx_StdPeriph_Driver/src/stm32f4xx_spi.o
 .data          0x20000004        0x0 ./STM32F4xx_StdPeriph_Driver/src/stm32f4xx_syscfg.o
 .data          0x20000004        0x0 ./STM32F4xx_StdPeriph_Driver/src/stm32f4xx_tim.o
 .data          0x20000004        0x0 ./STM32F4xx_StdPeriph_Driver/src/stm32f4xx_usart.o
 .data          0x20000004        0x0 ./STM32F4xx_StdPeriph_Driver/src/stm32f4xx_wwdg.o
 .data          0x20000004        0x0 ./STM32F4-Discovery/stm32f4_discovery.o
 .data          0x20000004        0x0 ./STM32F4-Discovery/stm32f4_discovery_audio_codec.o
 .data          0x20000004        0x0 ./STM32F4-Discovery/stm32f4_discovery_lis302dl.o
 .data          0x20000004        0x0 ./Menue/CMenue.o
 .data          0x20000004        0x0 ./GraphicLCD/CGraphicLCD.o
 .data          0x20000004        0x0 ./GraphicLCD/CT6963CDriver.o
 .data          0x20000004        0x0 ./GraphicLCD/CT6963GPIOInterface.o
 .data          0x20000004        0x0 ./GraphicLCD/SansSerif12.o
 .data          0x20000004        0x0 ./FreeRTOS_EC/Source/AManagedTask.o
 .data          0x20000004        0x0 ./FreeRTOS_EC/Source/ASyncObject.o
 .data          0x20000004        0x0 ./FreeRTOS_EC/Source/ATimer.o
 .data          0x20000004        0x0 ./FreeRTOS_EC/Source/CBinarySemaphore.o
 .data          0x20000004        0x0 ./FreeRTOS_EC/Source/CCountingSemaphore.o
 .data          0x20000004        0x0 ./FreeRTOS_EC/Source/CFreeRTOS.o
 .data          0x20000004        0x0 ./FreeRTOS_EC/Source/CMessageTask.o
 .data          0x20000004        0x0 ./FreeRTOS_EC/Source/CMutex.o
 .data          0x20000004        0x0 ./FreeRTOS_EC/Source/CQueue.o
 .data          0x20000004        0x0 ./FreeRTOS_EC/Source/CRecursiveMutex.o
 .data          0x20000004        0x0 ./FreeRTOS_EC/Source/CTask.o
 .data          0x20000004        0x0 ./FreeRTOS/Source/portable/GCC/ARM_CM4F/port.o
 .data          0x20000004        0x0 ./FreeRTOS/Source/croutine.o
 .data          0x20000004        0x0 ./FreeRTOS/Source/list.o
 .data          0x20000004        0x0 ./FreeRTOS/Source/queue.o
 .data          0x20000004        0x0 ./FreeRTOS/Source/tasks.o
 .data          0x20000004        0x0 ./FreeRTOS/Source/timers.o
 .data          0x20000004        0x0 ./Fatfs/FatFs/src/option/syscall.o
 .data          0x20000004        0x0 ./Fatfs/FatFs/src/diskio.o
 .data          0x20000004        0x0 ./Fatfs/FatFs/src/ff.o
 .data          0x20000004        0x0 ./Fatfs/CFileHandler.o
 .data          0x20000004        0x0 ./Fatfs/fattime.o
 .data          0x20000004        0x0 ./Fatfs/stm32f4_sdio.o
 .data          0x20000004        0x0 ./CLedHeartBeatSTM32F4Disc.o
 .data          0x20000004        0x0 ./main.o
 .data          0x20000004        0x0 ./startup_stm32f4xx.o
 .data          0x20000004        0x0 ./stm32f4xx_it.o
 .data          0x20000004        0x0 ./syscalls.o
 .data          0x20000004        0x0 ./system_stm32f4xx.o
 .data          0x20000004        0x0 ./ustime.o
 .data          0x20000004        0x0 d:/elektronik/ides/eclipse/yagarto/bin/../lib/gcc/arm-none-eabi/4.6.2/../../../../arm-none-eabi/lib/thumb/v7m\libstdc++.a(atexit_arm.o)
 .data          0x20000004        0x0 d:/elektronik/ides/eclipse/yagarto/bin/../lib/gcc/arm-none-eabi/4.6.2/../../../../arm-none-eabi/lib/thumb/v7m\libstdc++.a(del_op.o)
 .data          0x20000004        0x0 d:/elektronik/ides/eclipse/yagarto/bin/../lib/gcc/arm-none-eabi/4.6.2/../../../../arm-none-eabi/lib/thumb/v7m\libstdc++.a(pure.o)
 .data          0x20000004        0x0 d:/elektronik/ides/eclipse/yagarto/bin/../lib/gcc/arm-none-eabi/4.6.2/../../../../arm-none-eabi/lib/thumb/v7m\libstdc++.a(eh_terminate.o)
 .data          0x20000004        0x0 d:/elektronik/ides/eclipse/yagarto/bin/../lib/gcc/arm-none-eabi/4.6.2/../../../../arm-none-eabi/lib/thumb/v7m\libstdc++.a(eh_term_handler.o)
 .data          0x20000004        0x0 d:/elektronik/ides/eclipse/yagarto/bin/../lib/gcc/arm-none-eabi/4.6.2/../../../../arm-none-eabi/lib/thumb/v7m\libstdc++.a(eh_unex_handler.o)
 .data          0x20000004        0x0 d:/elektronik/ides/eclipse/yagarto/bin/../lib/gcc/arm-none-eabi/4.6.2/../../../../arm-none-eabi/lib/thumb/v7m\libstdc++.a(vterminate.o)
 .data          0x20000004        0x0 d:/elektronik/ides/eclipse/yagarto/bin/../lib/gcc/arm-none-eabi/4.6.2/../../../../arm-none-eabi/lib/thumb/v7m\libstdc++.a(cp-demangle.o)
 .data          0x20000004        0x0 d:/elektronik/ides/eclipse/yagarto/bin/../lib/gcc/arm-none-eabi/4.6.2/../../../../arm-none-eabi/lib/thumb/v7m\libstdc++.a(eh_arm.o)
 .data          0x20000004        0x0 d:/elektronik/ides/eclipse/yagarto/bin/../lib/gcc/arm-none-eabi/4.6.2/../../../../arm-none-eabi/lib/thumb/v7m\libstdc++.a(eh_aux_runtime.o)
 .data          0x20000004        0x0 d:/elektronik/ides/eclipse/yagarto/bin/../lib/gcc/arm-none-eabi/4.6.2/../../../../arm-none-eabi/lib/thumb/v7m\libstdc++.a(eh_call.o)
 .data          0x20000004        0x0 d:/elektronik/ides/eclipse/yagarto/bin/../lib/gcc/arm-none-eabi/4.6.2/../../../../arm-none-eabi/lib/thumb/v7m\libstdc++.a(eh_catch.o)
 .data          0x20000004        0x0 d:/elektronik/ides/eclipse/yagarto/bin/../lib/gcc/arm-none-eabi/4.6.2/../../../../arm-none-eabi/lib/thumb/v7m\libstdc++.a(eh_exception.o)
 .data          0x20000004        0x0 d:/elektronik/ides/eclipse/yagarto/bin/../lib/gcc/arm-none-eabi/4.6.2/../../../../arm-none-eabi/lib/thumb/v7m\libstdc++.a(eh_globals.o)
 .data          0x20000004        0x0 d:/elektronik/ides/eclipse/yagarto/bin/../lib/gcc/arm-none-eabi/4.6.2/../../../../arm-none-eabi/lib/thumb/v7m\libstdc++.a(eh_personality.o)
 .data          0x20000004        0x0 d:/elektronik/ides/eclipse/yagarto/bin/../lib/gcc/arm-none-eabi/4.6.2/../../../../arm-none-eabi/lib/thumb/v7m\libstdc++.a(eh_throw.o)
 .data          0x20000004        0x0 d:/elektronik/ides/eclipse/yagarto/bin/../lib/gcc/arm-none-eabi/4.6.2/../../../../arm-none-eabi/lib/thumb/v7m\libstdc++.a(eh_type.o)
 .data          0x20000004        0x0 d:/elektronik/ides/eclipse/yagarto/bin/../lib/gcc/arm-none-eabi/4.6.2/../../../../arm-none-eabi/lib/thumb/v7m\libstdc++.a(fundamental_type_info.o)
 .data          0x20000004        0x0 d:/elektronik/ides/eclipse/yagarto/bin/../lib/gcc/arm-none-eabi/4.6.2/../../../../arm-none-eabi/lib/thumb/v7m\libstdc++.a(pointer_type_info.o)
 .data          0x20000004        0x0 d:/elektronik/ides/eclipse/yagarto/bin/../lib/gcc/arm-none-eabi/4.6.2/../../../../arm-none-eabi/lib/thumb/v7m\libstdc++.a(si_class_type_info.o)
 .data          0x20000004        0x0 d:/elektronik/ides/eclipse/yagarto/bin/../lib/gcc/arm-none-eabi/4.6.2/../../../../arm-none-eabi/lib/thumb/v7m\libstdc++.a(tinfo.o)
 .data          0x20000004        0x0 d:/elektronik/ides/eclipse/yagarto/bin/../lib/gcc/arm-none-eabi/4.6.2/../../../../arm-none-eabi/lib/thumb/v7m\libstdc++.a(bad_cast.o)
 .data          0x20000004        0x0 d:/elektronik/ides/eclipse/yagarto/bin/../lib/gcc/arm-none-eabi/4.6.2/../../../../arm-none-eabi/lib/thumb/v7m\libstdc++.a(bad_typeid.o)
 .data          0x20000004        0x0 d:/elektronik/ides/eclipse/yagarto/bin/../lib/gcc/arm-none-eabi/4.6.2/../../../../arm-none-eabi/lib/thumb/v7m\libstdc++.a(class_type_info.o)
 .data          0x20000004        0x0 d:/elektronik/ides/eclipse/yagarto/bin/../lib/gcc/arm-none-eabi/4.6.2/../../../../arm-none-eabi/lib/thumb/v7m\libstdc++.a(eh_alloc.o)
 .data          0x20000004        0x0 d:/elektronik/ides/eclipse/yagarto/bin/../lib/gcc/arm-none-eabi/4.6.2/../../../../arm-none-eabi/lib/thumb/v7m\libstdc++.a(pbase_type_info.o)
 .data          0x20000004        0x0 d:/elektronik/ides/eclipse/yagarto/bin/../lib/gcc/arm-none-eabi/4.6.2/thumb/v7m\libgcc.a(unwind-arm.o)
 .data          0x20000004        0x0 d:/elektronik/ides/eclipse/yagarto/bin/../lib/gcc/arm-none-eabi/4.6.2/thumb/v7m\libgcc.a(libunwind.o)
 .data          0x20000004        0x0 d:/elektronik/ides/eclipse/yagarto/bin/../lib/gcc/arm-none-eabi/4.6.2/thumb/v7m\libgcc.a(pr-support.o)
 .data          0x20000004        0x0 d:/elektronik/ides/eclipse/yagarto/bin/../lib/gcc/arm-none-eabi/4.6.2/../../../../arm-none-eabi/lib/thumb/v7m\libg.a(lib_a-abort.o)
 .data          0x20000004        0x0 d:/elektronik/ides/eclipse/yagarto/bin/../lib/gcc/arm-none-eabi/4.6.2/../../../../arm-none-eabi/lib/thumb/v7m\libg.a(lib_a-assert.o)
 .data          0x20000004        0x0 d:/elektronik/ides/eclipse/yagarto/bin/../lib/gcc/arm-none-eabi/4.6.2/../../../../arm-none-eabi/lib/thumb/v7m\libg.a(lib_a-atexit.o)
 .data          0x20000004        0x0 d:/elektronik/ides/eclipse/yagarto/bin/../lib/gcc/arm-none-eabi/4.6.2/../../../../arm-none-eabi/lib/thumb/v7m\libg.a(lib_a-cxa_atexit.o)
 .data          0x20000004        0x0 d:/elektronik/ides/eclipse/yagarto/bin/../lib/gcc/arm-none-eabi/4.6.2/../../../../arm-none-eabi/lib/thumb/v7m\libg.a(lib_a-exit.o)
 .data          0x20000004        0x0 d:/elektronik/ides/eclipse/yagarto/bin/../lib/gcc/arm-none-eabi/4.6.2/../../../../arm-none-eabi/lib/thumb/v7m\libg.a(lib_a-fini.o)
 .data          0x20000004        0x0 d:/elektronik/ides/eclipse/yagarto/bin/../lib/gcc/arm-none-eabi/4.6.2/../../../../arm-none-eabi/lib/thumb/v7m\libg.a(lib_a-fiprintf.o)
 .data          0x20000004        0x0 d:/elektronik/ides/eclipse/yagarto/bin/../lib/gcc/arm-none-eabi/4.6.2/../../../../arm-none-eabi/lib/thumb/v7m\libg.a(lib_a-fputc.o)
 .data          0x20000004        0x0 d:/elektronik/ides/eclipse/yagarto/bin/../lib/gcc/arm-none-eabi/4.6.2/../../../../arm-none-eabi/lib/thumb/v7m\libg.a(lib_a-fputs.o)
 .data          0x20000004        0x0 d:/elektronik/ides/eclipse/yagarto/bin/../lib/gcc/arm-none-eabi/4.6.2/../../../../arm-none-eabi/lib/thumb/v7m\libg.a(lib_a-fvwrite.o)
 .data          0x20000004        0x0 d:/elektronik/ides/eclipse/yagarto/bin/../lib/gcc/arm-none-eabi/4.6.2/../../../../arm-none-eabi/lib/thumb/v7m\libg.a(lib_a-fwrite.o)
 *fill*         0x20000004        0x4 00
 .data          0x20000008      0x430 d:/elektronik/ides/eclipse/yagarto/bin/../lib/gcc/arm-none-eabi/4.6.2/../../../../arm-none-eabi/lib/thumb/v7m\libg.a(lib_a-impure.o)
                0x20000008                _impure_ptr
 .data          0x20000438        0x0 d:/elektronik/ides/eclipse/yagarto/bin/../lib/gcc/arm-none-eabi/4.6.2/../../../../arm-none-eabi/lib/thumb/v7m\libg.a(lib_a-init.o)
 .data          0x20000438        0x0 d:/elektronik/ides/eclipse/yagarto/bin/../lib/gcc/arm-none-eabi/4.6.2/../../../../arm-none-eabi/lib/thumb/v7m\libg.a(lib_a-malloc.o)
 .data          0x20000438      0x410 d:/elektronik/ides/eclipse/yagarto/bin/../lib/gcc/arm-none-eabi/4.6.2/../../../../arm-none-eabi/lib/thumb/v7m\libg.a(lib_a-mallocr.o)
                0x20000438                __malloc_av_
                0x20000840                __malloc_sbrk_base
                0x20000844                __malloc_trim_threshold
 .data          0x20000848        0x0 d:/elektronik/ides/eclipse/yagarto/bin/../lib/gcc/arm-none-eabi/4.6.2/../../../../arm-none-eabi/lib/thumb/v7m\libg.a(lib_a-memchr.o)
 .data          0x20000848        0x0 d:/elektronik/ides/eclipse/yagarto/bin/../lib/gcc/arm-none-eabi/4.6.2/../../../../arm-none-eabi/lib/thumb/v7m\libg.a(lib_a-memcmp.o)
 .data          0x20000848        0x0 d:/elektronik/ides/eclipse/yagarto/bin/../lib/gcc/arm-none-eabi/4.6.2/../../../../arm-none-eabi/lib/thumb/v7m\libg.a(lib_a-memcpy.o)
 .data          0x20000848        0x0 d:/elektronik/ides/eclipse/yagarto/bin/../lib/gcc/arm-none-eabi/4.6.2/../../../../arm-none-eabi/lib/thumb/v7m\libg.a(lib_a-memmove.o)
 .data          0x20000848        0x0 d:/elektronik/ides/eclipse/yagarto/bin/../lib/gcc/arm-none-eabi/4.6.2/../../../../arm-none-eabi/lib/thumb/v7m\libg.a(lib_a-memset.o)
 .data          0x20000848        0x0 d:/elektronik/ides/eclipse/yagarto/bin/../lib/gcc/arm-none-eabi/4.6.2/../../../../arm-none-eabi/lib/thumb/v7m\libg.a(lib_a-putc.o)
 .data          0x20000848        0x0 d:/elektronik/ides/eclipse/yagarto/bin/../lib/gcc/arm-none-eabi/4.6.2/../../../../arm-none-eabi/lib/thumb/v7m\libg.a(lib_a-realloc.o)
 .data          0x20000848        0x0 d:/elektronik/ides/eclipse/yagarto/bin/../lib/gcc/arm-none-eabi/4.6.2/../../../../arm-none-eabi/lib/thumb/v7m\libg.a(lib_a-reallocr.o)
 .data          0x20000848        0x0 d:/elektronik/ides/eclipse/yagarto/bin/../lib/gcc/arm-none-eabi/4.6.2/../../../../arm-none-eabi/lib/thumb/v7m\libg.a(lib_a-signal.o)
 .data          0x20000848        0x0 d:/elektronik/ides/eclipse/yagarto/bin/../lib/gcc/arm-none-eabi/4.6.2/../../../../arm-none-eabi/lib/thumb/v7m\libg.a(lib_a-sprintf.o)
 .data          0x20000848        0x0 d:/elektronik/ides/eclipse/yagarto/bin/../lib/gcc/arm-none-eabi/4.6.2/../../../../arm-none-eabi/lib/thumb/v7m\libg.a(lib_a-strcat.o)
 .data          0x20000848        0x0 d:/elektronik/ides/eclipse/yagarto/bin/../lib/gcc/arm-none-eabi/4.6.2/../../../../arm-none-eabi/lib/thumb/v7m\libg.a(lib_a-strcmp.o)
 .data          0x20000848        0x0 d:/elektronik/ides/eclipse/yagarto/bin/../lib/gcc/arm-none-eabi/4.6.2/../../../../arm-none-eabi/lib/thumb/v7m\libg.a(lib_a-strcpy.o)
 .data          0x20000848        0x0 d:/elektronik/ides/eclipse/yagarto/bin/../lib/gcc/arm-none-eabi/4.6.2/../../../../arm-none-eabi/lib/thumb/v7m\libg.a(lib_a-strlen.o)
 .data          0x20000848        0x0 d:/elektronik/ides/eclipse/yagarto/bin/../lib/gcc/arm-none-eabi/4.6.2/../../../../arm-none-eabi/lib/thumb/v7m\libg.a(lib_a-strncmp.o)
 .data          0x20000848        0x0 d:/elektronik/ides/eclipse/yagarto/bin/../lib/gcc/arm-none-eabi/4.6.2/../../../../arm-none-eabi/lib/thumb/v7m\libg.a(lib_a-strncpy.o)
 .data          0x20000848        0x0 d:/elektronik/ides/eclipse/yagarto/bin/../lib/gcc/arm-none-eabi/4.6.2/../../../../arm-none-eabi/lib/thumb/v7m\libg.a(lib_a-svfprintf.o)
 .data          0x20000848        0x0 d:/elektronik/ides/eclipse/yagarto/bin/../lib/gcc/arm-none-eabi/4.6.2/../../../../arm-none-eabi/lib/thumb/v7m\libg.a(lib_a-syswrite.o)
 .data          0x20000848        0x0 d:/elektronik/ides/eclipse/yagarto/bin/../lib/gcc/arm-none-eabi/4.6.2/../../../../arm-none-eabi/lib/thumb/v7m\libg.a(lib_a-vfiprintf.o)
 .data          0x20000848        0x0 d:/elektronik/ides/eclipse/yagarto/bin/../lib/gcc/arm-none-eabi/4.6.2/../../../../arm-none-eabi/lib/thumb/v7m\libg.a(lib_a-wbuf.o)
 .data          0x20000848        0x0 d:/elektronik/ides/eclipse/yagarto/bin/../lib/gcc/arm-none-eabi/4.6.2/../../../../arm-none-eabi/lib/thumb/v7m\libg.a(lib_a-wsetup.o)
 .data          0x20000848        0x0 d:/elektronik/ides/eclipse/yagarto/bin/../lib/gcc/arm-none-eabi/4.6.2/../../../../arm-none-eabi/lib/thumb/v7m\libg.a(lib_a-__atexit.o)
 .data          0x20000848        0x0 d:/elektronik/ides/eclipse/yagarto/bin/../lib/gcc/arm-none-eabi/4.6.2/../../../../arm-none-eabi/lib/thumb/v7m\libg.a(lib_a-__call_atexit.o)
 .data          0x20000848        0x0 d:/elektronik/ides/eclipse/yagarto/bin/../lib/gcc/arm-none-eabi/4.6.2/../../../../arm-none-eabi/lib/thumb/v7m\libg.a(lib_a-dtoa.o)
 .data          0x20000848        0x0 d:/elektronik/ides/eclipse/yagarto/bin/../lib/gcc/arm-none-eabi/4.6.2/../../../../arm-none-eabi/lib/thumb/v7m\libg.a(lib_a-fflush.o)
 .data          0x20000848        0x0 d:/elektronik/ides/eclipse/yagarto/bin/../lib/gcc/arm-none-eabi/4.6.2/../../../../arm-none-eabi/lib/thumb/v7m\libg.a(lib_a-findfp.o)
 .data          0x20000848        0x0 d:/elektronik/ides/eclipse/yagarto/bin/../lib/gcc/arm-none-eabi/4.6.2/../../../../arm-none-eabi/lib/thumb/v7m\libg.a(lib_a-fputwc.o)
 .data          0x20000848        0x0 d:/elektronik/ides/eclipse/yagarto/bin/../lib/gcc/arm-none-eabi/4.6.2/../../../../arm-none-eabi/lib/thumb/v7m\libg.a(lib_a-freer.o)
 .data          0x20000848        0x0 d:/elektronik/ides/eclipse/yagarto/bin/../lib/gcc/arm-none-eabi/4.6.2/../../../../arm-none-eabi/lib/thumb/v7m\libg.a(lib_a-fwalk.o)
 .data          0x20000848       0x7c d:/elektronik/ides/eclipse/yagarto/bin/../lib/gcc/arm-none-eabi/4.6.2/../../../../arm-none-eabi/lib/thumb/v7m\libg.a(lib_a-locale.o)
                0x20000868                __mb_cur_max
 .data          0x200008c4        0x0 d:/elektronik/ides/eclipse/yagarto/bin/../lib/gcc/arm-none-eabi/4.6.2/../../../../arm-none-eabi/lib/thumb/v7m\libg.a(lib_a-makebuf.o)
 .data          0x200008c4        0x0 d:/elektronik/ides/eclipse/yagarto/bin/../lib/gcc/arm-none-eabi/4.6.2/../../../../arm-none-eabi/lib/thumb/v7m\libg.a(lib_a-mprec.o)
 .data          0x200008c4        0x0 d:/elektronik/ides/eclipse/yagarto/bin/../lib/gcc/arm-none-eabi/4.6.2/../../../../arm-none-eabi/lib/thumb/v7m\libg.a(lib_a-s_fpclassify.o)
 .data          0x200008c4        0x0 d:/elektronik/ides/eclipse/yagarto/bin/../lib/gcc/arm-none-eabi/4.6.2/../../../../arm-none-eabi/lib/thumb/v7m\libg.a(lib_a-stdio.o)
 .data          0x200008c4        0x0 d:/elektronik/ides/eclipse/yagarto/bin/../lib/gcc/arm-none-eabi/4.6.2/../../../../arm-none-eabi/lib/thumb/v7m\libg.a(lib_a-svfiprintf.o)
 .data          0x200008c4        0x0 d:/elektronik/ides/eclipse/yagarto/bin/../lib/gcc/arm-none-eabi/4.6.2/../../../../arm-none-eabi/lib/thumb/v7m\libg.a(lib_a-wcrtomb.o)
 .data          0x200008c4        0x4 d:/elektronik/ides/eclipse/yagarto/bin/../lib/gcc/arm-none-eabi/4.6.2/../../../../arm-none-eabi/lib/thumb/v7m\libg.a(lib_a-wctomb_r.o)
                0x200008c4                __wctomb
 .data          0x200008c8        0x0 d:/elektronik/ides/eclipse/yagarto/bin/../lib/gcc/arm-none-eabi/4.6.2/../../../../arm-none-eabi/lib/thumb/v7m\libg.a(lib_a-callocr.o)
 .data          0x200008c8        0x0 d:/elektronik/ides/eclipse/yagarto/bin/../lib/gcc/arm-none-eabi/4.6.2/../../../../arm-none-eabi/lib/thumb/v7m\libg.a(lib_a-fclose.o)
 .data          0x200008c8        0x0 d:/elektronik/ides/eclipse/yagarto/bin/../lib/gcc/arm-none-eabi/4.6.2/thumb/v7m\libgcc.a(_udivsi3.o)
 .data          0x200008c8        0x0 d:/elektronik/ides/eclipse/yagarto/bin/../lib/gcc/arm-none-eabi/4.6.2/thumb/v7m\libgcc.a(_dvmd_tls.o)
 .data          0x200008c8        0x0 d:/elektronik/ides/eclipse/yagarto/bin/../lib/gcc/arm-none-eabi/4.6.2/thumb/v7m\libgcc.a(_arm_addsubdf3.o)
 .data          0x200008c8        0x0 d:/elektronik/ides/eclipse/yagarto/bin/../lib/gcc/arm-none-eabi/4.6.2/thumb/v7m\libgcc.a(_arm_muldivdf3.o)
 .data          0x200008c8        0x0 d:/elektronik/ides/eclipse/yagarto/bin/../lib/gcc/arm-none-eabi/4.6.2/thumb/v7m\libgcc.a(_arm_cmpdf2.o)
 .data          0x200008c8        0x0 d:/elektronik/ides/eclipse/yagarto/bin/../lib/gcc/arm-none-eabi/4.6.2/thumb/v7m\libgcc.a(_arm_fixdfsi.o)
 .data          0x200008c8        0x0 d:/elektronik/ides/eclipse/yagarto/bin/../lib/gcc/arm-none-eabi/4.6.2/thumb/v7m/crtend.o
 .data          0x200008c8        0x0 d:/elektronik/ides/eclipse/yagarto/bin/../lib/gcc/arm-none-eabi/4.6.2/thumb/v7m/crtn.o
 *(.data*)
 .data.APBAHBPrescTable
                0x200008c8       0x10 ./STM32F4xx_StdPeriph_Driver/src/stm32f4xx_rcc.o
 .data.GPIO_PORT
                0x200008d8       0x10 ./STM32F4-Discovery/stm32f4_discovery.o
                0x200008d8                GPIO_PORT
 .data.BUTTON_PORT
                0x200008e8        0x4 ./STM32F4-Discovery/stm32f4_discovery.o
                0x200008e8                BUTTON_PORT
 .data.AudioTotalSize
                0x200008ec        0x4 ./STM32F4-Discovery/stm32f4_discovery_audio_codec.o
                0x200008ec                AudioTotalSize
 .data.AudioRemSize
                0x200008f0        0x4 ./STM32F4-Discovery/stm32f4_discovery_audio_codec.o
                0x200008f0                AudioRemSize
 .data.CODECTimeout
                0x200008f4        0x4 ./STM32F4-Discovery/stm32f4_discovery_audio_codec.o
                0x200008f4                CODECTimeout
 .data.CurrAudioInterface
                0x200008f8        0x4 ./STM32F4-Discovery/stm32f4_discovery_audio_codec.o
                0x200008f8                CurrAudioInterface
 .data.AUDIO_MAL_DMA_CLOCK
                0x200008fc        0x4 ./STM32F4-Discovery/stm32f4_discovery_audio_codec.o
                0x200008fc                AUDIO_MAL_DMA_CLOCK
 .data.AUDIO_MAL_DMA_STREAM
                0x20000900        0x4 ./STM32F4-Discovery/stm32f4_discovery_audio_codec.o
                0x20000900                AUDIO_MAL_DMA_STREAM
 .data.AUDIO_MAL_DMA_DREG
                0x20000904        0x4 ./STM32F4-Discovery/stm32f4_discovery_audio_codec.o
                0x20000904                AUDIO_MAL_DMA_DREG
 .data.AUDIO_MAL_DMA_IRQ
                0x20000908        0x4 ./STM32F4-Discovery/stm32f4_discovery_audio_codec.o
                0x20000908                AUDIO_MAL_DMA_IRQ
 .data.AUDIO_MAL_DMA_FLAG_TC
                0x2000090c        0x4 ./STM32F4-Discovery/stm32f4_discovery_audio_codec.o
                0x2000090c                AUDIO_MAL_DMA_FLAG_TC
 .data.AUDIO_MAL_DMA_FLAG_HT
                0x20000910        0x4 ./STM32F4-Discovery/stm32f4_discovery_audio_codec.o
                0x20000910                AUDIO_MAL_DMA_FLAG_HT
 .data.AUDIO_MAL_DMA_FLAG_FE
                0x20000914        0x4 ./STM32F4-Discovery/stm32f4_discovery_audio_codec.o
                0x20000914                AUDIO_MAL_DMA_FLAG_FE
 .data.AUDIO_MAL_DMA_FLAG_TE
                0x20000918        0x4 ./STM32F4-Discovery/stm32f4_discovery_audio_codec.o
                0x20000918                AUDIO_MAL_DMA_FLAG_TE
 .data.AUDIO_MAL_DMA_FLAG_DME
                0x2000091c        0x4 ./STM32F4-Discovery/stm32f4_discovery_audio_codec.o
                0x2000091c                AUDIO_MAL_DMA_FLAG_DME
 .data.LIS302DLTimeout
                0x20000920        0x4 ./STM32F4-Discovery/stm32f4_discovery_lis302dl.o
                0x20000920                LIS302DLTimeout
 .data.uxCriticalNesting
                0x20000924        0x4 ./FreeRTOS/Source/portable/GCC/ARM_CM4F/port.o
 .data.xNextTaskUnblockTime
                0x20000928        0x4 ./FreeRTOS/Source/tasks.o
 .data.__malloc_margin
                0x2000092c        0x4 ./syscalls.o
                0x2000092c                __malloc_margin
 .data.SystemCoreClock
                0x20000930        0x4 ./system_stm32f4xx.o
                0x20000930                SystemCoreClock
 .data.AHBPrescTable
                0x20000934       0x10 ./system_stm32f4xx.o
                0x20000934                AHBPrescTable
 .data._ZN10__cxxabiv119__terminate_handlerE
                0x20000944        0x4 d:/elektronik/ides/eclipse/yagarto/bin/../lib/gcc/arm-none-eabi/4.6.2/../../../../arm-none-eabi/lib/thumb/v7m\libstdc++.a(eh_term_handler.o)
                0x20000944                __cxxabiv1::__terminate_handler
 .data._ZN10__cxxabiv120__unexpected_handlerE
                0x20000948        0x4 d:/elektronik/ides/eclipse/yagarto/bin/../lib/gcc/arm-none-eabi/4.6.2/../../../../arm-none-eabi/lib/thumb/v7m\libstdc++.a(eh_unex_handler.o)
                0x20000948                __cxxabiv1::__unexpected_handler
                0x2000094c                . = ALIGN (0x4)
                0x2000094c                _edata = .

.jcr            0x2000094c        0x4 load address 0x0803162c
 .jcr           0x2000094c        0x0 d:/elektronik/ides/eclipse/yagarto/bin/../lib/gcc/arm-none-eabi/4.6.2/thumb/v7m/crtbegin.o
 .jcr           0x2000094c        0x4 d:/elektronik/ides/eclipse/yagarto/bin/../lib/gcc/arm-none-eabi/4.6.2/thumb/v7m/crtend.o
                0x20000950                . = ALIGN (0x4)

.bss            0x20000950      0xdc8 load address 0x08031630
                0x20000950                _sbss = .
                0x20000950                __bss_start__ = _sbss
 *(.bss)
 .bss           0x20000950        0x0 d:/elektronik/ides/eclipse/yagarto/bin/../lib/gcc/arm-none-eabi/4.6.2/thumb/v7m/crti.o
 .bss           0x20000950       0x1c d:/elektronik/ides/eclipse/yagarto/bin/../lib/gcc/arm-none-eabi/4.6.2/thumb/v7m/crtbegin.o
 .bss           0x2000096c        0x0 d:/elektronik/ides/eclipse/yagarto/bin/../lib/gcc/arm-none-eabi/4.6.2/../../../../arm-none-eabi/lib/thumb/v7m/crt0.o
 .bss           0x2000096c        0x0 ./STM32F4xx_StdPeriph_Driver/src/misc.o
 .bss           0x2000096c        0x0 ./STM32F4xx_StdPeriph_Driver/src/stm32f4xx_adc.o
 .bss           0x2000096c        0x0 ./STM32F4xx_StdPeriph_Driver/src/stm32f4xx_can.o
 .bss           0x2000096c        0x0 ./STM32F4xx_StdPeriph_Driver/src/stm32f4xx_crc.o
 .bss           0x2000096c        0x0 ./STM32F4xx_StdPeriph_Driver/src/stm32f4xx_cryp.o
 .bss           0x2000096c        0x0 ./STM32F4xx_StdPeriph_Driver/src/stm32f4xx_cryp_aes.o
 .bss           0x2000096c        0x0 ./STM32F4xx_StdPeriph_Driver/src/stm32f4xx_cryp_des.o
 .bss           0x2000096c        0x0 ./STM32F4xx_StdPeriph_Driver/src/stm32f4xx_cryp_tdes.o
 .bss           0x2000096c        0x0 ./STM32F4xx_StdPeriph_Driver/src/stm32f4xx_dac.o
 .bss           0x2000096c        0x0 ./STM32F4xx_StdPeriph_Driver/src/stm32f4xx_dbgmcu.o
 .bss           0x2000096c        0x0 ./STM32F4xx_StdPeriph_Driver/src/stm32f4xx_dcmi.o
 .bss           0x2000096c        0x0 ./STM32F4xx_StdPeriph_Driver/src/stm32f4xx_dma.o
 .bss           0x2000096c        0x0 ./STM32F4xx_StdPeriph_Driver/src/stm32f4xx_exti.o
 .bss           0x2000096c        0x0 ./STM32F4xx_StdPeriph_Driver/src/stm32f4xx_flash.o
 .bss           0x2000096c        0x0 ./STM32F4xx_StdPeriph_Driver/src/stm32f4xx_fsmc.o
 .bss           0x2000096c        0x0 ./STM32F4xx_StdPeriph_Driver/src/stm32f4xx_gpio.o
 .bss           0x2000096c        0x0 ./STM32F4xx_StdPeriph_Driver/src/stm32f4xx_hash.o
 .bss           0x2000096c        0x0 ./STM32F4xx_StdPeriph_Driver/src/stm32f4xx_hash_md5.o
 .bss           0x2000096c        0x0 ./STM32F4xx_StdPeriph_Driver/src/stm32f4xx_hash_sha1.o
 .bss           0x2000096c        0x0 ./STM32F4xx_StdPeriph_Driver/src/stm32f4xx_i2c.o
 .bss           0x2000096c        0x0 ./STM32F4xx_StdPeriph_Driver/src/stm32f4xx_iwdg.o
 .bss           0x2000096c        0x0 ./STM32F4xx_StdPeriph_Driver/src/stm32f4xx_pwr.o
 .bss           0x2000096c        0x0 ./STM32F4xx_StdPeriph_Driver/src/stm32f4xx_rcc.o
 .bss           0x2000096c        0x0 ./STM32F4xx_StdPeriph_Driver/src/stm32f4xx_rng.o
 .bss           0x2000096c        0x0 ./STM32F4xx_StdPeriph_Driver/src/stm32f4xx_rtc.o
 .bss           0x2000096c        0x0 ./STM32F4xx_StdPeriph_Driver/src/stm32f4xx_sdio.o
 .bss           0x2000096c        0x0 ./STM32F4xx_StdPeriph_Driver/src/stm32f4xx_spi.o
 .bss           0x2000096c        0x0 ./STM32F4xx_StdPeriph_Driver/src/stm32f4xx_syscfg.o
 .bss           0x2000096c        0x0 ./STM32F4xx_StdPeriph_Driver/src/stm32f4xx_tim.o
 .bss           0x2000096c        0x0 ./STM32F4xx_StdPeriph_Driver/src/stm32f4xx_usart.o
 .bss           0x2000096c        0x0 ./STM32F4xx_StdPeriph_Driver/src/stm32f4xx_wwdg.o
 .bss           0x2000096c        0x0 ./STM32F4-Discovery/stm32f4_discovery.o
 .bss           0x2000096c        0x0 ./STM32F4-Discovery/stm32f4_discovery_audio_codec.o
 .bss           0x2000096c        0x0 ./STM32F4-Discovery/stm32f4_discovery_lis302dl.o
 .bss           0x2000096c        0x0 ./Menue/CMenue.o
 .bss           0x2000096c        0x0 ./GraphicLCD/CGraphicLCD.o
 .bss           0x2000096c        0x0 ./GraphicLCD/CT6963CDriver.o
 .bss           0x2000096c        0x0 ./GraphicLCD/CT6963GPIOInterface.o
 .bss           0x2000096c        0x0 ./GraphicLCD/SansSerif12.o
 .bss           0x2000096c        0x0 ./FreeRTOS_EC/Source/AManagedTask.o
 .bss           0x2000096c        0x0 ./FreeRTOS_EC/Source/ASyncObject.o
 .bss           0x2000096c        0x0 ./FreeRTOS_EC/Source/ATimer.o
 .bss           0x2000096c        0x0 ./FreeRTOS_EC/Source/CBinarySemaphore.o
 .bss           0x2000096c        0x0 ./FreeRTOS_EC/Source/CCountingSemaphore.o
 .bss           0x2000096c        0x0 ./FreeRTOS_EC/Source/CFreeRTOS.o
 .bss           0x2000096c        0x0 ./FreeRTOS_EC/Source/CMessageTask.o
 .bss           0x2000096c        0x0 ./FreeRTOS_EC/Source/CMutex.o
 .bss           0x2000096c        0x0 ./FreeRTOS_EC/Source/CQueue.o
 .bss           0x2000096c        0x0 ./FreeRTOS_EC/Source/CRecursiveMutex.o
 .bss           0x2000096c        0x0 ./FreeRTOS_EC/Source/CTask.o
 .bss           0x2000096c        0x0 ./FreeRTOS/Source/portable/GCC/ARM_CM4F/port.o
 .bss           0x2000096c        0x0 ./FreeRTOS/Source/croutine.o
 .bss           0x2000096c        0x0 ./FreeRTOS/Source/list.o
 .bss           0x2000096c        0x0 ./FreeRTOS/Source/queue.o
 .bss           0x2000096c        0x0 ./FreeRTOS/Source/tasks.o
 .bss           0x2000096c        0x0 ./FreeRTOS/Source/timers.o
 .bss           0x2000096c        0x0 ./Fatfs/FatFs/src/option/syscall.o
 .bss           0x2000096c        0x0 ./Fatfs/FatFs/src/diskio.o
 .bss           0x2000096c        0x0 ./Fatfs/FatFs/src/ff.o
 .bss           0x2000096c        0x0 ./Fatfs/CFileHandler.o
 .bss           0x2000096c        0x0 ./Fatfs/fattime.o
 .bss           0x2000096c        0x0 ./Fatfs/stm32f4_sdio.o
 .bss           0x2000096c        0x0 ./CLedHeartBeatSTM32F4Disc.o
 .bss           0x2000096c        0x0 ./main.o
 .bss           0x2000096c        0x0 ./startup_stm32f4xx.o
 .bss           0x2000096c        0x0 ./stm32f4xx_it.o
 .bss           0x2000096c        0x0 ./syscalls.o
 .bss           0x2000096c        0x0 ./system_stm32f4xx.o
 .bss           0x2000096c        0x0 ./ustime.o
 .bss           0x2000096c        0x0 d:/elektronik/ides/eclipse/yagarto/bin/../lib/gcc/arm-none-eabi/4.6.2/../../../../arm-none-eabi/lib/thumb/v7m\libstdc++.a(atexit_arm.o)
 .bss           0x2000096c        0x0 d:/elektronik/ides/eclipse/yagarto/bin/../lib/gcc/arm-none-eabi/4.6.2/../../../../arm-none-eabi/lib/thumb/v7m\libstdc++.a(del_op.o)
 .bss           0x2000096c        0x0 d:/elektronik/ides/eclipse/yagarto/bin/../lib/gcc/arm-none-eabi/4.6.2/../../../../arm-none-eabi/lib/thumb/v7m\libstdc++.a(pure.o)
 .bss           0x2000096c        0x0 d:/elektronik/ides/eclipse/yagarto/bin/../lib/gcc/arm-none-eabi/4.6.2/../../../../arm-none-eabi/lib/thumb/v7m\libstdc++.a(eh_terminate.o)
 .bss           0x2000096c        0x0 d:/elektronik/ides/eclipse/yagarto/bin/../lib/gcc/arm-none-eabi/4.6.2/../../../../arm-none-eabi/lib/thumb/v7m\libstdc++.a(eh_term_handler.o)
 .bss           0x2000096c        0x0 d:/elektronik/ides/eclipse/yagarto/bin/../lib/gcc/arm-none-eabi/4.6.2/../../../../arm-none-eabi/lib/thumb/v7m\libstdc++.a(eh_unex_handler.o)
 .bss           0x2000096c        0x0 d:/elektronik/ides/eclipse/yagarto/bin/../lib/gcc/arm-none-eabi/4.6.2/../../../../arm-none-eabi/lib/thumb/v7m\libstdc++.a(vterminate.o)
 .bss           0x2000096c        0x0 d:/elektronik/ides/eclipse/yagarto/bin/../lib/gcc/arm-none-eabi/4.6.2/../../../../arm-none-eabi/lib/thumb/v7m\libstdc++.a(cp-demangle.o)
 .bss           0x2000096c        0x0 d:/elektronik/ides/eclipse/yagarto/bin/../lib/gcc/arm-none-eabi/4.6.2/../../../../arm-none-eabi/lib/thumb/v7m\libstdc++.a(eh_arm.o)
 .bss           0x2000096c        0x0 d:/elektronik/ides/eclipse/yagarto/bin/../lib/gcc/arm-none-eabi/4.6.2/../../../../arm-none-eabi/lib/thumb/v7m\libstdc++.a(eh_aux_runtime.o)
 .bss           0x2000096c        0x0 d:/elektronik/ides/eclipse/yagarto/bin/../lib/gcc/arm-none-eabi/4.6.2/../../../../arm-none-eabi/lib/thumb/v7m\libstdc++.a(eh_call.o)
 .bss           0x2000096c        0x0 d:/elektronik/ides/eclipse/yagarto/bin/../lib/gcc/arm-none-eabi/4.6.2/../../../../arm-none-eabi/lib/thumb/v7m\libstdc++.a(eh_catch.o)
 .bss           0x2000096c        0x0 d:/elektronik/ides/eclipse/yagarto/bin/../lib/gcc/arm-none-eabi/4.6.2/../../../../arm-none-eabi/lib/thumb/v7m\libstdc++.a(eh_exception.o)
 .bss           0x2000096c        0x0 d:/elektronik/ides/eclipse/yagarto/bin/../lib/gcc/arm-none-eabi/4.6.2/../../../../arm-none-eabi/lib/thumb/v7m\libstdc++.a(eh_globals.o)
 .bss           0x2000096c        0x0 d:/elektronik/ides/eclipse/yagarto/bin/../lib/gcc/arm-none-eabi/4.6.2/../../../../arm-none-eabi/lib/thumb/v7m\libstdc++.a(eh_personality.o)
 .bss           0x2000096c        0x0 d:/elektronik/ides/eclipse/yagarto/bin/../lib/gcc/arm-none-eabi/4.6.2/../../../../arm-none-eabi/lib/thumb/v7m\libstdc++.a(eh_throw.o)
 .bss           0x2000096c        0x0 d:/elektronik/ides/eclipse/yagarto/bin/../lib/gcc/arm-none-eabi/4.6.2/../../../../arm-none-eabi/lib/thumb/v7m\libstdc++.a(eh_type.o)
 .bss           0x2000096c        0x0 d:/elektronik/ides/eclipse/yagarto/bin/../lib/gcc/arm-none-eabi/4.6.2/../../../../arm-none-eabi/lib/thumb/v7m\libstdc++.a(fundamental_type_info.o)
 .bss           0x2000096c        0x0 d:/elektronik/ides/eclipse/yagarto/bin/../lib/gcc/arm-none-eabi/4.6.2/../../../../arm-none-eabi/lib/thumb/v7m\libstdc++.a(pointer_type_info.o)
 .bss           0x2000096c        0x0 d:/elektronik/ides/eclipse/yagarto/bin/../lib/gcc/arm-none-eabi/4.6.2/../../../../arm-none-eabi/lib/thumb/v7m\libstdc++.a(si_class_type_info.o)
 .bss           0x2000096c        0x0 d:/elektronik/ides/eclipse/yagarto/bin/../lib/gcc/arm-none-eabi/4.6.2/../../../../arm-none-eabi/lib/thumb/v7m\libstdc++.a(tinfo.o)
 .bss           0x2000096c        0x0 d:/elektronik/ides/eclipse/yagarto/bin/../lib/gcc/arm-none-eabi/4.6.2/../../../../arm-none-eabi/lib/thumb/v7m\libstdc++.a(bad_cast.o)
 .bss           0x2000096c        0x0 d:/elektronik/ides/eclipse/yagarto/bin/../lib/gcc/arm-none-eabi/4.6.2/../../../../arm-none-eabi/lib/thumb/v7m\libstdc++.a(bad_typeid.o)
 .bss           0x2000096c        0x0 d:/elektronik/ides/eclipse/yagarto/bin/../lib/gcc/arm-none-eabi/4.6.2/../../../../arm-none-eabi/lib/thumb/v7m\libstdc++.a(class_type_info.o)
 .bss           0x2000096c        0x0 d:/elektronik/ides/eclipse/yagarto/bin/../lib/gcc/arm-none-eabi/4.6.2/../../../../arm-none-eabi/lib/thumb/v7m\libstdc++.a(eh_alloc.o)
 .bss           0x2000096c        0x0 d:/elektronik/ides/eclipse/yagarto/bin/../lib/gcc/arm-none-eabi/4.6.2/../../../../arm-none-eabi/lib/thumb/v7m\libstdc++.a(pbase_type_info.o)
 .bss           0x2000096c        0x0 d:/elektronik/ides/eclipse/yagarto/bin/../lib/gcc/arm-none-eabi/4.6.2/thumb/v7m\libgcc.a(unwind-arm.o)
 .bss           0x2000096c        0x0 d:/elektronik/ides/eclipse/yagarto/bin/../lib/gcc/arm-none-eabi/4.6.2/thumb/v7m\libgcc.a(libunwind.o)
 .bss           0x2000096c        0x0 d:/elektronik/ides/eclipse/yagarto/bin/../lib/gcc/arm-none-eabi/4.6.2/thumb/v7m\libgcc.a(pr-support.o)
 .bss           0x2000096c        0x0 d:/elektronik/ides/eclipse/yagarto/bin/../lib/gcc/arm-none-eabi/4.6.2/../../../../arm-none-eabi/lib/thumb/v7m\libg.a(lib_a-abort.o)
 .bss           0x2000096c        0x0 d:/elektronik/ides/eclipse/yagarto/bin/../lib/gcc/arm-none-eabi/4.6.2/../../../../arm-none-eabi/lib/thumb/v7m\libg.a(lib_a-assert.o)
 .bss           0x2000096c        0x0 d:/elektronik/ides/eclipse/yagarto/bin/../lib/gcc/arm-none-eabi/4.6.2/../../../../arm-none-eabi/lib/thumb/v7m\libg.a(lib_a-atexit.o)
 .bss           0x2000096c        0x0 d:/elektronik/ides/eclipse/yagarto/bin/../lib/gcc/arm-none-eabi/4.6.2/../../../../arm-none-eabi/lib/thumb/v7m\libg.a(lib_a-cxa_atexit.o)
 .bss           0x2000096c        0x0 d:/elektronik/ides/eclipse/yagarto/bin/../lib/gcc/arm-none-eabi/4.6.2/../../../../arm-none-eabi/lib/thumb/v7m\libg.a(lib_a-exit.o)
 .bss           0x2000096c        0x0 d:/elektronik/ides/eclipse/yagarto/bin/../lib/gcc/arm-none-eabi/4.6.2/../../../../arm-none-eabi/lib/thumb/v7m\libg.a(lib_a-fini.o)
 .bss           0x2000096c        0x0 d:/elektronik/ides/eclipse/yagarto/bin/../lib/gcc/arm-none-eabi/4.6.2/../../../../arm-none-eabi/lib/thumb/v7m\libg.a(lib_a-fiprintf.o)
 .bss           0x2000096c        0x0 d:/elektronik/ides/eclipse/yagarto/bin/../lib/gcc/arm-none-eabi/4.6.2/../../../../arm-none-eabi/lib/thumb/v7m\libg.a(lib_a-fputc.o)
 .bss           0x2000096c        0x0 d:/elektronik/ides/eclipse/yagarto/bin/../lib/gcc/arm-none-eabi/4.6.2/../../../../arm-none-eabi/lib/thumb/v7m\libg.a(lib_a-fputs.o)
 .bss           0x2000096c        0x0 d:/elektronik/ides/eclipse/yagarto/bin/../lib/gcc/arm-none-eabi/4.6.2/../../../../arm-none-eabi/lib/thumb/v7m\libg.a(lib_a-fvwrite.o)
 .bss           0x2000096c        0x0 d:/elektronik/ides/eclipse/yagarto/bin/../lib/gcc/arm-none-eabi/4.6.2/../../../../arm-none-eabi/lib/thumb/v7m\libg.a(lib_a-fwrite.o)
 .bss           0x2000096c        0x0 d:/elektronik/ides/eclipse/yagarto/bin/../lib/gcc/arm-none-eabi/4.6.2/../../../../arm-none-eabi/lib/thumb/v7m\libg.a(lib_a-impure.o)
 .bss           0x2000096c        0x0 d:/elektronik/ides/eclipse/yagarto/bin/../lib/gcc/arm-none-eabi/4.6.2/../../../../arm-none-eabi/lib/thumb/v7m\libg.a(lib_a-init.o)
 .bss           0x2000096c        0x0 d:/elektronik/ides/eclipse/yagarto/bin/../lib/gcc/arm-none-eabi/4.6.2/../../../../arm-none-eabi/lib/thumb/v7m\libg.a(lib_a-malloc.o)
 .bss           0x2000096c       0x34 d:/elektronik/ides/eclipse/yagarto/bin/../lib/gcc/arm-none-eabi/4.6.2/../../../../arm-none-eabi/lib/thumb/v7m\libg.a(lib_a-mallocr.o)
                0x2000096c                __malloc_top_pad
                0x20000970                __malloc_current_mallinfo
                0x20000998                __malloc_max_sbrked_mem
                0x2000099c                __malloc_max_total_mem
 .bss           0x200009a0        0x0 d:/elektronik/ides/eclipse/yagarto/bin/../lib/gcc/arm-none-eabi/4.6.2/../../../../arm-none-eabi/lib/thumb/v7m\libg.a(lib_a-memchr.o)
 .bss           0x200009a0        0x0 d:/elektronik/ides/eclipse/yagarto/bin/../lib/gcc/arm-none-eabi/4.6.2/../../../../arm-none-eabi/lib/thumb/v7m\libg.a(lib_a-memcmp.o)
 .bss           0x200009a0        0x0 d:/elektronik/ides/eclipse/yagarto/bin/../lib/gcc/arm-none-eabi/4.6.2/../../../../arm-none-eabi/lib/thumb/v7m\libg.a(lib_a-memcpy.o)
 .bss           0x200009a0        0x0 d:/elektronik/ides/eclipse/yagarto/bin/../lib/gcc/arm-none-eabi/4.6.2/../../../../arm-none-eabi/lib/thumb/v7m\libg.a(lib_a-memmove.o)
 .bss           0x200009a0        0x0 d:/elektronik/ides/eclipse/yagarto/bin/../lib/gcc/arm-none-eabi/4.6.2/../../../../arm-none-eabi/lib/thumb/v7m\libg.a(lib_a-memset.o)
 .bss           0x200009a0        0x0 d:/elektronik/ides/eclipse/yagarto/bin/../lib/gcc/arm-none-eabi/4.6.2/../../../../arm-none-eabi/lib/thumb/v7m\libg.a(lib_a-putc.o)
 .bss           0x200009a0        0x0 d:/elektronik/ides/eclipse/yagarto/bin/../lib/gcc/arm-none-eabi/4.6.2/../../../../arm-none-eabi/lib/thumb/v7m\libg.a(lib_a-realloc.o)
 .bss           0x200009a0        0x0 d:/elektronik/ides/eclipse/yagarto/bin/../lib/gcc/arm-none-eabi/4.6.2/../../../../arm-none-eabi/lib/thumb/v7m\libg.a(lib_a-reallocr.o)
 .bss           0x200009a0        0x0 d:/elektronik/ides/eclipse/yagarto/bin/../lib/gcc/arm-none-eabi/4.6.2/../../../../arm-none-eabi/lib/thumb/v7m\libg.a(lib_a-signal.o)
 .bss           0x200009a0        0x0 d:/elektronik/ides/eclipse/yagarto/bin/../lib/gcc/arm-none-eabi/4.6.2/../../../../arm-none-eabi/lib/thumb/v7m\libg.a(lib_a-sprintf.o)
 .bss           0x200009a0        0x0 d:/elektronik/ides/eclipse/yagarto/bin/../lib/gcc/arm-none-eabi/4.6.2/../../../../arm-none-eabi/lib/thumb/v7m\libg.a(lib_a-strcat.o)
 .bss           0x200009a0        0x0 d:/elektronik/ides/eclipse/yagarto/bin/../lib/gcc/arm-none-eabi/4.6.2/../../../../arm-none-eabi/lib/thumb/v7m\libg.a(lib_a-strcmp.o)
 .bss           0x200009a0        0x0 d:/elektronik/ides/eclipse/yagarto/bin/../lib/gcc/arm-none-eabi/4.6.2/../../../../arm-none-eabi/lib/thumb/v7m\libg.a(lib_a-strcpy.o)
 .bss           0x200009a0        0x0 d:/elektronik/ides/eclipse/yagarto/bin/../lib/gcc/arm-none-eabi/4.6.2/../../../../arm-none-eabi/lib/thumb/v7m\libg.a(lib_a-strlen.o)
 .bss           0x200009a0        0x0 d:/elektronik/ides/eclipse/yagarto/bin/../lib/gcc/arm-none-eabi/4.6.2/../../../../arm-none-eabi/lib/thumb/v7m\libg.a(lib_a-strncmp.o)
 .bss           0x200009a0        0x0 d:/elektronik/ides/eclipse/yagarto/bin/../lib/gcc/arm-none-eabi/4.6.2/../../../../arm-none-eabi/lib/thumb/v7m\libg.a(lib_a-strncpy.o)
 .bss           0x200009a0        0x0 d:/elektronik/ides/eclipse/yagarto/bin/../lib/gcc/arm-none-eabi/4.6.2/../../../../arm-none-eabi/lib/thumb/v7m\libg.a(lib_a-svfprintf.o)
 .bss           0x200009a0        0x0 d:/elektronik/ides/eclipse/yagarto/bin/../lib/gcc/arm-none-eabi/4.6.2/../../../../arm-none-eabi/lib/thumb/v7m\libg.a(lib_a-syswrite.o)
 .bss           0x200009a0        0x0 d:/elektronik/ides/eclipse/yagarto/bin/../lib/gcc/arm-none-eabi/4.6.2/../../../../arm-none-eabi/lib/thumb/v7m\libg.a(lib_a-vfiprintf.o)
 .bss           0x200009a0        0x0 d:/elektronik/ides/eclipse/yagarto/bin/../lib/gcc/arm-none-eabi/4.6.2/../../../../arm-none-eabi/lib/thumb/v7m\libg.a(lib_a-wbuf.o)
 .bss           0x200009a0        0x0 d:/elektronik/ides/eclipse/yagarto/bin/../lib/gcc/arm-none-eabi/4.6.2/../../../../arm-none-eabi/lib/thumb/v7m\libg.a(lib_a-wsetup.o)
 .bss           0x200009a0        0x0 d:/elektronik/ides/eclipse/yagarto/bin/../lib/gcc/arm-none-eabi/4.6.2/../../../../arm-none-eabi/lib/thumb/v7m\libg.a(lib_a-__atexit.o)
 .bss           0x200009a0        0x0 d:/elektronik/ides/eclipse/yagarto/bin/../lib/gcc/arm-none-eabi/4.6.2/../../../../arm-none-eabi/lib/thumb/v7m\libg.a(lib_a-__call_atexit.o)
 .bss           0x200009a0        0x0 d:/elektronik/ides/eclipse/yagarto/bin/../lib/gcc/arm-none-eabi/4.6.2/../../../../arm-none-eabi/lib/thumb/v7m\libg.a(lib_a-dtoa.o)
 .bss           0x200009a0        0x0 d:/elektronik/ides/eclipse/yagarto/bin/../lib/gcc/arm-none-eabi/4.6.2/../../../../arm-none-eabi/lib/thumb/v7m\libg.a(lib_a-fflush.o)
 .bss           0x200009a0        0x0 d:/elektronik/ides/eclipse/yagarto/bin/../lib/gcc/arm-none-eabi/4.6.2/../../../../arm-none-eabi/lib/thumb/v7m\libg.a(lib_a-findfp.o)
 .bss           0x200009a0        0x0 d:/elektronik/ides/eclipse/yagarto/bin/../lib/gcc/arm-none-eabi/4.6.2/../../../../arm-none-eabi/lib/thumb/v7m\libg.a(lib_a-fputwc.o)
 .bss           0x200009a0        0x0 d:/elektronik/ides/eclipse/yagarto/bin/../lib/gcc/arm-none-eabi/4.6.2/../../../../arm-none-eabi/lib/thumb/v7m\libg.a(lib_a-freer.o)
 .bss           0x200009a0        0x0 d:/elektronik/ides/eclipse/yagarto/bin/../lib/gcc/arm-none-eabi/4.6.2/../../../../arm-none-eabi/lib/thumb/v7m\libg.a(lib_a-fwalk.o)
 .bss           0x200009a0        0xc d:/elektronik/ides/eclipse/yagarto/bin/../lib/gcc/arm-none-eabi/4.6.2/../../../../arm-none-eabi/lib/thumb/v7m\libg.a(lib_a-locale.o)
                0x200009a0                _PathLocale
                0x200009a4                __mlocale_changed
                0x200009a8                __nlocale_changed
 .bss           0x200009ac        0x0 d:/elektronik/ides/eclipse/yagarto/bin/../lib/gcc/arm-none-eabi/4.6.2/../../../../arm-none-eabi/lib/thumb/v7m\libg.a(lib_a-makebuf.o)
 .bss           0x200009ac        0x0 d:/elektronik/ides/eclipse/yagarto/bin/../lib/gcc/arm-none-eabi/4.6.2/../../../../arm-none-eabi/lib/thumb/v7m\libg.a(lib_a-mprec.o)
 .bss           0x200009ac        0x0 d:/elektronik/ides/eclipse/yagarto/bin/../lib/gcc/arm-none-eabi/4.6.2/../../../../arm-none-eabi/lib/thumb/v7m\libg.a(lib_a-s_fpclassify.o)
 .bss           0x200009ac        0x0 d:/elektronik/ides/eclipse/yagarto/bin/../lib/gcc/arm-none-eabi/4.6.2/../../../../arm-none-eabi/lib/thumb/v7m\libg.a(lib_a-stdio.o)
 .bss           0x200009ac        0x0 d:/elektronik/ides/eclipse/yagarto/bin/../lib/gcc/arm-none-eabi/4.6.2/../../../../arm-none-eabi/lib/thumb/v7m\libg.a(lib_a-svfiprintf.o)
 .bss           0x200009ac        0x0 d:/elektronik/ides/eclipse/yagarto/bin/../lib/gcc/arm-none-eabi/4.6.2/../../../../arm-none-eabi/lib/thumb/v7m\libg.a(lib_a-wcrtomb.o)
 .bss           0x200009ac        0x0 d:/elektronik/ides/eclipse/yagarto/bin/../lib/gcc/arm-none-eabi/4.6.2/../../../../arm-none-eabi/lib/thumb/v7m\libg.a(lib_a-wctomb_r.o)
 .bss           0x200009ac        0x0 d:/elektronik/ides/eclipse/yagarto/bin/../lib/gcc/arm-none-eabi/4.6.2/../../../../arm-none-eabi/lib/thumb/v7m\libg.a(lib_a-callocr.o)
 .bss           0x200009ac        0x0 d:/elektronik/ides/eclipse/yagarto/bin/../lib/gcc/arm-none-eabi/4.6.2/../../../../arm-none-eabi/lib/thumb/v7m\libg.a(lib_a-fclose.o)
 .bss           0x200009ac        0x0 d:/elektronik/ides/eclipse/yagarto/bin/../lib/gcc/arm-none-eabi/4.6.2/thumb/v7m\libgcc.a(_udivsi3.o)
 .bss           0x200009ac        0x0 d:/elektronik/ides/eclipse/yagarto/bin/../lib/gcc/arm-none-eabi/4.6.2/thumb/v7m\libgcc.a(_dvmd_tls.o)
 .bss           0x200009ac        0x0 d:/elektronik/ides/eclipse/yagarto/bin/../lib/gcc/arm-none-eabi/4.6.2/thumb/v7m\libgcc.a(_arm_addsubdf3.o)
 .bss           0x200009ac        0x0 d:/elektronik/ides/eclipse/yagarto/bin/../lib/gcc/arm-none-eabi/4.6.2/thumb/v7m\libgcc.a(_arm_muldivdf3.o)
 .bss           0x200009ac        0x0 d:/elektronik/ides/eclipse/yagarto/bin/../lib/gcc/arm-none-eabi/4.6.2/thumb/v7m\libgcc.a(_arm_cmpdf2.o)
 .bss           0x200009ac        0x0 d:/elektronik/ides/eclipse/yagarto/bin/../lib/gcc/arm-none-eabi/4.6.2/thumb/v7m\libgcc.a(_arm_fixdfsi.o)
 .bss           0x200009ac        0x0 d:/elektronik/ides/eclipse/yagarto/bin/../lib/gcc/arm-none-eabi/4.6.2/thumb/v7m/crtend.o
 .bss           0x200009ac        0x0 d:/elektronik/ides/eclipse/yagarto/bin/../lib/gcc/arm-none-eabi/4.6.2/thumb/v7m/crtn.o
 *(.bss*)
 .bss.OutputDev
                0x200009ac        0x1 ./STM32F4-Discovery/stm32f4_discovery_audio_codec.o
                0x200009ac                OutputDev
 *fill*         0x200009ad        0x3 00
 .bss.AUDIO_MAL_DMA_CHANNEL
                0x200009b0        0x4 ./STM32F4-Discovery/stm32f4_discovery_audio_codec.o
                0x200009b0                AUDIO_MAL_DMA_CHANNEL
 .bss._ZN12AManagedTask22s_pManagedTaskListHeadE
                0x200009b4        0x4 ./FreeRTOS_EC/Source/AManagedTask.o
                0x200009b4                AManagedTask::s_pManagedTaskListHead
 .bss.pxReadyCoRoutineLists
                0x200009b8       0x28 ./FreeRTOS/Source/croutine.o
 .bss.xDelayedCoRoutineList1
                0x200009e0       0x14 ./FreeRTOS/Source/croutine.o
 .bss.xDelayedCoRoutineList2
                0x200009f4       0x14 ./FreeRTOS/Source/croutine.o
 .bss.pxDelayedCoRoutineList
                0x20000a08        0x4 ./FreeRTOS/Source/croutine.o
 .bss.pxOverflowDelayedCoRoutineList
                0x20000a0c        0x4 ./FreeRTOS/Source/croutine.o
 .bss.xPendingReadyCoRoutineList
                0x20000a10       0x14 ./FreeRTOS/Source/croutine.o
 .bss.pxCurrentCoRoutine
                0x20000a24        0x4 ./FreeRTOS/Source/croutine.o
                0x20000a24                pxCurrentCoRoutine
 .bss.uxTopCoRoutineReadyPriority
                0x20000a28        0x4 ./FreeRTOS/Source/croutine.o
 .bss.xCoRoutineTickCount
                0x20000a2c        0x4 ./FreeRTOS/Source/croutine.o
 .bss.xLastTickCount
                0x20000a30        0x4 ./FreeRTOS/Source/croutine.o
 .bss.xPassedTicks
                0x20000a34        0x4 ./FreeRTOS/Source/croutine.o
 .bss.pxCurrentTCB
                0x20000a38        0x4 ./FreeRTOS/Source/tasks.o
                0x20000a38                pxCurrentTCB
 .bss.pxReadyTasksLists
                0x20000a3c       0x64 ./FreeRTOS/Source/tasks.o
 .bss.xDelayedTaskList1
                0x20000aa0       0x14 ./FreeRTOS/Source/tasks.o
 .bss.xDelayedTaskList2
                0x20000ab4       0x14 ./FreeRTOS/Source/tasks.o
 .bss.pxDelayedTaskList
                0x20000ac8        0x4 ./FreeRTOS/Source/tasks.o
 .bss.pxOverflowDelayedTaskList
                0x20000acc        0x4 ./FreeRTOS/Source/tasks.o
 .bss.xPendingReadyList
                0x20000ad0       0x14 ./FreeRTOS/Source/tasks.o
 .bss.xTasksWaitingTermination
                0x20000ae4       0x14 ./FreeRTOS/Source/tasks.o
 .bss.uxTasksDeleted
                0x20000af8        0x4 ./FreeRTOS/Source/tasks.o
 .bss.xSuspendedTaskList
                0x20000afc       0x14 ./FreeRTOS/Source/tasks.o
 .bss.xIdleTaskHandle
                0x20000b10        0x4 ./FreeRTOS/Source/tasks.o
 .bss.uxCurrentNumberOfTasks
                0x20000b14        0x4 ./FreeRTOS/Source/tasks.o
 .bss.xTickCount
                0x20000b18        0x4 ./FreeRTOS/Source/tasks.o
 .bss.uxTopUsedPriority
                0x20000b1c        0x4 ./FreeRTOS/Source/tasks.o
 .bss.uxTopReadyPriority
                0x20000b20        0x4 ./FreeRTOS/Source/tasks.o
 .bss.xSchedulerRunning
                0x20000b24        0x4 ./FreeRTOS/Source/tasks.o
 .bss.uxSchedulerSuspended
                0x20000b28        0x4 ./FreeRTOS/Source/tasks.o
 .bss.uxMissedTicks
                0x20000b2c        0x4 ./FreeRTOS/Source/tasks.o
 .bss.xMissedYield
                0x20000b30        0x4 ./FreeRTOS/Source/tasks.o
 .bss.xNumOfOverflows
                0x20000b34        0x4 ./FreeRTOS/Source/tasks.o
 .bss.uxTaskNumber
                0x20000b38        0x4 ./FreeRTOS/Source/tasks.o
 .bss.pcStatsString
                0x20000b3c       0x34 ./FreeRTOS/Source/tasks.o
 .bss.ulTaskSwitchedInTime
                0x20000b70        0x4 ./FreeRTOS/Source/tasks.o
 .bss.FatFs     0x20000b74        0x4 ./Fatfs/FatFs/src/ff.o
 .bss.Fsid      0x20000b78        0x2 ./Fatfs/FatFs/src/ff.o
 .bss.Drive     0x20000b7a        0x1 ./Fatfs/FatFs/src/ff.o
 *fill*         0x20000b7b        0x1 00
 .bss.CardType  0x20000b7c        0x4 ./Fatfs/stm32f4_sdio.o
 .bss.CSD_Tab   0x20000b80       0x10 ./Fatfs/stm32f4_sdio.o
 .bss.CID_Tab   0x20000b90       0x10 ./Fatfs/stm32f4_sdio.o
 .bss.RCA       0x20000ba0        0x4 ./Fatfs/stm32f4_sdio.o
 .bss.SDSTATUS_Tab
                0x20000ba4       0x10 ./Fatfs/stm32f4_sdio.o
 .bss.StopCondition
                0x20000bb4        0x4 ./Fatfs/stm32f4_sdio.o
                0x20000bb4                StopCondition
 .bss.TransferError
                0x20000bb8        0x1 ./Fatfs/stm32f4_sdio.o
                0x20000bb8                TransferError
 *fill*         0x20000bb9        0x3 00
 .bss.TransferEnd
                0x20000bbc        0x4 ./Fatfs/stm32f4_sdio.o
                0x20000bbc                TransferEnd
 .bss.DMAEndOfTransfer
                0x20000bc0        0x4 ./Fatfs/stm32f4_sdio.o
                0x20000bc0                DMAEndOfTransfer
 .bss.g_LedTast
                0x20000bc4       0x14 ./main.o
                0x20000bc4                g_LedTast
 .bss.g_Display
                0x20000bd8        0x8 ./main.o
                0x20000bd8                g_Display
 .bss.g_Menue   0x20000be0       0x10 ./main.o
                0x20000be0                g_Menue
 .bss.t0.4537   0x20000bf0        0x2 ./ustime.o
 *fill*         0x20000bf2        0x6 00
 .bss.tickcount.4538
                0x20000bf8        0x8 ./ustime.o
 .bss._ZZN9__gnu_cxx27__verbose_terminate_handlerEvE11terminating
                0x20000c00        0x1 d:/elektronik/ides/eclipse/yagarto/bin/../lib/gcc/arm-none-eabi/4.6.2/../../../../arm-none-eabi/lib/thumb/v7m\libstdc++.a(vterminate.o)
 *fill*         0x20000c01        0x3 00
 .bss._ZL10eh_globals
                0x20000c04        0xc d:/elektronik/ides/eclipse/yagarto/bin/../lib/gcc/arm-none-eabi/4.6.2/../../../../arm-none-eabi/lib/thumb/v7m\libstdc++.a(eh_globals.o)
 .bss._ZL15dependents_used
                0x20000c10        0x4 d:/elektronik/ides/eclipse/yagarto/bin/../lib/gcc/arm-none-eabi/4.6.2/../../../../arm-none-eabi/lib/thumb/v7m\libstdc++.a(eh_alloc.o)
 *fill*         0x20000c14        0x4 00
 .bss._ZL17dependents_buffer
                0x20000c18      0x1e0 d:/elektronik/ides/eclipse/yagarto/bin/../lib/gcc/arm-none-eabi/4.6.2/../../../../arm-none-eabi/lib/thumb/v7m\libstdc++.a(eh_alloc.o)
 .bss._ZL14emergency_used
                0x20000df8        0x4 d:/elektronik/ides/eclipse/yagarto/bin/../lib/gcc/arm-none-eabi/4.6.2/../../../../arm-none-eabi/lib/thumb/v7m\libstdc++.a(eh_alloc.o)
 *fill*         0x20000dfc        0x4 00
 .bss._ZL16emergency_buffer
                0x20000e00      0x800 d:/elektronik/ides/eclipse/yagarto/bin/../lib/gcc/arm-none-eabi/4.6.2/../../../../arm-none-eabi/lib/thumb/v7m\libstdc++.a(eh_alloc.o)
 *(COMMON)
 COMMON         0x20001600        0x4 ./STM32F4-Discovery/stm32f4_discovery.o
                0x20001600                NVIC_InitStructure
 COMMON         0x20001604       0x7c ./STM32F4-Discovery/stm32f4_discovery_audio_codec.o
                0x20001604                CurrentPos
                0x20001608                AUDIO_MAL_DMA_InitStructure
                0x20001644                DMA_InitStructure
 COMMON         0x20001680       0x50 ./Fatfs/FatFs/src/diskio.o
                0x20001680                SDCardInfo
 COMMON         0x200016d0       0x44 ./Fatfs/stm32f4_sdio.o
                0x200016d0                SDIO_CmdInitStructure
                0x200016e4                SDIO_InitStructure
                0x200016fc                SDIO_DataInitStructure
 COMMON         0x20001714        0x4 ./syscalls.o
                0x20001714                __brkval
                0x20001718                . = ALIGN (0x4)
                0x20001718                _ebss = .
                0x20001718                __bss_end__ = _ebss

._user_heap_stack
                0x20001718      0x400 load address 0x08031630
                0x20001718                . = ALIGN (0x4)
                0x20001718                PROVIDE (end, .)
                0x20001718                PROVIDE (_end, .)
                0x20001718                . = (. + _Min_Heap_Size)
                0x20001b18                . = (. + _Min_Stack_Size)
 *fill*         0x20001718      0x400 00
                0x20001b18                . = ALIGN (0x4)

.memory_b1_text
 *(.mb1text)
 *(.mb1text*)
 *(.mb1rodata)
 *(.mb1rodata*)

/DISCARD/
 libc.a(*)
 libm.a(*)
 libgcc.a(*)

.ARM.attributes
                0x00000000       0x33
 *(.ARM.attributes)
 .ARM.attributes
                0x00000000       0x1d d:/elektronik/ides/eclipse/yagarto/bin/../lib/gcc/arm-none-eabi/4.6.2/thumb/v7m/crti.o
 .ARM.attributes
                0x0000001d       0x2b d:/elektronik/ides/eclipse/yagarto/bin/../lib/gcc/arm-none-eabi/4.6.2/thumb/v7m/crtbegin.o
 .ARM.attributes
                0x00000048       0x1b d:/elektronik/ides/eclipse/yagarto/bin/../lib/gcc/arm-none-eabi/4.6.2/../../../../arm-none-eabi/lib/thumb/v7m/crt0.o
 .ARM.attributes
                0x00000063       0x37 ./STM32F4xx_StdPeriph_Driver/src/misc.o
 .ARM.attributes
                0x0000009a       0x37 ./STM32F4xx_StdPeriph_Driver/src/stm32f4xx_adc.o
 .ARM.attributes
                0x000000d1       0x37 ./STM32F4xx_StdPeriph_Driver/src/stm32f4xx_can.o
 .ARM.attributes
                0x00000108       0x37 ./STM32F4xx_StdPeriph_Driver/src/stm32f4xx_crc.o
 .ARM.attributes
                0x0000013f       0x37 ./STM32F4xx_StdPeriph_Driver/src/stm32f4xx_cryp.o
 .ARM.attributes
                0x00000176       0x37 ./STM32F4xx_StdPeriph_Driver/src/stm32f4xx_cryp_aes.o
 .ARM.attributes
                0x000001ad       0x37 ./STM32F4xx_StdPeriph_Driver/src/stm32f4xx_cryp_des.o
 .ARM.attributes
                0x000001e4       0x37 ./STM32F4xx_StdPeriph_Driver/src/stm32f4xx_cryp_tdes.o
 .ARM.attributes
                0x0000021b       0x37 ./STM32F4xx_StdPeriph_Driver/src/stm32f4xx_dac.o
 .ARM.attributes
                0x00000252       0x37 ./STM32F4xx_StdPeriph_Driver/src/stm32f4xx_dbgmcu.o
 .ARM.attributes
                0x00000289       0x37 ./STM32F4xx_StdPeriph_Driver/src/stm32f4xx_dcmi.o
 .ARM.attributes
                0x000002c0       0x37 ./STM32F4xx_StdPeriph_Driver/src/stm32f4xx_dma.o
 .ARM.attributes
                0x000002f7       0x37 ./STM32F4xx_StdPeriph_Driver/src/stm32f4xx_exti.o
 .ARM.attributes
                0x0000032e       0x37 ./STM32F4xx_StdPeriph_Driver/src/stm32f4xx_flash.o
 .ARM.attributes
                0x00000365       0x37 ./STM32F4xx_StdPeriph_Driver/src/stm32f4xx_fsmc.o
 .ARM.attributes
                0x0000039c       0x37 ./STM32F4xx_StdPeriph_Driver/src/stm32f4xx_gpio.o
 .ARM.attributes
                0x000003d3       0x37 ./STM32F4xx_StdPeriph_Driver/src/stm32f4xx_hash.o
 .ARM.attributes
                0x0000040a       0x37 ./STM32F4xx_StdPeriph_Driver/src/stm32f4xx_hash_md5.o
 .ARM.attributes
                0x00000441       0x37 ./STM32F4xx_StdPeriph_Driver/src/stm32f4xx_hash_sha1.o
 .ARM.attributes
                0x00000478       0x37 ./STM32F4xx_StdPeriph_Driver/src/stm32f4xx_i2c.o
 .ARM.attributes
                0x000004af       0x37 ./STM32F4xx_StdPeriph_Driver/src/stm32f4xx_iwdg.o
 .ARM.attributes
                0x000004e6       0x37 ./STM32F4xx_StdPeriph_Driver/src/stm32f4xx_pwr.o
 .ARM.attributes
                0x0000051d       0x37 ./STM32F4xx_StdPeriph_Driver/src/stm32f4xx_rcc.o
 .ARM.attributes
                0x00000554       0x37 ./STM32F4xx_StdPeriph_Driver/src/stm32f4xx_rng.o
 .ARM.attributes
                0x0000058b       0x37 ./STM32F4xx_StdPeriph_Driver/src/stm32f4xx_rtc.o
 .ARM.attributes
                0x000005c2       0x37 ./STM32F4xx_StdPeriph_Driver/src/stm32f4xx_sdio.o
 .ARM.attributes
                0x000005f9       0x37 ./STM32F4xx_StdPeriph_Driver/src/stm32f4xx_spi.o
 .ARM.attributes
                0x00000630       0x37 ./STM32F4xx_StdPeriph_Driver/src/stm32f4xx_syscfg.o
 .ARM.attributes
                0x00000667       0x37 ./STM32F4xx_StdPeriph_Driver/src/stm32f4xx_tim.o
 .ARM.attributes
                0x0000069e       0x37 ./STM32F4xx_StdPeriph_Driver/src/stm32f4xx_usart.o
 .ARM.attributes
                0x000006d5       0x37 ./STM32F4xx_StdPeriph_Driver/src/stm32f4xx_wwdg.o
 .ARM.attributes
                0x0000070c       0x37 ./STM32F4-Discovery/stm32f4_discovery.o
 .ARM.attributes
                0x00000743       0x37 ./STM32F4-Discovery/stm32f4_discovery_audio_codec.o
 .ARM.attributes
                0x0000077a       0x37 ./STM32F4-Discovery/stm32f4_discovery_lis302dl.o
 .ARM.attributes
                0x000007b1       0x37 ./Menue/CMenue.o
 .ARM.attributes
                0x000007e8       0x37 ./GraphicLCD/CGraphicLCD.o
 .ARM.attributes
                0x0000081f       0x37 ./GraphicLCD/CT6963CDriver.o
 .ARM.attributes
                0x00000856       0x37 ./GraphicLCD/CT6963GPIOInterface.o
 .ARM.attributes
                0x0000088d       0x37 ./GraphicLCD/SansSerif12.o
 .ARM.attributes
                0x000008c4       0x37 ./FreeRTOS_EC/Source/AManagedTask.o
 .ARM.attributes
                0x000008fb       0x37 ./FreeRTOS_EC/Source/ASyncObject.o
 .ARM.attributes
                0x00000932       0x37 ./FreeRTOS_EC/Source/ATimer.o
 .ARM.attributes
                0x00000969       0x37 ./FreeRTOS_EC/Source/CBinarySemaphore.o
 .ARM.attributes
                0x000009a0       0x37 ./FreeRTOS_EC/Source/CCountingSemaphore.o
 .ARM.attributes
                0x000009d7       0x37 ./FreeRTOS_EC/Source/CFreeRTOS.o
 .ARM.attributes
                0x00000a0e       0x37 ./FreeRTOS_EC/Source/CMessageTask.o
 .ARM.attributes
                0x00000a45       0x37 ./FreeRTOS_EC/Source/CMutex.o
 .ARM.attributes
                0x00000a7c       0x37 ./FreeRTOS_EC/Source/CQueue.o
 .ARM.attributes
                0x00000ab3       0x37 ./FreeRTOS_EC/Source/CRecursiveMutex.o
 .ARM.attributes
                0x00000aea       0x37 ./FreeRTOS_EC/Source/CTask.o
 .ARM.attributes
                0x00000b21       0x37 ./FreeRTOS/Source/portable/GCC/ARM_CM4F/port.o
 .ARM.attributes
                0x00000b58       0x37 ./FreeRTOS/Source/croutine.o
 .ARM.attributes
                0x00000b8f       0x37 ./FreeRTOS/Source/list.o
 .ARM.attributes
                0x00000bc6       0x37 ./FreeRTOS/Source/queue.o
 .ARM.attributes
                0x00000bfd       0x37 ./FreeRTOS/Source/tasks.o
 .ARM.attributes
                0x00000c34       0x37 ./FreeRTOS/Source/timers.o
 .ARM.attributes
                0x00000c6b       0x37 ./Fatfs/FatFs/src/option/syscall.o
 .ARM.attributes
                0x00000ca2       0x37 ./Fatfs/FatFs/src/diskio.o
 .ARM.attributes
                0x00000cd9       0x37 ./Fatfs/FatFs/src/ff.o
 .ARM.attributes
                0x00000d10       0x37 ./Fatfs/CFileHandler.o
 .ARM.attributes
                0x00000d47       0x37 ./Fatfs/fattime.o
 .ARM.attributes
                0x00000d7e       0x37 ./Fatfs/stm32f4_sdio.o
 .ARM.attributes
                0x00000db5       0x37 ./CLedHeartBeatSTM32F4Disc.o
 .ARM.attributes
                0x00000dec       0x37 ./main.o
 .ARM.attributes
                0x00000e23       0x27 ./startup_stm32f4xx.o
 .ARM.attributes
                0x00000e4a       0x37 ./stm32f4xx_it.o
 .ARM.attributes
                0x00000e81       0x37 ./syscalls.o
 .ARM.attributes
                0x00000eb8       0x37 ./system_stm32f4xx.o
 .ARM.attributes
                0x00000eef       0x37 ./ustime.o
 .ARM.attributes
                0x00000f26       0x2b d:/elektronik/ides/eclipse/yagarto/bin/../lib/gcc/arm-none-eabi/4.6.2/../../../../arm-none-eabi/lib/thumb/v7m\libstdc++.a(atexit_arm.o)
 .ARM.attributes
                0x00000f51       0x2b d:/elektronik/ides/eclipse/yagarto/bin/../lib/gcc/arm-none-eabi/4.6.2/../../../../arm-none-eabi/lib/thumb/v7m\libstdc++.a(del_op.o)
 .ARM.attributes
                0x00000f7c       0x2b d:/elektronik/ides/eclipse/yagarto/bin/../lib/gcc/arm-none-eabi/4.6.2/../../../../arm-none-eabi/lib/thumb/v7m\libstdc++.a(pure.o)
 .ARM.attributes
                0x00000fa7       0x2b d:/elektronik/ides/eclipse/yagarto/bin/../lib/gcc/arm-none-eabi/4.6.2/../../../../arm-none-eabi/lib/thumb/v7m\libstdc++.a(eh_terminate.o)
 .ARM.attributes
                0x00000fd2       0x2b d:/elektronik/ides/eclipse/yagarto/bin/../lib/gcc/arm-none-eabi/4.6.2/../../../../arm-none-eabi/lib/thumb/v7m\libstdc++.a(eh_term_handler.o)
 .ARM.attributes
                0x00000ffd       0x2b d:/elektronik/ides/eclipse/yagarto/bin/../lib/gcc/arm-none-eabi/4.6.2/../../../../arm-none-eabi/lib/thumb/v7m\libstdc++.a(eh_unex_handler.o)
 .ARM.attributes
                0x00001028       0x2b d:/elektronik/ides/eclipse/yagarto/bin/../lib/gcc/arm-none-eabi/4.6.2/../../../../arm-none-eabi/lib/thumb/v7m\libstdc++.a(vterminate.o)
 .ARM.attributes
                0x00001053       0x2b d:/elektronik/ides/eclipse/yagarto/bin/../lib/gcc/arm-none-eabi/4.6.2/../../../../arm-none-eabi/lib/thumb/v7m\libstdc++.a(cp-demangle.o)
 .ARM.attributes
                0x0000107e       0x2b d:/elektronik/ides/eclipse/yagarto/bin/../lib/gcc/arm-none-eabi/4.6.2/../../../../arm-none-eabi/lib/thumb/v7m\libstdc++.a(eh_arm.o)
 .ARM.attributes
                0x000010a9       0x2b d:/elektronik/ides/eclipse/yagarto/bin/../lib/gcc/arm-none-eabi/4.6.2/../../../../arm-none-eabi/lib/thumb/v7m\libstdc++.a(eh_aux_runtime.o)
 .ARM.attributes
                0x000010d4       0x2b d:/elektronik/ides/eclipse/yagarto/bin/../lib/gcc/arm-none-eabi/4.6.2/../../../../arm-none-eabi/lib/thumb/v7m\libstdc++.a(eh_call.o)
 .ARM.attributes
                0x000010ff       0x2b d:/elektronik/ides/eclipse/yagarto/bin/../lib/gcc/arm-none-eabi/4.6.2/../../../../arm-none-eabi/lib/thumb/v7m\libstdc++.a(eh_catch.o)
 .ARM.attributes
                0x0000112a       0x2b d:/elektronik/ides/eclipse/yagarto/bin/../lib/gcc/arm-none-eabi/4.6.2/../../../../arm-none-eabi/lib/thumb/v7m\libstdc++.a(eh_exception.o)
 .ARM.attributes
                0x00001155       0x2b d:/elektronik/ides/eclipse/yagarto/bin/../lib/gcc/arm-none-eabi/4.6.2/../../../../arm-none-eabi/lib/thumb/v7m\libstdc++.a(eh_globals.o)
 .ARM.attributes
                0x00001180       0x2b d:/elektronik/ides/eclipse/yagarto/bin/../lib/gcc/arm-none-eabi/4.6.2/../../../../arm-none-eabi/lib/thumb/v7m\libstdc++.a(eh_personality.o)
 .ARM.attributes
                0x000011ab       0x2b d:/elektronik/ides/eclipse/yagarto/bin/../lib/gcc/arm-none-eabi/4.6.2/../../../../arm-none-eabi/lib/thumb/v7m\libstdc++.a(eh_throw.o)
 .ARM.attributes
                0x000011d6       0x2b d:/elektronik/ides/eclipse/yagarto/bin/../lib/gcc/arm-none-eabi/4.6.2/../../../../arm-none-eabi/lib/thumb/v7m\libstdc++.a(eh_type.o)
 .ARM.attributes
                0x00001201       0x2b d:/elektronik/ides/eclipse/yagarto/bin/../lib/gcc/arm-none-eabi/4.6.2/../../../../arm-none-eabi/lib/thumb/v7m\libstdc++.a(fundamental_type_info.o)
 .ARM.attributes
                0x0000122c       0x2b d:/elektronik/ides/eclipse/yagarto/bin/../lib/gcc/arm-none-eabi/4.6.2/../../../../arm-none-eabi/lib/thumb/v7m\libstdc++.a(pointer_type_info.o)
 .ARM.attributes
                0x00001257       0x2b d:/elektronik/ides/eclipse/yagarto/bin/../lib/gcc/arm-none-eabi/4.6.2/../../../../arm-none-eabi/lib/thumb/v7m\libstdc++.a(si_class_type_info.o)
 .ARM.attributes
                0x00001282       0x2b d:/elektronik/ides/eclipse/yagarto/bin/../lib/gcc/arm-none-eabi/4.6.2/../../../../arm-none-eabi/lib/thumb/v7m\libstdc++.a(tinfo.o)
 .ARM.attributes
                0x000012ad       0x2b d:/elektronik/ides/eclipse/yagarto/bin/../lib/gcc/arm-none-eabi/4.6.2/../../../../arm-none-eabi/lib/thumb/v7m\libstdc++.a(bad_cast.o)
 .ARM.attributes
                0x000012d8       0x2b d:/elektronik/ides/eclipse/yagarto/bin/../lib/gcc/arm-none-eabi/4.6.2/../../../../arm-none-eabi/lib/thumb/v7m\libstdc++.a(bad_typeid.o)
 .ARM.attributes
                0x00001303       0x2b d:/elektronik/ides/eclipse/yagarto/bin/../lib/gcc/arm-none-eabi/4.6.2/../../../../arm-none-eabi/lib/thumb/v7m\libstdc++.a(class_type_info.o)
 .ARM.attributes
                0x0000132e       0x2b d:/elektronik/ides/eclipse/yagarto/bin/../lib/gcc/arm-none-eabi/4.6.2/../../../../arm-none-eabi/lib/thumb/v7m\libstdc++.a(eh_alloc.o)
 .ARM.attributes
                0x00001359       0x2b d:/elektronik/ides/eclipse/yagarto/bin/../lib/gcc/arm-none-eabi/4.6.2/../../../../arm-none-eabi/lib/thumb/v7m\libstdc++.a(pbase_type_info.o)
 .ARM.attributes
                0x00001384       0x2b d:/elektronik/ides/eclipse/yagarto/bin/../lib/gcc/arm-none-eabi/4.6.2/thumb/v7m\libgcc.a(unwind-arm.o)
 .ARM.attributes
                0x000013af       0x1d d:/elektronik/ides/eclipse/yagarto/bin/../lib/gcc/arm-none-eabi/4.6.2/thumb/v7m\libgcc.a(libunwind.o)
 .ARM.attributes
                0x000013cc       0x2b d:/elektronik/ides/eclipse/yagarto/bin/../lib/gcc/arm-none-eabi/4.6.2/thumb/v7m\libgcc.a(pr-support.o)
 .ARM.attributes
                0x000013f7       0x2b d:/elektronik/ides/eclipse/yagarto/bin/../lib/gcc/arm-none-eabi/4.6.2/../../../../arm-none-eabi/lib/thumb/v7m\libg.a(lib_a-abort.o)
 .ARM.attributes
                0x00001422       0x2b d:/elektronik/ides/eclipse/yagarto/bin/../lib/gcc/arm-none-eabi/4.6.2/../../../../arm-none-eabi/lib/thumb/v7m\libg.a(lib_a-assert.o)
 .ARM.attributes
                0x0000144d       0x2b d:/elektronik/ides/eclipse/yagarto/bin/../lib/gcc/arm-none-eabi/4.6.2/../../../../arm-none-eabi/lib/thumb/v7m\libg.a(lib_a-atexit.o)
 .ARM.attributes
                0x00001478       0x2b d:/elektronik/ides/eclipse/yagarto/bin/../lib/gcc/arm-none-eabi/4.6.2/../../../../arm-none-eabi/lib/thumb/v7m\libg.a(lib_a-cxa_atexit.o)
 .ARM.attributes
                0x000014a3       0x2b d:/elektronik/ides/eclipse/yagarto/bin/../lib/gcc/arm-none-eabi/4.6.2/../../../../arm-none-eabi/lib/thumb/v7m\libg.a(lib_a-exit.o)
 .ARM.attributes
                0x000014ce       0x2b d:/elektronik/ides/eclipse/yagarto/bin/../lib/gcc/arm-none-eabi/4.6.2/../../../../arm-none-eabi/lib/thumb/v7m\libg.a(lib_a-fini.o)
 .ARM.attributes
                0x000014f9       0x2b d:/elektronik/ides/eclipse/yagarto/bin/../lib/gcc/arm-none-eabi/4.6.2/../../../../arm-none-eabi/lib/thumb/v7m\libg.a(lib_a-fiprintf.o)
 .ARM.attributes
                0x00001524       0x2b d:/elektronik/ides/eclipse/yagarto/bin/../lib/gcc/arm-none-eabi/4.6.2/../../../../arm-none-eabi/lib/thumb/v7m\libg.a(lib_a-fputc.o)
 .ARM.attributes
                0x0000154f       0x2b d:/elektronik/ides/eclipse/yagarto/bin/../lib/gcc/arm-none-eabi/4.6.2/../../../../arm-none-eabi/lib/thumb/v7m\libg.a(lib_a-fputs.o)
 .ARM.attributes
                0x0000157a       0x2b d:/elektronik/ides/eclipse/yagarto/bin/../lib/gcc/arm-none-eabi/4.6.2/../../../../arm-none-eabi/lib/thumb/v7m\libg.a(lib_a-fvwrite.o)
 .ARM.attributes
                0x000015a5       0x2b d:/elektronik/ides/eclipse/yagarto/bin/../lib/gcc/arm-none-eabi/4.6.2/../../../../arm-none-eabi/lib/thumb/v7m\libg.a(lib_a-fwrite.o)
 .ARM.attributes
                0x000015d0       0x2b d:/elektronik/ides/eclipse/yagarto/bin/../lib/gcc/arm-none-eabi/4.6.2/../../../../arm-none-eabi/lib/thumb/v7m\libg.a(lib_a-impure.o)
 .ARM.attributes
                0x000015fb       0x2b d:/elektronik/ides/eclipse/yagarto/bin/../lib/gcc/arm-none-eabi/4.6.2/../../../../arm-none-eabi/lib/thumb/v7m\libg.a(lib_a-init.o)
 .ARM.attributes
                0x00001626       0x2b d:/elektronik/ides/eclipse/yagarto/bin/../lib/gcc/arm-none-eabi/4.6.2/../../../../arm-none-eabi/lib/thumb/v7m\libg.a(lib_a-malloc.o)
 .ARM.attributes
                0x00001651       0x2b d:/elektronik/ides/eclipse/yagarto/bin/../lib/gcc/arm-none-eabi/4.6.2/../../../../arm-none-eabi/lib/thumb/v7m\libg.a(lib_a-mallocr.o)
 .ARM.attributes
                0x0000167c       0x2b d:/elektronik/ides/eclipse/yagarto/bin/../lib/gcc/arm-none-eabi/4.6.2/../../../../arm-none-eabi/lib/thumb/v7m\libg.a(lib_a-memchr.o)
 .ARM.attributes
                0x000016a7       0x2b d:/elektronik/ides/eclipse/yagarto/bin/../lib/gcc/arm-none-eabi/4.6.2/../../../../arm-none-eabi/lib/thumb/v7m\libg.a(lib_a-memcmp.o)
 .ARM.attributes
                0x000016d2       0x2b d:/elektronik/ides/eclipse/yagarto/bin/../lib/gcc/arm-none-eabi/4.6.2/../../../../arm-none-eabi/lib/thumb/v7m\libg.a(lib_a-memcpy.o)
 .ARM.attributes
                0x000016fd       0x2b d:/elektronik/ides/eclipse/yagarto/bin/../lib/gcc/arm-none-eabi/4.6.2/../../../../arm-none-eabi/lib/thumb/v7m\libg.a(lib_a-memmove.o)
 .ARM.attributes
                0x00001728       0x2b d:/elektronik/ides/eclipse/yagarto/bin/../lib/gcc/arm-none-eabi/4.6.2/../../../../arm-none-eabi/lib/thumb/v7m\libg.a(lib_a-memset.o)
 .ARM.attributes
                0x00001753       0x2b d:/elektronik/ides/eclipse/yagarto/bin/../lib/gcc/arm-none-eabi/4.6.2/../../../../arm-none-eabi/lib/thumb/v7m\libg.a(lib_a-putc.o)
 .ARM.attributes
                0x0000177e       0x2b d:/elektronik/ides/eclipse/yagarto/bin/../lib/gcc/arm-none-eabi/4.6.2/../../../../arm-none-eabi/lib/thumb/v7m\libg.a(lib_a-realloc.o)
 .ARM.attributes
                0x000017a9       0x2b d:/elektronik/ides/eclipse/yagarto/bin/../lib/gcc/arm-none-eabi/4.6.2/../../../../arm-none-eabi/lib/thumb/v7m\libg.a(lib_a-reallocr.o)
 .ARM.attributes
                0x000017d4       0x2b d:/elektronik/ides/eclipse/yagarto/bin/../lib/gcc/arm-none-eabi/4.6.2/../../../../arm-none-eabi/lib/thumb/v7m\libg.a(lib_a-signal.o)
 .ARM.attributes
                0x000017ff       0x2b d:/elektronik/ides/eclipse/yagarto/bin/../lib/gcc/arm-none-eabi/4.6.2/../../../../arm-none-eabi/lib/thumb/v7m\libg.a(lib_a-sprintf.o)
 .ARM.attributes
                0x0000182a       0x2b d:/elektronik/ides/eclipse/yagarto/bin/../lib/gcc/arm-none-eabi/4.6.2/../../../../arm-none-eabi/lib/thumb/v7m\libg.a(lib_a-strcat.o)
 .ARM.attributes
                0x00001855       0x2b d:/elektronik/ides/eclipse/yagarto/bin/../lib/gcc/arm-none-eabi/4.6.2/../../../../arm-none-eabi/lib/thumb/v7m\libg.a(lib_a-strcmp.o)
 .ARM.attributes
                0x00001880       0x2b d:/elektronik/ides/eclipse/yagarto/bin/../lib/gcc/arm-none-eabi/4.6.2/../../../../arm-none-eabi/lib/thumb/v7m\libg.a(lib_a-strcpy.o)
 .ARM.attributes
                0x000018ab       0x2b d:/elektronik/ides/eclipse/yagarto/bin/../lib/gcc/arm-none-eabi/4.6.2/../../../../arm-none-eabi/lib/thumb/v7m\libg.a(lib_a-strlen.o)
 .ARM.attributes
                0x000018d6       0x2b d:/elektronik/ides/eclipse/yagarto/bin/../lib/gcc/arm-none-eabi/4.6.2/../../../../arm-none-eabi/lib/thumb/v7m\libg.a(lib_a-strncmp.o)
 .ARM.attributes
                0x00001901       0x2b d:/elektronik/ides/eclipse/yagarto/bin/../lib/gcc/arm-none-eabi/4.6.2/../../../../arm-none-eabi/lib/thumb/v7m\libg.a(lib_a-strncpy.o)
 .ARM.attributes
                0x0000192c       0x2b d:/elektronik/ides/eclipse/yagarto/bin/../lib/gcc/arm-none-eabi/4.6.2/../../../../arm-none-eabi/lib/thumb/v7m\libg.a(lib_a-svfprintf.o)
 .ARM.attributes
                0x00001957       0x2b d:/elektronik/ides/eclipse/yagarto/bin/../lib/gcc/arm-none-eabi/4.6.2/../../../../arm-none-eabi/lib/thumb/v7m\libg.a(lib_a-syswrite.o)
 .ARM.attributes
                0x00001982       0x2b d:/elektronik/ides/eclipse/yagarto/bin/../lib/gcc/arm-none-eabi/4.6.2/../../../../arm-none-eabi/lib/thumb/v7m\libg.a(lib_a-vfiprintf.o)
 .ARM.attributes
                0x000019ad       0x2b d:/elektronik/ides/eclipse/yagarto/bin/../lib/gcc/arm-none-eabi/4.6.2/../../../../arm-none-eabi/lib/thumb/v7m\libg.a(lib_a-wbuf.o)
 .ARM.attributes
                0x000019d8       0x2b d:/elektronik/ides/eclipse/yagarto/bin/../lib/gcc/arm-none-eabi/4.6.2/../../../../arm-none-eabi/lib/thumb/v7m\libg.a(lib_a-wsetup.o)
 .ARM.attributes
                0x00001a03       0x2b d:/elektronik/ides/eclipse/yagarto/bin/../lib/gcc/arm-none-eabi/4.6.2/../../../../arm-none-eabi/lib/thumb/v7m\libg.a(lib_a-__atexit.o)
 .ARM.attributes
                0x00001a2e       0x2b d:/elektronik/ides/eclipse/yagarto/bin/../lib/gcc/arm-none-eabi/4.6.2/../../../../arm-none-eabi/lib/thumb/v7m\libg.a(lib_a-__call_atexit.o)
 .ARM.attributes
                0x00001a59       0x2b d:/elektronik/ides/eclipse/yagarto/bin/../lib/gcc/arm-none-eabi/4.6.2/../../../../arm-none-eabi/lib/thumb/v7m\libg.a(lib_a-dtoa.o)
 .ARM.attributes
                0x00001a84       0x2b d:/elektronik/ides/eclipse/yagarto/bin/../lib/gcc/arm-none-eabi/4.6.2/../../../../arm-none-eabi/lib/thumb/v7m\libg.a(lib_a-fflush.o)
 .ARM.attributes
                0x00001aaf       0x2b d:/elektronik/ides/eclipse/yagarto/bin/../lib/gcc/arm-none-eabi/4.6.2/../../../../arm-none-eabi/lib/thumb/v7m\libg.a(lib_a-findfp.o)
 .ARM.attributes
                0x00001ada       0x2b d:/elektronik/ides/eclipse/yagarto/bin/../lib/gcc/arm-none-eabi/4.6.2/../../../../arm-none-eabi/lib/thumb/v7m\libg.a(lib_a-fputwc.o)
 .ARM.attributes
                0x00001b05       0x2b d:/elektronik/ides/eclipse/yagarto/bin/../lib/gcc/arm-none-eabi/4.6.2/../../../../arm-none-eabi/lib/thumb/v7m\libg.a(lib_a-freer.o)
 .ARM.attributes
                0x00001b30       0x2b d:/elektronik/ides/eclipse/yagarto/bin/../lib/gcc/arm-none-eabi/4.6.2/../../../../arm-none-eabi/lib/thumb/v7m\libg.a(lib_a-fwalk.o)
 .ARM.attributes
                0x00001b5b       0x2b d:/elektronik/ides/eclipse/yagarto/bin/../lib/gcc/arm-none-eabi/4.6.2/../../../../arm-none-eabi/lib/thumb/v7m\libg.a(lib_a-locale.o)
 .ARM.attributes
                0x00001b86       0x2b d:/elektronik/ides/eclipse/yagarto/bin/../lib/gcc/arm-none-eabi/4.6.2/../../../../arm-none-eabi/lib/thumb/v7m\libg.a(lib_a-makebuf.o)
 .ARM.attributes
                0x00001bb1       0x2b d:/elektronik/ides/eclipse/yagarto/bin/../lib/gcc/arm-none-eabi/4.6.2/../../../../arm-none-eabi/lib/thumb/v7m\libg.a(lib_a-mprec.o)
 .ARM.attributes
                0x00001bdc       0x2b d:/elektronik/ides/eclipse/yagarto/bin/../lib/gcc/arm-none-eabi/4.6.2/../../../../arm-none-eabi/lib/thumb/v7m\libg.a(lib_a-s_fpclassify.o)
 .ARM.attributes
                0x00001c07       0x2b d:/elektronik/ides/eclipse/yagarto/bin/../lib/gcc/arm-none-eabi/4.6.2/../../../../arm-none-eabi/lib/thumb/v7m\libg.a(lib_a-stdio.o)
 .ARM.attributes
                0x00001c32       0x2b d:/elektronik/ides/eclipse/yagarto/bin/../lib/gcc/arm-none-eabi/4.6.2/../../../../arm-none-eabi/lib/thumb/v7m\libg.a(lib_a-svfiprintf.o)
 .ARM.attributes
                0x00001c5d       0x2b d:/elektronik/ides/eclipse/yagarto/bin/../lib/gcc/arm-none-eabi/4.6.2/../../../../arm-none-eabi/lib/thumb/v7m\libg.a(lib_a-wcrtomb.o)
 .ARM.attributes
                0x00001c88       0x2b d:/elektronik/ides/eclipse/yagarto/bin/../lib/gcc/arm-none-eabi/4.6.2/../../../../arm-none-eabi/lib/thumb/v7m\libg.a(lib_a-wctomb_r.o)
 .ARM.attributes
                0x00001cb3       0x2b d:/elektronik/ides/eclipse/yagarto/bin/../lib/gcc/arm-none-eabi/4.6.2/../../../../arm-none-eabi/lib/thumb/v7m\libg.a(lib_a-callocr.o)
 .ARM.attributes
                0x00001cde       0x2b d:/elektronik/ides/eclipse/yagarto/bin/../lib/gcc/arm-none-eabi/4.6.2/../../../../arm-none-eabi/lib/thumb/v7m\libg.a(lib_a-fclose.o)
 .ARM.attributes
                0x00001d09       0x1d d:/elektronik/ides/eclipse/yagarto/bin/../lib/gcc/arm-none-eabi/4.6.2/thumb/v7m\libgcc.a(_udivsi3.o)
 .ARM.attributes
                0x00001d26       0x1d d:/elektronik/ides/eclipse/yagarto/bin/../lib/gcc/arm-none-eabi/4.6.2/thumb/v7m\libgcc.a(_dvmd_tls.o)
 .ARM.attributes
                0x00001d43       0x1d d:/elektronik/ides/eclipse/yagarto/bin/../lib/gcc/arm-none-eabi/4.6.2/thumb/v7m\libgcc.a(_arm_addsubdf3.o)
 .ARM.attributes
                0x00001d60       0x1d d:/elektronik/ides/eclipse/yagarto/bin/../lib/gcc/arm-none-eabi/4.6.2/thumb/v7m\libgcc.a(_arm_muldivdf3.o)
 .ARM.attributes
                0x00001d7d       0x1d d:/elektronik/ides/eclipse/yagarto/bin/../lib/gcc/arm-none-eabi/4.6.2/thumb/v7m\libgcc.a(_arm_cmpdf2.o)
 .ARM.attributes
                0x00001d9a       0x1d d:/elektronik/ides/eclipse/yagarto/bin/../lib/gcc/arm-none-eabi/4.6.2/thumb/v7m\libgcc.a(_arm_fixdfsi.o)
 .ARM.attributes
                0x00001db7       0x2b d:/elektronik/ides/eclipse/yagarto/bin/../lib/gcc/arm-none-eabi/4.6.2/thumb/v7m/crtend.o
 .ARM.attributes
                0x00001de2       0x1d d:/elektronik/ides/eclipse/yagarto/bin/../lib/gcc/arm-none-eabi/4.6.2/thumb/v7m/crtn.o
OUTPUT(ThunderCryer.elf elf32-littlearm)

.debug_line     0x00000000    0x2a7c0
 .debug_line    0x00000000       0x68 d:/elektronik/ides/eclipse/yagarto/bin/../lib/gcc/arm-none-eabi/4.6.2/thumb/v7m/crti.o
 .debug_line    0x00000068       0x8a d:/elektronik/ides/eclipse/yagarto/bin/../lib/gcc/arm-none-eabi/4.6.2/../../../../arm-none-eabi/lib/thumb/v7m/crt0.o
 .debug_line    0x000000f2      0x54b ./STM32F4xx_StdPeriph_Driver/src/misc.o
 .debug_line    0x0000063d      0x851 ./STM32F4xx_StdPeriph_Driver/src/stm32f4xx_adc.o
 .debug_line    0x00000e8e      0x85b ./STM32F4xx_StdPeriph_Driver/src/stm32f4xx_can.o
 .debug_line    0x000016e9      0x566 ./STM32F4xx_StdPeriph_Driver/src/stm32f4xx_crc.o
 .debug_line    0x00001c4f      0x690 ./STM32F4xx_StdPeriph_Driver/src/stm32f4xx_cryp.o
 .debug_line    0x000022df      0x9a0 ./STM32F4xx_StdPeriph_Driver/src/stm32f4xx_cryp_aes.o
 .debug_line    0x00002c7f      0x5e6 ./STM32F4xx_StdPeriph_Driver/src/stm32f4xx_cryp_des.o
 .debug_line    0x00003265      0x65f ./STM32F4xx_StdPeriph_Driver/src/stm32f4xx_cryp_tdes.o
 .debug_line    0x000038c4      0x65f ./STM32F4xx_StdPeriph_Driver/src/stm32f4xx_dac.o
 .debug_line    0x00003f23      0x549 ./STM32F4xx_StdPeriph_Driver/src/stm32f4xx_dbgmcu.o
 .debug_line    0x0000446c      0x63b ./STM32F4xx_StdPeriph_Driver/src/stm32f4xx_dcmi.o
 .debug_line    0x00004aa7      0x6d9 ./STM32F4xx_StdPeriph_Driver/src/stm32f4xx_dma.o
 .debug_line    0x00005180      0x5a1 ./STM32F4xx_StdPeriph_Driver/src/stm32f4xx_exti.o
 .debug_line    0x00005721      0x787 ./STM32F4xx_StdPeriph_Driver/src/stm32f4xx_flash.o
 .debug_line    0x00005ea8      0x755 ./STM32F4xx_StdPeriph_Driver/src/stm32f4xx_fsmc.o
 .debug_line    0x000065fd      0x63b ./STM32F4xx_StdPeriph_Driver/src/stm32f4xx_gpio.o
 .debug_line    0x00006c38      0x66c ./STM32F4xx_StdPeriph_Driver/src/stm32f4xx_hash.o
 .debug_line    0x000072a4      0x650 ./STM32F4xx_StdPeriph_Driver/src/stm32f4xx_hash_md5.o
 .debug_line    0x000078f4      0x66b ./STM32F4xx_StdPeriph_Driver/src/stm32f4xx_hash_sha1.o
 .debug_line    0x00007f5f      0x7c6 ./STM32F4xx_StdPeriph_Driver/src/stm32f4xx_i2c.o
 .debug_line    0x00008725      0x559 ./STM32F4xx_StdPeriph_Driver/src/stm32f4xx_iwdg.o
 .debug_line    0x00008c7e      0x5ed ./STM32F4xx_StdPeriph_Driver/src/stm32f4xx_pwr.o
 .debug_line    0x0000926b      0x899 ./STM32F4xx_StdPeriph_Driver/src/stm32f4xx_rcc.o
 .debug_line    0x00009b04      0x585 ./STM32F4xx_StdPeriph_Driver/src/stm32f4xx_rng.o
 .debug_line    0x0000a089      0xb0f ./STM32F4xx_StdPeriph_Driver/src/stm32f4xx_rtc.o
 .debug_line    0x0000ab98      0x740 ./STM32F4xx_StdPeriph_Driver/src/stm32f4xx_sdio.o
 .debug_line    0x0000b2d8      0x751 ./STM32F4xx_StdPeriph_Driver/src/stm32f4xx_spi.o
 .debug_line    0x0000ba29      0x562 ./STM32F4xx_StdPeriph_Driver/src/stm32f4xx_syscfg.o
 .debug_line    0x0000bf8b      0xd76 ./STM32F4xx_StdPeriph_Driver/src/stm32f4xx_tim.o
 .debug_line    0x0000cd01      0x78c ./STM32F4xx_StdPeriph_Driver/src/stm32f4xx_usart.o
 .debug_line    0x0000d48d      0x584 ./STM32F4xx_StdPeriph_Driver/src/stm32f4xx_wwdg.o
 .debug_line    0x0000da11      0x57b ./STM32F4-Discovery/stm32f4_discovery.o
 .debug_line    0x0000df8c      0x9d6 ./STM32F4-Discovery/stm32f4_discovery_audio_codec.o
 .debug_line    0x0000e962      0x6a2 ./STM32F4-Discovery/stm32f4_discovery_lis302dl.o
 .debug_line    0x0000f004      0x7ff ./Menue/CMenue.o
 .debug_line    0x0000f803       0xc1 ./GraphicLCD/CGraphicLCD.o
 .debug_line    0x0000f8c4      0x2fb ./GraphicLCD/CT6963CDriver.o
 .debug_line    0x0000fbbf      0x7ef ./GraphicLCD/CT6963GPIOInterface.o
 .debug_line    0x000103ae       0x60 ./GraphicLCD/SansSerif12.o
 .debug_line    0x0001040e      0x81d ./FreeRTOS_EC/Source/AManagedTask.o
 .debug_line    0x00010c2b      0x810 ./FreeRTOS_EC/Source/ASyncObject.o
 .debug_line    0x0001143b      0x761 ./FreeRTOS_EC/Source/ATimer.o
 .debug_line    0x00011b9c      0x84d ./FreeRTOS_EC/Source/CBinarySemaphore.o
 .debug_line    0x000123e9      0x849 ./FreeRTOS_EC/Source/CCountingSemaphore.o
 .debug_line    0x00012c32      0x6be ./FreeRTOS_EC/Source/CFreeRTOS.o
 .debug_line    0x000132f0      0xa4d ./FreeRTOS_EC/Source/CMessageTask.o
 .debug_line    0x00013d3d      0x832 ./FreeRTOS_EC/Source/CMutex.o
 .debug_line    0x0001456f      0x82e ./FreeRTOS_EC/Source/CQueue.o
 .debug_line    0x00014d9d      0x831 ./FreeRTOS_EC/Source/CRecursiveMutex.o
 .debug_line    0x000155ce      0x842 ./FreeRTOS_EC/Source/CTask.o
 .debug_line    0x00015e10      0x732 ./FreeRTOS/Source/portable/GCC/ARM_CM4F/port.o
 .debug_line    0x00016542      0x792 ./FreeRTOS/Source/croutine.o
 .debug_line    0x00016cd4      0x7fd ./FreeRTOS/Source/list.o
 .debug_line    0x000174d1      0x9d5 ./FreeRTOS/Source/queue.o
 .debug_line    0x00017ea6      0xe35 ./FreeRTOS/Source/tasks.o
 .debug_line    0x00018cdb      0x659 ./FreeRTOS/Source/timers.o
 .debug_line    0x00019334      0x7db ./Fatfs/FatFs/src/option/syscall.o
 .debug_line    0x00019b0f      0x675 ./Fatfs/FatFs/src/diskio.o
 .debug_line    0x0001a184      0xdb9 ./Fatfs/FatFs/src/ff.o
 .debug_line    0x0001af3d      0x700 ./Fatfs/CFileHandler.o
 .debug_line    0x0001b63d       0xb7 ./Fatfs/fattime.o
 .debug_line    0x0001b6f4      0xcdd ./Fatfs/stm32f4_sdio.o
 .debug_line    0x0001c3d1      0x82e ./CLedHeartBeatSTM32F4Disc.o
 .debug_line    0x0001cbff      0x932 ./main.o
 .debug_line    0x0001d531       0x70 ./startup_stm32f4xx.o
 .debug_line    0x0001d5a1      0x5d6 ./stm32f4xx_it.o
 .debug_line    0x0001db77      0x8fc ./syscalls.o
 .debug_line    0x0001e473      0x558 ./system_stm32f4xx.o
 .debug_line    0x0001e9cb      0x687 ./ustime.o
 .debug_line    0x0001f052       0xc8 d:/elektronik/ides/eclipse/yagarto/bin/../lib/gcc/arm-none-eabi/4.6.2/../../../../arm-none-eabi/lib/thumb/v7m\libstdc++.a(atexit_arm.o)
 .debug_line    0x0001f11a      0x156 d:/elektronik/ides/eclipse/yagarto/bin/../lib/gcc/arm-none-eabi/4.6.2/../../../../arm-none-eabi/lib/thumb/v7m\libstdc++.a(del_op.o)
 .debug_line    0x0001f270       0xc2 d:/elektronik/ides/eclipse/yagarto/bin/../lib/gcc/arm-none-eabi/4.6.2/../../../../arm-none-eabi/lib/thumb/v7m\libstdc++.a(pure.o)
 .debug_line    0x0001f332      0x213 d:/elektronik/ides/eclipse/yagarto/bin/../lib/gcc/arm-none-eabi/4.6.2/../../../../arm-none-eabi/lib/thumb/v7m\libstdc++.a(eh_terminate.o)
 .debug_line    0x0001f545       0xbb d:/elektronik/ides/eclipse/yagarto/bin/../lib/gcc/arm-none-eabi/4.6.2/../../../../arm-none-eabi/lib/thumb/v7m\libstdc++.a(eh_term_handler.o)
 .debug_line    0x0001f600       0xbb d:/elektronik/ides/eclipse/yagarto/bin/../lib/gcc/arm-none-eabi/4.6.2/../../../../arm-none-eabi/lib/thumb/v7m\libstdc++.a(eh_unex_handler.o)
 .debug_line    0x0001f6bb      0x271 d:/elektronik/ides/eclipse/yagarto/bin/../lib/gcc/arm-none-eabi/4.6.2/../../../../arm-none-eabi/lib/thumb/v7m\libstdc++.a(vterminate.o)
 .debug_line    0x0001f92c      0xf98 d:/elektronik/ides/eclipse/yagarto/bin/../lib/gcc/arm-none-eabi/4.6.2/../../../../arm-none-eabi/lib/thumb/v7m\libstdc++.a(cp-demangle.o)
 .debug_line    0x000208c4      0x224 d:/elektronik/ides/eclipse/yagarto/bin/../lib/gcc/arm-none-eabi/4.6.2/../../../../arm-none-eabi/lib/thumb/v7m\libstdc++.a(eh_arm.o)
 .debug_line    0x00020ae8      0x1ef d:/elektronik/ides/eclipse/yagarto/bin/../lib/gcc/arm-none-eabi/4.6.2/../../../../arm-none-eabi/lib/thumb/v7m\libstdc++.a(eh_aux_runtime.o)
 .debug_line    0x00020cd7      0x27f d:/elektronik/ides/eclipse/yagarto/bin/../lib/gcc/arm-none-eabi/4.6.2/../../../../arm-none-eabi/lib/thumb/v7m\libstdc++.a(eh_call.o)
 .debug_line    0x00020f56      0x280 d:/elektronik/ides/eclipse/yagarto/bin/../lib/gcc/arm-none-eabi/4.6.2/../../../../arm-none-eabi/lib/thumb/v7m\libstdc++.a(eh_catch.o)
 .debug_line    0x000211d6      0x1d3 d:/elektronik/ides/eclipse/yagarto/bin/../lib/gcc/arm-none-eabi/4.6.2/../../../../arm-none-eabi/lib/thumb/v7m\libstdc++.a(eh_exception.o)
 .debug_line    0x000213a9      0x1d9 d:/elektronik/ides/eclipse/yagarto/bin/../lib/gcc/arm-none-eabi/4.6.2/../../../../arm-none-eabi/lib/thumb/v7m\libstdc++.a(eh_globals.o)
 .debug_line    0x00021582      0x5b1 d:/elektronik/ides/eclipse/yagarto/bin/../lib/gcc/arm-none-eabi/4.6.2/../../../../arm-none-eabi/lib/thumb/v7m\libstdc++.a(eh_personality.o)
 .debug_line    0x00021b33      0x226 d:/elektronik/ides/eclipse/yagarto/bin/../lib/gcc/arm-none-eabi/4.6.2/../../../../arm-none-eabi/lib/thumb/v7m\libstdc++.a(eh_throw.o)
 .debug_line    0x00021d59      0x120 d:/elektronik/ides/eclipse/yagarto/bin/../lib/gcc/arm-none-eabi/4.6.2/../../../../arm-none-eabi/lib/thumb/v7m\libstdc++.a(eh_type.o)
 .debug_line    0x00021e79       0xf3 d:/elektronik/ides/eclipse/yagarto/bin/../lib/gcc/arm-none-eabi/4.6.2/../../../../arm-none-eabi/lib/thumb/v7m\libstdc++.a(fundamental_type_info.o)
 .debug_line    0x00021f6c      0x128 d:/elektronik/ides/eclipse/yagarto/bin/../lib/gcc/arm-none-eabi/4.6.2/../../../../arm-none-eabi/lib/thumb/v7m\libstdc++.a(pointer_type_info.o)
 .debug_line    0x00022094      0x186 d:/elektronik/ides/eclipse/yagarto/bin/../lib/gcc/arm-none-eabi/4.6.2/../../../../arm-none-eabi/lib/thumb/v7m\libstdc++.a(si_class_type_info.o)
 .debug_line    0x0002221a      0x15a d:/elektronik/ides/eclipse/yagarto/bin/../lib/gcc/arm-none-eabi/4.6.2/../../../../arm-none-eabi/lib/thumb/v7m\libstdc++.a(tinfo.o)
 .debug_line    0x00022374       0xe4 d:/elektronik/ides/eclipse/yagarto/bin/../lib/gcc/arm-none-eabi/4.6.2/../../../../arm-none-eabi/lib/thumb/v7m\libstdc++.a(bad_cast.o)
 .debug_line    0x00022458       0xe6 d:/elektronik/ides/eclipse/yagarto/bin/../lib/gcc/arm-none-eabi/4.6.2/../../../../arm-none-eabi/lib/thumb/v7m\libstdc++.a(bad_typeid.o)
 .debug_line    0x0002253e      0x1d6 d:/elektronik/ides/eclipse/yagarto/bin/../lib/gcc/arm-none-eabi/4.6.2/../../../../arm-none-eabi/lib/thumb/v7m\libstdc++.a(class_type_info.o)
 .debug_line    0x00022714      0x34f d:/elektronik/ides/eclipse/yagarto/bin/../lib/gcc/arm-none-eabi/4.6.2/../../../../arm-none-eabi/lib/thumb/v7m\libstdc++.a(eh_alloc.o)
 .debug_line    0x00022a63      0x14f d:/elektronik/ides/eclipse/yagarto/bin/../lib/gcc/arm-none-eabi/4.6.2/../../../../arm-none-eabi/lib/thumb/v7m\libstdc++.a(pbase_type_info.o)
 .debug_line    0x00022bb2      0x4aa d:/elektronik/ides/eclipse/yagarto/bin/../lib/gcc/arm-none-eabi/4.6.2/thumb/v7m\libgcc.a(unwind-arm.o)
 .debug_line    0x0002305c       0xbd d:/elektronik/ides/eclipse/yagarto/bin/../lib/gcc/arm-none-eabi/4.6.2/thumb/v7m\libgcc.a(libunwind.o)
 .debug_line    0x00023119      0x1d5 d:/elektronik/ides/eclipse/yagarto/bin/../lib/gcc/arm-none-eabi/4.6.2/thumb/v7m\libgcc.a(pr-support.o)
 .debug_line    0x000232ee       0xb6 d:/elektronik/ides/eclipse/yagarto/bin/../lib/gcc/arm-none-eabi/4.6.2/../../../../arm-none-eabi/lib/thumb/v7m\libg.a(lib_a-abort.o)
 .debug_line    0x000233a4      0x182 d:/elektronik/ides/eclipse/yagarto/bin/../lib/gcc/arm-none-eabi/4.6.2/../../../../arm-none-eabi/lib/thumb/v7m\libg.a(lib_a-assert.o)
 .debug_line    0x00023526       0xc5 d:/elektronik/ides/eclipse/yagarto/bin/../lib/gcc/arm-none-eabi/4.6.2/../../../../arm-none-eabi/lib/thumb/v7m\libg.a(lib_a-atexit.o)
 .debug_line    0x000235eb       0x82 d:/elektronik/ides/eclipse/yagarto/bin/../lib/gcc/arm-none-eabi/4.6.2/../../../../arm-none-eabi/lib/thumb/v7m\libg.a(lib_a-cxa_atexit.o)
 .debug_line    0x0002366d      0x171 d:/elektronik/ides/eclipse/yagarto/bin/../lib/gcc/arm-none-eabi/4.6.2/../../../../arm-none-eabi/lib/thumb/v7m\libg.a(lib_a-exit.o)
 .debug_line    0x000237de       0xd3 d:/elektronik/ides/eclipse/yagarto/bin/../lib/gcc/arm-none-eabi/4.6.2/../../../../arm-none-eabi/lib/thumb/v7m\libg.a(lib_a-fini.o)
 .debug_line    0x000238b1      0x196 d:/elektronik/ides/eclipse/yagarto/bin/../lib/gcc/arm-none-eabi/4.6.2/../../../../arm-none-eabi/lib/thumb/v7m\libg.a(lib_a-fiprintf.o)
 .debug_line    0x00023a47      0x193 d:/elektronik/ides/eclipse/yagarto/bin/../lib/gcc/arm-none-eabi/4.6.2/../../../../arm-none-eabi/lib/thumb/v7m\libg.a(lib_a-fputc.o)
 .debug_line    0x00023bda      0x1a2 d:/elektronik/ides/eclipse/yagarto/bin/../lib/gcc/arm-none-eabi/4.6.2/../../../../arm-none-eabi/lib/thumb/v7m\libg.a(lib_a-fputs.o)
 .debug_line    0x00023d7c      0x29b d:/elektronik/ides/eclipse/yagarto/bin/../lib/gcc/arm-none-eabi/4.6.2/../../../../arm-none-eabi/lib/thumb/v7m\libg.a(lib_a-fvwrite.o)
 .debug_line    0x00024017      0x1aa d:/elektronik/ides/eclipse/yagarto/bin/../lib/gcc/arm-none-eabi/4.6.2/../../../../arm-none-eabi/lib/thumb/v7m\libg.a(lib_a-fwrite.o)
 .debug_line    0x000241c1      0x116 d:/elektronik/ides/eclipse/yagarto/bin/../lib/gcc/arm-none-eabi/4.6.2/../../../../arm-none-eabi/lib/thumb/v7m\libg.a(lib_a-impure.o)
 .debug_line    0x000242d7       0xf0 d:/elektronik/ides/eclipse/yagarto/bin/../lib/gcc/arm-none-eabi/4.6.2/../../../../arm-none-eabi/lib/thumb/v7m\libg.a(lib_a-init.o)
 .debug_line    0x000243c7      0x179 d:/elektronik/ides/eclipse/yagarto/bin/../lib/gcc/arm-none-eabi/4.6.2/../../../../arm-none-eabi/lib/thumb/v7m\libg.a(lib_a-malloc.o)
 .debug_line    0x00024540      0x309 d:/elektronik/ides/eclipse/yagarto/bin/../lib/gcc/arm-none-eabi/4.6.2/../../../../arm-none-eabi/lib/thumb/v7m\libg.a(lib_a-mallocr.o)
 .debug_line    0x00024849      0x151 d:/elektronik/ides/eclipse/yagarto/bin/../lib/gcc/arm-none-eabi/4.6.2/../../../../arm-none-eabi/lib/thumb/v7m\libg.a(lib_a-memchr.o)
 .debug_line    0x0002499a      0x147 d:/elektronik/ides/eclipse/yagarto/bin/../lib/gcc/arm-none-eabi/4.6.2/../../../../arm-none-eabi/lib/thumb/v7m\libg.a(lib_a-memcmp.o)
 .debug_line    0x00024ae1      0x175 d:/elektronik/ides/eclipse/yagarto/bin/../lib/gcc/arm-none-eabi/4.6.2/../../../../arm-none-eabi/lib/thumb/v7m\libg.a(lib_a-memcpy.o)
 .debug_line    0x00024c56      0x19d d:/elektronik/ides/eclipse/yagarto/bin/../lib/gcc/arm-none-eabi/4.6.2/../../../../arm-none-eabi/lib/thumb/v7m\libg.a(lib_a-memmove.o)
 .debug_line    0x00024df3      0x183 d:/elektronik/ides/eclipse/yagarto/bin/../lib/gcc/arm-none-eabi/4.6.2/../../../../arm-none-eabi/lib/thumb/v7m\libg.a(lib_a-memset.o)
 .debug_line    0x00024f76      0x20d d:/elektronik/ides/eclipse/yagarto/bin/../lib/gcc/arm-none-eabi/4.6.2/../../../../arm-none-eabi/lib/thumb/v7m\libg.a(lib_a-putc.o)
 .debug_line    0x00025183      0x175 d:/elektronik/ides/eclipse/yagarto/bin/../lib/gcc/arm-none-eabi/4.6.2/../../../../arm-none-eabi/lib/thumb/v7m\libg.a(lib_a-realloc.o)
 .debug_line    0x000252f8      0x28d d:/elektronik/ides/eclipse/yagarto/bin/../lib/gcc/arm-none-eabi/4.6.2/../../../../arm-none-eabi/lib/thumb/v7m\libg.a(lib_a-reallocr.o)
 .debug_line    0x00025585      0x20a d:/elektronik/ides/eclipse/yagarto/bin/../lib/gcc/arm-none-eabi/4.6.2/../../../../arm-none-eabi/lib/thumb/v7m\libg.a(lib_a-signal.o)
 .debug_line    0x0002578f      0x1c9 d:/elektronik/ides/eclipse/yagarto/bin/../lib/gcc/arm-none-eabi/4.6.2/../../../../arm-none-eabi/lib/thumb/v7m\libg.a(lib_a-sprintf.o)
 .debug_line    0x00025958       0xf2 d:/elektronik/ides/eclipse/yagarto/bin/../lib/gcc/arm-none-eabi/4.6.2/../../../../arm-none-eabi/lib/thumb/v7m\libg.a(lib_a-strcat.o)
 .debug_line    0x00025a4a       0xca d:/elektronik/ides/eclipse/yagarto/bin/../lib/gcc/arm-none-eabi/4.6.2/../../../../arm-none-eabi/lib/thumb/v7m\libg.a(lib_a-strcmp.o)
 .debug_line    0x00025b14       0xbe d:/elektronik/ides/eclipse/yagarto/bin/../lib/gcc/arm-none-eabi/4.6.2/../../../../arm-none-eabi/lib/thumb/v7m\libg.a(lib_a-strcpy.o)
 .debug_line    0x00025bd2      0x117 d:/elektronik/ides/eclipse/yagarto/bin/../lib/gcc/arm-none-eabi/4.6.2/../../../../arm-none-eabi/lib/thumb/v7m\libg.a(lib_a-strlen.o)
 .debug_line    0x00025ce9      0x186 d:/elektronik/ides/eclipse/yagarto/bin/../lib/gcc/arm-none-eabi/4.6.2/../../../../arm-none-eabi/lib/thumb/v7m\libg.a(lib_a-strncmp.o)
 .debug_line    0x00025e6f      0x13d d:/elektronik/ides/eclipse/yagarto/bin/../lib/gcc/arm-none-eabi/4.6.2/../../../../arm-none-eabi/lib/thumb/v7m\libg.a(lib_a-strncpy.o)
 .debug_line    0x00025fac      0x921 d:/elektronik/ides/eclipse/yagarto/bin/../lib/gcc/arm-none-eabi/4.6.2/../../../../arm-none-eabi/lib/thumb/v7m\libg.a(lib_a-svfprintf.o)
 .debug_line    0x000268cd      0x13b d:/elektronik/ides/eclipse/yagarto/bin/../lib/gcc/arm-none-eabi/4.6.2/../../../../arm-none-eabi/lib/thumb/v7m\libg.a(lib_a-syswrite.o)
 .debug_line    0x00026a08      0x63d d:/elektronik/ides/eclipse/yagarto/bin/../lib/gcc/arm-none-eabi/4.6.2/../../../../arm-none-eabi/lib/thumb/v7m\libg.a(lib_a-vfiprintf.o)
 .debug_line    0x00027045      0x1c8 d:/elektronik/ides/eclipse/yagarto/bin/../lib/gcc/arm-none-eabi/4.6.2/../../../../arm-none-eabi/lib/thumb/v7m\libg.a(lib_a-wbuf.o)
 .debug_line    0x0002720d      0x1ac d:/elektronik/ides/eclipse/yagarto/bin/../lib/gcc/arm-none-eabi/4.6.2/../../../../arm-none-eabi/lib/thumb/v7m\libg.a(lib_a-wsetup.o)
 .debug_line    0x000273b9      0x166 d:/elektronik/ides/eclipse/yagarto/bin/../lib/gcc/arm-none-eabi/4.6.2/../../../../arm-none-eabi/lib/thumb/v7m\libg.a(lib_a-__atexit.o)
 .debug_line    0x0002751f      0x19c d:/elektronik/ides/eclipse/yagarto/bin/../lib/gcc/arm-none-eabi/4.6.2/../../../../arm-none-eabi/lib/thumb/v7m\libg.a(lib_a-__call_atexit.o)
 .debug_line    0x000276bb      0x770 d:/elektronik/ides/eclipse/yagarto/bin/../lib/gcc/arm-none-eabi/4.6.2/../../../../arm-none-eabi/lib/thumb/v7m\libg.a(lib_a-dtoa.o)
 .debug_line    0x00027e2b      0x20f d:/elektronik/ides/eclipse/yagarto/bin/../lib/gcc/arm-none-eabi/4.6.2/../../../../arm-none-eabi/lib/thumb/v7m\libg.a(lib_a-fflush.o)
 .debug_line    0x0002803a      0x231 d:/elektronik/ides/eclipse/yagarto/bin/../lib/gcc/arm-none-eabi/4.6.2/../../../../arm-none-eabi/lib/thumb/v7m\libg.a(lib_a-findfp.o)
 .debug_line    0x0002826b      0x1b5 d:/elektronik/ides/eclipse/yagarto/bin/../lib/gcc/arm-none-eabi/4.6.2/../../../../arm-none-eabi/lib/thumb/v7m\libg.a(lib_a-fputwc.o)
 .debug_line    0x00028420      0x1ef d:/elektronik/ides/eclipse/yagarto/bin/../lib/gcc/arm-none-eabi/4.6.2/../../../../arm-none-eabi/lib/thumb/v7m\libg.a(lib_a-freer.o)
 .debug_line    0x0002860f      0x196 d:/elektronik/ides/eclipse/yagarto/bin/../lib/gcc/arm-none-eabi/4.6.2/../../../../arm-none-eabi/lib/thumb/v7m\libg.a(lib_a-fwalk.o)
 .debug_line    0x000287a5      0x1aa d:/elektronik/ides/eclipse/yagarto/bin/../lib/gcc/arm-none-eabi/4.6.2/../../../../arm-none-eabi/lib/thumb/v7m\libg.a(lib_a-locale.o)
 .debug_line    0x0002894f      0x1ed d:/elektronik/ides/eclipse/yagarto/bin/../lib/gcc/arm-none-eabi/4.6.2/../../../../arm-none-eabi/lib/thumb/v7m\libg.a(lib_a-makebuf.o)
 .debug_line    0x00028b3c      0x61f d:/elektronik/ides/eclipse/yagarto/bin/../lib/gcc/arm-none-eabi/4.6.2/../../../../arm-none-eabi/lib/thumb/v7m\libg.a(lib_a-mprec.o)
 .debug_line    0x0002915b      0x140 d:/elektronik/ides/eclipse/yagarto/bin/../lib/gcc/arm-none-eabi/4.6.2/../../../../arm-none-eabi/lib/thumb/v7m\libg.a(lib_a-s_fpclassify.o)
 .debug_line    0x0002929b      0x19f d:/elektronik/ides/eclipse/yagarto/bin/../lib/gcc/arm-none-eabi/4.6.2/../../../../arm-none-eabi/lib/thumb/v7m\libg.a(lib_a-stdio.o)
 .debug_line    0x0002943a      0x607 d:/elektronik/ides/eclipse/yagarto/bin/../lib/gcc/arm-none-eabi/4.6.2/../../../../arm-none-eabi/lib/thumb/v7m\libg.a(lib_a-svfiprintf.o)
 .debug_line    0x00029a41      0x19c d:/elektronik/ides/eclipse/yagarto/bin/../lib/gcc/arm-none-eabi/4.6.2/../../../../arm-none-eabi/lib/thumb/v7m\libg.a(lib_a-wcrtomb.o)
 .debug_line    0x00029bdd      0x19e d:/elektronik/ides/eclipse/yagarto/bin/../lib/gcc/arm-none-eabi/4.6.2/../../../../arm-none-eabi/lib/thumb/v7m\libg.a(lib_a-wctomb_r.o)
 .debug_line    0x00029d7b      0x154 d:/elektronik/ides/eclipse/yagarto/bin/../lib/gcc/arm-none-eabi/4.6.2/../../../../arm-none-eabi/lib/thumb/v7m\libg.a(lib_a-callocr.o)
 .debug_line    0x00029ecf      0x1b6 d:/elektronik/ides/eclipse/yagarto/bin/../lib/gcc/arm-none-eabi/4.6.2/../../../../arm-none-eabi/lib/thumb/v7m\libg.a(lib_a-fclose.o)
 .debug_line    0x0002a085       0x93 d:/elektronik/ides/eclipse/yagarto/bin/../lib/gcc/arm-none-eabi/4.6.2/thumb/v7m\libgcc.a(_udivsi3.o)
 .debug_line    0x0002a118       0x70 d:/elektronik/ides/eclipse/yagarto/bin/../lib/gcc/arm-none-eabi/4.6.2/thumb/v7m\libgcc.a(_dvmd_tls.o)
 .debug_line    0x0002a188      0x20d d:/elektronik/ides/eclipse/yagarto/bin/../lib/gcc/arm-none-eabi/4.6.2/thumb/v7m\libgcc.a(_arm_addsubdf3.o)
 .debug_line    0x0002a395      0x229 d:/elektronik/ides/eclipse/yagarto/bin/../lib/gcc/arm-none-eabi/4.6.2/thumb/v7m\libgcc.a(_arm_muldivdf3.o)
 .debug_line    0x0002a5be      0x10f d:/elektronik/ides/eclipse/yagarto/bin/../lib/gcc/arm-none-eabi/4.6.2/thumb/v7m\libgcc.a(_arm_cmpdf2.o)
 .debug_line    0x0002a6cd       0x87 d:/elektronik/ides/eclipse/yagarto/bin/../lib/gcc/arm-none-eabi/4.6.2/thumb/v7m\libgcc.a(_arm_fixdfsi.o)
 .debug_line    0x0002a754       0x6c d:/elektronik/ides/eclipse/yagarto/bin/../lib/gcc/arm-none-eabi/4.6.2/thumb/v7m/crtn.o

.debug_info     0x00000000    0x4b364
 .debug_info    0x00000000       0x71 d:/elektronik/ides/eclipse/yagarto/bin/../lib/gcc/arm-none-eabi/4.6.2/thumb/v7m/crti.o
 .debug_info    0x00000071       0xa5 d:/elektronik/ides/eclipse/yagarto/bin/../lib/gcc/arm-none-eabi/4.6.2/../../../../arm-none-eabi/lib/thumb/v7m/crt0.o
 .debug_info    0x00000116      0x59c ./STM32F4xx_StdPeriph_Driver/src/misc.o
 .debug_info    0x000006b2      0xcfd ./STM32F4xx_StdPeriph_Driver/src/stm32f4xx_adc.o
 .debug_info    0x000013af      0xc6a ./STM32F4xx_StdPeriph_Driver/src/stm32f4xx_can.o
 .debug_info    0x00002019      0x213 ./STM32F4xx_StdPeriph_Driver/src/stm32f4xx_crc.o
 .debug_info    0x0000222c      0x7a6 ./STM32F4xx_StdPeriph_Driver/src/stm32f4xx_cryp.o
 .debug_info    0x000029d2     0x116c ./STM32F4xx_StdPeriph_Driver/src/stm32f4xx_cryp_aes.o
 .debug_info    0x00003b3e      0x568 ./STM32F4xx_StdPeriph_Driver/src/stm32f4xx_cryp_des.o
 .debug_info    0x000040a6      0x6e7 ./STM32F4xx_StdPeriph_Driver/src/stm32f4xx_cryp_tdes.o
 .debug_info    0x0000478d      0x68b ./STM32F4xx_StdPeriph_Driver/src/stm32f4xx_dac.o
 .debug_info    0x00004e18      0x1f7 ./STM32F4xx_StdPeriph_Driver/src/stm32f4xx_dbgmcu.o
 .debug_info    0x0000500f      0x5a5 ./STM32F4xx_StdPeriph_Driver/src/stm32f4xx_dcmi.o
 .debug_info    0x000055b4      0x7ab ./STM32F4xx_StdPeriph_Driver/src/stm32f4xx_dma.o
 .debug_info    0x00005d5f      0x37a ./STM32F4xx_StdPeriph_Driver/src/stm32f4xx_exti.o
 .debug_info    0x000060d9      0x77d ./STM32F4xx_StdPeriph_Driver/src/stm32f4xx_flash.o
 .debug_info    0x00006856      0x9ad ./STM32F4xx_StdPeriph_Driver/src/stm32f4xx_fsmc.o
 .debug_info    0x00007203      0x641 ./STM32F4xx_StdPeriph_Driver/src/stm32f4xx_gpio.o
 .debug_info    0x00007844      0x58e ./STM32F4xx_StdPeriph_Driver/src/stm32f4xx_hash.o
 .debug_info    0x00007dd2      0x4f1 ./STM32F4xx_StdPeriph_Driver/src/stm32f4xx_hash_md5.o
 .debug_info    0x000082c3      0x552 ./STM32F4xx_StdPeriph_Driver/src/stm32f4xx_hash_sha1.o
 .debug_info    0x00008815      0xb99 ./STM32F4xx_StdPeriph_Driver/src/stm32f4xx_i2c.o
 .debug_info    0x000093ae      0x213 ./STM32F4xx_StdPeriph_Driver/src/stm32f4xx_iwdg.o
 .debug_info    0x000095c1      0x546 ./STM32F4xx_StdPeriph_Driver/src/stm32f4xx_pwr.o
 .debug_info    0x00009b07      0xd2c ./STM32F4xx_StdPeriph_Driver/src/stm32f4xx_rcc.o
 .debug_info    0x0000a833      0x299 ./STM32F4xx_StdPeriph_Driver/src/stm32f4xx_rng.o
 .debug_info    0x0000aacc     0x122b ./STM32F4xx_StdPeriph_Driver/src/stm32f4xx_rtc.o
 .debug_info    0x0000bcf7      0x8ac ./STM32F4xx_StdPeriph_Driver/src/stm32f4xx_sdio.o
 .debug_info    0x0000c5a3      0xbd4 ./STM32F4xx_StdPeriph_Driver/src/stm32f4xx_spi.o
 .debug_info    0x0000d177      0x282 ./STM32F4xx_StdPeriph_Driver/src/stm32f4xx_syscfg.o
 .debug_info    0x0000d3f9     0x1e30 ./STM32F4xx_StdPeriph_Driver/src/stm32f4xx_tim.o
 .debug_info    0x0000f229      0xa57 ./STM32F4xx_StdPeriph_Driver/src/stm32f4xx_usart.o
 .debug_info    0x0000fc80      0x25e ./STM32F4xx_StdPeriph_Driver/src/stm32f4xx_wwdg.o
 .debug_info    0x0000fede      0x96d ./STM32F4-Discovery/stm32f4_discovery.o
 .debug_info    0x0001084b     0x127e ./STM32F4-Discovery/stm32f4_discovery_audio_codec.o
 .debug_info    0x00011ac9      0x848 ./STM32F4-Discovery/stm32f4_discovery_lis302dl.o
 .debug_info    0x00012311      0x624 ./Menue/CMenue.o
 .debug_info    0x00012935      0x548 ./GraphicLCD/CGraphicLCD.o
 .debug_info    0x00012e7d      0xed5 ./GraphicLCD/CT6963CDriver.o
 .debug_info    0x00013d52      0x6e8 ./GraphicLCD/CT6963GPIOInterface.o
 .debug_info    0x0001443a      0x16d ./GraphicLCD/SansSerif12.o
 .debug_info    0x000145a7      0x7b8 ./FreeRTOS_EC/Source/AManagedTask.o
 .debug_info    0x00014d5f      0x5a7 ./FreeRTOS_EC/Source/ASyncObject.o
 .debug_info    0x00015306       0x8e ./FreeRTOS_EC/Source/ATimer.o
 .debug_info    0x00015394      0x630 ./FreeRTOS_EC/Source/CBinarySemaphore.o
 .debug_info    0x000159c4      0x63e ./FreeRTOS_EC/Source/CCountingSemaphore.o
 .debug_info    0x00016002      0x1d6 ./FreeRTOS_EC/Source/CFreeRTOS.o
 .debug_info    0x000161d8      0xc9c ./FreeRTOS_EC/Source/CMessageTask.o
 .debug_info    0x00016e74      0x605 ./FreeRTOS_EC/Source/CMutex.o
 .debug_info    0x00017479      0x834 ./FreeRTOS_EC/Source/CQueue.o
 .debug_info    0x00017cad      0x588 ./FreeRTOS_EC/Source/CRecursiveMutex.o
 .debug_info    0x00018235      0xa30 ./FreeRTOS_EC/Source/CTask.o
 .debug_info    0x00018c65      0x24d ./FreeRTOS/Source/portable/GCC/ARM_CM4F/port.o
 .debug_info    0x00018eb2      0x4ff ./FreeRTOS/Source/croutine.o
 .debug_info    0x000193b1      0x2de ./FreeRTOS/Source/list.o
 .debug_info    0x0001968f      0x793 ./FreeRTOS/Source/queue.o
 .debug_info    0x00019e22     0x10f7 ./FreeRTOS/Source/tasks.o
 .debug_info    0x0001af19       0x9c ./FreeRTOS/Source/timers.o
 .debug_info    0x0001afb5       0xa3 ./Fatfs/FatFs/src/option/syscall.o
 .debug_info    0x0001b058      0x76e ./Fatfs/FatFs/src/diskio.o
 .debug_info    0x0001b7c6     0x192d ./Fatfs/FatFs/src/ff.o
 .debug_info    0x0001d0f3      0x216 ./Fatfs/CFileHandler.o
 .debug_info    0x0001d309       0x8a ./Fatfs/fattime.o
 .debug_info    0x0001d393     0x1811 ./Fatfs/stm32f4_sdio.o
 .debug_info    0x0001eba4      0x661 ./CLedHeartBeatSTM32F4Disc.o
 .debug_info    0x0001f205      0x3ac ./main.o
 .debug_info    0x0001f5b1       0x88 ./startup_stm32f4xx.o
 .debug_info    0x0001f639      0x148 ./stm32f4xx_it.o
 .debug_info    0x0001f781      0xe9e ./syscalls.o
 .debug_info    0x0002061f      0x625 ./system_stm32f4xx.o
 .debug_info    0x00020c44      0x610 ./ustime.o
 .debug_info    0x00021254       0xd3 d:/elektronik/ides/eclipse/yagarto/bin/../lib/gcc/arm-none-eabi/4.6.2/../../../../arm-none-eabi/lib/thumb/v7m\libstdc++.a(atexit_arm.o)
 .debug_info    0x00021327      0x43f d:/elektronik/ides/eclipse/yagarto/bin/../lib/gcc/arm-none-eabi/4.6.2/../../../../arm-none-eabi/lib/thumb/v7m\libstdc++.a(del_op.o)
 .debug_info    0x00021766       0xb7 d:/elektronik/ides/eclipse/yagarto/bin/../lib/gcc/arm-none-eabi/4.6.2/../../../../arm-none-eabi/lib/thumb/v7m\libstdc++.a(pure.o)
 .debug_info    0x0002181d      0x5e3 d:/elektronik/ides/eclipse/yagarto/bin/../lib/gcc/arm-none-eabi/4.6.2/../../../../arm-none-eabi/lib/thumb/v7m\libstdc++.a(eh_terminate.o)
 .debug_info    0x00021e00       0xa4 d:/elektronik/ides/eclipse/yagarto/bin/../lib/gcc/arm-none-eabi/4.6.2/../../../../arm-none-eabi/lib/thumb/v7m\libstdc++.a(eh_term_handler.o)
 .debug_info    0x00021ea4       0xa4 d:/elektronik/ides/eclipse/yagarto/bin/../lib/gcc/arm-none-eabi/4.6.2/../../../../arm-none-eabi/lib/thumb/v7m\libstdc++.a(eh_unex_handler.o)
 .debug_info    0x00021f48     0x11ba d:/elektronik/ides/eclipse/yagarto/bin/../lib/gcc/arm-none-eabi/4.6.2/../../../../arm-none-eabi/lib/thumb/v7m\libstdc++.a(vterminate.o)
 .debug_info    0x00023102     0x2b85 d:/elektronik/ides/eclipse/yagarto/bin/../lib/gcc/arm-none-eabi/4.6.2/../../../../arm-none-eabi/lib/thumb/v7m\libstdc++.a(cp-demangle.o)
 .debug_info    0x00025c87      0x7fe d:/elektronik/ides/eclipse/yagarto/bin/../lib/gcc/arm-none-eabi/4.6.2/../../../../arm-none-eabi/lib/thumb/v7m\libstdc++.a(eh_arm.o)
 .debug_info    0x00026485      0x561 d:/elektronik/ides/eclipse/yagarto/bin/../lib/gcc/arm-none-eabi/4.6.2/../../../../arm-none-eabi/lib/thumb/v7m\libstdc++.a(eh_aux_runtime.o)
 .debug_info    0x000269e6      0xc79 d:/elektronik/ides/eclipse/yagarto/bin/../lib/gcc/arm-none-eabi/4.6.2/../../../../arm-none-eabi/lib/thumb/v7m\libstdc++.a(eh_call.o)
 .debug_info    0x0002765f      0x983 d:/elektronik/ides/eclipse/yagarto/bin/../lib/gcc/arm-none-eabi/4.6.2/../../../../arm-none-eabi/lib/thumb/v7m\libstdc++.a(eh_catch.o)
 .debug_info    0x00027fe2      0x583 d:/elektronik/ides/eclipse/yagarto/bin/../lib/gcc/arm-none-eabi/4.6.2/../../../../arm-none-eabi/lib/thumb/v7m\libstdc++.a(eh_exception.o)
 .debug_info    0x00028565      0x788 d:/elektronik/ides/eclipse/yagarto/bin/../lib/gcc/arm-none-eabi/4.6.2/../../../../arm-none-eabi/lib/thumb/v7m\libstdc++.a(eh_globals.o)
 .debug_info    0x00028ced     0x16cc d:/elektronik/ides/eclipse/yagarto/bin/../lib/gcc/arm-none-eabi/4.6.2/../../../../arm-none-eabi/lib/thumb/v7m\libstdc++.a(eh_personality.o)
 .debug_info    0x0002a3b9      0x62c d:/elektronik/ides/eclipse/yagarto/bin/../lib/gcc/arm-none-eabi/4.6.2/../../../../arm-none-eabi/lib/thumb/v7m\libstdc++.a(eh_throw.o)
 .debug_info    0x0002a9e5      0x50f d:/elektronik/ides/eclipse/yagarto/bin/../lib/gcc/arm-none-eabi/4.6.2/../../../../arm-none-eabi/lib/thumb/v7m\libstdc++.a(eh_type.o)
 .debug_info    0x0002aef4      0x1e6 d:/elektronik/ides/eclipse/yagarto/bin/../lib/gcc/arm-none-eabi/4.6.2/../../../../arm-none-eabi/lib/thumb/v7m\libstdc++.a(fundamental_type_info.o)
 .debug_info    0x0002b0da      0x40f d:/elektronik/ides/eclipse/yagarto/bin/../lib/gcc/arm-none-eabi/4.6.2/../../../../arm-none-eabi/lib/thumb/v7m\libstdc++.a(pointer_type_info.o)
 .debug_info    0x0002b4e9      0x7f2 d:/elektronik/ides/eclipse/yagarto/bin/../lib/gcc/arm-none-eabi/4.6.2/../../../../arm-none-eabi/lib/thumb/v7m\libstdc++.a(si_class_type_info.o)
 .debug_info    0x0002bcdb      0x53a d:/elektronik/ides/eclipse/yagarto/bin/../lib/gcc/arm-none-eabi/4.6.2/../../../../arm-none-eabi/lib/thumb/v7m\libstdc++.a(tinfo.o)
 .debug_info    0x0002c215      0x1a3 d:/elektronik/ides/eclipse/yagarto/bin/../lib/gcc/arm-none-eabi/4.6.2/../../../../arm-none-eabi/lib/thumb/v7m\libstdc++.a(bad_cast.o)
 .debug_info    0x0002c3b8      0x1a3 d:/elektronik/ides/eclipse/yagarto/bin/../lib/gcc/arm-none-eabi/4.6.2/../../../../arm-none-eabi/lib/thumb/v7m\libstdc++.a(bad_typeid.o)
 .debug_info    0x0002c55b      0x8c5 d:/elektronik/ides/eclipse/yagarto/bin/../lib/gcc/arm-none-eabi/4.6.2/../../../../arm-none-eabi/lib/thumb/v7m\libstdc++.a(class_type_info.o)
 .debug_info    0x0002ce20      0xfd4 d:/elektronik/ides/eclipse/yagarto/bin/../lib/gcc/arm-none-eabi/4.6.2/../../../../arm-none-eabi/lib/thumb/v7m\libstdc++.a(eh_alloc.o)
 .debug_info    0x0002ddf4      0x4df d:/elektronik/ides/eclipse/yagarto/bin/../lib/gcc/arm-none-eabi/4.6.2/../../../../arm-none-eabi/lib/thumb/v7m\libstdc++.a(pbase_type_info.o)
 .debug_info    0x0002e2d3     0x123f d:/elektronik/ides/eclipse/yagarto/bin/../lib/gcc/arm-none-eabi/4.6.2/thumb/v7m\libgcc.a(unwind-arm.o)
 .debug_info    0x0002f512       0xa6 d:/elektronik/ides/eclipse/yagarto/bin/../lib/gcc/arm-none-eabi/4.6.2/thumb/v7m\libgcc.a(libunwind.o)
 .debug_info    0x0002f5b8      0x5f5 d:/elektronik/ides/eclipse/yagarto/bin/../lib/gcc/arm-none-eabi/4.6.2/thumb/v7m\libgcc.a(pr-support.o)
 .debug_info    0x0002fbad       0x88 d:/elektronik/ides/eclipse/yagarto/bin/../lib/gcc/arm-none-eabi/4.6.2/../../../../arm-none-eabi/lib/thumb/v7m\libg.a(lib_a-abort.o)
 .debug_info    0x0002fc35      0x9e3 d:/elektronik/ides/eclipse/yagarto/bin/../lib/gcc/arm-none-eabi/4.6.2/../../../../arm-none-eabi/lib/thumb/v7m\libg.a(lib_a-assert.o)
 .debug_info    0x00030618       0xc1 d:/elektronik/ides/eclipse/yagarto/bin/../lib/gcc/arm-none-eabi/4.6.2/../../../../arm-none-eabi/lib/thumb/v7m\libg.a(lib_a-atexit.o)
 .debug_info    0x000306d9       0xee d:/elektronik/ides/eclipse/yagarto/bin/../lib/gcc/arm-none-eabi/4.6.2/../../../../arm-none-eabi/lib/thumb/v7m\libg.a(lib_a-cxa_atexit.o)
 .debug_info    0x000307c7      0x974 d:/elektronik/ides/eclipse/yagarto/bin/../lib/gcc/arm-none-eabi/4.6.2/../../../../arm-none-eabi/lib/thumb/v7m\libg.a(lib_a-exit.o)
 .debug_info    0x0003113b       0xfb d:/elektronik/ides/eclipse/yagarto/bin/../lib/gcc/arm-none-eabi/4.6.2/../../../../arm-none-eabi/lib/thumb/v7m\libg.a(lib_a-fini.o)
 .debug_info    0x00031236      0xa41 d:/elektronik/ides/eclipse/yagarto/bin/../lib/gcc/arm-none-eabi/4.6.2/../../../../arm-none-eabi/lib/thumb/v7m\libg.a(lib_a-fiprintf.o)
 .debug_info    0x00031c77      0x9f3 d:/elektronik/ides/eclipse/yagarto/bin/../lib/gcc/arm-none-eabi/4.6.2/../../../../arm-none-eabi/lib/thumb/v7m\libg.a(lib_a-fputc.o)
 .debug_info    0x0003266a      0xa7b d:/elektronik/ides/eclipse/yagarto/bin/../lib/gcc/arm-none-eabi/4.6.2/../../../../arm-none-eabi/lib/thumb/v7m\libg.a(lib_a-fputs.o)
 .debug_info    0x000330e5      0xab7 d:/elektronik/ides/eclipse/yagarto/bin/../lib/gcc/arm-none-eabi/4.6.2/../../../../arm-none-eabi/lib/thumb/v7m\libg.a(lib_a-fvwrite.o)
 .debug_info    0x00033b9c      0xab7 d:/elektronik/ides/eclipse/yagarto/bin/../lib/gcc/arm-none-eabi/4.6.2/../../../../arm-none-eabi/lib/thumb/v7m\libg.a(lib_a-fwrite.o)
 .debug_info    0x00034653      0x966 d:/elektronik/ides/eclipse/yagarto/bin/../lib/gcc/arm-none-eabi/4.6.2/../../../../arm-none-eabi/lib/thumb/v7m\libg.a(lib_a-impure.o)
 .debug_info    0x00034fb9      0x12f d:/elektronik/ides/eclipse/yagarto/bin/../lib/gcc/arm-none-eabi/4.6.2/../../../../arm-none-eabi/lib/thumb/v7m\libg.a(lib_a-init.o)
 .debug_info    0x000350e8      0x9a5 d:/elektronik/ides/eclipse/yagarto/bin/../lib/gcc/arm-none-eabi/4.6.2/../../../../arm-none-eabi/lib/thumb/v7m\libg.a(lib_a-malloc.o)
 .debug_info    0x00035a8d      0xd6b d:/elektronik/ides/eclipse/yagarto/bin/../lib/gcc/arm-none-eabi/4.6.2/../../../../arm-none-eabi/lib/thumb/v7m\libg.a(lib_a-mallocr.o)
 .debug_info    0x000367f8      0x122 d:/elektronik/ides/eclipse/yagarto/bin/../lib/gcc/arm-none-eabi/4.6.2/../../../../arm-none-eabi/lib/thumb/v7m\libg.a(lib_a-memchr.o)
 .debug_info    0x0003691a      0x110 d:/elektronik/ides/eclipse/yagarto/bin/../lib/gcc/arm-none-eabi/4.6.2/../../../../arm-none-eabi/lib/thumb/v7m\libg.a(lib_a-memcmp.o)
 .debug_info    0x00036a2a      0x130 d:/elektronik/ides/eclipse/yagarto/bin/../lib/gcc/arm-none-eabi/4.6.2/../../../../arm-none-eabi/lib/thumb/v7m\libg.a(lib_a-memcpy.o)
 .debug_info    0x00036b5a      0x12e d:/elektronik/ides/eclipse/yagarto/bin/../lib/gcc/arm-none-eabi/4.6.2/../../../../arm-none-eabi/lib/thumb/v7m\libg.a(lib_a-memmove.o)
 .debug_info    0x00036c88      0x116 d:/elektronik/ides/eclipse/yagarto/bin/../lib/gcc/arm-none-eabi/4.6.2/../../../../arm-none-eabi/lib/thumb/v7m\libg.a(lib_a-memset.o)
 .debug_info    0x00036d9e      0x9f7 d:/elektronik/ides/eclipse/yagarto/bin/../lib/gcc/arm-none-eabi/4.6.2/../../../../arm-none-eabi/lib/thumb/v7m\libg.a(lib_a-putc.o)
 .debug_info    0x00037795      0x98b d:/elektronik/ides/eclipse/yagarto/bin/../lib/gcc/arm-none-eabi/4.6.2/../../../../arm-none-eabi/lib/thumb/v7m\libg.a(lib_a-realloc.o)
 .debug_info    0x00038120      0xc0c d:/elektronik/ides/eclipse/yagarto/bin/../lib/gcc/arm-none-eabi/4.6.2/../../../../arm-none-eabi/lib/thumb/v7m\libg.a(lib_a-reallocr.o)
 .debug_info    0x00038d2c      0xb5b d:/elektronik/ides/eclipse/yagarto/bin/../lib/gcc/arm-none-eabi/4.6.2/../../../../arm-none-eabi/lib/thumb/v7m\libg.a(lib_a-signal.o)
 .debug_info    0x00039887      0xa62 d:/elektronik/ides/eclipse/yagarto/bin/../lib/gcc/arm-none-eabi/4.6.2/../../../../arm-none-eabi/lib/thumb/v7m\libg.a(lib_a-sprintf.o)
 .debug_info    0x0003a2e9       0xe6 d:/elektronik/ides/eclipse/yagarto/bin/../lib/gcc/arm-none-eabi/4.6.2/../../../../arm-none-eabi/lib/thumb/v7m\libg.a(lib_a-strcat.o)
 .debug_info    0x0003a3cf       0xe7 d:/elektronik/ides/eclipse/yagarto/bin/../lib/gcc/arm-none-eabi/4.6.2/../../../../arm-none-eabi/lib/thumb/v7m\libg.a(lib_a-strcmp.o)
 .debug_info    0x0003a4b6       0xb9 d:/elektronik/ides/eclipse/yagarto/bin/../lib/gcc/arm-none-eabi/4.6.2/../../../../arm-none-eabi/lib/thumb/v7m\libg.a(lib_a-strcpy.o)
 .debug_info    0x0003a56f       0xb1 d:/elektronik/ides/eclipse/yagarto/bin/../lib/gcc/arm-none-eabi/4.6.2/../../../../arm-none-eabi/lib/thumb/v7m\libg.a(lib_a-strlen.o)
 .debug_info    0x0003a620       0xf2 d:/elektronik/ides/eclipse/yagarto/bin/../lib/gcc/arm-none-eabi/4.6.2/../../../../arm-none-eabi/lib/thumb/v7m\libg.a(lib_a-strncmp.o)
 .debug_info    0x0003a712      0x125 d:/elektronik/ides/eclipse/yagarto/bin/../lib/gcc/arm-none-eabi/4.6.2/../../../../arm-none-eabi/lib/thumb/v7m\libg.a(lib_a-strncpy.o)
 .debug_info    0x0003a837     0x1015 d:/elektronik/ides/eclipse/yagarto/bin/../lib/gcc/arm-none-eabi/4.6.2/../../../../arm-none-eabi/lib/thumb/v7m\libg.a(lib_a-svfprintf.o)
 .debug_info    0x0003b84c      0x9a2 d:/elektronik/ides/eclipse/yagarto/bin/../lib/gcc/arm-none-eabi/4.6.2/../../../../arm-none-eabi/lib/thumb/v7m\libg.a(lib_a-syswrite.o)
 .debug_info    0x0003c1ee      0xf50 d:/elektronik/ides/eclipse/yagarto/bin/../lib/gcc/arm-none-eabi/4.6.2/../../../../arm-none-eabi/lib/thumb/v7m\libg.a(lib_a-vfiprintf.o)
 .debug_info    0x0003d13e      0x9e5 d:/elektronik/ides/eclipse/yagarto/bin/../lib/gcc/arm-none-eabi/4.6.2/../../../../arm-none-eabi/lib/thumb/v7m\libg.a(lib_a-wbuf.o)
 .debug_info    0x0003db23      0x992 d:/elektronik/ides/eclipse/yagarto/bin/../lib/gcc/arm-none-eabi/4.6.2/../../../../arm-none-eabi/lib/thumb/v7m\libg.a(lib_a-wsetup.o)
 .debug_info    0x0003e4b5      0x9ef d:/elektronik/ides/eclipse/yagarto/bin/../lib/gcc/arm-none-eabi/4.6.2/../../../../arm-none-eabi/lib/thumb/v7m\libg.a(lib_a-__atexit.o)
 .debug_info    0x0003eea4      0x9fc d:/elektronik/ides/eclipse/yagarto/bin/../lib/gcc/arm-none-eabi/4.6.2/../../../../arm-none-eabi/lib/thumb/v7m\libg.a(lib_a-__call_atexit.o)
 .debug_info    0x0003f8a0      0xdce d:/elektronik/ides/eclipse/yagarto/bin/../lib/gcc/arm-none-eabi/4.6.2/../../../../arm-none-eabi/lib/thumb/v7m\libg.a(lib_a-dtoa.o)
 .debug_info    0x0004066e      0xaae d:/elektronik/ides/eclipse/yagarto/bin/../lib/gcc/arm-none-eabi/4.6.2/../../../../arm-none-eabi/lib/thumb/v7m\libg.a(lib_a-fflush.o)
 .debug_info    0x0004111c      0xbfa d:/elektronik/ides/eclipse/yagarto/bin/../lib/gcc/arm-none-eabi/4.6.2/../../../../arm-none-eabi/lib/thumb/v7m\libg.a(lib_a-findfp.o)
 .debug_info    0x00041d16      0xaa5 d:/elektronik/ides/eclipse/yagarto/bin/../lib/gcc/arm-none-eabi/4.6.2/../../../../arm-none-eabi/lib/thumb/v7m\libg.a(lib_a-fputwc.o)
 .debug_info    0x000427bb      0xc40 d:/elektronik/ides/eclipse/yagarto/bin/../lib/gcc/arm-none-eabi/4.6.2/../../../../arm-none-eabi/lib/thumb/v7m\libg.a(lib_a-freer.o)
 .debug_info    0x000433fb      0xb36 d:/elektronik/ides/eclipse/yagarto/bin/../lib/gcc/arm-none-eabi/4.6.2/../../../../arm-none-eabi/lib/thumb/v7m\libg.a(lib_a-fwalk.o)
 .debug_info    0x00043f31      0xc96 d:/elektronik/ides/eclipse/yagarto/bin/../lib/gcc/arm-none-eabi/4.6.2/../../../../arm-none-eabi/lib/thumb/v7m\libg.a(lib_a-locale.o)
 .debug_info    0x00044bc7      0xb45 d:/elektronik/ides/eclipse/yagarto/bin/../lib/gcc/arm-none-eabi/4.6.2/../../../../arm-none-eabi/lib/thumb/v7m\libg.a(lib_a-makebuf.o)
 .debug_info    0x0004570c     0x14d9 d:/elektronik/ides/eclipse/yagarto/bin/../lib/gcc/arm-none-eabi/4.6.2/../../../../arm-none-eabi/lib/thumb/v7m\libg.a(lib_a-mprec.o)
 .debug_info    0x00046be5      0x143 d:/elektronik/ides/eclipse/yagarto/bin/../lib/gcc/arm-none-eabi/4.6.2/../../../../arm-none-eabi/lib/thumb/v7m\libg.a(lib_a-s_fpclassify.o)
 .debug_info    0x00046d28      0xb35 d:/elektronik/ides/eclipse/yagarto/bin/../lib/gcc/arm-none-eabi/4.6.2/../../../../arm-none-eabi/lib/thumb/v7m\libg.a(lib_a-stdio.o)
 .debug_info    0x0004785d      0xd97 d:/elektronik/ides/eclipse/yagarto/bin/../lib/gcc/arm-none-eabi/4.6.2/../../../../arm-none-eabi/lib/thumb/v7m\libg.a(lib_a-svfiprintf.o)
 .debug_info    0x000485f4      0xa99 d:/elektronik/ides/eclipse/yagarto/bin/../lib/gcc/arm-none-eabi/4.6.2/../../../../arm-none-eabi/lib/thumb/v7m\libg.a(lib_a-wcrtomb.o)
 .debug_info    0x0004908d      0xa61 d:/elektronik/ides/eclipse/yagarto/bin/../lib/gcc/arm-none-eabi/4.6.2/../../../../arm-none-eabi/lib/thumb/v7m\libg.a(lib_a-wctomb_r.o)
 .debug_info    0x00049aee      0xa4e d:/elektronik/ides/eclipse/yagarto/bin/../lib/gcc/arm-none-eabi/4.6.2/../../../../arm-none-eabi/lib/thumb/v7m\libg.a(lib_a-callocr.o)
 .debug_info    0x0004a53c      0x9cb d:/elektronik/ides/eclipse/yagarto/bin/../lib/gcc/arm-none-eabi/4.6.2/../../../../arm-none-eabi/lib/thumb/v7m\libg.a(lib_a-fclose.o)
 .debug_info    0x0004af07       0xa8 d:/elektronik/ides/eclipse/yagarto/bin/../lib/gcc/arm-none-eabi/4.6.2/thumb/v7m\libgcc.a(_udivsi3.o)
 .debug_info    0x0004afaf       0xa8 d:/elektronik/ides/eclipse/yagarto/bin/../lib/gcc/arm-none-eabi/4.6.2/thumb/v7m\libgcc.a(_dvmd_tls.o)
 .debug_info    0x0004b057       0xa7 d:/elektronik/ides/eclipse/yagarto/bin/../lib/gcc/arm-none-eabi/4.6.2/thumb/v7m\libgcc.a(_arm_addsubdf3.o)
 .debug_info    0x0004b0fe       0xa7 d:/elektronik/ides/eclipse/yagarto/bin/../lib/gcc/arm-none-eabi/4.6.2/thumb/v7m\libgcc.a(_arm_muldivdf3.o)
 .debug_info    0x0004b1a5       0xa7 d:/elektronik/ides/eclipse/yagarto/bin/../lib/gcc/arm-none-eabi/4.6.2/thumb/v7m\libgcc.a(_arm_cmpdf2.o)
 .debug_info    0x0004b24c       0xa7 d:/elektronik/ides/eclipse/yagarto/bin/../lib/gcc/arm-none-eabi/4.6.2/thumb/v7m\libgcc.a(_arm_fixdfsi.o)
 .debug_info    0x0004b2f3       0x71 d:/elektronik/ides/eclipse/yagarto/bin/../lib/gcc/arm-none-eabi/4.6.2/thumb/v7m/crtn.o

.debug_abbrev   0x00000000     0xf62d
 .debug_abbrev  0x00000000       0x12 d:/elektronik/ides/eclipse/yagarto/bin/../lib/gcc/arm-none-eabi/4.6.2/thumb/v7m/crti.o
 .debug_abbrev  0x00000012       0x14 d:/elektronik/ides/eclipse/yagarto/bin/../lib/gcc/arm-none-eabi/4.6.2/../../../../arm-none-eabi/lib/thumb/v7m/crt0.o
 .debug_abbrev  0x00000026      0x12a ./STM32F4xx_StdPeriph_Driver/src/misc.o
 .debug_abbrev  0x00000150      0x18d ./STM32F4xx_StdPeriph_Driver/src/stm32f4xx_adc.o
 .debug_abbrev  0x000002dd      0x1b0 ./STM32F4xx_StdPeriph_Driver/src/stm32f4xx_can.o
 .debug_abbrev  0x0000048d      0x10e ./STM32F4xx_StdPeriph_Driver/src/stm32f4xx_crc.o
 .debug_abbrev  0x0000059b      0x184 ./STM32F4xx_StdPeriph_Driver/src/stm32f4xx_cryp.o
 .debug_abbrev  0x0000071f      0x1d6 ./STM32F4xx_StdPeriph_Driver/src/stm32f4xx_cryp_aes.o
 .debug_abbrev  0x000008f5      0x161 ./STM32F4xx_StdPeriph_Driver/src/stm32f4xx_cryp_des.o
 .debug_abbrev  0x00000a56      0x161 ./STM32F4xx_StdPeriph_Driver/src/stm32f4xx_cryp_tdes.o
 .debug_abbrev  0x00000bb7      0x176 ./STM32F4xx_StdPeriph_Driver/src/stm32f4xx_dac.o
 .debug_abbrev  0x00000d2d       0xde ./STM32F4xx_StdPeriph_Driver/src/stm32f4xx_dbgmcu.o
 .debug_abbrev  0x00000e0b      0x17e ./STM32F4xx_StdPeriph_Driver/src/stm32f4xx_dcmi.o
 .debug_abbrev  0x00000f89      0x152 ./STM32F4xx_StdPeriph_Driver/src/stm32f4xx_dma.o
 .debug_abbrev  0x000010db      0x19c ./STM32F4xx_StdPeriph_Driver/src/stm32f4xx_exti.o
 .debug_abbrev  0x00001277      0x16c ./STM32F4xx_StdPeriph_Driver/src/stm32f4xx_flash.o
 .debug_abbrev  0x000013e3      0x16a ./STM32F4xx_StdPeriph_Driver/src/stm32f4xx_fsmc.o
 .debug_abbrev  0x0000154d      0x186 ./STM32F4xx_StdPeriph_Driver/src/stm32f4xx_gpio.o
 .debug_abbrev  0x000016d3      0x1a5 ./STM32F4xx_StdPeriph_Driver/src/stm32f4xx_hash.o
 .debug_abbrev  0x00001878      0x193 ./STM32F4xx_StdPeriph_Driver/src/stm32f4xx_hash_md5.o
 .debug_abbrev  0x00001a0b      0x193 ./STM32F4xx_StdPeriph_Driver/src/stm32f4xx_hash_sha1.o
 .debug_abbrev  0x00001b9e      0x161 ./STM32F4xx_StdPeriph_Driver/src/stm32f4xx_i2c.o
 .debug_abbrev  0x00001cff       0xfe ./STM32F4xx_StdPeriph_Driver/src/stm32f4xx_iwdg.o
 .debug_abbrev  0x00001dfd      0x179 ./STM32F4xx_StdPeriph_Driver/src/stm32f4xx_pwr.o
 .debug_abbrev  0x00001f76      0x1bb ./STM32F4xx_StdPeriph_Driver/src/stm32f4xx_rcc.o
 .debug_abbrev  0x00002131      0x13b ./STM32F4xx_StdPeriph_Driver/src/stm32f4xx_rng.o
 .debug_abbrev  0x0000226c      0x16f ./STM32F4xx_StdPeriph_Driver/src/stm32f4xx_rtc.o
 .debug_abbrev  0x000023db      0x171 ./STM32F4xx_StdPeriph_Driver/src/stm32f4xx_sdio.o
 .debug_abbrev  0x0000254c      0x164 ./STM32F4xx_StdPeriph_Driver/src/stm32f4xx_spi.o
 .debug_abbrev  0x000026b0      0x12e ./STM32F4xx_StdPeriph_Driver/src/stm32f4xx_syscfg.o
 .debug_abbrev  0x000027de      0x167 ./STM32F4xx_StdPeriph_Driver/src/stm32f4xx_tim.o
 .debug_abbrev  0x00002945      0x152 ./STM32F4xx_StdPeriph_Driver/src/stm32f4xx_usart.o
 .debug_abbrev  0x00002a97      0x122 ./STM32F4xx_StdPeriph_Driver/src/stm32f4xx_wwdg.o
 .debug_abbrev  0x00002bb9      0x17a ./STM32F4-Discovery/stm32f4_discovery.o
 .debug_abbrev  0x00002d33      0x20d ./STM32F4-Discovery/stm32f4_discovery_audio_codec.o
 .debug_abbrev  0x00002f40      0x1c4 ./STM32F4-Discovery/stm32f4_discovery_lis302dl.o
 .debug_abbrev  0x00003104      0x287 ./Menue/CMenue.o
 .debug_abbrev  0x0000338b      0x1d6 ./GraphicLCD/CGraphicLCD.o
 .debug_abbrev  0x00003561      0x24d ./GraphicLCD/CT6963CDriver.o
 .debug_abbrev  0x000037ae      0x25a ./GraphicLCD/CT6963GPIOInterface.o
 .debug_abbrev  0x00003a08       0x96 ./GraphicLCD/SansSerif12.o
 .debug_abbrev  0x00003a9e      0x31e ./FreeRTOS_EC/Source/AManagedTask.o
 .debug_abbrev  0x00003dbc      0x242 ./FreeRTOS_EC/Source/ASyncObject.o
 .debug_abbrev  0x00003ffe       0x51 ./FreeRTOS_EC/Source/ATimer.o
 .debug_abbrev  0x0000404f      0x247 ./FreeRTOS_EC/Source/CBinarySemaphore.o
 .debug_abbrev  0x00004296      0x238 ./FreeRTOS_EC/Source/CCountingSemaphore.o
 .debug_abbrev  0x000044ce      0x104 ./FreeRTOS_EC/Source/CFreeRTOS.o
 .debug_abbrev  0x000045d2      0x376 ./FreeRTOS_EC/Source/CMessageTask.o
 .debug_abbrev  0x00004948      0x231 ./FreeRTOS_EC/Source/CMutex.o
 .debug_abbrev  0x00004b79      0x277 ./FreeRTOS_EC/Source/CQueue.o
 .debug_abbrev  0x00004df0      0x203 ./FreeRTOS_EC/Source/CRecursiveMutex.o
 .debug_abbrev  0x00004ff3      0x334 ./FreeRTOS_EC/Source/CTask.o
 .debug_abbrev  0x00005327      0x14d ./FreeRTOS/Source/portable/GCC/ARM_CM4F/port.o
 .debug_abbrev  0x00005474      0x19b ./FreeRTOS/Source/croutine.o
 .debug_abbrev  0x0000560f       0xb6 ./FreeRTOS/Source/list.o
 .debug_abbrev  0x000056c5      0x13e ./FreeRTOS/Source/queue.o
 .debug_abbrev  0x00005803      0x1a0 ./FreeRTOS/Source/tasks.o
 .debug_abbrev  0x000059a3       0x51 ./FreeRTOS/Source/timers.o
 .debug_abbrev  0x000059f4       0x51 ./Fatfs/FatFs/src/option/syscall.o
 .debug_abbrev  0x00005a45      0x11c ./Fatfs/FatFs/src/diskio.o
 .debug_abbrev  0x00005b61      0x1ea ./Fatfs/FatFs/src/ff.o
 .debug_abbrev  0x00005d4b      0x12b ./Fatfs/CFileHandler.o
 .debug_abbrev  0x00005e76       0x52 ./Fatfs/fattime.o
 .debug_abbrev  0x00005ec8      0x1c4 ./Fatfs/stm32f4_sdio.o
 .debug_abbrev  0x0000608c      0x2af ./CLedHeartBeatSTM32F4Disc.o
 .debug_abbrev  0x0000633b      0x18a ./main.o
 .debug_abbrev  0x000064c5       0x12 ./startup_stm32f4xx.o
 .debug_abbrev  0x000064d7       0x68 ./stm32f4xx_it.o
 .debug_abbrev  0x0000653f      0x238 ./syscalls.o
 .debug_abbrev  0x00006777      0x144 ./system_stm32f4xx.o
 .debug_abbrev  0x000068bb      0x11d ./ustime.o
 .debug_abbrev  0x000069d8       0x9c d:/elektronik/ides/eclipse/yagarto/bin/../lib/gcc/arm-none-eabi/4.6.2/../../../../arm-none-eabi/lib/thumb/v7m\libstdc++.a(atexit_arm.o)
 .debug_abbrev  0x00006a74      0x11d d:/elektronik/ides/eclipse/yagarto/bin/../lib/gcc/arm-none-eabi/4.6.2/../../../../arm-none-eabi/lib/thumb/v7m\libstdc++.a(del_op.o)
 .debug_abbrev  0x00006b91       0x6d d:/elektronik/ides/eclipse/yagarto/bin/../lib/gcc/arm-none-eabi/4.6.2/../../../../arm-none-eabi/lib/thumb/v7m\libstdc++.a(pure.o)
 .debug_abbrev  0x00006bfe      0x219 d:/elektronik/ides/eclipse/yagarto/bin/../lib/gcc/arm-none-eabi/4.6.2/../../../../arm-none-eabi/lib/thumb/v7m\libstdc++.a(eh_terminate.o)
 .debug_abbrev  0x00006e17       0x7c d:/elektronik/ides/eclipse/yagarto/bin/../lib/gcc/arm-none-eabi/4.6.2/../../../../arm-none-eabi/lib/thumb/v7m\libstdc++.a(eh_term_handler.o)
 .debug_abbrev  0x00006e93       0x7c d:/elektronik/ides/eclipse/yagarto/bin/../lib/gcc/arm-none-eabi/4.6.2/../../../../arm-none-eabi/lib/thumb/v7m\libstdc++.a(eh_unex_handler.o)
 .debug_abbrev  0x00006f0f      0x2c0 d:/elektronik/ides/eclipse/yagarto/bin/../lib/gcc/arm-none-eabi/4.6.2/../../../../arm-none-eabi/lib/thumb/v7m\libstdc++.a(vterminate.o)
 .debug_abbrev  0x000071cf      0x1d3 d:/elektronik/ides/eclipse/yagarto/bin/../lib/gcc/arm-none-eabi/4.6.2/../../../../arm-none-eabi/lib/thumb/v7m\libstdc++.a(cp-demangle.o)
 .debug_abbrev  0x000073a2      0x29a d:/elektronik/ides/eclipse/yagarto/bin/../lib/gcc/arm-none-eabi/4.6.2/../../../../arm-none-eabi/lib/thumb/v7m\libstdc++.a(eh_arm.o)
 .debug_abbrev  0x0000763c      0x190 d:/elektronik/ides/eclipse/yagarto/bin/../lib/gcc/arm-none-eabi/4.6.2/../../../../arm-none-eabi/lib/thumb/v7m\libstdc++.a(eh_aux_runtime.o)
 .debug_abbrev  0x000077cc      0x36e d:/elektronik/ides/eclipse/yagarto/bin/../lib/gcc/arm-none-eabi/4.6.2/../../../../arm-none-eabi/lib/thumb/v7m\libstdc++.a(eh_call.o)
 .debug_abbrev  0x00007b3a      0x290 d:/elektronik/ides/eclipse/yagarto/bin/../lib/gcc/arm-none-eabi/4.6.2/../../../../arm-none-eabi/lib/thumb/v7m\libstdc++.a(eh_catch.o)
 .debug_abbrev  0x00007dca      0x226 d:/elektronik/ides/eclipse/yagarto/bin/../lib/gcc/arm-none-eabi/4.6.2/../../../../arm-none-eabi/lib/thumb/v7m\libstdc++.a(eh_exception.o)
 .debug_abbrev  0x00007ff0      0x1b5 d:/elektronik/ides/eclipse/yagarto/bin/../lib/gcc/arm-none-eabi/4.6.2/../../../../arm-none-eabi/lib/thumb/v7m\libstdc++.a(eh_globals.o)
 .debug_abbrev  0x000081a5      0x47b d:/elektronik/ides/eclipse/yagarto/bin/../lib/gcc/arm-none-eabi/4.6.2/../../../../arm-none-eabi/lib/thumb/v7m\libstdc++.a(eh_personality.o)
 .debug_abbrev  0x00008620      0x25f d:/elektronik/ides/eclipse/yagarto/bin/../lib/gcc/arm-none-eabi/4.6.2/../../../../arm-none-eabi/lib/thumb/v7m\libstdc++.a(eh_throw.o)
 .debug_abbrev  0x0000887f      0x1a7 d:/elektronik/ides/eclipse/yagarto/bin/../lib/gcc/arm-none-eabi/4.6.2/../../../../arm-none-eabi/lib/thumb/v7m\libstdc++.a(eh_type.o)
 .debug_abbrev  0x00008a26      0x164 d:/elektronik/ides/eclipse/yagarto/bin/../lib/gcc/arm-none-eabi/4.6.2/../../../../arm-none-eabi/lib/thumb/v7m\libstdc++.a(fundamental_type_info.o)
 .debug_abbrev  0x00008b8a      0x208 d:/elektronik/ides/eclipse/yagarto/bin/../lib/gcc/arm-none-eabi/4.6.2/../../../../arm-none-eabi/lib/thumb/v7m\libstdc++.a(pointer_type_info.o)
 .debug_abbrev  0x00008d92      0x2f8 d:/elektronik/ides/eclipse/yagarto/bin/../lib/gcc/arm-none-eabi/4.6.2/../../../../arm-none-eabi/lib/thumb/v7m\libstdc++.a(si_class_type_info.o)
 .debug_abbrev  0x0000908a      0x299 d:/elektronik/ides/eclipse/yagarto/bin/../lib/gcc/arm-none-eabi/4.6.2/../../../../arm-none-eabi/lib/thumb/v7m\libstdc++.a(tinfo.o)
 .debug_abbrev  0x00009323      0x136 d:/elektronik/ides/eclipse/yagarto/bin/../lib/gcc/arm-none-eabi/4.6.2/../../../../arm-none-eabi/lib/thumb/v7m\libstdc++.a(bad_cast.o)
 .debug_abbrev  0x00009459      0x136 d:/elektronik/ides/eclipse/yagarto/bin/../lib/gcc/arm-none-eabi/4.6.2/../../../../arm-none-eabi/lib/thumb/v7m\libstdc++.a(bad_typeid.o)
 .debug_abbrev  0x0000958f      0x3a2 d:/elektronik/ides/eclipse/yagarto/bin/../lib/gcc/arm-none-eabi/4.6.2/../../../../arm-none-eabi/lib/thumb/v7m\libstdc++.a(class_type_info.o)
 .debug_abbrev  0x00009931      0x44c d:/elektronik/ides/eclipse/yagarto/bin/../lib/gcc/arm-none-eabi/4.6.2/../../../../arm-none-eabi/lib/thumb/v7m\libstdc++.a(eh_alloc.o)
 .debug_abbrev  0x00009d7d      0x280 d:/elektronik/ides/eclipse/yagarto/bin/../lib/gcc/arm-none-eabi/4.6.2/../../../../arm-none-eabi/lib/thumb/v7m\libstdc++.a(pbase_type_info.o)
 .debug_abbrev  0x00009ffd      0x2fc d:/elektronik/ides/eclipse/yagarto/bin/../lib/gcc/arm-none-eabi/4.6.2/thumb/v7m\libgcc.a(unwind-arm.o)
 .debug_abbrev  0x0000a2f9       0x14 d:/elektronik/ides/eclipse/yagarto/bin/../lib/gcc/arm-none-eabi/4.6.2/thumb/v7m\libgcc.a(libunwind.o)
 .debug_abbrev  0x0000a30d      0x226 d:/elektronik/ides/eclipse/yagarto/bin/../lib/gcc/arm-none-eabi/4.6.2/thumb/v7m\libgcc.a(pr-support.o)
 .debug_abbrev  0x0000a533       0x3f d:/elektronik/ides/eclipse/yagarto/bin/../lib/gcc/arm-none-eabi/4.6.2/../../../../arm-none-eabi/lib/thumb/v7m\libg.a(lib_a-abort.o)
 .debug_abbrev  0x0000a572      0x17d d:/elektronik/ides/eclipse/yagarto/bin/../lib/gcc/arm-none-eabi/4.6.2/../../../../arm-none-eabi/lib/thumb/v7m\libg.a(lib_a-assert.o)
 .debug_abbrev  0x0000a6ef       0x78 d:/elektronik/ides/eclipse/yagarto/bin/../lib/gcc/arm-none-eabi/4.6.2/../../../../arm-none-eabi/lib/thumb/v7m\libg.a(lib_a-atexit.o)
 .debug_abbrev  0x0000a767       0x8a d:/elektronik/ides/eclipse/yagarto/bin/../lib/gcc/arm-none-eabi/4.6.2/../../../../arm-none-eabi/lib/thumb/v7m\libg.a(lib_a-cxa_atexit.o)
 .debug_abbrev  0x0000a7f1      0x17d d:/elektronik/ides/eclipse/yagarto/bin/../lib/gcc/arm-none-eabi/4.6.2/../../../../arm-none-eabi/lib/thumb/v7m\libg.a(lib_a-exit.o)
 .debug_abbrev  0x0000a96e       0x9b d:/elektronik/ides/eclipse/yagarto/bin/../lib/gcc/arm-none-eabi/4.6.2/../../../../arm-none-eabi/lib/thumb/v7m\libg.a(lib_a-fini.o)
 .debug_abbrev  0x0000aa09      0x1c8 d:/elektronik/ides/eclipse/yagarto/bin/../lib/gcc/arm-none-eabi/4.6.2/../../../../arm-none-eabi/lib/thumb/v7m\libg.a(lib_a-fiprintf.o)
 .debug_abbrev  0x0000abd1      0x1b4 d:/elektronik/ides/eclipse/yagarto/bin/../lib/gcc/arm-none-eabi/4.6.2/../../../../arm-none-eabi/lib/thumb/v7m\libg.a(lib_a-fputc.o)
 .debug_abbrev  0x0000ad85      0x1bb d:/elektronik/ides/eclipse/yagarto/bin/../lib/gcc/arm-none-eabi/4.6.2/../../../../arm-none-eabi/lib/thumb/v7m\libg.a(lib_a-fputs.o)
 .debug_abbrev  0x0000af40      0x1a7 d:/elektronik/ides/eclipse/yagarto/bin/../lib/gcc/arm-none-eabi/4.6.2/../../../../arm-none-eabi/lib/thumb/v7m\libg.a(lib_a-fvwrite.o)
 .debug_abbrev  0x0000b0e7      0x1ca d:/elektronik/ides/eclipse/yagarto/bin/../lib/gcc/arm-none-eabi/4.6.2/../../../../arm-none-eabi/lib/thumb/v7m\libg.a(lib_a-fwrite.o)
 .debug_abbrev  0x0000b2b1      0x166 d:/elektronik/ides/eclipse/yagarto/bin/../lib/gcc/arm-none-eabi/4.6.2/../../../../arm-none-eabi/lib/thumb/v7m\libg.a(lib_a-impure.o)
 .debug_abbrev  0x0000b417       0x9b d:/elektronik/ides/eclipse/yagarto/bin/../lib/gcc/arm-none-eabi/4.6.2/../../../../arm-none-eabi/lib/thumb/v7m\libg.a(lib_a-init.o)
 .debug_abbrev  0x0000b4b2      0x196 d:/elektronik/ides/eclipse/yagarto/bin/../lib/gcc/arm-none-eabi/4.6.2/../../../../arm-none-eabi/lib/thumb/v7m\libg.a(lib_a-malloc.o)
 .debug_abbrev  0x0000b648      0x233 d:/elektronik/ides/eclipse/yagarto/bin/../lib/gcc/arm-none-eabi/4.6.2/../../../../arm-none-eabi/lib/thumb/v7m\libg.a(lib_a-mallocr.o)
 .debug_abbrev  0x0000b87b       0xc4 d:/elektronik/ides/eclipse/yagarto/bin/../lib/gcc/arm-none-eabi/4.6.2/../../../../arm-none-eabi/lib/thumb/v7m\libg.a(lib_a-memchr.o)
 .debug_abbrev  0x0000b93f       0x7c d:/elektronik/ides/eclipse/yagarto/bin/../lib/gcc/arm-none-eabi/4.6.2/../../../../arm-none-eabi/lib/thumb/v7m\libg.a(lib_a-memcmp.o)
 .debug_abbrev  0x0000b9bb       0x99 d:/elektronik/ides/eclipse/yagarto/bin/../lib/gcc/arm-none-eabi/4.6.2/../../../../arm-none-eabi/lib/thumb/v7m\libg.a(lib_a-memcpy.o)
 .debug_abbrev  0x0000ba54       0xa8 d:/elektronik/ides/eclipse/yagarto/bin/../lib/gcc/arm-none-eabi/4.6.2/../../../../arm-none-eabi/lib/thumb/v7m\libg.a(lib_a-memmove.o)
 .debug_abbrev  0x0000bafc       0x8d d:/elektronik/ides/eclipse/yagarto/bin/../lib/gcc/arm-none-eabi/4.6.2/../../../../arm-none-eabi/lib/thumb/v7m\libg.a(lib_a-memset.o)
 .debug_abbrev  0x0000bb89      0x1a7 d:/elektronik/ides/eclipse/yagarto/bin/../lib/gcc/arm-none-eabi/4.6.2/../../../../arm-none-eabi/lib/thumb/v7m\libg.a(lib_a-putc.o)
 .debug_abbrev  0x0000bd30      0x18e d:/elektronik/ides/eclipse/yagarto/bin/../lib/gcc/arm-none-eabi/4.6.2/../../../../arm-none-eabi/lib/thumb/v7m\libg.a(lib_a-realloc.o)
 .debug_abbrev  0x0000bebe      0x1db d:/elektronik/ides/eclipse/yagarto/bin/../lib/gcc/arm-none-eabi/4.6.2/../../../../arm-none-eabi/lib/thumb/v7m\libg.a(lib_a-reallocr.o)
 .debug_abbrev  0x0000c099      0x23a d:/elektronik/ides/eclipse/yagarto/bin/../lib/gcc/arm-none-eabi/4.6.2/../../../../arm-none-eabi/lib/thumb/v7m\libg.a(lib_a-signal.o)
 .debug_abbrev  0x0000c2d3      0x1c8 d:/elektronik/ides/eclipse/yagarto/bin/../lib/gcc/arm-none-eabi/4.6.2/../../../../arm-none-eabi/lib/thumb/v7m\libg.a(lib_a-sprintf.o)
 .debug_abbrev  0x0000c49b       0x87 d:/elektronik/ides/eclipse/yagarto/bin/../lib/gcc/arm-none-eabi/4.6.2/../../../../arm-none-eabi/lib/thumb/v7m\libg.a(lib_a-strcat.o)
 .debug_abbrev  0x0000c522       0x86 d:/elektronik/ides/eclipse/yagarto/bin/../lib/gcc/arm-none-eabi/4.6.2/../../../../arm-none-eabi/lib/thumb/v7m\libg.a(lib_a-strcmp.o)
 .debug_abbrev  0x0000c5a8       0x6f d:/elektronik/ides/eclipse/yagarto/bin/../lib/gcc/arm-none-eabi/4.6.2/../../../../arm-none-eabi/lib/thumb/v7m\libg.a(lib_a-strcpy.o)
 .debug_abbrev  0x0000c617       0x6d d:/elektronik/ides/eclipse/yagarto/bin/../lib/gcc/arm-none-eabi/4.6.2/../../../../arm-none-eabi/lib/thumb/v7m\libg.a(lib_a-strlen.o)
 .debug_abbrev  0x0000c684       0x7e d:/elektronik/ides/eclipse/yagarto/bin/../lib/gcc/arm-none-eabi/4.6.2/../../../../arm-none-eabi/lib/thumb/v7m\libg.a(lib_a-strncmp.o)
 .debug_abbrev  0x0000c702       0x9c d:/elektronik/ides/eclipse/yagarto/bin/../lib/gcc/arm-none-eabi/4.6.2/../../../../arm-none-eabi/lib/thumb/v7m\libg.a(lib_a-strncpy.o)
 .debug_abbrev  0x0000c79e      0x2ea d:/elektronik/ides/eclipse/yagarto/bin/../lib/gcc/arm-none-eabi/4.6.2/../../../../arm-none-eabi/lib/thumb/v7m\libg.a(lib_a-svfprintf.o)
 .debug_abbrev  0x0000ca88      0x184 d:/elektronik/ides/eclipse/yagarto/bin/../lib/gcc/arm-none-eabi/4.6.2/../../../../arm-none-eabi/lib/thumb/v7m\libg.a(lib_a-syswrite.o)
 .debug_abbrev  0x0000cc0c      0x31c d:/elektronik/ides/eclipse/yagarto/bin/../lib/gcc/arm-none-eabi/4.6.2/../../../../arm-none-eabi/lib/thumb/v7m\libg.a(lib_a-vfiprintf.o)
 .debug_abbrev  0x0000cf28      0x1a7 d:/elektronik/ides/eclipse/yagarto/bin/../lib/gcc/arm-none-eabi/4.6.2/../../../../arm-none-eabi/lib/thumb/v7m\libg.a(lib_a-wbuf.o)
 .debug_abbrev  0x0000d0cf      0x17f d:/elektronik/ides/eclipse/yagarto/bin/../lib/gcc/arm-none-eabi/4.6.2/../../../../arm-none-eabi/lib/thumb/v7m\libg.a(lib_a-wsetup.o)
 .debug_abbrev  0x0000d24e      0x1d3 d:/elektronik/ides/eclipse/yagarto/bin/../lib/gcc/arm-none-eabi/4.6.2/../../../../arm-none-eabi/lib/thumb/v7m\libg.a(lib_a-__atexit.o)
 .debug_abbrev  0x0000d421      0x1bc d:/elektronik/ides/eclipse/yagarto/bin/../lib/gcc/arm-none-eabi/4.6.2/../../../../arm-none-eabi/lib/thumb/v7m\libg.a(lib_a-__call_atexit.o)
 .debug_abbrev  0x0000d5dd      0x22b d:/elektronik/ides/eclipse/yagarto/bin/../lib/gcc/arm-none-eabi/4.6.2/../../../../arm-none-eabi/lib/thumb/v7m\libg.a(lib_a-dtoa.o)
 .debug_abbrev  0x0000d808      0x1fe d:/elektronik/ides/eclipse/yagarto/bin/../lib/gcc/arm-none-eabi/4.6.2/../../../../arm-none-eabi/lib/thumb/v7m\libg.a(lib_a-fflush.o)
 .debug_abbrev  0x0000da06      0x289 d:/elektronik/ides/eclipse/yagarto/bin/../lib/gcc/arm-none-eabi/4.6.2/../../../../arm-none-eabi/lib/thumb/v7m\libg.a(lib_a-findfp.o)
 .debug_abbrev  0x0000dc8f      0x1f5 d:/elektronik/ides/eclipse/yagarto/bin/../lib/gcc/arm-none-eabi/4.6.2/../../../../arm-none-eabi/lib/thumb/v7m\libg.a(lib_a-fputwc.o)
 .debug_abbrev  0x0000de84      0x1ea d:/elektronik/ides/eclipse/yagarto/bin/../lib/gcc/arm-none-eabi/4.6.2/../../../../arm-none-eabi/lib/thumb/v7m\libg.a(lib_a-freer.o)
 .debug_abbrev  0x0000e06e      0x210 d:/elektronik/ides/eclipse/yagarto/bin/../lib/gcc/arm-none-eabi/4.6.2/../../../../arm-none-eabi/lib/thumb/v7m\libg.a(lib_a-fwalk.o)
 .debug_abbrev  0x0000e27e      0x25e d:/elektronik/ides/eclipse/yagarto/bin/../lib/gcc/arm-none-eabi/4.6.2/../../../../arm-none-eabi/lib/thumb/v7m\libg.a(lib_a-locale.o)
 .debug_abbrev  0x0000e4dc      0x199 d:/elektronik/ides/eclipse/yagarto/bin/../lib/gcc/arm-none-eabi/4.6.2/../../../../arm-none-eabi/lib/thumb/v7m\libg.a(lib_a-makebuf.o)
 .debug_abbrev  0x0000e675      0x30e d:/elektronik/ides/eclipse/yagarto/bin/../lib/gcc/arm-none-eabi/4.6.2/../../../../arm-none-eabi/lib/thumb/v7m\libg.a(lib_a-mprec.o)
 .debug_abbrev  0x0000e983       0xc5 d:/elektronik/ides/eclipse/yagarto/bin/../lib/gcc/arm-none-eabi/4.6.2/../../../../arm-none-eabi/lib/thumb/v7m\libg.a(lib_a-s_fpclassify.o)
 .debug_abbrev  0x0000ea48      0x1f6 d:/elektronik/ides/eclipse/yagarto/bin/../lib/gcc/arm-none-eabi/4.6.2/../../../../arm-none-eabi/lib/thumb/v7m\libg.a(lib_a-stdio.o)
 .debug_abbrev  0x0000ec3e      0x262 d:/elektronik/ides/eclipse/yagarto/bin/../lib/gcc/arm-none-eabi/4.6.2/../../../../arm-none-eabi/lib/thumb/v7m\libg.a(lib_a-svfiprintf.o)
 .debug_abbrev  0x0000eea0      0x1ae d:/elektronik/ides/eclipse/yagarto/bin/../lib/gcc/arm-none-eabi/4.6.2/../../../../arm-none-eabi/lib/thumb/v7m\libg.a(lib_a-wcrtomb.o)
 .debug_abbrev  0x0000f04e      0x1e5 d:/elektronik/ides/eclipse/yagarto/bin/../lib/gcc/arm-none-eabi/4.6.2/../../../../arm-none-eabi/lib/thumb/v7m\libg.a(lib_a-wctomb_r.o)
 .debug_abbrev  0x0000f233      0x1ba d:/elektronik/ides/eclipse/yagarto/bin/../lib/gcc/arm-none-eabi/4.6.2/../../../../arm-none-eabi/lib/thumb/v7m\libg.a(lib_a-callocr.o)
 .debug_abbrev  0x0000f3ed      0x1b6 d:/elektronik/ides/eclipse/yagarto/bin/../lib/gcc/arm-none-eabi/4.6.2/../../../../arm-none-eabi/lib/thumb/v7m\libg.a(lib_a-fclose.o)
 .debug_abbrev  0x0000f5a3       0x14 d:/elektronik/ides/eclipse/yagarto/bin/../lib/gcc/arm-none-eabi/4.6.2/thumb/v7m\libgcc.a(_udivsi3.o)
 .debug_abbrev  0x0000f5b7       0x14 d:/elektronik/ides/eclipse/yagarto/bin/../lib/gcc/arm-none-eabi/4.6.2/thumb/v7m\libgcc.a(_dvmd_tls.o)
 .debug_abbrev  0x0000f5cb       0x14 d:/elektronik/ides/eclipse/yagarto/bin/../lib/gcc/arm-none-eabi/4.6.2/thumb/v7m\libgcc.a(_arm_addsubdf3.o)
 .debug_abbrev  0x0000f5df       0x14 d:/elektronik/ides/eclipse/yagarto/bin/../lib/gcc/arm-none-eabi/4.6.2/thumb/v7m\libgcc.a(_arm_muldivdf3.o)
 .debug_abbrev  0x0000f5f3       0x14 d:/elektronik/ides/eclipse/yagarto/bin/../lib/gcc/arm-none-eabi/4.6.2/thumb/v7m\libgcc.a(_arm_cmpdf2.o)
 .debug_abbrev  0x0000f607       0x14 d:/elektronik/ides/eclipse/yagarto/bin/../lib/gcc/arm-none-eabi/4.6.2/thumb/v7m\libgcc.a(_arm_fixdfsi.o)
 .debug_abbrev  0x0000f61b       0x12 d:/elektronik/ides/eclipse/yagarto/bin/../lib/gcc/arm-none-eabi/4.6.2/thumb/v7m/crtn.o

.debug_aranges  0x00000000     0x32e0
 .debug_aranges
                0x00000000       0x28 d:/elektronik/ides/eclipse/yagarto/bin/../lib/gcc/arm-none-eabi/4.6.2/thumb/v7m/crti.o
 .debug_aranges
                0x00000028       0x20 d:/elektronik/ides/eclipse/yagarto/bin/../lib/gcc/arm-none-eabi/4.6.2/../../../../arm-none-eabi/lib/thumb/v7m/crt0.o
 .debug_aranges
                0x00000048       0x40 ./STM32F4xx_StdPeriph_Driver/src/misc.o
 .debug_aranges
                0x00000088      0x148 ./STM32F4xx_StdPeriph_Driver/src/stm32f4xx_adc.o
 .debug_aranges
                0x000001d0       0xe0 ./STM32F4xx_StdPeriph_Driver/src/stm32f4xx_can.o
 .debug_aranges
                0x000002b0       0x48 ./STM32F4xx_StdPeriph_Driver/src/stm32f4xx_crc.o
 .debug_aranges
                0x000002f8       0xa0 ./STM32F4xx_StdPeriph_Driver/src/stm32f4xx_cryp.o
 .debug_aranges
                0x00000398       0x30 ./STM32F4xx_StdPeriph_Driver/src/stm32f4xx_cryp_aes.o
 .debug_aranges
                0x000003c8       0x28 ./STM32F4xx_StdPeriph_Driver/src/stm32f4xx_cryp_des.o
 .debug_aranges
                0x000003f0       0x28 ./STM32F4xx_StdPeriph_Driver/src/stm32f4xx_cryp_tdes.o
 .debug_aranges
                0x00000418       0xa0 ./STM32F4xx_StdPeriph_Driver/src/stm32f4xx_dac.o
 .debug_aranges
                0x000004b8       0x40 ./STM32F4xx_StdPeriph_Driver/src/stm32f4xx_dbgmcu.o
 .debug_aranges
                0x000004f8       0x90 ./STM32F4xx_StdPeriph_Driver/src/stm32f4xx_dcmi.o
 .debug_aranges
                0x00000588       0xb0 ./STM32F4xx_StdPeriph_Driver/src/stm32f4xx_dma.o
 .debug_aranges
                0x00000638       0x58 ./STM32F4xx_StdPeriph_Driver/src/stm32f4xx_exti.o
 .debug_aranges
                0x00000690      0x108 ./STM32F4xx_StdPeriph_Driver/src/stm32f4xx_flash.o
 .debug_aranges
                0x00000798       0xb0 ./STM32F4xx_StdPeriph_Driver/src/stm32f4xx_fsmc.o
 .debug_aranges
                0x00000848       0x88 ./STM32F4xx_StdPeriph_Driver/src/stm32f4xx_gpio.o
 .debug_aranges
                0x000008d0       0xa0 ./STM32F4xx_StdPeriph_Driver/src/stm32f4xx_hash.o
 .debug_aranges
                0x00000970       0x28 ./STM32F4xx_StdPeriph_Driver/src/stm32f4xx_hash_md5.o
 .debug_aranges
                0x00000998       0x28 ./STM32F4xx_StdPeriph_Driver/src/stm32f4xx_hash_sha1.o
 .debug_aranges
                0x000009c0      0x120 ./STM32F4xx_StdPeriph_Driver/src/stm32f4xx_i2c.o
 .debug_aranges
                0x00000ae0       0x48 ./STM32F4xx_StdPeriph_Driver/src/stm32f4xx_iwdg.o
 .debug_aranges
                0x00000b28       0x78 ./STM32F4xx_StdPeriph_Driver/src/stm32f4xx_pwr.o
 .debug_aranges
                0x00000ba0      0x178 ./STM32F4xx_StdPeriph_Driver/src/stm32f4xx_rcc.o
 .debug_aranges
                0x00000d18       0x58 ./STM32F4xx_StdPeriph_Driver/src/stm32f4xx_rng.o
 .debug_aranges
                0x00000d70      0x1e0 ./STM32F4xx_StdPeriph_Driver/src/stm32f4xx_rtc.o
 .debug_aranges
                0x00000f50      0x108 ./STM32F4xx_StdPeriph_Driver/src/stm32f4xx_sdio.o
 .debug_aranges
                0x00001058       0xe0 ./STM32F4xx_StdPeriph_Driver/src/stm32f4xx_spi.o
 .debug_aranges
                0x00001138       0x48 ./STM32F4xx_StdPeriph_Driver/src/stm32f4xx_syscfg.o
 .debug_aranges
                0x00001180      0x2f8 ./STM32F4xx_StdPeriph_Driver/src/stm32f4xx_tim.o
 .debug_aranges
                0x00001478      0x100 ./STM32F4xx_StdPeriph_Driver/src/stm32f4xx_usart.o
 .debug_aranges
                0x00001578       0x58 ./STM32F4xx_StdPeriph_Driver/src/stm32f4xx_wwdg.o
 .debug_aranges
                0x000015d0       0x48 ./STM32F4-Discovery/stm32f4_discovery.o
 .debug_aranges
                0x00001618      0x130 ./STM32F4-Discovery/stm32f4_discovery_audio_codec.o
 .debug_aranges
                0x00001748       0x78 ./STM32F4-Discovery/stm32f4_discovery_lis302dl.o
 .debug_aranges
                0x000017c0       0x58 ./Menue/CMenue.o
 .debug_aranges
                0x00001818       0x48 ./GraphicLCD/CGraphicLCD.o
 .debug_aranges
                0x00001860       0xa8 ./GraphicLCD/CT6963CDriver.o
 .debug_aranges
                0x00001908       0x60 ./GraphicLCD/CT6963GPIOInterface.o
 .debug_aranges
                0x00001968       0x98 ./FreeRTOS_EC/Source/AManagedTask.o
 .debug_aranges
                0x00001a00       0x58 ./FreeRTOS_EC/Source/ASyncObject.o
 .debug_aranges
                0x00001a58       0x60 ./FreeRTOS_EC/Source/CBinarySemaphore.o
 .debug_aranges
                0x00001ab8       0x60 ./FreeRTOS_EC/Source/CCountingSemaphore.o
 .debug_aranges
                0x00001b18       0x30 ./FreeRTOS_EC/Source/CFreeRTOS.o
 .debug_aranges
                0x00001b48       0xb8 ./FreeRTOS_EC/Source/CMessageTask.o
 .debug_aranges
                0x00001c00       0x60 ./FreeRTOS_EC/Source/CMutex.o
 .debug_aranges
                0x00001c60       0x68 ./FreeRTOS_EC/Source/CQueue.o
 .debug_aranges
                0x00001cc8       0x60 ./FreeRTOS_EC/Source/CRecursiveMutex.o
 .debug_aranges
                0x00001d28       0x70 ./FreeRTOS_EC/Source/CTask.o
 .debug_aranges
                0x00001d98       0x70 ./FreeRTOS/Source/portable/GCC/ARM_CM4F/port.o
 .debug_aranges
                0x00001e08       0x50 ./FreeRTOS/Source/croutine.o
 .debug_aranges
                0x00001e58       0x40 ./FreeRTOS/Source/list.o
 .debug_aranges
                0x00001e98       0x98 ./FreeRTOS/Source/queue.o
 .debug_aranges
                0x00001f30      0x168 ./FreeRTOS/Source/tasks.o
 .debug_aranges
                0x00002098       0x40 ./Fatfs/FatFs/src/diskio.o
 .debug_aranges
                0x000020d8      0x170 ./Fatfs/FatFs/src/ff.o
 .debug_aranges
                0x00002248       0x30 ./Fatfs/CFileHandler.o
 .debug_aranges
                0x00002278       0x20 ./Fatfs/fattime.o
 .debug_aranges
                0x00002298      0x150 ./Fatfs/stm32f4_sdio.o
 .debug_aranges
                0x000023e8       0x58 ./CLedHeartBeatSTM32F4Disc.o
 .debug_aranges
                0x00002440       0x88 ./main.o
 .debug_aranges
                0x000024c8       0x28 ./startup_stm32f4xx.o
 .debug_aranges
                0x000024f0       0x58 ./stm32f4xx_it.o
 .debug_aranges
                0x00002548       0x78 ./syscalls.o
 .debug_aranges
                0x000025c0       0x30 ./system_stm32f4xx.o
 .debug_aranges
                0x000025f0       0x38 ./ustime.o
 .debug_aranges
                0x00002628       0x20 d:/elektronik/ides/eclipse/yagarto/bin/../lib/gcc/arm-none-eabi/4.6.2/../../../../arm-none-eabi/lib/thumb/v7m\libstdc++.a(atexit_arm.o)
 .debug_aranges
                0x00002648       0x20 d:/elektronik/ides/eclipse/yagarto/bin/../lib/gcc/arm-none-eabi/4.6.2/../../../../arm-none-eabi/lib/thumb/v7m\libstdc++.a(del_op.o)
 .debug_aranges
                0x00002668       0x20 d:/elektronik/ides/eclipse/yagarto/bin/../lib/gcc/arm-none-eabi/4.6.2/../../../../arm-none-eabi/lib/thumb/v7m\libstdc++.a(pure.o)
 .debug_aranges
                0x00002688       0x48 d:/elektronik/ides/eclipse/yagarto/bin/../lib/gcc/arm-none-eabi/4.6.2/../../../../arm-none-eabi/lib/thumb/v7m\libstdc++.a(eh_terminate.o)
 .debug_aranges
                0x000026d0       0x20 d:/elektronik/ides/eclipse/yagarto/bin/../lib/gcc/arm-none-eabi/4.6.2/../../../../arm-none-eabi/lib/thumb/v7m\libstdc++.a(vterminate.o)
 .debug_aranges
                0x000026f0       0x20 d:/elektronik/ides/eclipse/yagarto/bin/../lib/gcc/arm-none-eabi/4.6.2/../../../../arm-none-eabi/lib/thumb/v7m\libstdc++.a(cp-demangle.o)
 .debug_aranges
                0x00002710       0x30 d:/elektronik/ides/eclipse/yagarto/bin/../lib/gcc/arm-none-eabi/4.6.2/../../../../arm-none-eabi/lib/thumb/v7m\libstdc++.a(eh_arm.o)
 .debug_aranges
                0x00002740       0x28 d:/elektronik/ides/eclipse/yagarto/bin/../lib/gcc/arm-none-eabi/4.6.2/../../../../arm-none-eabi/lib/thumb/v7m\libstdc++.a(eh_aux_runtime.o)
 .debug_aranges
                0x00002768       0x28 d:/elektronik/ides/eclipse/yagarto/bin/../lib/gcc/arm-none-eabi/4.6.2/../../../../arm-none-eabi/lib/thumb/v7m\libstdc++.a(eh_call.o)
 .debug_aranges
                0x00002790       0x38 d:/elektronik/ides/eclipse/yagarto/bin/../lib/gcc/arm-none-eabi/4.6.2/../../../../arm-none-eabi/lib/thumb/v7m\libstdc++.a(eh_catch.o)
 .debug_aranges
                0x000027c8       0x68 d:/elektronik/ides/eclipse/yagarto/bin/../lib/gcc/arm-none-eabi/4.6.2/../../../../arm-none-eabi/lib/thumb/v7m\libstdc++.a(eh_exception.o)
 .debug_aranges
                0x00002830       0x28 d:/elektronik/ides/eclipse/yagarto/bin/../lib/gcc/arm-none-eabi/4.6.2/../../../../arm-none-eabi/lib/thumb/v7m\libstdc++.a(eh_globals.o)
 .debug_aranges
                0x00002858       0x40 d:/elektronik/ides/eclipse/yagarto/bin/../lib/gcc/arm-none-eabi/4.6.2/../../../../arm-none-eabi/lib/thumb/v7m\libstdc++.a(eh_personality.o)
 .debug_aranges
                0x00002898       0x30 d:/elektronik/ides/eclipse/yagarto/bin/../lib/gcc/arm-none-eabi/4.6.2/../../../../arm-none-eabi/lib/thumb/v7m\libstdc++.a(eh_throw.o)
 .debug_aranges
                0x000028c8       0x20 d:/elektronik/ides/eclipse/yagarto/bin/../lib/gcc/arm-none-eabi/4.6.2/../../../../arm-none-eabi/lib/thumb/v7m\libstdc++.a(eh_type.o)
 .debug_aranges
                0x000028e8       0x28 d:/elektronik/ides/eclipse/yagarto/bin/../lib/gcc/arm-none-eabi/4.6.2/../../../../arm-none-eabi/lib/thumb/v7m\libstdc++.a(fundamental_type_info.o)
 .debug_aranges
                0x00002910       0x38 d:/elektronik/ides/eclipse/yagarto/bin/../lib/gcc/arm-none-eabi/4.6.2/../../../../arm-none-eabi/lib/thumb/v7m\libstdc++.a(pointer_type_info.o)
 .debug_aranges
                0x00002948       0x40 d:/elektronik/ides/eclipse/yagarto/bin/../lib/gcc/arm-none-eabi/4.6.2/../../../../arm-none-eabi/lib/thumb/v7m\libstdc++.a(si_class_type_info.o)
 .debug_aranges
                0x00002988       0x50 d:/elektronik/ides/eclipse/yagarto/bin/../lib/gcc/arm-none-eabi/4.6.2/../../../../arm-none-eabi/lib/thumb/v7m\libstdc++.a(tinfo.o)
 .debug_aranges
                0x000029d8       0x30 d:/elektronik/ides/eclipse/yagarto/bin/../lib/gcc/arm-none-eabi/4.6.2/../../../../arm-none-eabi/lib/thumb/v7m\libstdc++.a(bad_cast.o)
 .debug_aranges
                0x00002a08       0x30 d:/elektronik/ides/eclipse/yagarto/bin/../lib/gcc/arm-none-eabi/4.6.2/../../../../arm-none-eabi/lib/thumb/v7m\libstdc++.a(bad_typeid.o)
 .debug_aranges
                0x00002a38       0x50 d:/elektronik/ides/eclipse/yagarto/bin/../lib/gcc/arm-none-eabi/4.6.2/../../../../arm-none-eabi/lib/thumb/v7m\libstdc++.a(class_type_info.o)
 .debug_aranges
                0x00002a88       0x38 d:/elektronik/ides/eclipse/yagarto/bin/../lib/gcc/arm-none-eabi/4.6.2/../../../../arm-none-eabi/lib/thumb/v7m\libstdc++.a(eh_alloc.o)
 .debug_aranges
                0x00002ac0       0x38 d:/elektronik/ides/eclipse/yagarto/bin/../lib/gcc/arm-none-eabi/4.6.2/../../../../arm-none-eabi/lib/thumb/v7m\libstdc++.a(pbase_type_info.o)
 .debug_aranges
                0x00002af8       0x20 d:/elektronik/ides/eclipse/yagarto/bin/../lib/gcc/arm-none-eabi/4.6.2/thumb/v7m\libgcc.a(unwind-arm.o)
 .debug_aranges
                0x00002b18       0x20 d:/elektronik/ides/eclipse/yagarto/bin/../lib/gcc/arm-none-eabi/4.6.2/thumb/v7m\libgcc.a(libunwind.o)
 .debug_aranges
                0x00002b38       0x20 d:/elektronik/ides/eclipse/yagarto/bin/../lib/gcc/arm-none-eabi/4.6.2/thumb/v7m\libgcc.a(pr-support.o)
 .debug_aranges
                0x00002b58       0x20 d:/elektronik/ides/eclipse/yagarto/bin/../lib/gcc/arm-none-eabi/4.6.2/../../../../arm-none-eabi/lib/thumb/v7m\libg.a(lib_a-abort.o)
 .debug_aranges
                0x00002b78       0x20 d:/elektronik/ides/eclipse/yagarto/bin/../lib/gcc/arm-none-eabi/4.6.2/../../../../arm-none-eabi/lib/thumb/v7m\libg.a(lib_a-assert.o)
 .debug_aranges
                0x00002b98       0x20 d:/elektronik/ides/eclipse/yagarto/bin/../lib/gcc/arm-none-eabi/4.6.2/../../../../arm-none-eabi/lib/thumb/v7m\libg.a(lib_a-atexit.o)
 .debug_aranges
                0x00002bb8       0x20 d:/elektronik/ides/eclipse/yagarto/bin/../lib/gcc/arm-none-eabi/4.6.2/../../../../arm-none-eabi/lib/thumb/v7m\libg.a(lib_a-cxa_atexit.o)
 .debug_aranges
                0x00002bd8       0x20 d:/elektronik/ides/eclipse/yagarto/bin/../lib/gcc/arm-none-eabi/4.6.2/../../../../arm-none-eabi/lib/thumb/v7m\libg.a(lib_a-exit.o)
 .debug_aranges
                0x00002bf8       0x20 d:/elektronik/ides/eclipse/yagarto/bin/../lib/gcc/arm-none-eabi/4.6.2/../../../../arm-none-eabi/lib/thumb/v7m\libg.a(lib_a-fini.o)
 .debug_aranges
                0x00002c18       0x20 d:/elektronik/ides/eclipse/yagarto/bin/../lib/gcc/arm-none-eabi/4.6.2/../../../../arm-none-eabi/lib/thumb/v7m\libg.a(lib_a-fiprintf.o)
 .debug_aranges
                0x00002c38       0x20 d:/elektronik/ides/eclipse/yagarto/bin/../lib/gcc/arm-none-eabi/4.6.2/../../../../arm-none-eabi/lib/thumb/v7m\libg.a(lib_a-fputc.o)
 .debug_aranges
                0x00002c58       0x20 d:/elektronik/ides/eclipse/yagarto/bin/../lib/gcc/arm-none-eabi/4.6.2/../../../../arm-none-eabi/lib/thumb/v7m\libg.a(lib_a-fputs.o)
 .debug_aranges
                0x00002c78       0x20 d:/elektronik/ides/eclipse/yagarto/bin/../lib/gcc/arm-none-eabi/4.6.2/../../../../arm-none-eabi/lib/thumb/v7m\libg.a(lib_a-fvwrite.o)
 .debug_aranges
                0x00002c98       0x20 d:/elektronik/ides/eclipse/yagarto/bin/../lib/gcc/arm-none-eabi/4.6.2/../../../../arm-none-eabi/lib/thumb/v7m\libg.a(lib_a-fwrite.o)
 .debug_aranges
                0x00002cb8       0x20 d:/elektronik/ides/eclipse/yagarto/bin/../lib/gcc/arm-none-eabi/4.6.2/../../../../arm-none-eabi/lib/thumb/v7m\libg.a(lib_a-init.o)
 .debug_aranges
                0x00002cd8       0x20 d:/elektronik/ides/eclipse/yagarto/bin/../lib/gcc/arm-none-eabi/4.6.2/../../../../arm-none-eabi/lib/thumb/v7m\libg.a(lib_a-malloc.o)
 .debug_aranges
                0x00002cf8       0x20 d:/elektronik/ides/eclipse/yagarto/bin/../lib/gcc/arm-none-eabi/4.6.2/../../../../arm-none-eabi/lib/thumb/v7m\libg.a(lib_a-mallocr.o)
 .debug_aranges
                0x00002d18       0x20 d:/elektronik/ides/eclipse/yagarto/bin/../lib/gcc/arm-none-eabi/4.6.2/../../../../arm-none-eabi/lib/thumb/v7m\libg.a(lib_a-memchr.o)
 .debug_aranges
                0x00002d38       0x20 d:/elektronik/ides/eclipse/yagarto/bin/../lib/gcc/arm-none-eabi/4.6.2/../../../../arm-none-eabi/lib/thumb/v7m\libg.a(lib_a-memcmp.o)
 .debug_aranges
                0x00002d58       0x20 d:/elektronik/ides/eclipse/yagarto/bin/../lib/gcc/arm-none-eabi/4.6.2/../../../../arm-none-eabi/lib/thumb/v7m\libg.a(lib_a-memcpy.o)
 .debug_aranges
                0x00002d78       0x20 d:/elektronik/ides/eclipse/yagarto/bin/../lib/gcc/arm-none-eabi/4.6.2/../../../../arm-none-eabi/lib/thumb/v7m\libg.a(lib_a-memmove.o)
 .debug_aranges
                0x00002d98       0x20 d:/elektronik/ides/eclipse/yagarto/bin/../lib/gcc/arm-none-eabi/4.6.2/../../../../arm-none-eabi/lib/thumb/v7m\libg.a(lib_a-memset.o)
 .debug_aranges
                0x00002db8       0x20 d:/elektronik/ides/eclipse/yagarto/bin/../lib/gcc/arm-none-eabi/4.6.2/../../../../arm-none-eabi/lib/thumb/v7m\libg.a(lib_a-putc.o)
 .debug_aranges
                0x00002dd8       0x20 d:/elektronik/ides/eclipse/yagarto/bin/../lib/gcc/arm-none-eabi/4.6.2/../../../../arm-none-eabi/lib/thumb/v7m\libg.a(lib_a-realloc.o)
 .debug_aranges
                0x00002df8       0x20 d:/elektronik/ides/eclipse/yagarto/bin/../lib/gcc/arm-none-eabi/4.6.2/../../../../arm-none-eabi/lib/thumb/v7m\libg.a(lib_a-reallocr.o)
 .debug_aranges
                0x00002e18       0x20 d:/elektronik/ides/eclipse/yagarto/bin/../lib/gcc/arm-none-eabi/4.6.2/../../../../arm-none-eabi/lib/thumb/v7m\libg.a(lib_a-signal.o)
 .debug_aranges
                0x00002e38       0x20 d:/elektronik/ides/eclipse/yagarto/bin/../lib/gcc/arm-none-eabi/4.6.2/../../../../arm-none-eabi/lib/thumb/v7m\libg.a(lib_a-sprintf.o)
 .debug_aranges
                0x00002e58       0x20 d:/elektronik/ides/eclipse/yagarto/bin/../lib/gcc/arm-none-eabi/4.6.2/../../../../arm-none-eabi/lib/thumb/v7m\libg.a(lib_a-strcat.o)
 .debug_aranges
                0x00002e78       0x20 d:/elektronik/ides/eclipse/yagarto/bin/../lib/gcc/arm-none-eabi/4.6.2/../../../../arm-none-eabi/lib/thumb/v7m\libg.a(lib_a-strcmp.o)
 .debug_aranges
                0x00002e98       0x20 d:/elektronik/ides/eclipse/yagarto/bin/../lib/gcc/arm-none-eabi/4.6.2/../../../../arm-none-eabi/lib/thumb/v7m\libg.a(lib_a-strcpy.o)
 .debug_aranges
                0x00002eb8       0x20 d:/elektronik/ides/eclipse/yagarto/bin/../lib/gcc/arm-none-eabi/4.6.2/../../../../arm-none-eabi/lib/thumb/v7m\libg.a(lib_a-strlen.o)
 .debug_aranges
                0x00002ed8       0x20 d:/elektronik/ides/eclipse/yagarto/bin/../lib/gcc/arm-none-eabi/4.6.2/../../../../arm-none-eabi/lib/thumb/v7m\libg.a(lib_a-strncmp.o)
 .debug_aranges
                0x00002ef8       0x20 d:/elektronik/ides/eclipse/yagarto/bin/../lib/gcc/arm-none-eabi/4.6.2/../../../../arm-none-eabi/lib/thumb/v7m\libg.a(lib_a-strncpy.o)
 .debug_aranges
                0x00002f18       0x20 d:/elektronik/ides/eclipse/yagarto/bin/../lib/gcc/arm-none-eabi/4.6.2/../../../../arm-none-eabi/lib/thumb/v7m\libg.a(lib_a-svfprintf.o)
 .debug_aranges
                0x00002f38       0x20 d:/elektronik/ides/eclipse/yagarto/bin/../lib/gcc/arm-none-eabi/4.6.2/../../../../arm-none-eabi/lib/thumb/v7m\libg.a(lib_a-syswrite.o)
 .debug_aranges
                0x00002f58       0x20 d:/elektronik/ides/eclipse/yagarto/bin/../lib/gcc/arm-none-eabi/4.6.2/../../../../arm-none-eabi/lib/thumb/v7m\libg.a(lib_a-vfiprintf.o)
 .debug_aranges
                0x00002f78       0x20 d:/elektronik/ides/eclipse/yagarto/bin/../lib/gcc/arm-none-eabi/4.6.2/../../../../arm-none-eabi/lib/thumb/v7m\libg.a(lib_a-wbuf.o)
 .debug_aranges
                0x00002f98       0x20 d:/elektronik/ides/eclipse/yagarto/bin/../lib/gcc/arm-none-eabi/4.6.2/../../../../arm-none-eabi/lib/thumb/v7m\libg.a(lib_a-wsetup.o)
 .debug_aranges
                0x00002fb8       0x20 d:/elektronik/ides/eclipse/yagarto/bin/../lib/gcc/arm-none-eabi/4.6.2/../../../../arm-none-eabi/lib/thumb/v7m\libg.a(lib_a-__atexit.o)
 .debug_aranges
                0x00002fd8       0x20 d:/elektronik/ides/eclipse/yagarto/bin/../lib/gcc/arm-none-eabi/4.6.2/../../../../arm-none-eabi/lib/thumb/v7m\libg.a(lib_a-__call_atexit.o)
 .debug_aranges
                0x00002ff8       0x20 d:/elektronik/ides/eclipse/yagarto/bin/../lib/gcc/arm-none-eabi/4.6.2/../../../../arm-none-eabi/lib/thumb/v7m\libg.a(lib_a-dtoa.o)
 .debug_aranges
                0x00003018       0x20 d:/elektronik/ides/eclipse/yagarto/bin/../lib/gcc/arm-none-eabi/4.6.2/../../../../arm-none-eabi/lib/thumb/v7m\libg.a(lib_a-fflush.o)
 .debug_aranges
                0x00003038       0x20 d:/elektronik/ides/eclipse/yagarto/bin/../lib/gcc/arm-none-eabi/4.6.2/../../../../arm-none-eabi/lib/thumb/v7m\libg.a(lib_a-findfp.o)
 .debug_aranges
                0x00003058       0x20 d:/elektronik/ides/eclipse/yagarto/bin/../lib/gcc/arm-none-eabi/4.6.2/../../../../arm-none-eabi/lib/thumb/v7m\libg.a(lib_a-fputwc.o)
 .debug_aranges
                0x00003078       0x20 d:/elektronik/ides/eclipse/yagarto/bin/../lib/gcc/arm-none-eabi/4.6.2/../../../../arm-none-eabi/lib/thumb/v7m\libg.a(lib_a-freer.o)
 .debug_aranges
                0x00003098       0x20 d:/elektronik/ides/eclipse/yagarto/bin/../lib/gcc/arm-none-eabi/4.6.2/../../../../arm-none-eabi/lib/thumb/v7m\libg.a(lib_a-fwalk.o)
 .debug_aranges
                0x000030b8       0x20 d:/elektronik/ides/eclipse/yagarto/bin/../lib/gcc/arm-none-eabi/4.6.2/../../../../arm-none-eabi/lib/thumb/v7m\libg.a(lib_a-locale.o)
 .debug_aranges
                0x000030d8       0x20 d:/elektronik/ides/eclipse/yagarto/bin/../lib/gcc/arm-none-eabi/4.6.2/../../../../arm-none-eabi/lib/thumb/v7m\libg.a(lib_a-makebuf.o)
 .debug_aranges
                0x000030f8       0x20 d:/elektronik/ides/eclipse/yagarto/bin/../lib/gcc/arm-none-eabi/4.6.2/../../../../arm-none-eabi/lib/thumb/v7m\libg.a(lib_a-mprec.o)
 .debug_aranges
                0x00003118       0x20 d:/elektronik/ides/eclipse/yagarto/bin/../lib/gcc/arm-none-eabi/4.6.2/../../../../arm-none-eabi/lib/thumb/v7m\libg.a(lib_a-s_fpclassify.o)
 .debug_aranges
                0x00003138       0x20 d:/elektronik/ides/eclipse/yagarto/bin/../lib/gcc/arm-none-eabi/4.6.2/../../../../arm-none-eabi/lib/thumb/v7m\libg.a(lib_a-stdio.o)
 .debug_aranges
                0x00003158       0x20 d:/elektronik/ides/eclipse/yagarto/bin/../lib/gcc/arm-none-eabi/4.6.2/../../../../arm-none-eabi/lib/thumb/v7m\libg.a(lib_a-svfiprintf.o)
 .debug_aranges
                0x00003178       0x20 d:/elektronik/ides/eclipse/yagarto/bin/../lib/gcc/arm-none-eabi/4.6.2/../../../../arm-none-eabi/lib/thumb/v7m\libg.a(lib_a-wcrtomb.o)
 .debug_aranges
                0x00003198       0x20 d:/elektronik/ides/eclipse/yagarto/bin/../lib/gcc/arm-none-eabi/4.6.2/../../../../arm-none-eabi/lib/thumb/v7m\libg.a(lib_a-wctomb_r.o)
 .debug_aranges
                0x000031b8       0x20 d:/elektronik/ides/eclipse/yagarto/bin/../lib/gcc/arm-none-eabi/4.6.2/../../../../arm-none-eabi/lib/thumb/v7m\libg.a(lib_a-callocr.o)
 .debug_aranges
                0x000031d8       0x20 d:/elektronik/ides/eclipse/yagarto/bin/../lib/gcc/arm-none-eabi/4.6.2/../../../../arm-none-eabi/lib/thumb/v7m\libg.a(lib_a-fclose.o)
 .debug_aranges
                0x000031f8       0x20 d:/elektronik/ides/eclipse/yagarto/bin/../lib/gcc/arm-none-eabi/4.6.2/thumb/v7m\libgcc.a(_udivsi3.o)
 .debug_aranges
                0x00003218       0x20 d:/elektronik/ides/eclipse/yagarto/bin/../lib/gcc/arm-none-eabi/4.6.2/thumb/v7m\libgcc.a(_dvmd_tls.o)
 .debug_aranges
                0x00003238       0x20 d:/elektronik/ides/eclipse/yagarto/bin/../lib/gcc/arm-none-eabi/4.6.2/thumb/v7m\libgcc.a(_arm_addsubdf3.o)
 .debug_aranges
                0x00003258       0x20 d:/elektronik/ides/eclipse/yagarto/bin/../lib/gcc/arm-none-eabi/4.6.2/thumb/v7m\libgcc.a(_arm_muldivdf3.o)
 .debug_aranges
                0x00003278       0x20 d:/elektronik/ides/eclipse/yagarto/bin/../lib/gcc/arm-none-eabi/4.6.2/thumb/v7m\libgcc.a(_arm_cmpdf2.o)
 .debug_aranges
                0x00003298       0x20 d:/elektronik/ides/eclipse/yagarto/bin/../lib/gcc/arm-none-eabi/4.6.2/thumb/v7m\libgcc.a(_arm_fixdfsi.o)
 .debug_aranges
                0x000032b8       0x28 d:/elektronik/ides/eclipse/yagarto/bin/../lib/gcc/arm-none-eabi/4.6.2/thumb/v7m/crtn.o

.debug_ranges   0x00000000     0x3450
 .debug_ranges  0x00000000       0x20 d:/elektronik/ides/eclipse/yagarto/bin/../lib/gcc/arm-none-eabi/4.6.2/thumb/v7m/crti.o
 .debug_ranges  0x00000020       0x30 ./STM32F4xx_StdPeriph_Driver/src/misc.o
 .debug_ranges  0x00000050      0x138 ./STM32F4xx_StdPeriph_Driver/src/stm32f4xx_adc.o
 .debug_ranges  0x00000188       0xd0 ./STM32F4xx_StdPeriph_Driver/src/stm32f4xx_can.o
 .debug_ranges  0x00000258       0x38 ./STM32F4xx_StdPeriph_Driver/src/stm32f4xx_crc.o
 .debug_ranges  0x00000290       0x90 ./STM32F4xx_StdPeriph_Driver/src/stm32f4xx_cryp.o
 .debug_ranges  0x00000320       0x20 ./STM32F4xx_StdPeriph_Driver/src/stm32f4xx_cryp_aes.o
 .debug_ranges  0x00000340       0x18 ./STM32F4xx_StdPeriph_Driver/src/stm32f4xx_cryp_des.o
 .debug_ranges  0x00000358       0x18 ./STM32F4xx_StdPeriph_Driver/src/stm32f4xx_cryp_tdes.o
 .debug_ranges  0x00000370       0x90 ./STM32F4xx_StdPeriph_Driver/src/stm32f4xx_dac.o
 .debug_ranges  0x00000400       0x30 ./STM32F4xx_StdPeriph_Driver/src/stm32f4xx_dbgmcu.o
 .debug_ranges  0x00000430       0x80 ./STM32F4xx_StdPeriph_Driver/src/stm32f4xx_dcmi.o
 .debug_ranges  0x000004b0       0xa0 ./STM32F4xx_StdPeriph_Driver/src/stm32f4xx_dma.o
 .debug_ranges  0x00000550       0x48 ./STM32F4xx_StdPeriph_Driver/src/stm32f4xx_exti.o
 .debug_ranges  0x00000598       0xf8 ./STM32F4xx_StdPeriph_Driver/src/stm32f4xx_flash.o
 .debug_ranges  0x00000690       0xa0 ./STM32F4xx_StdPeriph_Driver/src/stm32f4xx_fsmc.o
 .debug_ranges  0x00000730       0x78 ./STM32F4xx_StdPeriph_Driver/src/stm32f4xx_gpio.o
 .debug_ranges  0x000007a8       0x90 ./STM32F4xx_StdPeriph_Driver/src/stm32f4xx_hash.o
 .debug_ranges  0x00000838       0x18 ./STM32F4xx_StdPeriph_Driver/src/stm32f4xx_hash_md5.o
 .debug_ranges  0x00000850       0x18 ./STM32F4xx_StdPeriph_Driver/src/stm32f4xx_hash_sha1.o
 .debug_ranges  0x00000868      0x110 ./STM32F4xx_StdPeriph_Driver/src/stm32f4xx_i2c.o
 .debug_ranges  0x00000978       0x38 ./STM32F4xx_StdPeriph_Driver/src/stm32f4xx_iwdg.o
 .debug_ranges  0x000009b0       0x68 ./STM32F4xx_StdPeriph_Driver/src/stm32f4xx_pwr.o
 .debug_ranges  0x00000a18      0x168 ./STM32F4xx_StdPeriph_Driver/src/stm32f4xx_rcc.o
 .debug_ranges  0x00000b80       0x48 ./STM32F4xx_StdPeriph_Driver/src/stm32f4xx_rng.o
 .debug_ranges  0x00000bc8      0x1d0 ./STM32F4xx_StdPeriph_Driver/src/stm32f4xx_rtc.o
 .debug_ranges  0x00000d98       0xf8 ./STM32F4xx_StdPeriph_Driver/src/stm32f4xx_sdio.o
 .debug_ranges  0x00000e90       0xd0 ./STM32F4xx_StdPeriph_Driver/src/stm32f4xx_spi.o
 .debug_ranges  0x00000f60       0x38 ./STM32F4xx_StdPeriph_Driver/src/stm32f4xx_syscfg.o
 .debug_ranges  0x00000f98      0x2e8 ./STM32F4xx_StdPeriph_Driver/src/stm32f4xx_tim.o
 .debug_ranges  0x00001280       0xf0 ./STM32F4xx_StdPeriph_Driver/src/stm32f4xx_usart.o
 .debug_ranges  0x00001370       0x48 ./STM32F4xx_StdPeriph_Driver/src/stm32f4xx_wwdg.o
 .debug_ranges  0x000013b8       0x38 ./STM32F4-Discovery/stm32f4_discovery.o
 .debug_ranges  0x000013f0      0x120 ./STM32F4-Discovery/stm32f4_discovery_audio_codec.o
 .debug_ranges  0x00001510       0x68 ./STM32F4-Discovery/stm32f4_discovery_lis302dl.o
 .debug_ranges  0x00001578       0x48 ./Menue/CMenue.o
 .debug_ranges  0x000015c0       0x38 ./GraphicLCD/CGraphicLCD.o
 .debug_ranges  0x000015f8       0x98 ./GraphicLCD/CT6963CDriver.o
 .debug_ranges  0x00001690       0x50 ./GraphicLCD/CT6963GPIOInterface.o
 .debug_ranges  0x000016e0       0x88 ./FreeRTOS_EC/Source/AManagedTask.o
 .debug_ranges  0x00001768       0x48 ./FreeRTOS_EC/Source/ASyncObject.o
 .debug_ranges  0x000017b0       0x50 ./FreeRTOS_EC/Source/CBinarySemaphore.o
 .debug_ranges  0x00001800       0x50 ./FreeRTOS_EC/Source/CCountingSemaphore.o
 .debug_ranges  0x00001850       0x20 ./FreeRTOS_EC/Source/CFreeRTOS.o
 .debug_ranges  0x00001870       0xc0 ./FreeRTOS_EC/Source/CMessageTask.o
 .debug_ranges  0x00001930       0x50 ./FreeRTOS_EC/Source/CMutex.o
 .debug_ranges  0x00001980       0x58 ./FreeRTOS_EC/Source/CQueue.o
 .debug_ranges  0x000019d8       0x50 ./FreeRTOS_EC/Source/CRecursiveMutex.o
 .debug_ranges  0x00001a28       0x60 ./FreeRTOS_EC/Source/CTask.o
 .debug_ranges  0x00001a88       0x60 ./FreeRTOS/Source/portable/GCC/ARM_CM4F/port.o
 .debug_ranges  0x00001ae8       0x40 ./FreeRTOS/Source/croutine.o
 .debug_ranges  0x00001b28       0x30 ./FreeRTOS/Source/list.o
 .debug_ranges  0x00001b58       0x88 ./FreeRTOS/Source/queue.o
 .debug_ranges  0x00001be0      0x158 ./FreeRTOS/Source/tasks.o
 .debug_ranges  0x00001d38       0x30 ./Fatfs/FatFs/src/diskio.o
 .debug_ranges  0x00001d68      0x160 ./Fatfs/FatFs/src/ff.o
 .debug_ranges  0x00001ec8       0x20 ./Fatfs/CFileHandler.o
 .debug_ranges  0x00001ee8       0x10 ./Fatfs/fattime.o
 .debug_ranges  0x00001ef8      0x140 ./Fatfs/stm32f4_sdio.o
 .debug_ranges  0x00002038       0x48 ./CLedHeartBeatSTM32F4Disc.o
 .debug_ranges  0x00002080       0x78 ./main.o
 .debug_ranges  0x000020f8       0x20 ./startup_stm32f4xx.o
 .debug_ranges  0x00002118       0x48 ./stm32f4xx_it.o
 .debug_ranges  0x00002160       0x68 ./syscalls.o
 .debug_ranges  0x000021c8       0x20 ./system_stm32f4xx.o
 .debug_ranges  0x000021e8       0x40 ./ustime.o
 .debug_ranges  0x00002228       0x10 d:/elektronik/ides/eclipse/yagarto/bin/../lib/gcc/arm-none-eabi/4.6.2/../../../../arm-none-eabi/lib/thumb/v7m\libstdc++.a(atexit_arm.o)
 .debug_ranges  0x00002238       0x10 d:/elektronik/ides/eclipse/yagarto/bin/../lib/gcc/arm-none-eabi/4.6.2/../../../../arm-none-eabi/lib/thumb/v7m\libstdc++.a(del_op.o)
 .debug_ranges  0x00002248       0x10 d:/elektronik/ides/eclipse/yagarto/bin/../lib/gcc/arm-none-eabi/4.6.2/../../../../arm-none-eabi/lib/thumb/v7m\libstdc++.a(pure.o)
 .debug_ranges  0x00002258       0x38 d:/elektronik/ides/eclipse/yagarto/bin/../lib/gcc/arm-none-eabi/4.6.2/../../../../arm-none-eabi/lib/thumb/v7m\libstdc++.a(eh_terminate.o)
 .debug_ranges  0x00002290       0xb0 d:/elektronik/ides/eclipse/yagarto/bin/../lib/gcc/arm-none-eabi/4.6.2/../../../../arm-none-eabi/lib/thumb/v7m\libstdc++.a(vterminate.o)
 .debug_ranges  0x00002340       0x30 d:/elektronik/ides/eclipse/yagarto/bin/../lib/gcc/arm-none-eabi/4.6.2/../../../../arm-none-eabi/lib/thumb/v7m\libstdc++.a(cp-demangle.o)
 .debug_ranges  0x00002370      0x110 d:/elektronik/ides/eclipse/yagarto/bin/../lib/gcc/arm-none-eabi/4.6.2/../../../../arm-none-eabi/lib/thumb/v7m\libstdc++.a(eh_arm.o)
 .debug_ranges  0x00002480       0x48 d:/elektronik/ides/eclipse/yagarto/bin/../lib/gcc/arm-none-eabi/4.6.2/../../../../arm-none-eabi/lib/thumb/v7m\libstdc++.a(eh_aux_runtime.o)
 .debug_ranges  0x000024c8       0xb8 d:/elektronik/ides/eclipse/yagarto/bin/../lib/gcc/arm-none-eabi/4.6.2/../../../../arm-none-eabi/lib/thumb/v7m\libstdc++.a(eh_call.o)
 .debug_ranges  0x00002580       0xb8 d:/elektronik/ides/eclipse/yagarto/bin/../lib/gcc/arm-none-eabi/4.6.2/../../../../arm-none-eabi/lib/thumb/v7m\libstdc++.a(eh_catch.o)
 .debug_ranges  0x00002638       0xd0 d:/elektronik/ides/eclipse/yagarto/bin/../lib/gcc/arm-none-eabi/4.6.2/../../../../arm-none-eabi/lib/thumb/v7m\libstdc++.a(eh_exception.o)
 .debug_ranges  0x00002708       0x18 d:/elektronik/ides/eclipse/yagarto/bin/../lib/gcc/arm-none-eabi/4.6.2/../../../../arm-none-eabi/lib/thumb/v7m\libstdc++.a(eh_globals.o)
 .debug_ranges  0x00002720      0x308 d:/elektronik/ides/eclipse/yagarto/bin/../lib/gcc/arm-none-eabi/4.6.2/../../../../arm-none-eabi/lib/thumb/v7m\libstdc++.a(eh_personality.o)
 .debug_ranges  0x00002a28       0xc8 d:/elektronik/ides/eclipse/yagarto/bin/../lib/gcc/arm-none-eabi/4.6.2/../../../../arm-none-eabi/lib/thumb/v7m\libstdc++.a(eh_throw.o)
 .debug_ranges  0x00002af0       0x10 d:/elektronik/ides/eclipse/yagarto/bin/../lib/gcc/arm-none-eabi/4.6.2/../../../../arm-none-eabi/lib/thumb/v7m\libstdc++.a(eh_type.o)
 .debug_ranges  0x00002b00       0x30 d:/elektronik/ides/eclipse/yagarto/bin/../lib/gcc/arm-none-eabi/4.6.2/../../../../arm-none-eabi/lib/thumb/v7m\libstdc++.a(fundamental_type_info.o)
 .debug_ranges  0x00002b30       0x40 d:/elektronik/ides/eclipse/yagarto/bin/../lib/gcc/arm-none-eabi/4.6.2/../../../../arm-none-eabi/lib/thumb/v7m\libstdc++.a(pointer_type_info.o)
 .debug_ranges  0x00002b70       0x60 d:/elektronik/ides/eclipse/yagarto/bin/../lib/gcc/arm-none-eabi/4.6.2/../../../../arm-none-eabi/lib/thumb/v7m\libstdc++.a(si_class_type_info.o)
 .debug_ranges  0x00002bd0       0x58 d:/elektronik/ides/eclipse/yagarto/bin/../lib/gcc/arm-none-eabi/4.6.2/../../../../arm-none-eabi/lib/thumb/v7m\libstdc++.a(tinfo.o)
 .debug_ranges  0x00002c28       0x38 d:/elektronik/ides/eclipse/yagarto/bin/../lib/gcc/arm-none-eabi/4.6.2/../../../../arm-none-eabi/lib/thumb/v7m\libstdc++.a(bad_cast.o)
 .debug_ranges  0x00002c60       0x38 d:/elektronik/ides/eclipse/yagarto/bin/../lib/gcc/arm-none-eabi/4.6.2/../../../../arm-none-eabi/lib/thumb/v7m\libstdc++.a(bad_typeid.o)
 .debug_ranges  0x00002c98       0x90 d:/elektronik/ides/eclipse/yagarto/bin/../lib/gcc/arm-none-eabi/4.6.2/../../../../arm-none-eabi/lib/thumb/v7m\libstdc++.a(class_type_info.o)
 .debug_ranges  0x00002d28       0x98 d:/elektronik/ides/eclipse/yagarto/bin/../lib/gcc/arm-none-eabi/4.6.2/../../../../arm-none-eabi/lib/thumb/v7m\libstdc++.a(eh_alloc.o)
 .debug_ranges  0x00002dc0       0x60 d:/elektronik/ides/eclipse/yagarto/bin/../lib/gcc/arm-none-eabi/4.6.2/../../../../arm-none-eabi/lib/thumb/v7m\libstdc++.a(pbase_type_info.o)
 .debug_ranges  0x00002e20      0x140 d:/elektronik/ides/eclipse/yagarto/bin/../lib/gcc/arm-none-eabi/4.6.2/thumb/v7m\libgcc.a(unwind-arm.o)
 .debug_ranges  0x00002f60       0x30 d:/elektronik/ides/eclipse/yagarto/bin/../lib/gcc/arm-none-eabi/4.6.2/thumb/v7m\libgcc.a(pr-support.o)
 .debug_ranges  0x00002f90       0x40 d:/elektronik/ides/eclipse/yagarto/bin/../lib/gcc/arm-none-eabi/4.6.2/../../../../arm-none-eabi/lib/thumb/v7m\libg.a(lib_a-mallocr.o)
 .debug_ranges  0x00002fd0       0xd0 d:/elektronik/ides/eclipse/yagarto/bin/../lib/gcc/arm-none-eabi/4.6.2/../../../../arm-none-eabi/lib/thumb/v7m\libg.a(lib_a-reallocr.o)
 .debug_ranges  0x000030a0       0x20 d:/elektronik/ides/eclipse/yagarto/bin/../lib/gcc/arm-none-eabi/4.6.2/../../../../arm-none-eabi/lib/thumb/v7m\libg.a(lib_a-strcat.o)
 .debug_ranges  0x000030c0      0x198 d:/elektronik/ides/eclipse/yagarto/bin/../lib/gcc/arm-none-eabi/4.6.2/../../../../arm-none-eabi/lib/thumb/v7m\libg.a(lib_a-svfprintf.o)
 .debug_ranges  0x00003258       0x80 d:/elektronik/ides/eclipse/yagarto/bin/../lib/gcc/arm-none-eabi/4.6.2/../../../../arm-none-eabi/lib/thumb/v7m\libg.a(lib_a-vfiprintf.o)
 .debug_ranges  0x000032d8       0x20 d:/elektronik/ides/eclipse/yagarto/bin/../lib/gcc/arm-none-eabi/4.6.2/../../../../arm-none-eabi/lib/thumb/v7m\libg.a(lib_a-__call_atexit.o)
 .debug_ranges  0x000032f8       0x68 d:/elektronik/ides/eclipse/yagarto/bin/../lib/gcc/arm-none-eabi/4.6.2/../../../../arm-none-eabi/lib/thumb/v7m\libg.a(lib_a-fflush.o)
 .debug_ranges  0x00003360       0x30 d:/elektronik/ides/eclipse/yagarto/bin/../lib/gcc/arm-none-eabi/4.6.2/../../../../arm-none-eabi/lib/thumb/v7m\libg.a(lib_a-fputwc.o)
 .debug_ranges  0x00003390       0x40 d:/elektronik/ides/eclipse/yagarto/bin/../lib/gcc/arm-none-eabi/4.6.2/../../../../arm-none-eabi/lib/thumb/v7m\libg.a(lib_a-mprec.o)
 .debug_ranges  0x000033d0       0x48 d:/elektronik/ides/eclipse/yagarto/bin/../lib/gcc/arm-none-eabi/4.6.2/../../../../arm-none-eabi/lib/thumb/v7m\libg.a(lib_a-svfiprintf.o)
 .debug_ranges  0x00003418       0x18 d:/elektronik/ides/eclipse/yagarto/bin/../lib/gcc/arm-none-eabi/4.6.2/../../../../arm-none-eabi/lib/thumb/v7m\libg.a(lib_a-callocr.o)
 .debug_ranges  0x00003430       0x20 d:/elektronik/ides/eclipse/yagarto/bin/../lib/gcc/arm-none-eabi/4.6.2/thumb/v7m/crtn.o

.comment        0x00000000       0x11
 .comment       0x00000000       0x11 d:/elektronik/ides/eclipse/yagarto/bin/../lib/gcc/arm-none-eabi/4.6.2/thumb/v7m/crtbegin.o
                                 0x12 (size before relaxing)
 .comment       0x00000000       0x12 ./STM32F4xx_StdPeriph_Driver/src/misc.o
 .comment       0x00000000       0x12 ./STM32F4xx_StdPeriph_Driver/src/stm32f4xx_adc.o
 .comment       0x00000000       0x12 ./STM32F4xx_StdPeriph_Driver/src/stm32f4xx_can.o
 .comment       0x00000000       0x12 ./STM32F4xx_StdPeriph_Driver/src/stm32f4xx_crc.o
 .comment       0x00000000       0x12 ./STM32F4xx_StdPeriph_Driver/src/stm32f4xx_cryp.o
 .comment       0x00000000       0x12 ./STM32F4xx_StdPeriph_Driver/src/stm32f4xx_cryp_aes.o
 .comment       0x00000000       0x12 ./STM32F4xx_StdPeriph_Driver/src/stm32f4xx_cryp_des.o
 .comment       0x00000000       0x12 ./STM32F4xx_StdPeriph_Driver/src/stm32f4xx_cryp_tdes.o
 .comment       0x00000000       0x12 ./STM32F4xx_StdPeriph_Driver/src/stm32f4xx_dac.o
 .comment       0x00000000       0x12 ./STM32F4xx_StdPeriph_Driver/src/stm32f4xx_dbgmcu.o
 .comment       0x00000000       0x12 ./STM32F4xx_StdPeriph_Driver/src/stm32f4xx_dcmi.o
 .comment       0x00000000       0x12 ./STM32F4xx_StdPeriph_Driver/src/stm32f4xx_dma.o
 .comment       0x00000000       0x12 ./STM32F4xx_StdPeriph_Driver/src/stm32f4xx_exti.o
 .comment       0x00000000       0x12 ./STM32F4xx_StdPeriph_Driver/src/stm32f4xx_flash.o
 .comment       0x00000000       0x12 ./STM32F4xx_StdPeriph_Driver/src/stm32f4xx_fsmc.o
 .comment       0x00000000       0x12 ./STM32F4xx_StdPeriph_Driver/src/stm32f4xx_gpio.o
 .comment       0x00000000       0x12 ./STM32F4xx_StdPeriph_Driver/src/stm32f4xx_hash.o
 .comment       0x00000000       0x12 ./STM32F4xx_StdPeriph_Driver/src/stm32f4xx_hash_md5.o
 .comment       0x00000000       0x12 ./STM32F4xx_StdPeriph_Driver/src/stm32f4xx_hash_sha1.o
 .comment       0x00000000       0x12 ./STM32F4xx_StdPeriph_Driver/src/stm32f4xx_i2c.o
 .comment       0x00000000       0x12 ./STM32F4xx_StdPeriph_Driver/src/stm32f4xx_iwdg.o
 .comment       0x00000000       0x12 ./STM32F4xx_StdPeriph_Driver/src/stm32f4xx_pwr.o
 .comment       0x00000000       0x12 ./STM32F4xx_StdPeriph_Driver/src/stm32f4xx_rcc.o
 .comment       0x00000000       0x12 ./STM32F4xx_StdPeriph_Driver/src/stm32f4xx_rng.o
 .comment       0x00000000       0x12 ./STM32F4xx_StdPeriph_Driver/src/stm32f4xx_rtc.o
 .comment       0x00000000       0x12 ./STM32F4xx_StdPeriph_Driver/src/stm32f4xx_sdio.o
 .comment       0x00000000       0x12 ./STM32F4xx_StdPeriph_Driver/src/stm32f4xx_spi.o
 .comment       0x00000000       0x12 ./STM32F4xx_StdPeriph_Driver/src/stm32f4xx_syscfg.o
 .comment       0x00000000       0x12 ./STM32F4xx_StdPeriph_Driver/src/stm32f4xx_tim.o
 .comment       0x00000000       0x12 ./STM32F4xx_StdPeriph_Driver/src/stm32f4xx_usart.o
 .comment       0x00000000       0x12 ./STM32F4xx_StdPeriph_Driver/src/stm32f4xx_wwdg.o
 .comment       0x00000000       0x12 ./STM32F4-Discovery/stm32f4_discovery.o
 .comment       0x00000000       0x12 ./STM32F4-Discovery/stm32f4_discovery_audio_codec.o
 .comment       0x00000000       0x12 ./STM32F4-Discovery/stm32f4_discovery_lis302dl.o
 .comment       0x00000000       0x12 ./Menue/CMenue.o
 .comment       0x00000000       0x12 ./GraphicLCD/CGraphicLCD.o
 .comment       0x00000000       0x12 ./GraphicLCD/CT6963CDriver.o
 .comment       0x00000000       0x12 ./GraphicLCD/CT6963GPIOInterface.o
 .comment       0x00000000       0x12 ./GraphicLCD/SansSerif12.o
 .comment       0x00000000       0x12 ./FreeRTOS_EC/Source/AManagedTask.o
 .comment       0x00000000       0x12 ./FreeRTOS_EC/Source/ASyncObject.o
 .comment       0x00000000       0x12 ./FreeRTOS_EC/Source/ATimer.o
 .comment       0x00000000       0x12 ./FreeRTOS_EC/Source/CBinarySemaphore.o
 .comment       0x00000000       0x12 ./FreeRTOS_EC/Source/CCountingSemaphore.o
 .comment       0x00000000       0x12 ./FreeRTOS_EC/Source/CFreeRTOS.o
 .comment       0x00000000       0x12 ./FreeRTOS_EC/Source/CMessageTask.o
 .comment       0x00000000       0x12 ./FreeRTOS_EC/Source/CMutex.o
 .comment       0x00000000       0x12 ./FreeRTOS_EC/Source/CQueue.o
 .comment       0x00000000       0x12 ./FreeRTOS_EC/Source/CRecursiveMutex.o
 .comment       0x00000000       0x12 ./FreeRTOS_EC/Source/CTask.o
 .comment       0x00000000       0x12 ./FreeRTOS/Source/portable/GCC/ARM_CM4F/port.o
 .comment       0x00000000       0x12 ./FreeRTOS/Source/croutine.o
 .comment       0x00000000       0x12 ./FreeRTOS/Source/list.o
 .comment       0x00000000       0x12 ./FreeRTOS/Source/queue.o
 .comment       0x00000000       0x12 ./FreeRTOS/Source/tasks.o
 .comment       0x00000000       0x12 ./FreeRTOS/Source/timers.o
 .comment       0x00000000       0x12 ./Fatfs/FatFs/src/option/syscall.o
 .comment       0x00000000       0x12 ./Fatfs/FatFs/src/diskio.o
 .comment       0x00000000       0x12 ./Fatfs/FatFs/src/ff.o
 .comment       0x00000000       0x12 ./Fatfs/CFileHandler.o
 .comment       0x00000000       0x12 ./Fatfs/fattime.o
 .comment       0x00000000       0x12 ./Fatfs/stm32f4_sdio.o
 .comment       0x00000000       0x12 ./CLedHeartBeatSTM32F4Disc.o
 .comment       0x00000000       0x12 ./main.o
 .comment       0x00000000       0x12 ./stm32f4xx_it.o
 .comment       0x00000000       0x12 ./syscalls.o
 .comment       0x00000000       0x12 ./system_stm32f4xx.o
 .comment       0x00000000       0x12 ./ustime.o
 .comment       0x00000000       0x12 d:/elektronik/ides/eclipse/yagarto/bin/../lib/gcc/arm-none-eabi/4.6.2/../../../../arm-none-eabi/lib/thumb/v7m\libstdc++.a(atexit_arm.o)
 .comment       0x00000000       0x12 d:/elektronik/ides/eclipse/yagarto/bin/../lib/gcc/arm-none-eabi/4.6.2/../../../../arm-none-eabi/lib/thumb/v7m\libstdc++.a(del_op.o)
 .comment       0x00000000       0x12 d:/elektronik/ides/eclipse/yagarto/bin/../lib/gcc/arm-none-eabi/4.6.2/../../../../arm-none-eabi/lib/thumb/v7m\libstdc++.a(pure.o)
 .comment       0x00000000       0x12 d:/elektronik/ides/eclipse/yagarto/bin/../lib/gcc/arm-none-eabi/4.6.2/../../../../arm-none-eabi/lib/thumb/v7m\libstdc++.a(eh_terminate.o)
 .comment       0x00000000       0x12 d:/elektronik/ides/eclipse/yagarto/bin/../lib/gcc/arm-none-eabi/4.6.2/../../../../arm-none-eabi/lib/thumb/v7m\libstdc++.a(eh_term_handler.o)
 .comment       0x00000000       0x12 d:/elektronik/ides/eclipse/yagarto/bin/../lib/gcc/arm-none-eabi/4.6.2/../../../../arm-none-eabi/lib/thumb/v7m\libstdc++.a(eh_unex_handler.o)
 .comment       0x00000000       0x12 d:/elektronik/ides/eclipse/yagarto/bin/../lib/gcc/arm-none-eabi/4.6.2/../../../../arm-none-eabi/lib/thumb/v7m\libstdc++.a(vterminate.o)
 .comment       0x00000000       0x12 d:/elektronik/ides/eclipse/yagarto/bin/../lib/gcc/arm-none-eabi/4.6.2/../../../../arm-none-eabi/lib/thumb/v7m\libstdc++.a(cp-demangle.o)
 .comment       0x00000000       0x12 d:/elektronik/ides/eclipse/yagarto/bin/../lib/gcc/arm-none-eabi/4.6.2/../../../../arm-none-eabi/lib/thumb/v7m\libstdc++.a(eh_arm.o)
 .comment       0x00000000       0x12 d:/elektronik/ides/eclipse/yagarto/bin/../lib/gcc/arm-none-eabi/4.6.2/../../../../arm-none-eabi/lib/thumb/v7m\libstdc++.a(eh_aux_runtime.o)
 .comment       0x00000000       0x12 d:/elektronik/ides/eclipse/yagarto/bin/../lib/gcc/arm-none-eabi/4.6.2/../../../../arm-none-eabi/lib/thumb/v7m\libstdc++.a(eh_call.o)
 .comment       0x00000000       0x12 d:/elektronik/ides/eclipse/yagarto/bin/../lib/gcc/arm-none-eabi/4.6.2/../../../../arm-none-eabi/lib/thumb/v7m\libstdc++.a(eh_catch.o)
 .comment       0x00000000       0x12 d:/elektronik/ides/eclipse/yagarto/bin/../lib/gcc/arm-none-eabi/4.6.2/../../../../arm-none-eabi/lib/thumb/v7m\libstdc++.a(eh_exception.o)
 .comment       0x00000000       0x12 d:/elektronik/ides/eclipse/yagarto/bin/../lib/gcc/arm-none-eabi/4.6.2/../../../../arm-none-eabi/lib/thumb/v7m\libstdc++.a(eh_globals.o)
 .comment       0x00000000       0x12 d:/elektronik/ides/eclipse/yagarto/bin/../lib/gcc/arm-none-eabi/4.6.2/../../../../arm-none-eabi/lib/thumb/v7m\libstdc++.a(eh_personality.o)
 .comment       0x00000000       0x12 d:/elektronik/ides/eclipse/yagarto/bin/../lib/gcc/arm-none-eabi/4.6.2/../../../../arm-none-eabi/lib/thumb/v7m\libstdc++.a(eh_throw.o)
 .comment       0x00000000       0x12 d:/elektronik/ides/eclipse/yagarto/bin/../lib/gcc/arm-none-eabi/4.6.2/../../../../arm-none-eabi/lib/thumb/v7m\libstdc++.a(eh_type.o)
 .comment       0x00000000       0x12 d:/elektronik/ides/eclipse/yagarto/bin/../lib/gcc/arm-none-eabi/4.6.2/../../../../arm-none-eabi/lib/thumb/v7m\libstdc++.a(fundamental_type_info.o)
 .comment       0x00000000       0x12 d:/elektronik/ides/eclipse/yagarto/bin/../lib/gcc/arm-none-eabi/4.6.2/../../../../arm-none-eabi/lib/thumb/v7m\libstdc++.a(pointer_type_info.o)
 .comment       0x00000000       0x12 d:/elektronik/ides/eclipse/yagarto/bin/../lib/gcc/arm-none-eabi/4.6.2/../../../../arm-none-eabi/lib/thumb/v7m\libstdc++.a(si_class_type_info.o)
 .comment       0x00000000       0x12 d:/elektronik/ides/eclipse/yagarto/bin/../lib/gcc/arm-none-eabi/4.6.2/../../../../arm-none-eabi/lib/thumb/v7m\libstdc++.a(tinfo.o)
 .comment       0x00000000       0x12 d:/elektronik/ides/eclipse/yagarto/bin/../lib/gcc/arm-none-eabi/4.6.2/../../../../arm-none-eabi/lib/thumb/v7m\libstdc++.a(bad_cast.o)
 .comment       0x00000000       0x12 d:/elektronik/ides/eclipse/yagarto/bin/../lib/gcc/arm-none-eabi/4.6.2/../../../../arm-none-eabi/lib/thumb/v7m\libstdc++.a(bad_typeid.o)
 .comment       0x00000000       0x12 d:/elektronik/ides/eclipse/yagarto/bin/../lib/gcc/arm-none-eabi/4.6.2/../../../../arm-none-eabi/lib/thumb/v7m\libstdc++.a(class_type_info.o)
 .comment       0x00000000       0x12 d:/elektronik/ides/eclipse/yagarto/bin/../lib/gcc/arm-none-eabi/4.6.2/../../../../arm-none-eabi/lib/thumb/v7m\libstdc++.a(eh_alloc.o)
 .comment       0x00000000       0x12 d:/elektronik/ides/eclipse/yagarto/bin/../lib/gcc/arm-none-eabi/4.6.2/../../../../arm-none-eabi/lib/thumb/v7m\libstdc++.a(pbase_type_info.o)
 .comment       0x00000000       0x12 d:/elektronik/ides/eclipse/yagarto/bin/../lib/gcc/arm-none-eabi/4.6.2/thumb/v7m\libgcc.a(unwind-arm.o)
 .comment       0x00000000       0x12 d:/elektronik/ides/eclipse/yagarto/bin/../lib/gcc/arm-none-eabi/4.6.2/thumb/v7m\libgcc.a(pr-support.o)
 .comment       0x00000000       0x12 d:/elektronik/ides/eclipse/yagarto/bin/../lib/gcc/arm-none-eabi/4.6.2/../../../../arm-none-eabi/lib/thumb/v7m\libg.a(lib_a-abort.o)
 .comment       0x00000000       0x12 d:/elektronik/ides/eclipse/yagarto/bin/../lib/gcc/arm-none-eabi/4.6.2/../../../../arm-none-eabi/lib/thumb/v7m\libg.a(lib_a-assert.o)
 .comment       0x00000000       0x12 d:/elektronik/ides/eclipse/yagarto/bin/../lib/gcc/arm-none-eabi/4.6.2/../../../../arm-none-eabi/lib/thumb/v7m\libg.a(lib_a-atexit.o)
 .comment       0x00000000       0x12 d:/elektronik/ides/eclipse/yagarto/bin/../lib/gcc/arm-none-eabi/4.6.2/../../../../arm-none-eabi/lib/thumb/v7m\libg.a(lib_a-cxa_atexit.o)
 .comment       0x00000000       0x12 d:/elektronik/ides/eclipse/yagarto/bin/../lib/gcc/arm-none-eabi/4.6.2/../../../../arm-none-eabi/lib/thumb/v7m\libg.a(lib_a-exit.o)
 .comment       0x00000000       0x12 d:/elektronik/ides/eclipse/yagarto/bin/../lib/gcc/arm-none-eabi/4.6.2/../../../../arm-none-eabi/lib/thumb/v7m\libg.a(lib_a-fini.o)
 .comment       0x00000000       0x12 d:/elektronik/ides/eclipse/yagarto/bin/../lib/gcc/arm-none-eabi/4.6.2/../../../../arm-none-eabi/lib/thumb/v7m\libg.a(lib_a-fiprintf.o)
 .comment       0x00000000       0x12 d:/elektronik/ides/eclipse/yagarto/bin/../lib/gcc/arm-none-eabi/4.6.2/../../../../arm-none-eabi/lib/thumb/v7m\libg.a(lib_a-fputc.o)
 .comment       0x00000000       0x12 d:/elektronik/ides/eclipse/yagarto/bin/../lib/gcc/arm-none-eabi/4.6.2/../../../../arm-none-eabi/lib/thumb/v7m\libg.a(lib_a-fputs.o)
 .comment       0x00000000       0x12 d:/elektronik/ides/eclipse/yagarto/bin/../lib/gcc/arm-none-eabi/4.6.2/../../../../arm-none-eabi/lib/thumb/v7m\libg.a(lib_a-fvwrite.o)
 .comment       0x00000000       0x12 d:/elektronik/ides/eclipse/yagarto/bin/../lib/gcc/arm-none-eabi/4.6.2/../../../../arm-none-eabi/lib/thumb/v7m\libg.a(lib_a-fwrite.o)
 .comment       0x00000000       0x12 d:/elektronik/ides/eclipse/yagarto/bin/../lib/gcc/arm-none-eabi/4.6.2/../../../../arm-none-eabi/lib/thumb/v7m\libg.a(lib_a-impure.o)
 .comment       0x00000000       0x12 d:/elektronik/ides/eclipse/yagarto/bin/../lib/gcc/arm-none-eabi/4.6.2/../../../../arm-none-eabi/lib/thumb/v7m\libg.a(lib_a-init.o)
 .comment       0x00000000       0x12 d:/elektronik/ides/eclipse/yagarto/bin/../lib/gcc/arm-none-eabi/4.6.2/../../../../arm-none-eabi/lib/thumb/v7m\libg.a(lib_a-malloc.o)
 .comment       0x00000000       0x12 d:/elektronik/ides/eclipse/yagarto/bin/../lib/gcc/arm-none-eabi/4.6.2/../../../../arm-none-eabi/lib/thumb/v7m\libg.a(lib_a-mallocr.o)
 .comment       0x00000000       0x12 d:/elektronik/ides/eclipse/yagarto/bin/../lib/gcc/arm-none-eabi/4.6.2/../../../../arm-none-eabi/lib/thumb/v7m\libg.a(lib_a-memchr.o)
 .comment       0x00000000       0x12 d:/elektronik/ides/eclipse/yagarto/bin/../lib/gcc/arm-none-eabi/4.6.2/../../../../arm-none-eabi/lib/thumb/v7m\libg.a(lib_a-memcmp.o)
 .comment       0x00000000       0x12 d:/elektronik/ides/eclipse/yagarto/bin/../lib/gcc/arm-none-eabi/4.6.2/../../../../arm-none-eabi/lib/thumb/v7m\libg.a(lib_a-memcpy.o)
 .comment       0x00000000       0x12 d:/elektronik/ides/eclipse/yagarto/bin/../lib/gcc/arm-none-eabi/4.6.2/../../../../arm-none-eabi/lib/thumb/v7m\libg.a(lib_a-memmove.o)
 .comment       0x00000000       0x12 d:/elektronik/ides/eclipse/yagarto/bin/../lib/gcc/arm-none-eabi/4.6.2/../../../../arm-none-eabi/lib/thumb/v7m\libg.a(lib_a-memset.o)
 .comment       0x00000000       0x12 d:/elektronik/ides/eclipse/yagarto/bin/../lib/gcc/arm-none-eabi/4.6.2/../../../../arm-none-eabi/lib/thumb/v7m\libg.a(lib_a-putc.o)
 .comment       0x00000000       0x12 d:/elektronik/ides/eclipse/yagarto/bin/../lib/gcc/arm-none-eabi/4.6.2/../../../../arm-none-eabi/lib/thumb/v7m\libg.a(lib_a-realloc.o)
 .comment       0x00000000       0x12 d:/elektronik/ides/eclipse/yagarto/bin/../lib/gcc/arm-none-eabi/4.6.2/../../../../arm-none-eabi/lib/thumb/v7m\libg.a(lib_a-reallocr.o)
 .comment       0x00000000       0x12 d:/elektronik/ides/eclipse/yagarto/bin/../lib/gcc/arm-none-eabi/4.6.2/../../../../arm-none-eabi/lib/thumb/v7m\libg.a(lib_a-signal.o)
 .comment       0x00000000       0x12 d:/elektronik/ides/eclipse/yagarto/bin/../lib/gcc/arm-none-eabi/4.6.2/../../../../arm-none-eabi/lib/thumb/v7m\libg.a(lib_a-sprintf.o)
 .comment       0x00000000       0x12 d:/elektronik/ides/eclipse/yagarto/bin/../lib/gcc/arm-none-eabi/4.6.2/../../../../arm-none-eabi/lib/thumb/v7m\libg.a(lib_a-strcat.o)
 .comment       0x00000000       0x12 d:/elektronik/ides/eclipse/yagarto/bin/../lib/gcc/arm-none-eabi/4.6.2/../../../../arm-none-eabi/lib/thumb/v7m\libg.a(lib_a-strcmp.o)
 .comment       0x00000000       0x12 d:/elektronik/ides/eclipse/yagarto/bin/../lib/gcc/arm-none-eabi/4.6.2/../../../../arm-none-eabi/lib/thumb/v7m\libg.a(lib_a-strcpy.o)
 .comment       0x00000000       0x12 d:/elektronik/ides/eclipse/yagarto/bin/../lib/gcc/arm-none-eabi/4.6.2/../../../../arm-none-eabi/lib/thumb/v7m\libg.a(lib_a-strlen.o)
 .comment       0x00000000       0x12 d:/elektronik/ides/eclipse/yagarto/bin/../lib/gcc/arm-none-eabi/4.6.2/../../../../arm-none-eabi/lib/thumb/v7m\libg.a(lib_a-strncmp.o)
 .comment       0x00000000       0x12 d:/elektronik/ides/eclipse/yagarto/bin/../lib/gcc/arm-none-eabi/4.6.2/../../../../arm-none-eabi/lib/thumb/v7m\libg.a(lib_a-strncpy.o)
 .comment       0x00000000       0x12 d:/elektronik/ides/eclipse/yagarto/bin/../lib/gcc/arm-none-eabi/4.6.2/../../../../arm-none-eabi/lib/thumb/v7m\libg.a(lib_a-svfprintf.o)
 .comment       0x00000000       0x12 d:/elektronik/ides/eclipse/yagarto/bin/../lib/gcc/arm-none-eabi/4.6.2/../../../../arm-none-eabi/lib/thumb/v7m\libg.a(lib_a-syswrite.o)
 .comment       0x00000000       0x12 d:/elektronik/ides/eclipse/yagarto/bin/../lib/gcc/arm-none-eabi/4.6.2/../../../../arm-none-eabi/lib/thumb/v7m\libg.a(lib_a-vfiprintf.o)
 .comment       0x00000000       0x12 d:/elektronik/ides/eclipse/yagarto/bin/../lib/gcc/arm-none-eabi/4.6.2/../../../../arm-none-eabi/lib/thumb/v7m\libg.a(lib_a-wbuf.o)
 .comment       0x00000000       0x12 d:/elektronik/ides/eclipse/yagarto/bin/../lib/gcc/arm-none-eabi/4.6.2/../../../../arm-none-eabi/lib/thumb/v7m\libg.a(lib_a-wsetup.o)
 .comment       0x00000000       0x12 d:/elektronik/ides/eclipse/yagarto/bin/../lib/gcc/arm-none-eabi/4.6.2/../../../../arm-none-eabi/lib/thumb/v7m\libg.a(lib_a-__atexit.o)
 .comment       0x00000000       0x12 d:/elektronik/ides/eclipse/yagarto/bin/../lib/gcc/arm-none-eabi/4.6.2/../../../../arm-none-eabi/lib/thumb/v7m\libg.a(lib_a-__call_atexit.o)
 .comment       0x00000000       0x12 d:/elektronik/ides/eclipse/yagarto/bin/../lib/gcc/arm-none-eabi/4.6.2/../../../../arm-none-eabi/lib/thumb/v7m\libg.a(lib_a-dtoa.o)
 .comment       0x00000000       0x12 d:/elektronik/ides/eclipse/yagarto/bin/../lib/gcc/arm-none-eabi/4.6.2/../../../../arm-none-eabi/lib/thumb/v7m\libg.a(lib_a-fflush.o)
 .comment       0x00000000       0x12 d:/elektronik/ides/eclipse/yagarto/bin/../lib/gcc/arm-none-eabi/4.6.2/../../../../arm-none-eabi/lib/thumb/v7m\libg.a(lib_a-findfp.o)
 .comment       0x00000000       0x12 d:/elektronik/ides/eclipse/yagarto/bin/../lib/gcc/arm-none-eabi/4.6.2/../../../../arm-none-eabi/lib/thumb/v7m\libg.a(lib_a-fputwc.o)
 .comment       0x00000000       0x12 d:/elektronik/ides/eclipse/yagarto/bin/../lib/gcc/arm-none-eabi/4.6.2/../../../../arm-none-eabi/lib/thumb/v7m\libg.a(lib_a-freer.o)
 .comment       0x00000000       0x12 d:/elektronik/ides/eclipse/yagarto/bin/../lib/gcc/arm-none-eabi/4.6.2/../../../../arm-none-eabi/lib/thumb/v7m\libg.a(lib_a-fwalk.o)
 .comment       0x00000000       0x12 d:/elektronik/ides/eclipse/yagarto/bin/../lib/gcc/arm-none-eabi/4.6.2/../../../../arm-none-eabi/lib/thumb/v7m\libg.a(lib_a-locale.o)
 .comment       0x00000000       0x12 d:/elektronik/ides/eclipse/yagarto/bin/../lib/gcc/arm-none-eabi/4.6.2/../../../../arm-none-eabi/lib/thumb/v7m\libg.a(lib_a-makebuf.o)
 .comment       0x00000000       0x12 d:/elektronik/ides/eclipse/yagarto/bin/../lib/gcc/arm-none-eabi/4.6.2/../../../../arm-none-eabi/lib/thumb/v7m\libg.a(lib_a-mprec.o)
 .comment       0x00000000       0x12 d:/elektronik/ides/eclipse/yagarto/bin/../lib/gcc/arm-none-eabi/4.6.2/../../../../arm-none-eabi/lib/thumb/v7m\libg.a(lib_a-s_fpclassify.o)
 .comment       0x00000000       0x12 d:/elektronik/ides/eclipse/yagarto/bin/../lib/gcc/arm-none-eabi/4.6.2/../../../../arm-none-eabi/lib/thumb/v7m\libg.a(lib_a-stdio.o)
 .comment       0x00000000       0x12 d:/elektronik/ides/eclipse/yagarto/bin/../lib/gcc/arm-none-eabi/4.6.2/../../../../arm-none-eabi/lib/thumb/v7m\libg.a(lib_a-svfiprintf.o)
 .comment       0x00000000       0x12 d:/elektronik/ides/eclipse/yagarto/bin/../lib/gcc/arm-none-eabi/4.6.2/../../../../arm-none-eabi/lib/thumb/v7m\libg.a(lib_a-wcrtomb.o)
 .comment       0x00000000       0x12 d:/elektronik/ides/eclipse/yagarto/bin/../lib/gcc/arm-none-eabi/4.6.2/../../../../arm-none-eabi/lib/thumb/v7m\libg.a(lib_a-wctomb_r.o)
 .comment       0x00000000       0x12 d:/elektronik/ides/eclipse/yagarto/bin/../lib/gcc/arm-none-eabi/4.6.2/../../../../arm-none-eabi/lib/thumb/v7m\libg.a(lib_a-callocr.o)
 .comment       0x00000000       0x12 d:/elektronik/ides/eclipse/yagarto/bin/../lib/gcc/arm-none-eabi/4.6.2/../../../../arm-none-eabi/lib/thumb/v7m\libg.a(lib_a-fclose.o)
 .comment       0x00000000       0x12 d:/elektronik/ides/eclipse/yagarto/bin/../lib/gcc/arm-none-eabi/4.6.2/thumb/v7m/crtend.o

.debug_loc      0x00000000    0x209cd
 .debug_loc     0x00000000      0x118 ./STM32F4xx_StdPeriph_Driver/src/misc.o
 .debug_loc     0x00000118      0x838 ./STM32F4xx_StdPeriph_Driver/src/stm32f4xx_adc.o
 .debug_loc     0x00000950      0x578 ./STM32F4xx_StdPeriph_Driver/src/stm32f4xx_can.o
 .debug_loc     0x00000ec8      0x12c ./STM32F4xx_StdPeriph_Driver/src/stm32f4xx_crc.o
 .debug_loc     0x00000ff4      0x394 ./STM32F4xx_StdPeriph_Driver/src/stm32f4xx_cryp.o
 .debug_loc     0x00001388       0xae ./STM32F4xx_StdPeriph_Driver/src/stm32f4xx_cryp_aes.o
 .debug_loc     0x00001436       0x74 ./STM32F4xx_StdPeriph_Driver/src/stm32f4xx_cryp_des.o
 .debug_loc     0x000014aa       0x74 ./STM32F4xx_StdPeriph_Driver/src/stm32f4xx_cryp_tdes.o
 .debug_loc     0x0000151e      0x3ac ./STM32F4xx_StdPeriph_Driver/src/stm32f4xx_dac.o
 .debug_loc     0x000018ca      0x100 ./STM32F4xx_StdPeriph_Driver/src/stm32f4xx_dbgmcu.o
 .debug_loc     0x000019ca      0x330 ./STM32F4xx_StdPeriph_Driver/src/stm32f4xx_dcmi.o
 .debug_loc     0x00001cfa      0x428 ./STM32F4xx_StdPeriph_Driver/src/stm32f4xx_dma.o
 .debug_loc     0x00002122      0x1b4 ./STM32F4xx_StdPeriph_Driver/src/stm32f4xx_exti.o
 .debug_loc     0x000022d6      0x624 ./STM32F4xx_StdPeriph_Driver/src/stm32f4xx_flash.o
 .debug_loc     0x000028fa      0x41c ./STM32F4xx_StdPeriph_Driver/src/stm32f4xx_fsmc.o
 .debug_loc     0x00002d16      0x310 ./STM32F4xx_StdPeriph_Driver/src/stm32f4xx_gpio.o
 .debug_loc     0x00003026      0x388 ./STM32F4xx_StdPeriph_Driver/src/stm32f4xx_hash.o
 .debug_loc     0x000033ae       0x74 ./STM32F4xx_StdPeriph_Driver/src/stm32f4xx_hash_md5.o
 .debug_loc     0x00003422       0x74 ./STM32F4xx_StdPeriph_Driver/src/stm32f4xx_hash_sha1.o
 .debug_loc     0x00003496      0x738 ./STM32F4xx_StdPeriph_Driver/src/stm32f4xx_i2c.o
 .debug_loc     0x00003bce      0x138 ./STM32F4xx_StdPeriph_Driver/src/stm32f4xx_iwdg.o
 .debug_loc     0x00003d06      0x288 ./STM32F4xx_StdPeriph_Driver/src/stm32f4xx_pwr.o
 .debug_loc     0x00003f8e      0x97c ./STM32F4xx_StdPeriph_Driver/src/stm32f4xx_rcc.o
 .debug_loc     0x0000490a      0x1a8 ./STM32F4xx_StdPeriph_Driver/src/stm32f4xx_rng.o
 .debug_loc     0x00004ab2      0xc48 ./STM32F4xx_StdPeriph_Driver/src/stm32f4xx_rtc.o
 .debug_loc     0x000056fa      0x648 ./STM32F4xx_StdPeriph_Driver/src/stm32f4xx_sdio.o
 .debug_loc     0x00005d42      0x578 ./STM32F4xx_StdPeriph_Driver/src/stm32f4xx_spi.o
 .debug_loc     0x000062ba      0x144 ./STM32F4xx_StdPeriph_Driver/src/stm32f4xx_syscfg.o
 .debug_loc     0x000063fe     0x1420 ./STM32F4xx_StdPeriph_Driver/src/stm32f4xx_tim.o
 .debug_loc     0x0000781e      0x658 ./STM32F4xx_StdPeriph_Driver/src/stm32f4xx_usart.o
 .debug_loc     0x00007e76      0x19c ./STM32F4xx_StdPeriph_Driver/src/stm32f4xx_wwdg.o
 .debug_loc     0x00008012      0x150 ./STM32F4-Discovery/stm32f4_discovery.o
 .debug_loc     0x00008162      0x730 ./STM32F4-Discovery/stm32f4_discovery_audio_codec.o
 .debug_loc     0x00008892      0x2a0 ./STM32F4-Discovery/stm32f4_discovery_lis302dl.o
 .debug_loc     0x00008b32      0x1c0 ./Menue/CMenue.o
 .debug_loc     0x00008cf2      0x150 ./GraphicLCD/CGraphicLCD.o
 .debug_loc     0x00008e42      0x3fe ./GraphicLCD/CT6963CDriver.o
 .debug_loc     0x00009240      0x1f8 ./GraphicLCD/CT6963GPIOInterface.o
 .debug_loc     0x00009438      0x350 ./FreeRTOS_EC/Source/AManagedTask.o
 .debug_loc     0x00009788      0x1c0 ./FreeRTOS_EC/Source/ASyncObject.o
 .debug_loc     0x00009948      0x1f8 ./FreeRTOS_EC/Source/CBinarySemaphore.o
 .debug_loc     0x00009b40      0x1f8 ./FreeRTOS_EC/Source/CCountingSemaphore.o
 .debug_loc     0x00009d38       0x9c ./FreeRTOS_EC/Source/CFreeRTOS.o
 .debug_loc     0x00009dd4      0x460 ./FreeRTOS_EC/Source/CMessageTask.o
 .debug_loc     0x0000a234      0x1f8 ./FreeRTOS_EC/Source/CMutex.o
 .debug_loc     0x0000a42c      0x230 ./FreeRTOS_EC/Source/CQueue.o
 .debug_loc     0x0000a65c      0x1f8 ./FreeRTOS_EC/Source/CRecursiveMutex.o
 .debug_loc     0x0000a854      0x268 ./FreeRTOS_EC/Source/CTask.o
 .debug_loc     0x0000aabc      0x178 ./FreeRTOS/Source/portable/GCC/ARM_CM4F/port.o
 .debug_loc     0x0000ac34      0x188 ./FreeRTOS/Source/croutine.o
 .debug_loc     0x0000adbc      0x118 ./FreeRTOS/Source/list.o
 .debug_loc     0x0000aed4      0x380 ./FreeRTOS/Source/queue.o
 .debug_loc     0x0000b254      0x8f6 ./FreeRTOS/Source/tasks.o
 .debug_loc     0x0000bb4a      0x118 ./Fatfs/FatFs/src/diskio.o
 .debug_loc     0x0000bc62      0x97c ./Fatfs/FatFs/src/ff.o
 .debug_loc     0x0000c5de       0xa8 ./Fatfs/CFileHandler.o
 .debug_loc     0x0000c686       0x2c ./Fatfs/fattime.o
 .debug_loc     0x0000c6b2      0x85c ./Fatfs/stm32f4_sdio.o
 .debug_loc     0x0000cf0e      0x1c0 ./CLedHeartBeatSTM32F4Disc.o
 .debug_loc     0x0000d0ce      0x2b0 ./main.o
 .debug_loc     0x0000d37e      0x160 ./stm32f4xx_it.o
 .debug_loc     0x0000d4de      0x2a0 ./syscalls.o
 .debug_loc     0x0000d77e       0x9c ./system_stm32f4xx.o
 .debug_loc     0x0000d81a       0xe0 ./ustime.o
 .debug_loc     0x0000d8fa       0x4f d:/elektronik/ides/eclipse/yagarto/bin/../lib/gcc/arm-none-eabi/4.6.2/../../../../arm-none-eabi/lib/thumb/v7m\libstdc++.a(atexit_arm.o)
 .debug_loc     0x0000d949       0x1e d:/elektronik/ides/eclipse/yagarto/bin/../lib/gcc/arm-none-eabi/4.6.2/../../../../arm-none-eabi/lib/thumb/v7m\libstdc++.a(del_op.o)
 .debug_loc     0x0000d967       0x20 d:/elektronik/ides/eclipse/yagarto/bin/../lib/gcc/arm-none-eabi/4.6.2/../../../../arm-none-eabi/lib/thumb/v7m\libstdc++.a(pure.o)
 .debug_loc     0x0000d987       0xe4 d:/elektronik/ides/eclipse/yagarto/bin/../lib/gcc/arm-none-eabi/4.6.2/../../../../arm-none-eabi/lib/thumb/v7m\libstdc++.a(eh_terminate.o)
 .debug_loc     0x0000da6b       0xfa d:/elektronik/ides/eclipse/yagarto/bin/../lib/gcc/arm-none-eabi/4.6.2/../../../../arm-none-eabi/lib/thumb/v7m\libstdc++.a(vterminate.o)
 .debug_loc     0x0000db65     0x13f0 d:/elektronik/ides/eclipse/yagarto/bin/../lib/gcc/arm-none-eabi/4.6.2/../../../../arm-none-eabi/lib/thumb/v7m\libstdc++.a(cp-demangle.o)
 .debug_loc     0x0000ef55      0x2c0 d:/elektronik/ides/eclipse/yagarto/bin/../lib/gcc/arm-none-eabi/4.6.2/../../../../arm-none-eabi/lib/thumb/v7m\libstdc++.a(eh_arm.o)
 .debug_loc     0x0000f215       0x66 d:/elektronik/ides/eclipse/yagarto/bin/../lib/gcc/arm-none-eabi/4.6.2/../../../../arm-none-eabi/lib/thumb/v7m\libstdc++.a(eh_aux_runtime.o)
 .debug_loc     0x0000f27b      0x3d7 d:/elektronik/ides/eclipse/yagarto/bin/../lib/gcc/arm-none-eabi/4.6.2/../../../../arm-none-eabi/lib/thumb/v7m\libstdc++.a(eh_call.o)
 .debug_loc     0x0000f652      0x29a d:/elektronik/ides/eclipse/yagarto/bin/../lib/gcc/arm-none-eabi/4.6.2/../../../../arm-none-eabi/lib/thumb/v7m\libstdc++.a(eh_catch.o)
 .debug_loc     0x0000f8ec      0x175 d:/elektronik/ides/eclipse/yagarto/bin/../lib/gcc/arm-none-eabi/4.6.2/../../../../arm-none-eabi/lib/thumb/v7m\libstdc++.a(eh_exception.o)
 .debug_loc     0x0000fa61     0x1643 d:/elektronik/ides/eclipse/yagarto/bin/../lib/gcc/arm-none-eabi/4.6.2/../../../../arm-none-eabi/lib/thumb/v7m\libstdc++.a(eh_personality.o)
 .debug_loc     0x000110a4      0x1b0 d:/elektronik/ides/eclipse/yagarto/bin/../lib/gcc/arm-none-eabi/4.6.2/../../../../arm-none-eabi/lib/thumb/v7m\libstdc++.a(eh_throw.o)
 .debug_loc     0x00011254       0x51 d:/elektronik/ides/eclipse/yagarto/bin/../lib/gcc/arm-none-eabi/4.6.2/../../../../arm-none-eabi/lib/thumb/v7m\libstdc++.a(eh_type.o)
 .debug_loc     0x000112a5       0x8f d:/elektronik/ides/eclipse/yagarto/bin/../lib/gcc/arm-none-eabi/4.6.2/../../../../arm-none-eabi/lib/thumb/v7m\libstdc++.a(fundamental_type_info.o)
 .debug_loc     0x00011334      0x1b5 d:/elektronik/ides/eclipse/yagarto/bin/../lib/gcc/arm-none-eabi/4.6.2/../../../../arm-none-eabi/lib/thumb/v7m\libstdc++.a(pointer_type_info.o)
 .debug_loc     0x000114e9      0x441 d:/elektronik/ides/eclipse/yagarto/bin/../lib/gcc/arm-none-eabi/4.6.2/../../../../arm-none-eabi/lib/thumb/v7m\libstdc++.a(si_class_type_info.o)
 .debug_loc     0x0001192a      0x13d d:/elektronik/ides/eclipse/yagarto/bin/../lib/gcc/arm-none-eabi/4.6.2/../../../../arm-none-eabi/lib/thumb/v7m\libstdc++.a(tinfo.o)
 .debug_loc     0x00011a67       0xa2 d:/elektronik/ides/eclipse/yagarto/bin/../lib/gcc/arm-none-eabi/4.6.2/../../../../arm-none-eabi/lib/thumb/v7m\libstdc++.a(bad_cast.o)
 .debug_loc     0x00011b09       0xad d:/elektronik/ides/eclipse/yagarto/bin/../lib/gcc/arm-none-eabi/4.6.2/../../../../arm-none-eabi/lib/thumb/v7m\libstdc++.a(bad_typeid.o)
 .debug_loc     0x00011bb6      0x341 d:/elektronik/ides/eclipse/yagarto/bin/../lib/gcc/arm-none-eabi/4.6.2/../../../../arm-none-eabi/lib/thumb/v7m\libstdc++.a(class_type_info.o)
 .debug_loc     0x00011ef7      0x2f6 d:/elektronik/ides/eclipse/yagarto/bin/../lib/gcc/arm-none-eabi/4.6.2/../../../../arm-none-eabi/lib/thumb/v7m\libstdc++.a(eh_alloc.o)
 .debug_loc     0x000121ed      0x26f d:/elektronik/ides/eclipse/yagarto/bin/../lib/gcc/arm-none-eabi/4.6.2/../../../../arm-none-eabi/lib/thumb/v7m\libstdc++.a(pbase_type_info.o)
 .debug_loc     0x0001245c     0x1377 d:/elektronik/ides/eclipse/yagarto/bin/../lib/gcc/arm-none-eabi/4.6.2/thumb/v7m\libgcc.a(unwind-arm.o)
 .debug_loc     0x000137d3      0x58a d:/elektronik/ides/eclipse/yagarto/bin/../lib/gcc/arm-none-eabi/4.6.2/thumb/v7m\libgcc.a(pr-support.o)
 .debug_loc     0x00013d5d       0x20 d:/elektronik/ides/eclipse/yagarto/bin/../lib/gcc/arm-none-eabi/4.6.2/../../../../arm-none-eabi/lib/thumb/v7m\libg.a(lib_a-abort.o)
 .debug_loc     0x00013d7d      0x11f d:/elektronik/ides/eclipse/yagarto/bin/../lib/gcc/arm-none-eabi/4.6.2/../../../../arm-none-eabi/lib/thumb/v7m\libg.a(lib_a-assert.o)
 .debug_loc     0x00013e9c       0x1e d:/elektronik/ides/eclipse/yagarto/bin/../lib/gcc/arm-none-eabi/4.6.2/../../../../arm-none-eabi/lib/thumb/v7m\libg.a(lib_a-atexit.o)
 .debug_loc     0x00013eba       0x7a d:/elektronik/ides/eclipse/yagarto/bin/../lib/gcc/arm-none-eabi/4.6.2/../../../../arm-none-eabi/lib/thumb/v7m\libg.a(lib_a-cxa_atexit.o)
 .debug_loc     0x00013f34       0x3e d:/elektronik/ides/eclipse/yagarto/bin/../lib/gcc/arm-none-eabi/4.6.2/../../../../arm-none-eabi/lib/thumb/v7m\libg.a(lib_a-exit.o)
 .debug_loc     0x00013f72       0x71 d:/elektronik/ides/eclipse/yagarto/bin/../lib/gcc/arm-none-eabi/4.6.2/../../../../arm-none-eabi/lib/thumb/v7m\libg.a(lib_a-fini.o)
 .debug_loc     0x00013fe3       0xb4 d:/elektronik/ides/eclipse/yagarto/bin/../lib/gcc/arm-none-eabi/4.6.2/../../../../arm-none-eabi/lib/thumb/v7m\libg.a(lib_a-fiprintf.o)
 .debug_loc     0x00014097       0xcc d:/elektronik/ides/eclipse/yagarto/bin/../lib/gcc/arm-none-eabi/4.6.2/../../../../arm-none-eabi/lib/thumb/v7m\libg.a(lib_a-fputc.o)
 .debug_loc     0x00014163       0xca d:/elektronik/ides/eclipse/yagarto/bin/../lib/gcc/arm-none-eabi/4.6.2/../../../../arm-none-eabi/lib/thumb/v7m\libg.a(lib_a-fputs.o)
 .debug_loc     0x0001422d      0x5a8 d:/elektronik/ides/eclipse/yagarto/bin/../lib/gcc/arm-none-eabi/4.6.2/../../../../arm-none-eabi/lib/thumb/v7m\libg.a(lib_a-fvwrite.o)
 .debug_loc     0x000147d5      0x153 d:/elektronik/ides/eclipse/yagarto/bin/../lib/gcc/arm-none-eabi/4.6.2/../../../../arm-none-eabi/lib/thumb/v7m\libg.a(lib_a-fwrite.o)
 .debug_loc     0x00014928       0x7c d:/elektronik/ides/eclipse/yagarto/bin/../lib/gcc/arm-none-eabi/4.6.2/../../../../arm-none-eabi/lib/thumb/v7m\libg.a(lib_a-init.o)
 .debug_loc     0x000149a4       0x3c d:/elektronik/ides/eclipse/yagarto/bin/../lib/gcc/arm-none-eabi/4.6.2/../../../../arm-none-eabi/lib/thumb/v7m\libg.a(lib_a-malloc.o)
 .debug_loc     0x000149e0      0x995 d:/elektronik/ides/eclipse/yagarto/bin/../lib/gcc/arm-none-eabi/4.6.2/../../../../arm-none-eabi/lib/thumb/v7m\libg.a(lib_a-mallocr.o)
 .debug_loc     0x00015375      0x13f d:/elektronik/ides/eclipse/yagarto/bin/../lib/gcc/arm-none-eabi/4.6.2/../../../../arm-none-eabi/lib/thumb/v7m\libg.a(lib_a-memchr.o)
 .debug_loc     0x000154b4       0xd3 d:/elektronik/ides/eclipse/yagarto/bin/../lib/gcc/arm-none-eabi/4.6.2/../../../../arm-none-eabi/lib/thumb/v7m\libg.a(lib_a-memcmp.o)
 .debug_loc     0x00015587      0x1cc d:/elektronik/ides/eclipse/yagarto/bin/../lib/gcc/arm-none-eabi/4.6.2/../../../../arm-none-eabi/lib/thumb/v7m\libg.a(lib_a-memcpy.o)
 .debug_loc     0x00015753      0x251 d:/elektronik/ides/eclipse/yagarto/bin/../lib/gcc/arm-none-eabi/4.6.2/../../../../arm-none-eabi/lib/thumb/v7m\libg.a(lib_a-memmove.o)
 .debug_loc     0x000159a4      0x1fb d:/elektronik/ides/eclipse/yagarto/bin/../lib/gcc/arm-none-eabi/4.6.2/../../../../arm-none-eabi/lib/thumb/v7m\libg.a(lib_a-memset.o)
 .debug_loc     0x00015b9f       0xfc d:/elektronik/ides/eclipse/yagarto/bin/../lib/gcc/arm-none-eabi/4.6.2/../../../../arm-none-eabi/lib/thumb/v7m\libg.a(lib_a-putc.o)
 .debug_loc     0x00015c9b       0x3c d:/elektronik/ides/eclipse/yagarto/bin/../lib/gcc/arm-none-eabi/4.6.2/../../../../arm-none-eabi/lib/thumb/v7m\libg.a(lib_a-realloc.o)
 .debug_loc     0x00015cd7      0xb8a d:/elektronik/ides/eclipse/yagarto/bin/../lib/gcc/arm-none-eabi/4.6.2/../../../../arm-none-eabi/lib/thumb/v7m\libg.a(lib_a-reallocr.o)
 .debug_loc     0x00016861      0x2ba d:/elektronik/ides/eclipse/yagarto/bin/../lib/gcc/arm-none-eabi/4.6.2/../../../../arm-none-eabi/lib/thumb/v7m\libg.a(lib_a-signal.o)
 .debug_loc     0x00016b1b       0xd9 d:/elektronik/ides/eclipse/yagarto/bin/../lib/gcc/arm-none-eabi/4.6.2/../../../../arm-none-eabi/lib/thumb/v7m\libg.a(lib_a-sprintf.o)
 .debug_loc     0x00016bf4       0xb9 d:/elektronik/ides/eclipse/yagarto/bin/../lib/gcc/arm-none-eabi/4.6.2/../../../../arm-none-eabi/lib/thumb/v7m\libg.a(lib_a-strcat.o)
 .debug_loc     0x00016cad       0x26 d:/elektronik/ides/eclipse/yagarto/bin/../lib/gcc/arm-none-eabi/4.6.2/../../../../arm-none-eabi/lib/thumb/v7m\libg.a(lib_a-strcmp.o)
 .debug_loc     0x00016cd3       0x13 d:/elektronik/ides/eclipse/yagarto/bin/../lib/gcc/arm-none-eabi/4.6.2/../../../../arm-none-eabi/lib/thumb/v7m\libg.a(lib_a-strcpy.o)
 .debug_loc     0x00016ce6       0x13 d:/elektronik/ides/eclipse/yagarto/bin/../lib/gcc/arm-none-eabi/4.6.2/../../../../arm-none-eabi/lib/thumb/v7m\libg.a(lib_a-strlen.o)
 .debug_loc     0x00016cf9      0x16e d:/elektronik/ides/eclipse/yagarto/bin/../lib/gcc/arm-none-eabi/4.6.2/../../../../arm-none-eabi/lib/thumb/v7m\libg.a(lib_a-strncmp.o)
 .debug_loc     0x00016e67       0xe3 d:/elektronik/ides/eclipse/yagarto/bin/../lib/gcc/arm-none-eabi/4.6.2/../../../../arm-none-eabi/lib/thumb/v7m\libg.a(lib_a-strncpy.o)
 .debug_loc     0x00016f4a     0x2325 d:/elektronik/ides/eclipse/yagarto/bin/../lib/gcc/arm-none-eabi/4.6.2/../../../../arm-none-eabi/lib/thumb/v7m\libg.a(lib_a-svfprintf.o)
 .debug_loc     0x0001926f       0x7a d:/elektronik/ides/eclipse/yagarto/bin/../lib/gcc/arm-none-eabi/4.6.2/../../../../arm-none-eabi/lib/thumb/v7m\libg.a(lib_a-syswrite.o)
 .debug_loc     0x000192e9     0x14dd d:/elektronik/ides/eclipse/yagarto/bin/../lib/gcc/arm-none-eabi/4.6.2/../../../../arm-none-eabi/lib/thumb/v7m\libg.a(lib_a-vfiprintf.o)
 .debug_loc     0x0001a7c6      0x128 d:/elektronik/ides/eclipse/yagarto/bin/../lib/gcc/arm-none-eabi/4.6.2/../../../../arm-none-eabi/lib/thumb/v7m\libg.a(lib_a-wbuf.o)
 .debug_loc     0x0001a8ee       0x5c d:/elektronik/ides/eclipse/yagarto/bin/../lib/gcc/arm-none-eabi/4.6.2/../../../../arm-none-eabi/lib/thumb/v7m\libg.a(lib_a-wsetup.o)
 .debug_loc     0x0001a94a      0x114 d:/elektronik/ides/eclipse/yagarto/bin/../lib/gcc/arm-none-eabi/4.6.2/../../../../arm-none-eabi/lib/thumb/v7m\libg.a(lib_a-__atexit.o)
 .debug_loc     0x0001aa5e      0x1b5 d:/elektronik/ides/eclipse/yagarto/bin/../lib/gcc/arm-none-eabi/4.6.2/../../../../arm-none-eabi/lib/thumb/v7m\libg.a(lib_a-__call_atexit.o)
 .debug_loc     0x0001ac13     0x1ea0 d:/elektronik/ides/eclipse/yagarto/bin/../lib/gcc/arm-none-eabi/4.6.2/../../../../arm-none-eabi/lib/thumb/v7m\libg.a(lib_a-dtoa.o)
 .debug_loc     0x0001cab3      0x1f5 d:/elektronik/ides/eclipse/yagarto/bin/../lib/gcc/arm-none-eabi/4.6.2/../../../../arm-none-eabi/lib/thumb/v7m\libg.a(lib_a-fflush.o)
 .debug_loc     0x0001cca8      0x256 d:/elektronik/ides/eclipse/yagarto/bin/../lib/gcc/arm-none-eabi/4.6.2/../../../../arm-none-eabi/lib/thumb/v7m\libg.a(lib_a-findfp.o)
 .debug_loc     0x0001cefe      0x173 d:/elektronik/ides/eclipse/yagarto/bin/../lib/gcc/arm-none-eabi/4.6.2/../../../../arm-none-eabi/lib/thumb/v7m\libg.a(lib_a-fputwc.o)
 .debug_loc     0x0001d071      0x421 d:/elektronik/ides/eclipse/yagarto/bin/../lib/gcc/arm-none-eabi/4.6.2/../../../../arm-none-eabi/lib/thumb/v7m\libg.a(lib_a-freer.o)
 .debug_loc     0x0001d492      0x259 d:/elektronik/ides/eclipse/yagarto/bin/../lib/gcc/arm-none-eabi/4.6.2/../../../../arm-none-eabi/lib/thumb/v7m\libg.a(lib_a-fwalk.o)
 .debug_loc     0x0001d6eb       0xb3 d:/elektronik/ides/eclipse/yagarto/bin/../lib/gcc/arm-none-eabi/4.6.2/../../../../arm-none-eabi/lib/thumb/v7m\libg.a(lib_a-locale.o)
 .debug_loc     0x0001d79e      0x118 d:/elektronik/ides/eclipse/yagarto/bin/../lib/gcc/arm-none-eabi/4.6.2/../../../../arm-none-eabi/lib/thumb/v7m\libg.a(lib_a-makebuf.o)
 .debug_loc     0x0001d8b6     0x1799 d:/elektronik/ides/eclipse/yagarto/bin/../lib/gcc/arm-none-eabi/4.6.2/../../../../arm-none-eabi/lib/thumb/v7m\libg.a(lib_a-mprec.o)
 .debug_loc     0x0001f04f       0xa0 d:/elektronik/ides/eclipse/yagarto/bin/../lib/gcc/arm-none-eabi/4.6.2/../../../../arm-none-eabi/lib/thumb/v7m\libg.a(lib_a-s_fpclassify.o)
 .debug_loc     0x0001f0ef      0x219 d:/elektronik/ides/eclipse/yagarto/bin/../lib/gcc/arm-none-eabi/4.6.2/../../../../arm-none-eabi/lib/thumb/v7m\libg.a(lib_a-stdio.o)
 .debug_loc     0x0001f308     0x121a d:/elektronik/ides/eclipse/yagarto/bin/../lib/gcc/arm-none-eabi/4.6.2/../../../../arm-none-eabi/lib/thumb/v7m\libg.a(lib_a-svfiprintf.o)
 .debug_loc     0x00020522      0x1a1 d:/elektronik/ides/eclipse/yagarto/bin/../lib/gcc/arm-none-eabi/4.6.2/../../../../arm-none-eabi/lib/thumb/v7m\libg.a(lib_a-wcrtomb.o)
 .debug_loc     0x000206c3       0xfb d:/elektronik/ides/eclipse/yagarto/bin/../lib/gcc/arm-none-eabi/4.6.2/../../../../arm-none-eabi/lib/thumb/v7m\libg.a(lib_a-wctomb_r.o)
 .debug_loc     0x000207be      0x16c d:/elektronik/ides/eclipse/yagarto/bin/../lib/gcc/arm-none-eabi/4.6.2/../../../../arm-none-eabi/lib/thumb/v7m\libg.a(lib_a-callocr.o)
 .debug_loc     0x0002092a       0xa3 d:/elektronik/ides/eclipse/yagarto/bin/../lib/gcc/arm-none-eabi/4.6.2/../../../../arm-none-eabi/lib/thumb/v7m\libg.a(lib_a-fclose.o)

.debug_macinfo  0x00000000  0x1659ddb
 .debug_macinfo
                0x00000000    0x5971e ./STM32F4xx_StdPeriph_Driver/src/misc.o
 .debug_macinfo
                0x0005971e    0x59a0c ./STM32F4xx_StdPeriph_Driver/src/stm32f4xx_adc.o
 .debug_macinfo
                0x000b312a    0x598fa ./STM32F4xx_StdPeriph_Driver/src/stm32f4xx_can.o
 .debug_macinfo
                0x0010ca24    0x596f2 ./STM32F4xx_StdPeriph_Driver/src/stm32f4xx_crc.o
 .debug_macinfo
                0x00166116    0x59732 ./STM32F4xx_StdPeriph_Driver/src/stm32f4xx_cryp.o
 .debug_macinfo
                0x001bf848    0x5971c ./STM32F4xx_StdPeriph_Driver/src/stm32f4xx_cryp_aes.o
 .debug_macinfo
                0x00218f64    0x5971c ./STM32F4xx_StdPeriph_Driver/src/stm32f4xx_cryp_des.o
 .debug_macinfo
                0x00272680    0x5971d ./STM32F4xx_StdPeriph_Driver/src/stm32f4xx_cryp_tdes.o
 .debug_macinfo
                0x002cbd9d    0x59810 ./STM32F4xx_StdPeriph_Driver/src/stm32f4xx_dac.o
 .debug_macinfo
                0x003255ad    0x5971d ./STM32F4xx_StdPeriph_Driver/src/stm32f4xx_dbgmcu.o
 .debug_macinfo
                0x0037ecca    0x596f2 ./STM32F4xx_StdPeriph_Driver/src/stm32f4xx_dcmi.o
 .debug_macinfo
                0x003d83bc    0x59a32 ./STM32F4xx_StdPeriph_Driver/src/stm32f4xx_dma.o
 .debug_macinfo
                0x00431dee    0x59716 ./STM32F4xx_StdPeriph_Driver/src/stm32f4xx_exti.o
 .debug_macinfo
                0x0048b504    0x59717 ./STM32F4xx_StdPeriph_Driver/src/stm32f4xx_flash.o
 .debug_macinfo
                0x004e4c1b    0x59837 ./STM32F4xx_StdPeriph_Driver/src/stm32f4xx_fsmc.o
 .debug_macinfo
                0x0053e452    0x596f2 ./STM32F4xx_StdPeriph_Driver/src/stm32f4xx_gpio.o
 .debug_macinfo
                0x00597b44    0x596f2 ./STM32F4xx_StdPeriph_Driver/src/stm32f4xx_hash.o
 .debug_macinfo
                0x005f1236    0x5971c ./STM32F4xx_StdPeriph_Driver/src/stm32f4xx_hash_md5.o
 .debug_macinfo
                0x0064a952    0x5971d ./STM32F4xx_StdPeriph_Driver/src/stm32f4xx_hash_sha1.o
 .debug_macinfo
                0x006a406f    0x5975c ./STM32F4xx_StdPeriph_Driver/src/stm32f4xx_i2c.o
 .debug_macinfo
                0x006fd7cb    0x59738 ./STM32F4xx_StdPeriph_Driver/src/stm32f4xx_iwdg.o
 .debug_macinfo
                0x00756f03    0x599d7 ./STM32F4xx_StdPeriph_Driver/src/stm32f4xx_pwr.o
 .debug_macinfo
                0x007b08da    0x59bfe ./STM32F4xx_StdPeriph_Driver/src/stm32f4xx_rcc.o
 .debug_macinfo
                0x0080a4d8    0x596f2 ./STM32F4xx_StdPeriph_Driver/src/stm32f4xx_rng.o
 .debug_macinfo
                0x00863bca    0x59933 ./STM32F4xx_StdPeriph_Driver/src/stm32f4xx_rtc.o
 .debug_macinfo
                0x008bd4fd    0x59c9b ./STM32F4xx_StdPeriph_Driver/src/stm32f4xx_sdio.o
 .debug_macinfo
                0x00917198    0x597df ./STM32F4xx_StdPeriph_Driver/src/stm32f4xx_spi.o
 .debug_macinfo
                0x00970977    0x59860 ./STM32F4xx_StdPeriph_Driver/src/stm32f4xx_syscfg.o
 .debug_macinfo
                0x009ca1d7    0x597cb ./STM32F4xx_StdPeriph_Driver/src/stm32f4xx_tim.o
 .debug_macinfo
                0x00a239a2    0x5981e ./STM32F4xx_StdPeriph_Driver/src/stm32f4xx_usart.o
 .debug_macinfo
                0x00a7d1c0    0x59800 ./STM32F4xx_StdPeriph_Driver/src/stm32f4xx_wwdg.o
 .debug_macinfo
                0x00ad69c0    0x5997b ./STM32F4-Discovery/stm32f4_discovery.o
 .debug_macinfo
                0x00b3033b    0x5a338 ./STM32F4-Discovery/stm32f4_discovery_audio_codec.o
 .debug_macinfo
                0x00b8a673    0x5a8fb ./STM32F4-Discovery/stm32f4_discovery_lis302dl.o
 .debug_macinfo
                0x00be4f6e    0x5b72e ./Menue/CMenue.o
 .debug_macinfo
                0x00c4069c     0x1770 ./GraphicLCD/CGraphicLCD.o
 .debug_macinfo
                0x00c41e0c     0x1788 ./GraphicLCD/CT6963CDriver.o
 .debug_macinfo
                0x00c43594    0x5bb43 ./GraphicLCD/CT6963GPIOInterface.o
 .debug_macinfo
                0x00c9f0d7     0x1786 ./GraphicLCD/SansSerif12.o
 .debug_macinfo
                0x00ca085d    0x5b6ff ./FreeRTOS_EC/Source/AManagedTask.o
 .debug_macinfo
                0x00cfbf5c    0x5c0ac ./FreeRTOS_EC/Source/ASyncObject.o
 .debug_macinfo
                0x00d58008    0x5c06b ./FreeRTOS_EC/Source/ATimer.o
 .debug_macinfo
                0x00db4073    0x5c12e ./FreeRTOS_EC/Source/CBinarySemaphore.o
 .debug_macinfo
                0x00e101a1    0x5c130 ./FreeRTOS_EC/Source/CCountingSemaphore.o
 .debug_macinfo
                0x00e6c2d1    0x5b6ff ./FreeRTOS_EC/Source/CFreeRTOS.o
 .debug_macinfo
                0x00ec79d0    0x5e844 ./FreeRTOS_EC/Source/CMessageTask.o
 .debug_macinfo
                0x00f26214    0x5c0bd ./FreeRTOS_EC/Source/CMutex.o
 .debug_macinfo
                0x00f822d1    0x5ba8b ./FreeRTOS_EC/Source/CQueue.o
 .debug_macinfo
                0x00fddd5c    0x5c0c6 ./FreeRTOS_EC/Source/CRecursiveMutex.o
 .debug_macinfo
                0x01039e22    0x5baca ./FreeRTOS_EC/Source/CTask.o
 .debug_macinfo
                0x010958ec    0x5b8e5 ./FreeRTOS/Source/portable/GCC/ARM_CM4F/port.o
 .debug_macinfo
                0x010f11d1    0x5bd8a ./FreeRTOS/Source/croutine.o
 .debug_macinfo
                0x0114cf5b    0x5ce33 ./FreeRTOS/Source/list.o
 .debug_macinfo
                0x011a9d8e    0x5d542 ./FreeRTOS/Source/queue.o
 .debug_macinfo
                0x012072d0    0x5eab3 ./FreeRTOS/Source/tasks.o
 .debug_macinfo
                0x01265d83    0x5c37f ./FreeRTOS/Source/timers.o
 .debug_macinfo
                0x012c2102    0x5e11a ./Fatfs/FatFs/src/option/syscall.o
 .debug_macinfo
                0x0132021c    0x5a68c ./Fatfs/FatFs/src/diskio.o
 .debug_macinfo
                0x0137a8a8     0x22a8 ./Fatfs/FatFs/src/ff.o
 .debug_macinfo
                0x0137cb50    0x5c56c ./Fatfs/CFileHandler.o
 .debug_macinfo
                0x013d90bc     0x171d ./Fatfs/fattime.o
 .debug_macinfo
                0x013da7d9    0x5ad41 ./Fatfs/stm32f4_sdio.o
 .debug_macinfo
                0x0143551a    0x5b99b ./CLedHeartBeatSTM32F4Disc.o
 .debug_macinfo
                0x01490eb5    0x5b78f ./main.o
 .debug_macinfo
                0x014ec644    0x5a517 ./stm32f4xx_it.o
 .debug_macinfo
                0x01546b5b    0x5ec39 ./syscalls.o
 .debug_macinfo
                0x015a5794    0x59752 ./system_stm32f4xx.o
 .debug_macinfo
                0x015feee6    0x5aef5 ./ustime.o

.debug_str      0x00000000    0x10d90
 .debug_str     0x00000000      0x30d ./STM32F4xx_StdPeriph_Driver/src/misc.o
                                0x36e (size before relaxing)
 .debug_str     0x0000030d      0x633 ./STM32F4xx_StdPeriph_Driver/src/stm32f4xx_adc.o
                                0x799 (size before relaxing)
 .debug_str     0x00000940      0x517 ./STM32F4xx_StdPeriph_Driver/src/stm32f4xx_can.o
                                0x6d3 (size before relaxing)
 .debug_str     0x00000e57       0xb3 ./STM32F4xx_StdPeriph_Driver/src/stm32f4xx_crc.o
                                0x1e0 (size before relaxing)
 .debug_str     0x00000f0a      0x39e ./STM32F4xx_StdPeriph_Driver/src/stm32f4xx_cryp.o
                                0x552 (size before relaxing)
 .debug_str     0x000012a8       0xff ./STM32F4xx_StdPeriph_Driver/src/stm32f4xx_cryp_aes.o
                                0x37c (size before relaxing)
 .debug_str     0x000013a7       0x51 ./STM32F4xx_StdPeriph_Driver/src/stm32f4xx_cryp_des.o
                                0x367 (size before relaxing)
 .debug_str     0x000013f8       0xa1 ./STM32F4xx_StdPeriph_Driver/src/stm32f4xx_cryp_tdes.o
                                0x36d (size before relaxing)
 .debug_str     0x00001499      0x267 ./STM32F4xx_StdPeriph_Driver/src/stm32f4xx_dac.o
                                0x3e8 (size before relaxing)
 .debug_str     0x00001700       0xc5 ./STM32F4xx_StdPeriph_Driver/src/stm32f4xx_dbgmcu.o
                                0x1ea (size before relaxing)
 .debug_str     0x000017c5      0x2f9 ./STM32F4xx_StdPeriph_Driver/src/stm32f4xx_dcmi.o
                                0x46e (size before relaxing)
 .debug_str     0x00001abe      0x36d ./STM32F4xx_StdPeriph_Driver/src/stm32f4xx_dma.o
                                0x4e1 (size before relaxing)
 .debug_str     0x00001e2b      0x1b6 ./STM32F4xx_StdPeriph_Driver/src/stm32f4xx_exti.o
                                0x303 (size before relaxing)
 .debug_str     0x00001fe1      0x3b2 ./STM32F4xx_StdPeriph_Driver/src/stm32f4xx_flash.o
                                0x51c (size before relaxing)
 .debug_str     0x00002393      0x5c4 ./STM32F4xx_StdPeriph_Driver/src/stm32f4xx_fsmc.o
                                0x729 (size before relaxing)
 .debug_str     0x00002957      0x28c ./STM32F4xx_StdPeriph_Driver/src/stm32f4xx_gpio.o
                                0x438 (size before relaxing)
 .debug_str     0x00002be3      0x259 ./STM32F4xx_StdPeriph_Driver/src/stm32f4xx_hash.o
                                0x3c7 (size before relaxing)
 .debug_str     0x00002e3c       0x9d ./STM32F4xx_StdPeriph_Driver/src/stm32f4xx_hash_md5.o
                                0x287 (size before relaxing)
 .debug_str     0x00002ed9       0x77 ./STM32F4xx_StdPeriph_Driver/src/stm32f4xx_hash_sha1.o
                                0x28c (size before relaxing)
 .debug_str     0x00002f50      0x41b ./STM32F4xx_StdPeriph_Driver/src/stm32f4xx_i2c.o
                                0x5fa (size before relaxing)
 .debug_str     0x0000336b       0xd1 ./STM32F4xx_StdPeriph_Driver/src/stm32f4xx_iwdg.o
                                0x201 (size before relaxing)
 .debug_str     0x0000343c      0x170 ./STM32F4xx_StdPeriph_Driver/src/stm32f4xx_pwr.o
                                0x326 (size before relaxing)
 .debug_str     0x000035ac      0x5b2 ./STM32F4xx_StdPeriph_Driver/src/stm32f4xx_rcc.o
                                0x7e5 (size before relaxing)
 .debug_str     0x00003b5e       0xc8 ./STM32F4xx_StdPeriph_Driver/src/stm32f4xx_rng.o
                                0x219 (size before relaxing)
 .debug_str     0x00003c26      0x94d ./STM32F4xx_StdPeriph_Driver/src/stm32f4xx_rtc.o
                                0xae8 (size before relaxing)
 .debug_str     0x00004573      0x46a ./STM32F4xx_StdPeriph_Driver/src/stm32f4xx_sdio.o
                                0x5e0 (size before relaxing)
 .debug_str     0x000049dd      0x382 ./STM32F4xx_StdPeriph_Driver/src/stm32f4xx_spi.o
                                0x61f (size before relaxing)
 .debug_str     0x00004d5f      0x143 ./STM32F4xx_StdPeriph_Driver/src/stm32f4xx_syscfg.o
                                0x294 (size before relaxing)
 .debug_str     0x00004ea2      0xb4b ./STM32F4xx_StdPeriph_Driver/src/stm32f4xx_tim.o
                                0xd65 (size before relaxing)
 .debug_str     0x000059ed      0x419 ./STM32F4xx_StdPeriph_Driver/src/stm32f4xx_usart.o
                                0x624 (size before relaxing)
 .debug_str     0x00005e06       0xcd ./STM32F4xx_StdPeriph_Driver/src/stm32f4xx_wwdg.o
                                0x217 (size before relaxing)
 .debug_str     0x00005ed3      0x6bd ./STM32F4-Discovery/stm32f4_discovery.o
                                0xabe (size before relaxing)
 .debug_str     0x00006590      0x459 ./STM32F4-Discovery/stm32f4_discovery_audio_codec.o
                                0xff9 (size before relaxing)
 .debug_str     0x000069e9      0x2ea ./STM32F4-Discovery/stm32f4_discovery_lis302dl.o
                                0x6df (size before relaxing)
 .debug_str     0x00006cd3      0x1ca ./Menue/CMenue.o
                                0x323 (size before relaxing)
 .debug_str     0x00006e9d      0x1cc ./GraphicLCD/CGraphicLCD.o
                                0x2ea (size before relaxing)
 .debug_str     0x00007069      0x78c ./GraphicLCD/CT6963CDriver.o
                                0x91f (size before relaxing)
 .debug_str     0x000077f5      0x1c5 ./GraphicLCD/CT6963GPIOInterface.o
                                0x566 (size before relaxing)
 .debug_str     0x000079ba       0xc6 ./GraphicLCD/SansSerif12.o
                                0x197 (size before relaxing)
 .debug_str     0x00007a80      0x2a3 ./FreeRTOS_EC/Source/AManagedTask.o
                                0x524 (size before relaxing)
 .debug_str     0x00007d23      0x13d ./FreeRTOS_EC/Source/ASyncObject.o
                                0x32d (size before relaxing)
 .debug_str     0x00007e60       0x21 ./FreeRTOS_EC/Source/ATimer.o
                                0x117 (size before relaxing)
 .debug_str     0x00007e81       0xd3 ./FreeRTOS_EC/Source/CBinarySemaphore.o
                                0x345 (size before relaxing)
 .debug_str     0x00007f54       0xe3 ./FreeRTOS_EC/Source/CCountingSemaphore.o
                                0x367 (size before relaxing)
 .debug_str     0x00008037       0x9a ./FreeRTOS_EC/Source/CFreeRTOS.o
                                0x246 (size before relaxing)
 .debug_str     0x000080d1      0x405 ./FreeRTOS_EC/Source/CMessageTask.o
                                0x6d4 (size before relaxing)
 .debug_str     0x000084d6       0x61 ./FreeRTOS_EC/Source/CMutex.o
                                0x2d4 (size before relaxing)
 .debug_str     0x00008537      0x1bf ./FreeRTOS_EC/Source/CQueue.o
                                0x4b0 (size before relaxing)
 .debug_str     0x000086f6       0x91 ./FreeRTOS_EC/Source/CRecursiveMutex.o
                                0x2ed (size before relaxing)
 .debug_str     0x00008787      0x40a ./FreeRTOS_EC/Source/CTask.o
                                0x76c (size before relaxing)
 .debug_str     0x00008b91      0x148 ./FreeRTOS/Source/portable/GCC/ARM_CM4F/port.o
                                0x26b (size before relaxing)
 .debug_str     0x00008cd9      0x336 ./FreeRTOS/Source/croutine.o
                                0x450 (size before relaxing)
 .debug_str     0x0000900f       0xad ./FreeRTOS/Source/list.o
                                0x244 (size before relaxing)
 .debug_str     0x000090bc      0x2bb ./FreeRTOS/Source/queue.o
                                0x4ce (size before relaxing)
 .debug_str     0x00009377      0x749 ./FreeRTOS/Source/tasks.o
                                0xa7f (size before relaxing)
 .debug_str     0x00009ac0       0x1c ./FreeRTOS/Source/timers.o
                                0x110 (size before relaxing)
 .debug_str     0x00009adc       0x24 ./Fatfs/FatFs/src/option/syscall.o
                                0x11d (size before relaxing)
 .debug_str     0x00009b00      0x64c ./Fatfs/FatFs/src/diskio.o
                                0x77d (size before relaxing)
 .debug_str     0x0000a14c      0x489 ./Fatfs/FatFs/src/ff.o
                                0x603 (size before relaxing)
 .debug_str     0x0000a5d5       0x3b ./Fatfs/CFileHandler.o
                                0x162 (size before relaxing)
 .debug_str     0x0000a610       0x1f ./Fatfs/fattime.o
                                 0xdf (size before relaxing)
 .debug_str     0x0000a62f      0x59a ./Fatfs/stm32f4_sdio.o
                               0x1185 (size before relaxing)
 .debug_str     0x0000abc9      0x153 ./CLedHeartBeatSTM32F4Disc.o
                                0x403 (size before relaxing)
 .debug_str     0x0000ad1c      0x1a9 ./main.o
                                0x3d2 (size before relaxing)
 .debug_str     0x0000aec5       0x9f ./stm32f4xx_it.o
                                0x193 (size before relaxing)
 .debug_str     0x0000af64      0x4ac ./syscalls.o
                                0x67d (size before relaxing)
 .debug_str     0x0000b410       0x5c ./system_stm32f4xx.o
                                0x326 (size before relaxing)
 .debug_str     0x0000b46c       0x42 ./ustime.o
                                0x344 (size before relaxing)
 .debug_str     0x0000b4ae       0xc2 d:/elektronik/ides/eclipse/yagarto/bin/../lib/gcc/arm-none-eabi/4.6.2/../../../../arm-none-eabi/lib/thumb/v7m\libstdc++.a(atexit_arm.o)
                                 0xfd (size before relaxing)
 .debug_str     0x0000b570       0xdb d:/elektronik/ides/eclipse/yagarto/bin/../lib/gcc/arm-none-eabi/4.6.2/../../../../arm-none-eabi/lib/thumb/v7m\libstdc++.a(del_op.o)
                                0x1f2 (size before relaxing)
 .debug_str     0x0000b64b       0x4e d:/elektronik/ides/eclipse/yagarto/bin/../lib/gcc/arm-none-eabi/4.6.2/../../../../arm-none-eabi/lib/thumb/v7m\libstdc++.a(pure.o)
                                0x147 (size before relaxing)
 .debug_str     0x0000b699      0x167 d:/elektronik/ides/eclipse/yagarto/bin/../lib/gcc/arm-none-eabi/4.6.2/../../../../arm-none-eabi/lib/thumb/v7m\libstdc++.a(eh_terminate.o)
                                0x357 (size before relaxing)
 .debug_str     0x0000b800       0x46 d:/elektronik/ides/eclipse/yagarto/bin/../lib/gcc/arm-none-eabi/4.6.2/../../../../arm-none-eabi/lib/thumb/v7m\libstdc++.a(eh_term_handler.o)
                                0x162 (size before relaxing)
 .debug_str     0x0000b846       0x46 d:/elektronik/ides/eclipse/yagarto/bin/../lib/gcc/arm-none-eabi/4.6.2/../../../../arm-none-eabi/lib/thumb/v7m\libstdc++.a(eh_unex_handler.o)
                                0x165 (size before relaxing)
 .debug_str     0x0000b88c      0x159 d:/elektronik/ides/eclipse/yagarto/bin/../lib/gcc/arm-none-eabi/4.6.2/../../../../arm-none-eabi/lib/thumb/v7m\libstdc++.a(vterminate.o)
                                0x711 (size before relaxing)
 .debug_str     0x0000b9e5     0x130c d:/elektronik/ides/eclipse/yagarto/bin/../lib/gcc/arm-none-eabi/4.6.2/../../../../arm-none-eabi/lib/thumb/v7m\libstdc++.a(cp-demangle.o)
                               0x1531 (size before relaxing)
 .debug_str     0x0000ccf1      0x49a d:/elektronik/ides/eclipse/yagarto/bin/../lib/gcc/arm-none-eabi/4.6.2/../../../../arm-none-eabi/lib/thumb/v7m\libstdc++.a(eh_arm.o)
                                0x641 (size before relaxing)
 .debug_str     0x0000d18b       0x65 d:/elektronik/ides/eclipse/yagarto/bin/../lib/gcc/arm-none-eabi/4.6.2/../../../../arm-none-eabi/lib/thumb/v7m\libstdc++.a(eh_aux_runtime.o)
                                0x231 (size before relaxing)
 .debug_str     0x0000d1f0      0x14c d:/elektronik/ides/eclipse/yagarto/bin/../lib/gcc/arm-none-eabi/4.6.2/../../../../arm-none-eabi/lib/thumb/v7m\libstdc++.a(eh_call.o)
                                0x6ed (size before relaxing)
 .debug_str     0x0000d33c       0xd7 d:/elektronik/ides/eclipse/yagarto/bin/../lib/gcc/arm-none-eabi/4.6.2/../../../../arm-none-eabi/lib/thumb/v7m\libstdc++.a(eh_catch.o)
                                0x58b (size before relaxing)
 .debug_str     0x0000d413      0x170 d:/elektronik/ides/eclipse/yagarto/bin/../lib/gcc/arm-none-eabi/4.6.2/../../../../arm-none-eabi/lib/thumb/v7m\libstdc++.a(eh_exception.o)
                                0x256 (size before relaxing)
 .debug_str     0x0000d583       0x6a d:/elektronik/ides/eclipse/yagarto/bin/../lib/gcc/arm-none-eabi/4.6.2/../../../../arm-none-eabi/lib/thumb/v7m\libstdc++.a(eh_globals.o)
                                0x4d1 (size before relaxing)
 .debug_str     0x0000d5ed      0x4da d:/elektronik/ides/eclipse/yagarto/bin/../lib/gcc/arm-none-eabi/4.6.2/../../../../arm-none-eabi/lib/thumb/v7m\libstdc++.a(eh_personality.o)
                                0xa77 (size before relaxing)
 .debug_str     0x0000dac7      0x12b d:/elektronik/ides/eclipse/yagarto/bin/../lib/gcc/arm-none-eabi/4.6.2/../../../../arm-none-eabi/lib/thumb/v7m\libstdc++.a(eh_throw.o)
                                0x551 (size before relaxing)
 .debug_str     0x0000dbf2       0x5b d:/elektronik/ides/eclipse/yagarto/bin/../lib/gcc/arm-none-eabi/4.6.2/../../../../arm-none-eabi/lib/thumb/v7m\libstdc++.a(eh_type.o)
                                0x473 (size before relaxing)
 .debug_str     0x0000dc4d       0xe3 d:/elektronik/ides/eclipse/yagarto/bin/../lib/gcc/arm-none-eabi/4.6.2/../../../../arm-none-eabi/lib/thumb/v7m\libstdc++.a(fundamental_type_info.o)
                                0x1b1 (size before relaxing)
 .debug_str     0x0000dd30      0x162 d:/elektronik/ides/eclipse/yagarto/bin/../lib/gcc/arm-none-eabi/4.6.2/../../../../arm-none-eabi/lib/thumb/v7m\libstdc++.a(pointer_type_info.o)
                                0x2bc (size before relaxing)
 .debug_str     0x0000de92      0x409 d:/elektronik/ides/eclipse/yagarto/bin/../lib/gcc/arm-none-eabi/4.6.2/../../../../arm-none-eabi/lib/thumb/v7m\libstdc++.a(si_class_type_info.o)
                                0x579 (size before relaxing)
 .debug_str     0x0000e29b      0x192 d:/elektronik/ides/eclipse/yagarto/bin/../lib/gcc/arm-none-eabi/4.6.2/../../../../arm-none-eabi/lib/thumb/v7m\libstdc++.a(tinfo.o)
                                0x33b (size before relaxing)
 .debug_str     0x0000e42d       0x60 d:/elektronik/ides/eclipse/yagarto/bin/../lib/gcc/arm-none-eabi/4.6.2/../../../../arm-none-eabi/lib/thumb/v7m\libstdc++.a(bad_cast.o)
                                 0xec (size before relaxing)
 .debug_str     0x0000e48d       0x67 d:/elektronik/ides/eclipse/yagarto/bin/../lib/gcc/arm-none-eabi/4.6.2/../../../../arm-none-eabi/lib/thumb/v7m\libstdc++.a(bad_typeid.o)
                                 0xf5 (size before relaxing)
 .debug_str     0x0000e4f4      0x26d d:/elektronik/ides/eclipse/yagarto/bin/../lib/gcc/arm-none-eabi/4.6.2/../../../../arm-none-eabi/lib/thumb/v7m\libstdc++.a(class_type_info.o)
                                0x5eb (size before relaxing)
 .debug_str     0x0000e761      0x321 d:/elektronik/ides/eclipse/yagarto/bin/../lib/gcc/arm-none-eabi/4.6.2/../../../../arm-none-eabi/lib/thumb/v7m\libstdc++.a(eh_alloc.o)
                                0x887 (size before relaxing)
 .debug_str     0x0000ea82      0x138 d:/elektronik/ides/eclipse/yagarto/bin/../lib/gcc/arm-none-eabi/4.6.2/../../../../arm-none-eabi/lib/thumb/v7m\libstdc++.a(pbase_type_info.o)
                                0x32e (size before relaxing)
 .debug_str     0x0000ebba      0x4de d:/elektronik/ides/eclipse/yagarto/bin/../lib/gcc/arm-none-eabi/4.6.2/thumb/v7m\libgcc.a(unwind-arm.o)
                                0x930 (size before relaxing)
 .debug_str     0x0000f098       0xfc d:/elektronik/ides/eclipse/yagarto/bin/../lib/gcc/arm-none-eabi/4.6.2/thumb/v7m\libgcc.a(pr-support.o)
                                0x467 (size before relaxing)
 .debug_str     0x0000f194       0x95 d:/elektronik/ides/eclipse/yagarto/bin/../lib/gcc/arm-none-eabi/4.6.2/../../../../arm-none-eabi/lib/thumb/v7m\libg.a(lib_a-abort.o)
                                0x12a (size before relaxing)
 .debug_str     0x0000f229       0x66 d:/elektronik/ides/eclipse/yagarto/bin/../lib/gcc/arm-none-eabi/4.6.2/../../../../arm-none-eabi/lib/thumb/v7m\libg.a(lib_a-assert.o)
                                0x511 (size before relaxing)
 .debug_str     0x0000f28f       0x6f d:/elektronik/ides/eclipse/yagarto/bin/../lib/gcc/arm-none-eabi/4.6.2/../../../../arm-none-eabi/lib/thumb/v7m\libg.a(lib_a-atexit.o)
                                0x15c (size before relaxing)
 .debug_str     0x0000f2fe       0x50 d:/elektronik/ides/eclipse/yagarto/bin/../lib/gcc/arm-none-eabi/4.6.2/../../../../arm-none-eabi/lib/thumb/v7m\libg.a(lib_a-cxa_atexit.o)
                                0x166 (size before relaxing)
 .debug_str     0x0000f34e       0x50 d:/elektronik/ides/eclipse/yagarto/bin/../lib/gcc/arm-none-eabi/4.6.2/../../../../arm-none-eabi/lib/thumb/v7m\libg.a(lib_a-exit.o)
                                0x4ef (size before relaxing)
 .debug_str     0x0000f39e       0xc0 d:/elektronik/ides/eclipse/yagarto/bin/../lib/gcc/arm-none-eabi/4.6.2/../../../../arm-none-eabi/lib/thumb/v7m\libg.a(lib_a-fini.o)
                                0x162 (size before relaxing)
 .debug_str     0x0000f45e       0xba d:/elektronik/ides/eclipse/yagarto/bin/../lib/gcc/arm-none-eabi/4.6.2/../../../../arm-none-eabi/lib/thumb/v7m\libg.a(lib_a-fiprintf.o)
                                0x520 (size before relaxing)
 .debug_str     0x0000f518       0x4c d:/elektronik/ides/eclipse/yagarto/bin/../lib/gcc/arm-none-eabi/4.6.2/../../../../arm-none-eabi/lib/thumb/v7m\libg.a(lib_a-fputc.o)
                                0x4fd (size before relaxing)
 .debug_str     0x0000f564       0x88 d:/elektronik/ides/eclipse/yagarto/bin/../lib/gcc/arm-none-eabi/4.6.2/../../../../arm-none-eabi/lib/thumb/v7m\libg.a(lib_a-fputs.o)
                                0x53b (size before relaxing)
 .debug_str     0x0000f5ec       0x6a d:/elektronik/ides/eclipse/yagarto/bin/../lib/gcc/arm-none-eabi/4.6.2/../../../../arm-none-eabi/lib/thumb/v7m\libg.a(lib_a-fvwrite.o)
                                0x546 (size before relaxing)
 .debug_str     0x0000f656       0x4f d:/elektronik/ides/eclipse/yagarto/bin/../lib/gcc/arm-none-eabi/4.6.2/../../../../arm-none-eabi/lib/thumb/v7m\libg.a(lib_a-fwrite.o)
                                0x542 (size before relaxing)
 .debug_str     0x0000f6a5       0x9a d:/elektronik/ides/eclipse/yagarto/bin/../lib/gcc/arm-none-eabi/4.6.2/../../../../arm-none-eabi/lib/thumb/v7m\libg.a(lib_a-impure.o)
                                0x4fd (size before relaxing)
 .debug_str     0x0000f73f       0x9b d:/elektronik/ides/eclipse/yagarto/bin/../lib/gcc/arm-none-eabi/4.6.2/../../../../arm-none-eabi/lib/thumb/v7m\libg.a(lib_a-init.o)
                                0x18c (size before relaxing)
 .debug_str     0x0000f7da       0x4b d:/elektronik/ides/eclipse/yagarto/bin/../lib/gcc/arm-none-eabi/4.6.2/../../../../arm-none-eabi/lib/thumb/v7m\libg.a(lib_a-malloc.o)
                                0x4ff (size before relaxing)
 .debug_str     0x0000f825      0x20c d:/elektronik/ides/eclipse/yagarto/bin/../lib/gcc/arm-none-eabi/4.6.2/../../../../arm-none-eabi/lib/thumb/v7m\libg.a(lib_a-mallocr.o)
                                0x6d4 (size before relaxing)
 .debug_str     0x0000fa31       0xa5 d:/elektronik/ides/eclipse/yagarto/bin/../lib/gcc/arm-none-eabi/4.6.2/../../../../arm-none-eabi/lib/thumb/v7m\libg.a(lib_a-memchr.o)
                                0x14d (size before relaxing)
 .debug_str     0x0000fad6       0x46 d:/elektronik/ides/eclipse/yagarto/bin/../lib/gcc/arm-none-eabi/4.6.2/../../../../arm-none-eabi/lib/thumb/v7m\libg.a(lib_a-memcmp.o)
                                0x133 (size before relaxing)
 .debug_str     0x0000fb1c       0x6d d:/elektronik/ides/eclipse/yagarto/bin/../lib/gcc/arm-none-eabi/4.6.2/../../../../arm-none-eabi/lib/thumb/v7m\libg.a(lib_a-memcpy.o)
                                0x15a (size before relaxing)
 .debug_str     0x0000fb89       0x51 d:/elektronik/ides/eclipse/yagarto/bin/../lib/gcc/arm-none-eabi/4.6.2/../../../../arm-none-eabi/lib/thumb/v7m\libg.a(lib_a-memmove.o)
                                0x166 (size before relaxing)
 .debug_str     0x0000fbda       0x53 d:/elektronik/ides/eclipse/yagarto/bin/../lib/gcc/arm-none-eabi/4.6.2/../../../../arm-none-eabi/lib/thumb/v7m\libg.a(lib_a-memset.o)
                                0x147 (size before relaxing)
 .debug_str     0x0000fc2d       0x44 d:/elektronik/ides/eclipse/yagarto/bin/../lib/gcc/arm-none-eabi/4.6.2/../../../../arm-none-eabi/lib/thumb/v7m\libg.a(lib_a-putc.o)
                                0x4f5 (size before relaxing)
 .debug_str     0x0000fc71       0x48 d:/elektronik/ides/eclipse/yagarto/bin/../lib/gcc/arm-none-eabi/4.6.2/../../../../arm-none-eabi/lib/thumb/v7m\libg.a(lib_a-realloc.o)
                                0x4f7 (size before relaxing)
 .debug_str     0x0000fcb9       0x54 d:/elektronik/ides/eclipse/yagarto/bin/../lib/gcc/arm-none-eabi/4.6.2/../../../../arm-none-eabi/lib/thumb/v7m\libg.a(lib_a-reallocr.o)
                                0x5a6 (size before relaxing)
 .debug_str     0x0000fd0d       0xea d:/elektronik/ides/eclipse/yagarto/bin/../lib/gcc/arm-none-eabi/4.6.2/../../../../arm-none-eabi/lib/thumb/v7m\libg.a(lib_a-signal.o)
                                0x550 (size before relaxing)
 .debug_str     0x0000fdf7       0x52 d:/elektronik/ides/eclipse/yagarto/bin/../lib/gcc/arm-none-eabi/4.6.2/../../../../arm-none-eabi/lib/thumb/v7m\libg.a(lib_a-sprintf.o)
                                0x51d (size before relaxing)
 .debug_str     0x0000fe49       0x51 d:/elektronik/ides/eclipse/yagarto/bin/../lib/gcc/arm-none-eabi/4.6.2/../../../../arm-none-eabi/lib/thumb/v7m\libg.a(lib_a-strcat.o)
                                0x137 (size before relaxing)
 .debug_str     0x0000fe9a       0xb5 d:/elektronik/ides/eclipse/yagarto/bin/../lib/gcc/arm-none-eabi/4.6.2/../../../../arm-none-eabi/lib/thumb/v7m\libg.a(lib_a-strcmp.o)
                                0x14a (size before relaxing)
 .debug_str     0x0000ff4f       0x4e d:/elektronik/ides/eclipse/yagarto/bin/../lib/gcc/arm-none-eabi/4.6.2/../../../../arm-none-eabi/lib/thumb/v7m\libg.a(lib_a-strcpy.o)
                                0x139 (size before relaxing)
 .debug_str     0x0000ff9d       0x4e d:/elektronik/ides/eclipse/yagarto/bin/../lib/gcc/arm-none-eabi/4.6.2/../../../../arm-none-eabi/lib/thumb/v7m\libg.a(lib_a-strlen.o)
                                0x140 (size before relaxing)
 .debug_str     0x0000ffeb       0x48 d:/elektronik/ides/eclipse/yagarto/bin/../lib/gcc/arm-none-eabi/4.6.2/../../../../arm-none-eabi/lib/thumb/v7m\libg.a(lib_a-strncmp.o)
                                0x135 (size before relaxing)
 .debug_str     0x00010033       0x48 d:/elektronik/ides/eclipse/yagarto/bin/../lib/gcc/arm-none-eabi/4.6.2/../../../../arm-none-eabi/lib/thumb/v7m\libg.a(lib_a-strncpy.o)
                                0x15d (size before relaxing)
 .debug_str     0x0001007b      0x166 d:/elektronik/ides/eclipse/yagarto/bin/../lib/gcc/arm-none-eabi/4.6.2/../../../../arm-none-eabi/lib/thumb/v7m\libg.a(lib_a-svfprintf.o)
                                0x6c8 (size before relaxing)
 .debug_str     0x000101e1       0x96 d:/elektronik/ides/eclipse/yagarto/bin/../lib/gcc/arm-none-eabi/4.6.2/../../../../arm-none-eabi/lib/thumb/v7m\libg.a(lib_a-syswrite.o)
                                0x4f3 (size before relaxing)
 .debug_str     0x00010277       0x37 d:/elektronik/ides/eclipse/yagarto/bin/../lib/gcc/arm-none-eabi/4.6.2/../../../../arm-none-eabi/lib/thumb/v7m\libg.a(lib_a-vfiprintf.o)
                                0x664 (size before relaxing)
 .debug_str     0x000102ae       0x4e d:/elektronik/ides/eclipse/yagarto/bin/../lib/gcc/arm-none-eabi/4.6.2/../../../../arm-none-eabi/lib/thumb/v7m\libg.a(lib_a-wbuf.o)
                                0x4f3 (size before relaxing)
 .debug_str     0x000102fc       0x4a d:/elektronik/ides/eclipse/yagarto/bin/../lib/gcc/arm-none-eabi/4.6.2/../../../../arm-none-eabi/lib/thumb/v7m\libg.a(lib_a-wsetup.o)
                                0x4ef (size before relaxing)
 .debug_str     0x00010346       0x63 d:/elektronik/ides/eclipse/yagarto/bin/../lib/gcc/arm-none-eabi/4.6.2/../../../../arm-none-eabi/lib/thumb/v7m\libg.a(lib_a-__atexit.o)
                                0x545 (size before relaxing)
 .debug_str     0x000103a9       0x65 d:/elektronik/ides/eclipse/yagarto/bin/../lib/gcc/arm-none-eabi/4.6.2/../../../../arm-none-eabi/lib/thumb/v7m\libg.a(lib_a-__call_atexit.o)
                                0x517 (size before relaxing)
 .debug_str     0x0001040e      0x100 d:/elektronik/ides/eclipse/yagarto/bin/../lib/gcc/arm-none-eabi/4.6.2/../../../../arm-none-eabi/lib/thumb/v7m\libg.a(lib_a-dtoa.o)
                                0x5e4 (size before relaxing)
 .debug_str     0x0001050e       0x59 d:/elektronik/ides/eclipse/yagarto/bin/../lib/gcc/arm-none-eabi/4.6.2/../../../../arm-none-eabi/lib/thumb/v7m\libg.a(lib_a-fflush.o)
                                0x51f (size before relaxing)
 .debug_str     0x00010567      0x106 d:/elektronik/ides/eclipse/yagarto/bin/../lib/gcc/arm-none-eabi/4.6.2/../../../../arm-none-eabi/lib/thumb/v7m\libg.a(lib_a-findfp.o)
                                0x5d7 (size before relaxing)
 .debug_str     0x0001066d       0x51 d:/elektronik/ides/eclipse/yagarto/bin/../lib/gcc/arm-none-eabi/4.6.2/../../../../arm-none-eabi/lib/thumb/v7m\libg.a(lib_a-fputwc.o)
                                0x50c (size before relaxing)
 .debug_str     0x000106be       0x3c d:/elektronik/ides/eclipse/yagarto/bin/../lib/gcc/arm-none-eabi/4.6.2/../../../../arm-none-eabi/lib/thumb/v7m\libg.a(lib_a-freer.o)
                                0x626 (size before relaxing)
 .debug_str     0x000106fa       0x62 d:/elektronik/ides/eclipse/yagarto/bin/../lib/gcc/arm-none-eabi/4.6.2/../../../../arm-none-eabi/lib/thumb/v7m\libg.a(lib_a-fwalk.o)
                                0x518 (size before relaxing)
 .debug_str     0x0001075c      0x26b d:/elektronik/ides/eclipse/yagarto/bin/../lib/gcc/arm-none-eabi/4.6.2/../../../../arm-none-eabi/lib/thumb/v7m\libg.a(lib_a-locale.o)
                                0x753 (size before relaxing)
 .debug_str     0x000109c7       0x57 d:/elektronik/ides/eclipse/yagarto/bin/../lib/gcc/arm-none-eabi/4.6.2/../../../../arm-none-eabi/lib/thumb/v7m\libg.a(lib_a-makebuf.o)
                                0x5e9 (size before relaxing)
 .debug_str     0x00010a1e       0xfc d:/elektronik/ides/eclipse/yagarto/bin/../lib/gcc/arm-none-eabi/4.6.2/../../../../arm-none-eabi/lib/thumb/v7m\libg.a(lib_a-mprec.o)
                                0x5f1 (size before relaxing)
 .debug_str     0x00010b1a       0xc6 d:/elektronik/ides/eclipse/yagarto/bin/../lib/gcc/arm-none-eabi/4.6.2/../../../../arm-none-eabi/lib/thumb/v7m\libg.a(lib_a-s_fpclassify.o)
                                0x185 (size before relaxing)
 .debug_str     0x00010be0       0x71 d:/elektronik/ides/eclipse/yagarto/bin/../lib/gcc/arm-none-eabi/4.6.2/../../../../arm-none-eabi/lib/thumb/v7m\libg.a(lib_a-stdio.o)
                                0x524 (size before relaxing)
 .debug_str     0x00010c51       0x1a d:/elektronik/ides/eclipse/yagarto/bin/../lib/gcc/arm-none-eabi/4.6.2/../../../../arm-none-eabi/lib/thumb/v7m\libg.a(lib_a-svfiprintf.o)
                                0x63b (size before relaxing)
 .debug_str     0x00010c6b       0x63 d:/elektronik/ides/eclipse/yagarto/bin/../lib/gcc/arm-none-eabi/4.6.2/../../../../arm-none-eabi/lib/thumb/v7m\libg.a(lib_a-wcrtomb.o)
                                0x51d (size before relaxing)
 .debug_str     0x00010cce       0x61 d:/elektronik/ides/eclipse/yagarto/bin/../lib/gcc/arm-none-eabi/4.6.2/../../../../arm-none-eabi/lib/thumb/v7m\libg.a(lib_a-wctomb_r.o)
                                0x52c (size before relaxing)
 .debug_str     0x00010d2f       0x19 d:/elektronik/ides/eclipse/yagarto/bin/../lib/gcc/arm-none-eabi/4.6.2/../../../../arm-none-eabi/lib/thumb/v7m\libg.a(lib_a-callocr.o)
                                0x525 (size before relaxing)
 .debug_str     0x00010d48       0x48 d:/elektronik/ides/eclipse/yagarto/bin/../lib/gcc/arm-none-eabi/4.6.2/../../../../arm-none-eabi/lib/thumb/v7m\libg.a(lib_a-fclose.o)
                                0x4f9 (size before relaxing)

.debug_frame    0x00000000     0xa038
 .debug_frame   0x00000000       0x9c ./STM32F4xx_StdPeriph_Driver/src/misc.o
 .debug_frame   0x0000009c      0x438 ./STM32F4xx_StdPeriph_Driver/src/stm32f4xx_adc.o
 .debug_frame   0x000004d4      0x2d4 ./STM32F4xx_StdPeriph_Driver/src/stm32f4xx_can.o
 .debug_frame   0x000007a8       0xb8 ./STM32F4xx_StdPeriph_Driver/src/stm32f4xx_crc.o
 .debug_frame   0x00000860      0x1ec ./STM32F4xx_StdPeriph_Driver/src/stm32f4xx_cryp.o
 .debug_frame   0x00000a4c       0x7c ./STM32F4xx_StdPeriph_Driver/src/stm32f4xx_cryp_aes.o
 .debug_frame   0x00000ac8       0x58 ./STM32F4xx_StdPeriph_Driver/src/stm32f4xx_cryp_des.o
 .debug_frame   0x00000b20       0x58 ./STM32F4xx_StdPeriph_Driver/src/stm32f4xx_cryp_tdes.o
 .debug_frame   0x00000b78      0x1ec ./STM32F4xx_StdPeriph_Driver/src/stm32f4xx_dac.o
 .debug_frame   0x00000d64       0x9c ./STM32F4xx_StdPeriph_Driver/src/stm32f4xx_dbgmcu.o
 .debug_frame   0x00000e00      0x1b4 ./STM32F4xx_StdPeriph_Driver/src/stm32f4xx_dcmi.o
 .debug_frame   0x00000fb4      0x224 ./STM32F4xx_StdPeriph_Driver/src/stm32f4xx_dma.o
 .debug_frame   0x000011d8       0xf0 ./STM32F4xx_StdPeriph_Driver/src/stm32f4xx_exti.o
 .debug_frame   0x000012c8      0x384 ./STM32F4xx_StdPeriph_Driver/src/stm32f4xx_flash.o
 .debug_frame   0x0000164c      0x224 ./STM32F4xx_StdPeriph_Driver/src/stm32f4xx_fsmc.o
 .debug_frame   0x00001870      0x19c ./STM32F4xx_StdPeriph_Driver/src/stm32f4xx_gpio.o
 .debug_frame   0x00001a0c      0x1ec ./STM32F4xx_StdPeriph_Driver/src/stm32f4xx_hash.o
 .debug_frame   0x00001bf8       0x58 ./STM32F4xx_StdPeriph_Driver/src/stm32f4xx_hash_md5.o
 .debug_frame   0x00001c50       0x58 ./STM32F4xx_StdPeriph_Driver/src/stm32f4xx_hash_sha1.o
 .debug_frame   0x00001ca8      0x3b4 ./STM32F4xx_StdPeriph_Driver/src/stm32f4xx_i2c.o
 .debug_frame   0x0000205c       0xb8 ./STM32F4xx_StdPeriph_Driver/src/stm32f4xx_iwdg.o
 .debug_frame   0x00002114      0x160 ./STM32F4xx_StdPeriph_Driver/src/stm32f4xx_pwr.o
 .debug_frame   0x00002274      0x4e4 ./STM32F4xx_StdPeriph_Driver/src/stm32f4xx_rcc.o
 .debug_frame   0x00002758       0xf0 ./STM32F4xx_StdPeriph_Driver/src/stm32f4xx_rng.o
 .debug_frame   0x00002848      0x68c ./STM32F4xx_StdPeriph_Driver/src/stm32f4xx_rtc.o
 .debug_frame   0x00002ed4      0x358 ./STM32F4xx_StdPeriph_Driver/src/stm32f4xx_sdio.o
 .debug_frame   0x0000322c      0x2d0 ./STM32F4xx_StdPeriph_Driver/src/stm32f4xx_spi.o
 .debug_frame   0x000034fc       0xbc ./STM32F4xx_StdPeriph_Driver/src/stm32f4xx_syscfg.o
 .debug_frame   0x000035b8      0xa3c ./STM32F4xx_StdPeriph_Driver/src/stm32f4xx_tim.o
 .debug_frame   0x00003ff4      0x344 ./STM32F4xx_StdPeriph_Driver/src/stm32f4xx_usart.o
 .debug_frame   0x00004338       0xf0 ./STM32F4xx_StdPeriph_Driver/src/stm32f4xx_wwdg.o
 .debug_frame   0x00004428       0xc4 ./STM32F4-Discovery/stm32f4_discovery.o
 .debug_frame   0x000044ec      0x440 ./STM32F4-Discovery/stm32f4_discovery_audio_codec.o
 .debug_frame   0x0000492c      0x190 ./STM32F4-Discovery/stm32f4_discovery_lis302dl.o
 .debug_frame   0x00004abc      0x10c ./Menue/CMenue.o
 .debug_frame   0x00004bc8       0xc0 ./GraphicLCD/CGraphicLCD.o
 .debug_frame   0x00004c88      0x25c ./GraphicLCD/CT6963CDriver.o
 .debug_frame   0x00004ee4      0x130 ./GraphicLCD/CT6963GPIOInterface.o
 .debug_frame   0x00005014      0x1f8 ./FreeRTOS_EC/Source/AManagedTask.o
 .debug_frame   0x0000520c      0x104 ./FreeRTOS_EC/Source/ASyncObject.o
 .debug_frame   0x00005310      0x128 ./FreeRTOS_EC/Source/CBinarySemaphore.o
 .debug_frame   0x00005438      0x128 ./FreeRTOS_EC/Source/CCountingSemaphore.o
 .debug_frame   0x00005560       0x64 ./FreeRTOS_EC/Source/CFreeRTOS.o
 .debug_frame   0x000055c4      0x280 ./FreeRTOS_EC/Source/CMessageTask.o
 .debug_frame   0x00005844      0x128 ./FreeRTOS_EC/Source/CMutex.o
 .debug_frame   0x0000596c      0x144 ./FreeRTOS_EC/Source/CQueue.o
 .debug_frame   0x00005ab0      0x120 ./FreeRTOS_EC/Source/CRecursiveMutex.o
 .debug_frame   0x00005bd0      0x160 ./FreeRTOS_EC/Source/CTask.o
 .debug_frame   0x00005d30      0x124 ./FreeRTOS/Source/portable/GCC/ARM_CM4F/port.o
 .debug_frame   0x00005e54       0xf0 ./FreeRTOS/Source/croutine.o
 .debug_frame   0x00005f44       0x9c ./FreeRTOS/Source/list.o
 .debug_frame   0x00005fe0      0x204 ./FreeRTOS/Source/queue.o
 .debug_frame   0x000061e4      0x540 ./FreeRTOS/Source/tasks.o
 .debug_frame   0x00006724       0xac ./Fatfs/FatFs/src/diskio.o
 .debug_frame   0x000067d0      0x554 ./Fatfs/FatFs/src/ff.o
 .debug_frame   0x00006d24       0x6c ./Fatfs/CFileHandler.o
 .debug_frame   0x00006d90       0x2c ./Fatfs/fattime.o
 .debug_frame   0x00006dbc      0x4e0 ./Fatfs/stm32f4_sdio.o
 .debug_frame   0x0000729c      0x104 ./CLedHeartBeatSTM32F4Disc.o
 .debug_frame   0x000073a0      0x1a0 ./main.o
 .debug_frame   0x00007540       0xf0 ./stm32f4xx_it.o
 .debug_frame   0x00007630      0x16c ./syscalls.o
 .debug_frame   0x0000779c       0x64 ./system_stm32f4xx.o
 .debug_frame   0x00007800       0x8c ./ustime.o
 .debug_frame   0x0000788c       0x20 d:/elektronik/ides/eclipse/yagarto/bin/../lib/gcc/arm-none-eabi/4.6.2/../../../../arm-none-eabi/lib/thumb/v7m\libstdc++.a(atexit_arm.o)
 .debug_frame   0x000078ac       0x20 d:/elektronik/ides/eclipse/yagarto/bin/../lib/gcc/arm-none-eabi/4.6.2/../../../../arm-none-eabi/lib/thumb/v7m\libstdc++.a(del_op.o)
 .debug_frame   0x000078cc       0x28 d:/elektronik/ides/eclipse/yagarto/bin/../lib/gcc/arm-none-eabi/4.6.2/../../../../arm-none-eabi/lib/thumb/v7m\libstdc++.a(pure.o)
 .debug_frame   0x000078f4       0x90 d:/elektronik/ides/eclipse/yagarto/bin/../lib/gcc/arm-none-eabi/4.6.2/../../../../arm-none-eabi/lib/thumb/v7m\libstdc++.a(eh_terminate.o)
 .debug_frame   0x00007984       0x30 d:/elektronik/ides/eclipse/yagarto/bin/../lib/gcc/arm-none-eabi/4.6.2/../../../../arm-none-eabi/lib/thumb/v7m\libstdc++.a(vterminate.o)
 .debug_frame   0x000079b4      0xb44 d:/elektronik/ides/eclipse/yagarto/bin/../lib/gcc/arm-none-eabi/4.6.2/../../../../arm-none-eabi/lib/thumb/v7m\libstdc++.a(cp-demangle.o)
 .debug_frame   0x000084f8       0x60 d:/elektronik/ides/eclipse/yagarto/bin/../lib/gcc/arm-none-eabi/4.6.2/../../../../arm-none-eabi/lib/thumb/v7m\libstdc++.a(eh_arm.o)
 .debug_frame   0x00008558       0x40 d:/elektronik/ides/eclipse/yagarto/bin/../lib/gcc/arm-none-eabi/4.6.2/../../../../arm-none-eabi/lib/thumb/v7m\libstdc++.a(eh_aux_runtime.o)
 .debug_frame   0x00008598       0x50 d:/elektronik/ides/eclipse/yagarto/bin/../lib/gcc/arm-none-eabi/4.6.2/../../../../arm-none-eabi/lib/thumb/v7m\libstdc++.a(eh_call.o)
 .debug_frame   0x000085e8       0x6c d:/elektronik/ides/eclipse/yagarto/bin/../lib/gcc/arm-none-eabi/4.6.2/../../../../arm-none-eabi/lib/thumb/v7m\libstdc++.a(eh_catch.o)
 .debug_frame   0x00008654       0xd0 d:/elektronik/ides/eclipse/yagarto/bin/../lib/gcc/arm-none-eabi/4.6.2/../../../../arm-none-eabi/lib/thumb/v7m\libstdc++.a(eh_exception.o)
 .debug_frame   0x00008724       0x30 d:/elektronik/ides/eclipse/yagarto/bin/../lib/gcc/arm-none-eabi/4.6.2/../../../../arm-none-eabi/lib/thumb/v7m\libstdc++.a(eh_globals.o)
 .debug_frame   0x00008754       0xac d:/elektronik/ides/eclipse/yagarto/bin/../lib/gcc/arm-none-eabi/4.6.2/../../../../arm-none-eabi/lib/thumb/v7m\libstdc++.a(eh_personality.o)
 .debug_frame   0x00008800       0x60 d:/elektronik/ides/eclipse/yagarto/bin/../lib/gcc/arm-none-eabi/4.6.2/../../../../arm-none-eabi/lib/thumb/v7m\libstdc++.a(eh_throw.o)
 .debug_frame   0x00008860       0x28 d:/elektronik/ides/eclipse/yagarto/bin/../lib/gcc/arm-none-eabi/4.6.2/../../../../arm-none-eabi/lib/thumb/v7m\libstdc++.a(eh_type.o)
 .debug_frame   0x00008888       0x40 d:/elektronik/ides/eclipse/yagarto/bin/../lib/gcc/arm-none-eabi/4.6.2/../../../../arm-none-eabi/lib/thumb/v7m\libstdc++.a(fundamental_type_info.o)
 .debug_frame   0x000088c8       0x6c d:/elektronik/ides/eclipse/yagarto/bin/../lib/gcc/arm-none-eabi/4.6.2/../../../../arm-none-eabi/lib/thumb/v7m\libstdc++.a(pointer_type_info.o)
 .debug_frame   0x00008934       0xa8 d:/elektronik/ides/eclipse/yagarto/bin/../lib/gcc/arm-none-eabi/4.6.2/../../../../arm-none-eabi/lib/thumb/v7m\libstdc++.a(si_class_type_info.o)
 .debug_frame   0x000089dc       0x90 d:/elektronik/ides/eclipse/yagarto/bin/../lib/gcc/arm-none-eabi/4.6.2/../../../../arm-none-eabi/lib/thumb/v7m\libstdc++.a(tinfo.o)
 .debug_frame   0x00008a6c       0x50 d:/elektronik/ides/eclipse/yagarto/bin/../lib/gcc/arm-none-eabi/4.6.2/../../../../arm-none-eabi/lib/thumb/v7m\libstdc++.a(bad_cast.o)
 .debug_frame   0x00008abc       0x50 d:/elektronik/ides/eclipse/yagarto/bin/../lib/gcc/arm-none-eabi/4.6.2/../../../../arm-none-eabi/lib/thumb/v7m\libstdc++.a(bad_typeid.o)
 .debug_frame   0x00008b0c       0xcc d:/elektronik/ides/eclipse/yagarto/bin/../lib/gcc/arm-none-eabi/4.6.2/../../../../arm-none-eabi/lib/thumb/v7m\libstdc++.a(class_type_info.o)
 .debug_frame   0x00008bd8       0x6c d:/elektronik/ides/eclipse/yagarto/bin/../lib/gcc/arm-none-eabi/4.6.2/../../../../arm-none-eabi/lib/thumb/v7m\libstdc++.a(eh_alloc.o)
 .debug_frame   0x00008c44       0x78 d:/elektronik/ides/eclipse/yagarto/bin/../lib/gcc/arm-none-eabi/4.6.2/../../../../arm-none-eabi/lib/thumb/v7m\libstdc++.a(pbase_type_info.o)
 .debug_frame   0x00008cbc      0x268 d:/elektronik/ides/eclipse/yagarto/bin/../lib/gcc/arm-none-eabi/4.6.2/thumb/v7m\libgcc.a(unwind-arm.o)
 .debug_frame   0x00008f24       0xec d:/elektronik/ides/eclipse/yagarto/bin/../lib/gcc/arm-none-eabi/4.6.2/thumb/v7m\libgcc.a(pr-support.o)
 .debug_frame   0x00009010       0x28 d:/elektronik/ides/eclipse/yagarto/bin/../lib/gcc/arm-none-eabi/4.6.2/../../../../arm-none-eabi/lib/thumb/v7m\libg.a(lib_a-abort.o)
 .debug_frame   0x00009038       0x40 d:/elektronik/ides/eclipse/yagarto/bin/../lib/gcc/arm-none-eabi/4.6.2/../../../../arm-none-eabi/lib/thumb/v7m\libg.a(lib_a-assert.o)
 .debug_frame   0x00009078       0x20 d:/elektronik/ides/eclipse/yagarto/bin/../lib/gcc/arm-none-eabi/4.6.2/../../../../arm-none-eabi/lib/thumb/v7m\libg.a(lib_a-atexit.o)
 .debug_frame   0x00009098       0x28 d:/elektronik/ides/eclipse/yagarto/bin/../lib/gcc/arm-none-eabi/4.6.2/../../../../arm-none-eabi/lib/thumb/v7m\libg.a(lib_a-cxa_atexit.o)
 .debug_frame   0x000090c0       0x28 d:/elektronik/ides/eclipse/yagarto/bin/../lib/gcc/arm-none-eabi/4.6.2/../../../../arm-none-eabi/lib/thumb/v7m\libg.a(lib_a-exit.o)
 .debug_frame   0x000090e8       0x2c d:/elektronik/ides/eclipse/yagarto/bin/../lib/gcc/arm-none-eabi/4.6.2/../../../../arm-none-eabi/lib/thumb/v7m\libg.a(lib_a-fini.o)
 .debug_frame   0x00009114       0x58 d:/elektronik/ides/eclipse/yagarto/bin/../lib/gcc/arm-none-eabi/4.6.2/../../../../arm-none-eabi/lib/thumb/v7m\libg.a(lib_a-fiprintf.o)
 .debug_frame   0x0000916c       0x48 d:/elektronik/ides/eclipse/yagarto/bin/../lib/gcc/arm-none-eabi/4.6.2/../../../../arm-none-eabi/lib/thumb/v7m\libg.a(lib_a-fputc.o)
 .debug_frame   0x000091b4       0x3c d:/elektronik/ides/eclipse/yagarto/bin/../lib/gcc/arm-none-eabi/4.6.2/../../../../arm-none-eabi/lib/thumb/v7m\libg.a(lib_a-fputs.o)
 .debug_frame   0x000091f0       0x38 d:/elektronik/ides/eclipse/yagarto/bin/../lib/gcc/arm-none-eabi/4.6.2/../../../../arm-none-eabi/lib/thumb/v7m\libg.a(lib_a-fvwrite.o)
 .debug_frame   0x00009228       0x54 d:/elektronik/ides/eclipse/yagarto/bin/../lib/gcc/arm-none-eabi/4.6.2/../../../../arm-none-eabi/lib/thumb/v7m\libg.a(lib_a-fwrite.o)
 .debug_frame   0x0000927c       0x2c d:/elektronik/ides/eclipse/yagarto/bin/../lib/gcc/arm-none-eabi/4.6.2/../../../../arm-none-eabi/lib/thumb/v7m\libg.a(lib_a-init.o)
 .debug_frame   0x000092a8       0x30 d:/elektronik/ides/eclipse/yagarto/bin/../lib/gcc/arm-none-eabi/4.6.2/../../../../arm-none-eabi/lib/thumb/v7m\libg.a(lib_a-malloc.o)
 .debug_frame   0x000092d8       0x38 d:/elektronik/ides/eclipse/yagarto/bin/../lib/gcc/arm-none-eabi/4.6.2/../../../../arm-none-eabi/lib/thumb/v7m\libg.a(lib_a-mallocr.o)
 .debug_frame   0x00009310       0x2c d:/elektronik/ides/eclipse/yagarto/bin/../lib/gcc/arm-none-eabi/4.6.2/../../../../arm-none-eabi/lib/thumb/v7m\libg.a(lib_a-memchr.o)
 .debug_frame   0x0000933c       0x2c d:/elektronik/ides/eclipse/yagarto/bin/../lib/gcc/arm-none-eabi/4.6.2/../../../../arm-none-eabi/lib/thumb/v7m\libg.a(lib_a-memcmp.o)
 .debug_frame   0x00009368       0x2c d:/elektronik/ides/eclipse/yagarto/bin/../lib/gcc/arm-none-eabi/4.6.2/../../../../arm-none-eabi/lib/thumb/v7m\libg.a(lib_a-memcpy.o)
 .debug_frame   0x00009394       0x2c d:/elektronik/ides/eclipse/yagarto/bin/../lib/gcc/arm-none-eabi/4.6.2/../../../../arm-none-eabi/lib/thumb/v7m\libg.a(lib_a-memmove.o)
 .debug_frame   0x000093c0       0x2c d:/elektronik/ides/eclipse/yagarto/bin/../lib/gcc/arm-none-eabi/4.6.2/../../../../arm-none-eabi/lib/thumb/v7m\libg.a(lib_a-memset.o)
 .debug_frame   0x000093ec       0x48 d:/elektronik/ides/eclipse/yagarto/bin/../lib/gcc/arm-none-eabi/4.6.2/../../../../arm-none-eabi/lib/thumb/v7m\libg.a(lib_a-putc.o)
 .debug_frame   0x00009434       0x20 d:/elektronik/ides/eclipse/yagarto/bin/../lib/gcc/arm-none-eabi/4.6.2/../../../../arm-none-eabi/lib/thumb/v7m\libg.a(lib_a-realloc.o)
 .debug_frame   0x00009454       0x38 d:/elektronik/ides/eclipse/yagarto/bin/../lib/gcc/arm-none-eabi/4.6.2/../../../../arm-none-eabi/lib/thumb/v7m\libg.a(lib_a-reallocr.o)
 .debug_frame   0x0000948c       0xc0 d:/elektronik/ides/eclipse/yagarto/bin/../lib/gcc/arm-none-eabi/4.6.2/../../../../arm-none-eabi/lib/thumb/v7m\libg.a(lib_a-signal.o)
 .debug_frame   0x0000954c       0x64 d:/elektronik/ides/eclipse/yagarto/bin/../lib/gcc/arm-none-eabi/4.6.2/../../../../arm-none-eabi/lib/thumb/v7m\libg.a(lib_a-sprintf.o)
 .debug_frame   0x000095b0       0x2c d:/elektronik/ides/eclipse/yagarto/bin/../lib/gcc/arm-none-eabi/4.6.2/../../../../arm-none-eabi/lib/thumb/v7m\libg.a(lib_a-strcat.o)
 .debug_frame   0x000095dc       0x30 d:/elektronik/ides/eclipse/yagarto/bin/../lib/gcc/arm-none-eabi/4.6.2/../../../../arm-none-eabi/lib/thumb/v7m\libg.a(lib_a-strcmp.o)
 .debug_frame   0x0000960c       0x20 d:/elektronik/ides/eclipse/yagarto/bin/../lib/gcc/arm-none-eabi/4.6.2/../../../../arm-none-eabi/lib/thumb/v7m\libg.a(lib_a-strcpy.o)
 .debug_frame   0x0000962c       0x20 d:/elektronik/ides/eclipse/yagarto/bin/../lib/gcc/arm-none-eabi/4.6.2/../../../../arm-none-eabi/lib/thumb/v7m\libg.a(lib_a-strlen.o)
 .debug_frame   0x0000964c       0x30 d:/elektronik/ides/eclipse/yagarto/bin/../lib/gcc/arm-none-eabi/4.6.2/../../../../arm-none-eabi/lib/thumb/v7m\libg.a(lib_a-strncmp.o)
 .debug_frame   0x0000967c       0x2c d:/elektronik/ides/eclipse/yagarto/bin/../lib/gcc/arm-none-eabi/4.6.2/../../../../arm-none-eabi/lib/thumb/v7m\libg.a(lib_a-strncpy.o)
 .debug_frame   0x000096a8       0x3c d:/elektronik/ides/eclipse/yagarto/bin/../lib/gcc/arm-none-eabi/4.6.2/../../../../arm-none-eabi/lib/thumb/v7m\libg.a(lib_a-svfprintf.o)
 .debug_frame   0x000096e4       0x28 d:/elektronik/ides/eclipse/yagarto/bin/../lib/gcc/arm-none-eabi/4.6.2/../../../../arm-none-eabi/lib/thumb/v7m\libg.a(lib_a-syswrite.o)
 .debug_frame   0x0000970c       0x7c d:/elektronik/ides/eclipse/yagarto/bin/../lib/gcc/arm-none-eabi/4.6.2/../../../../arm-none-eabi/lib/thumb/v7m\libg.a(lib_a-vfiprintf.o)
 .debug_frame   0x00009788       0x3c d:/elektronik/ides/eclipse/yagarto/bin/../lib/gcc/arm-none-eabi/4.6.2/../../../../arm-none-eabi/lib/thumb/v7m\libg.a(lib_a-wbuf.o)
 .debug_frame   0x000097c4       0x2c d:/elektronik/ides/eclipse/yagarto/bin/../lib/gcc/arm-none-eabi/4.6.2/../../../../arm-none-eabi/lib/thumb/v7m\libg.a(lib_a-wsetup.o)
 .debug_frame   0x000097f0       0x34 d:/elektronik/ides/eclipse/yagarto/bin/../lib/gcc/arm-none-eabi/4.6.2/../../../../arm-none-eabi/lib/thumb/v7m\libg.a(lib_a-__atexit.o)
 .debug_frame   0x00009824       0x38 d:/elektronik/ides/eclipse/yagarto/bin/../lib/gcc/arm-none-eabi/4.6.2/../../../../arm-none-eabi/lib/thumb/v7m\libg.a(lib_a-__call_atexit.o)
 .debug_frame   0x0000985c       0x64 d:/elektronik/ides/eclipse/yagarto/bin/../lib/gcc/arm-none-eabi/4.6.2/../../../../arm-none-eabi/lib/thumb/v7m\libg.a(lib_a-dtoa.o)
 .debug_frame   0x000098c0       0x40 d:/elektronik/ides/eclipse/yagarto/bin/../lib/gcc/arm-none-eabi/4.6.2/../../../../arm-none-eabi/lib/thumb/v7m\libg.a(lib_a-fflush.o)
 .debug_frame   0x00009900      0x120 d:/elektronik/ides/eclipse/yagarto/bin/../lib/gcc/arm-none-eabi/4.6.2/../../../../arm-none-eabi/lib/thumb/v7m\libg.a(lib_a-findfp.o)
 .debug_frame   0x00009a20       0x50 d:/elektronik/ides/eclipse/yagarto/bin/../lib/gcc/arm-none-eabi/4.6.2/../../../../arm-none-eabi/lib/thumb/v7m\libg.a(lib_a-fputwc.o)
 .debug_frame   0x00009a70       0x50 d:/elektronik/ides/eclipse/yagarto/bin/../lib/gcc/arm-none-eabi/4.6.2/../../../../arm-none-eabi/lib/thumb/v7m\libg.a(lib_a-freer.o)
 .debug_frame   0x00009ac0       0x54 d:/elektronik/ides/eclipse/yagarto/bin/../lib/gcc/arm-none-eabi/4.6.2/../../../../arm-none-eabi/lib/thumb/v7m\libg.a(lib_a-fwalk.o)
 .debug_frame   0x00009b14       0x98 d:/elektronik/ides/eclipse/yagarto/bin/../lib/gcc/arm-none-eabi/4.6.2/../../../../arm-none-eabi/lib/thumb/v7m\libg.a(lib_a-locale.o)
 .debug_frame   0x00009bac       0x30 d:/elektronik/ides/eclipse/yagarto/bin/../lib/gcc/arm-none-eabi/4.6.2/../../../../arm-none-eabi/lib/thumb/v7m\libg.a(lib_a-makebuf.o)
 .debug_frame   0x00009bdc      0x230 d:/elektronik/ides/eclipse/yagarto/bin/../lib/gcc/arm-none-eabi/4.6.2/../../../../arm-none-eabi/lib/thumb/v7m\libg.a(lib_a-mprec.o)
 .debug_frame   0x00009e0c       0x28 d:/elektronik/ides/eclipse/yagarto/bin/../lib/gcc/arm-none-eabi/4.6.2/../../../../arm-none-eabi/lib/thumb/v7m\libg.a(lib_a-s_fpclassify.o)
 .debug_frame   0x00009e34       0x80 d:/elektronik/ides/eclipse/yagarto/bin/../lib/gcc/arm-none-eabi/4.6.2/../../../../arm-none-eabi/lib/thumb/v7m\libg.a(lib_a-stdio.o)
 .debug_frame   0x00009eb4       0x64 d:/elektronik/ides/eclipse/yagarto/bin/../lib/gcc/arm-none-eabi/4.6.2/../../../../arm-none-eabi/lib/thumb/v7m\libg.a(lib_a-svfiprintf.o)
 .debug_frame   0x00009f18       0x58 d:/elektronik/ides/eclipse/yagarto/bin/../lib/gcc/arm-none-eabi/4.6.2/../../../../arm-none-eabi/lib/thumb/v7m\libg.a(lib_a-wcrtomb.o)
 .debug_frame   0x00009f70       0x44 d:/elektronik/ides/eclipse/yagarto/bin/../lib/gcc/arm-none-eabi/4.6.2/../../../../arm-none-eabi/lib/thumb/v7m\libg.a(lib_a-wctomb_r.o)
 .debug_frame   0x00009fb4       0x28 d:/elektronik/ides/eclipse/yagarto/bin/../lib/gcc/arm-none-eabi/4.6.2/../../../../arm-none-eabi/lib/thumb/v7m\libg.a(lib_a-callocr.o)
 .debug_frame   0x00009fdc       0x3c d:/elektronik/ides/eclipse/yagarto/bin/../lib/gcc/arm-none-eabi/4.6.2/../../../../arm-none-eabi/lib/thumb/v7m\libg.a(lib_a-fclose.o)
 .debug_frame   0x0000a018       0x20 d:/elektronik/ides/eclipse/yagarto/bin/../lib/gcc/arm-none-eabi/4.6.2/thumb/v7m\libgcc.a(_udivsi3.o)
