Archive member included because of file (symbol)

d:/elektronik/ides/eclipse/yagarto/bin/../lib/gcc/arm-none-eabi/4.6.2/../../../../arm-none-eabi/lib/thumb/v7m\libstdc++.a(atexit_arm.o)
                              ./main.o (__aeabi_atexit)
d:/elektronik/ides/eclipse/yagarto/bin/../lib/gcc/arm-none-eabi/4.6.2/../../../../arm-none-eabi/lib/thumb/v7m\libstdc++.a(del_op.o)
                              ./Menue/CMenue.o (operator delete(void*))
d:/elektronik/ides/eclipse/yagarto/bin/../lib/gcc/arm-none-eabi/4.6.2/../../../../arm-none-eabi/lib/thumb/v7m\libstdc++.a(pure.o)
                              ./GraphicLCD/CGraphicLCD.o (__cxa_pure_virtual)
d:/elektronik/ides/eclipse/yagarto/bin/../lib/gcc/arm-none-eabi/4.6.2/../../../../arm-none-eabi/lib/thumb/v7m\libstdc++.a(eh_terminate.o)
                              d:/elektronik/ides/eclipse/yagarto/bin/../lib/gcc/arm-none-eabi/4.6.2/../../../../arm-none-eabi/lib/thumb/v7m\libstdc++.a(pure.o) (std::terminate())
d:/elektronik/ides/eclipse/yagarto/bin/../lib/gcc/arm-none-eabi/4.6.2/../../../../arm-none-eabi/lib/thumb/v7m\libstdc++.a(eh_term_handler.o)
                              d:/elektronik/ides/eclipse/yagarto/bin/../lib/gcc/arm-none-eabi/4.6.2/../../../../arm-none-eabi/lib/thumb/v7m\libstdc++.a(eh_terminate.o) (__cxxabiv1::__terminate_handler)
d:/elektronik/ides/eclipse/yagarto/bin/../lib/gcc/arm-none-eabi/4.6.2/../../../../arm-none-eabi/lib/thumb/v7m\libstdc++.a(eh_unex_handler.o)
                              d:/elektronik/ides/eclipse/yagarto/bin/../lib/gcc/arm-none-eabi/4.6.2/../../../../arm-none-eabi/lib/thumb/v7m\libstdc++.a(eh_terminate.o) (__cxxabiv1::__unexpected_handler)
d:/elektronik/ides/eclipse/yagarto/bin/../lib/gcc/arm-none-eabi/4.6.2/../../../../arm-none-eabi/lib/thumb/v7m\libstdc++.a(vterminate.o)
                              d:/elektronik/ides/eclipse/yagarto/bin/../lib/gcc/arm-none-eabi/4.6.2/../../../../arm-none-eabi/lib/thumb/v7m\libstdc++.a(eh_term_handler.o) (__gnu_cxx::__verbose_terminate_handler())
d:/elektronik/ides/eclipse/yagarto/bin/../lib/gcc/arm-none-eabi/4.6.2/../../../../arm-none-eabi/lib/thumb/v7m\libstdc++.a(cp-demangle.o)
                              d:/elektronik/ides/eclipse/yagarto/bin/../lib/gcc/arm-none-eabi/4.6.2/../../../../arm-none-eabi/lib/thumb/v7m\libstdc++.a(vterminate.o) (__cxa_demangle)
d:/elektronik/ides/eclipse/yagarto/bin/../lib/gcc/arm-none-eabi/4.6.2/../../../../arm-none-eabi/lib/thumb/v7m\libstdc++.a(eh_arm.o)
                              d:/elektronik/ides/eclipse/yagarto/bin/../lib/gcc/arm-none-eabi/4.6.2/../../../../arm-none-eabi/lib/thumb/v7m\libstdc++.a(eh_terminate.o) (__cxa_end_cleanup)
d:/elektronik/ides/eclipse/yagarto/bin/../lib/gcc/arm-none-eabi/4.6.2/../../../../arm-none-eabi/lib/thumb/v7m\libstdc++.a(eh_aux_runtime.o)
                              d:/elektronik/ides/eclipse/yagarto/bin/../lib/gcc/arm-none-eabi/4.6.2/../../../../arm-none-eabi/lib/thumb/v7m\libstdc++.a(eh_arm.o) (__cxa_bad_typeid)
d:/elektronik/ides/eclipse/yagarto/bin/../lib/gcc/arm-none-eabi/4.6.2/../../../../arm-none-eabi/lib/thumb/v7m\libstdc++.a(eh_call.o)
                              d:/elektronik/ides/eclipse/yagarto/bin/../lib/gcc/arm-none-eabi/4.6.2/../../../../arm-none-eabi/lib/thumb/v7m\libstdc++.a(eh_terminate.o) (__cxa_call_unexpected)
d:/elektronik/ides/eclipse/yagarto/bin/../lib/gcc/arm-none-eabi/4.6.2/../../../../arm-none-eabi/lib/thumb/v7m\libstdc++.a(eh_catch.o)
                              d:/elektronik/ides/eclipse/yagarto/bin/../lib/gcc/arm-none-eabi/4.6.2/../../../../arm-none-eabi/lib/thumb/v7m\libstdc++.a(eh_terminate.o) (__cxa_begin_catch)
d:/elektronik/ides/eclipse/yagarto/bin/../lib/gcc/arm-none-eabi/4.6.2/../../../../arm-none-eabi/lib/thumb/v7m\libstdc++.a(eh_exception.o)
                              d:/elektronik/ides/eclipse/yagarto/bin/../lib/gcc/arm-none-eabi/4.6.2/../../../../arm-none-eabi/lib/thumb/v7m\libstdc++.a(vterminate.o) (typeinfo for std::exception)
d:/elektronik/ides/eclipse/yagarto/bin/../lib/gcc/arm-none-eabi/4.6.2/../../../../arm-none-eabi/lib/thumb/v7m\libstdc++.a(eh_globals.o)
                              d:/elektronik/ides/eclipse/yagarto/bin/../lib/gcc/arm-none-eabi/4.6.2/../../../../arm-none-eabi/lib/thumb/v7m\libstdc++.a(eh_call.o) (__cxa_get_globals_fast)
d:/elektronik/ides/eclipse/yagarto/bin/../lib/gcc/arm-none-eabi/4.6.2/../../../../arm-none-eabi/lib/thumb/v7m\libstdc++.a(eh_personality.o)
                              d:/elektronik/ides/eclipse/yagarto/bin/../lib/gcc/arm-none-eabi/4.6.2/../../../../arm-none-eabi/lib/thumb/v7m\libstdc++.a(eh_terminate.o) (__gxx_personality_v0)
d:/elektronik/ides/eclipse/yagarto/bin/../lib/gcc/arm-none-eabi/4.6.2/../../../../arm-none-eabi/lib/thumb/v7m\libstdc++.a(eh_throw.o)
                              d:/elektronik/ides/eclipse/yagarto/bin/../lib/gcc/arm-none-eabi/4.6.2/../../../../arm-none-eabi/lib/thumb/v7m\libstdc++.a(eh_aux_runtime.o) (__cxa_throw)
d:/elektronik/ides/eclipse/yagarto/bin/../lib/gcc/arm-none-eabi/4.6.2/../../../../arm-none-eabi/lib/thumb/v7m\libstdc++.a(eh_type.o)
                              d:/elektronik/ides/eclipse/yagarto/bin/../lib/gcc/arm-none-eabi/4.6.2/../../../../arm-none-eabi/lib/thumb/v7m\libstdc++.a(vterminate.o) (__cxa_current_exception_type)
d:/elektronik/ides/eclipse/yagarto/bin/../lib/gcc/arm-none-eabi/4.6.2/../../../../arm-none-eabi/lib/thumb/v7m\libstdc++.a(fundamental_type_info.o)
                              d:/elektronik/ides/eclipse/yagarto/bin/../lib/gcc/arm-none-eabi/4.6.2/../../../../arm-none-eabi/lib/thumb/v7m\libstdc++.a(eh_arm.o) (typeinfo for void)
d:/elektronik/ides/eclipse/yagarto/bin/../lib/gcc/arm-none-eabi/4.6.2/../../../../arm-none-eabi/lib/thumb/v7m\libstdc++.a(pointer_type_info.o)
                              d:/elektronik/ides/eclipse/yagarto/bin/../lib/gcc/arm-none-eabi/4.6.2/../../../../arm-none-eabi/lib/thumb/v7m\libstdc++.a(fundamental_type_info.o) (vtable for __cxxabiv1::__pointer_type_info)
d:/elektronik/ides/eclipse/yagarto/bin/../lib/gcc/arm-none-eabi/4.6.2/../../../../arm-none-eabi/lib/thumb/v7m\libstdc++.a(si_class_type_info.o)
                              d:/elektronik/ides/eclipse/yagarto/bin/../lib/gcc/arm-none-eabi/4.6.2/../../../../arm-none-eabi/lib/thumb/v7m\libstdc++.a(eh_exception.o) (vtable for __cxxabiv1::__si_class_type_info)
d:/elektronik/ides/eclipse/yagarto/bin/../lib/gcc/arm-none-eabi/4.6.2/../../../../arm-none-eabi/lib/thumb/v7m\libstdc++.a(tinfo.o)
                              d:/elektronik/ides/eclipse/yagarto/bin/../lib/gcc/arm-none-eabi/4.6.2/../../../../arm-none-eabi/lib/thumb/v7m\libstdc++.a(fundamental_type_info.o) (std::type_info::~type_info())
d:/elektronik/ides/eclipse/yagarto/bin/../lib/gcc/arm-none-eabi/4.6.2/../../../../arm-none-eabi/lib/thumb/v7m\libstdc++.a(bad_cast.o)
                              d:/elektronik/ides/eclipse/yagarto/bin/../lib/gcc/arm-none-eabi/4.6.2/../../../../arm-none-eabi/lib/thumb/v7m\libstdc++.a(eh_aux_runtime.o) (typeinfo for std::bad_cast)
d:/elektronik/ides/eclipse/yagarto/bin/../lib/gcc/arm-none-eabi/4.6.2/../../../../arm-none-eabi/lib/thumb/v7m\libstdc++.a(bad_typeid.o)
                              d:/elektronik/ides/eclipse/yagarto/bin/../lib/gcc/arm-none-eabi/4.6.2/../../../../arm-none-eabi/lib/thumb/v7m\libstdc++.a(eh_aux_runtime.o) (typeinfo for std::bad_typeid)
d:/elektronik/ides/eclipse/yagarto/bin/../lib/gcc/arm-none-eabi/4.6.2/../../../../arm-none-eabi/lib/thumb/v7m\libstdc++.a(class_type_info.o)
                              d:/elektronik/ides/eclipse/yagarto/bin/../lib/gcc/arm-none-eabi/4.6.2/../../../../arm-none-eabi/lib/thumb/v7m\libstdc++.a(si_class_type_info.o) (__cxxabiv1::__class_type_info::__do_upcast(__cxxabiv1::__class_type_info const*, void**) const)
d:/elektronik/ides/eclipse/yagarto/bin/../lib/gcc/arm-none-eabi/4.6.2/../../../../arm-none-eabi/lib/thumb/v7m\libstdc++.a(eh_alloc.o)
                              d:/elektronik/ides/eclipse/yagarto/bin/../lib/gcc/arm-none-eabi/4.6.2/../../../../arm-none-eabi/lib/thumb/v7m\libstdc++.a(eh_aux_runtime.o) (__cxa_allocate_exception)
d:/elektronik/ides/eclipse/yagarto/bin/../lib/gcc/arm-none-eabi/4.6.2/../../../../arm-none-eabi/lib/thumb/v7m\libstdc++.a(pbase_type_info.o)
                              d:/elektronik/ides/eclipse/yagarto/bin/../lib/gcc/arm-none-eabi/4.6.2/../../../../arm-none-eabi/lib/thumb/v7m\libstdc++.a(pointer_type_info.o) (__cxxabiv1::__pbase_type_info::~__pbase_type_info())
d:/elektronik/ides/eclipse/yagarto/bin/../lib/gcc/arm-none-eabi/4.6.2/thumb/v7m\libgcc.a(unwind-arm.o)
                              d:/elektronik/ides/eclipse/yagarto/bin/../lib/gcc/arm-none-eabi/4.6.2/../../../../arm-none-eabi/lib/thumb/v7m\libstdc++.a(eh_arm.o) (__aeabi_unwind_cpp_pr0)
d:/elektronik/ides/eclipse/yagarto/bin/../lib/gcc/arm-none-eabi/4.6.2/thumb/v7m\libgcc.a(libunwind.o)
                              d:/elektronik/ides/eclipse/yagarto/bin/../lib/gcc/arm-none-eabi/4.6.2/thumb/v7m\libgcc.a(unwind-arm.o) (restore_core_regs)
d:/elektronik/ides/eclipse/yagarto/bin/../lib/gcc/arm-none-eabi/4.6.2/thumb/v7m\libgcc.a(pr-support.o)
                              d:/elektronik/ides/eclipse/yagarto/bin/../lib/gcc/arm-none-eabi/4.6.2/thumb/v7m\libgcc.a(unwind-arm.o) (__gnu_unwind_execute)
d:/elektronik/ides/eclipse/yagarto/bin/../lib/gcc/arm-none-eabi/4.6.2/../../../../arm-none-eabi/lib/thumb/v7m\libg.a(lib_a-abort.o)
                              d:/elektronik/ides/eclipse/yagarto/bin/../lib/gcc/arm-none-eabi/4.6.2/../../../../arm-none-eabi/lib/thumb/v7m\libstdc++.a(eh_terminate.o) (abort)
d:/elektronik/ides/eclipse/yagarto/bin/../lib/gcc/arm-none-eabi/4.6.2/../../../../arm-none-eabi/lib/thumb/v7m\libg.a(lib_a-assert.o)
                              ./FreeRTOS_EC/Source/ASyncObject.o (__assert_func)
d:/elektronik/ides/eclipse/yagarto/bin/../lib/gcc/arm-none-eabi/4.6.2/../../../../arm-none-eabi/lib/thumb/v7m\libg.a(lib_a-atexit.o)
                              d:/elektronik/ides/eclipse/yagarto/bin/../lib/gcc/arm-none-eabi/4.6.2/../../../../arm-none-eabi/lib/thumb/v7m/crt0.o (atexit)
d:/elektronik/ides/eclipse/yagarto/bin/../lib/gcc/arm-none-eabi/4.6.2/../../../../arm-none-eabi/lib/thumb/v7m\libg.a(lib_a-cxa_atexit.o)
                              d:/elektronik/ides/eclipse/yagarto/bin/../lib/gcc/arm-none-eabi/4.6.2/../../../../arm-none-eabi/lib/thumb/v7m\libstdc++.a(atexit_arm.o) (__cxa_atexit)
d:/elektronik/ides/eclipse/yagarto/bin/../lib/gcc/arm-none-eabi/4.6.2/../../../../arm-none-eabi/lib/thumb/v7m\libg.a(lib_a-exit.o)
                              d:/elektronik/ides/eclipse/yagarto/bin/../lib/gcc/arm-none-eabi/4.6.2/../../../../arm-none-eabi/lib/thumb/v7m/crt0.o (exit)
d:/elektronik/ides/eclipse/yagarto/bin/../lib/gcc/arm-none-eabi/4.6.2/../../../../arm-none-eabi/lib/thumb/v7m\libg.a(lib_a-fini.o)
                              d:/elektronik/ides/eclipse/yagarto/bin/../lib/gcc/arm-none-eabi/4.6.2/../../../../arm-none-eabi/lib/thumb/v7m/crt0.o (__libc_fini_array)
d:/elektronik/ides/eclipse/yagarto/bin/../lib/gcc/arm-none-eabi/4.6.2/../../../../arm-none-eabi/lib/thumb/v7m\libg.a(lib_a-fiprintf.o)
                              d:/elektronik/ides/eclipse/yagarto/bin/../lib/gcc/arm-none-eabi/4.6.2/../../../../arm-none-eabi/lib/thumb/v7m\libg.a(lib_a-assert.o) (fiprintf)
d:/elektronik/ides/eclipse/yagarto/bin/../lib/gcc/arm-none-eabi/4.6.2/../../../../arm-none-eabi/lib/thumb/v7m\libg.a(lib_a-fputc.o)
                              d:/elektronik/ides/eclipse/yagarto/bin/../lib/gcc/arm-none-eabi/4.6.2/../../../../arm-none-eabi/lib/thumb/v7m\libstdc++.a(vterminate.o) (fputc)
d:/elektronik/ides/eclipse/yagarto/bin/../lib/gcc/arm-none-eabi/4.6.2/../../../../arm-none-eabi/lib/thumb/v7m\libg.a(lib_a-fputs.o)
                              d:/elektronik/ides/eclipse/yagarto/bin/../lib/gcc/arm-none-eabi/4.6.2/../../../../arm-none-eabi/lib/thumb/v7m\libstdc++.a(vterminate.o) (fputs)
d:/elektronik/ides/eclipse/yagarto/bin/../lib/gcc/arm-none-eabi/4.6.2/../../../../arm-none-eabi/lib/thumb/v7m\libg.a(lib_a-fvwrite.o)
                              d:/elektronik/ides/eclipse/yagarto/bin/../lib/gcc/arm-none-eabi/4.6.2/../../../../arm-none-eabi/lib/thumb/v7m\libg.a(lib_a-fputs.o) (__sfvwrite_r)
d:/elektronik/ides/eclipse/yagarto/bin/../lib/gcc/arm-none-eabi/4.6.2/../../../../arm-none-eabi/lib/thumb/v7m\libg.a(lib_a-fwrite.o)
                              d:/elektronik/ides/eclipse/yagarto/bin/../lib/gcc/arm-none-eabi/4.6.2/../../../../arm-none-eabi/lib/thumb/v7m\libstdc++.a(vterminate.o) (fwrite)
d:/elektronik/ides/eclipse/yagarto/bin/../lib/gcc/arm-none-eabi/4.6.2/../../../../arm-none-eabi/lib/thumb/v7m\libg.a(lib_a-impure.o)
                              d:/elektronik/ides/eclipse/yagarto/bin/../lib/gcc/arm-none-eabi/4.6.2/../../../../arm-none-eabi/lib/thumb/v7m\libg.a(lib_a-exit.o) (_global_impure_ptr)
d:/elektronik/ides/eclipse/yagarto/bin/../lib/gcc/arm-none-eabi/4.6.2/../../../../arm-none-eabi/lib/thumb/v7m\libg.a(lib_a-init.o)
                              d:/elektronik/ides/eclipse/yagarto/bin/../lib/gcc/arm-none-eabi/4.6.2/../../../../arm-none-eabi/lib/thumb/v7m/crt0.o (__libc_init_array)
d:/elektronik/ides/eclipse/yagarto/bin/../lib/gcc/arm-none-eabi/4.6.2/../../../../arm-none-eabi/lib/thumb/v7m\libg.a(lib_a-malloc.o)
                              ./FreeRTOS/Source/croutine.o (malloc)
d:/elektronik/ides/eclipse/yagarto/bin/../lib/gcc/arm-none-eabi/4.6.2/../../../../arm-none-eabi/lib/thumb/v7m\libg.a(lib_a-mallocr.o)
                              d:/elektronik/ides/eclipse/yagarto/bin/../lib/gcc/arm-none-eabi/4.6.2/../../../../arm-none-eabi/lib/thumb/v7m\libg.a(lib_a-fvwrite.o) (_malloc_r)
d:/elektronik/ides/eclipse/yagarto/bin/../lib/gcc/arm-none-eabi/4.6.2/../../../../arm-none-eabi/lib/thumb/v7m\libg.a(lib_a-memchr.o)
                              d:/elektronik/ides/eclipse/yagarto/bin/../lib/gcc/arm-none-eabi/4.6.2/../../../../arm-none-eabi/lib/thumb/v7m\libg.a(lib_a-fvwrite.o) (memchr)
d:/elektronik/ides/eclipse/yagarto/bin/../lib/gcc/arm-none-eabi/4.6.2/../../../../arm-none-eabi/lib/thumb/v7m\libg.a(lib_a-memcmp.o)
                              d:/elektronik/ides/eclipse/yagarto/bin/../lib/gcc/arm-none-eabi/4.6.2/../../../../arm-none-eabi/lib/thumb/v7m\libstdc++.a(cp-demangle.o) (memcmp)
d:/elektronik/ides/eclipse/yagarto/bin/../lib/gcc/arm-none-eabi/4.6.2/../../../../arm-none-eabi/lib/thumb/v7m\libg.a(lib_a-memcpy.o)
                              ./HelixMP3/mp3dec.o (memcpy)
d:/elektronik/ides/eclipse/yagarto/bin/../lib/gcc/arm-none-eabi/4.6.2/../../../../arm-none-eabi/lib/thumb/v7m\libg.a(lib_a-memmove.o)
                              ./HelixMP3/mp3dec.o (memmove)
d:/elektronik/ides/eclipse/yagarto/bin/../lib/gcc/arm-none-eabi/4.6.2/../../../../arm-none-eabi/lib/thumb/v7m\libg.a(lib_a-memset.o)
                              d:/elektronik/ides/eclipse/yagarto/bin/../lib/gcc/arm-none-eabi/4.6.2/../../../../arm-none-eabi/lib/thumb/v7m/crt0.o (memset)
d:/elektronik/ides/eclipse/yagarto/bin/../lib/gcc/arm-none-eabi/4.6.2/../../../../arm-none-eabi/lib/thumb/v7m\libg.a(lib_a-putc.o)
                              d:/elektronik/ides/eclipse/yagarto/bin/../lib/gcc/arm-none-eabi/4.6.2/../../../../arm-none-eabi/lib/thumb/v7m\libg.a(lib_a-fputc.o) (_putc_r)
d:/elektronik/ides/eclipse/yagarto/bin/../lib/gcc/arm-none-eabi/4.6.2/../../../../arm-none-eabi/lib/thumb/v7m\libg.a(lib_a-realloc.o)
                              d:/elektronik/ides/eclipse/yagarto/bin/../lib/gcc/arm-none-eabi/4.6.2/../../../../arm-none-eabi/lib/thumb/v7m\libstdc++.a(cp-demangle.o) (realloc)
d:/elektronik/ides/eclipse/yagarto/bin/../lib/gcc/arm-none-eabi/4.6.2/../../../../arm-none-eabi/lib/thumb/v7m\libg.a(lib_a-reallocr.o)
                              d:/elektronik/ides/eclipse/yagarto/bin/../lib/gcc/arm-none-eabi/4.6.2/../../../../arm-none-eabi/lib/thumb/v7m\libg.a(lib_a-fvwrite.o) (_realloc_r)
d:/elektronik/ides/eclipse/yagarto/bin/../lib/gcc/arm-none-eabi/4.6.2/../../../../arm-none-eabi/lib/thumb/v7m\libg.a(lib_a-signal.o)
                              d:/elektronik/ides/eclipse/yagarto/bin/../lib/gcc/arm-none-eabi/4.6.2/../../../../arm-none-eabi/lib/thumb/v7m\libg.a(lib_a-abort.o) (raise)
d:/elektronik/ides/eclipse/yagarto/bin/../lib/gcc/arm-none-eabi/4.6.2/../../../../arm-none-eabi/lib/thumb/v7m\libg.a(lib_a-sprintf.o)
                              ./Menue/CMenue.o (sprintf)
d:/elektronik/ides/eclipse/yagarto/bin/../lib/gcc/arm-none-eabi/4.6.2/../../../../arm-none-eabi/lib/thumb/v7m\libg.a(lib_a-strcat.o)
                              ./FreeRTOS/Source/tasks.o (strcat)
d:/elektronik/ides/eclipse/yagarto/bin/../lib/gcc/arm-none-eabi/4.6.2/../../../../arm-none-eabi/lib/thumb/v7m\libg.a(lib_a-strcmp.o)
                              d:/elektronik/ides/eclipse/yagarto/bin/../lib/gcc/arm-none-eabi/4.6.2/../../../../arm-none-eabi/lib/thumb/v7m\libstdc++.a(cp-demangle.o) (strcmp)
d:/elektronik/ides/eclipse/yagarto/bin/../lib/gcc/arm-none-eabi/4.6.2/../../../../arm-none-eabi/lib/thumb/v7m\libg.a(lib_a-strcpy.o)
                              d:/elektronik/ides/eclipse/yagarto/bin/../lib/gcc/arm-none-eabi/4.6.2/../../../../arm-none-eabi/lib/thumb/v7m\libstdc++.a(cp-demangle.o) (strcpy)
d:/elektronik/ides/eclipse/yagarto/bin/../lib/gcc/arm-none-eabi/4.6.2/../../../../arm-none-eabi/lib/thumb/v7m\libg.a(lib_a-strlen.o)
                              ./FreeRTOS/Source/tasks.o (strlen)
d:/elektronik/ides/eclipse/yagarto/bin/../lib/gcc/arm-none-eabi/4.6.2/../../../../arm-none-eabi/lib/thumb/v7m\libg.a(lib_a-strncmp.o)
                              d:/elektronik/ides/eclipse/yagarto/bin/../lib/gcc/arm-none-eabi/4.6.2/../../../../arm-none-eabi/lib/thumb/v7m\libstdc++.a(cp-demangle.o) (strncmp)
d:/elektronik/ides/eclipse/yagarto/bin/../lib/gcc/arm-none-eabi/4.6.2/../../../../arm-none-eabi/lib/thumb/v7m\libg.a(lib_a-strncpy.o)
                              ./FreeRTOS/Source/tasks.o (strncpy)
d:/elektronik/ides/eclipse/yagarto/bin/../lib/gcc/arm-none-eabi/4.6.2/../../../../arm-none-eabi/lib/thumb/v7m\libg.a(lib_a-svfprintf.o)
                              d:/elektronik/ides/eclipse/yagarto/bin/../lib/gcc/arm-none-eabi/4.6.2/../../../../arm-none-eabi/lib/thumb/v7m\libg.a(lib_a-sprintf.o) (_svfprintf_r)
d:/elektronik/ides/eclipse/yagarto/bin/../lib/gcc/arm-none-eabi/4.6.2/../../../../arm-none-eabi/lib/thumb/v7m\libg.a(lib_a-syswrite.o)
                              d:/elektronik/ides/eclipse/yagarto/bin/../lib/gcc/arm-none-eabi/4.6.2/../../../../arm-none-eabi/lib/thumb/v7m\libstdc++.a(pure.o) (write)
d:/elektronik/ides/eclipse/yagarto/bin/../lib/gcc/arm-none-eabi/4.6.2/../../../../arm-none-eabi/lib/thumb/v7m\libg.a(lib_a-vfiprintf.o)
                              d:/elektronik/ides/eclipse/yagarto/bin/../lib/gcc/arm-none-eabi/4.6.2/../../../../arm-none-eabi/lib/thumb/v7m\libg.a(lib_a-fiprintf.o) (_vfiprintf_r)
d:/elektronik/ides/eclipse/yagarto/bin/../lib/gcc/arm-none-eabi/4.6.2/../../../../arm-none-eabi/lib/thumb/v7m\libg.a(lib_a-wbuf.o)
                              d:/elektronik/ides/eclipse/yagarto/bin/../lib/gcc/arm-none-eabi/4.6.2/../../../../arm-none-eabi/lib/thumb/v7m\libg.a(lib_a-putc.o) (__swbuf_r)
d:/elektronik/ides/eclipse/yagarto/bin/../lib/gcc/arm-none-eabi/4.6.2/../../../../arm-none-eabi/lib/thumb/v7m\libg.a(lib_a-wsetup.o)
                              d:/elektronik/ides/eclipse/yagarto/bin/../lib/gcc/arm-none-eabi/4.6.2/../../../../arm-none-eabi/lib/thumb/v7m\libg.a(lib_a-fvwrite.o) (__swsetup_r)
d:/elektronik/ides/eclipse/yagarto/bin/../lib/gcc/arm-none-eabi/4.6.2/../../../../arm-none-eabi/lib/thumb/v7m\libg.a(lib_a-__atexit.o)
                              d:/elektronik/ides/eclipse/yagarto/bin/../lib/gcc/arm-none-eabi/4.6.2/../../../../arm-none-eabi/lib/thumb/v7m\libg.a(lib_a-atexit.o) (__register_exitproc)
d:/elektronik/ides/eclipse/yagarto/bin/../lib/gcc/arm-none-eabi/4.6.2/../../../../arm-none-eabi/lib/thumb/v7m\libg.a(lib_a-__call_atexit.o)
                              d:/elektronik/ides/eclipse/yagarto/bin/../lib/gcc/arm-none-eabi/4.6.2/../../../../arm-none-eabi/lib/thumb/v7m\libg.a(lib_a-exit.o) (__call_exitprocs)
d:/elektronik/ides/eclipse/yagarto/bin/../lib/gcc/arm-none-eabi/4.6.2/../../../../arm-none-eabi/lib/thumb/v7m\libg.a(lib_a-dtoa.o)
                              d:/elektronik/ides/eclipse/yagarto/bin/../lib/gcc/arm-none-eabi/4.6.2/../../../../arm-none-eabi/lib/thumb/v7m\libg.a(lib_a-svfprintf.o) (_dtoa_r)
d:/elektronik/ides/eclipse/yagarto/bin/../lib/gcc/arm-none-eabi/4.6.2/../../../../arm-none-eabi/lib/thumb/v7m\libg.a(lib_a-fflush.o)
                              d:/elektronik/ides/eclipse/yagarto/bin/../lib/gcc/arm-none-eabi/4.6.2/../../../../arm-none-eabi/lib/thumb/v7m\libg.a(lib_a-fvwrite.o) (_fflush_r)
d:/elektronik/ides/eclipse/yagarto/bin/../lib/gcc/arm-none-eabi/4.6.2/../../../../arm-none-eabi/lib/thumb/v7m\libg.a(lib_a-findfp.o)
                              d:/elektronik/ides/eclipse/yagarto/bin/../lib/gcc/arm-none-eabi/4.6.2/../../../../arm-none-eabi/lib/thumb/v7m\libg.a(lib_a-fputc.o) (__sinit)
d:/elektronik/ides/eclipse/yagarto/bin/../lib/gcc/arm-none-eabi/4.6.2/../../../../arm-none-eabi/lib/thumb/v7m\libg.a(lib_a-fputwc.o)
                              d:/elektronik/ides/eclipse/yagarto/bin/../lib/gcc/arm-none-eabi/4.6.2/../../../../arm-none-eabi/lib/thumb/v7m\libg.a(lib_a-vfiprintf.o) (_fputwc_r)
d:/elektronik/ides/eclipse/yagarto/bin/../lib/gcc/arm-none-eabi/4.6.2/../../../../arm-none-eabi/lib/thumb/v7m\libg.a(lib_a-freer.o)
                              d:/elektronik/ides/eclipse/yagarto/bin/../lib/gcc/arm-none-eabi/4.6.2/../../../../arm-none-eabi/lib/thumb/v7m\libg.a(lib_a-fvwrite.o) (_free_r)
d:/elektronik/ides/eclipse/yagarto/bin/../lib/gcc/arm-none-eabi/4.6.2/../../../../arm-none-eabi/lib/thumb/v7m\libg.a(lib_a-fwalk.o)
                              d:/elektronik/ides/eclipse/yagarto/bin/../lib/gcc/arm-none-eabi/4.6.2/../../../../arm-none-eabi/lib/thumb/v7m\libg.a(lib_a-findfp.o) (_fwalk)
d:/elektronik/ides/eclipse/yagarto/bin/../lib/gcc/arm-none-eabi/4.6.2/../../../../arm-none-eabi/lib/thumb/v7m\libg.a(lib_a-locale.o)
                              d:/elektronik/ides/eclipse/yagarto/bin/../lib/gcc/arm-none-eabi/4.6.2/../../../../arm-none-eabi/lib/thumb/v7m\libg.a(lib_a-fputwc.o) (__locale_mb_cur_max)
d:/elektronik/ides/eclipse/yagarto/bin/../lib/gcc/arm-none-eabi/4.6.2/../../../../arm-none-eabi/lib/thumb/v7m\libg.a(lib_a-makebuf.o)
                              d:/elektronik/ides/eclipse/yagarto/bin/../lib/gcc/arm-none-eabi/4.6.2/../../../../arm-none-eabi/lib/thumb/v7m\libg.a(lib_a-wsetup.o) (__smakebuf_r)
d:/elektronik/ides/eclipse/yagarto/bin/../lib/gcc/arm-none-eabi/4.6.2/../../../../arm-none-eabi/lib/thumb/v7m\libg.a(lib_a-mprec.o)
                              d:/elektronik/ides/eclipse/yagarto/bin/../lib/gcc/arm-none-eabi/4.6.2/../../../../arm-none-eabi/lib/thumb/v7m\libg.a(lib_a-dtoa.o) (_Balloc)
d:/elektronik/ides/eclipse/yagarto/bin/../lib/gcc/arm-none-eabi/4.6.2/../../../../arm-none-eabi/lib/thumb/v7m\libg.a(lib_a-s_fpclassify.o)
                              d:/elektronik/ides/eclipse/yagarto/bin/../lib/gcc/arm-none-eabi/4.6.2/../../../../arm-none-eabi/lib/thumb/v7m\libg.a(lib_a-svfprintf.o) (__fpclassifyd)
d:/elektronik/ides/eclipse/yagarto/bin/../lib/gcc/arm-none-eabi/4.6.2/../../../../arm-none-eabi/lib/thumb/v7m\libg.a(lib_a-stdio.o)
                              d:/elektronik/ides/eclipse/yagarto/bin/../lib/gcc/arm-none-eabi/4.6.2/../../../../arm-none-eabi/lib/thumb/v7m\libg.a(lib_a-findfp.o) (__sread)
d:/elektronik/ides/eclipse/yagarto/bin/../lib/gcc/arm-none-eabi/4.6.2/../../../../arm-none-eabi/lib/thumb/v7m\libg.a(lib_a-svfiprintf.o)
                              d:/elektronik/ides/eclipse/yagarto/bin/../lib/gcc/arm-none-eabi/4.6.2/../../../../arm-none-eabi/lib/thumb/v7m\libg.a(lib_a-svfprintf.o) (__ssprint_r)
d:/elektronik/ides/eclipse/yagarto/bin/../lib/gcc/arm-none-eabi/4.6.2/../../../../arm-none-eabi/lib/thumb/v7m\libg.a(lib_a-wcrtomb.o)
                              d:/elektronik/ides/eclipse/yagarto/bin/../lib/gcc/arm-none-eabi/4.6.2/../../../../arm-none-eabi/lib/thumb/v7m\libg.a(lib_a-fputwc.o) (_wcrtomb_r)
d:/elektronik/ides/eclipse/yagarto/bin/../lib/gcc/arm-none-eabi/4.6.2/../../../../arm-none-eabi/lib/thumb/v7m\libg.a(lib_a-wctomb_r.o)
                              d:/elektronik/ides/eclipse/yagarto/bin/../lib/gcc/arm-none-eabi/4.6.2/../../../../arm-none-eabi/lib/thumb/v7m\libg.a(lib_a-wcrtomb.o) (__wctomb)
d:/elektronik/ides/eclipse/yagarto/bin/../lib/gcc/arm-none-eabi/4.6.2/../../../../arm-none-eabi/lib/thumb/v7m\libg.a(lib_a-callocr.o)
                              d:/elektronik/ides/eclipse/yagarto/bin/../lib/gcc/arm-none-eabi/4.6.2/../../../../arm-none-eabi/lib/thumb/v7m\libg.a(lib_a-mprec.o) (_calloc_r)
d:/elektronik/ides/eclipse/yagarto/bin/../lib/gcc/arm-none-eabi/4.6.2/../../../../arm-none-eabi/lib/thumb/v7m\libg.a(lib_a-fclose.o)
                              d:/elektronik/ides/eclipse/yagarto/bin/../lib/gcc/arm-none-eabi/4.6.2/../../../../arm-none-eabi/lib/thumb/v7m\libg.a(lib_a-findfp.o) (fclose)
d:/elektronik/ides/eclipse/yagarto/bin/../lib/gcc/arm-none-eabi/4.6.2/thumb/v7m\libgcc.a(_udivsi3.o)
                              d:/elektronik/ides/eclipse/yagarto/bin/../lib/gcc/arm-none-eabi/4.6.2/../../../../arm-none-eabi/lib/thumb/v7m\libg.a(lib_a-fwrite.o) (__aeabi_uidiv)
d:/elektronik/ides/eclipse/yagarto/bin/../lib/gcc/arm-none-eabi/4.6.2/thumb/v7m\libgcc.a(_dvmd_tls.o)
                              d:/elektronik/ides/eclipse/yagarto/bin/../lib/gcc/arm-none-eabi/4.6.2/thumb/v7m\libgcc.a(_udivsi3.o) (__aeabi_idiv0)
d:/elektronik/ides/eclipse/yagarto/bin/../lib/gcc/arm-none-eabi/4.6.2/thumb/v7m\libgcc.a(_arm_addsubdf3.o)
                              d:/elektronik/ides/eclipse/yagarto/bin/../lib/gcc/arm-none-eabi/4.6.2/../../../../arm-none-eabi/lib/thumb/v7m\libg.a(lib_a-dtoa.o) (__aeabi_dsub)
d:/elektronik/ides/eclipse/yagarto/bin/../lib/gcc/arm-none-eabi/4.6.2/thumb/v7m\libgcc.a(_arm_muldivdf3.o)
                              d:/elektronik/ides/eclipse/yagarto/bin/../lib/gcc/arm-none-eabi/4.6.2/../../../../arm-none-eabi/lib/thumb/v7m\libg.a(lib_a-dtoa.o) (__aeabi_dmul)
d:/elektronik/ides/eclipse/yagarto/bin/../lib/gcc/arm-none-eabi/4.6.2/thumb/v7m\libgcc.a(_arm_cmpdf2.o)
                              d:/elektronik/ides/eclipse/yagarto/bin/../lib/gcc/arm-none-eabi/4.6.2/../../../../arm-none-eabi/lib/thumb/v7m\libg.a(lib_a-svfprintf.o) (__aeabi_dcmpeq)
d:/elektronik/ides/eclipse/yagarto/bin/../lib/gcc/arm-none-eabi/4.6.2/thumb/v7m\libgcc.a(_arm_fixdfsi.o)
                              d:/elektronik/ides/eclipse/yagarto/bin/../lib/gcc/arm-none-eabi/4.6.2/../../../../arm-none-eabi/lib/thumb/v7m\libg.a(lib_a-dtoa.o) (__aeabi_d2iz)

Allocating common symbols
Common symbol       size              file

fh                  0x38              ./HelixMP3/real/buffers.o
CurrentPos          0x4               ./STM32F4-Discovery/stm32f4_discovery_audio_codec.o
HSEStartUpStatus    0x1               ./Audio_MP3/USB_MSC/usb_bsp.o
mp3DecInfo          0x7f0             ./HelixMP3/real/buffers.o
USBH_MSC_CSWData    0x10              ./STM32_USB_HOST_Library/Class/MSC/src/usbh_msc_bot.o
MSC_Machine         0x4a              ./STM32_USB_HOST_Library/Class/MSC/src/usbh_msc_core.o
sfi                 0x11c             ./HelixMP3/real/buffers.o
__brkval            0x4               ./syscalls.o
si                  0x148             ./HelixMP3/real/buffers.o
USBH_DataInBuffer   0x200             ./STM32_USB_HOST_Library/Class/MSC/src/usbh_msc_scsi.o
USBH_MSC_Param      0x10              ./STM32_USB_HOST_Library/Class/MSC/src/usbh_msc_scsi.o
USBH_MSC_BOTXferParam
                    0x10              ./STM32_USB_HOST_Library/Class/MSC/src/usbh_msc_bot.o
sbi                 0x2204            ./HelixMP3/real/buffers.o
hi                  0x1210            ./HelixMP3/real/buffers.o
di                  0x348             ./HelixMP3/real/buffers.o
semUSBApplication   0x4               ./Audio_MP3/USB_MSC/usbh_usr.o
mi                  0x1b20            ./HelixMP3/real/buffers.o
USBH_DataOutBuffer  0x200             ./STM32_USB_HOST_Library/Class/MSC/src/usbh_msc_scsi.o
AUDIO_MAL_DMA_InitStructure
                    0x3c              ./STM32F4-Discovery/stm32f4_discovery_audio_codec.o
MSC_Setup           0x8               ./STM32_USB_HOST_Library/Class/MSC/src/usbh_msc_core.o
USBH_MSC_CBWData    0x20              ./STM32_USB_HOST_Library/Class/MSC/src/usbh_msc_bot.o
NVIC_InitStructure  0x4               ./STM32F4-Discovery/stm32f4_discovery.o
DMA_InitStructure   0x3c              ./STM32F4-Discovery/stm32f4_discovery_audio_codec.o
fatfs               0x234             ./Audio_MP3/USB_MSC/usbh_usr.o
semUSBMounted       0x4               ./Audio_MP3/USB_MSC/usbh_usr.o

Discarded input sections

 .text          0x00000000        0x0 d:/elektronik/ides/eclipse/yagarto/bin/../lib/gcc/arm-none-eabi/4.6.2/thumb/v7m/crti.o
 .data          0x00000000        0x0 d:/elektronik/ides/eclipse/yagarto/bin/../lib/gcc/arm-none-eabi/4.6.2/thumb/v7m/crti.o
 .bss           0x00000000        0x0 d:/elektronik/ides/eclipse/yagarto/bin/../lib/gcc/arm-none-eabi/4.6.2/thumb/v7m/crti.o
 .text          0x00000000       0x70 d:/elektronik/ides/eclipse/yagarto/bin/../lib/gcc/arm-none-eabi/4.6.2/../../../../arm-none-eabi/lib/thumb/v7m/crt0.o
 .data          0x00000000        0x0 d:/elektronik/ides/eclipse/yagarto/bin/../lib/gcc/arm-none-eabi/4.6.2/../../../../arm-none-eabi/lib/thumb/v7m/crt0.o
 .bss           0x00000000        0x0 d:/elektronik/ides/eclipse/yagarto/bin/../lib/gcc/arm-none-eabi/4.6.2/../../../../arm-none-eabi/lib/thumb/v7m/crt0.o
 .ARM.extab     0x00000000        0x0 d:/elektronik/ides/eclipse/yagarto/bin/../lib/gcc/arm-none-eabi/4.6.2/../../../../arm-none-eabi/lib/thumb/v7m/crt0.o
 .ARM.exidx     0x00000000        0x8 d:/elektronik/ides/eclipse/yagarto/bin/../lib/gcc/arm-none-eabi/4.6.2/../../../../arm-none-eabi/lib/thumb/v7m/crt0.o
 .data          0x00000000        0x0 ./STM32_USB_OTG_Driver/src/usb_core.o
 .bss           0x00000000        0x0 ./STM32_USB_OTG_Driver/src/usb_core.o
 .data          0x00000000        0x0 ./STM32_USB_OTG_Driver/src/usb_hcd.o
 .bss           0x00000000        0x0 ./STM32_USB_OTG_Driver/src/usb_hcd.o
 .data          0x00000000        0x0 ./STM32_USB_OTG_Driver/src/usb_hcd_int.o
 .bss           0x00000000        0x0 ./STM32_USB_OTG_Driver/src/usb_hcd_int.o
 .data          0x00000000        0x0 ./STM32_USB_HOST_Library/Core/src/usbh_core.o
 .bss           0x00000000        0x0 ./STM32_USB_HOST_Library/Core/src/usbh_core.o
 .data          0x00000000        0x0 ./STM32_USB_HOST_Library/Core/src/usbh_hcs.o
 .bss           0x00000000        0x0 ./STM32_USB_HOST_Library/Core/src/usbh_hcs.o
 .data          0x00000000        0x0 ./STM32_USB_HOST_Library/Core/src/usbh_ioreq.o
 .bss           0x00000000        0x0 ./STM32_USB_HOST_Library/Core/src/usbh_ioreq.o
 .data          0x00000000        0x0 ./STM32_USB_HOST_Library/Core/src/usbh_stdreq.o
 .bss           0x00000000        0x0 ./STM32_USB_HOST_Library/Core/src/usbh_stdreq.o
 .data          0x00000000        0x0 ./STM32_USB_HOST_Library/Class/MSC/src/usbh_msc_bot.o
 .bss           0x00000000        0x0 ./STM32_USB_HOST_Library/Class/MSC/src/usbh_msc_bot.o
 .data          0x00000000        0x0 ./STM32_USB_HOST_Library/Class/MSC/src/usbh_msc_core.o
 .bss           0x00000000        0x0 ./STM32_USB_HOST_Library/Class/MSC/src/usbh_msc_core.o
 .data          0x00000000        0x0 ./STM32_USB_HOST_Library/Class/MSC/src/usbh_msc_fatfs.o
 .bss           0x00000000        0x0 ./STM32_USB_HOST_Library/Class/MSC/src/usbh_msc_fatfs.o
 .data          0x00000000        0x0 ./STM32_USB_HOST_Library/Class/MSC/src/usbh_msc_scsi.o
 .bss           0x00000000        0x0 ./STM32_USB_HOST_Library/Class/MSC/src/usbh_msc_scsi.o
 .data          0x00000000        0x0 ./STM32F4xx_StdPeriph_Driver/src/misc.o
 .bss           0x00000000        0x0 ./STM32F4xx_StdPeriph_Driver/src/misc.o
 .text          0x00000000      0xba0 ./STM32F4xx_StdPeriph_Driver/src/stm32f4xx_adc.o
 .data          0x00000000        0x0 ./STM32F4xx_StdPeriph_Driver/src/stm32f4xx_adc.o
 .bss           0x00000000        0x0 ./STM32F4xx_StdPeriph_Driver/src/stm32f4xx_adc.o
 .data          0x00000000        0x0 ./STM32F4xx_StdPeriph_Driver/src/stm32f4xx_dac.o
 .bss           0x00000000        0x0 ./STM32F4xx_StdPeriph_Driver/src/stm32f4xx_dac.o
 .text          0x00000000      0x144 ./STM32F4xx_StdPeriph_Driver/src/stm32f4xx_dbgmcu.o
 .data          0x00000000        0x0 ./STM32F4xx_StdPeriph_Driver/src/stm32f4xx_dbgmcu.o
 .bss           0x00000000        0x0 ./STM32F4xx_StdPeriph_Driver/src/stm32f4xx_dbgmcu.o
 .data          0x00000000        0x0 ./STM32F4xx_StdPeriph_Driver/src/stm32f4xx_dma.o
 .bss           0x00000000        0x0 ./STM32F4xx_StdPeriph_Driver/src/stm32f4xx_dma.o
 .data          0x00000000        0x0 ./STM32F4xx_StdPeriph_Driver/src/stm32f4xx_exti.o
 .bss           0x00000000        0x0 ./STM32F4xx_StdPeriph_Driver/src/stm32f4xx_exti.o
 .text          0x00000000      0xa14 ./STM32F4xx_StdPeriph_Driver/src/stm32f4xx_flash.o
 .data          0x00000000        0x0 ./STM32F4xx_StdPeriph_Driver/src/stm32f4xx_flash.o
 .bss           0x00000000        0x0 ./STM32F4xx_StdPeriph_Driver/src/stm32f4xx_flash.o
 .text          0x00000000      0xbcc ./STM32F4xx_StdPeriph_Driver/src/stm32f4xx_fsmc.o
 .data          0x00000000        0x0 ./STM32F4xx_StdPeriph_Driver/src/stm32f4xx_fsmc.o
 .bss           0x00000000        0x0 ./STM32F4xx_StdPeriph_Driver/src/stm32f4xx_fsmc.o
 .data          0x00000000        0x0 ./STM32F4xx_StdPeriph_Driver/src/stm32f4xx_gpio.o
 .bss           0x00000000        0x0 ./STM32F4xx_StdPeriph_Driver/src/stm32f4xx_gpio.o
 .data          0x00000000        0x0 ./STM32F4xx_StdPeriph_Driver/src/stm32f4xx_i2c.o
 .bss           0x00000000        0x0 ./STM32F4xx_StdPeriph_Driver/src/stm32f4xx_i2c.o
 .text          0x00000000       0xd0 ./STM32F4xx_StdPeriph_Driver/src/stm32f4xx_iwdg.o
 .data          0x00000000        0x0 ./STM32F4xx_StdPeriph_Driver/src/stm32f4xx_iwdg.o
 .bss           0x00000000        0x0 ./STM32F4xx_StdPeriph_Driver/src/stm32f4xx_iwdg.o
 .text          0x00000000      0x290 ./STM32F4xx_StdPeriph_Driver/src/stm32f4xx_pwr.o
 .data          0x00000000        0x0 ./STM32F4xx_StdPeriph_Driver/src/stm32f4xx_pwr.o
 .bss           0x00000000        0x0 ./STM32F4xx_StdPeriph_Driver/src/stm32f4xx_pwr.o
 .data          0x00000000        0x0 ./STM32F4xx_StdPeriph_Driver/src/stm32f4xx_rcc.o
 .bss           0x00000000        0x0 ./STM32F4xx_StdPeriph_Driver/src/stm32f4xx_rcc.o
 .text          0x00000000      0x1a0 ./STM32F4xx_StdPeriph_Driver/src/stm32f4xx_rng.o
 .data          0x00000000        0x0 ./STM32F4xx_StdPeriph_Driver/src/stm32f4xx_rng.o
 .bss           0x00000000        0x0 ./STM32F4xx_StdPeriph_Driver/src/stm32f4xx_rng.o
 .text          0x00000000     0x1c18 ./STM32F4xx_StdPeriph_Driver/src/stm32f4xx_rtc.o
 .data          0x00000000        0x0 ./STM32F4xx_StdPeriph_Driver/src/stm32f4xx_rtc.o
 .bss           0x00000000        0x0 ./STM32F4xx_StdPeriph_Driver/src/stm32f4xx_rtc.o
 .text          0x00000000      0x570 ./STM32F4xx_StdPeriph_Driver/src/stm32f4xx_sdio.o
 .data          0x00000000        0x0 ./STM32F4xx_StdPeriph_Driver/src/stm32f4xx_sdio.o
 .bss           0x00000000        0x0 ./STM32F4xx_StdPeriph_Driver/src/stm32f4xx_sdio.o
 .data          0x00000000        0x0 ./STM32F4xx_StdPeriph_Driver/src/stm32f4xx_spi.o
 .bss           0x00000000        0x0 ./STM32F4xx_StdPeriph_Driver/src/stm32f4xx_spi.o
 .data          0x00000000        0x0 ./STM32F4xx_StdPeriph_Driver/src/stm32f4xx_syscfg.o
 .bss           0x00000000        0x0 ./STM32F4xx_StdPeriph_Driver/src/stm32f4xx_syscfg.o
 .text          0x00000000     0x1d74 ./STM32F4xx_StdPeriph_Driver/src/stm32f4xx_tim.o
 .data          0x00000000        0x0 ./STM32F4xx_StdPeriph_Driver/src/stm32f4xx_tim.o
 .bss           0x00000000        0x0 ./STM32F4xx_StdPeriph_Driver/src/stm32f4xx_tim.o
 .text          0x00000000      0x9dc ./STM32F4xx_StdPeriph_Driver/src/stm32f4xx_usart.o
 .data          0x00000000        0x0 ./STM32F4xx_StdPeriph_Driver/src/stm32f4xx_usart.o
 .bss           0x00000000        0x0 ./STM32F4xx_StdPeriph_Driver/src/stm32f4xx_usart.o
 .text          0x00000000      0x154 ./STM32F4xx_StdPeriph_Driver/src/stm32f4xx_wwdg.o
 .data          0x00000000        0x0 ./STM32F4xx_StdPeriph_Driver/src/stm32f4xx_wwdg.o
 .bss           0x00000000        0x0 ./STM32F4xx_StdPeriph_Driver/src/stm32f4xx_wwdg.o
 .data          0x00000000        0x0 ./STM32F4-Discovery/stm32f4_discovery.o
 .bss           0x00000000        0x0 ./STM32F4-Discovery/stm32f4_discovery.o
 COMMON         0x00000000        0x4 ./STM32F4-Discovery/stm32f4_discovery.o
 .data          0x00000000        0x0 ./STM32F4-Discovery/stm32f4_discovery_audio_codec.o
 .bss           0x00000000        0x0 ./STM32F4-Discovery/stm32f4_discovery_audio_codec.o
 .text          0x00000000      0x6a4 ./STM32F4-Discovery/stm32f4_discovery_lis302dl.o
 .data          0x00000000        0x0 ./STM32F4-Discovery/stm32f4_discovery_lis302dl.o
 .bss           0x00000000        0x0 ./STM32F4-Discovery/stm32f4_discovery_lis302dl.o
 .data.LIS302DLTimeout
                0x00000000        0x4 ./STM32F4-Discovery/stm32f4_discovery_lis302dl.o
 .group         0x00000000        0x8 ./Menue/CMenue.o
 .group         0x00000000        0x8 ./Menue/CMenue.o
 .group         0x00000000        0x8 ./Menue/CMenue.o
 .data          0x00000000        0x0 ./Menue/CMenue.o
 .bss           0x00000000        0x0 ./Menue/CMenue.o
 .data          0x00000000        0x0 ./HelixMP3/real/bitstream.o
 .bss           0x00000000        0x0 ./HelixMP3/real/bitstream.o
 .data          0x00000000        0x0 ./HelixMP3/real/buffers.o
 .bss           0x00000000        0x0 ./HelixMP3/real/buffers.o
 .data          0x00000000        0x0 ./HelixMP3/real/dct32.o
 .bss           0x00000000        0x0 ./HelixMP3/real/dct32.o
 .data          0x00000000        0x0 ./HelixMP3/real/dequant.o
 .bss           0x00000000        0x0 ./HelixMP3/real/dequant.o
 .data          0x00000000        0x0 ./HelixMP3/real/dqchan.o
 .bss           0x00000000        0x0 ./HelixMP3/real/dqchan.o
 .data          0x00000000        0x0 ./HelixMP3/real/huffman.o
 .bss           0x00000000        0x0 ./HelixMP3/real/huffman.o
 .text          0x00000000        0x0 ./HelixMP3/real/hufftabs.o
 .data          0x00000000        0x0 ./HelixMP3/real/hufftabs.o
 .bss           0x00000000        0x0 ./HelixMP3/real/hufftabs.o
 .data          0x00000000        0x0 ./HelixMP3/real/imdct.o
 .bss           0x00000000        0x0 ./HelixMP3/real/imdct.o
 .data          0x00000000        0x0 ./HelixMP3/real/polyphase.o
 .bss           0x00000000        0x0 ./HelixMP3/real/polyphase.o
 .data          0x00000000        0x0 ./HelixMP3/real/scalfact.o
 .bss           0x00000000        0x0 ./HelixMP3/real/scalfact.o
 .data          0x00000000        0x0 ./HelixMP3/real/stproc.o
 .bss           0x00000000        0x0 ./HelixMP3/real/stproc.o
 .data          0x00000000        0x0 ./HelixMP3/real/subband.o
 .bss           0x00000000        0x0 ./HelixMP3/real/subband.o
 .text          0x00000000        0x0 ./HelixMP3/real/trigtabs.o
 .data          0x00000000        0x0 ./HelixMP3/real/trigtabs.o
 .bss           0x00000000        0x0 ./HelixMP3/real/trigtabs.o
 .rodata.xmp3_uniqueIDTab
                0x00000000        0x8 ./HelixMP3/real/trigtabs.o
 .rodata.xmp3_coef32
                0x00000000       0x7c ./HelixMP3/real/trigtabs.o
 .data          0x00000000        0x0 ./HelixMP3/mp3dec.o
 .bss           0x00000000        0x0 ./HelixMP3/mp3dec.o
 .text          0x00000000        0x0 ./HelixMP3/mp3tabs.o
 .data          0x00000000        0x0 ./HelixMP3/mp3tabs.o
 .bss           0x00000000        0x0 ./HelixMP3/mp3tabs.o
 .rodata.xmp3_bitsPerSlotTab
                0x00000000        0x8 ./HelixMP3/mp3tabs.o
 .data          0x00000000        0x0 ./GraphicLCD/CGraphicLCD.o
 .bss           0x00000000        0x0 ./GraphicLCD/CGraphicLCD.o
 .data          0x00000000        0x0 ./GraphicLCD/CT6963CDriver.o
 .bss           0x00000000        0x0 ./GraphicLCD/CT6963CDriver.o
 .rodata._ZL12c_FontNative
                0x00000000       0x18 ./GraphicLCD/CT6963CDriver.o
 .rodata._ZL20GLCD_NUMBER_OF_LINES
                0x00000000        0x1 ./GraphicLCD/CT6963CDriver.o
 .rodata._ZL20GLCD_PIXELS_PER_LINE
                0x00000000        0x1 ./GraphicLCD/CT6963CDriver.o
 .rodata._ZL15GLCD_FONT_WIDTH
                0x00000000        0x1 ./GraphicLCD/CT6963CDriver.o
 .rodata._ZL17GLCD_GRAPHIC_AREA
                0x00000000        0x1 ./GraphicLCD/CT6963CDriver.o
 .rodata._ZL14GLCD_TEXT_AREA
                0x00000000        0x1 ./GraphicLCD/CT6963CDriver.o
 .rodata._ZL17GLCD_GRAPHIC_SIZE
                0x00000000        0x4 ./GraphicLCD/CT6963CDriver.o
 .rodata._ZL14GLCD_TEXT_SIZE
                0x00000000        0x4 ./GraphicLCD/CT6963CDriver.o
 .rodata._ZL14GLCD_TEXT_HOME
                0x00000000        0x4 ./GraphicLCD/CT6963CDriver.o
 .rodata._ZL17GLCD_GRAPHIC_HOME
                0x00000000        0x4 ./GraphicLCD/CT6963CDriver.o
 .rodata._ZL20GLCD_OFFSET_REGISTER
                0x00000000        0x1 ./GraphicLCD/CT6963CDriver.o
 .rodata._ZL21GLCD_EXTERNAL_CG_HOME
                0x00000000        0x4 ./GraphicLCD/CT6963CDriver.o
 .rodata._ZL24T6963_SET_CURSOR_POINTER
                0x00000000        0x1 ./GraphicLCD/CT6963CDriver.o
 .rodata._ZL25T6963_SET_OFFSET_REGISTER
                0x00000000        0x1 ./GraphicLCD/CT6963CDriver.o
 .rodata._ZL25T6963_SET_ADDRESS_POINTER
                0x00000000        0x1 ./GraphicLCD/CT6963CDriver.o
 .rodata._ZL27T6963_SET_TEXT_HOME_ADDRESS
                0x00000000        0x1 ./GraphicLCD/CT6963CDriver.o
 .rodata._ZL19T6963_SET_TEXT_AREA
                0x00000000        0x1 ./GraphicLCD/CT6963CDriver.o
 .rodata._ZL30T6963_SET_GRAPHIC_HOME_ADDRESS
                0x00000000        0x1 ./GraphicLCD/CT6963CDriver.o
 .rodata._ZL22T6963_SET_GRAPHIC_AREA
                0x00000000        0x1 ./GraphicLCD/CT6963CDriver.o
 .rodata._ZL14T6963_MODE_SET
                0x00000000        0x1 ./GraphicLCD/CT6963CDriver.o
 .rodata._ZL18T6963_DISPLAY_MODE
                0x00000000        0x1 ./GraphicLCD/CT6963CDriver.o
 .rodata._ZL21T6963_CURSOR_BLINK_ON
                0x00000000        0x1 ./GraphicLCD/CT6963CDriver.o
 .rodata._ZL23T6963_CURSOR_DISPLAY_ON
                0x00000000        0x1 ./GraphicLCD/CT6963CDriver.o
 .rodata._ZL21T6963_TEXT_DISPLAY_ON
                0x00000000        0x1 ./GraphicLCD/CT6963CDriver.o
 .rodata._ZL24T6963_GRAPHIC_DISPLAY_ON
                0x00000000        0x1 ./GraphicLCD/CT6963CDriver.o
 .rodata._ZL27T6963_CURSOR_PATTERN_SELECT
                0x00000000        0x1 ./GraphicLCD/CT6963CDriver.o
 .rodata._ZL19T6963_CURSOR_1_LINE
                0x00000000        0x1 ./GraphicLCD/CT6963CDriver.o
 .rodata._ZL19T6963_CURSOR_2_LINE
                0x00000000        0x1 ./GraphicLCD/CT6963CDriver.o
 .rodata._ZL19T6963_CURSOR_3_LINE
                0x00000000        0x1 ./GraphicLCD/CT6963CDriver.o
 .rodata._ZL19T6963_CURSOR_4_LINE
                0x00000000        0x1 ./GraphicLCD/CT6963CDriver.o
 .rodata._ZL19T6963_CURSOR_5_LINE
                0x00000000        0x1 ./GraphicLCD/CT6963CDriver.o
 .rodata._ZL19T6963_CURSOR_6_LINE
                0x00000000        0x1 ./GraphicLCD/CT6963CDriver.o
 .rodata._ZL19T6963_CURSOR_7_LINE
                0x00000000        0x1 ./GraphicLCD/CT6963CDriver.o
 .rodata._ZL19T6963_CURSOR_8_LINE
                0x00000000        0x1 ./GraphicLCD/CT6963CDriver.o
 .rodata._ZL25T6963_SET_DATA_AUTO_WRITE
                0x00000000        0x1 ./GraphicLCD/CT6963CDriver.o
 .rodata._ZL24T6963_SET_DATA_AUTO_READ
                0x00000000        0x1 ./GraphicLCD/CT6963CDriver.o
 .rodata._ZL16T6963_AUTO_RESET
                0x00000000        0x1 ./GraphicLCD/CT6963CDriver.o
 .rodata._ZL30T6963_DATA_WRITE_AND_INCREMENT
                0x00000000        0x1 ./GraphicLCD/CT6963CDriver.o
 .rodata._ZL29T6963_DATA_READ_AND_INCREMENT
                0x00000000        0x1 ./GraphicLCD/CT6963CDriver.o
 .rodata._ZL30T6963_DATA_WRITE_AND_DECREMENT
                0x00000000        0x1 ./GraphicLCD/CT6963CDriver.o
 .rodata._ZL29T6963_DATA_READ_AND_DECREMENT
                0x00000000        0x1 ./GraphicLCD/CT6963CDriver.o
 .rodata._ZL32T6963_DATA_WRITE_AND_NONVARIALBE
                0x00000000        0x1 ./GraphicLCD/CT6963CDriver.o
 .rodata._ZL31T6963_DATA_READ_AND_NONVARIABLE
                0x00000000        0x1 ./GraphicLCD/CT6963CDriver.o
 .rodata._ZL17T6963_SCREEN_PEEK
                0x00000000        0x1 ./GraphicLCD/CT6963CDriver.o
 .rodata._ZL17T6963_SCREEN_COPY
                0x00000000        0x1 ./GraphicLCD/CT6963CDriver.o
 .rodata._ZL13T6963_BIT_SET
                0x00000000        0x1 ./GraphicLCD/CT6963CDriver.o
 .rodata._ZL15T6963_BIT_RESET
                0x00000000        0x1 ./GraphicLCD/CT6963CDriver.o
 .data          0x00000000        0x0 ./GraphicLCD/CT6963GPIOInterface.o
 .bss           0x00000000        0x0 ./GraphicLCD/CT6963GPIOInterface.o
 .rodata._ZL12c_FontNative
                0x00000000       0x18 ./GraphicLCD/CT6963GPIOInterface.o
 .rodata._ZL12c_iDelayFore
                0x00000000        0x4 ./GraphicLCD/CT6963GPIOInterface.o
 .rodata._ZL13c_iDelayAfter
                0x00000000        0x4 ./GraphicLCD/CT6963GPIOInterface.o
 .text          0x00000000        0x0 ./GraphicLCD/SansSerif12.o
 .data          0x00000000        0x0 ./GraphicLCD/SansSerif12.o
 .bss           0x00000000        0x0 ./GraphicLCD/SansSerif12.o
 .text          0x00000000        0x0 ./GraphicLCD/SansSerif26.o
 .data          0x00000000        0x0 ./GraphicLCD/SansSerif26.o
 .bss           0x00000000        0x0 ./GraphicLCD/SansSerif26.o
 .group         0x00000000        0x8 ./FreeRTOS_EC/Source/AManagedTask.o
 .group         0x00000000        0x8 ./FreeRTOS_EC/Source/AManagedTask.o
 .group         0x00000000        0x8 ./FreeRTOS_EC/Source/AManagedTask.o
 .group         0x00000000        0x8 ./FreeRTOS_EC/Source/AManagedTask.o
 .group         0x00000000        0x8 ./FreeRTOS_EC/Source/AManagedTask.o
 .group         0x00000000        0x8 ./FreeRTOS_EC/Source/AManagedTask.o
 .group         0x00000000        0x8 ./FreeRTOS_EC/Source/AManagedTask.o
 .group         0x00000000        0x8 ./FreeRTOS_EC/Source/AManagedTask.o
 .data          0x00000000        0x0 ./FreeRTOS_EC/Source/AManagedTask.o
 .bss           0x00000000        0x0 ./FreeRTOS_EC/Source/AManagedTask.o
 .text._ZNK5CTask7IsValidEv
                0x00000000       0x24 ./FreeRTOS_EC/Source/AManagedTask.o
 .text._ZN5CTask6DetachEv
                0x00000000       0x24 ./FreeRTOS_EC/Source/AManagedTask.o
 .text._ZN12AManagedTask8OnCreateEPKctm
                0x00000000       0x20 ./FreeRTOS_EC/Source/AManagedTask.o
 .group         0x00000000        0x8 ./FreeRTOS_EC/Source/ASyncObject.o
 .group         0x00000000        0x8 ./FreeRTOS_EC/Source/ASyncObject.o
 .group         0x00000000        0x8 ./FreeRTOS_EC/Source/ASyncObject.o
 .group         0x00000000        0x8 ./FreeRTOS_EC/Source/ASyncObject.o
 .text          0x00000000      0x114 ./FreeRTOS_EC/Source/ASyncObject.o
 .data          0x00000000        0x0 ./FreeRTOS_EC/Source/ASyncObject.o
 .bss           0x00000000        0x0 ./FreeRTOS_EC/Source/ASyncObject.o
 .text._ZNK11ASyncObject7IsValidEv
                0x00000000       0x24 ./FreeRTOS_EC/Source/ASyncObject.o
 .text._ZN11ASyncObject6DetachEv
                0x00000000       0x24 ./FreeRTOS_EC/Source/ASyncObject.o
 .rodata        0x00000000       0x38 ./FreeRTOS_EC/Source/ASyncObject.o
 .rodata._ZTV11ASyncObject
                0x00000000       0x28 ./FreeRTOS_EC/Source/ASyncObject.o
 .rodata._ZZN11ASyncObject6AttachEPvE19__PRETTY_FUNCTION__
                0x00000000       0x34 ./FreeRTOS_EC/Source/ASyncObject.o
 .text          0x00000000        0x0 ./FreeRTOS_EC/Source/ATimer.o
 .data          0x00000000        0x0 ./FreeRTOS_EC/Source/ATimer.o
 .bss           0x00000000        0x0 ./FreeRTOS_EC/Source/ATimer.o
 .group         0x00000000        0x8 ./FreeRTOS_EC/Source/CBinarySemaphore.o
 .group         0x00000000        0x8 ./FreeRTOS_EC/Source/CBinarySemaphore.o
 .group         0x00000000        0x8 ./FreeRTOS_EC/Source/CBinarySemaphore.o
 .group         0x00000000        0x8 ./FreeRTOS_EC/Source/CBinarySemaphore.o
 .text          0x00000000      0x114 ./FreeRTOS_EC/Source/CBinarySemaphore.o
 .data          0x00000000        0x0 ./FreeRTOS_EC/Source/CBinarySemaphore.o
 .bss           0x00000000        0x0 ./FreeRTOS_EC/Source/CBinarySemaphore.o
 .text._ZNK11ASyncObject7IsValidEv
                0x00000000       0x24 ./FreeRTOS_EC/Source/CBinarySemaphore.o
 .text._ZN11ASyncObject6DetachEv
                0x00000000       0x24 ./FreeRTOS_EC/Source/CBinarySemaphore.o
 .rodata        0x00000000       0x38 ./FreeRTOS_EC/Source/CBinarySemaphore.o
 .text._ZN16CBinarySemaphore4TakeEm
                0x00000000       0x5c ./FreeRTOS_EC/Source/CBinarySemaphore.o
 .text._ZN16CBinarySemaphore4GiveEv
                0x00000000       0x5c ./FreeRTOS_EC/Source/CBinarySemaphore.o
 .rodata._ZTV16CBinarySemaphore
                0x00000000       0x28 ./FreeRTOS_EC/Source/CBinarySemaphore.o
 .rodata._ZZN16CBinarySemaphore4GiveEvE19__PRETTY_FUNCTION__
                0x00000000       0x2c ./FreeRTOS_EC/Source/CBinarySemaphore.o
 .rodata._ZZN16CBinarySemaphore4TakeEmE19__PRETTY_FUNCTION__
                0x00000000       0x38 ./FreeRTOS_EC/Source/CBinarySemaphore.o
 .group         0x00000000        0x8 ./FreeRTOS_EC/Source/CCountingSemaphore.o
 .group         0x00000000        0x8 ./FreeRTOS_EC/Source/CCountingSemaphore.o
 .group         0x00000000        0x8 ./FreeRTOS_EC/Source/CCountingSemaphore.o
 .group         0x00000000        0x8 ./FreeRTOS_EC/Source/CCountingSemaphore.o
 .text          0x00000000       0xd8 ./FreeRTOS_EC/Source/CCountingSemaphore.o
 .data          0x00000000        0x0 ./FreeRTOS_EC/Source/CCountingSemaphore.o
 .bss           0x00000000        0x0 ./FreeRTOS_EC/Source/CCountingSemaphore.o
 .text._ZNK11ASyncObject7IsValidEv
                0x00000000       0x24 ./FreeRTOS_EC/Source/CCountingSemaphore.o
 .text._ZN11ASyncObject6DetachEv
                0x00000000       0x24 ./FreeRTOS_EC/Source/CCountingSemaphore.o
 .rodata        0x00000000       0x38 ./FreeRTOS_EC/Source/CCountingSemaphore.o
 .text._ZN18CCountingSemaphore4TakeEm
                0x00000000       0x5c ./FreeRTOS_EC/Source/CCountingSemaphore.o
 .text._ZN18CCountingSemaphore4GiveEv
                0x00000000       0x5c ./FreeRTOS_EC/Source/CCountingSemaphore.o
 .rodata._ZTV18CCountingSemaphore
                0x00000000       0x28 ./FreeRTOS_EC/Source/CCountingSemaphore.o
 .rodata._ZZN18CCountingSemaphore4GiveEvE19__PRETTY_FUNCTION__
                0x00000000       0x2c ./FreeRTOS_EC/Source/CCountingSemaphore.o
 .rodata._ZZN18CCountingSemaphore4TakeEmE19__PRETTY_FUNCTION__
                0x00000000       0x38 ./FreeRTOS_EC/Source/CCountingSemaphore.o
 .data          0x00000000        0x0 ./FreeRTOS_EC/Source/CFreeRTOS.o
 .bss           0x00000000        0x0 ./FreeRTOS_EC/Source/CFreeRTOS.o
 .group         0x00000000        0x8 ./FreeRTOS_EC/Source/CMessageTask.o
 .group         0x00000000        0x8 ./FreeRTOS_EC/Source/CMessageTask.o
 .group         0x00000000        0x8 ./FreeRTOS_EC/Source/CMessageTask.o
 .group         0x00000000        0x8 ./FreeRTOS_EC/Source/CMessageTask.o
 .group         0x00000000        0x8 ./FreeRTOS_EC/Source/CMessageTask.o
 .group         0x00000000        0x8 ./FreeRTOS_EC/Source/CMessageTask.o
 .group         0x00000000        0x8 ./FreeRTOS_EC/Source/CMessageTask.o
 .group         0x00000000        0x8 ./FreeRTOS_EC/Source/CMessageTask.o
 .group         0x00000000        0x8 ./FreeRTOS_EC/Source/CMessageTask.o
 .group         0x00000000        0x8 ./FreeRTOS_EC/Source/CMessageTask.o
 .text          0x00000000      0x3b0 ./FreeRTOS_EC/Source/CMessageTask.o
 .data          0x00000000        0x0 ./FreeRTOS_EC/Source/CMessageTask.o
 .bss           0x00000000        0x0 ./FreeRTOS_EC/Source/CMessageTask.o
 .text._ZNK5CTask7IsValidEv
                0x00000000       0x24 ./FreeRTOS_EC/Source/CMessageTask.o
 .text._ZN5CTask6DetachEv
                0x00000000       0x24 ./FreeRTOS_EC/Source/CMessageTask.o
 .text._ZN12AManagedTask12HardwareInitEv
                0x00000000       0x18 ./FreeRTOS_EC/Source/CMessageTask.o
 .text._ZN6CQueue4SendEPKvm
                0x00000000       0x2c ./FreeRTOS_EC/Source/CMessageTask.o
 .text._ZN6CQueue11SendFromISREPKvPl
                0x00000000       0x2c ./FreeRTOS_EC/Source/CMessageTask.o
 .rodata        0x00000000       0x2c ./FreeRTOS_EC/Source/CMessageTask.o
 .text._ZN6CQueue11SendToFrontEPKvm
                0x00000000       0x5c ./FreeRTOS_EC/Source/CMessageTask.o
 .text._ZN6CQueue7ReceiveEPvm
                0x00000000       0x5c ./FreeRTOS_EC/Source/CMessageTask.o
 .text._ZN6CQueue18SendToFrontFromISREPKvPl
                0x00000000       0x5c ./FreeRTOS_EC/Source/CMessageTask.o
 .text._ZN12CMessageTask6OnInitEv
                0x00000000       0x18 ./FreeRTOS_EC/Source/CMessageTask.o
 .text._ZN12CMessageTask9OnTimeOutEv
                0x00000000       0x14 ./FreeRTOS_EC/Source/CMessageTask.o
 .rodata._ZN12CMessageTask13s_message_mapE
                0x00000000        0xc ./FreeRTOS_EC/Source/CMessageTask.o
 .rodata._ZTV12CMessageTask
                0x00000000       0x38 ./FreeRTOS_EC/Source/CMessageTask.o
 .rodata._ZZN6CQueue18SendToFrontFromISREPKvPlE19__PRETTY_FUNCTION__
                0x00000000       0x3c ./FreeRTOS_EC/Source/CMessageTask.o
 .rodata._ZZN6CQueue11SendToFrontEPKvmE19__PRETTY_FUNCTION__
                0x00000000       0x38 ./FreeRTOS_EC/Source/CMessageTask.o
 .rodata._ZZN6CQueue7ReceiveEPvmE19__PRETTY_FUNCTION__
                0x00000000       0x30 ./FreeRTOS_EC/Source/CMessageTask.o
 .group         0x00000000        0x8 ./FreeRTOS_EC/Source/CMutex.o
 .group         0x00000000        0x8 ./FreeRTOS_EC/Source/CMutex.o
 .group         0x00000000        0x8 ./FreeRTOS_EC/Source/CMutex.o
 .group         0x00000000        0x8 ./FreeRTOS_EC/Source/CMutex.o
 .text          0x00000000       0xf4 ./FreeRTOS_EC/Source/CMutex.o
 .data          0x00000000        0x0 ./FreeRTOS_EC/Source/CMutex.o
 .bss           0x00000000        0x0 ./FreeRTOS_EC/Source/CMutex.o
 .text._ZNK11ASyncObject7IsValidEv
                0x00000000       0x24 ./FreeRTOS_EC/Source/CMutex.o
 .text._ZN11ASyncObject6DetachEv
                0x00000000       0x24 ./FreeRTOS_EC/Source/CMutex.o
 .rodata        0x00000000       0x2c ./FreeRTOS_EC/Source/CMutex.o
 .text._ZN6CMutex4TakeEm
                0x00000000       0x5c ./FreeRTOS_EC/Source/CMutex.o
 .text._ZN6CMutex4GiveEv
                0x00000000       0x5c ./FreeRTOS_EC/Source/CMutex.o
 .rodata._ZTV6CMutex
                0x00000000       0x28 ./FreeRTOS_EC/Source/CMutex.o
 .rodata._ZZN6CMutex4GiveEvE19__PRETTY_FUNCTION__
                0x00000000       0x20 ./FreeRTOS_EC/Source/CMutex.o
 .rodata._ZZN6CMutex4TakeEmE19__PRETTY_FUNCTION__
                0x00000000       0x2c ./FreeRTOS_EC/Source/CMutex.o
 .group         0x00000000        0x8 ./FreeRTOS_EC/Source/CQueue.o
 .group         0x00000000        0x8 ./FreeRTOS_EC/Source/CQueue.o
 .group         0x00000000        0x8 ./FreeRTOS_EC/Source/CQueue.o
 .group         0x00000000        0x8 ./FreeRTOS_EC/Source/CQueue.o
 .text          0x00000000      0x1b0 ./FreeRTOS_EC/Source/CQueue.o
 .data          0x00000000        0x0 ./FreeRTOS_EC/Source/CQueue.o
 .bss           0x00000000        0x0 ./FreeRTOS_EC/Source/CQueue.o
 .text._ZNK6CQueue7IsValidEv
                0x00000000       0x24 ./FreeRTOS_EC/Source/CQueue.o
 .text._ZN6CQueue6DetachEv
                0x00000000       0x24 ./FreeRTOS_EC/Source/CQueue.o
 .text._ZN12IFreeRTOSObjC2Ev
                0x00000000       0x20 ./FreeRTOS_EC/Source/CQueue.o
 .rodata        0x00000000       0x40 ./FreeRTOS_EC/Source/CQueue.o
 .rodata._ZTV6CQueue
                0x00000000       0x20 ./FreeRTOS_EC/Source/CQueue.o
 .rodata._ZTV12IFreeRTOSObj
                0x00000000       0x18 ./FreeRTOS_EC/Source/CQueue.o
 .rodata._ZZN6CQueue6AttachEPvE19__PRETTY_FUNCTION__
                0x00000000       0x2c ./FreeRTOS_EC/Source/CQueue.o
 .rodata._ZZN6CQueue6CreateEmmE19__PRETTY_FUNCTION__
                0x00000000       0x40 ./FreeRTOS_EC/Source/CQueue.o
 .group         0x00000000        0x8 ./FreeRTOS_EC/Source/CRecursiveMutex.o
 .group         0x00000000        0x8 ./FreeRTOS_EC/Source/CRecursiveMutex.o
 .group         0x00000000        0x8 ./FreeRTOS_EC/Source/CRecursiveMutex.o
 .group         0x00000000        0x8 ./FreeRTOS_EC/Source/CRecursiveMutex.o
 .text          0x00000000       0xd4 ./FreeRTOS_EC/Source/CRecursiveMutex.o
 .data          0x00000000        0x0 ./FreeRTOS_EC/Source/CRecursiveMutex.o
 .bss           0x00000000        0x0 ./FreeRTOS_EC/Source/CRecursiveMutex.o
 .text._ZNK11ASyncObject7IsValidEv
                0x00000000       0x24 ./FreeRTOS_EC/Source/CRecursiveMutex.o
 .text._ZN11ASyncObject6DetachEv
                0x00000000       0x24 ./FreeRTOS_EC/Source/CRecursiveMutex.o
 .text._ZN15CRecursiveMutex4TakeEm
                0x00000000       0x1c ./FreeRTOS_EC/Source/CRecursiveMutex.o
 .text._ZN15CRecursiveMutex4GiveEv
                0x00000000       0x18 ./FreeRTOS_EC/Source/CRecursiveMutex.o
 .rodata._ZTV15CRecursiveMutex
                0x00000000       0x28 ./FreeRTOS_EC/Source/CRecursiveMutex.o
 .group         0x00000000        0x8 ./FreeRTOS_EC/Source/CTask.o
 .group         0x00000000        0x8 ./FreeRTOS_EC/Source/CTask.o
 .group         0x00000000        0x8 ./FreeRTOS_EC/Source/CTask.o
 .group         0x00000000        0x8 ./FreeRTOS_EC/Source/CTask.o
 .data          0x00000000        0x0 ./FreeRTOS_EC/Source/CTask.o
 .bss           0x00000000        0x0 ./FreeRTOS_EC/Source/CTask.o
 .text._ZNK5CTask7IsValidEv
                0x00000000       0x24 ./FreeRTOS_EC/Source/CTask.o
 .text._ZN5CTask6DetachEv
                0x00000000       0x24 ./FreeRTOS_EC/Source/CTask.o
 .text._ZN12IFreeRTOSObjC2Ev
                0x00000000       0x20 ./FreeRTOS_EC/Source/CTask.o
 .rodata._ZTV12IFreeRTOSObj
                0x00000000       0x18 ./FreeRTOS_EC/Source/CTask.o
 .data          0x00000000        0x0 ./FreeRTOS/Source/portable/GCC/ARM_CM4F/port.o
 .bss           0x00000000        0x0 ./FreeRTOS/Source/portable/GCC/ARM_CM4F/port.o
 .rodata.ulKernelPriority
                0x00000000        0x4 ./FreeRTOS/Source/portable/GCC/ARM_CM4F/port.o
 .text          0x00000000      0x594 ./FreeRTOS/Source/croutine.o
 .data          0x00000000        0x0 ./FreeRTOS/Source/croutine.o
 .bss           0x00000000        0x0 ./FreeRTOS/Source/croutine.o
 .bss.pxReadyCoRoutineLists
                0x00000000       0x28 ./FreeRTOS/Source/croutine.o
 .bss.xDelayedCoRoutineList1
                0x00000000       0x14 ./FreeRTOS/Source/croutine.o
 .bss.xDelayedCoRoutineList2
                0x00000000       0x14 ./FreeRTOS/Source/croutine.o
 .bss.pxDelayedCoRoutineList
                0x00000000        0x4 ./FreeRTOS/Source/croutine.o
 .bss.pxOverflowDelayedCoRoutineList
                0x00000000        0x4 ./FreeRTOS/Source/croutine.o
 .bss.xPendingReadyCoRoutineList
                0x00000000       0x14 ./FreeRTOS/Source/croutine.o
 .bss.pxCurrentCoRoutine
                0x00000000        0x4 ./FreeRTOS/Source/croutine.o
 .bss.uxTopCoRoutineReadyPriority
                0x00000000        0x4 ./FreeRTOS/Source/croutine.o
 .bss.xCoRoutineTickCount
                0x00000000        0x4 ./FreeRTOS/Source/croutine.o
 .bss.xLastTickCount
                0x00000000        0x4 ./FreeRTOS/Source/croutine.o
 .bss.xPassedTicks
                0x00000000        0x4 ./FreeRTOS/Source/croutine.o
 .data          0x00000000        0x0 ./FreeRTOS/Source/list.o
 .bss           0x00000000        0x0 ./FreeRTOS/Source/list.o
 .data          0x00000000        0x0 ./FreeRTOS/Source/queue.o
 .bss           0x00000000        0x0 ./FreeRTOS/Source/queue.o
 .data          0x00000000        0x0 ./FreeRTOS/Source/tasks.o
 .bss           0x00000000        0x0 ./FreeRTOS/Source/tasks.o
 .text          0x00000000        0x0 ./FreeRTOS/Source/timers.o
 .data          0x00000000        0x0 ./FreeRTOS/Source/timers.o
 .bss           0x00000000        0x0 ./FreeRTOS/Source/timers.o
 .group         0x00000000        0x8 ./Audio_MP3/USB_MSC/CUSBMassStorage.o
 .group         0x00000000        0x8 ./Audio_MP3/USB_MSC/CUSBMassStorage.o
 .group         0x00000000        0x8 ./Audio_MP3/USB_MSC/CUSBMassStorage.o
 .data          0x00000000        0x0 ./Audio_MP3/USB_MSC/CUSBMassStorage.o
 .bss           0x00000000        0x0 ./Audio_MP3/USB_MSC/CUSBMassStorage.o
 .text._ZNK5CTask7IsValidEv
                0x00000000       0x24 ./Audio_MP3/USB_MSC/CUSBMassStorage.o
 .text._ZN5CTask6DetachEv
                0x00000000       0x24 ./Audio_MP3/USB_MSC/CUSBMassStorage.o
 .text._ZN12AManagedTask8OnCreateEPKctm
                0x00000000       0x20 ./Audio_MP3/USB_MSC/CUSBMassStorage.o
 .data          0x00000000        0x0 ./Audio_MP3/USB_MSC/usb_bsp.o
 .bss           0x00000000        0x0 ./Audio_MP3/USB_MSC/usb_bsp.o
 COMMON         0x00000000        0x1 ./Audio_MP3/USB_MSC/usb_bsp.o
 .data          0x00000000        0x0 ./Audio_MP3/USB_MSC/usbh_usr.o
 .bss           0x00000000        0x0 ./Audio_MP3/USB_MSC/usbh_usr.o
 .text          0x00000000        0x0 ./Audio_MP3/FatFs/src/option/syscall.o
 .data          0x00000000        0x0 ./Audio_MP3/FatFs/src/option/syscall.o
 .bss           0x00000000        0x0 ./Audio_MP3/FatFs/src/option/syscall.o
 .data          0x00000000        0x0 ./Audio_MP3/FatFs/src/ff.o
 .bss           0x00000000        0x0 ./Audio_MP3/FatFs/src/ff.o
 .group         0x00000000        0x8 ./Audio_MP3/CFileHandler.o
 .group         0x00000000        0x8 ./Audio_MP3/CFileHandler.o
 .group         0x00000000        0x8 ./Audio_MP3/CFileHandler.o
 .data          0x00000000        0x0 ./Audio_MP3/CFileHandler.o
 .bss           0x00000000        0x0 ./Audio_MP3/CFileHandler.o
 .text._ZNK5CTask7IsValidEv
                0x00000000       0x24 ./Audio_MP3/CFileHandler.o
 .text._ZN5CTask6DetachEv
                0x00000000       0x24 ./Audio_MP3/CFileHandler.o
 .text._ZN12AManagedTask8OnCreateEPKctm
                0x00000000       0x20 ./Audio_MP3/CFileHandler.o
 .rodata._ZL12READBUF_SIZE
                0x00000000        0x4 ./Audio_MP3/CFileHandler.o
 .rodata._ZL17READBUF_THRESHOLD
                0x00000000        0x4 ./Audio_MP3/CFileHandler.o
 .rodata._ZL12PCM_OUT_SIZE
                0x00000000        0x4 ./Audio_MP3/CFileHandler.o
 .data          0x00000000        0x0 ./Audio_MP3/fattime.o
 .bss           0x00000000        0x0 ./Audio_MP3/fattime.o
 .group         0x00000000        0x8 ./CLedHeartBeatSTM32F4Disc.o
 .group         0x00000000        0x8 ./CLedHeartBeatSTM32F4Disc.o
 .group         0x00000000        0x8 ./CLedHeartBeatSTM32F4Disc.o
 .data          0x00000000        0x0 ./CLedHeartBeatSTM32F4Disc.o
 .bss           0x00000000        0x0 ./CLedHeartBeatSTM32F4Disc.o
 .text._ZNK5CTask7IsValidEv
                0x00000000       0x24 ./CLedHeartBeatSTM32F4Disc.o
 .text._ZN5CTask6DetachEv
                0x00000000       0x24 ./CLedHeartBeatSTM32F4Disc.o
 .text._ZN12AManagedTask8OnCreateEPKctm
                0x00000000       0x20 ./CLedHeartBeatSTM32F4Disc.o
 .group         0x00000000        0x8 ./main.o
 .data          0x00000000        0x0 ./main.o
 .bss           0x00000000        0x0 ./main.o
 .rodata._ZL12c_FontNative
                0x00000000       0x18 ./main.o
 .text          0x00000000       0x14 ./startup_stm32f4xx.o
 .data          0x00000000        0x0 ./startup_stm32f4xx.o
 .bss           0x00000000        0x0 ./startup_stm32f4xx.o
 .data          0x00000000        0x0 ./stm32f4xx_it.o
 .bss           0x00000000        0x0 ./stm32f4xx_it.o
 .data.PauseResumeStatus
                0x00000000        0x1 ./stm32f4xx_it.o
 .bss.Count     0x00000000        0x1 ./stm32f4xx_it.o
 .bss.LED_Toggle
                0x00000000        0x1 ./stm32f4xx_it.o
 .bss.capture   0x00000000        0x2 ./stm32f4xx_it.o
 .bss.Time_Rec_Base
                0x00000000        0x2 ./stm32f4xx_it.o
 .data          0x00000000        0x0 ./syscalls.o
 .bss           0x00000000        0x0 ./syscalls.o
 .data          0x00000000        0x0 ./system_stm32f4xx.o
 .bss           0x00000000        0x0 ./system_stm32f4xx.o
 .data          0x00000000        0x0 ./ustime.o
 .bss           0x00000000        0x0 ./ustime.o
 .text          0x00000000        0x0 d:/elektronik/ides/eclipse/yagarto/bin/../lib/gcc/arm-none-eabi/4.6.2/../../../../arm-none-eabi/lib/thumb/v7m\libstdc++.a(atexit_arm.o)
 .data          0x00000000        0x0 d:/elektronik/ides/eclipse/yagarto/bin/../lib/gcc/arm-none-eabi/4.6.2/../../../../arm-none-eabi/lib/thumb/v7m\libstdc++.a(atexit_arm.o)
 .bss           0x00000000        0x0 d:/elektronik/ides/eclipse/yagarto/bin/../lib/gcc/arm-none-eabi/4.6.2/../../../../arm-none-eabi/lib/thumb/v7m\libstdc++.a(atexit_arm.o)
 .ARM.extab.text.__aeabi_atexit
                0x00000000        0x0 d:/elektronik/ides/eclipse/yagarto/bin/../lib/gcc/arm-none-eabi/4.6.2/../../../../arm-none-eabi/lib/thumb/v7m\libstdc++.a(atexit_arm.o)
 .text          0x00000000        0x0 d:/elektronik/ides/eclipse/yagarto/bin/../lib/gcc/arm-none-eabi/4.6.2/../../../../arm-none-eabi/lib/thumb/v7m\libstdc++.a(del_op.o)
 .data          0x00000000        0x0 d:/elektronik/ides/eclipse/yagarto/bin/../lib/gcc/arm-none-eabi/4.6.2/../../../../arm-none-eabi/lib/thumb/v7m\libstdc++.a(del_op.o)
 .bss           0x00000000        0x0 d:/elektronik/ides/eclipse/yagarto/bin/../lib/gcc/arm-none-eabi/4.6.2/../../../../arm-none-eabi/lib/thumb/v7m\libstdc++.a(del_op.o)
 .ARM.extab.text._ZdlPv
                0x00000000        0x0 d:/elektronik/ides/eclipse/yagarto/bin/../lib/gcc/arm-none-eabi/4.6.2/../../../../arm-none-eabi/lib/thumb/v7m\libstdc++.a(del_op.o)
 .text          0x00000000        0x0 d:/elektronik/ides/eclipse/yagarto/bin/../lib/gcc/arm-none-eabi/4.6.2/../../../../arm-none-eabi/lib/thumb/v7m\libstdc++.a(pure.o)
 .data          0x00000000        0x0 d:/elektronik/ides/eclipse/yagarto/bin/../lib/gcc/arm-none-eabi/4.6.2/../../../../arm-none-eabi/lib/thumb/v7m\libstdc++.a(pure.o)
 .bss           0x00000000        0x0 d:/elektronik/ides/eclipse/yagarto/bin/../lib/gcc/arm-none-eabi/4.6.2/../../../../arm-none-eabi/lib/thumb/v7m\libstdc++.a(pure.o)
 .text          0x00000000        0x0 d:/elektronik/ides/eclipse/yagarto/bin/../lib/gcc/arm-none-eabi/4.6.2/../../../../arm-none-eabi/lib/thumb/v7m\libstdc++.a(eh_terminate.o)
 .data          0x00000000        0x0 d:/elektronik/ides/eclipse/yagarto/bin/../lib/gcc/arm-none-eabi/4.6.2/../../../../arm-none-eabi/lib/thumb/v7m\libstdc++.a(eh_terminate.o)
 .bss           0x00000000        0x0 d:/elektronik/ides/eclipse/yagarto/bin/../lib/gcc/arm-none-eabi/4.6.2/../../../../arm-none-eabi/lib/thumb/v7m\libstdc++.a(eh_terminate.o)
 .ARM.extab.text._ZSt9terminatev
                0x00000000        0x0 d:/elektronik/ides/eclipse/yagarto/bin/../lib/gcc/arm-none-eabi/4.6.2/../../../../arm-none-eabi/lib/thumb/v7m\libstdc++.a(eh_terminate.o)
 .text._ZSt13set_terminatePFvvE
                0x00000000       0x10 d:/elektronik/ides/eclipse/yagarto/bin/../lib/gcc/arm-none-eabi/4.6.2/../../../../arm-none-eabi/lib/thumb/v7m\libstdc++.a(eh_terminate.o)
 .ARM.extab.text._ZSt13set_terminatePFvvE
                0x00000000        0x0 d:/elektronik/ides/eclipse/yagarto/bin/../lib/gcc/arm-none-eabi/4.6.2/../../../../arm-none-eabi/lib/thumb/v7m\libstdc++.a(eh_terminate.o)
 .ARM.exidx.text._ZSt13set_terminatePFvvE
                0x00000000        0x8 d:/elektronik/ides/eclipse/yagarto/bin/../lib/gcc/arm-none-eabi/4.6.2/../../../../arm-none-eabi/lib/thumb/v7m\libstdc++.a(eh_terminate.o)
 .text._ZSt14set_unexpectedPFvvE
                0x00000000       0x10 d:/elektronik/ides/eclipse/yagarto/bin/../lib/gcc/arm-none-eabi/4.6.2/../../../../arm-none-eabi/lib/thumb/v7m\libstdc++.a(eh_terminate.o)
 .ARM.extab.text._ZSt14set_unexpectedPFvvE
                0x00000000        0x0 d:/elektronik/ides/eclipse/yagarto/bin/../lib/gcc/arm-none-eabi/4.6.2/../../../../arm-none-eabi/lib/thumb/v7m\libstdc++.a(eh_terminate.o)
 .ARM.exidx.text._ZSt14set_unexpectedPFvvE
                0x00000000        0x8 d:/elektronik/ides/eclipse/yagarto/bin/../lib/gcc/arm-none-eabi/4.6.2/../../../../arm-none-eabi/lib/thumb/v7m\libstdc++.a(eh_terminate.o)
 .text          0x00000000        0x0 d:/elektronik/ides/eclipse/yagarto/bin/../lib/gcc/arm-none-eabi/4.6.2/../../../../arm-none-eabi/lib/thumb/v7m\libstdc++.a(eh_term_handler.o)
 .data          0x00000000        0x0 d:/elektronik/ides/eclipse/yagarto/bin/../lib/gcc/arm-none-eabi/4.6.2/../../../../arm-none-eabi/lib/thumb/v7m\libstdc++.a(eh_term_handler.o)
 .bss           0x00000000        0x0 d:/elektronik/ides/eclipse/yagarto/bin/../lib/gcc/arm-none-eabi/4.6.2/../../../../arm-none-eabi/lib/thumb/v7m\libstdc++.a(eh_term_handler.o)
 .text          0x00000000        0x0 d:/elektronik/ides/eclipse/yagarto/bin/../lib/gcc/arm-none-eabi/4.6.2/../../../../arm-none-eabi/lib/thumb/v7m\libstdc++.a(eh_unex_handler.o)
 .data          0x00000000        0x0 d:/elektronik/ides/eclipse/yagarto/bin/../lib/gcc/arm-none-eabi/4.6.2/../../../../arm-none-eabi/lib/thumb/v7m\libstdc++.a(eh_unex_handler.o)
 .bss           0x00000000        0x0 d:/elektronik/ides/eclipse/yagarto/bin/../lib/gcc/arm-none-eabi/4.6.2/../../../../arm-none-eabi/lib/thumb/v7m\libstdc++.a(eh_unex_handler.o)
 .text          0x00000000        0x0 d:/elektronik/ides/eclipse/yagarto/bin/../lib/gcc/arm-none-eabi/4.6.2/../../../../arm-none-eabi/lib/thumb/v7m\libstdc++.a(vterminate.o)
 .data          0x00000000        0x0 d:/elektronik/ides/eclipse/yagarto/bin/../lib/gcc/arm-none-eabi/4.6.2/../../../../arm-none-eabi/lib/thumb/v7m\libstdc++.a(vterminate.o)
 .bss           0x00000000        0x0 d:/elektronik/ides/eclipse/yagarto/bin/../lib/gcc/arm-none-eabi/4.6.2/../../../../arm-none-eabi/lib/thumb/v7m\libstdc++.a(vterminate.o)
 .data          0x00000000        0x0 d:/elektronik/ides/eclipse/yagarto/bin/../lib/gcc/arm-none-eabi/4.6.2/../../../../arm-none-eabi/lib/thumb/v7m\libstdc++.a(cp-demangle.o)
 .bss           0x00000000        0x0 d:/elektronik/ides/eclipse/yagarto/bin/../lib/gcc/arm-none-eabi/4.6.2/../../../../arm-none-eabi/lib/thumb/v7m\libstdc++.a(cp-demangle.o)
 .text          0x00000000        0x0 d:/elektronik/ides/eclipse/yagarto/bin/../lib/gcc/arm-none-eabi/4.6.2/../../../../arm-none-eabi/lib/thumb/v7m\libstdc++.a(eh_arm.o)
 .data          0x00000000        0x0 d:/elektronik/ides/eclipse/yagarto/bin/../lib/gcc/arm-none-eabi/4.6.2/../../../../arm-none-eabi/lib/thumb/v7m\libstdc++.a(eh_arm.o)
 .bss           0x00000000        0x0 d:/elektronik/ides/eclipse/yagarto/bin/../lib/gcc/arm-none-eabi/4.6.2/../../../../arm-none-eabi/lib/thumb/v7m\libstdc++.a(eh_arm.o)
 .ARM.extab.text.__cxa_type_match
                0x00000000        0x0 d:/elektronik/ides/eclipse/yagarto/bin/../lib/gcc/arm-none-eabi/4.6.2/../../../../arm-none-eabi/lib/thumb/v7m\libstdc++.a(eh_arm.o)
 .ARM.extab.text.__cxa_begin_cleanup
                0x00000000        0x0 d:/elektronik/ides/eclipse/yagarto/bin/../lib/gcc/arm-none-eabi/4.6.2/../../../../arm-none-eabi/lib/thumb/v7m\libstdc++.a(eh_arm.o)
 .ARM.extab.text.__gnu_end_cleanup
                0x00000000        0x0 d:/elektronik/ides/eclipse/yagarto/bin/../lib/gcc/arm-none-eabi/4.6.2/../../../../arm-none-eabi/lib/thumb/v7m\libstdc++.a(eh_arm.o)
 .text          0x00000000        0x0 d:/elektronik/ides/eclipse/yagarto/bin/../lib/gcc/arm-none-eabi/4.6.2/../../../../arm-none-eabi/lib/thumb/v7m\libstdc++.a(eh_aux_runtime.o)
 .data          0x00000000        0x0 d:/elektronik/ides/eclipse/yagarto/bin/../lib/gcc/arm-none-eabi/4.6.2/../../../../arm-none-eabi/lib/thumb/v7m\libstdc++.a(eh_aux_runtime.o)
 .bss           0x00000000        0x0 d:/elektronik/ides/eclipse/yagarto/bin/../lib/gcc/arm-none-eabi/4.6.2/../../../../arm-none-eabi/lib/thumb/v7m\libstdc++.a(eh_aux_runtime.o)
 .text.__cxa_bad_cast
                0x00000000       0x24 d:/elektronik/ides/eclipse/yagarto/bin/../lib/gcc/arm-none-eabi/4.6.2/../../../../arm-none-eabi/lib/thumb/v7m\libstdc++.a(eh_aux_runtime.o)
 .ARM.extab.text.__cxa_bad_cast
                0x00000000        0xc d:/elektronik/ides/eclipse/yagarto/bin/../lib/gcc/arm-none-eabi/4.6.2/../../../../arm-none-eabi/lib/thumb/v7m\libstdc++.a(eh_aux_runtime.o)
 .ARM.exidx.text.__cxa_bad_cast
                0x00000000        0x8 d:/elektronik/ides/eclipse/yagarto/bin/../lib/gcc/arm-none-eabi/4.6.2/../../../../arm-none-eabi/lib/thumb/v7m\libstdc++.a(eh_aux_runtime.o)
 .text          0x00000000        0x0 d:/elektronik/ides/eclipse/yagarto/bin/../lib/gcc/arm-none-eabi/4.6.2/../../../../arm-none-eabi/lib/thumb/v7m\libstdc++.a(eh_call.o)
 .data          0x00000000        0x0 d:/elektronik/ides/eclipse/yagarto/bin/../lib/gcc/arm-none-eabi/4.6.2/../../../../arm-none-eabi/lib/thumb/v7m\libstdc++.a(eh_call.o)
 .bss           0x00000000        0x0 d:/elektronik/ides/eclipse/yagarto/bin/../lib/gcc/arm-none-eabi/4.6.2/../../../../arm-none-eabi/lib/thumb/v7m\libstdc++.a(eh_call.o)
 .ARM.extab.text.__cxa_call_terminate
                0x00000000        0x0 d:/elektronik/ides/eclipse/yagarto/bin/../lib/gcc/arm-none-eabi/4.6.2/../../../../arm-none-eabi/lib/thumb/v7m\libstdc++.a(eh_call.o)
 .text          0x00000000        0x0 d:/elektronik/ides/eclipse/yagarto/bin/../lib/gcc/arm-none-eabi/4.6.2/../../../../arm-none-eabi/lib/thumb/v7m\libstdc++.a(eh_catch.o)
 .data          0x00000000        0x0 d:/elektronik/ides/eclipse/yagarto/bin/../lib/gcc/arm-none-eabi/4.6.2/../../../../arm-none-eabi/lib/thumb/v7m\libstdc++.a(eh_catch.o)
 .bss           0x00000000        0x0 d:/elektronik/ides/eclipse/yagarto/bin/../lib/gcc/arm-none-eabi/4.6.2/../../../../arm-none-eabi/lib/thumb/v7m\libstdc++.a(eh_catch.o)
 .text.__cxa_get_exception_ptr
                0x00000000        0x4 d:/elektronik/ides/eclipse/yagarto/bin/../lib/gcc/arm-none-eabi/4.6.2/../../../../arm-none-eabi/lib/thumb/v7m\libstdc++.a(eh_catch.o)
 .ARM.extab.text.__cxa_get_exception_ptr
                0x00000000        0x0 d:/elektronik/ides/eclipse/yagarto/bin/../lib/gcc/arm-none-eabi/4.6.2/../../../../arm-none-eabi/lib/thumb/v7m\libstdc++.a(eh_catch.o)
 .ARM.exidx.text.__cxa_get_exception_ptr
                0x00000000        0x8 d:/elektronik/ides/eclipse/yagarto/bin/../lib/gcc/arm-none-eabi/4.6.2/../../../../arm-none-eabi/lib/thumb/v7m\libstdc++.a(eh_catch.o)
 .ARM.extab.text.__cxa_end_catch
                0x00000000        0x0 d:/elektronik/ides/eclipse/yagarto/bin/../lib/gcc/arm-none-eabi/4.6.2/../../../../arm-none-eabi/lib/thumb/v7m\libstdc++.a(eh_catch.o)
 .text._ZSt18uncaught_exceptionv
                0x00000000       0x10 d:/elektronik/ides/eclipse/yagarto/bin/../lib/gcc/arm-none-eabi/4.6.2/../../../../arm-none-eabi/lib/thumb/v7m\libstdc++.a(eh_catch.o)
 .ARM.extab.text._ZSt18uncaught_exceptionv
                0x00000000        0x0 d:/elektronik/ides/eclipse/yagarto/bin/../lib/gcc/arm-none-eabi/4.6.2/../../../../arm-none-eabi/lib/thumb/v7m\libstdc++.a(eh_catch.o)
 .ARM.exidx.text._ZSt18uncaught_exceptionv
                0x00000000        0x8 d:/elektronik/ides/eclipse/yagarto/bin/../lib/gcc/arm-none-eabi/4.6.2/../../../../arm-none-eabi/lib/thumb/v7m\libstdc++.a(eh_catch.o)
 .text          0x00000000        0x0 d:/elektronik/ides/eclipse/yagarto/bin/../lib/gcc/arm-none-eabi/4.6.2/../../../../arm-none-eabi/lib/thumb/v7m\libstdc++.a(eh_exception.o)
 .data          0x00000000        0x0 d:/elektronik/ides/eclipse/yagarto/bin/../lib/gcc/arm-none-eabi/4.6.2/../../../../arm-none-eabi/lib/thumb/v7m\libstdc++.a(eh_exception.o)
 .bss           0x00000000        0x0 d:/elektronik/ides/eclipse/yagarto/bin/../lib/gcc/arm-none-eabi/4.6.2/../../../../arm-none-eabi/lib/thumb/v7m\libstdc++.a(eh_exception.o)
 .ARM.extab.text._ZNSt9exceptionD2Ev
                0x00000000        0x0 d:/elektronik/ides/eclipse/yagarto/bin/../lib/gcc/arm-none-eabi/4.6.2/../../../../arm-none-eabi/lib/thumb/v7m\libstdc++.a(eh_exception.o)
 .ARM.extab.text._ZNSt13bad_exceptionD2Ev
                0x00000000        0x0 d:/elektronik/ides/eclipse/yagarto/bin/../lib/gcc/arm-none-eabi/4.6.2/../../../../arm-none-eabi/lib/thumb/v7m\libstdc++.a(eh_exception.o)
 .text._ZN10__cxxabiv115__forced_unwindD2Ev
                0x00000000        0xc d:/elektronik/ides/eclipse/yagarto/bin/../lib/gcc/arm-none-eabi/4.6.2/../../../../arm-none-eabi/lib/thumb/v7m\libstdc++.a(eh_exception.o)
 .ARM.extab.text._ZN10__cxxabiv115__forced_unwindD2Ev
                0x00000000        0x0 d:/elektronik/ides/eclipse/yagarto/bin/../lib/gcc/arm-none-eabi/4.6.2/../../../../arm-none-eabi/lib/thumb/v7m\libstdc++.a(eh_exception.o)
 .ARM.exidx.text._ZN10__cxxabiv115__forced_unwindD2Ev
                0x00000000        0x8 d:/elektronik/ides/eclipse/yagarto/bin/../lib/gcc/arm-none-eabi/4.6.2/../../../../arm-none-eabi/lib/thumb/v7m\libstdc++.a(eh_exception.o)
 .text._ZN10__cxxabiv119__foreign_exceptionD2Ev
                0x00000000        0xc d:/elektronik/ides/eclipse/yagarto/bin/../lib/gcc/arm-none-eabi/4.6.2/../../../../arm-none-eabi/lib/thumb/v7m\libstdc++.a(eh_exception.o)
 .ARM.extab.text._ZN10__cxxabiv119__foreign_exceptionD2Ev
                0x00000000        0x0 d:/elektronik/ides/eclipse/yagarto/bin/../lib/gcc/arm-none-eabi/4.6.2/../../../../arm-none-eabi/lib/thumb/v7m\libstdc++.a(eh_exception.o)
 .ARM.exidx.text._ZN10__cxxabiv119__foreign_exceptionD2Ev
                0x00000000        0x8 d:/elektronik/ides/eclipse/yagarto/bin/../lib/gcc/arm-none-eabi/4.6.2/../../../../arm-none-eabi/lib/thumb/v7m\libstdc++.a(eh_exception.o)
 .ARM.extab.text._ZNKSt9exception4whatEv
                0x00000000        0x0 d:/elektronik/ides/eclipse/yagarto/bin/../lib/gcc/arm-none-eabi/4.6.2/../../../../arm-none-eabi/lib/thumb/v7m\libstdc++.a(eh_exception.o)
 .ARM.extab.text._ZNKSt13bad_exception4whatEv
                0x00000000        0x0 d:/elektronik/ides/eclipse/yagarto/bin/../lib/gcc/arm-none-eabi/4.6.2/../../../../arm-none-eabi/lib/thumb/v7m\libstdc++.a(eh_exception.o)
 .text._ZN10__cxxabiv119__foreign_exceptionD0Ev
                0x00000000       0x14 d:/elektronik/ides/eclipse/yagarto/bin/../lib/gcc/arm-none-eabi/4.6.2/../../../../arm-none-eabi/lib/thumb/v7m\libstdc++.a(eh_exception.o)
 .ARM.extab.text._ZN10__cxxabiv119__foreign_exceptionD0Ev
                0x00000000        0x0 d:/elektronik/ides/eclipse/yagarto/bin/../lib/gcc/arm-none-eabi/4.6.2/../../../../arm-none-eabi/lib/thumb/v7m\libstdc++.a(eh_exception.o)
 .ARM.exidx.text._ZN10__cxxabiv119__foreign_exceptionD0Ev
                0x00000000        0x8 d:/elektronik/ides/eclipse/yagarto/bin/../lib/gcc/arm-none-eabi/4.6.2/../../../../arm-none-eabi/lib/thumb/v7m\libstdc++.a(eh_exception.o)
 .text._ZN10__cxxabiv115__forced_unwindD0Ev
                0x00000000       0x14 d:/elektronik/ides/eclipse/yagarto/bin/../lib/gcc/arm-none-eabi/4.6.2/../../../../arm-none-eabi/lib/thumb/v7m\libstdc++.a(eh_exception.o)
 .ARM.extab.text._ZN10__cxxabiv115__forced_unwindD0Ev
                0x00000000        0x0 d:/elektronik/ides/eclipse/yagarto/bin/../lib/gcc/arm-none-eabi/4.6.2/../../../../arm-none-eabi/lib/thumb/v7m\libstdc++.a(eh_exception.o)
 .ARM.exidx.text._ZN10__cxxabiv115__forced_unwindD0Ev
                0x00000000        0x8 d:/elektronik/ides/eclipse/yagarto/bin/../lib/gcc/arm-none-eabi/4.6.2/../../../../arm-none-eabi/lib/thumb/v7m\libstdc++.a(eh_exception.o)
 .ARM.extab.text._ZNSt13bad_exceptionD0Ev
                0x00000000        0x0 d:/elektronik/ides/eclipse/yagarto/bin/../lib/gcc/arm-none-eabi/4.6.2/../../../../arm-none-eabi/lib/thumb/v7m\libstdc++.a(eh_exception.o)
 .ARM.extab.text._ZNSt9exceptionD0Ev
                0x00000000        0x0 d:/elektronik/ides/eclipse/yagarto/bin/../lib/gcc/arm-none-eabi/4.6.2/../../../../arm-none-eabi/lib/thumb/v7m\libstdc++.a(eh_exception.o)
 .rodata._ZTVN10__cxxabiv115__forced_unwindE
                0x00000000       0x18 d:/elektronik/ides/eclipse/yagarto/bin/../lib/gcc/arm-none-eabi/4.6.2/../../../../arm-none-eabi/lib/thumb/v7m\libstdc++.a(eh_exception.o)
 .rodata._ZTVN10__cxxabiv119__foreign_exceptionE
                0x00000000       0x18 d:/elektronik/ides/eclipse/yagarto/bin/../lib/gcc/arm-none-eabi/4.6.2/../../../../arm-none-eabi/lib/thumb/v7m\libstdc++.a(eh_exception.o)
 .text          0x00000000        0x0 d:/elektronik/ides/eclipse/yagarto/bin/../lib/gcc/arm-none-eabi/4.6.2/../../../../arm-none-eabi/lib/thumb/v7m\libstdc++.a(eh_globals.o)
 .data          0x00000000        0x0 d:/elektronik/ides/eclipse/yagarto/bin/../lib/gcc/arm-none-eabi/4.6.2/../../../../arm-none-eabi/lib/thumb/v7m\libstdc++.a(eh_globals.o)
 .bss           0x00000000        0x0 d:/elektronik/ides/eclipse/yagarto/bin/../lib/gcc/arm-none-eabi/4.6.2/../../../../arm-none-eabi/lib/thumb/v7m\libstdc++.a(eh_globals.o)
 .ARM.extab.text.__cxa_get_globals_fast
                0x00000000        0x0 d:/elektronik/ides/eclipse/yagarto/bin/../lib/gcc/arm-none-eabi/4.6.2/../../../../arm-none-eabi/lib/thumb/v7m\libstdc++.a(eh_globals.o)
 .ARM.extab.text.__cxa_get_globals
                0x00000000        0x0 d:/elektronik/ides/eclipse/yagarto/bin/../lib/gcc/arm-none-eabi/4.6.2/../../../../arm-none-eabi/lib/thumb/v7m\libstdc++.a(eh_globals.o)
 .text          0x00000000        0x0 d:/elektronik/ides/eclipse/yagarto/bin/../lib/gcc/arm-none-eabi/4.6.2/../../../../arm-none-eabi/lib/thumb/v7m\libstdc++.a(eh_personality.o)
 .data          0x00000000        0x0 d:/elektronik/ides/eclipse/yagarto/bin/../lib/gcc/arm-none-eabi/4.6.2/../../../../arm-none-eabi/lib/thumb/v7m\libstdc++.a(eh_personality.o)
 .bss           0x00000000        0x0 d:/elektronik/ides/eclipse/yagarto/bin/../lib/gcc/arm-none-eabi/4.6.2/../../../../arm-none-eabi/lib/thumb/v7m\libstdc++.a(eh_personality.o)
 .ARM.extab.text._ZL12read_sleb128PKhPl
                0x00000000        0x0 d:/elektronik/ides/eclipse/yagarto/bin/../lib/gcc/arm-none-eabi/4.6.2/../../../../arm-none-eabi/lib/thumb/v7m\libstdc++.a(eh_personality.o)
 .ARM.extab.text._ZL28read_encoded_value_with_basehjPKhPj
                0x00000000        0x0 d:/elektronik/ides/eclipse/yagarto/bin/../lib/gcc/arm-none-eabi/4.6.2/../../../../arm-none-eabi/lib/thumb/v7m\libstdc++.a(eh_personality.o)
 .ARM.extab.text._ZL17parse_lsda_headerP15_Unwind_ContextPKhP16lsda_header_info.constprop.1
                0x00000000        0x0 d:/elektronik/ides/eclipse/yagarto/bin/../lib/gcc/arm-none-eabi/4.6.2/../../../../arm-none-eabi/lib/thumb/v7m\libstdc++.a(eh_personality.o)
 .text          0x00000000        0x0 d:/elektronik/ides/eclipse/yagarto/bin/../lib/gcc/arm-none-eabi/4.6.2/../../../../arm-none-eabi/lib/thumb/v7m\libstdc++.a(eh_throw.o)
 .data          0x00000000        0x0 d:/elektronik/ides/eclipse/yagarto/bin/../lib/gcc/arm-none-eabi/4.6.2/../../../../arm-none-eabi/lib/thumb/v7m\libstdc++.a(eh_throw.o)
 .bss           0x00000000        0x0 d:/elektronik/ides/eclipse/yagarto/bin/../lib/gcc/arm-none-eabi/4.6.2/../../../../arm-none-eabi/lib/thumb/v7m\libstdc++.a(eh_throw.o)
 .ARM.extab.text._ZL23__gxx_exception_cleanup19_Unwind_Reason_CodeP21_Unwind_Control_Block
                0x00000000        0x0 d:/elektronik/ides/eclipse/yagarto/bin/../lib/gcc/arm-none-eabi/4.6.2/../../../../arm-none-eabi/lib/thumb/v7m\libstdc++.a(eh_throw.o)
 .ARM.extab.text.__cxa_throw
                0x00000000        0x0 d:/elektronik/ides/eclipse/yagarto/bin/../lib/gcc/arm-none-eabi/4.6.2/../../../../arm-none-eabi/lib/thumb/v7m\libstdc++.a(eh_throw.o)
 .ARM.extab.text.__cxa_rethrow
                0x00000000        0x0 d:/elektronik/ides/eclipse/yagarto/bin/../lib/gcc/arm-none-eabi/4.6.2/../../../../arm-none-eabi/lib/thumb/v7m\libstdc++.a(eh_throw.o)
 .text          0x00000000        0x0 d:/elektronik/ides/eclipse/yagarto/bin/../lib/gcc/arm-none-eabi/4.6.2/../../../../arm-none-eabi/lib/thumb/v7m\libstdc++.a(eh_type.o)
 .data          0x00000000        0x0 d:/elektronik/ides/eclipse/yagarto/bin/../lib/gcc/arm-none-eabi/4.6.2/../../../../arm-none-eabi/lib/thumb/v7m\libstdc++.a(eh_type.o)
 .bss           0x00000000        0x0 d:/elektronik/ides/eclipse/yagarto/bin/../lib/gcc/arm-none-eabi/4.6.2/../../../../arm-none-eabi/lib/thumb/v7m\libstdc++.a(eh_type.o)
 .ARM.extab.text.__cxa_current_exception_type
                0x00000000        0x0 d:/elektronik/ides/eclipse/yagarto/bin/../lib/gcc/arm-none-eabi/4.6.2/../../../../arm-none-eabi/lib/thumb/v7m\libstdc++.a(eh_type.o)
 .group         0x00000000        0x8 d:/elektronik/ides/eclipse/yagarto/bin/../lib/gcc/arm-none-eabi/4.6.2/../../../../arm-none-eabi/lib/thumb/v7m\libstdc++.a(fundamental_type_info.o)
 .group         0x00000000        0x8 d:/elektronik/ides/eclipse/yagarto/bin/../lib/gcc/arm-none-eabi/4.6.2/../../../../arm-none-eabi/lib/thumb/v7m\libstdc++.a(fundamental_type_info.o)
 .group         0x00000000        0x8 d:/elektronik/ides/eclipse/yagarto/bin/../lib/gcc/arm-none-eabi/4.6.2/../../../../arm-none-eabi/lib/thumb/v7m\libstdc++.a(fundamental_type_info.o)
 .group         0x00000000        0x8 d:/elektronik/ides/eclipse/yagarto/bin/../lib/gcc/arm-none-eabi/4.6.2/../../../../arm-none-eabi/lib/thumb/v7m\libstdc++.a(fundamental_type_info.o)
 .group         0x00000000        0x8 d:/elektronik/ides/eclipse/yagarto/bin/../lib/gcc/arm-none-eabi/4.6.2/../../../../arm-none-eabi/lib/thumb/v7m\libstdc++.a(fundamental_type_info.o)
 .group         0x00000000        0x8 d:/elektronik/ides/eclipse/yagarto/bin/../lib/gcc/arm-none-eabi/4.6.2/../../../../arm-none-eabi/lib/thumb/v7m\libstdc++.a(fundamental_type_info.o)
 .group         0x00000000        0x8 d:/elektronik/ides/eclipse/yagarto/bin/../lib/gcc/arm-none-eabi/4.6.2/../../../../arm-none-eabi/lib/thumb/v7m\libstdc++.a(fundamental_type_info.o)
 .group         0x00000000        0x8 d:/elektronik/ides/eclipse/yagarto/bin/../lib/gcc/arm-none-eabi/4.6.2/../../../../arm-none-eabi/lib/thumb/v7m\libstdc++.a(fundamental_type_info.o)
 .group         0x00000000        0x8 d:/elektronik/ides/eclipse/yagarto/bin/../lib/gcc/arm-none-eabi/4.6.2/../../../../arm-none-eabi/lib/thumb/v7m\libstdc++.a(fundamental_type_info.o)
 .group         0x00000000        0x8 d:/elektronik/ides/eclipse/yagarto/bin/../lib/gcc/arm-none-eabi/4.6.2/../../../../arm-none-eabi/lib/thumb/v7m\libstdc++.a(fundamental_type_info.o)
 .group         0x00000000        0x8 d:/elektronik/ides/eclipse/yagarto/bin/../lib/gcc/arm-none-eabi/4.6.2/../../../../arm-none-eabi/lib/thumb/v7m\libstdc++.a(fundamental_type_info.o)
 .group         0x00000000        0x8 d:/elektronik/ides/eclipse/yagarto/bin/../lib/gcc/arm-none-eabi/4.6.2/../../../../arm-none-eabi/lib/thumb/v7m\libstdc++.a(fundamental_type_info.o)
 .group         0x00000000        0x8 d:/elektronik/ides/eclipse/yagarto/bin/../lib/gcc/arm-none-eabi/4.6.2/../../../../arm-none-eabi/lib/thumb/v7m\libstdc++.a(fundamental_type_info.o)
 .group         0x00000000        0x8 d:/elektronik/ides/eclipse/yagarto/bin/../lib/gcc/arm-none-eabi/4.6.2/../../../../arm-none-eabi/lib/thumb/v7m\libstdc++.a(fundamental_type_info.o)
 .group         0x00000000        0x8 d:/elektronik/ides/eclipse/yagarto/bin/../lib/gcc/arm-none-eabi/4.6.2/../../../../arm-none-eabi/lib/thumb/v7m\libstdc++.a(fundamental_type_info.o)
 .group         0x00000000        0x8 d:/elektronik/ides/eclipse/yagarto/bin/../lib/gcc/arm-none-eabi/4.6.2/../../../../arm-none-eabi/lib/thumb/v7m\libstdc++.a(fundamental_type_info.o)
 .group         0x00000000        0x8 d:/elektronik/ides/eclipse/yagarto/bin/../lib/gcc/arm-none-eabi/4.6.2/../../../../arm-none-eabi/lib/thumb/v7m\libstdc++.a(fundamental_type_info.o)
 .group         0x00000000        0x8 d:/elektronik/ides/eclipse/yagarto/bin/../lib/gcc/arm-none-eabi/4.6.2/../../../../arm-none-eabi/lib/thumb/v7m\libstdc++.a(fundamental_type_info.o)
 .group         0x00000000        0x8 d:/elektronik/ides/eclipse/yagarto/bin/../lib/gcc/arm-none-eabi/4.6.2/../../../../arm-none-eabi/lib/thumb/v7m\libstdc++.a(fundamental_type_info.o)
 .group         0x00000000        0x8 d:/elektronik/ides/eclipse/yagarto/bin/../lib/gcc/arm-none-eabi/4.6.2/../../../../arm-none-eabi/lib/thumb/v7m\libstdc++.a(fundamental_type_info.o)
 .group         0x00000000        0x8 d:/elektronik/ides/eclipse/yagarto/bin/../lib/gcc/arm-none-eabi/4.6.2/../../../../arm-none-eabi/lib/thumb/v7m\libstdc++.a(fundamental_type_info.o)
 .group         0x00000000        0x8 d:/elektronik/ides/eclipse/yagarto/bin/../lib/gcc/arm-none-eabi/4.6.2/../../../../arm-none-eabi/lib/thumb/v7m\libstdc++.a(fundamental_type_info.o)
 .group         0x00000000        0x8 d:/elektronik/ides/eclipse/yagarto/bin/../lib/gcc/arm-none-eabi/4.6.2/../../../../arm-none-eabi/lib/thumb/v7m\libstdc++.a(fundamental_type_info.o)
 .group         0x00000000        0x8 d:/elektronik/ides/eclipse/yagarto/bin/../lib/gcc/arm-none-eabi/4.6.2/../../../../arm-none-eabi/lib/thumb/v7m\libstdc++.a(fundamental_type_info.o)
 .group         0x00000000        0x8 d:/elektronik/ides/eclipse/yagarto/bin/../lib/gcc/arm-none-eabi/4.6.2/../../../../arm-none-eabi/lib/thumb/v7m\libstdc++.a(fundamental_type_info.o)
 .group         0x00000000        0x8 d:/elektronik/ides/eclipse/yagarto/bin/../lib/gcc/arm-none-eabi/4.6.2/../../../../arm-none-eabi/lib/thumb/v7m\libstdc++.a(fundamental_type_info.o)
 .group         0x00000000        0x8 d:/elektronik/ides/eclipse/yagarto/bin/../lib/gcc/arm-none-eabi/4.6.2/../../../../arm-none-eabi/lib/thumb/v7m\libstdc++.a(fundamental_type_info.o)
 .group         0x00000000        0x8 d:/elektronik/ides/eclipse/yagarto/bin/../lib/gcc/arm-none-eabi/4.6.2/../../../../arm-none-eabi/lib/thumb/v7m\libstdc++.a(fundamental_type_info.o)
 .group         0x00000000        0x8 d:/elektronik/ides/eclipse/yagarto/bin/../lib/gcc/arm-none-eabi/4.6.2/../../../../arm-none-eabi/lib/thumb/v7m\libstdc++.a(fundamental_type_info.o)
 .group         0x00000000        0x8 d:/elektronik/ides/eclipse/yagarto/bin/../lib/gcc/arm-none-eabi/4.6.2/../../../../arm-none-eabi/lib/thumb/v7m\libstdc++.a(fundamental_type_info.o)
 .group         0x00000000        0x8 d:/elektronik/ides/eclipse/yagarto/bin/../lib/gcc/arm-none-eabi/4.6.2/../../../../arm-none-eabi/lib/thumb/v7m\libstdc++.a(fundamental_type_info.o)
 .group         0x00000000        0x8 d:/elektronik/ides/eclipse/yagarto/bin/../lib/gcc/arm-none-eabi/4.6.2/../../../../arm-none-eabi/lib/thumb/v7m\libstdc++.a(fundamental_type_info.o)
 .group         0x00000000        0x8 d:/elektronik/ides/eclipse/yagarto/bin/../lib/gcc/arm-none-eabi/4.6.2/../../../../arm-none-eabi/lib/thumb/v7m\libstdc++.a(fundamental_type_info.o)
 .group         0x00000000        0x8 d:/elektronik/ides/eclipse/yagarto/bin/../lib/gcc/arm-none-eabi/4.6.2/../../../../arm-none-eabi/lib/thumb/v7m\libstdc++.a(fundamental_type_info.o)
 .group         0x00000000        0x8 d:/elektronik/ides/eclipse/yagarto/bin/../lib/gcc/arm-none-eabi/4.6.2/../../../../arm-none-eabi/lib/thumb/v7m\libstdc++.a(fundamental_type_info.o)
 .group         0x00000000        0x8 d:/elektronik/ides/eclipse/yagarto/bin/../lib/gcc/arm-none-eabi/4.6.2/../../../../arm-none-eabi/lib/thumb/v7m\libstdc++.a(fundamental_type_info.o)
 .group         0x00000000        0x8 d:/elektronik/ides/eclipse/yagarto/bin/../lib/gcc/arm-none-eabi/4.6.2/../../../../arm-none-eabi/lib/thumb/v7m\libstdc++.a(fundamental_type_info.o)
 .group         0x00000000        0x8 d:/elektronik/ides/eclipse/yagarto/bin/../lib/gcc/arm-none-eabi/4.6.2/../../../../arm-none-eabi/lib/thumb/v7m\libstdc++.a(fundamental_type_info.o)
 .group         0x00000000        0x8 d:/elektronik/ides/eclipse/yagarto/bin/../lib/gcc/arm-none-eabi/4.6.2/../../../../arm-none-eabi/lib/thumb/v7m\libstdc++.a(fundamental_type_info.o)
 .group         0x00000000        0x8 d:/elektronik/ides/eclipse/yagarto/bin/../lib/gcc/arm-none-eabi/4.6.2/../../../../arm-none-eabi/lib/thumb/v7m\libstdc++.a(fundamental_type_info.o)
 .group         0x00000000        0x8 d:/elektronik/ides/eclipse/yagarto/bin/../lib/gcc/arm-none-eabi/4.6.2/../../../../arm-none-eabi/lib/thumb/v7m\libstdc++.a(fundamental_type_info.o)
 .group         0x00000000        0x8 d:/elektronik/ides/eclipse/yagarto/bin/../lib/gcc/arm-none-eabi/4.6.2/../../../../arm-none-eabi/lib/thumb/v7m\libstdc++.a(fundamental_type_info.o)
 .group         0x00000000        0x8 d:/elektronik/ides/eclipse/yagarto/bin/../lib/gcc/arm-none-eabi/4.6.2/../../../../arm-none-eabi/lib/thumb/v7m\libstdc++.a(fundamental_type_info.o)
 .group         0x00000000        0x8 d:/elektronik/ides/eclipse/yagarto/bin/../lib/gcc/arm-none-eabi/4.6.2/../../../../arm-none-eabi/lib/thumb/v7m\libstdc++.a(fundamental_type_info.o)
 .group         0x00000000        0x8 d:/elektronik/ides/eclipse/yagarto/bin/../lib/gcc/arm-none-eabi/4.6.2/../../../../arm-none-eabi/lib/thumb/v7m\libstdc++.a(fundamental_type_info.o)
 .group         0x00000000        0x8 d:/elektronik/ides/eclipse/yagarto/bin/../lib/gcc/arm-none-eabi/4.6.2/../../../../arm-none-eabi/lib/thumb/v7m\libstdc++.a(fundamental_type_info.o)
 .group         0x00000000        0x8 d:/elektronik/ides/eclipse/yagarto/bin/../lib/gcc/arm-none-eabi/4.6.2/../../../../arm-none-eabi/lib/thumb/v7m\libstdc++.a(fundamental_type_info.o)
 .group         0x00000000        0x8 d:/elektronik/ides/eclipse/yagarto/bin/../lib/gcc/arm-none-eabi/4.6.2/../../../../arm-none-eabi/lib/thumb/v7m\libstdc++.a(fundamental_type_info.o)
 .group         0x00000000        0x8 d:/elektronik/ides/eclipse/yagarto/bin/../lib/gcc/arm-none-eabi/4.6.2/../../../../arm-none-eabi/lib/thumb/v7m\libstdc++.a(fundamental_type_info.o)
 .group         0x00000000        0x8 d:/elektronik/ides/eclipse/yagarto/bin/../lib/gcc/arm-none-eabi/4.6.2/../../../../arm-none-eabi/lib/thumb/v7m\libstdc++.a(fundamental_type_info.o)
 .group         0x00000000        0x8 d:/elektronik/ides/eclipse/yagarto/bin/../lib/gcc/arm-none-eabi/4.6.2/../../../../arm-none-eabi/lib/thumb/v7m\libstdc++.a(fundamental_type_info.o)
 .group         0x00000000        0x8 d:/elektronik/ides/eclipse/yagarto/bin/../lib/gcc/arm-none-eabi/4.6.2/../../../../arm-none-eabi/lib/thumb/v7m\libstdc++.a(fundamental_type_info.o)
 .group         0x00000000        0x8 d:/elektronik/ides/eclipse/yagarto/bin/../lib/gcc/arm-none-eabi/4.6.2/../../../../arm-none-eabi/lib/thumb/v7m\libstdc++.a(fundamental_type_info.o)
 .group         0x00000000        0x8 d:/elektronik/ides/eclipse/yagarto/bin/../lib/gcc/arm-none-eabi/4.6.2/../../../../arm-none-eabi/lib/thumb/v7m\libstdc++.a(fundamental_type_info.o)
 .group         0x00000000        0x8 d:/elektronik/ides/eclipse/yagarto/bin/../lib/gcc/arm-none-eabi/4.6.2/../../../../arm-none-eabi/lib/thumb/v7m\libstdc++.a(fundamental_type_info.o)
 .group         0x00000000        0x8 d:/elektronik/ides/eclipse/yagarto/bin/../lib/gcc/arm-none-eabi/4.6.2/../../../../arm-none-eabi/lib/thumb/v7m\libstdc++.a(fundamental_type_info.o)
 .group         0x00000000        0x8 d:/elektronik/ides/eclipse/yagarto/bin/../lib/gcc/arm-none-eabi/4.6.2/../../../../arm-none-eabi/lib/thumb/v7m\libstdc++.a(fundamental_type_info.o)
 .group         0x00000000        0x8 d:/elektronik/ides/eclipse/yagarto/bin/../lib/gcc/arm-none-eabi/4.6.2/../../../../arm-none-eabi/lib/thumb/v7m\libstdc++.a(fundamental_type_info.o)
 .group         0x00000000        0x8 d:/elektronik/ides/eclipse/yagarto/bin/../lib/gcc/arm-none-eabi/4.6.2/../../../../arm-none-eabi/lib/thumb/v7m\libstdc++.a(fundamental_type_info.o)
 .group         0x00000000        0x8 d:/elektronik/ides/eclipse/yagarto/bin/../lib/gcc/arm-none-eabi/4.6.2/../../../../arm-none-eabi/lib/thumb/v7m\libstdc++.a(fundamental_type_info.o)
 .group         0x00000000        0x8 d:/elektronik/ides/eclipse/yagarto/bin/../lib/gcc/arm-none-eabi/4.6.2/../../../../arm-none-eabi/lib/thumb/v7m\libstdc++.a(fundamental_type_info.o)
 .group         0x00000000        0x8 d:/elektronik/ides/eclipse/yagarto/bin/../lib/gcc/arm-none-eabi/4.6.2/../../../../arm-none-eabi/lib/thumb/v7m\libstdc++.a(fundamental_type_info.o)
 .group         0x00000000        0x8 d:/elektronik/ides/eclipse/yagarto/bin/../lib/gcc/arm-none-eabi/4.6.2/../../../../arm-none-eabi/lib/thumb/v7m\libstdc++.a(fundamental_type_info.o)
 .group         0x00000000        0x8 d:/elektronik/ides/eclipse/yagarto/bin/../lib/gcc/arm-none-eabi/4.6.2/../../../../arm-none-eabi/lib/thumb/v7m\libstdc++.a(fundamental_type_info.o)
 .group         0x00000000        0x8 d:/elektronik/ides/eclipse/yagarto/bin/../lib/gcc/arm-none-eabi/4.6.2/../../../../arm-none-eabi/lib/thumb/v7m\libstdc++.a(fundamental_type_info.o)
 .group         0x00000000        0x8 d:/elektronik/ides/eclipse/yagarto/bin/../lib/gcc/arm-none-eabi/4.6.2/../../../../arm-none-eabi/lib/thumb/v7m\libstdc++.a(fundamental_type_info.o)
 .group         0x00000000        0x8 d:/elektronik/ides/eclipse/yagarto/bin/../lib/gcc/arm-none-eabi/4.6.2/../../../../arm-none-eabi/lib/thumb/v7m\libstdc++.a(fundamental_type_info.o)
 .group         0x00000000        0x8 d:/elektronik/ides/eclipse/yagarto/bin/../lib/gcc/arm-none-eabi/4.6.2/../../../../arm-none-eabi/lib/thumb/v7m\libstdc++.a(fundamental_type_info.o)
 .group         0x00000000        0x8 d:/elektronik/ides/eclipse/yagarto/bin/../lib/gcc/arm-none-eabi/4.6.2/../../../../arm-none-eabi/lib/thumb/v7m\libstdc++.a(fundamental_type_info.o)
 .group         0x00000000        0x8 d:/elektronik/ides/eclipse/yagarto/bin/../lib/gcc/arm-none-eabi/4.6.2/../../../../arm-none-eabi/lib/thumb/v7m\libstdc++.a(fundamental_type_info.o)
 .group         0x00000000        0x8 d:/elektronik/ides/eclipse/yagarto/bin/../lib/gcc/arm-none-eabi/4.6.2/../../../../arm-none-eabi/lib/thumb/v7m\libstdc++.a(fundamental_type_info.o)
 .group         0x00000000        0x8 d:/elektronik/ides/eclipse/yagarto/bin/../lib/gcc/arm-none-eabi/4.6.2/../../../../arm-none-eabi/lib/thumb/v7m\libstdc++.a(fundamental_type_info.o)
 .group         0x00000000        0x8 d:/elektronik/ides/eclipse/yagarto/bin/../lib/gcc/arm-none-eabi/4.6.2/../../../../arm-none-eabi/lib/thumb/v7m\libstdc++.a(fundamental_type_info.o)
 .group         0x00000000        0x8 d:/elektronik/ides/eclipse/yagarto/bin/../lib/gcc/arm-none-eabi/4.6.2/../../../../arm-none-eabi/lib/thumb/v7m\libstdc++.a(fundamental_type_info.o)
 .group         0x00000000        0x8 d:/elektronik/ides/eclipse/yagarto/bin/../lib/gcc/arm-none-eabi/4.6.2/../../../../arm-none-eabi/lib/thumb/v7m\libstdc++.a(fundamental_type_info.o)
 .group         0x00000000        0x8 d:/elektronik/ides/eclipse/yagarto/bin/../lib/gcc/arm-none-eabi/4.6.2/../../../../arm-none-eabi/lib/thumb/v7m\libstdc++.a(fundamental_type_info.o)
 .group         0x00000000        0x8 d:/elektronik/ides/eclipse/yagarto/bin/../lib/gcc/arm-none-eabi/4.6.2/../../../../arm-none-eabi/lib/thumb/v7m\libstdc++.a(fundamental_type_info.o)
 .group         0x00000000        0x8 d:/elektronik/ides/eclipse/yagarto/bin/../lib/gcc/arm-none-eabi/4.6.2/../../../../arm-none-eabi/lib/thumb/v7m\libstdc++.a(fundamental_type_info.o)
 .group         0x00000000        0x8 d:/elektronik/ides/eclipse/yagarto/bin/../lib/gcc/arm-none-eabi/4.6.2/../../../../arm-none-eabi/lib/thumb/v7m\libstdc++.a(fundamental_type_info.o)
 .group         0x00000000        0x8 d:/elektronik/ides/eclipse/yagarto/bin/../lib/gcc/arm-none-eabi/4.6.2/../../../../arm-none-eabi/lib/thumb/v7m\libstdc++.a(fundamental_type_info.o)
 .group         0x00000000        0x8 d:/elektronik/ides/eclipse/yagarto/bin/../lib/gcc/arm-none-eabi/4.6.2/../../../../arm-none-eabi/lib/thumb/v7m\libstdc++.a(fundamental_type_info.o)
 .group         0x00000000        0x8 d:/elektronik/ides/eclipse/yagarto/bin/../lib/gcc/arm-none-eabi/4.6.2/../../../../arm-none-eabi/lib/thumb/v7m\libstdc++.a(fundamental_type_info.o)
 .group         0x00000000        0x8 d:/elektronik/ides/eclipse/yagarto/bin/../lib/gcc/arm-none-eabi/4.6.2/../../../../arm-none-eabi/lib/thumb/v7m\libstdc++.a(fundamental_type_info.o)
 .group         0x00000000        0x8 d:/elektronik/ides/eclipse/yagarto/bin/../lib/gcc/arm-none-eabi/4.6.2/../../../../arm-none-eabi/lib/thumb/v7m\libstdc++.a(fundamental_type_info.o)
 .group         0x00000000        0x8 d:/elektronik/ides/eclipse/yagarto/bin/../lib/gcc/arm-none-eabi/4.6.2/../../../../arm-none-eabi/lib/thumb/v7m\libstdc++.a(fundamental_type_info.o)
 .group         0x00000000        0x8 d:/elektronik/ides/eclipse/yagarto/bin/../lib/gcc/arm-none-eabi/4.6.2/../../../../arm-none-eabi/lib/thumb/v7m\libstdc++.a(fundamental_type_info.o)
 .group         0x00000000        0x8 d:/elektronik/ides/eclipse/yagarto/bin/../lib/gcc/arm-none-eabi/4.6.2/../../../../arm-none-eabi/lib/thumb/v7m\libstdc++.a(fundamental_type_info.o)
 .group         0x00000000        0x8 d:/elektronik/ides/eclipse/yagarto/bin/../lib/gcc/arm-none-eabi/4.6.2/../../../../arm-none-eabi/lib/thumb/v7m\libstdc++.a(fundamental_type_info.o)
 .group         0x00000000        0x8 d:/elektronik/ides/eclipse/yagarto/bin/../lib/gcc/arm-none-eabi/4.6.2/../../../../arm-none-eabi/lib/thumb/v7m\libstdc++.a(fundamental_type_info.o)
 .group         0x00000000        0x8 d:/elektronik/ides/eclipse/yagarto/bin/../lib/gcc/arm-none-eabi/4.6.2/../../../../arm-none-eabi/lib/thumb/v7m\libstdc++.a(fundamental_type_info.o)
 .group         0x00000000        0x8 d:/elektronik/ides/eclipse/yagarto/bin/../lib/gcc/arm-none-eabi/4.6.2/../../../../arm-none-eabi/lib/thumb/v7m\libstdc++.a(fundamental_type_info.o)
 .group         0x00000000        0x8 d:/elektronik/ides/eclipse/yagarto/bin/../lib/gcc/arm-none-eabi/4.6.2/../../../../arm-none-eabi/lib/thumb/v7m\libstdc++.a(fundamental_type_info.o)
 .group         0x00000000        0x8 d:/elektronik/ides/eclipse/yagarto/bin/../lib/gcc/arm-none-eabi/4.6.2/../../../../arm-none-eabi/lib/thumb/v7m\libstdc++.a(fundamental_type_info.o)
 .group         0x00000000        0x8 d:/elektronik/ides/eclipse/yagarto/bin/../lib/gcc/arm-none-eabi/4.6.2/../../../../arm-none-eabi/lib/thumb/v7m\libstdc++.a(fundamental_type_info.o)
 .group         0x00000000        0x8 d:/elektronik/ides/eclipse/yagarto/bin/../lib/gcc/arm-none-eabi/4.6.2/../../../../arm-none-eabi/lib/thumb/v7m\libstdc++.a(fundamental_type_info.o)
 .group         0x00000000        0x8 d:/elektronik/ides/eclipse/yagarto/bin/../lib/gcc/arm-none-eabi/4.6.2/../../../../arm-none-eabi/lib/thumb/v7m\libstdc++.a(fundamental_type_info.o)
 .group         0x00000000        0x8 d:/elektronik/ides/eclipse/yagarto/bin/../lib/gcc/arm-none-eabi/4.6.2/../../../../arm-none-eabi/lib/thumb/v7m\libstdc++.a(fundamental_type_info.o)
 .group         0x00000000        0x8 d:/elektronik/ides/eclipse/yagarto/bin/../lib/gcc/arm-none-eabi/4.6.2/../../../../arm-none-eabi/lib/thumb/v7m\libstdc++.a(fundamental_type_info.o)
 .group         0x00000000        0x8 d:/elektronik/ides/eclipse/yagarto/bin/../lib/gcc/arm-none-eabi/4.6.2/../../../../arm-none-eabi/lib/thumb/v7m\libstdc++.a(fundamental_type_info.o)
 .group         0x00000000        0x8 d:/elektronik/ides/eclipse/yagarto/bin/../lib/gcc/arm-none-eabi/4.6.2/../../../../arm-none-eabi/lib/thumb/v7m\libstdc++.a(fundamental_type_info.o)
 .group         0x00000000        0x8 d:/elektronik/ides/eclipse/yagarto/bin/../lib/gcc/arm-none-eabi/4.6.2/../../../../arm-none-eabi/lib/thumb/v7m\libstdc++.a(fundamental_type_info.o)
 .group         0x00000000        0x8 d:/elektronik/ides/eclipse/yagarto/bin/../lib/gcc/arm-none-eabi/4.6.2/../../../../arm-none-eabi/lib/thumb/v7m\libstdc++.a(fundamental_type_info.o)
 .group         0x00000000        0x8 d:/elektronik/ides/eclipse/yagarto/bin/../lib/gcc/arm-none-eabi/4.6.2/../../../../arm-none-eabi/lib/thumb/v7m\libstdc++.a(fundamental_type_info.o)
 .group         0x00000000        0x8 d:/elektronik/ides/eclipse/yagarto/bin/../lib/gcc/arm-none-eabi/4.6.2/../../../../arm-none-eabi/lib/thumb/v7m\libstdc++.a(fundamental_type_info.o)
 .group         0x00000000        0x8 d:/elektronik/ides/eclipse/yagarto/bin/../lib/gcc/arm-none-eabi/4.6.2/../../../../arm-none-eabi/lib/thumb/v7m\libstdc++.a(fundamental_type_info.o)
 .group         0x00000000        0x8 d:/elektronik/ides/eclipse/yagarto/bin/../lib/gcc/arm-none-eabi/4.6.2/../../../../arm-none-eabi/lib/thumb/v7m\libstdc++.a(fundamental_type_info.o)
 .group         0x00000000        0x8 d:/elektronik/ides/eclipse/yagarto/bin/../lib/gcc/arm-none-eabi/4.6.2/../../../../arm-none-eabi/lib/thumb/v7m\libstdc++.a(fundamental_type_info.o)
 .group         0x00000000        0x8 d:/elektronik/ides/eclipse/yagarto/bin/../lib/gcc/arm-none-eabi/4.6.2/../../../../arm-none-eabi/lib/thumb/v7m\libstdc++.a(fundamental_type_info.o)
 .group         0x00000000        0x8 d:/elektronik/ides/eclipse/yagarto/bin/../lib/gcc/arm-none-eabi/4.6.2/../../../../arm-none-eabi/lib/thumb/v7m\libstdc++.a(fundamental_type_info.o)
 .group         0x00000000        0x8 d:/elektronik/ides/eclipse/yagarto/bin/../lib/gcc/arm-none-eabi/4.6.2/../../../../arm-none-eabi/lib/thumb/v7m\libstdc++.a(fundamental_type_info.o)
 .group         0x00000000        0x8 d:/elektronik/ides/eclipse/yagarto/bin/../lib/gcc/arm-none-eabi/4.6.2/../../../../arm-none-eabi/lib/thumb/v7m\libstdc++.a(fundamental_type_info.o)
 .group         0x00000000        0x8 d:/elektronik/ides/eclipse/yagarto/bin/../lib/gcc/arm-none-eabi/4.6.2/../../../../arm-none-eabi/lib/thumb/v7m\libstdc++.a(fundamental_type_info.o)
 .group         0x00000000        0x8 d:/elektronik/ides/eclipse/yagarto/bin/../lib/gcc/arm-none-eabi/4.6.2/../../../../arm-none-eabi/lib/thumb/v7m\libstdc++.a(fundamental_type_info.o)
 .group         0x00000000        0x8 d:/elektronik/ides/eclipse/yagarto/bin/../lib/gcc/arm-none-eabi/4.6.2/../../../../arm-none-eabi/lib/thumb/v7m\libstdc++.a(fundamental_type_info.o)
 .group         0x00000000        0x8 d:/elektronik/ides/eclipse/yagarto/bin/../lib/gcc/arm-none-eabi/4.6.2/../../../../arm-none-eabi/lib/thumb/v7m\libstdc++.a(fundamental_type_info.o)
 .group         0x00000000        0x8 d:/elektronik/ides/eclipse/yagarto/bin/../lib/gcc/arm-none-eabi/4.6.2/../../../../arm-none-eabi/lib/thumb/v7m\libstdc++.a(fundamental_type_info.o)
 .group         0x00000000        0x8 d:/elektronik/ides/eclipse/yagarto/bin/../lib/gcc/arm-none-eabi/4.6.2/../../../../arm-none-eabi/lib/thumb/v7m\libstdc++.a(fundamental_type_info.o)
 .group         0x00000000        0x8 d:/elektronik/ides/eclipse/yagarto/bin/../lib/gcc/arm-none-eabi/4.6.2/../../../../arm-none-eabi/lib/thumb/v7m\libstdc++.a(fundamental_type_info.o)
 .group         0x00000000        0x8 d:/elektronik/ides/eclipse/yagarto/bin/../lib/gcc/arm-none-eabi/4.6.2/../../../../arm-none-eabi/lib/thumb/v7m\libstdc++.a(fundamental_type_info.o)
 .group         0x00000000        0x8 d:/elektronik/ides/eclipse/yagarto/bin/../lib/gcc/arm-none-eabi/4.6.2/../../../../arm-none-eabi/lib/thumb/v7m\libstdc++.a(fundamental_type_info.o)
 .group         0x00000000        0x8 d:/elektronik/ides/eclipse/yagarto/bin/../lib/gcc/arm-none-eabi/4.6.2/../../../../arm-none-eabi/lib/thumb/v7m\libstdc++.a(fundamental_type_info.o)
 .group         0x00000000        0x8 d:/elektronik/ides/eclipse/yagarto/bin/../lib/gcc/arm-none-eabi/4.6.2/../../../../arm-none-eabi/lib/thumb/v7m\libstdc++.a(fundamental_type_info.o)
 .group         0x00000000        0x8 d:/elektronik/ides/eclipse/yagarto/bin/../lib/gcc/arm-none-eabi/4.6.2/../../../../arm-none-eabi/lib/thumb/v7m\libstdc++.a(fundamental_type_info.o)
 .group         0x00000000        0x8 d:/elektronik/ides/eclipse/yagarto/bin/../lib/gcc/arm-none-eabi/4.6.2/../../../../arm-none-eabi/lib/thumb/v7m\libstdc++.a(fundamental_type_info.o)
 .group         0x00000000        0x8 d:/elektronik/ides/eclipse/yagarto/bin/../lib/gcc/arm-none-eabi/4.6.2/../../../../arm-none-eabi/lib/thumb/v7m\libstdc++.a(fundamental_type_info.o)
 .group         0x00000000        0x8 d:/elektronik/ides/eclipse/yagarto/bin/../lib/gcc/arm-none-eabi/4.6.2/../../../../arm-none-eabi/lib/thumb/v7m\libstdc++.a(fundamental_type_info.o)
 .group         0x00000000        0x8 d:/elektronik/ides/eclipse/yagarto/bin/../lib/gcc/arm-none-eabi/4.6.2/../../../../arm-none-eabi/lib/thumb/v7m\libstdc++.a(fundamental_type_info.o)
 .group         0x00000000        0x8 d:/elektronik/ides/eclipse/yagarto/bin/../lib/gcc/arm-none-eabi/4.6.2/../../../../arm-none-eabi/lib/thumb/v7m\libstdc++.a(fundamental_type_info.o)
 .group         0x00000000        0x8 d:/elektronik/ides/eclipse/yagarto/bin/../lib/gcc/arm-none-eabi/4.6.2/../../../../arm-none-eabi/lib/thumb/v7m\libstdc++.a(fundamental_type_info.o)
 .group         0x00000000        0x8 d:/elektronik/ides/eclipse/yagarto/bin/../lib/gcc/arm-none-eabi/4.6.2/../../../../arm-none-eabi/lib/thumb/v7m\libstdc++.a(fundamental_type_info.o)
 .group         0x00000000        0x8 d:/elektronik/ides/eclipse/yagarto/bin/../lib/gcc/arm-none-eabi/4.6.2/../../../../arm-none-eabi/lib/thumb/v7m\libstdc++.a(fundamental_type_info.o)
 .group         0x00000000        0x8 d:/elektronik/ides/eclipse/yagarto/bin/../lib/gcc/arm-none-eabi/4.6.2/../../../../arm-none-eabi/lib/thumb/v7m\libstdc++.a(fundamental_type_info.o)
 .group         0x00000000        0x8 d:/elektronik/ides/eclipse/yagarto/bin/../lib/gcc/arm-none-eabi/4.6.2/../../../../arm-none-eabi/lib/thumb/v7m\libstdc++.a(fundamental_type_info.o)
 .group         0x00000000        0x8 d:/elektronik/ides/eclipse/yagarto/bin/../lib/gcc/arm-none-eabi/4.6.2/../../../../arm-none-eabi/lib/thumb/v7m\libstdc++.a(fundamental_type_info.o)
 .group         0x00000000        0x8 d:/elektronik/ides/eclipse/yagarto/bin/../lib/gcc/arm-none-eabi/4.6.2/../../../../arm-none-eabi/lib/thumb/v7m\libstdc++.a(fundamental_type_info.o)
 .group         0x00000000        0x8 d:/elektronik/ides/eclipse/yagarto/bin/../lib/gcc/arm-none-eabi/4.6.2/../../../../arm-none-eabi/lib/thumb/v7m\libstdc++.a(fundamental_type_info.o)
 .group         0x00000000        0x8 d:/elektronik/ides/eclipse/yagarto/bin/../lib/gcc/arm-none-eabi/4.6.2/../../../../arm-none-eabi/lib/thumb/v7m\libstdc++.a(fundamental_type_info.o)
 .group         0x00000000        0x8 d:/elektronik/ides/eclipse/yagarto/bin/../lib/gcc/arm-none-eabi/4.6.2/../../../../arm-none-eabi/lib/thumb/v7m\libstdc++.a(fundamental_type_info.o)
 .text          0x00000000        0x0 d:/elektronik/ides/eclipse/yagarto/bin/../lib/gcc/arm-none-eabi/4.6.2/../../../../arm-none-eabi/lib/thumb/v7m\libstdc++.a(fundamental_type_info.o)
 .data          0x00000000        0x0 d:/elektronik/ides/eclipse/yagarto/bin/../lib/gcc/arm-none-eabi/4.6.2/../../../../arm-none-eabi/lib/thumb/v7m\libstdc++.a(fundamental_type_info.o)
 .bss           0x00000000        0x0 d:/elektronik/ides/eclipse/yagarto/bin/../lib/gcc/arm-none-eabi/4.6.2/../../../../arm-none-eabi/lib/thumb/v7m\libstdc++.a(fundamental_type_info.o)
 .ARM.extab.text._ZN10__cxxabiv123__fundamental_type_infoD2Ev
                0x00000000        0x0 d:/elektronik/ides/eclipse/yagarto/bin/../lib/gcc/arm-none-eabi/4.6.2/../../../../arm-none-eabi/lib/thumb/v7m\libstdc++.a(fundamental_type_info.o)
 .ARM.extab.text._ZN10__cxxabiv123__fundamental_type_infoD0Ev
                0x00000000        0x0 d:/elektronik/ides/eclipse/yagarto/bin/../lib/gcc/arm-none-eabi/4.6.2/../../../../arm-none-eabi/lib/thumb/v7m\libstdc++.a(fundamental_type_info.o)
 .rodata._ZTIPKDn
                0x00000000       0x10 d:/elektronik/ides/eclipse/yagarto/bin/../lib/gcc/arm-none-eabi/4.6.2/../../../../arm-none-eabi/lib/thumb/v7m\libstdc++.a(fundamental_type_info.o)
 .rodata._ZTIPDn
                0x00000000       0x10 d:/elektronik/ides/eclipse/yagarto/bin/../lib/gcc/arm-none-eabi/4.6.2/../../../../arm-none-eabi/lib/thumb/v7m\libstdc++.a(fundamental_type_info.o)
 .rodata._ZTIDn
                0x00000000        0x8 d:/elektronik/ides/eclipse/yagarto/bin/../lib/gcc/arm-none-eabi/4.6.2/../../../../arm-none-eabi/lib/thumb/v7m\libstdc++.a(fundamental_type_info.o)
 .rodata._ZTIPKDe
                0x00000000       0x10 d:/elektronik/ides/eclipse/yagarto/bin/../lib/gcc/arm-none-eabi/4.6.2/../../../../arm-none-eabi/lib/thumb/v7m\libstdc++.a(fundamental_type_info.o)
 .rodata._ZTIPDe
                0x00000000       0x10 d:/elektronik/ides/eclipse/yagarto/bin/../lib/gcc/arm-none-eabi/4.6.2/../../../../arm-none-eabi/lib/thumb/v7m\libstdc++.a(fundamental_type_info.o)
 .rodata._ZTIDe
                0x00000000        0x8 d:/elektronik/ides/eclipse/yagarto/bin/../lib/gcc/arm-none-eabi/4.6.2/../../../../arm-none-eabi/lib/thumb/v7m\libstdc++.a(fundamental_type_info.o)
 .rodata._ZTIPKDd
                0x00000000       0x10 d:/elektronik/ides/eclipse/yagarto/bin/../lib/gcc/arm-none-eabi/4.6.2/../../../../arm-none-eabi/lib/thumb/v7m\libstdc++.a(fundamental_type_info.o)
 .rodata._ZTIPDd
                0x00000000       0x10 d:/elektronik/ides/eclipse/yagarto/bin/../lib/gcc/arm-none-eabi/4.6.2/../../../../arm-none-eabi/lib/thumb/v7m\libstdc++.a(fundamental_type_info.o)
 .rodata._ZTIDd
                0x00000000        0x8 d:/elektronik/ides/eclipse/yagarto/bin/../lib/gcc/arm-none-eabi/4.6.2/../../../../arm-none-eabi/lib/thumb/v7m\libstdc++.a(fundamental_type_info.o)
 .rodata._ZTIPKDf
                0x00000000       0x10 d:/elektronik/ides/eclipse/yagarto/bin/../lib/gcc/arm-none-eabi/4.6.2/../../../../arm-none-eabi/lib/thumb/v7m\libstdc++.a(fundamental_type_info.o)
 .rodata._ZTIPDf
                0x00000000       0x10 d:/elektronik/ides/eclipse/yagarto/bin/../lib/gcc/arm-none-eabi/4.6.2/../../../../arm-none-eabi/lib/thumb/v7m\libstdc++.a(fundamental_type_info.o)
 .rodata._ZTIDf
                0x00000000        0x8 d:/elektronik/ides/eclipse/yagarto/bin/../lib/gcc/arm-none-eabi/4.6.2/../../../../arm-none-eabi/lib/thumb/v7m\libstdc++.a(fundamental_type_info.o)
 .rodata._ZTIPKe
                0x00000000       0x10 d:/elektronik/ides/eclipse/yagarto/bin/../lib/gcc/arm-none-eabi/4.6.2/../../../../arm-none-eabi/lib/thumb/v7m\libstdc++.a(fundamental_type_info.o)
 .rodata._ZTIPe
                0x00000000       0x10 d:/elektronik/ides/eclipse/yagarto/bin/../lib/gcc/arm-none-eabi/4.6.2/../../../../arm-none-eabi/lib/thumb/v7m\libstdc++.a(fundamental_type_info.o)
 .rodata._ZTIe  0x00000000        0x8 d:/elektronik/ides/eclipse/yagarto/bin/../lib/gcc/arm-none-eabi/4.6.2/../../../../arm-none-eabi/lib/thumb/v7m\libstdc++.a(fundamental_type_info.o)
 .rodata._ZTIPKd
                0x00000000       0x10 d:/elektronik/ides/eclipse/yagarto/bin/../lib/gcc/arm-none-eabi/4.6.2/../../../../arm-none-eabi/lib/thumb/v7m\libstdc++.a(fundamental_type_info.o)
 .rodata._ZTIPd
                0x00000000       0x10 d:/elektronik/ides/eclipse/yagarto/bin/../lib/gcc/arm-none-eabi/4.6.2/../../../../arm-none-eabi/lib/thumb/v7m\libstdc++.a(fundamental_type_info.o)
 .rodata._ZTId  0x00000000        0x8 d:/elektronik/ides/eclipse/yagarto/bin/../lib/gcc/arm-none-eabi/4.6.2/../../../../arm-none-eabi/lib/thumb/v7m\libstdc++.a(fundamental_type_info.o)
 .rodata._ZTIPKf
                0x00000000       0x10 d:/elektronik/ides/eclipse/yagarto/bin/../lib/gcc/arm-none-eabi/4.6.2/../../../../arm-none-eabi/lib/thumb/v7m\libstdc++.a(fundamental_type_info.o)
 .rodata._ZTIPf
                0x00000000       0x10 d:/elektronik/ides/eclipse/yagarto/bin/../lib/gcc/arm-none-eabi/4.6.2/../../../../arm-none-eabi/lib/thumb/v7m\libstdc++.a(fundamental_type_info.o)
 .rodata._ZTIf  0x00000000        0x8 d:/elektronik/ides/eclipse/yagarto/bin/../lib/gcc/arm-none-eabi/4.6.2/../../../../arm-none-eabi/lib/thumb/v7m\libstdc++.a(fundamental_type_info.o)
 .rodata._ZTIPKy
                0x00000000       0x10 d:/elektronik/ides/eclipse/yagarto/bin/../lib/gcc/arm-none-eabi/4.6.2/../../../../arm-none-eabi/lib/thumb/v7m\libstdc++.a(fundamental_type_info.o)
 .rodata._ZTIPy
                0x00000000       0x10 d:/elektronik/ides/eclipse/yagarto/bin/../lib/gcc/arm-none-eabi/4.6.2/../../../../arm-none-eabi/lib/thumb/v7m\libstdc++.a(fundamental_type_info.o)
 .rodata._ZTIy  0x00000000        0x8 d:/elektronik/ides/eclipse/yagarto/bin/../lib/gcc/arm-none-eabi/4.6.2/../../../../arm-none-eabi/lib/thumb/v7m\libstdc++.a(fundamental_type_info.o)
 .rodata._ZTIPKx
                0x00000000       0x10 d:/elektronik/ides/eclipse/yagarto/bin/../lib/gcc/arm-none-eabi/4.6.2/../../../../arm-none-eabi/lib/thumb/v7m\libstdc++.a(fundamental_type_info.o)
 .rodata._ZTIPx
                0x00000000       0x10 d:/elektronik/ides/eclipse/yagarto/bin/../lib/gcc/arm-none-eabi/4.6.2/../../../../arm-none-eabi/lib/thumb/v7m\libstdc++.a(fundamental_type_info.o)
 .rodata._ZTIx  0x00000000        0x8 d:/elektronik/ides/eclipse/yagarto/bin/../lib/gcc/arm-none-eabi/4.6.2/../../../../arm-none-eabi/lib/thumb/v7m\libstdc++.a(fundamental_type_info.o)
 .rodata._ZTIPKm
                0x00000000       0x10 d:/elektronik/ides/eclipse/yagarto/bin/../lib/gcc/arm-none-eabi/4.6.2/../../../../arm-none-eabi/lib/thumb/v7m\libstdc++.a(fundamental_type_info.o)
 .rodata._ZTIPm
                0x00000000       0x10 d:/elektronik/ides/eclipse/yagarto/bin/../lib/gcc/arm-none-eabi/4.6.2/../../../../arm-none-eabi/lib/thumb/v7m\libstdc++.a(fundamental_type_info.o)
 .rodata._ZTIm  0x00000000        0x8 d:/elektronik/ides/eclipse/yagarto/bin/../lib/gcc/arm-none-eabi/4.6.2/../../../../arm-none-eabi/lib/thumb/v7m\libstdc++.a(fundamental_type_info.o)
 .rodata._ZTIPKl
                0x00000000       0x10 d:/elektronik/ides/eclipse/yagarto/bin/../lib/gcc/arm-none-eabi/4.6.2/../../../../arm-none-eabi/lib/thumb/v7m\libstdc++.a(fundamental_type_info.o)
 .rodata._ZTIPl
                0x00000000       0x10 d:/elektronik/ides/eclipse/yagarto/bin/../lib/gcc/arm-none-eabi/4.6.2/../../../../arm-none-eabi/lib/thumb/v7m\libstdc++.a(fundamental_type_info.o)
 .rodata._ZTIl  0x00000000        0x8 d:/elektronik/ides/eclipse/yagarto/bin/../lib/gcc/arm-none-eabi/4.6.2/../../../../arm-none-eabi/lib/thumb/v7m\libstdc++.a(fundamental_type_info.o)
 .rodata._ZTIPKj
                0x00000000       0x10 d:/elektronik/ides/eclipse/yagarto/bin/../lib/gcc/arm-none-eabi/4.6.2/../../../../arm-none-eabi/lib/thumb/v7m\libstdc++.a(fundamental_type_info.o)
 .rodata._ZTIPj
                0x00000000       0x10 d:/elektronik/ides/eclipse/yagarto/bin/../lib/gcc/arm-none-eabi/4.6.2/../../../../arm-none-eabi/lib/thumb/v7m\libstdc++.a(fundamental_type_info.o)
 .rodata._ZTIj  0x00000000        0x8 d:/elektronik/ides/eclipse/yagarto/bin/../lib/gcc/arm-none-eabi/4.6.2/../../../../arm-none-eabi/lib/thumb/v7m\libstdc++.a(fundamental_type_info.o)
 .rodata._ZTIPKi
                0x00000000       0x10 d:/elektronik/ides/eclipse/yagarto/bin/../lib/gcc/arm-none-eabi/4.6.2/../../../../arm-none-eabi/lib/thumb/v7m\libstdc++.a(fundamental_type_info.o)
 .rodata._ZTIPi
                0x00000000       0x10 d:/elektronik/ides/eclipse/yagarto/bin/../lib/gcc/arm-none-eabi/4.6.2/../../../../arm-none-eabi/lib/thumb/v7m\libstdc++.a(fundamental_type_info.o)
 .rodata._ZTIi  0x00000000        0x8 d:/elektronik/ides/eclipse/yagarto/bin/../lib/gcc/arm-none-eabi/4.6.2/../../../../arm-none-eabi/lib/thumb/v7m\libstdc++.a(fundamental_type_info.o)
 .rodata._ZTIPKt
                0x00000000       0x10 d:/elektronik/ides/eclipse/yagarto/bin/../lib/gcc/arm-none-eabi/4.6.2/../../../../arm-none-eabi/lib/thumb/v7m\libstdc++.a(fundamental_type_info.o)
 .rodata._ZTIPt
                0x00000000       0x10 d:/elektronik/ides/eclipse/yagarto/bin/../lib/gcc/arm-none-eabi/4.6.2/../../../../arm-none-eabi/lib/thumb/v7m\libstdc++.a(fundamental_type_info.o)
 .rodata._ZTIt  0x00000000        0x8 d:/elektronik/ides/eclipse/yagarto/bin/../lib/gcc/arm-none-eabi/4.6.2/../../../../arm-none-eabi/lib/thumb/v7m\libstdc++.a(fundamental_type_info.o)
 .rodata._ZTIPKs
                0x00000000       0x10 d:/elektronik/ides/eclipse/yagarto/bin/../lib/gcc/arm-none-eabi/4.6.2/../../../../arm-none-eabi/lib/thumb/v7m\libstdc++.a(fundamental_type_info.o)
 .rodata._ZTIPs
                0x00000000       0x10 d:/elektronik/ides/eclipse/yagarto/bin/../lib/gcc/arm-none-eabi/4.6.2/../../../../arm-none-eabi/lib/thumb/v7m\libstdc++.a(fundamental_type_info.o)
 .rodata._ZTIs  0x00000000        0x8 d:/elektronik/ides/eclipse/yagarto/bin/../lib/gcc/arm-none-eabi/4.6.2/../../../../arm-none-eabi/lib/thumb/v7m\libstdc++.a(fundamental_type_info.o)
 .rodata._ZTIPKh
                0x00000000       0x10 d:/elektronik/ides/eclipse/yagarto/bin/../lib/gcc/arm-none-eabi/4.6.2/../../../../arm-none-eabi/lib/thumb/v7m\libstdc++.a(fundamental_type_info.o)
 .rodata._ZTIPh
                0x00000000       0x10 d:/elektronik/ides/eclipse/yagarto/bin/../lib/gcc/arm-none-eabi/4.6.2/../../../../arm-none-eabi/lib/thumb/v7m\libstdc++.a(fundamental_type_info.o)
 .rodata._ZTIh  0x00000000        0x8 d:/elektronik/ides/eclipse/yagarto/bin/../lib/gcc/arm-none-eabi/4.6.2/../../../../arm-none-eabi/lib/thumb/v7m\libstdc++.a(fundamental_type_info.o)
 .rodata._ZTIPKa
                0x00000000       0x10 d:/elektronik/ides/eclipse/yagarto/bin/../lib/gcc/arm-none-eabi/4.6.2/../../../../arm-none-eabi/lib/thumb/v7m\libstdc++.a(fundamental_type_info.o)
 .rodata._ZTIPa
                0x00000000       0x10 d:/elektronik/ides/eclipse/yagarto/bin/../lib/gcc/arm-none-eabi/4.6.2/../../../../arm-none-eabi/lib/thumb/v7m\libstdc++.a(fundamental_type_info.o)
 .rodata._ZTIa  0x00000000        0x8 d:/elektronik/ides/eclipse/yagarto/bin/../lib/gcc/arm-none-eabi/4.6.2/../../../../arm-none-eabi/lib/thumb/v7m\libstdc++.a(fundamental_type_info.o)
 .rodata._ZTIPKc
                0x00000000       0x10 d:/elektronik/ides/eclipse/yagarto/bin/../lib/gcc/arm-none-eabi/4.6.2/../../../../arm-none-eabi/lib/thumb/v7m\libstdc++.a(fundamental_type_info.o)
 .rodata._ZTIPc
                0x00000000       0x10 d:/elektronik/ides/eclipse/yagarto/bin/../lib/gcc/arm-none-eabi/4.6.2/../../../../arm-none-eabi/lib/thumb/v7m\libstdc++.a(fundamental_type_info.o)
 .rodata._ZTIc  0x00000000        0x8 d:/elektronik/ides/eclipse/yagarto/bin/../lib/gcc/arm-none-eabi/4.6.2/../../../../arm-none-eabi/lib/thumb/v7m\libstdc++.a(fundamental_type_info.o)
 .rodata._ZTIPKDi
                0x00000000       0x10 d:/elektronik/ides/eclipse/yagarto/bin/../lib/gcc/arm-none-eabi/4.6.2/../../../../arm-none-eabi/lib/thumb/v7m\libstdc++.a(fundamental_type_info.o)
 .rodata._ZTIPDi
                0x00000000       0x10 d:/elektronik/ides/eclipse/yagarto/bin/../lib/gcc/arm-none-eabi/4.6.2/../../../../arm-none-eabi/lib/thumb/v7m\libstdc++.a(fundamental_type_info.o)
 .rodata._ZTIDi
                0x00000000        0x8 d:/elektronik/ides/eclipse/yagarto/bin/../lib/gcc/arm-none-eabi/4.6.2/../../../../arm-none-eabi/lib/thumb/v7m\libstdc++.a(fundamental_type_info.o)
 .rodata._ZTIPKDs
                0x00000000       0x10 d:/elektronik/ides/eclipse/yagarto/bin/../lib/gcc/arm-none-eabi/4.6.2/../../../../arm-none-eabi/lib/thumb/v7m\libstdc++.a(fundamental_type_info.o)
 .rodata._ZTIPDs
                0x00000000       0x10 d:/elektronik/ides/eclipse/yagarto/bin/../lib/gcc/arm-none-eabi/4.6.2/../../../../arm-none-eabi/lib/thumb/v7m\libstdc++.a(fundamental_type_info.o)
 .rodata._ZTIDs
                0x00000000        0x8 d:/elektronik/ides/eclipse/yagarto/bin/../lib/gcc/arm-none-eabi/4.6.2/../../../../arm-none-eabi/lib/thumb/v7m\libstdc++.a(fundamental_type_info.o)
 .rodata._ZTIPKw
                0x00000000       0x10 d:/elektronik/ides/eclipse/yagarto/bin/../lib/gcc/arm-none-eabi/4.6.2/../../../../arm-none-eabi/lib/thumb/v7m\libstdc++.a(fundamental_type_info.o)
 .rodata._ZTIPw
                0x00000000       0x10 d:/elektronik/ides/eclipse/yagarto/bin/../lib/gcc/arm-none-eabi/4.6.2/../../../../arm-none-eabi/lib/thumb/v7m\libstdc++.a(fundamental_type_info.o)
 .rodata._ZTIw  0x00000000        0x8 d:/elektronik/ides/eclipse/yagarto/bin/../lib/gcc/arm-none-eabi/4.6.2/../../../../arm-none-eabi/lib/thumb/v7m\libstdc++.a(fundamental_type_info.o)
 .rodata._ZTIPKb
                0x00000000       0x10 d:/elektronik/ides/eclipse/yagarto/bin/../lib/gcc/arm-none-eabi/4.6.2/../../../../arm-none-eabi/lib/thumb/v7m\libstdc++.a(fundamental_type_info.o)
 .rodata._ZTIPb
                0x00000000       0x10 d:/elektronik/ides/eclipse/yagarto/bin/../lib/gcc/arm-none-eabi/4.6.2/../../../../arm-none-eabi/lib/thumb/v7m\libstdc++.a(fundamental_type_info.o)
 .rodata._ZTIb  0x00000000        0x8 d:/elektronik/ides/eclipse/yagarto/bin/../lib/gcc/arm-none-eabi/4.6.2/../../../../arm-none-eabi/lib/thumb/v7m\libstdc++.a(fundamental_type_info.o)
 .rodata._ZTIPKv
                0x00000000       0x10 d:/elektronik/ides/eclipse/yagarto/bin/../lib/gcc/arm-none-eabi/4.6.2/../../../../arm-none-eabi/lib/thumb/v7m\libstdc++.a(fundamental_type_info.o)
 .rodata._ZTSPKDn
                0x00000000        0x8 d:/elektronik/ides/eclipse/yagarto/bin/../lib/gcc/arm-none-eabi/4.6.2/../../../../arm-none-eabi/lib/thumb/v7m\libstdc++.a(fundamental_type_info.o)
 .rodata._ZTSPDn
                0x00000000        0x4 d:/elektronik/ides/eclipse/yagarto/bin/../lib/gcc/arm-none-eabi/4.6.2/../../../../arm-none-eabi/lib/thumb/v7m\libstdc++.a(fundamental_type_info.o)
 .rodata._ZTSDn
                0x00000000        0x4 d:/elektronik/ides/eclipse/yagarto/bin/../lib/gcc/arm-none-eabi/4.6.2/../../../../arm-none-eabi/lib/thumb/v7m\libstdc++.a(fundamental_type_info.o)
 .rodata._ZTSPKDe
                0x00000000        0x8 d:/elektronik/ides/eclipse/yagarto/bin/../lib/gcc/arm-none-eabi/4.6.2/../../../../arm-none-eabi/lib/thumb/v7m\libstdc++.a(fundamental_type_info.o)
 .rodata._ZTSPDe
                0x00000000        0x4 d:/elektronik/ides/eclipse/yagarto/bin/../lib/gcc/arm-none-eabi/4.6.2/../../../../arm-none-eabi/lib/thumb/v7m\libstdc++.a(fundamental_type_info.o)
 .rodata._ZTSDe
                0x00000000        0x4 d:/elektronik/ides/eclipse/yagarto/bin/../lib/gcc/arm-none-eabi/4.6.2/../../../../arm-none-eabi/lib/thumb/v7m\libstdc++.a(fundamental_type_info.o)
 .rodata._ZTSPKDd
                0x00000000        0x8 d:/elektronik/ides/eclipse/yagarto/bin/../lib/gcc/arm-none-eabi/4.6.2/../../../../arm-none-eabi/lib/thumb/v7m\libstdc++.a(fundamental_type_info.o)
 .rodata._ZTSPDd
                0x00000000        0x4 d:/elektronik/ides/eclipse/yagarto/bin/../lib/gcc/arm-none-eabi/4.6.2/../../../../arm-none-eabi/lib/thumb/v7m\libstdc++.a(fundamental_type_info.o)
 .rodata._ZTSDd
                0x00000000        0x4 d:/elektronik/ides/eclipse/yagarto/bin/../lib/gcc/arm-none-eabi/4.6.2/../../../../arm-none-eabi/lib/thumb/v7m\libstdc++.a(fundamental_type_info.o)
 .rodata._ZTSPKDf
                0x00000000        0x8 d:/elektronik/ides/eclipse/yagarto/bin/../lib/gcc/arm-none-eabi/4.6.2/../../../../arm-none-eabi/lib/thumb/v7m\libstdc++.a(fundamental_type_info.o)
 .rodata._ZTSPDf
                0x00000000        0x4 d:/elektronik/ides/eclipse/yagarto/bin/../lib/gcc/arm-none-eabi/4.6.2/../../../../arm-none-eabi/lib/thumb/v7m\libstdc++.a(fundamental_type_info.o)
 .rodata._ZTSDf
                0x00000000        0x4 d:/elektronik/ides/eclipse/yagarto/bin/../lib/gcc/arm-none-eabi/4.6.2/../../../../arm-none-eabi/lib/thumb/v7m\libstdc++.a(fundamental_type_info.o)
 .rodata._ZTSPKe
                0x00000000        0x4 d:/elektronik/ides/eclipse/yagarto/bin/../lib/gcc/arm-none-eabi/4.6.2/../../../../arm-none-eabi/lib/thumb/v7m\libstdc++.a(fundamental_type_info.o)
 .rodata._ZTSPe
                0x00000000        0x4 d:/elektronik/ides/eclipse/yagarto/bin/../lib/gcc/arm-none-eabi/4.6.2/../../../../arm-none-eabi/lib/thumb/v7m\libstdc++.a(fundamental_type_info.o)
 .rodata._ZTSe  0x00000000        0x4 d:/elektronik/ides/eclipse/yagarto/bin/../lib/gcc/arm-none-eabi/4.6.2/../../../../arm-none-eabi/lib/thumb/v7m\libstdc++.a(fundamental_type_info.o)
 .rodata._ZTSPKd
                0x00000000        0x4 d:/elektronik/ides/eclipse/yagarto/bin/../lib/gcc/arm-none-eabi/4.6.2/../../../../arm-none-eabi/lib/thumb/v7m\libstdc++.a(fundamental_type_info.o)
 .rodata._ZTSPd
                0x00000000        0x4 d:/elektronik/ides/eclipse/yagarto/bin/../lib/gcc/arm-none-eabi/4.6.2/../../../../arm-none-eabi/lib/thumb/v7m\libstdc++.a(fundamental_type_info.o)
 .rodata._ZTSd  0x00000000        0x4 d:/elektronik/ides/eclipse/yagarto/bin/../lib/gcc/arm-none-eabi/4.6.2/../../../../arm-none-eabi/lib/thumb/v7m\libstdc++.a(fundamental_type_info.o)
 .rodata._ZTSPKf
                0x00000000        0x4 d:/elektronik/ides/eclipse/yagarto/bin/../lib/gcc/arm-none-eabi/4.6.2/../../../../arm-none-eabi/lib/thumb/v7m\libstdc++.a(fundamental_type_info.o)
 .rodata._ZTSPf
                0x00000000        0x4 d:/elektronik/ides/eclipse/yagarto/bin/../lib/gcc/arm-none-eabi/4.6.2/../../../../arm-none-eabi/lib/thumb/v7m\libstdc++.a(fundamental_type_info.o)
 .rodata._ZTSf  0x00000000        0x4 d:/elektronik/ides/eclipse/yagarto/bin/../lib/gcc/arm-none-eabi/4.6.2/../../../../arm-none-eabi/lib/thumb/v7m\libstdc++.a(fundamental_type_info.o)
 .rodata._ZTSPKy
                0x00000000        0x4 d:/elektronik/ides/eclipse/yagarto/bin/../lib/gcc/arm-none-eabi/4.6.2/../../../../arm-none-eabi/lib/thumb/v7m\libstdc++.a(fundamental_type_info.o)
 .rodata._ZTSPy
                0x00000000        0x4 d:/elektronik/ides/eclipse/yagarto/bin/../lib/gcc/arm-none-eabi/4.6.2/../../../../arm-none-eabi/lib/thumb/v7m\libstdc++.a(fundamental_type_info.o)
 .rodata._ZTSy  0x00000000        0x4 d:/elektronik/ides/eclipse/yagarto/bin/../lib/gcc/arm-none-eabi/4.6.2/../../../../arm-none-eabi/lib/thumb/v7m\libstdc++.a(fundamental_type_info.o)
 .rodata._ZTSPKx
                0x00000000        0x4 d:/elektronik/ides/eclipse/yagarto/bin/../lib/gcc/arm-none-eabi/4.6.2/../../../../arm-none-eabi/lib/thumb/v7m\libstdc++.a(fundamental_type_info.o)
 .rodata._ZTSPx
                0x00000000        0x4 d:/elektronik/ides/eclipse/yagarto/bin/../lib/gcc/arm-none-eabi/4.6.2/../../../../arm-none-eabi/lib/thumb/v7m\libstdc++.a(fundamental_type_info.o)
 .rodata._ZTSx  0x00000000        0x4 d:/elektronik/ides/eclipse/yagarto/bin/../lib/gcc/arm-none-eabi/4.6.2/../../../../arm-none-eabi/lib/thumb/v7m\libstdc++.a(fundamental_type_info.o)
 .rodata._ZTSPKm
                0x00000000        0x4 d:/elektronik/ides/eclipse/yagarto/bin/../lib/gcc/arm-none-eabi/4.6.2/../../../../arm-none-eabi/lib/thumb/v7m\libstdc++.a(fundamental_type_info.o)
 .rodata._ZTSPm
                0x00000000        0x4 d:/elektronik/ides/eclipse/yagarto/bin/../lib/gcc/arm-none-eabi/4.6.2/../../../../arm-none-eabi/lib/thumb/v7m\libstdc++.a(fundamental_type_info.o)
 .rodata._ZTSm  0x00000000        0x4 d:/elektronik/ides/eclipse/yagarto/bin/../lib/gcc/arm-none-eabi/4.6.2/../../../../arm-none-eabi/lib/thumb/v7m\libstdc++.a(fundamental_type_info.o)
 .rodata._ZTSPKl
                0x00000000        0x4 d:/elektronik/ides/eclipse/yagarto/bin/../lib/gcc/arm-none-eabi/4.6.2/../../../../arm-none-eabi/lib/thumb/v7m\libstdc++.a(fundamental_type_info.o)
 .rodata._ZTSPl
                0x00000000        0x4 d:/elektronik/ides/eclipse/yagarto/bin/../lib/gcc/arm-none-eabi/4.6.2/../../../../arm-none-eabi/lib/thumb/v7m\libstdc++.a(fundamental_type_info.o)
 .rodata._ZTSl  0x00000000        0x4 d:/elektronik/ides/eclipse/yagarto/bin/../lib/gcc/arm-none-eabi/4.6.2/../../../../arm-none-eabi/lib/thumb/v7m\libstdc++.a(fundamental_type_info.o)
 .rodata._ZTSPKj
                0x00000000        0x4 d:/elektronik/ides/eclipse/yagarto/bin/../lib/gcc/arm-none-eabi/4.6.2/../../../../arm-none-eabi/lib/thumb/v7m\libstdc++.a(fundamental_type_info.o)
 .rodata._ZTSPj
                0x00000000        0x4 d:/elektronik/ides/eclipse/yagarto/bin/../lib/gcc/arm-none-eabi/4.6.2/../../../../arm-none-eabi/lib/thumb/v7m\libstdc++.a(fundamental_type_info.o)
 .rodata._ZTSj  0x00000000        0x4 d:/elektronik/ides/eclipse/yagarto/bin/../lib/gcc/arm-none-eabi/4.6.2/../../../../arm-none-eabi/lib/thumb/v7m\libstdc++.a(fundamental_type_info.o)
 .rodata._ZTSPKi
                0x00000000        0x4 d:/elektronik/ides/eclipse/yagarto/bin/../lib/gcc/arm-none-eabi/4.6.2/../../../../arm-none-eabi/lib/thumb/v7m\libstdc++.a(fundamental_type_info.o)
 .rodata._ZTSPi
                0x00000000        0x4 d:/elektronik/ides/eclipse/yagarto/bin/../lib/gcc/arm-none-eabi/4.6.2/../../../../arm-none-eabi/lib/thumb/v7m\libstdc++.a(fundamental_type_info.o)
 .rodata._ZTSi  0x00000000        0x4 d:/elektronik/ides/eclipse/yagarto/bin/../lib/gcc/arm-none-eabi/4.6.2/../../../../arm-none-eabi/lib/thumb/v7m\libstdc++.a(fundamental_type_info.o)
 .rodata._ZTSPKt
                0x00000000        0x4 d:/elektronik/ides/eclipse/yagarto/bin/../lib/gcc/arm-none-eabi/4.6.2/../../../../arm-none-eabi/lib/thumb/v7m\libstdc++.a(fundamental_type_info.o)
 .rodata._ZTSPt
                0x00000000        0x4 d:/elektronik/ides/eclipse/yagarto/bin/../lib/gcc/arm-none-eabi/4.6.2/../../../../arm-none-eabi/lib/thumb/v7m\libstdc++.a(fundamental_type_info.o)
 .rodata._ZTSt  0x00000000        0x4 d:/elektronik/ides/eclipse/yagarto/bin/../lib/gcc/arm-none-eabi/4.6.2/../../../../arm-none-eabi/lib/thumb/v7m\libstdc++.a(fundamental_type_info.o)
 .rodata._ZTSPKs
                0x00000000        0x4 d:/elektronik/ides/eclipse/yagarto/bin/../lib/gcc/arm-none-eabi/4.6.2/../../../../arm-none-eabi/lib/thumb/v7m\libstdc++.a(fundamental_type_info.o)
 .rodata._ZTSPs
                0x00000000        0x4 d:/elektronik/ides/eclipse/yagarto/bin/../lib/gcc/arm-none-eabi/4.6.2/../../../../arm-none-eabi/lib/thumb/v7m\libstdc++.a(fundamental_type_info.o)
 .rodata._ZTSs  0x00000000        0x4 d:/elektronik/ides/eclipse/yagarto/bin/../lib/gcc/arm-none-eabi/4.6.2/../../../../arm-none-eabi/lib/thumb/v7m\libstdc++.a(fundamental_type_info.o)
 .rodata._ZTSPKh
                0x00000000        0x4 d:/elektronik/ides/eclipse/yagarto/bin/../lib/gcc/arm-none-eabi/4.6.2/../../../../arm-none-eabi/lib/thumb/v7m\libstdc++.a(fundamental_type_info.o)
 .rodata._ZTSPh
                0x00000000        0x4 d:/elektronik/ides/eclipse/yagarto/bin/../lib/gcc/arm-none-eabi/4.6.2/../../../../arm-none-eabi/lib/thumb/v7m\libstdc++.a(fundamental_type_info.o)
 .rodata._ZTSh  0x00000000        0x4 d:/elektronik/ides/eclipse/yagarto/bin/../lib/gcc/arm-none-eabi/4.6.2/../../../../arm-none-eabi/lib/thumb/v7m\libstdc++.a(fundamental_type_info.o)
 .rodata._ZTSPKa
                0x00000000        0x4 d:/elektronik/ides/eclipse/yagarto/bin/../lib/gcc/arm-none-eabi/4.6.2/../../../../arm-none-eabi/lib/thumb/v7m\libstdc++.a(fundamental_type_info.o)
 .rodata._ZTSPa
                0x00000000        0x4 d:/elektronik/ides/eclipse/yagarto/bin/../lib/gcc/arm-none-eabi/4.6.2/../../../../arm-none-eabi/lib/thumb/v7m\libstdc++.a(fundamental_type_info.o)
 .rodata._ZTSa  0x00000000        0x4 d:/elektronik/ides/eclipse/yagarto/bin/../lib/gcc/arm-none-eabi/4.6.2/../../../../arm-none-eabi/lib/thumb/v7m\libstdc++.a(fundamental_type_info.o)
 .rodata._ZTSPKc
                0x00000000        0x4 d:/elektronik/ides/eclipse/yagarto/bin/../lib/gcc/arm-none-eabi/4.6.2/../../../../arm-none-eabi/lib/thumb/v7m\libstdc++.a(fundamental_type_info.o)
 .rodata._ZTSPc
                0x00000000        0x4 d:/elektronik/ides/eclipse/yagarto/bin/../lib/gcc/arm-none-eabi/4.6.2/../../../../arm-none-eabi/lib/thumb/v7m\libstdc++.a(fundamental_type_info.o)
 .rodata._ZTSc  0x00000000        0x4 d:/elektronik/ides/eclipse/yagarto/bin/../lib/gcc/arm-none-eabi/4.6.2/../../../../arm-none-eabi/lib/thumb/v7m\libstdc++.a(fundamental_type_info.o)
 .rodata._ZTSPKDi
                0x00000000        0x8 d:/elektronik/ides/eclipse/yagarto/bin/../lib/gcc/arm-none-eabi/4.6.2/../../../../arm-none-eabi/lib/thumb/v7m\libstdc++.a(fundamental_type_info.o)
 .rodata._ZTSPDi
                0x00000000        0x4 d:/elektronik/ides/eclipse/yagarto/bin/../lib/gcc/arm-none-eabi/4.6.2/../../../../arm-none-eabi/lib/thumb/v7m\libstdc++.a(fundamental_type_info.o)
 .rodata._ZTSDi
                0x00000000        0x4 d:/elektronik/ides/eclipse/yagarto/bin/../lib/gcc/arm-none-eabi/4.6.2/../../../../arm-none-eabi/lib/thumb/v7m\libstdc++.a(fundamental_type_info.o)
 .rodata._ZTSPKDs
                0x00000000        0x8 d:/elektronik/ides/eclipse/yagarto/bin/../lib/gcc/arm-none-eabi/4.6.2/../../../../arm-none-eabi/lib/thumb/v7m\libstdc++.a(fundamental_type_info.o)
 .rodata._ZTSPDs
                0x00000000        0x4 d:/elektronik/ides/eclipse/yagarto/bin/../lib/gcc/arm-none-eabi/4.6.2/../../../../arm-none-eabi/lib/thumb/v7m\libstdc++.a(fundamental_type_info.o)
 .rodata._ZTSDs
                0x00000000        0x4 d:/elektronik/ides/eclipse/yagarto/bin/../lib/gcc/arm-none-eabi/4.6.2/../../../../arm-none-eabi/lib/thumb/v7m\libstdc++.a(fundamental_type_info.o)
 .rodata._ZTSPKw
                0x00000000        0x4 d:/elektronik/ides/eclipse/yagarto/bin/../lib/gcc/arm-none-eabi/4.6.2/../../../../arm-none-eabi/lib/thumb/v7m\libstdc++.a(fundamental_type_info.o)
 .rodata._ZTSPw
                0x00000000        0x4 d:/elektronik/ides/eclipse/yagarto/bin/../lib/gcc/arm-none-eabi/4.6.2/../../../../arm-none-eabi/lib/thumb/v7m\libstdc++.a(fundamental_type_info.o)
 .rodata._ZTSw  0x00000000        0x4 d:/elektronik/ides/eclipse/yagarto/bin/../lib/gcc/arm-none-eabi/4.6.2/../../../../arm-none-eabi/lib/thumb/v7m\libstdc++.a(fundamental_type_info.o)
 .rodata._ZTSPKb
                0x00000000        0x4 d:/elektronik/ides/eclipse/yagarto/bin/../lib/gcc/arm-none-eabi/4.6.2/../../../../arm-none-eabi/lib/thumb/v7m\libstdc++.a(fundamental_type_info.o)
 .rodata._ZTSPb
                0x00000000        0x4 d:/elektronik/ides/eclipse/yagarto/bin/../lib/gcc/arm-none-eabi/4.6.2/../../../../arm-none-eabi/lib/thumb/v7m\libstdc++.a(fundamental_type_info.o)
 .rodata._ZTSb  0x00000000        0x4 d:/elektronik/ides/eclipse/yagarto/bin/../lib/gcc/arm-none-eabi/4.6.2/../../../../arm-none-eabi/lib/thumb/v7m\libstdc++.a(fundamental_type_info.o)
 .rodata._ZTSPKv
                0x00000000        0x4 d:/elektronik/ides/eclipse/yagarto/bin/../lib/gcc/arm-none-eabi/4.6.2/../../../../arm-none-eabi/lib/thumb/v7m\libstdc++.a(fundamental_type_info.o)
 .text          0x00000000        0x0 d:/elektronik/ides/eclipse/yagarto/bin/../lib/gcc/arm-none-eabi/4.6.2/../../../../arm-none-eabi/lib/thumb/v7m\libstdc++.a(pointer_type_info.o)
 .data          0x00000000        0x0 d:/elektronik/ides/eclipse/yagarto/bin/../lib/gcc/arm-none-eabi/4.6.2/../../../../arm-none-eabi/lib/thumb/v7m\libstdc++.a(pointer_type_info.o)
 .bss           0x00000000        0x0 d:/elektronik/ides/eclipse/yagarto/bin/../lib/gcc/arm-none-eabi/4.6.2/../../../../arm-none-eabi/lib/thumb/v7m\libstdc++.a(pointer_type_info.o)
 .ARM.extab.text._ZNK10__cxxabiv119__pointer_type_info14__is_pointer_pEv
                0x00000000        0x0 d:/elektronik/ides/eclipse/yagarto/bin/../lib/gcc/arm-none-eabi/4.6.2/../../../../arm-none-eabi/lib/thumb/v7m\libstdc++.a(pointer_type_info.o)
 .ARM.extab.text._ZN10__cxxabiv119__pointer_type_infoD2Ev
                0x00000000        0x0 d:/elektronik/ides/eclipse/yagarto/bin/../lib/gcc/arm-none-eabi/4.6.2/../../../../arm-none-eabi/lib/thumb/v7m\libstdc++.a(pointer_type_info.o)
 .ARM.extab.text._ZN10__cxxabiv119__pointer_type_infoD0Ev
                0x00000000        0x0 d:/elektronik/ides/eclipse/yagarto/bin/../lib/gcc/arm-none-eabi/4.6.2/../../../../arm-none-eabi/lib/thumb/v7m\libstdc++.a(pointer_type_info.o)
 .ARM.extab.text._ZNK10__cxxabiv119__pointer_type_info15__pointer_catchEPKNS_17__pbase_type_infoEPPvj
                0x00000000        0x0 d:/elektronik/ides/eclipse/yagarto/bin/../lib/gcc/arm-none-eabi/4.6.2/../../../../arm-none-eabi/lib/thumb/v7m\libstdc++.a(pointer_type_info.o)
 .text          0x00000000        0x0 d:/elektronik/ides/eclipse/yagarto/bin/../lib/gcc/arm-none-eabi/4.6.2/../../../../arm-none-eabi/lib/thumb/v7m\libstdc++.a(si_class_type_info.o)
 .data          0x00000000        0x0 d:/elektronik/ides/eclipse/yagarto/bin/../lib/gcc/arm-none-eabi/4.6.2/../../../../arm-none-eabi/lib/thumb/v7m\libstdc++.a(si_class_type_info.o)
 .bss           0x00000000        0x0 d:/elektronik/ides/eclipse/yagarto/bin/../lib/gcc/arm-none-eabi/4.6.2/../../../../arm-none-eabi/lib/thumb/v7m\libstdc++.a(si_class_type_info.o)
 .ARM.extab.text._ZN10__cxxabiv120__si_class_type_infoD2Ev
                0x00000000        0x0 d:/elektronik/ides/eclipse/yagarto/bin/../lib/gcc/arm-none-eabi/4.6.2/../../../../arm-none-eabi/lib/thumb/v7m\libstdc++.a(si_class_type_info.o)
 .ARM.extab.text._ZN10__cxxabiv120__si_class_type_infoD0Ev
                0x00000000        0x0 d:/elektronik/ides/eclipse/yagarto/bin/../lib/gcc/arm-none-eabi/4.6.2/../../../../arm-none-eabi/lib/thumb/v7m\libstdc++.a(si_class_type_info.o)
 .ARM.extab.text._ZNK10__cxxabiv120__si_class_type_info11__do_upcastEPKNS_17__class_type_infoEPKvRNS1_15__upcast_resultE
                0x00000000        0x0 d:/elektronik/ides/eclipse/yagarto/bin/../lib/gcc/arm-none-eabi/4.6.2/../../../../arm-none-eabi/lib/thumb/v7m\libstdc++.a(si_class_type_info.o)
 .ARM.extab.text._ZNK10__cxxabiv120__si_class_type_info12__do_dyncastEiNS_17__class_type_info10__sub_kindEPKS1_PKvS4_S6_RNS1_16__dyncast_resultE
                0x00000000        0x0 d:/elektronik/ides/eclipse/yagarto/bin/../lib/gcc/arm-none-eabi/4.6.2/../../../../arm-none-eabi/lib/thumb/v7m\libstdc++.a(si_class_type_info.o)
 .ARM.extab.text._ZNK10__cxxabiv120__si_class_type_info20__do_find_public_srcEiPKvPKNS_17__class_type_infoES2_
                0x00000000        0x0 d:/elektronik/ides/eclipse/yagarto/bin/../lib/gcc/arm-none-eabi/4.6.2/../../../../arm-none-eabi/lib/thumb/v7m\libstdc++.a(si_class_type_info.o)
 .text          0x00000000        0x0 d:/elektronik/ides/eclipse/yagarto/bin/../lib/gcc/arm-none-eabi/4.6.2/../../../../arm-none-eabi/lib/thumb/v7m\libstdc++.a(tinfo.o)
 .data          0x00000000        0x0 d:/elektronik/ides/eclipse/yagarto/bin/../lib/gcc/arm-none-eabi/4.6.2/../../../../arm-none-eabi/lib/thumb/v7m\libstdc++.a(tinfo.o)
 .bss           0x00000000        0x0 d:/elektronik/ides/eclipse/yagarto/bin/../lib/gcc/arm-none-eabi/4.6.2/../../../../arm-none-eabi/lib/thumb/v7m\libstdc++.a(tinfo.o)
 .ARM.extab.text._ZNSt9type_infoD2Ev
                0x00000000        0x0 d:/elektronik/ides/eclipse/yagarto/bin/../lib/gcc/arm-none-eabi/4.6.2/../../../../arm-none-eabi/lib/thumb/v7m\libstdc++.a(tinfo.o)
 .ARM.extab.text._ZNKSt9type_info14__is_pointer_pEv
                0x00000000        0x0 d:/elektronik/ides/eclipse/yagarto/bin/../lib/gcc/arm-none-eabi/4.6.2/../../../../arm-none-eabi/lib/thumb/v7m\libstdc++.a(tinfo.o)
 .ARM.extab.text._ZNKSt9type_info15__is_function_pEv
                0x00000000        0x0 d:/elektronik/ides/eclipse/yagarto/bin/../lib/gcc/arm-none-eabi/4.6.2/../../../../arm-none-eabi/lib/thumb/v7m\libstdc++.a(tinfo.o)
 .ARM.extab.text._ZNKSt9type_info11__do_upcastEPKN10__cxxabiv117__class_type_infoEPPv
                0x00000000        0x0 d:/elektronik/ides/eclipse/yagarto/bin/../lib/gcc/arm-none-eabi/4.6.2/../../../../arm-none-eabi/lib/thumb/v7m\libstdc++.a(tinfo.o)
 .ARM.extab.text._ZNSt9type_infoD0Ev
                0x00000000        0x0 d:/elektronik/ides/eclipse/yagarto/bin/../lib/gcc/arm-none-eabi/4.6.2/../../../../arm-none-eabi/lib/thumb/v7m\libstdc++.a(tinfo.o)
 .ARM.extab.text._ZNKSt9type_infoeqERKS_
                0x00000000        0x0 d:/elektronik/ides/eclipse/yagarto/bin/../lib/gcc/arm-none-eabi/4.6.2/../../../../arm-none-eabi/lib/thumb/v7m\libstdc++.a(tinfo.o)
 .ARM.extab.text._ZNKSt9type_info10__do_catchEPKS_PPvj
                0x00000000        0x0 d:/elektronik/ides/eclipse/yagarto/bin/../lib/gcc/arm-none-eabi/4.6.2/../../../../arm-none-eabi/lib/thumb/v7m\libstdc++.a(tinfo.o)
 .text          0x00000000        0x0 d:/elektronik/ides/eclipse/yagarto/bin/../lib/gcc/arm-none-eabi/4.6.2/../../../../arm-none-eabi/lib/thumb/v7m\libstdc++.a(bad_cast.o)
 .data          0x00000000        0x0 d:/elektronik/ides/eclipse/yagarto/bin/../lib/gcc/arm-none-eabi/4.6.2/../../../../arm-none-eabi/lib/thumb/v7m\libstdc++.a(bad_cast.o)
 .bss           0x00000000        0x0 d:/elektronik/ides/eclipse/yagarto/bin/../lib/gcc/arm-none-eabi/4.6.2/../../../../arm-none-eabi/lib/thumb/v7m\libstdc++.a(bad_cast.o)
 .text._ZNKSt8bad_cast4whatEv
                0x00000000        0xc d:/elektronik/ides/eclipse/yagarto/bin/../lib/gcc/arm-none-eabi/4.6.2/../../../../arm-none-eabi/lib/thumb/v7m\libstdc++.a(bad_cast.o)
 .ARM.extab.text._ZNKSt8bad_cast4whatEv
                0x00000000        0x0 d:/elektronik/ides/eclipse/yagarto/bin/../lib/gcc/arm-none-eabi/4.6.2/../../../../arm-none-eabi/lib/thumb/v7m\libstdc++.a(bad_cast.o)
 .ARM.exidx.text._ZNKSt8bad_cast4whatEv
                0x00000000        0x8 d:/elektronik/ides/eclipse/yagarto/bin/../lib/gcc/arm-none-eabi/4.6.2/../../../../arm-none-eabi/lib/thumb/v7m\libstdc++.a(bad_cast.o)
 .text._ZNSt8bad_castD2Ev
                0x00000000       0x14 d:/elektronik/ides/eclipse/yagarto/bin/../lib/gcc/arm-none-eabi/4.6.2/../../../../arm-none-eabi/lib/thumb/v7m\libstdc++.a(bad_cast.o)
 .ARM.extab.text._ZNSt8bad_castD2Ev
                0x00000000        0x0 d:/elektronik/ides/eclipse/yagarto/bin/../lib/gcc/arm-none-eabi/4.6.2/../../../../arm-none-eabi/lib/thumb/v7m\libstdc++.a(bad_cast.o)
 .ARM.exidx.text._ZNSt8bad_castD2Ev
                0x00000000        0x8 d:/elektronik/ides/eclipse/yagarto/bin/../lib/gcc/arm-none-eabi/4.6.2/../../../../arm-none-eabi/lib/thumb/v7m\libstdc++.a(bad_cast.o)
 .text._ZNSt8bad_castD0Ev
                0x00000000       0x1c d:/elektronik/ides/eclipse/yagarto/bin/../lib/gcc/arm-none-eabi/4.6.2/../../../../arm-none-eabi/lib/thumb/v7m\libstdc++.a(bad_cast.o)
 .ARM.extab.text._ZNSt8bad_castD0Ev
                0x00000000        0x0 d:/elektronik/ides/eclipse/yagarto/bin/../lib/gcc/arm-none-eabi/4.6.2/../../../../arm-none-eabi/lib/thumb/v7m\libstdc++.a(bad_cast.o)
 .ARM.exidx.text._ZNSt8bad_castD0Ev
                0x00000000        0x8 d:/elektronik/ides/eclipse/yagarto/bin/../lib/gcc/arm-none-eabi/4.6.2/../../../../arm-none-eabi/lib/thumb/v7m\libstdc++.a(bad_cast.o)
 .rodata._ZTISt8bad_cast
                0x00000000        0xc d:/elektronik/ides/eclipse/yagarto/bin/../lib/gcc/arm-none-eabi/4.6.2/../../../../arm-none-eabi/lib/thumb/v7m\libstdc++.a(bad_cast.o)
 .rodata._ZTSSt8bad_cast
                0x00000000        0xc d:/elektronik/ides/eclipse/yagarto/bin/../lib/gcc/arm-none-eabi/4.6.2/../../../../arm-none-eabi/lib/thumb/v7m\libstdc++.a(bad_cast.o)
 .rodata._ZTVSt8bad_cast
                0x00000000       0x18 d:/elektronik/ides/eclipse/yagarto/bin/../lib/gcc/arm-none-eabi/4.6.2/../../../../arm-none-eabi/lib/thumb/v7m\libstdc++.a(bad_cast.o)
 .rodata.str1.4
                0x00000000       0x10 d:/elektronik/ides/eclipse/yagarto/bin/../lib/gcc/arm-none-eabi/4.6.2/../../../../arm-none-eabi/lib/thumb/v7m\libstdc++.a(bad_cast.o)
 .text          0x00000000        0x0 d:/elektronik/ides/eclipse/yagarto/bin/../lib/gcc/arm-none-eabi/4.6.2/../../../../arm-none-eabi/lib/thumb/v7m\libstdc++.a(bad_typeid.o)
 .data          0x00000000        0x0 d:/elektronik/ides/eclipse/yagarto/bin/../lib/gcc/arm-none-eabi/4.6.2/../../../../arm-none-eabi/lib/thumb/v7m\libstdc++.a(bad_typeid.o)
 .bss           0x00000000        0x0 d:/elektronik/ides/eclipse/yagarto/bin/../lib/gcc/arm-none-eabi/4.6.2/../../../../arm-none-eabi/lib/thumb/v7m\libstdc++.a(bad_typeid.o)
 .ARM.extab.text._ZNKSt10bad_typeid4whatEv
                0x00000000        0x0 d:/elektronik/ides/eclipse/yagarto/bin/../lib/gcc/arm-none-eabi/4.6.2/../../../../arm-none-eabi/lib/thumb/v7m\libstdc++.a(bad_typeid.o)
 .ARM.extab.text._ZNSt10bad_typeidD2Ev
                0x00000000        0x0 d:/elektronik/ides/eclipse/yagarto/bin/../lib/gcc/arm-none-eabi/4.6.2/../../../../arm-none-eabi/lib/thumb/v7m\libstdc++.a(bad_typeid.o)
 .ARM.extab.text._ZNSt10bad_typeidD0Ev
                0x00000000        0x0 d:/elektronik/ides/eclipse/yagarto/bin/../lib/gcc/arm-none-eabi/4.6.2/../../../../arm-none-eabi/lib/thumb/v7m\libstdc++.a(bad_typeid.o)
 .text          0x00000000        0x0 d:/elektronik/ides/eclipse/yagarto/bin/../lib/gcc/arm-none-eabi/4.6.2/../../../../arm-none-eabi/lib/thumb/v7m\libstdc++.a(class_type_info.o)
 .data          0x00000000        0x0 d:/elektronik/ides/eclipse/yagarto/bin/../lib/gcc/arm-none-eabi/4.6.2/../../../../arm-none-eabi/lib/thumb/v7m\libstdc++.a(class_type_info.o)
 .bss           0x00000000        0x0 d:/elektronik/ides/eclipse/yagarto/bin/../lib/gcc/arm-none-eabi/4.6.2/../../../../arm-none-eabi/lib/thumb/v7m\libstdc++.a(class_type_info.o)
 .ARM.extab.text._ZNK10__cxxabiv117__class_type_info11__do_upcastEPKS0_PPv
                0x00000000        0x0 d:/elektronik/ides/eclipse/yagarto/bin/../lib/gcc/arm-none-eabi/4.6.2/../../../../arm-none-eabi/lib/thumb/v7m\libstdc++.a(class_type_info.o)
 .ARM.extab.text._ZNK10__cxxabiv117__class_type_info20__do_find_public_srcEiPKvPKS0_S2_
                0x00000000        0x0 d:/elektronik/ides/eclipse/yagarto/bin/../lib/gcc/arm-none-eabi/4.6.2/../../../../arm-none-eabi/lib/thumb/v7m\libstdc++.a(class_type_info.o)
 .ARM.extab.text._ZNK10__cxxabiv117__class_type_info11__do_upcastEPKS0_PKvRNS0_15__upcast_resultE
                0x00000000        0x0 d:/elektronik/ides/eclipse/yagarto/bin/../lib/gcc/arm-none-eabi/4.6.2/../../../../arm-none-eabi/lib/thumb/v7m\libstdc++.a(class_type_info.o)
 .ARM.extab.text._ZN10__cxxabiv117__class_type_infoD2Ev
                0x00000000        0x0 d:/elektronik/ides/eclipse/yagarto/bin/../lib/gcc/arm-none-eabi/4.6.2/../../../../arm-none-eabi/lib/thumb/v7m\libstdc++.a(class_type_info.o)
 .ARM.extab.text._ZN10__cxxabiv117__class_type_infoD0Ev
                0x00000000        0x0 d:/elektronik/ides/eclipse/yagarto/bin/../lib/gcc/arm-none-eabi/4.6.2/../../../../arm-none-eabi/lib/thumb/v7m\libstdc++.a(class_type_info.o)
 .ARM.extab.text._ZNK10__cxxabiv117__class_type_info12__do_dyncastEiNS0_10__sub_kindEPKS0_PKvS3_S5_RNS0_16__dyncast_resultE
                0x00000000        0x0 d:/elektronik/ides/eclipse/yagarto/bin/../lib/gcc/arm-none-eabi/4.6.2/../../../../arm-none-eabi/lib/thumb/v7m\libstdc++.a(class_type_info.o)
 .ARM.extab.text._ZNK10__cxxabiv117__class_type_info10__do_catchEPKSt9type_infoPPvj
                0x00000000        0x0 d:/elektronik/ides/eclipse/yagarto/bin/../lib/gcc/arm-none-eabi/4.6.2/../../../../arm-none-eabi/lib/thumb/v7m\libstdc++.a(class_type_info.o)
 .text          0x00000000        0x0 d:/elektronik/ides/eclipse/yagarto/bin/../lib/gcc/arm-none-eabi/4.6.2/../../../../arm-none-eabi/lib/thumb/v7m\libstdc++.a(eh_alloc.o)
 .data          0x00000000        0x0 d:/elektronik/ides/eclipse/yagarto/bin/../lib/gcc/arm-none-eabi/4.6.2/../../../../arm-none-eabi/lib/thumb/v7m\libstdc++.a(eh_alloc.o)
 .bss           0x00000000        0x0 d:/elektronik/ides/eclipse/yagarto/bin/../lib/gcc/arm-none-eabi/4.6.2/../../../../arm-none-eabi/lib/thumb/v7m\libstdc++.a(eh_alloc.o)
 .ARM.extab.text.__cxa_allocate_exception
                0x00000000        0x0 d:/elektronik/ides/eclipse/yagarto/bin/../lib/gcc/arm-none-eabi/4.6.2/../../../../arm-none-eabi/lib/thumb/v7m\libstdc++.a(eh_alloc.o)
 .ARM.extab.text.__cxa_free_exception
                0x00000000        0x0 d:/elektronik/ides/eclipse/yagarto/bin/../lib/gcc/arm-none-eabi/4.6.2/../../../../arm-none-eabi/lib/thumb/v7m\libstdc++.a(eh_alloc.o)
 .text.__cxa_allocate_dependent_exception
                0x00000000       0x58 d:/elektronik/ides/eclipse/yagarto/bin/../lib/gcc/arm-none-eabi/4.6.2/../../../../arm-none-eabi/lib/thumb/v7m\libstdc++.a(eh_alloc.o)
 .ARM.extab.text.__cxa_allocate_dependent_exception
                0x00000000        0x0 d:/elektronik/ides/eclipse/yagarto/bin/../lib/gcc/arm-none-eabi/4.6.2/../../../../arm-none-eabi/lib/thumb/v7m\libstdc++.a(eh_alloc.o)
 .ARM.exidx.text.__cxa_allocate_dependent_exception
                0x00000000        0x8 d:/elektronik/ides/eclipse/yagarto/bin/../lib/gcc/arm-none-eabi/4.6.2/../../../../arm-none-eabi/lib/thumb/v7m\libstdc++.a(eh_alloc.o)
 .text.__cxa_free_dependent_exception
                0x00000000       0x44 d:/elektronik/ides/eclipse/yagarto/bin/../lib/gcc/arm-none-eabi/4.6.2/../../../../arm-none-eabi/lib/thumb/v7m\libstdc++.a(eh_alloc.o)
 .ARM.extab.text.__cxa_free_dependent_exception
                0x00000000        0x0 d:/elektronik/ides/eclipse/yagarto/bin/../lib/gcc/arm-none-eabi/4.6.2/../../../../arm-none-eabi/lib/thumb/v7m\libstdc++.a(eh_alloc.o)
 .ARM.exidx.text.__cxa_free_dependent_exception
                0x00000000        0x8 d:/elektronik/ides/eclipse/yagarto/bin/../lib/gcc/arm-none-eabi/4.6.2/../../../../arm-none-eabi/lib/thumb/v7m\libstdc++.a(eh_alloc.o)
 .bss._ZL15dependents_used
                0x00000000        0x4 d:/elektronik/ides/eclipse/yagarto/bin/../lib/gcc/arm-none-eabi/4.6.2/../../../../arm-none-eabi/lib/thumb/v7m\libstdc++.a(eh_alloc.o)
 .bss._ZL17dependents_buffer
                0x00000000      0x1e0 d:/elektronik/ides/eclipse/yagarto/bin/../lib/gcc/arm-none-eabi/4.6.2/../../../../arm-none-eabi/lib/thumb/v7m\libstdc++.a(eh_alloc.o)
 .group         0x00000000       0x10 d:/elektronik/ides/eclipse/yagarto/bin/../lib/gcc/arm-none-eabi/4.6.2/../../../../arm-none-eabi/lib/thumb/v7m\libstdc++.a(pbase_type_info.o)
 .text          0x00000000        0x0 d:/elektronik/ides/eclipse/yagarto/bin/../lib/gcc/arm-none-eabi/4.6.2/../../../../arm-none-eabi/lib/thumb/v7m\libstdc++.a(pbase_type_info.o)
 .data          0x00000000        0x0 d:/elektronik/ides/eclipse/yagarto/bin/../lib/gcc/arm-none-eabi/4.6.2/../../../../arm-none-eabi/lib/thumb/v7m\libstdc++.a(pbase_type_info.o)
 .bss           0x00000000        0x0 d:/elektronik/ides/eclipse/yagarto/bin/../lib/gcc/arm-none-eabi/4.6.2/../../../../arm-none-eabi/lib/thumb/v7m\libstdc++.a(pbase_type_info.o)
 .ARM.extab.text._ZN10__cxxabiv117__pbase_type_infoD2Ev
                0x00000000        0x0 d:/elektronik/ides/eclipse/yagarto/bin/../lib/gcc/arm-none-eabi/4.6.2/../../../../arm-none-eabi/lib/thumb/v7m\libstdc++.a(pbase_type_info.o)
 .ARM.extab.text._ZN10__cxxabiv117__pbase_type_infoD0Ev
                0x00000000        0x0 d:/elektronik/ides/eclipse/yagarto/bin/../lib/gcc/arm-none-eabi/4.6.2/../../../../arm-none-eabi/lib/thumb/v7m\libstdc++.a(pbase_type_info.o)
 .ARM.extab.text._ZNK10__cxxabiv117__pbase_type_info10__do_catchEPKSt9type_infoPPvj
                0x00000000        0x0 d:/elektronik/ides/eclipse/yagarto/bin/../lib/gcc/arm-none-eabi/4.6.2/../../../../arm-none-eabi/lib/thumb/v7m\libstdc++.a(pbase_type_info.o)
 .data          0x00000000        0x0 d:/elektronik/ides/eclipse/yagarto/bin/../lib/gcc/arm-none-eabi/4.6.2/thumb/v7m\libgcc.a(unwind-arm.o)
 .bss           0x00000000        0x0 d:/elektronik/ides/eclipse/yagarto/bin/../lib/gcc/arm-none-eabi/4.6.2/thumb/v7m\libgcc.a(unwind-arm.o)
 .data          0x00000000        0x0 d:/elektronik/ides/eclipse/yagarto/bin/../lib/gcc/arm-none-eabi/4.6.2/thumb/v7m\libgcc.a(libunwind.o)
 .bss           0x00000000        0x0 d:/elektronik/ides/eclipse/yagarto/bin/../lib/gcc/arm-none-eabi/4.6.2/thumb/v7m\libgcc.a(libunwind.o)
 .data          0x00000000        0x0 d:/elektronik/ides/eclipse/yagarto/bin/../lib/gcc/arm-none-eabi/4.6.2/thumb/v7m\libgcc.a(pr-support.o)
 .bss           0x00000000        0x0 d:/elektronik/ides/eclipse/yagarto/bin/../lib/gcc/arm-none-eabi/4.6.2/thumb/v7m\libgcc.a(pr-support.o)
 .data          0x00000000        0x0 d:/elektronik/ides/eclipse/yagarto/bin/../lib/gcc/arm-none-eabi/4.6.2/../../../../arm-none-eabi/lib/thumb/v7m\libg.a(lib_a-abort.o)
 .bss           0x00000000        0x0 d:/elektronik/ides/eclipse/yagarto/bin/../lib/gcc/arm-none-eabi/4.6.2/../../../../arm-none-eabi/lib/thumb/v7m\libg.a(lib_a-abort.o)
 .data          0x00000000        0x0 d:/elektronik/ides/eclipse/yagarto/bin/../lib/gcc/arm-none-eabi/4.6.2/../../../../arm-none-eabi/lib/thumb/v7m\libg.a(lib_a-assert.o)
 .bss           0x00000000        0x0 d:/elektronik/ides/eclipse/yagarto/bin/../lib/gcc/arm-none-eabi/4.6.2/../../../../arm-none-eabi/lib/thumb/v7m\libg.a(lib_a-assert.o)
 .text          0x00000000        0xc d:/elektronik/ides/eclipse/yagarto/bin/../lib/gcc/arm-none-eabi/4.6.2/../../../../arm-none-eabi/lib/thumb/v7m\libg.a(lib_a-atexit.o)
 .data          0x00000000        0x0 d:/elektronik/ides/eclipse/yagarto/bin/../lib/gcc/arm-none-eabi/4.6.2/../../../../arm-none-eabi/lib/thumb/v7m\libg.a(lib_a-atexit.o)
 .bss           0x00000000        0x0 d:/elektronik/ides/eclipse/yagarto/bin/../lib/gcc/arm-none-eabi/4.6.2/../../../../arm-none-eabi/lib/thumb/v7m\libg.a(lib_a-atexit.o)
 .data          0x00000000        0x0 d:/elektronik/ides/eclipse/yagarto/bin/../lib/gcc/arm-none-eabi/4.6.2/../../../../arm-none-eabi/lib/thumb/v7m\libg.a(lib_a-cxa_atexit.o)
 .bss           0x00000000        0x0 d:/elektronik/ides/eclipse/yagarto/bin/../lib/gcc/arm-none-eabi/4.6.2/../../../../arm-none-eabi/lib/thumb/v7m\libg.a(lib_a-cxa_atexit.o)
 .text          0x00000000       0x20 d:/elektronik/ides/eclipse/yagarto/bin/../lib/gcc/arm-none-eabi/4.6.2/../../../../arm-none-eabi/lib/thumb/v7m\libg.a(lib_a-exit.o)
 .data          0x00000000        0x0 d:/elektronik/ides/eclipse/yagarto/bin/../lib/gcc/arm-none-eabi/4.6.2/../../../../arm-none-eabi/lib/thumb/v7m\libg.a(lib_a-exit.o)
 .bss           0x00000000        0x0 d:/elektronik/ides/eclipse/yagarto/bin/../lib/gcc/arm-none-eabi/4.6.2/../../../../arm-none-eabi/lib/thumb/v7m\libg.a(lib_a-exit.o)
 .text          0x00000000       0x2c d:/elektronik/ides/eclipse/yagarto/bin/../lib/gcc/arm-none-eabi/4.6.2/../../../../arm-none-eabi/lib/thumb/v7m\libg.a(lib_a-fini.o)
 .data          0x00000000        0x0 d:/elektronik/ides/eclipse/yagarto/bin/../lib/gcc/arm-none-eabi/4.6.2/../../../../arm-none-eabi/lib/thumb/v7m\libg.a(lib_a-fini.o)
 .bss           0x00000000        0x0 d:/elektronik/ides/eclipse/yagarto/bin/../lib/gcc/arm-none-eabi/4.6.2/../../../../arm-none-eabi/lib/thumb/v7m\libg.a(lib_a-fini.o)
 .data          0x00000000        0x0 d:/elektronik/ides/eclipse/yagarto/bin/../lib/gcc/arm-none-eabi/4.6.2/../../../../arm-none-eabi/lib/thumb/v7m\libg.a(lib_a-fiprintf.o)
 .bss           0x00000000        0x0 d:/elektronik/ides/eclipse/yagarto/bin/../lib/gcc/arm-none-eabi/4.6.2/../../../../arm-none-eabi/lib/thumb/v7m\libg.a(lib_a-fiprintf.o)
 .data          0x00000000        0x0 d:/elektronik/ides/eclipse/yagarto/bin/../lib/gcc/arm-none-eabi/4.6.2/../../../../arm-none-eabi/lib/thumb/v7m\libg.a(lib_a-fputc.o)
 .bss           0x00000000        0x0 d:/elektronik/ides/eclipse/yagarto/bin/../lib/gcc/arm-none-eabi/4.6.2/../../../../arm-none-eabi/lib/thumb/v7m\libg.a(lib_a-fputc.o)
 .data          0x00000000        0x0 d:/elektronik/ides/eclipse/yagarto/bin/../lib/gcc/arm-none-eabi/4.6.2/../../../../arm-none-eabi/lib/thumb/v7m\libg.a(lib_a-fputs.o)
 .bss           0x00000000        0x0 d:/elektronik/ides/eclipse/yagarto/bin/../lib/gcc/arm-none-eabi/4.6.2/../../../../arm-none-eabi/lib/thumb/v7m\libg.a(lib_a-fputs.o)
 .data          0x00000000        0x0 d:/elektronik/ides/eclipse/yagarto/bin/../lib/gcc/arm-none-eabi/4.6.2/../../../../arm-none-eabi/lib/thumb/v7m\libg.a(lib_a-fvwrite.o)
 .bss           0x00000000        0x0 d:/elektronik/ides/eclipse/yagarto/bin/../lib/gcc/arm-none-eabi/4.6.2/../../../../arm-none-eabi/lib/thumb/v7m\libg.a(lib_a-fvwrite.o)
 .data          0x00000000        0x0 d:/elektronik/ides/eclipse/yagarto/bin/../lib/gcc/arm-none-eabi/4.6.2/../../../../arm-none-eabi/lib/thumb/v7m\libg.a(lib_a-fwrite.o)
 .bss           0x00000000        0x0 d:/elektronik/ides/eclipse/yagarto/bin/../lib/gcc/arm-none-eabi/4.6.2/../../../../arm-none-eabi/lib/thumb/v7m\libg.a(lib_a-fwrite.o)
 .text          0x00000000        0x0 d:/elektronik/ides/eclipse/yagarto/bin/../lib/gcc/arm-none-eabi/4.6.2/../../../../arm-none-eabi/lib/thumb/v7m\libg.a(lib_a-impure.o)
 .bss           0x00000000        0x0 d:/elektronik/ides/eclipse/yagarto/bin/../lib/gcc/arm-none-eabi/4.6.2/../../../../arm-none-eabi/lib/thumb/v7m\libg.a(lib_a-impure.o)
 .data          0x00000000        0x0 d:/elektronik/ides/eclipse/yagarto/bin/../lib/gcc/arm-none-eabi/4.6.2/../../../../arm-none-eabi/lib/thumb/v7m\libg.a(lib_a-init.o)
 .bss           0x00000000        0x0 d:/elektronik/ides/eclipse/yagarto/bin/../lib/gcc/arm-none-eabi/4.6.2/../../../../arm-none-eabi/lib/thumb/v7m\libg.a(lib_a-init.o)
 .data          0x00000000        0x0 d:/elektronik/ides/eclipse/yagarto/bin/../lib/gcc/arm-none-eabi/4.6.2/../../../../arm-none-eabi/lib/thumb/v7m\libg.a(lib_a-malloc.o)
 .bss           0x00000000        0x0 d:/elektronik/ides/eclipse/yagarto/bin/../lib/gcc/arm-none-eabi/4.6.2/../../../../arm-none-eabi/lib/thumb/v7m\libg.a(lib_a-malloc.o)
 .data          0x00000000        0x0 d:/elektronik/ides/eclipse/yagarto/bin/../lib/gcc/arm-none-eabi/4.6.2/../../../../arm-none-eabi/lib/thumb/v7m\libg.a(lib_a-memchr.o)
 .bss           0x00000000        0x0 d:/elektronik/ides/eclipse/yagarto/bin/../lib/gcc/arm-none-eabi/4.6.2/../../../../arm-none-eabi/lib/thumb/v7m\libg.a(lib_a-memchr.o)
 .data          0x00000000        0x0 d:/elektronik/ides/eclipse/yagarto/bin/../lib/gcc/arm-none-eabi/4.6.2/../../../../arm-none-eabi/lib/thumb/v7m\libg.a(lib_a-memcmp.o)
 .bss           0x00000000        0x0 d:/elektronik/ides/eclipse/yagarto/bin/../lib/gcc/arm-none-eabi/4.6.2/../../../../arm-none-eabi/lib/thumb/v7m\libg.a(lib_a-memcmp.o)
 .data          0x00000000        0x0 d:/elektronik/ides/eclipse/yagarto/bin/../lib/gcc/arm-none-eabi/4.6.2/../../../../arm-none-eabi/lib/thumb/v7m\libg.a(lib_a-memcpy.o)
 .bss           0x00000000        0x0 d:/elektronik/ides/eclipse/yagarto/bin/../lib/gcc/arm-none-eabi/4.6.2/../../../../arm-none-eabi/lib/thumb/v7m\libg.a(lib_a-memcpy.o)
 .data          0x00000000        0x0 d:/elektronik/ides/eclipse/yagarto/bin/../lib/gcc/arm-none-eabi/4.6.2/../../../../arm-none-eabi/lib/thumb/v7m\libg.a(lib_a-memmove.o)
 .bss           0x00000000        0x0 d:/elektronik/ides/eclipse/yagarto/bin/../lib/gcc/arm-none-eabi/4.6.2/../../../../arm-none-eabi/lib/thumb/v7m\libg.a(lib_a-memmove.o)
 .data          0x00000000        0x0 d:/elektronik/ides/eclipse/yagarto/bin/../lib/gcc/arm-none-eabi/4.6.2/../../../../arm-none-eabi/lib/thumb/v7m\libg.a(lib_a-memset.o)
 .bss           0x00000000        0x0 d:/elektronik/ides/eclipse/yagarto/bin/../lib/gcc/arm-none-eabi/4.6.2/../../../../arm-none-eabi/lib/thumb/v7m\libg.a(lib_a-memset.o)
 .data          0x00000000        0x0 d:/elektronik/ides/eclipse/yagarto/bin/../lib/gcc/arm-none-eabi/4.6.2/../../../../arm-none-eabi/lib/thumb/v7m\libg.a(lib_a-putc.o)
 .bss           0x00000000        0x0 d:/elektronik/ides/eclipse/yagarto/bin/../lib/gcc/arm-none-eabi/4.6.2/../../../../arm-none-eabi/lib/thumb/v7m\libg.a(lib_a-putc.o)
 .data          0x00000000        0x0 d:/elektronik/ides/eclipse/yagarto/bin/../lib/gcc/arm-none-eabi/4.6.2/../../../../arm-none-eabi/lib/thumb/v7m\libg.a(lib_a-realloc.o)
 .bss           0x00000000        0x0 d:/elektronik/ides/eclipse/yagarto/bin/../lib/gcc/arm-none-eabi/4.6.2/../../../../arm-none-eabi/lib/thumb/v7m\libg.a(lib_a-realloc.o)
 .data          0x00000000        0x0 d:/elektronik/ides/eclipse/yagarto/bin/../lib/gcc/arm-none-eabi/4.6.2/../../../../arm-none-eabi/lib/thumb/v7m\libg.a(lib_a-reallocr.o)
 .bss           0x00000000        0x0 d:/elektronik/ides/eclipse/yagarto/bin/../lib/gcc/arm-none-eabi/4.6.2/../../../../arm-none-eabi/lib/thumb/v7m\libg.a(lib_a-reallocr.o)
 .data          0x00000000        0x0 d:/elektronik/ides/eclipse/yagarto/bin/../lib/gcc/arm-none-eabi/4.6.2/../../../../arm-none-eabi/lib/thumb/v7m\libg.a(lib_a-signal.o)
 .bss           0x00000000        0x0 d:/elektronik/ides/eclipse/yagarto/bin/../lib/gcc/arm-none-eabi/4.6.2/../../../../arm-none-eabi/lib/thumb/v7m\libg.a(lib_a-signal.o)
 .data          0x00000000        0x0 d:/elektronik/ides/eclipse/yagarto/bin/../lib/gcc/arm-none-eabi/4.6.2/../../../../arm-none-eabi/lib/thumb/v7m\libg.a(lib_a-sprintf.o)
 .bss           0x00000000        0x0 d:/elektronik/ides/eclipse/yagarto/bin/../lib/gcc/arm-none-eabi/4.6.2/../../../../arm-none-eabi/lib/thumb/v7m\libg.a(lib_a-sprintf.o)
 .data          0x00000000        0x0 d:/elektronik/ides/eclipse/yagarto/bin/../lib/gcc/arm-none-eabi/4.6.2/../../../../arm-none-eabi/lib/thumb/v7m\libg.a(lib_a-strcat.o)
 .bss           0x00000000        0x0 d:/elektronik/ides/eclipse/yagarto/bin/../lib/gcc/arm-none-eabi/4.6.2/../../../../arm-none-eabi/lib/thumb/v7m\libg.a(lib_a-strcat.o)
 .data          0x00000000        0x0 d:/elektronik/ides/eclipse/yagarto/bin/../lib/gcc/arm-none-eabi/4.6.2/../../../../arm-none-eabi/lib/thumb/v7m\libg.a(lib_a-strcmp.o)
 .bss           0x00000000        0x0 d:/elektronik/ides/eclipse/yagarto/bin/../lib/gcc/arm-none-eabi/4.6.2/../../../../arm-none-eabi/lib/thumb/v7m\libg.a(lib_a-strcmp.o)
 .data          0x00000000        0x0 d:/elektronik/ides/eclipse/yagarto/bin/../lib/gcc/arm-none-eabi/4.6.2/../../../../arm-none-eabi/lib/thumb/v7m\libg.a(lib_a-strcpy.o)
 .bss           0x00000000        0x0 d:/elektronik/ides/eclipse/yagarto/bin/../lib/gcc/arm-none-eabi/4.6.2/../../../../arm-none-eabi/lib/thumb/v7m\libg.a(lib_a-strcpy.o)
 .data          0x00000000        0x0 d:/elektronik/ides/eclipse/yagarto/bin/../lib/gcc/arm-none-eabi/4.6.2/../../../../arm-none-eabi/lib/thumb/v7m\libg.a(lib_a-strlen.o)
 .bss           0x00000000        0x0 d:/elektronik/ides/eclipse/yagarto/bin/../lib/gcc/arm-none-eabi/4.6.2/../../../../arm-none-eabi/lib/thumb/v7m\libg.a(lib_a-strlen.o)
 .data          0x00000000        0x0 d:/elektronik/ides/eclipse/yagarto/bin/../lib/gcc/arm-none-eabi/4.6.2/../../../../arm-none-eabi/lib/thumb/v7m\libg.a(lib_a-strncmp.o)
 .bss           0x00000000        0x0 d:/elektronik/ides/eclipse/yagarto/bin/../lib/gcc/arm-none-eabi/4.6.2/../../../../arm-none-eabi/lib/thumb/v7m\libg.a(lib_a-strncmp.o)
 .data          0x00000000        0x0 d:/elektronik/ides/eclipse/yagarto/bin/../lib/gcc/arm-none-eabi/4.6.2/../../../../arm-none-eabi/lib/thumb/v7m\libg.a(lib_a-strncpy.o)
 .bss           0x00000000        0x0 d:/elektronik/ides/eclipse/yagarto/bin/../lib/gcc/arm-none-eabi/4.6.2/../../../../arm-none-eabi/lib/thumb/v7m\libg.a(lib_a-strncpy.o)
 .data          0x00000000        0x0 d:/elektronik/ides/eclipse/yagarto/bin/../lib/gcc/arm-none-eabi/4.6.2/../../../../arm-none-eabi/lib/thumb/v7m\libg.a(lib_a-svfprintf.o)
 .bss           0x00000000        0x0 d:/elektronik/ides/eclipse/yagarto/bin/../lib/gcc/arm-none-eabi/4.6.2/../../../../arm-none-eabi/lib/thumb/v7m\libg.a(lib_a-svfprintf.o)
 .data          0x00000000        0x0 d:/elektronik/ides/eclipse/yagarto/bin/../lib/gcc/arm-none-eabi/4.6.2/../../../../arm-none-eabi/lib/thumb/v7m\libg.a(lib_a-syswrite.o)
 .bss           0x00000000        0x0 d:/elektronik/ides/eclipse/yagarto/bin/../lib/gcc/arm-none-eabi/4.6.2/../../../../arm-none-eabi/lib/thumb/v7m\libg.a(lib_a-syswrite.o)
 .data          0x00000000        0x0 d:/elektronik/ides/eclipse/yagarto/bin/../lib/gcc/arm-none-eabi/4.6.2/../../../../arm-none-eabi/lib/thumb/v7m\libg.a(lib_a-vfiprintf.o)
 .bss           0x00000000        0x0 d:/elektronik/ides/eclipse/yagarto/bin/../lib/gcc/arm-none-eabi/4.6.2/../../../../arm-none-eabi/lib/thumb/v7m\libg.a(lib_a-vfiprintf.o)
 .data          0x00000000        0x0 d:/elektronik/ides/eclipse/yagarto/bin/../lib/gcc/arm-none-eabi/4.6.2/../../../../arm-none-eabi/lib/thumb/v7m\libg.a(lib_a-wbuf.o)
 .bss           0x00000000        0x0 d:/elektronik/ides/eclipse/yagarto/bin/../lib/gcc/arm-none-eabi/4.6.2/../../../../arm-none-eabi/lib/thumb/v7m\libg.a(lib_a-wbuf.o)
 .data          0x00000000        0x0 d:/elektronik/ides/eclipse/yagarto/bin/../lib/gcc/arm-none-eabi/4.6.2/../../../../arm-none-eabi/lib/thumb/v7m\libg.a(lib_a-wsetup.o)
 .bss           0x00000000        0x0 d:/elektronik/ides/eclipse/yagarto/bin/../lib/gcc/arm-none-eabi/4.6.2/../../../../arm-none-eabi/lib/thumb/v7m\libg.a(lib_a-wsetup.o)
 .data          0x00000000        0x0 d:/elektronik/ides/eclipse/yagarto/bin/../lib/gcc/arm-none-eabi/4.6.2/../../../../arm-none-eabi/lib/thumb/v7m\libg.a(lib_a-__atexit.o)
 .bss           0x00000000        0x0 d:/elektronik/ides/eclipse/yagarto/bin/../lib/gcc/arm-none-eabi/4.6.2/../../../../arm-none-eabi/lib/thumb/v7m\libg.a(lib_a-__atexit.o)
 .text          0x00000000       0xd8 d:/elektronik/ides/eclipse/yagarto/bin/../lib/gcc/arm-none-eabi/4.6.2/../../../../arm-none-eabi/lib/thumb/v7m\libg.a(lib_a-__call_atexit.o)
 .data          0x00000000        0x0 d:/elektronik/ides/eclipse/yagarto/bin/../lib/gcc/arm-none-eabi/4.6.2/../../../../arm-none-eabi/lib/thumb/v7m\libg.a(lib_a-__call_atexit.o)
 .bss           0x00000000        0x0 d:/elektronik/ides/eclipse/yagarto/bin/../lib/gcc/arm-none-eabi/4.6.2/../../../../arm-none-eabi/lib/thumb/v7m\libg.a(lib_a-__call_atexit.o)
 .data          0x00000000        0x0 d:/elektronik/ides/eclipse/yagarto/bin/../lib/gcc/arm-none-eabi/4.6.2/../../../../arm-none-eabi/lib/thumb/v7m\libg.a(lib_a-dtoa.o)
 .bss           0x00000000        0x0 d:/elektronik/ides/eclipse/yagarto/bin/../lib/gcc/arm-none-eabi/4.6.2/../../../../arm-none-eabi/lib/thumb/v7m\libg.a(lib_a-dtoa.o)
 .data          0x00000000        0x0 d:/elektronik/ides/eclipse/yagarto/bin/../lib/gcc/arm-none-eabi/4.6.2/../../../../arm-none-eabi/lib/thumb/v7m\libg.a(lib_a-fflush.o)
 .bss           0x00000000        0x0 d:/elektronik/ides/eclipse/yagarto/bin/../lib/gcc/arm-none-eabi/4.6.2/../../../../arm-none-eabi/lib/thumb/v7m\libg.a(lib_a-fflush.o)
 .data          0x00000000        0x0 d:/elektronik/ides/eclipse/yagarto/bin/../lib/gcc/arm-none-eabi/4.6.2/../../../../arm-none-eabi/lib/thumb/v7m\libg.a(lib_a-findfp.o)
 .bss           0x00000000        0x0 d:/elektronik/ides/eclipse/yagarto/bin/../lib/gcc/arm-none-eabi/4.6.2/../../../../arm-none-eabi/lib/thumb/v7m\libg.a(lib_a-findfp.o)
 .data          0x00000000        0x0 d:/elektronik/ides/eclipse/yagarto/bin/../lib/gcc/arm-none-eabi/4.6.2/../../../../arm-none-eabi/lib/thumb/v7m\libg.a(lib_a-fputwc.o)
 .bss           0x00000000        0x0 d:/elektronik/ides/eclipse/yagarto/bin/../lib/gcc/arm-none-eabi/4.6.2/../../../../arm-none-eabi/lib/thumb/v7m\libg.a(lib_a-fputwc.o)
 .data          0x00000000        0x0 d:/elektronik/ides/eclipse/yagarto/bin/../lib/gcc/arm-none-eabi/4.6.2/../../../../arm-none-eabi/lib/thumb/v7m\libg.a(lib_a-freer.o)
 .bss           0x00000000        0x0 d:/elektronik/ides/eclipse/yagarto/bin/../lib/gcc/arm-none-eabi/4.6.2/../../../../arm-none-eabi/lib/thumb/v7m\libg.a(lib_a-freer.o)
 .data          0x00000000        0x0 d:/elektronik/ides/eclipse/yagarto/bin/../lib/gcc/arm-none-eabi/4.6.2/../../../../arm-none-eabi/lib/thumb/v7m\libg.a(lib_a-fwalk.o)
 .bss           0x00000000        0x0 d:/elektronik/ides/eclipse/yagarto/bin/../lib/gcc/arm-none-eabi/4.6.2/../../../../arm-none-eabi/lib/thumb/v7m\libg.a(lib_a-fwalk.o)
 .bss           0x00000000        0xc d:/elektronik/ides/eclipse/yagarto/bin/../lib/gcc/arm-none-eabi/4.6.2/../../../../arm-none-eabi/lib/thumb/v7m\libg.a(lib_a-locale.o)
 .data          0x00000000        0x0 d:/elektronik/ides/eclipse/yagarto/bin/../lib/gcc/arm-none-eabi/4.6.2/../../../../arm-none-eabi/lib/thumb/v7m\libg.a(lib_a-makebuf.o)
 .bss           0x00000000        0x0 d:/elektronik/ides/eclipse/yagarto/bin/../lib/gcc/arm-none-eabi/4.6.2/../../../../arm-none-eabi/lib/thumb/v7m\libg.a(lib_a-makebuf.o)
 .data          0x00000000        0x0 d:/elektronik/ides/eclipse/yagarto/bin/../lib/gcc/arm-none-eabi/4.6.2/../../../../arm-none-eabi/lib/thumb/v7m\libg.a(lib_a-mprec.o)
 .bss           0x00000000        0x0 d:/elektronik/ides/eclipse/yagarto/bin/../lib/gcc/arm-none-eabi/4.6.2/../../../../arm-none-eabi/lib/thumb/v7m\libg.a(lib_a-mprec.o)
 .data          0x00000000        0x0 d:/elektronik/ides/eclipse/yagarto/bin/../lib/gcc/arm-none-eabi/4.6.2/../../../../arm-none-eabi/lib/thumb/v7m\libg.a(lib_a-s_fpclassify.o)
 .bss           0x00000000        0x0 d:/elektronik/ides/eclipse/yagarto/bin/../lib/gcc/arm-none-eabi/4.6.2/../../../../arm-none-eabi/lib/thumb/v7m\libg.a(lib_a-s_fpclassify.o)
 .data          0x00000000        0x0 d:/elektronik/ides/eclipse/yagarto/bin/../lib/gcc/arm-none-eabi/4.6.2/../../../../arm-none-eabi/lib/thumb/v7m\libg.a(lib_a-stdio.o)
 .bss           0x00000000        0x0 d:/elektronik/ides/eclipse/yagarto/bin/../lib/gcc/arm-none-eabi/4.6.2/../../../../arm-none-eabi/lib/thumb/v7m\libg.a(lib_a-stdio.o)
 .data          0x00000000        0x0 d:/elektronik/ides/eclipse/yagarto/bin/../lib/gcc/arm-none-eabi/4.6.2/../../../../arm-none-eabi/lib/thumb/v7m\libg.a(lib_a-svfiprintf.o)
 .bss           0x00000000        0x0 d:/elektronik/ides/eclipse/yagarto/bin/../lib/gcc/arm-none-eabi/4.6.2/../../../../arm-none-eabi/lib/thumb/v7m\libg.a(lib_a-svfiprintf.o)
 .data          0x00000000        0x0 d:/elektronik/ides/eclipse/yagarto/bin/../lib/gcc/arm-none-eabi/4.6.2/../../../../arm-none-eabi/lib/thumb/v7m\libg.a(lib_a-wcrtomb.o)
 .bss           0x00000000        0x0 d:/elektronik/ides/eclipse/yagarto/bin/../lib/gcc/arm-none-eabi/4.6.2/../../../../arm-none-eabi/lib/thumb/v7m\libg.a(lib_a-wcrtomb.o)
 .bss           0x00000000        0x0 d:/elektronik/ides/eclipse/yagarto/bin/../lib/gcc/arm-none-eabi/4.6.2/../../../../arm-none-eabi/lib/thumb/v7m\libg.a(lib_a-wctomb_r.o)
 .data          0x00000000        0x0 d:/elektronik/ides/eclipse/yagarto/bin/../lib/gcc/arm-none-eabi/4.6.2/../../../../arm-none-eabi/lib/thumb/v7m\libg.a(lib_a-callocr.o)
 .bss           0x00000000        0x0 d:/elektronik/ides/eclipse/yagarto/bin/../lib/gcc/arm-none-eabi/4.6.2/../../../../arm-none-eabi/lib/thumb/v7m\libg.a(lib_a-callocr.o)
 .data          0x00000000        0x0 d:/elektronik/ides/eclipse/yagarto/bin/../lib/gcc/arm-none-eabi/4.6.2/../../../../arm-none-eabi/lib/thumb/v7m\libg.a(lib_a-fclose.o)
 .bss           0x00000000        0x0 d:/elektronik/ides/eclipse/yagarto/bin/../lib/gcc/arm-none-eabi/4.6.2/../../../../arm-none-eabi/lib/thumb/v7m\libg.a(lib_a-fclose.o)
 .data          0x00000000        0x0 d:/elektronik/ides/eclipse/yagarto/bin/../lib/gcc/arm-none-eabi/4.6.2/thumb/v7m\libgcc.a(_udivsi3.o)
 .bss           0x00000000        0x0 d:/elektronik/ides/eclipse/yagarto/bin/../lib/gcc/arm-none-eabi/4.6.2/thumb/v7m\libgcc.a(_udivsi3.o)
 .data          0x00000000        0x0 d:/elektronik/ides/eclipse/yagarto/bin/../lib/gcc/arm-none-eabi/4.6.2/thumb/v7m\libgcc.a(_dvmd_tls.o)
 .bss           0x00000000        0x0 d:/elektronik/ides/eclipse/yagarto/bin/../lib/gcc/arm-none-eabi/4.6.2/thumb/v7m\libgcc.a(_dvmd_tls.o)
 .data          0x00000000        0x0 d:/elektronik/ides/eclipse/yagarto/bin/../lib/gcc/arm-none-eabi/4.6.2/thumb/v7m\libgcc.a(_arm_addsubdf3.o)
 .bss           0x00000000        0x0 d:/elektronik/ides/eclipse/yagarto/bin/../lib/gcc/arm-none-eabi/4.6.2/thumb/v7m\libgcc.a(_arm_addsubdf3.o)
 .data          0x00000000        0x0 d:/elektronik/ides/eclipse/yagarto/bin/../lib/gcc/arm-none-eabi/4.6.2/thumb/v7m\libgcc.a(_arm_muldivdf3.o)
 .bss           0x00000000        0x0 d:/elektronik/ides/eclipse/yagarto/bin/../lib/gcc/arm-none-eabi/4.6.2/thumb/v7m\libgcc.a(_arm_muldivdf3.o)
 .data          0x00000000        0x0 d:/elektronik/ides/eclipse/yagarto/bin/../lib/gcc/arm-none-eabi/4.6.2/thumb/v7m\libgcc.a(_arm_cmpdf2.o)
 .bss           0x00000000        0x0 d:/elektronik/ides/eclipse/yagarto/bin/../lib/gcc/arm-none-eabi/4.6.2/thumb/v7m\libgcc.a(_arm_cmpdf2.o)
 .data          0x00000000        0x0 d:/elektronik/ides/eclipse/yagarto/bin/../lib/gcc/arm-none-eabi/4.6.2/thumb/v7m\libgcc.a(_arm_fixdfsi.o)
 .bss           0x00000000        0x0 d:/elektronik/ides/eclipse/yagarto/bin/../lib/gcc/arm-none-eabi/4.6.2/thumb/v7m\libgcc.a(_arm_fixdfsi.o)
 .text          0x00000000        0x0 d:/elektronik/ides/eclipse/yagarto/bin/../lib/gcc/arm-none-eabi/4.6.2/thumb/v7m/crtend.o
 .data          0x00000000        0x0 d:/elektronik/ides/eclipse/yagarto/bin/../lib/gcc/arm-none-eabi/4.6.2/thumb/v7m/crtend.o
 .bss           0x00000000        0x0 d:/elektronik/ides/eclipse/yagarto/bin/../lib/gcc/arm-none-eabi/4.6.2/thumb/v7m/crtend.o
 .eh_frame      0x00000000        0x4 d:/elektronik/ides/eclipse/yagarto/bin/../lib/gcc/arm-none-eabi/4.6.2/thumb/v7m/crtend.o
 .jcr           0x00000000        0x4 d:/elektronik/ides/eclipse/yagarto/bin/../lib/gcc/arm-none-eabi/4.6.2/thumb/v7m/crtend.o
 .text          0x00000000        0x0 d:/elektronik/ides/eclipse/yagarto/bin/../lib/gcc/arm-none-eabi/4.6.2/thumb/v7m/crtn.o
 .data          0x00000000        0x0 d:/elektronik/ides/eclipse/yagarto/bin/../lib/gcc/arm-none-eabi/4.6.2/thumb/v7m/crtn.o
 .bss           0x00000000        0x0 d:/elektronik/ides/eclipse/yagarto/bin/../lib/gcc/arm-none-eabi/4.6.2/thumb/v7m/crtn.o

Memory Configuration

Name             Origin             Length             Attributes
FLASH            0x08000000         0x00100000         xr
RAM              0x20000000         0x00020000         xrw
MEMORY_B1        0x60000000         0x00000000         xr
*default*        0x00000000         0xffffffff

Linker script and memory map

LOAD d:/elektronik/ides/eclipse/yagarto/bin/../lib/gcc/arm-none-eabi/4.6.2/thumb/v7m/crti.o
LOAD d:/elektronik/ides/eclipse/yagarto/bin/../lib/gcc/arm-none-eabi/4.6.2/thumb/v7m/crtbegin.o
LOAD d:/elektronik/ides/eclipse/yagarto/bin/../lib/gcc/arm-none-eabi/4.6.2/../../../../arm-none-eabi/lib/thumb/v7m/crt0.o
LOAD ./STM32_USB_OTG_Driver/src/usb_core.o
LOAD ./STM32_USB_OTG_Driver/src/usb_hcd.o
LOAD ./STM32_USB_OTG_Driver/src/usb_hcd_int.o
LOAD ./STM32_USB_HOST_Library/Core/src/usbh_core.o
LOAD ./STM32_USB_HOST_Library/Core/src/usbh_hcs.o
LOAD ./STM32_USB_HOST_Library/Core/src/usbh_ioreq.o
LOAD ./STM32_USB_HOST_Library/Core/src/usbh_stdreq.o
LOAD ./STM32_USB_HOST_Library/Class/MSC/src/usbh_msc_bot.o
LOAD ./STM32_USB_HOST_Library/Class/MSC/src/usbh_msc_core.o
LOAD ./STM32_USB_HOST_Library/Class/MSC/src/usbh_msc_fatfs.o
LOAD ./STM32_USB_HOST_Library/Class/MSC/src/usbh_msc_scsi.o
LOAD ./STM32F4xx_StdPeriph_Driver/src/misc.o
LOAD ./STM32F4xx_StdPeriph_Driver/src/stm32f4xx_adc.o
LOAD ./STM32F4xx_StdPeriph_Driver/src/stm32f4xx_dac.o
LOAD ./STM32F4xx_StdPeriph_Driver/src/stm32f4xx_dbgmcu.o
LOAD ./STM32F4xx_StdPeriph_Driver/src/stm32f4xx_dma.o
LOAD ./STM32F4xx_StdPeriph_Driver/src/stm32f4xx_exti.o
LOAD ./STM32F4xx_StdPeriph_Driver/src/stm32f4xx_flash.o
LOAD ./STM32F4xx_StdPeriph_Driver/src/stm32f4xx_fsmc.o
LOAD ./STM32F4xx_StdPeriph_Driver/src/stm32f4xx_gpio.o
LOAD ./STM32F4xx_StdPeriph_Driver/src/stm32f4xx_i2c.o
LOAD ./STM32F4xx_StdPeriph_Driver/src/stm32f4xx_iwdg.o
LOAD ./STM32F4xx_StdPeriph_Driver/src/stm32f4xx_pwr.o
LOAD ./STM32F4xx_StdPeriph_Driver/src/stm32f4xx_rcc.o
LOAD ./STM32F4xx_StdPeriph_Driver/src/stm32f4xx_rng.o
LOAD ./STM32F4xx_StdPeriph_Driver/src/stm32f4xx_rtc.o
LOAD ./STM32F4xx_StdPeriph_Driver/src/stm32f4xx_sdio.o
LOAD ./STM32F4xx_StdPeriph_Driver/src/stm32f4xx_spi.o
LOAD ./STM32F4xx_StdPeriph_Driver/src/stm32f4xx_syscfg.o
LOAD ./STM32F4xx_StdPeriph_Driver/src/stm32f4xx_tim.o
LOAD ./STM32F4xx_StdPeriph_Driver/src/stm32f4xx_usart.o
LOAD ./STM32F4xx_StdPeriph_Driver/src/stm32f4xx_wwdg.o
LOAD ./STM32F4-Discovery/stm32f4_discovery.o
LOAD ./STM32F4-Discovery/stm32f4_discovery_audio_codec.o
LOAD ./STM32F4-Discovery/stm32f4_discovery_lis302dl.o
LOAD ./Menue/CMenue.o
LOAD ./HelixMP3/real/bitstream.o
LOAD ./HelixMP3/real/buffers.o
LOAD ./HelixMP3/real/dct32.o
LOAD ./HelixMP3/real/dequant.o
LOAD ./HelixMP3/real/dqchan.o
LOAD ./HelixMP3/real/huffman.o
LOAD ./HelixMP3/real/hufftabs.o
LOAD ./HelixMP3/real/imdct.o
LOAD ./HelixMP3/real/polyphase.o
LOAD ./HelixMP3/real/scalfact.o
LOAD ./HelixMP3/real/stproc.o
LOAD ./HelixMP3/real/subband.o
LOAD ./HelixMP3/real/trigtabs.o
LOAD ./HelixMP3/mp3dec.o
LOAD ./HelixMP3/mp3tabs.o
LOAD ./GraphicLCD/CGraphicLCD.o
LOAD ./GraphicLCD/CT6963CDriver.o
LOAD ./GraphicLCD/CT6963GPIOInterface.o
LOAD ./GraphicLCD/SansSerif12.o
LOAD ./GraphicLCD/SansSerif26.o
LOAD ./FreeRTOS_EC/Source/AManagedTask.o
LOAD ./FreeRTOS_EC/Source/ASyncObject.o
LOAD ./FreeRTOS_EC/Source/ATimer.o
LOAD ./FreeRTOS_EC/Source/CBinarySemaphore.o
LOAD ./FreeRTOS_EC/Source/CCountingSemaphore.o
LOAD ./FreeRTOS_EC/Source/CFreeRTOS.o
LOAD ./FreeRTOS_EC/Source/CMessageTask.o
LOAD ./FreeRTOS_EC/Source/CMutex.o
LOAD ./FreeRTOS_EC/Source/CQueue.o
LOAD ./FreeRTOS_EC/Source/CRecursiveMutex.o
LOAD ./FreeRTOS_EC/Source/CTask.o
LOAD ./FreeRTOS/Source/portable/GCC/ARM_CM4F/port.o
LOAD ./FreeRTOS/Source/croutine.o
LOAD ./FreeRTOS/Source/list.o
LOAD ./FreeRTOS/Source/queue.o
LOAD ./FreeRTOS/Source/tasks.o
LOAD ./FreeRTOS/Source/timers.o
LOAD ./Audio_MP3/USB_MSC/CUSBMassStorage.o
LOAD ./Audio_MP3/USB_MSC/usb_bsp.o
LOAD ./Audio_MP3/USB_MSC/usbh_usr.o
LOAD ./Audio_MP3/FatFs/src/option/syscall.o
LOAD ./Audio_MP3/FatFs/src/ff.o
LOAD ./Audio_MP3/CFileHandler.o
LOAD ./Audio_MP3/fattime.o
LOAD ./CLedHeartBeatSTM32F4Disc.o
LOAD ./main.o
LOAD ./startup_stm32f4xx.o
LOAD ./stm32f4xx_it.o
LOAD ./syscalls.o
LOAD ./system_stm32f4xx.o
LOAD ./ustime.o
LOAD d:/elektronik/ides/eclipse/yagarto/bin/../lib/gcc/arm-none-eabi/4.6.2/../../../../arm-none-eabi/lib/thumb/v7m\libstdc++.a
LOAD d:/elektronik/ides/eclipse/yagarto/bin/../lib/gcc/arm-none-eabi/4.6.2/../../../../arm-none-eabi/lib/thumb/v7m\libm.a
START GROUP
LOAD d:/elektronik/ides/eclipse/yagarto/bin/../lib/gcc/arm-none-eabi/4.6.2/thumb/v7m\libgcc.a
LOAD d:/elektronik/ides/eclipse/yagarto/bin/../lib/gcc/arm-none-eabi/4.6.2/../../../../arm-none-eabi/lib/thumb/v7m\libg.a
LOAD d:/elektronik/ides/eclipse/yagarto/bin/../lib/gcc/arm-none-eabi/4.6.2/../../../../arm-none-eabi/lib/thumb/v7m\libc.a
END GROUP
LOAD d:/elektronik/ides/eclipse/yagarto/bin/../lib/gcc/arm-none-eabi/4.6.2/thumb/v7m/crtend.o
LOAD d:/elektronik/ides/eclipse/yagarto/bin/../lib/gcc/arm-none-eabi/4.6.2/thumb/v7m/crtn.o
                0x20020000                _estack = 0x20020000
                0x00000000                _Min_Heap_Size = 0x0
                0x00000400                _Min_Stack_Size = 0x400

.isr_vector     0x08000000      0x188
                0x08000000                . = ALIGN (0x4)
 *(.isr_vector)
 .isr_vector    0x08000000      0x188 ./startup_stm32f4xx.o
                0x08000000                g_pfnVectors
                0x08000188                . = ALIGN (0x4)

.text           0x08000188    0x34ec4
                0x08000188                . = ALIGN (0x4)
 *(.text)
 .text          0x08000188       0x54 d:/elektronik/ides/eclipse/yagarto/bin/../lib/gcc/arm-none-eabi/4.6.2/thumb/v7m/crtbegin.o
 .text          0x080001dc     0x1330 ./STM32_USB_OTG_Driver/src/usb_core.o
                0x080002c8                USB_OTG_WritePacket
                0x08000350                USB_OTG_ReadPacket
                0x080003b8                USB_OTG_SelectCore
                0x0800057c                USB_OTG_CoreInit
                0x0800077c                USB_OTG_EnableGlobalInt
                0x080007b8                USB_OTG_DisableGlobalInt
                0x080007f8                USB_OTG_FlushTxFifo
                0x08000878                USB_OTG_FlushRxFifo
                0x080008e4                USB_OTG_SetCurrentMode
                0x08000948                USB_OTG_GetMode
                0x08000968                USB_OTG_IsDeviceMode
                0x0800098c                USB_OTG_IsHostMode
                0x080009b0                USB_OTG_ReadCoreItr
                0x080009e0                USB_OTG_ReadOtgItr
                0x080009fc                USB_OTG_CoreInitHost
                0x08000b44                USB_OTG_IsEvenFrame
                0x08000b6c                USB_OTG_DriveVbus
                0x08000bec                USB_OTG_EnableHostInt
                0x08000c78                USB_OTG_InitFSLSPClkSel
                0x08000cb0                USB_OTG_ReadHPRT0
                0x08000cf0                USB_OTG_ReadHostAllChannels_intr
                0x08000d0c                USB_OTG_ResetPort
                0x08000d60                USB_OTG_HC_Init
                0x08001038                USB_OTG_HC_StartXfer
                0x08001348                USB_OTG_HC_Halt
                0x080013f4                USB_OTG_HC_DoPing
                0x0800147c                USB_OTG_StopHost
 .text          0x0800150c      0x200 ./STM32_USB_OTG_Driver/src/usb_hcd.o
                0x0800150c                HCD_Init
                0x080015b4                HCD_GetCurrentSpeed
                0x080015dc                HCD_ResetPort
                0x080015f8                HCD_IsDeviceConnected
                0x08001614                HCD_GetCurrentFrame
                0x08001638                HCD_GetURB_State
                0x0800165c                HCD_GetXferCnt
                0x08001680                HCD_GetHCState
                0x080016a4                HCD_HC_Init
                0x080016c8                HCD_SubmitRequest
 .text          0x0800170c     0x1490 ./STM32_USB_OTG_Driver/src/usb_hcd_int.o
                0x0800170c                USBH_OTG_ISR_Handler
 .text          0x08002b9c      0xb14 ./STM32_USB_HOST_Library/Core/src/usbh_core.o
                0x08002b9c                USBH_Connect
                0x08002bcc                USBH_Disconnect
                0x08002bfc                USBH_Init
                0x08002c78                USBH_DeInit
                0x08002cec                USBH_Process
                0x08002f80                USBH_ErrorHandle
                0x08003304                USBH_HandleControl
 .text          0x080036b0      0x2d4 ./STM32_USB_HOST_Library/Core/src/usbh_hcs.o
                0x080036b0                USBH_Open_Channel
                0x080037b8                USBH_Modify_Channel
                0x08003854                USBH_Alloc_Channel
                0x080038a0                USBH_Free_Channel
                0x080038ec                USBH_DeAllocate_AllChannel
 .text          0x08003984      0x598 ./STM32_USB_HOST_Library/Core/src/usbh_ioreq.o
                0x08003984                USBH_CtlReq
                0x08003a2c                USBH_CtlSendSetup
                0x08003aa8                USBH_CtlSendData
                0x08003b6c                USBH_CtlReceiveData
                0x08003be8                USBH_BulkSendData
                0x08003c90                USBH_BulkReceiveData
                0x08003d38                USBH_InterruptReceiveData
                0x08003e08                USBH_InterruptSendData
 .text          0x08003f1c      0x658 ./STM32_USB_HOST_Library/Core/src/usbh_stdreq.o
                0x08003f1c                USBH_Get_DevDesc
                0x08003f78                USBH_Get_CfgDesc
                0x08003fd8                USBH_Get_StringDesc
                0x08004034                USBH_GetDescriptor
                0x08004098                USBH_SetAddress
                0x080040ec                USBH_SetCfg
                0x0800413c                USBH_ClrFeature
 .text          0x08004574      0x7d0 ./STM32_USB_HOST_Library/Class/MSC/src/usbh_msc_bot.o
                0x08004574                USBH_MSC_Init
                0x080045ec                USBH_MSC_HandleBOTXfer
                0x08004bd0                USBH_MSC_BOT_Abort
                0x08004c70                USBH_MSC_DecodeCSW
 .text          0x08004d44      0x658 ./STM32_USB_HOST_Library/Class/MSC/src/usbh_msc_core.o
                0x08005318                USBH_MSC_ErrorHandle
 .text          0x0800539c      0x2c4 ./STM32_USB_HOST_Library/Class/MSC/src/usbh_msc_fatfs.o
                0x0800539c                disk_initialize
                0x080053ec                disk_status
                0x0800541c                disk_read
                0x080054d8                disk_write
                0x080055b0                disk_ioctl
 .text          0x08005660      0xabc ./STM32_USB_HOST_Library/Class/MSC/src/usbh_msc_scsi.o
                0x08005660                USBH_MSC_TestUnitReady
                0x080057dc                USBH_MSC_ReadCapacity10
                0x080059b8                USBH_MSC_ModeSense6
                0x08005b70                USBH_MSC_RequestSense
                0x08005d54                USBH_MSC_Write10
                0x08005f18                USBH_MSC_Read10
 .text          0x0800611c      0x1dc ./STM32F4xx_StdPeriph_Driver/src/misc.o
                0x0800611c                NVIC_PriorityGroupConfig
                0x08006144                NVIC_Init
                0x08006228                NVIC_SetVectorTable
                0x08006254                NVIC_SystemLPConfig
                0x080062ac                SysTick_CLKSourceConfig
 .text          0x080062f8      0x530 ./STM32F4xx_StdPeriph_Driver/src/stm32f4xx_dac.o
                0x080062f8                DAC_DeInit
                0x08006318                DAC_Init
                0x0800638c                DAC_StructInit
                0x080063c0                DAC_Cmd
                0x08006428                DAC_SoftwareTriggerCmd
                0x08006498                DAC_DualSoftwareTriggerCmd
                0x080064e4                DAC_WaveGenerationCmd
                0x08006548                DAC_SetChannel1Data
                0x08006580                DAC_SetChannel2Data
                0x080065b8                DAC_SetDualChannelData
                0x0800661c                DAC_GetDataOutputValue
                0x08006658                DAC_DMACmd
                0x080066c0                DAC_ITConfig
                0x08006724                DAC_GetFlagStatus
                0x0800676c                DAC_ClearFlag
                0x08006794                DAC_GetITStatus
                0x08006800                DAC_ClearITPendingBit
 .text          0x08006828      0x820 ./STM32F4xx_StdPeriph_Driver/src/stm32f4xx_dma.o
                0x08006828                DMA_DeInit
                0x08006a6c                DMA_Init
                0x08006b1c                DMA_StructInit
                0x08006ba8                DMA_Cmd
                0x08006be0                DMA_PeriphIncOffsetSizeConfig
                0x08006c14                DMA_FlowControllerConfig
                0x08006c48                DMA_SetCurrDataCounter
                0x08006c64                DMA_GetCurrDataCounter
                0x08006c80                DMA_DoubleBufferModeConfig
                0x08006cbc                DMA_DoubleBufferModeCmd
                0x08006cf4                DMA_MemoryTargetConfig
                0x08006d20                DMA_GetCurrentMemoryTarget
                0x08006d58                DMA_GetCmdStatus
                0x08006d90                DMA_GetFIFOStatus
                0x08006db8                DMA_GetFlagStatus
                0x08006e40                DMA_ClearFlag
                0x08006ea4                DMA_ITConfig
                0x08006f1c                DMA_GetITStatus
                0x08006fe4                DMA_ClearITPendingBit
 .text          0x08007048      0x2d4 ./STM32F4xx_StdPeriph_Driver/src/stm32f4xx_exti.o
                0x08007048                EXTI_DeInit
                0x0800709c                EXTI_Init
                0x080071e0                EXTI_StructInit
                0x08007214                EXTI_GenerateSWInterrupt
                0x08007240                EXTI_GetFlagStatus
                0x08007280                EXTI_ClearFlag
                0x080072a0                EXTI_GetITStatus
                0x080072fc                EXTI_ClearITPendingBit
 .text          0x0800731c      0x550 ./STM32F4xx_StdPeriph_Driver/src/stm32f4xx_gpio.o
                0x0800731c                GPIO_DeInit
                0x08007494                GPIO_Init
                0x080075e8                GPIO_StructInit
                0x08007624                GPIO_PinLockConfig
                0x08007668                GPIO_ReadInputDataBit
                0x080076a4                GPIO_ReadInputData
                0x080076c0                GPIO_ReadOutputDataBit
                0x080076fc                GPIO_ReadOutputData
                0x08007718                GPIO_SetBits
                0x08007734                GPIO_ResetBits
                0x08007750                GPIO_WriteBit
                0x08007780                GPIO_Write
                0x0800779c                GPIO_ToggleBits
                0x080077c0                GPIO_PinAFConfig
 .text          0x0800786c      0xa10 ./STM32F4xx_StdPeriph_Driver/src/stm32f4xx_i2c.o
                0x0800786c                I2C_DeInit
                0x080078f4                I2C_Init
                0x08007aa0                I2C_StructInit
                0x08007ae4                I2C_Cmd
                0x08007b24                I2C_GenerateSTART
                0x08007b64                I2C_GenerateSTOP
                0x08007ba4                I2C_Send7bitAddress
                0x08007be0                I2C_AcknowledgeConfig
                0x08007c20                I2C_OwnAddress2Config
                0x08007c64                I2C_DualAddressCmd
                0x08007ca4                I2C_GeneralCallCmd
                0x08007ce4                I2C_SoftwareResetCmd
                0x08007d2c                I2C_StretchClockCmd
                0x08007d6c                I2C_FastModeDutyCycleConfig
                0x08007dac                I2C_NACKPositionConfig
                0x08007dec                I2C_SMBusAlertConfig
                0x08007e2c                I2C_ARPCmd
                0x08007e6c                I2C_SendData
                0x08007e8c                I2C_ReceiveData
                0x08007ea8                I2C_TransmitPEC
                0x08007ee8                I2C_PECPositionConfig
                0x08007f28                I2C_CalculatePEC
                0x08007f68                I2C_GetPEC
                0x08007f8c                I2C_DMACmd
                0x08007fcc                I2C_DMALastTransferCmd
                0x0800800c                I2C_ReadRegister
                0x0800803c                I2C_ITConfig
                0x08008084                I2C_CheckEvent
                0x080080f4                I2C_GetLastEvent
                0x08008140                I2C_GetFlagStatus
                0x080081b8                I2C_ClearFlag
                0x080081e8                I2C_GetITStatus
                0x0800824c                I2C_ClearITPendingBit
 .text          0x0800827c      0xdd0 ./STM32F4xx_StdPeriph_Driver/src/stm32f4xx_rcc.o
                0x0800827c                RCC_DeInit
                0x08008300                RCC_HSEConfig
                0x08008330                RCC_WaitForHSEStartUp
                0x08008394                RCC_AdjustHSICalibrationValue
                0x080083dc                RCC_HSICmd
                0x080083fc                RCC_LSEConfig
                0x0800845c                RCC_LSICmd
                0x0800847c                RCC_PLLConfig
                0x080084c4                RCC_PLLCmd
                0x080084e4                RCC_PLLI2SConfig
                0x08008514                RCC_PLLI2SCmd
                0x08008534                RCC_ClockSecuritySystemCmd
                0x08008554                RCC_MCO1Config
                0x0800859c                RCC_MCO2Config
                0x080085e4                RCC_SYSCLKConfig
                0x08008624                RCC_GetSYSCLKSource
                0x08008644                RCC_HCLKConfig
                0x08008684                RCC_PCLK1Config
                0x080086c4                RCC_PCLK2Config
                0x08008708                RCC_GetClocksFreq
                0x080088d8                RCC_RTCCLKConfig
                0x08008950                RCC_RTCCLKCmd
                0x08008970                RCC_BackupResetCmd
                0x08008990                RCC_I2SCLKConfig
                0x080089b0                RCC_AHB1PeriphClockCmd
                0x08008a08                RCC_AHB2PeriphClockCmd
                0x08008a60                RCC_AHB3PeriphClockCmd
                0x08008ab8                RCC_APB1PeriphClockCmd
                0x08008b10                RCC_APB2PeriphClockCmd
                0x08008b68                RCC_AHB1PeriphResetCmd
                0x08008bc0                RCC_AHB2PeriphResetCmd
                0x08008c18                RCC_AHB3PeriphResetCmd
                0x08008c70                RCC_APB1PeriphResetCmd
                0x08008cc8                RCC_APB2PeriphResetCmd
                0x08008d20                RCC_AHB1PeriphClockLPModeCmd
                0x08008d78                RCC_AHB2PeriphClockLPModeCmd
                0x08008dd0                RCC_AHB3PeriphClockLPModeCmd
                0x08008e28                RCC_APB1PeriphClockLPModeCmd
                0x08008e80                RCC_APB2PeriphClockLPModeCmd
                0x08008ed8                RCC_ITConfig
                0x08008f38                RCC_GetFlagStatus
                0x08008fc8                RCC_ClearFlag
                0x08008fec                RCC_GetITStatus
                0x0800902c                RCC_ClearITPendingBit
 .text          0x0800904c      0x8e8 ./STM32F4xx_StdPeriph_Driver/src/stm32f4xx_spi.o
                0x0800904c                SPI_I2S_DeInit
                0x080090d4                SPI_Init
                0x0800915c                I2S_Init
                0x08009370                SPI_StructInit
                0x080093cc                I2S_StructInit
                0x08009410                SPI_Cmd
                0x08009450                I2S_Cmd
                0x08009490                SPI_DataSizeConfig
                0x080094c8                SPI_BiDirectionalLineConfig
                0x08009508                SPI_NSSInternalSoftwareConfig
                0x0800954c                SPI_SSOutputCmd
                0x0800958c                SPI_TIModeCmd
                0x080095cc                I2S_FullDuplexConfig
                0x08009670                SPI_I2S_ReceiveData
                0x0800968c                SPI_I2S_SendData
                0x080096a8                SPI_CalculateCRC
                0x080096e8                SPI_TransmitCRC
                0x0800970c                SPI_GetCRC
                0x08009740                SPI_GetCRCPolynomial
                0x0800975c                SPI_I2S_DMACmd
                0x080097a4                SPI_I2S_ITConfig
                0x08009810                SPI_I2S_GetFlagStatus
                0x08009850                SPI_I2S_ClearFlag
                0x08009874                SPI_I2S_GetITStatus
                0x080098fc                SPI_I2S_ClearITPendingBit
 .text          0x08009934      0x170 ./STM32F4xx_StdPeriph_Driver/src/stm32f4xx_syscfg.o
                0x08009934                SYSCFG_DeInit
                0x08009954                SYSCFG_MemoryRemapConfig
                0x08009974                SYSCFG_EXTILineConfig
                0x08009a28                SYSCFG_ETH_MediaInterfaceConfig
                0x08009a48                SYSCFG_CompensationCellCmd
                0x08009a68                SYSCFG_GetCompensationCellStatus
 .text          0x08009aa4      0x244 ./STM32F4-Discovery/stm32f4_discovery.o
                0x08009aa4                STM_EVAL_LEDInit
                0x08009b10                STM_EVAL_LEDOn
                0x08009b44                STM_EVAL_LEDOff
                0x08009b78                STM_EVAL_LEDToggle
                0x08009bc0                STM_EVAL_PBInit
                0x08009cac                STM_EVAL_PBGetState
 .text          0x08009ce8     0x17bc ./STM32F4-Discovery/stm32f4_discovery_audio_codec.o
                0x08009d38                EVAL_AUDIO_SetAudioInterface
                0x08009ea8                EVAL_AUDIO_Init
                0x08009f10                EVAL_AUDIO_DeInit
                0x08009f24                EVAL_AUDIO_Play
                0x08009fb8                EVAL_AUDIO_PauseResume
                0x08009fec                EVAL_AUDIO_Stop
                0x0800a02c                EVAL_AUDIO_VolumeCtl
                0x0800a078                EVAL_AUDIO_Mute
                0x0800a214                DMA1_Stream7_IRQHandler
                0x0800a220                DMA1_Stream0_IRQHandler
                0x0800a22c                SPI3_IRQHandler
                0x0800b004                Codec_TIMEOUT_UserCallback
                0x0800b25c                Audio_MAL_Play
                0x0800b42c                DAC_Config
 .text          0x0800b4a4      0x29c ./Menue/CMenue.o
                0x0800b4a4                CMenue::CMenue(CGraphicLCD*)
                0x0800b4a4                CMenue::CMenue(CGraphicLCD*)
                0x0800b4d4                CMenue::~CMenue()
                0x0800b4d4                CMenue::~CMenue()
                0x0800b50c                CMenue::~CMenue()
                0x0800b52c                CMenue::HardwareInit()
                0x0800b544                CMenue::Run()
 .text          0x0800b740      0x970 ./HelixMP3/real/bitstream.o
                0x0800b740                xmp3_SetBitstreamPointer
                0x0800b884                xmp3_GetBits
                0x0800b920                xmp3_CalcBitsUsed
                0x0800b95c                xmp3_CheckPadBit
                0x0800b998                xmp3_UnpackFrameHeader
                0x0800bd04                xmp3_UnpackSideInfo
 .text          0x0800c0b0      0x16c ./HelixMP3/real/buffers.o
                0x0800c0b0                ClearBuffer
                0x0800c0ec                xmp3_AllocateBuffers
                0x0800c208                xmp3_FreeBuffers
 .text          0x0800c21c     0x10dc ./HelixMP3/real/dct32.o
                0x0800c240                xmp3_FDCT32
 .text          0x0800d2f8      0x430 ./HelixMP3/real/dequant.o
                0x0800d318                xmp3_Dequantize
 .text          0x0800d728      0x6e4 ./HelixMP3/real/dqchan.o
                0x0800da30                xmp3_DequantChannel
 .text          0x0800de0c      0xc88 ./HelixMP3/real/huffman.o
                0x0800e760                xmp3_DecodeHuffman
 .text          0x0800ea94     0x1ff8 ./HelixMP3/real/imdct.o
                0x0801074c                xmp3_IMDCT
 .text          0x08010a8c     0x1950 ./HelixMP3/real/polyphase.o
                0x08010b5c                xmp3_PolyphaseMono
                0x0801144c                xmp3_PolyphaseStereo
 .text          0x080123dc      0xafc ./HelixMP3/real/scalfact.o
                0x08012ce0                xmp3_UnpackScaleFactors
 .text          0x08012ed8      0xb70 ./HelixMP3/real/stproc.o
                0x08012f2c                xmp3_MidSideProc
                0x08012fec                xmp3_IntensityProcMPEG1
                0x080134cc                xmp3_IntensityProcMPEG2
 .text          0x08013a48      0x1cc ./HelixMP3/real/subband.o
                0x08013a48                xmp3_Subband
 .text          0x08013c14      0x768 ./HelixMP3/mp3dec.o
                0x08013c14                MP3InitDecoder
                0x08013c30                MP3FreeDecoder
                0x08013c54                MP3FindSyncWord
                0x08013d70                MP3GetLastFrameInfo
                0x08013e48                MP3GetNextFrameInfo
                0x08013efc                MP3Decode
 .text          0x0801437c       0xdc ./GraphicLCD/CGraphicLCD.o
                0x0801437c                CGraphicLCD::CGraphicLCD()
                0x0801437c                CGraphicLCD::CGraphicLCD()
                0x080143a4                CGraphicLCD::CGraphicLCD(bool)
                0x080143a4                CGraphicLCD::CGraphicLCD(bool)
                0x080143d0                CGraphicLCD::~CGraphicLCD()
                0x080143d0                CGraphicLCD::~CGraphicLCD()
                0x08014404                CGraphicLCD::~CGraphicLCD()
                0x08014424                CGraphicLCD::Inverse()
                0x0801443c                CGraphicLCD::Inverse(bool)
 .text          0x08014458      0xe5c ./GraphicLCD/CT6963CDriver.o
                0x08014458                CT6963CDriver::CT6963CDriver()
                0x08014458                CT6963CDriver::CT6963CDriver()
                0x08014480                CT6963CDriver::~CT6963CDriver()
                0x08014480                CT6963CDriver::~CT6963CDriver()
                0x080144b8                CT6963CDriver::~CT6963CDriver()
                0x080144d8                CT6963CDriver::Init()
                0x08014638                CT6963CDriver::SetAddressPointer(unsigned int)
                0x08014690                CT6963CDriver::TextGoTo(unsigned char, unsigned char)
                0x080146c4                CT6963CDriver::GraphicGoTo(unsigned char, unsigned char)
                0x08014704                CT6963CDriver::Clear()
                0x080147a0                CT6963CDriver::WriteDisplayData(unsigned char)
                0x080147d8                CT6963CDriver::WriteChar(char)
                0x080147fc                CT6963CDriver::WriteString(char const*, tFont const&, unsigned int, unsigned int)
                0x08014998                CT6963CDriver::SetPixel(unsigned char, unsigned char)
                0x08014a20                CT6963CDriver::Line(unsigned int, unsigned int, unsigned int, unsigned int)
                0x08014b70                CT6963CDriver::Window(unsigned int, unsigned int, unsigned int, unsigned int)
                0x08014eb8                CT6963CDriver::Rectangle(unsigned int, unsigned int, unsigned int, unsigned int, bool)
                0x08014ffc                CT6963CDriver::SectorClear(unsigned int, unsigned int, unsigned int, unsigned int)
                0x0801505c                CT6963CDriver::Circle(unsigned char, unsigned char, unsigned char)
                0x080151e0                CT6963CDriver::Bitmap(unsigned char*, unsigned char, unsigned char, unsigned char, unsigned char)
 .text          0x080152b4      0x490 ./GraphicLCD/CT6963GPIOInterface.o
                0x080152b4                CT6963_GPIO_Interface::CT6963_GPIO_Interface()
                0x080152b4                CT6963_GPIO_Interface::CT6963_GPIO_Interface()
                0x080152dc                CT6963_GPIO_Interface::~CT6963_GPIO_Interface()
                0x080152dc                CT6963_GPIO_Interface::~CT6963_GPIO_Interface()
                0x08015314                CT6963_GPIO_Interface::~CT6963_GPIO_Interface()
                0x08015334                CheckStatus()
                0x080153f0                CT6963_GPIO_Interface::HardwareInit()
                0x080154b0                CT6963_GPIO_Interface::Reset()
                0x080154e8                CT6963_GPIO_Interface::WriteCommand(unsigned char)
                0x08015594                CT6963_GPIO_Interface::WriteData(unsigned char)
                0x08015660                CT6963_GPIO_Interface::ReadData()
 .text          0x08015744      0x250 ./FreeRTOS_EC/Source/AManagedTask.o
                0x08015744                AManagedTask::AManagedTask()
                0x08015744                AManagedTask::AManagedTask()
                0x0801577c                AManagedTask::~AManagedTask()
                0x0801577c                AManagedTask::~AManagedTask()
                0x080157bc                AManagedTask::~AManagedTask()
                0x080157dc                AManagedTask::Create(char const*, unsigned short, unsigned long)
                0x08015840                AManagedTask::taskControlFunc(void*)
                0x08015860                AManagedTask::AddToManagedTask(AManagedTask*)
                0x080158b0                AManagedTask::RemoveFromManagedTask(AManagedTask*)
                0x08015938                AManagedTask::InitHardwareForManagedTasks()
 .text          0x08015994       0x40 ./FreeRTOS_EC/Source/CFreeRTOS.o
                0x08015994                CFreeRTOS::CFreeRTOS()
                0x08015994                CFreeRTOS::CFreeRTOS()
                0x080159ac                CFreeRTOS::~CFreeRTOS()
                0x080159ac                CFreeRTOS::~CFreeRTOS()
                0x080159c4                CFreeRTOS::InitHardwareForManagedTasks()
 .text          0x080159d4      0x1c0 ./FreeRTOS_EC/Source/CTask.o
                0x080159d4                CTask::CTask()
                0x080159d4                CTask::CTask()
                0x08015a04                CTask::CTask(void*)
                0x08015a04                CTask::CTask(void*)
                0x08015a34                CTask::~CTask()
                0x08015a34                CTask::~CTask()
                0x08015a78                CTask::~CTask()
                0x08015a98                CTask::Attach(void*)
                0x08015aec                CTask::Create(void (*)(void*), char const*, unsigned short, void*, unsigned long)
                0x08015b48                CTask::CreateRestricted(xTASK_PARAMTERS*)
                0x08015b68                CTask::Delete()
 .text          0x08015b94      0x248 ./FreeRTOS/Source/portable/GCC/ARM_CM4F/port.o
                0x08015b94                pxPortInitialiseStack
                0x08015bfc                SVC_Handler
                0x08015c1c                vPortStartFirstTask
                0x08015c2c                xPortStartScheduler
                0x08015c80                vPortEndScheduler
                0x08015c8c                vPortYieldFromISR
                0x08015ca4                vPortEnterCritical
                0x08015cd0                vPortExitCritical
                0x08015d08                PendSV_Handler
                0x08015d60                SysTick_Handler
 .text          0x08015ddc      0x17c ./FreeRTOS/Source/list.o
                0x08015ddc                vListInitialise
                0x08015e1c                vListInitialiseItem
                0x08015e38                vListInsertEnd
                0x08015e8c                vListInsert
                0x08015f04                vListRemove
 .text          0x08015f58      0x7fc ./FreeRTOS/Source/queue.o
                0x08015f58                xQueueCreate
                0x08016028                xQueueCreateMutex
                0x080160c0                xQueueGenericSend
                0x080161e4                xQueueGenericSendFromISR
                0x08016274                xQueueGenericReceive
                0x080163fc                xQueueReceiveFromISR
                0x08016490                uxQueueMessagesWaiting
                0x080164b4                uxQueueMessagesWaitingFromISR
                0x080164d0                vQueueDelete
                0x080166d4                xQueueIsQueueEmptyFromISR
                0x08016728                xQueueIsQueueFullFromISR
 .text          0x08016754     0x17c0 ./FreeRTOS/Source/tasks.o
                0x08016754                xTaskGenericCreate
                0x08016900                vTaskDelete
                0x080169c0                vTaskDelayUntil
                0x08016a74                vTaskDelay
                0x08016ad0                uxTaskPriorityGet
                0x08016b08                vTaskPrioritySet
                0x08016c34                vTaskSuspend
                0x08016cf4                xTaskIsTaskSuspended
                0x08016d44                vTaskResume
                0x08016df0                xTaskResumeFromISR
                0x08016eb0                vTaskStartScheduler
                0x08016f2c                vTaskEndScheduler
                0x08016f4c                vTaskSuspendAll
                0x08016f70                xTaskResumeAll
                0x080170c4                xTaskGetTickCount
                0x080170ec                xTaskGetTickCountFromISR
                0x08017124                uxTaskGetNumberOfTasks
                0x0801713c                vTaskGetRunTimeStats
                0x0801729c                xTaskGetIdleTaskHandle
                0x080172b4                vTaskIncrementTick
                0x0801746c                vTaskSetApplicationTaskTag
                0x080174a4                xTaskGetApplicationTaskTag
                0x080174e0                xTaskCallApplicationTaskHook
                0x0801752c                vTaskSwitchContext
                0x0801766c                vTaskPlaceOnEventList
                0x080176e4                xTaskRemoveFromEventList
                0x080177a8                vTaskSetTimeOutState
                0x080177d8                xTaskCheckForTimeOut
                0x0801787c                vTaskMissedYield
                0x08017d30                uxTaskGetStackHighWaterMark
                0x08017d8c                xTaskGetCurrentTaskHandle
                0x08017dac                vTaskPriorityInherit
                0x08017e84                vTaskPriorityDisinherit
 .text          0x08017f14      0x184 ./Audio_MP3/USB_MSC/CUSBMassStorage.o
                0x08017f14                CUSB_MassStorage::CUSB_MassStorage()
                0x08017f14                CUSB_MassStorage::CUSB_MassStorage()
                0x08017f3c                CUSB_MassStorage::~CUSB_MassStorage()
                0x08017f3c                CUSB_MassStorage::~CUSB_MassStorage()
                0x08017f74                CUSB_MassStorage::~CUSB_MassStorage()
                0x08017f94                CUSB_MassStorage::HardwareInit()
                0x08017fd4                CUSB_MassStorage::Run()
                0x08017ff4                CUSB_MassStorage::IsDeviceConnected()
                0x08018020                CUSB_MassStorage::DeviceMounted()
 .text          0x08018098      0x254 ./Audio_MP3/USB_MSC/usb_bsp.o
                0x08018098                BSP_Init
                0x080180ac                USB_OTG_BSP_Init
                0x0801818c                USB_OTG_BSP_EnableInterrupt
                0x080181c8                USB_OTG_BSP_DriveVBUS
                0x08018204                USB_OTG_BSP_ConfigVBUS
                0x08018268                USB_OTG_BSP_uDelay
                0x080182c0                USB_OTG_BSP_mDelay
                0x080182e0                USB_OTG_BSP_TimerIRQ
 .text          0x080182ec      0x254 ./Audio_MP3/USB_MSC/usbh_usr.o
                0x080182ec                USBH_USR_Init
                0x080183b0                USBH_USR_DeviceAttached
                0x080183bc                USBH_USR_UnrecoveredError
                0x080183c8                USBH_USR_DeviceDisconnected
                0x080183ec                USBH_USR_ResetDevice
                0x080183f8                USBH_USR_DeviceSpeedDetected
                0x0801840c                USBH_USR_Device_DescAvailable
                0x08018420                USBH_USR_DeviceAddressAssigned
                0x0801842c                USBH_USR_Configuration_DescAvailable
                0x08018444                USBH_USR_Manufacturer_String
                0x08018458                USBH_USR_Product_String
                0x0801846c                USBH_USR_SerialNum_String
                0x08018480                USBH_USR_EnumerationDone
                0x080184c4                USBH_USR_DeviceNotSupported
                0x080184d0                USBH_USR_UserInput
                0x080184e0                USBH_USR_OverCurrentDetected
                0x080184ec                USBH_USR_MSC_Application
                0x08018534                USBH_USR_DeInit
 .text          0x08018540     0x44a0 ./Audio_MP3/FatFs/src/ff.o
                0x08019f9c                f_mount
                0x0801a000                f_open
                0x0801a364                f_read
                0x0801a678                f_write
                0x0801a9ec                f_sync
                0x0801abac                f_close
                0x0801abd8                f_chdrive
                0x0801ac0c                f_chdir
                0x0801ace8                f_lseek
                0x0801aff4                f_opendir
                0x0801b0d0                f_readdir
                0x0801b16c                f_stat
                0x0801b1e4                f_getfree
                0x0801b3b0                f_truncate
                0x0801b4d8                f_unlink
                0x0801b690                f_mkdir
                0x0801ba24                f_chmod
                0x0801bb00                f_utime
                0x0801bbec                f_rename
                0x0801be54                f_mkfs
 .text          0x0801c9e0      0x660 ./Audio_MP3/CFileHandler.o
                0x0801c9e0                CFileHandler::CFileHandler()
                0x0801c9e0                CFileHandler::CFileHandler()
                0x0801ca44                CFileHandler::~CFileHandler()
                0x0801ca44                CFileHandler::~CFileHandler()
                0x0801ca7c                CFileHandler::~CFileHandler()
                0x0801ca9c                CFileHandler::HardwareInit()
                0x0801cac0                CFileHandler::Run()
                0x0801cb54                CFileHandler::RefillBuffer()
                0x0801cc28                CFileHandler::PlayMP3(char const*)
                0x0801cff0                EVAL_AUDIO_TransferComplete_CallBack
                0x0801d030                EVAL_AUDIO_GetSampleCallBack
 .text          0x0801d040       0x10 ./Audio_MP3/fattime.o
                0x0801d040                get_fattime
 .text          0x0801d050      0x1b0 ./CLedHeartBeatSTM32F4Disc.o
                0x0801d050                CLedHeartBeatSTM32F4Disc::CLedHeartBeatSTM32F4Disc(unsigned long)
                0x0801d050                CLedHeartBeatSTM32F4Disc::CLedHeartBeatSTM32F4Disc(unsigned long)
                0x0801d088                CLedHeartBeatSTM32F4Disc::~CLedHeartBeatSTM32F4Disc()
                0x0801d088                CLedHeartBeatSTM32F4Disc::~CLedHeartBeatSTM32F4Disc()
                0x0801d0c0                CLedHeartBeatSTM32F4Disc::~CLedHeartBeatSTM32F4Disc()
                0x0801d0e0                CLedHeartBeatSTM32F4Disc::HardwareInit()
                0x0801d118                CLedHeartBeatSTM32F4Disc::Run()
 .text          0x0801d200      0x1b0 ./main.o
                0x0801d200                main
                0x0801d26c                vApplicationTickHook
                0x0801d278                vApplicationIdleHook
                0x0801d284                vApplicationMallocFailedHook
                0x0801d290                vApplicationStackOverflowHook
 .text          0x0801d3b0       0x80 ./stm32f4xx_it.o
                0x0801d3b0                NMI_Handler
                0x0801d3bc                HardFault_Handler
                0x0801d3c4                MemManage_Handler
                0x0801d3cc                BusFault_Handler
                0x0801d3d4                UsageFault_Handler
                0x0801d3dc                DebugMon_Handler
                0x0801d3e8                EXTI1_IRQHandler
                0x0801d404                EXTI0_IRQHandler
                0x0801d41c                OTG_FS_IRQHandler
 .text          0x0801d430      0x1f0 ./syscalls.o
                0x0801d430                _exit
                0x0801d43c                _read_r
                0x0801d45c                _write_r
                0x0801d47c                _lseek_r
                0x0801d4a4                _close_r
                0x0801d4c8                _fstat_r
                0x0801d508                _isatty_r
                0x0801d524                _sbrk_r
                0x0801d5b4                _kill_r
                0x0801d5d8                _getpid_r
                0x0801d5f8                __malloc_lock
                0x0801d60c                __malloc_unlock
 .text          0x0801d620      0x3e8 ./system_stm32f4xx.o
                0x0801d620                SystemInit
                0x0801d6b4                SystemCoreClockUpdate
 .text          0x0801da08      0x178 ./ustime.o
                0x0801da08                get_us_time
                0x0801da94                delay_us
                0x0801daf0                delay_ms
                0x0801db10                init_us_timer
 .text          0x0801db80     0x58f8 d:/elektronik/ides/eclipse/yagarto/bin/../lib/gcc/arm-none-eabi/4.6.2/../../../../arm-none-eabi/lib/thumb/v7m\libstdc++.a(cp-demangle.o)
                0x08023348                __cxa_demangle
                0x0802342c                __gcclibcxx_demangle_callback
 .text          0x08023478      0xa10 d:/elektronik/ides/eclipse/yagarto/bin/../lib/gcc/arm-none-eabi/4.6.2/thumb/v7m\libgcc.a(unwind-arm.o)
                0x08023734                _Unwind_VRS_Get
                0x08023780                _Unwind_VRS_Set
                0x08023a94                __aeabi_unwind_cpp_pr2
                0x08023a98                __aeabi_unwind_cpp_pr1
                0x08023a9c                __aeabi_unwind_cpp_pr0
                0x08023aa0                _Unwind_VRS_Pop
                0x08023d30                _Unwind_GetCFA
                0x08023d34                __gnu_Unwind_RaiseException
                0x08023d94                __gnu_Unwind_ForcedUnwind
                0x08023da8                __gnu_Unwind_Resume
                0x08023de4                __gnu_Unwind_Resume_or_Rethrow
                0x08023df4                _Unwind_Complete
                0x08023df8                _Unwind_DeleteException
                0x08023e08                __gnu_Unwind_Backtrace
 .text          0x08023e88      0x1ac d:/elektronik/ides/eclipse/yagarto/bin/../lib/gcc/arm-none-eabi/4.6.2/thumb/v7m\libgcc.a(libunwind.o)
                0x08023e88                __restore_core_regs
                0x08023e88                restore_core_regs
                0x08023ea0                __gnu_Unwind_Restore_VFP
                0x08023ea8                __gnu_Unwind_Save_VFP
                0x08023eb0                __gnu_Unwind_Restore_VFP_D
                0x08023eb8                __gnu_Unwind_Save_VFP_D
                0x08023ec0                __gnu_Unwind_Restore_VFP_D_16_to_31
                0x08023ec8                __gnu_Unwind_Save_VFP_D_16_to_31
                0x08023ed0                __gnu_Unwind_Restore_WMMXD
                0x08023f14                __gnu_Unwind_Save_WMMXD
                0x08023f58                __gnu_Unwind_Restore_WMMXC
                0x08023f6c                __gnu_Unwind_Save_WMMXC
                0x08023f80                ___Unwind_RaiseException
                0x08023f80                _Unwind_RaiseException
                0x08023fa4                _Unwind_Resume
                0x08023fa4                ___Unwind_Resume
                0x08023fc8                _Unwind_Resume_or_Rethrow
                0x08023fc8                ___Unwind_Resume_or_Rethrow
                0x08023fec                _Unwind_ForcedUnwind
                0x08023fec                ___Unwind_ForcedUnwind
                0x08024010                ___Unwind_Backtrace
                0x08024010                _Unwind_Backtrace
 .text          0x08024034      0x3d4 d:/elektronik/ides/eclipse/yagarto/bin/../lib/gcc/arm-none-eabi/4.6.2/thumb/v7m\libgcc.a(pr-support.o)
                0x08024088                __gnu_unwind_execute
                0x080243ac                __gnu_unwind_frame
                0x080243d8                _Unwind_GetRegionStart
                0x080243e4                _Unwind_GetLanguageSpecificData
                0x080243f8                _Unwind_GetDataRelBase
                0x08024400                _Unwind_GetTextRelBase
 .text          0x08024408       0x10 d:/elektronik/ides/eclipse/yagarto/bin/../lib/gcc/arm-none-eabi/4.6.2/../../../../arm-none-eabi/lib/thumb/v7m\libg.a(lib_a-abort.o)
                0x08024408                abort
 .text          0x08024418       0x48 d:/elektronik/ides/eclipse/yagarto/bin/../lib/gcc/arm-none-eabi/4.6.2/../../../../arm-none-eabi/lib/thumb/v7m\libg.a(lib_a-assert.o)
                0x08024418                __assert_func
                0x08024454                __assert
 .text          0x08024460       0x14 d:/elektronik/ides/eclipse/yagarto/bin/../lib/gcc/arm-none-eabi/4.6.2/../../../../arm-none-eabi/lib/thumb/v7m\libg.a(lib_a-cxa_atexit.o)
                0x08024460                __cxa_atexit
 .text          0x08024474       0x4c d:/elektronik/ides/eclipse/yagarto/bin/../lib/gcc/arm-none-eabi/4.6.2/../../../../arm-none-eabi/lib/thumb/v7m\libg.a(lib_a-fiprintf.o)
                0x08024474                _fiprintf_r
                0x08024494                fiprintf
 .text          0x080244c0       0x4c d:/elektronik/ides/eclipse/yagarto/bin/../lib/gcc/arm-none-eabi/4.6.2/../../../../arm-none-eabi/lib/thumb/v7m\libg.a(lib_a-fputc.o)
                0x080244c0                _fputc_r
                0x080244e4                fputc
 .text          0x0802450c       0x60 d:/elektronik/ides/eclipse/yagarto/bin/../lib/gcc/arm-none-eabi/4.6.2/../../../../arm-none-eabi/lib/thumb/v7m\libg.a(lib_a-fputs.o)
                0x0802450c                _fputs_r
                0x0802455c                fputs
 .text          0x0802456c      0x334 d:/elektronik/ides/eclipse/yagarto/bin/../lib/gcc/arm-none-eabi/4.6.2/../../../../arm-none-eabi/lib/thumb/v7m\libg.a(lib_a-fvwrite.o)
                0x0802456c                __sfvwrite_r
 .text          0x080248a0       0x94 d:/elektronik/ides/eclipse/yagarto/bin/../lib/gcc/arm-none-eabi/4.6.2/../../../../arm-none-eabi/lib/thumb/v7m\libg.a(lib_a-fwrite.o)
                0x080248a0                _fwrite_r
                0x0802490c                fwrite
 .text          0x08024934       0x48 d:/elektronik/ides/eclipse/yagarto/bin/../lib/gcc/arm-none-eabi/4.6.2/../../../../arm-none-eabi/lib/thumb/v7m\libg.a(lib_a-init.o)
                0x08024934                __libc_init_array
 .text          0x0802497c       0x20 d:/elektronik/ides/eclipse/yagarto/bin/../lib/gcc/arm-none-eabi/4.6.2/../../../../arm-none-eabi/lib/thumb/v7m\libg.a(lib_a-malloc.o)
                0x0802497c                malloc
                0x0802498c                free
 .text          0x0802499c      0x564 d:/elektronik/ides/eclipse/yagarto/bin/../lib/gcc/arm-none-eabi/4.6.2/../../../../arm-none-eabi/lib/thumb/v7m\libg.a(lib_a-mallocr.o)
                0x0802499c                _malloc_r
 .text          0x08024f00       0x88 d:/elektronik/ides/eclipse/yagarto/bin/../lib/gcc/arm-none-eabi/4.6.2/../../../../arm-none-eabi/lib/thumb/v7m\libg.a(lib_a-memchr.o)
                0x08024f00                memchr
 .text          0x08024f88       0x60 d:/elektronik/ides/eclipse/yagarto/bin/../lib/gcc/arm-none-eabi/4.6.2/../../../../arm-none-eabi/lib/thumb/v7m\libg.a(lib_a-memcmp.o)
                0x08024f88                memcmp
 .text          0x08024fe8       0x84 d:/elektronik/ides/eclipse/yagarto/bin/../lib/gcc/arm-none-eabi/4.6.2/../../../../arm-none-eabi/lib/thumb/v7m\libg.a(lib_a-memcpy.o)
                0x08024fe8                memcpy
 .text          0x0802506c       0xc8 d:/elektronik/ides/eclipse/yagarto/bin/../lib/gcc/arm-none-eabi/4.6.2/../../../../arm-none-eabi/lib/thumb/v7m\libg.a(lib_a-memmove.o)
                0x0802506c                memmove
 .text          0x08025134       0x94 d:/elektronik/ides/eclipse/yagarto/bin/../lib/gcc/arm-none-eabi/4.6.2/../../../../arm-none-eabi/lib/thumb/v7m\libg.a(lib_a-memset.o)
                0x08025134                memset
 .text          0x080251c8       0xc8 d:/elektronik/ides/eclipse/yagarto/bin/../lib/gcc/arm-none-eabi/4.6.2/../../../../arm-none-eabi/lib/thumb/v7m\libg.a(lib_a-putc.o)
                0x080251c8                _putc_r
                0x08025228                putc
 .text          0x08025290       0x14 d:/elektronik/ides/eclipse/yagarto/bin/../lib/gcc/arm-none-eabi/4.6.2/../../../../arm-none-eabi/lib/thumb/v7m\libg.a(lib_a-realloc.o)
                0x08025290                realloc
 .text          0x080252a4      0x410 d:/elektronik/ides/eclipse/yagarto/bin/../lib/gcc/arm-none-eabi/4.6.2/../../../../arm-none-eabi/lib/thumb/v7m\libg.a(lib_a-reallocr.o)
                0x080252a4                _realloc_r
 .text          0x080256b4      0x158 d:/elektronik/ides/eclipse/yagarto/bin/../lib/gcc/arm-none-eabi/4.6.2/../../../../arm-none-eabi/lib/thumb/v7m\libg.a(lib_a-signal.o)
                0x080256b4                _init_signal_r
                0x080256e8                _signal_r
                0x08025728                _raise_r
                0x08025780                __sigtramp_r
                0x080257d0                raise
                0x080257e0                signal
                0x080257f0                _init_signal
                0x080257fc                __sigtramp
 .text          0x0802580c       0x94 d:/elektronik/ides/eclipse/yagarto/bin/../lib/gcc/arm-none-eabi/4.6.2/../../../../arm-none-eabi/lib/thumb/v7m\libg.a(lib_a-sprintf.o)
                0x0802580c                _sprintf_r
                0x08025850                sprintf
 .text          0x080258a0       0x50 d:/elektronik/ides/eclipse/yagarto/bin/../lib/gcc/arm-none-eabi/4.6.2/../../../../arm-none-eabi/lib/thumb/v7m\libg.a(lib_a-strcat.o)
                0x080258a0                strcat
 .text          0x080258f0      0x1dc d:/elektronik/ides/eclipse/yagarto/bin/../lib/gcc/arm-none-eabi/4.6.2/../../../../arm-none-eabi/lib/thumb/v7m\libg.a(lib_a-strcmp.o)
                0x080258f0                strcmp
 .text          0x08025acc       0xbc d:/elektronik/ides/eclipse/yagarto/bin/../lib/gcc/arm-none-eabi/4.6.2/../../../../arm-none-eabi/lib/thumb/v7m\libg.a(lib_a-strcpy.o)
                0x08025acc                strcpy
 .text          0x08025b88       0x60 d:/elektronik/ides/eclipse/yagarto/bin/../lib/gcc/arm-none-eabi/4.6.2/../../../../arm-none-eabi/lib/thumb/v7m\libg.a(lib_a-strlen.o)
                0x08025b88                strlen
 .text          0x08025be8       0xa8 d:/elektronik/ides/eclipse/yagarto/bin/../lib/gcc/arm-none-eabi/4.6.2/../../../../arm-none-eabi/lib/thumb/v7m\libg.a(lib_a-strncmp.o)
                0x08025be8                strncmp
 .text          0x08025c90       0x70 d:/elektronik/ides/eclipse/yagarto/bin/../lib/gcc/arm-none-eabi/4.6.2/../../../../arm-none-eabi/lib/thumb/v7m\libg.a(lib_a-strncpy.o)
                0x08025c90                strncpy
 .text          0x08025d00     0x1314 d:/elektronik/ides/eclipse/yagarto/bin/../lib/gcc/arm-none-eabi/4.6.2/../../../../arm-none-eabi/lib/thumb/v7m\libg.a(lib_a-svfprintf.o)
                0x08025d00                _svfprintf_r
 .text          0x08027014       0x1c d:/elektronik/ides/eclipse/yagarto/bin/../lib/gcc/arm-none-eabi/4.6.2/../../../../arm-none-eabi/lib/thumb/v7m\libg.a(lib_a-syswrite.o)
                0x08027014                write
 .text          0x08027030      0xb54 d:/elektronik/ides/eclipse/yagarto/bin/../lib/gcc/arm-none-eabi/4.6.2/../../../../arm-none-eabi/lib/thumb/v7m\libg.a(lib_a-vfiprintf.o)
                0x08027030                __sprint_r
                0x080270b0                _vfiprintf_r
                0x08027b68                vfiprintf
 .text          0x08027b84       0xc8 d:/elektronik/ides/eclipse/yagarto/bin/../lib/gcc/arm-none-eabi/4.6.2/../../../../arm-none-eabi/lib/thumb/v7m\libg.a(lib_a-wbuf.o)
                0x08027b84                __swbuf_r
                0x08027c3c                __swbuf
 .text          0x08027c4c       0xb8 d:/elektronik/ides/eclipse/yagarto/bin/../lib/gcc/arm-none-eabi/4.6.2/../../../../arm-none-eabi/lib/thumb/v7m\libg.a(lib_a-wsetup.o)
                0x08027c4c                __swsetup_r
 .text          0x08027d04       0xb0 d:/elektronik/ides/eclipse/yagarto/bin/../lib/gcc/arm-none-eabi/4.6.2/../../../../arm-none-eabi/lib/thumb/v7m\libg.a(lib_a-__atexit.o)
                0x08027d04                __register_exitproc
 *fill*         0x08027db4        0x4 00
 .text          0x08027db8     0x1040 d:/elektronik/ides/eclipse/yagarto/bin/../lib/gcc/arm-none-eabi/4.6.2/../../../../arm-none-eabi/lib/thumb/v7m\libg.a(lib_a-dtoa.o)
                0x08027efc                _dtoa_r
 .text          0x08028df8      0x1a4 d:/elektronik/ides/eclipse/yagarto/bin/../lib/gcc/arm-none-eabi/4.6.2/../../../../arm-none-eabi/lib/thumb/v7m\libg.a(lib_a-fflush.o)
                0x08028df8                _fflush_r
                0x08028f7c                fflush
 .text          0x08028f9c      0x1c4 d:/elektronik/ides/eclipse/yagarto/bin/../lib/gcc/arm-none-eabi/4.6.2/../../../../arm-none-eabi/lib/thumb/v7m\libg.a(lib_a-findfp.o)
                0x08028fa4                _cleanup_r
                0x08029004                __sfmoreglue
                0x08029030                _cleanup
                0x0802903c                __sinit
                0x08029084                __sfp
                0x08029120                __sfp_lock_acquire
                0x08029124                __sfp_lock_release
                0x08029128                __sinit_lock_acquire
                0x0802912c                __sinit_lock_release
                0x08029130                __fp_lock_all
                0x08029148                __fp_unlock_all
 .text          0x08029160      0x104 d:/elektronik/ides/eclipse/yagarto/bin/../lib/gcc/arm-none-eabi/4.6.2/../../../../arm-none-eabi/lib/thumb/v7m\libg.a(lib_a-fputwc.o)
                0x08029160                _fputwc_r
                0x08029240                fputwc
 .text          0x08029264      0x224 d:/elektronik/ides/eclipse/yagarto/bin/../lib/gcc/arm-none-eabi/4.6.2/../../../../arm-none-eabi/lib/thumb/v7m\libg.a(lib_a-freer.o)
                0x08029264                _malloc_trim_r
                0x08029304                _free_r
 .text          0x08029488       0xa0 d:/elektronik/ides/eclipse/yagarto/bin/../lib/gcc/arm-none-eabi/4.6.2/../../../../arm-none-eabi/lib/thumb/v7m\libg.a(lib_a-fwalk.o)
                0x08029488                _fwalk
                0x080294d4                _fwalk_reent
 .text          0x08029528       0x88 d:/elektronik/ides/eclipse/yagarto/bin/../lib/gcc/arm-none-eabi/4.6.2/../../../../arm-none-eabi/lib/thumb/v7m\libg.a(lib_a-locale.o)
                0x08029528                _setlocale_r
                0x0802956c                __locale_charset
                0x08029578                __locale_mb_cur_max
                0x08029584                __locale_msgcharset
                0x0802958c                __locale_cjk_lang
                0x08029590                _localeconv_r
                0x08029598                setlocale
                0x080295a8                localeconv
 .text          0x080295b0       0xe4 d:/elektronik/ides/eclipse/yagarto/bin/../lib/gcc/arm-none-eabi/4.6.2/../../../../arm-none-eabi/lib/thumb/v7m\libg.a(lib_a-makebuf.o)
                0x080295b0                __smakebuf_r
 .text          0x08029694      0x8c8 d:/elektronik/ides/eclipse/yagarto/bin/../lib/gcc/arm-none-eabi/4.6.2/../../../../arm-none-eabi/lib/thumb/v7m\libg.a(lib_a-mprec.o)
                0x08029694                _Balloc
                0x080296e0                _Bfree
                0x080296f4                __multadd
                0x08029778                __s2b
                0x0802980c                __hi0bits
                0x08029848                __lo0bits
                0x080298a4                __i2b
                0x080298b8                __multiply
                0x080299f0                __pow5mult
                0x08029a88                __lshift
                0x08029b48                __mcmp
                0x08029b88                __mdiff
                0x08029c6c                __ulp
                0x08029cb0                __b2d
                0x08029d5c                __d2b
                0x08029e24                __ratio
                0x08029e80                _mprec_log10
                0x08029eb4                __copybits
                0x08029efc                __any_on
 .text          0x08029f5c       0x90 d:/elektronik/ides/eclipse/yagarto/bin/../lib/gcc/arm-none-eabi/4.6.2/../../../../arm-none-eabi/lib/thumb/v7m\libg.a(lib_a-s_fpclassify.o)
                0x08029f5c                __fpclassifyd
 .text          0x08029fec       0x8c d:/elektronik/ides/eclipse/yagarto/bin/../lib/gcc/arm-none-eabi/4.6.2/../../../../arm-none-eabi/lib/thumb/v7m\libg.a(lib_a-stdio.o)
                0x08029fec                __sread
                0x0802a010                __seofread
                0x0802a014                __swrite
                0x0802a04c                __sseek
                0x0802a070                __sclose
 .text          0x0802a078      0xa00 d:/elektronik/ides/eclipse/yagarto/bin/../lib/gcc/arm-none-eabi/4.6.2/../../../../arm-none-eabi/lib/thumb/v7m\libg.a(lib_a-svfiprintf.o)
                0x0802a078                __ssprint_r
                0x0802a190                _svfiprintf_r
 .text          0x0802aa78       0xac d:/elektronik/ides/eclipse/yagarto/bin/../lib/gcc/arm-none-eabi/4.6.2/../../../../arm-none-eabi/lib/thumb/v7m\libg.a(lib_a-wcrtomb.o)
                0x0802aa78                _wcrtomb_r
                0x0802aac4                wcrtomb
 .text          0x0802ab24       0x4c d:/elektronik/ides/eclipse/yagarto/bin/../lib/gcc/arm-none-eabi/4.6.2/../../../../arm-none-eabi/lib/thumb/v7m\libg.a(lib_a-wctomb_r.o)
                0x0802ab24                __ascii_wctomb
                0x0802ab40                _wctomb_r
 .text          0x0802ab70       0x60 d:/elektronik/ides/eclipse/yagarto/bin/../lib/gcc/arm-none-eabi/4.6.2/../../../../arm-none-eabi/lib/thumb/v7m\libg.a(lib_a-callocr.o)
                0x0802ab70                _calloc_r
 .text          0x0802abd0       0x9c d:/elektronik/ides/eclipse/yagarto/bin/../lib/gcc/arm-none-eabi/4.6.2/../../../../arm-none-eabi/lib/thumb/v7m\libg.a(lib_a-fclose.o)
                0x0802abd0                _fclose_r
                0x0802ac5c                fclose
 *fill*         0x0802ac6c        0x4 00
 .text          0x0802ac70      0x278 d:/elektronik/ides/eclipse/yagarto/bin/../lib/gcc/arm-none-eabi/4.6.2/thumb/v7m\libgcc.a(_udivsi3.o)
                0x0802ac70                __aeabi_uidiv
                0x0802ac70                __udivsi3
                0x0802aecc                __aeabi_uidivmod
 .text          0x0802aee8        0x4 d:/elektronik/ides/eclipse/yagarto/bin/../lib/gcc/arm-none-eabi/4.6.2/thumb/v7m\libgcc.a(_dvmd_tls.o)
                0x0802aee8                __aeabi_idiv0
                0x0802aee8                __aeabi_ldiv0
 .text          0x0802aeec      0x370 d:/elektronik/ides/eclipse/yagarto/bin/../lib/gcc/arm-none-eabi/4.6.2/thumb/v7m\libgcc.a(_arm_addsubdf3.o)
                0x0802aeec                __aeabi_drsub
                0x0802aef4                __aeabi_dsub
                0x0802aef4                __subdf3
                0x0802aef8                __aeabi_dadd
                0x0802aef8                __adddf3
                0x0802b170                __floatunsidf
                0x0802b170                __aeabi_ui2d
                0x0802b190                __floatsidf
                0x0802b190                __aeabi_i2d
                0x0802b1b4                __aeabi_f2d
                0x0802b1b4                __extendsfdf2
                0x0802b1f0                __floatundidf
                0x0802b1f0                __aeabi_ul2d
                0x0802b200                __floatdidf
                0x0802b200                __aeabi_l2d
 .text          0x0802b25c      0x424 d:/elektronik/ides/eclipse/yagarto/bin/../lib/gcc/arm-none-eabi/4.6.2/thumb/v7m\libgcc.a(_arm_muldivdf3.o)
                0x0802b25c                __aeabi_dmul
                0x0802b25c                __muldf3
                0x0802b4b0                __divdf3
                0x0802b4b0                __aeabi_ddiv
 .text          0x0802b680      0x110 d:/elektronik/ides/eclipse/yagarto/bin/../lib/gcc/arm-none-eabi/4.6.2/thumb/v7m\libgcc.a(_arm_cmpdf2.o)
                0x0802b680                __gtdf2
                0x0802b680                __gedf2
                0x0802b688                __ltdf2
                0x0802b688                __ledf2
                0x0802b690                __nedf2
                0x0802b690                __eqdf2
                0x0802b690                __cmpdf2
                0x0802b70c                __aeabi_cdrcmple
                0x0802b71c                __aeabi_cdcmpeq
                0x0802b71c                __aeabi_cdcmple
                0x0802b72c                __aeabi_dcmpeq
                0x0802b740                __aeabi_dcmplt
                0x0802b754                __aeabi_dcmple
                0x0802b768                __aeabi_dcmpge
                0x0802b77c                __aeabi_dcmpgt
 .text          0x0802b790       0x50 d:/elektronik/ides/eclipse/yagarto/bin/../lib/gcc/arm-none-eabi/4.6.2/thumb/v7m\libgcc.a(_arm_fixdfsi.o)
                0x0802b790                __aeabi_d2iz
                0x0802b790                __fixdfsi
 *(.text*)
 .text._ZNK5CTask7IsValidEv
                0x0802b7e0       0x24 ./Menue/CMenue.o
                0x0802b7e0                CTask::IsValid() const
 .text._ZN5CTask6DetachEv
                0x0802b804       0x24 ./Menue/CMenue.o
                0x0802b804                CTask::Detach()
 .text._ZN12AManagedTask8OnCreateEPKctm
                0x0802b828       0x20 ./Menue/CMenue.o
                0x0802b828                AManagedTask::OnCreate(char const*, unsigned short, unsigned long)
 .text._ZN5CTask13EnterCriticalEv
                0x0802b848        0xc ./FreeRTOS_EC/Source/AManagedTask.o
                0x0802b848                CTask::EnterCritical()
 .text._ZN5CTask12ExitCriticalEv
                0x0802b854        0xc ./FreeRTOS_EC/Source/AManagedTask.o
                0x0802b854                CTask::ExitCritical()
 .text._ZN12AManagedTask12HardwareInitEv
                0x0802b860       0x18 ./FreeRTOS_EC/Source/AManagedTask.o
                0x0802b860                AManagedTask::HardwareInit()
 .text._ZN9CFreeRTOS15SuspendAllTasksEv
                0x0802b878        0xc ./FreeRTOS_EC/Source/AManagedTask.o
                0x0802b878                CFreeRTOS::SuspendAllTasks()
 .text._ZN9CFreeRTOS14ResumeAllTasksEv
                0x0802b884       0x10 ./FreeRTOS_EC/Source/AManagedTask.o
                0x0802b884                CFreeRTOS::ResumeAllTasks()
 .text._ZN12IFreeRTOSObjC2Ev
                0x0802b894       0x20 ./FreeRTOS_EC/Source/ASyncObject.o
                0x0802b894                IFreeRTOSObj::IFreeRTOSObj()
                0x0802b894                IFreeRTOSObj::IFreeRTOSObj()
 .text._ZN9CFreeRTOS14StartSchedulerEv
                0x0802b8b4        0xc ./main.o
                0x0802b8b4                CFreeRTOS::StartScheduler()
 .text.Reset_Handler
                0x0802b8c0       0x58 ./startup_stm32f4xx.o
                0x0802b8c0                Reset_Handler
 .text.Default_Handler
                0x0802b918        0x2 ./startup_stm32f4xx.o
                0x0802b918                RTC_Alarm_IRQHandler
                0x0802b918                HASH_RNG_IRQHandler
                0x0802b918                EXTI2_IRQHandler
                0x0802b918                TIM8_CC_IRQHandler
                0x0802b918                TIM1_CC_IRQHandler
                0x0802b918                DMA2_Stream5_IRQHandler
                0x0802b918                DMA1_Stream5_IRQHandler
                0x0802b918                PVD_IRQHandler
                0x0802b918                SDIO_IRQHandler
                0x0802b918                TAMP_STAMP_IRQHandler
                0x0802b918                CAN2_RX1_IRQHandler
                0x0802b918                EXTI3_IRQHandler
                0x0802b918                TIM8_TRG_COM_TIM14_IRQHandler
                0x0802b918                TIM1_UP_TIM10_IRQHandler
                0x0802b918                TIM8_UP_TIM13_IRQHandler
                0x0802b918                I2C3_ER_IRQHandler
                0x0802b918                I2C2_EV_IRQHandler
                0x0802b918                DMA1_Stream2_IRQHandler
                0x0802b918                CAN1_RX0_IRQHandler
                0x0802b918                FPU_IRQHandler
                0x0802b918                OTG_HS_WKUP_IRQHandler
                0x0802b918                CAN2_SCE_IRQHandler
                0x0802b918                DMA2_Stream2_IRQHandler
                0x0802b918                SPI1_IRQHandler
                0x0802b918                TIM6_DAC_IRQHandler
                0x0802b918                TIM1_BRK_TIM9_IRQHandler
                0x0802b918                DCMI_IRQHandler
                0x0802b918                CAN2_RX0_IRQHandler
                0x0802b918                DMA2_Stream3_IRQHandler
                0x0802b918                USART6_IRQHandler
                0x0802b918                USART3_IRQHandler
                0x0802b918                CRYP_IRQHandler
                0x0802b918                CAN1_RX1_IRQHandler
                0x0802b918                UART5_IRQHandler
                0x0802b918                DMA2_Stream0_IRQHandler
                0x0802b918                TIM4_IRQHandler
                0x0802b918                I2C1_EV_IRQHandler
                0x0802b918                DMA1_Stream6_IRQHandler
                0x0802b918                DMA1_Stream1_IRQHandler
                0x0802b918                UART4_IRQHandler
                0x0802b918                TIM3_IRQHandler
                0x0802b918                RCC_IRQHandler
                0x0802b918                TIM8_BRK_TIM12_IRQHandler
                0x0802b918                Default_Handler
                0x0802b918                EXTI15_10_IRQHandler
                0x0802b918                ADC_IRQHandler
                0x0802b918                TIM7_IRQHandler
                0x0802b918                CAN2_TX_IRQHandler
                0x0802b918                TIM5_IRQHandler
                0x0802b918                DMA2_Stream7_IRQHandler
                0x0802b918                I2C3_EV_IRQHandler
                0x0802b918                EXTI9_5_IRQHandler
                0x0802b918                RTC_WKUP_IRQHandler
                0x0802b918                ETH_WKUP_IRQHandler
                0x0802b918                SPI2_IRQHandler
                0x0802b918                OTG_HS_EP1_IN_IRQHandler
                0x0802b918                CAN1_TX_IRQHandler
                0x0802b918                EXTI4_IRQHandler
                0x0802b918                FSMC_IRQHandler
                0x0802b918                ETH_IRQHandler
                0x0802b918                OTG_HS_EP1_OUT_IRQHandler
                0x0802b918                WWDG_IRQHandler
                0x0802b918                TIM2_IRQHandler
                0x0802b918                OTG_FS_WKUP_IRQHandler
                0x0802b918                TIM1_TRG_COM_TIM11_IRQHandler
                0x0802b918                OTG_HS_IRQHandler
                0x0802b918                USART2_IRQHandler
                0x0802b918                I2C2_ER_IRQHandler
                0x0802b918                DMA2_Stream1_IRQHandler
                0x0802b918                CAN1_SCE_IRQHandler
                0x0802b918                FLASH_IRQHandler
                0x0802b918                DMA2_Stream4_IRQHandler
                0x0802b918                USART1_IRQHandler
                0x0802b918                DMA1_Stream4_IRQHandler
                0x0802b918                I2C1_ER_IRQHandler
                0x0802b918                DMA2_Stream6_IRQHandler
                0x0802b918                DMA1_Stream3_IRQHandler
 *fill*         0x0802b91a        0x2 00
 .text.__aeabi_atexit
                0x0802b91c        0xc d:/elektronik/ides/eclipse/yagarto/bin/../lib/gcc/arm-none-eabi/4.6.2/../../../../arm-none-eabi/lib/thumb/v7m\libstdc++.a(atexit_arm.o)
                0x0802b91c                __aeabi_atexit
 .text._ZdlPv   0x0802b928        0x8 d:/elektronik/ides/eclipse/yagarto/bin/../lib/gcc/arm-none-eabi/4.6.2/../../../../arm-none-eabi/lib/thumb/v7m\libstdc++.a(del_op.o)
                0x0802b928                operator delete(void*)
 .text.__cxa_pure_virtual
                0x0802b930       0x18 d:/elektronik/ides/eclipse/yagarto/bin/../lib/gcc/arm-none-eabi/4.6.2/../../../../arm-none-eabi/lib/thumb/v7m\libstdc++.a(pure.o)
                0x0802b930                __cxa_pure_virtual
 .text._ZN10__cxxabiv111__terminateEPFvvE
                0x0802b948       0x28 d:/elektronik/ides/eclipse/yagarto/bin/../lib/gcc/arm-none-eabi/4.6.2/../../../../arm-none-eabi/lib/thumb/v7m\libstdc++.a(eh_terminate.o)
                0x0802b948                __cxxabiv1::__terminate(void (*)())
 .text._ZSt9terminatev
                0x0802b970       0x10 d:/elektronik/ides/eclipse/yagarto/bin/../lib/gcc/arm-none-eabi/4.6.2/../../../../arm-none-eabi/lib/thumb/v7m\libstdc++.a(eh_terminate.o)
                0x0802b970                std::terminate()
 .text._ZN10__cxxabiv112__unexpectedEPFvvE
                0x0802b980        0x8 d:/elektronik/ides/eclipse/yagarto/bin/../lib/gcc/arm-none-eabi/4.6.2/../../../../arm-none-eabi/lib/thumb/v7m\libstdc++.a(eh_terminate.o)
                0x0802b980                __cxxabiv1::__unexpected(void (*)())
 .text._ZSt10unexpectedv
                0x0802b988       0x14 d:/elektronik/ides/eclipse/yagarto/bin/../lib/gcc/arm-none-eabi/4.6.2/../../../../arm-none-eabi/lib/thumb/v7m\libstdc++.a(eh_terminate.o)
                0x0802b988                std::unexpected()
 .text._ZN9__gnu_cxx27__verbose_terminate_handlerEv
                0x0802b99c      0x118 d:/elektronik/ides/eclipse/yagarto/bin/../lib/gcc/arm-none-eabi/4.6.2/../../../../arm-none-eabi/lib/thumb/v7m\libstdc++.a(vterminate.o)
                0x0802b99c                __gnu_cxx::__verbose_terminate_handler()
 .text.__cxa_end_cleanup
                0x0802bab4        0xc d:/elektronik/ides/eclipse/yagarto/bin/../lib/gcc/arm-none-eabi/4.6.2/../../../../arm-none-eabi/lib/thumb/v7m\libstdc++.a(eh_arm.o)
                0x0802bab4                __cxa_end_cleanup
 .text.__cxa_type_match
                0x0802bac0       0xe4 d:/elektronik/ides/eclipse/yagarto/bin/../lib/gcc/arm-none-eabi/4.6.2/../../../../arm-none-eabi/lib/thumb/v7m\libstdc++.a(eh_arm.o)
                0x0802bac0                __cxa_type_match
 .text.__cxa_begin_cleanup
                0x0802bba4       0x68 d:/elektronik/ides/eclipse/yagarto/bin/../lib/gcc/arm-none-eabi/4.6.2/../../../../arm-none-eabi/lib/thumb/v7m\libstdc++.a(eh_arm.o)
                0x0802bba4                __cxa_begin_cleanup
 .text.__gnu_end_cleanup
                0x0802bc0c       0x74 d:/elektronik/ides/eclipse/yagarto/bin/../lib/gcc/arm-none-eabi/4.6.2/../../../../arm-none-eabi/lib/thumb/v7m\libstdc++.a(eh_arm.o)
                0x0802bc0c                __gnu_end_cleanup
 .text.__cxa_bad_typeid
                0x0802bc80       0x24 d:/elektronik/ides/eclipse/yagarto/bin/../lib/gcc/arm-none-eabi/4.6.2/../../../../arm-none-eabi/lib/thumb/v7m\libstdc++.a(eh_aux_runtime.o)
                0x0802bc80                __cxa_bad_typeid
 .text.__cxa_call_terminate
                0x0802bca4       0x48 d:/elektronik/ides/eclipse/yagarto/bin/../lib/gcc/arm-none-eabi/4.6.2/../../../../arm-none-eabi/lib/thumb/v7m\libstdc++.a(eh_call.o)
                0x0802bca4                __cxa_call_terminate
 .text.__cxa_call_unexpected
                0x0802bcec      0x11c d:/elektronik/ides/eclipse/yagarto/bin/../lib/gcc/arm-none-eabi/4.6.2/../../../../arm-none-eabi/lib/thumb/v7m\libstdc++.a(eh_call.o)
                0x0802bcec                __cxa_call_unexpected
 .text.__cxa_begin_catch
                0x0802be08       0x88 d:/elektronik/ides/eclipse/yagarto/bin/../lib/gcc/arm-none-eabi/4.6.2/../../../../arm-none-eabi/lib/thumb/v7m\libstdc++.a(eh_catch.o)
                0x0802be08                __cxa_begin_catch
 .text.__cxa_end_catch
                0x0802be90       0x90 d:/elektronik/ides/eclipse/yagarto/bin/../lib/gcc/arm-none-eabi/4.6.2/../../../../arm-none-eabi/lib/thumb/v7m\libstdc++.a(eh_catch.o)
                0x0802be90                __cxa_end_catch
 .text._ZNSt9exceptionD2Ev
                0x0802bf20        0xc d:/elektronik/ides/eclipse/yagarto/bin/../lib/gcc/arm-none-eabi/4.6.2/../../../../arm-none-eabi/lib/thumb/v7m\libstdc++.a(eh_exception.o)
                0x0802bf20                std::exception::~exception()
                0x0802bf20                std::exception::~exception()
 .text._ZNSt13bad_exceptionD2Ev
                0x0802bf2c        0xc d:/elektronik/ides/eclipse/yagarto/bin/../lib/gcc/arm-none-eabi/4.6.2/../../../../arm-none-eabi/lib/thumb/v7m\libstdc++.a(eh_exception.o)
                0x0802bf2c                std::bad_exception::~bad_exception()
                0x0802bf2c                std::bad_exception::~bad_exception()
 .text._ZNKSt9exception4whatEv
                0x0802bf38        0xc d:/elektronik/ides/eclipse/yagarto/bin/../lib/gcc/arm-none-eabi/4.6.2/../../../../arm-none-eabi/lib/thumb/v7m\libstdc++.a(eh_exception.o)
                0x0802bf38                std::exception::what() const
 .text._ZNKSt13bad_exception4whatEv
                0x0802bf44        0xc d:/elektronik/ides/eclipse/yagarto/bin/../lib/gcc/arm-none-eabi/4.6.2/../../../../arm-none-eabi/lib/thumb/v7m\libstdc++.a(eh_exception.o)
                0x0802bf44                std::bad_exception::what() const
 .text._ZNSt13bad_exceptionD0Ev
                0x0802bf50       0x14 d:/elektronik/ides/eclipse/yagarto/bin/../lib/gcc/arm-none-eabi/4.6.2/../../../../arm-none-eabi/lib/thumb/v7m\libstdc++.a(eh_exception.o)
                0x0802bf50                std::bad_exception::~bad_exception()
 .text._ZNSt9exceptionD0Ev
                0x0802bf64       0x14 d:/elektronik/ides/eclipse/yagarto/bin/../lib/gcc/arm-none-eabi/4.6.2/../../../../arm-none-eabi/lib/thumb/v7m\libstdc++.a(eh_exception.o)
                0x0802bf64                std::exception::~exception()
 .text.__cxa_get_globals_fast
                0x0802bf78        0xc d:/elektronik/ides/eclipse/yagarto/bin/../lib/gcc/arm-none-eabi/4.6.2/../../../../arm-none-eabi/lib/thumb/v7m\libstdc++.a(eh_globals.o)
                0x0802bf78                __cxa_get_globals_fast
 .text.__cxa_get_globals
                0x0802bf84        0xc d:/elektronik/ides/eclipse/yagarto/bin/../lib/gcc/arm-none-eabi/4.6.2/../../../../arm-none-eabi/lib/thumb/v7m\libstdc++.a(eh_globals.o)
                0x0802bf84                __cxa_get_globals
 .text._ZL12read_sleb128PKhPl
                0x0802bf90       0x3c d:/elektronik/ides/eclipse/yagarto/bin/../lib/gcc/arm-none-eabi/4.6.2/../../../../arm-none-eabi/lib/thumb/v7m\libstdc++.a(eh_personality.o)
 .text._ZL28read_encoded_value_with_basehjPKhPj
                0x0802bfcc       0xc0 d:/elektronik/ides/eclipse/yagarto/bin/../lib/gcc/arm-none-eabi/4.6.2/../../../../arm-none-eabi/lib/thumb/v7m\libstdc++.a(eh_personality.o)
 .text._ZL21base_of_encoded_valuehP15_Unwind_Context
                0x0802c08c       0x4c d:/elektronik/ides/eclipse/yagarto/bin/../lib/gcc/arm-none-eabi/4.6.2/../../../../arm-none-eabi/lib/thumb/v7m\libstdc++.a(eh_personality.o)
 .text._ZL17parse_lsda_headerP15_Unwind_ContextPKhP16lsda_header_info.constprop.1
                0x0802c0d8       0x8c d:/elektronik/ides/eclipse/yagarto/bin/../lib/gcc/arm-none-eabi/4.6.2/../../../../arm-none-eabi/lib/thumb/v7m\libstdc++.a(eh_personality.o)
 .text.__gxx_personality_v0
                0x0802c164      0x3a8 d:/elektronik/ides/eclipse/yagarto/bin/../lib/gcc/arm-none-eabi/4.6.2/../../../../arm-none-eabi/lib/thumb/v7m\libstdc++.a(eh_personality.o)
                0x0802c164                __gxx_personality_v0
 .text._ZL23__gxx_exception_cleanup19_Unwind_Reason_CodeP21_Unwind_Control_Block
                0x0802c50c       0x4c d:/elektronik/ides/eclipse/yagarto/bin/../lib/gcc/arm-none-eabi/4.6.2/../../../../arm-none-eabi/lib/thumb/v7m\libstdc++.a(eh_throw.o)
 .text.__cxa_throw
                0x0802c558       0x78 d:/elektronik/ides/eclipse/yagarto/bin/../lib/gcc/arm-none-eabi/4.6.2/../../../../arm-none-eabi/lib/thumb/v7m\libstdc++.a(eh_throw.o)
                0x0802c558                __cxa_throw
 .text.__cxa_rethrow
                0x0802c5d0       0x70 d:/elektronik/ides/eclipse/yagarto/bin/../lib/gcc/arm-none-eabi/4.6.2/../../../../arm-none-eabi/lib/thumb/v7m\libstdc++.a(eh_throw.o)
                0x0802c5d0                __cxa_rethrow
 .text.__cxa_current_exception_type
                0x0802c640       0x1c d:/elektronik/ides/eclipse/yagarto/bin/../lib/gcc/arm-none-eabi/4.6.2/../../../../arm-none-eabi/lib/thumb/v7m\libstdc++.a(eh_type.o)
                0x0802c640                __cxa_current_exception_type
 .text._ZN10__cxxabiv123__fundamental_type_infoD2Ev
                0x0802c65c       0x14 d:/elektronik/ides/eclipse/yagarto/bin/../lib/gcc/arm-none-eabi/4.6.2/../../../../arm-none-eabi/lib/thumb/v7m\libstdc++.a(fundamental_type_info.o)
                0x0802c65c                __cxxabiv1::__fundamental_type_info::~__fundamental_type_info()
                0x0802c65c                __cxxabiv1::__fundamental_type_info::~__fundamental_type_info()
 .text._ZN10__cxxabiv123__fundamental_type_infoD0Ev
                0x0802c670       0x1c d:/elektronik/ides/eclipse/yagarto/bin/../lib/gcc/arm-none-eabi/4.6.2/../../../../arm-none-eabi/lib/thumb/v7m\libstdc++.a(fundamental_type_info.o)
                0x0802c670                __cxxabiv1::__fundamental_type_info::~__fundamental_type_info()
 .text._ZNK10__cxxabiv119__pointer_type_info14__is_pointer_pEv
                0x0802c68c        0x4 d:/elektronik/ides/eclipse/yagarto/bin/../lib/gcc/arm-none-eabi/4.6.2/../../../../arm-none-eabi/lib/thumb/v7m\libstdc++.a(pointer_type_info.o)
                0x0802c68c                __cxxabiv1::__pointer_type_info::__is_pointer_p() const
 .text._ZN10__cxxabiv119__pointer_type_infoD2Ev
                0x0802c690       0x14 d:/elektronik/ides/eclipse/yagarto/bin/../lib/gcc/arm-none-eabi/4.6.2/../../../../arm-none-eabi/lib/thumb/v7m\libstdc++.a(pointer_type_info.o)
                0x0802c690                __cxxabiv1::__pointer_type_info::~__pointer_type_info()
                0x0802c690                __cxxabiv1::__pointer_type_info::~__pointer_type_info()
 .text._ZN10__cxxabiv119__pointer_type_infoD0Ev
                0x0802c6a4       0x1c d:/elektronik/ides/eclipse/yagarto/bin/../lib/gcc/arm-none-eabi/4.6.2/../../../../arm-none-eabi/lib/thumb/v7m\libstdc++.a(pointer_type_info.o)
                0x0802c6a4                __cxxabiv1::__pointer_type_info::~__pointer_type_info()
 .text._ZNK10__cxxabiv119__pointer_type_info15__pointer_catchEPKNS_17__pbase_type_infoEPPvj
                0x0802c6c0       0x48 d:/elektronik/ides/eclipse/yagarto/bin/../lib/gcc/arm-none-eabi/4.6.2/../../../../arm-none-eabi/lib/thumb/v7m\libstdc++.a(pointer_type_info.o)
                0x0802c6c0                __cxxabiv1::__pointer_type_info::__pointer_catch(__cxxabiv1::__pbase_type_info const*, void**, unsigned int) const
 .text._ZN10__cxxabiv120__si_class_type_infoD2Ev
                0x0802c708       0x14 d:/elektronik/ides/eclipse/yagarto/bin/../lib/gcc/arm-none-eabi/4.6.2/../../../../arm-none-eabi/lib/thumb/v7m\libstdc++.a(si_class_type_info.o)
                0x0802c708                __cxxabiv1::__si_class_type_info::~__si_class_type_info()
                0x0802c708                __cxxabiv1::__si_class_type_info::~__si_class_type_info()
 .text._ZN10__cxxabiv120__si_class_type_infoD0Ev
                0x0802c71c       0x1c d:/elektronik/ides/eclipse/yagarto/bin/../lib/gcc/arm-none-eabi/4.6.2/../../../../arm-none-eabi/lib/thumb/v7m\libstdc++.a(si_class_type_info.o)
                0x0802c71c                __cxxabiv1::__si_class_type_info::~__si_class_type_info()
 .text._ZNK10__cxxabiv120__si_class_type_info11__do_upcastEPKNS_17__class_type_infoEPKvRNS1_15__upcast_resultE
                0x0802c738       0x28 d:/elektronik/ides/eclipse/yagarto/bin/../lib/gcc/arm-none-eabi/4.6.2/../../../../arm-none-eabi/lib/thumb/v7m\libstdc++.a(si_class_type_info.o)
                0x0802c738                __cxxabiv1::__si_class_type_info::__do_upcast(__cxxabiv1::__class_type_info const*, void const*, __cxxabiv1::__class_type_info::__upcast_result&) const
 .text._ZNK10__cxxabiv120__si_class_type_info12__do_dyncastEiNS_17__class_type_info10__sub_kindEPKS1_PKvS4_S6_RNS1_16__dyncast_resultE
                0x0802c760       0x88 d:/elektronik/ides/eclipse/yagarto/bin/../lib/gcc/arm-none-eabi/4.6.2/../../../../arm-none-eabi/lib/thumb/v7m\libstdc++.a(si_class_type_info.o)
                0x0802c760                __cxxabiv1::__si_class_type_info::__do_dyncast(int, __cxxabiv1::__class_type_info::__sub_kind, __cxxabiv1::__class_type_info const*, void const*, __cxxabiv1::__class_type_info const*, void const*, __cxxabiv1::__class_type_info::__dyncast_result&) const
 .text._ZNK10__cxxabiv120__si_class_type_info20__do_find_public_srcEiPKvPKNS_17__class_type_infoES2_
                0x0802c7e8       0x38 d:/elektronik/ides/eclipse/yagarto/bin/../lib/gcc/arm-none-eabi/4.6.2/../../../../arm-none-eabi/lib/thumb/v7m\libstdc++.a(si_class_type_info.o)
                0x0802c7e8                __cxxabiv1::__si_class_type_info::__do_find_public_src(int, void const*, __cxxabiv1::__class_type_info const*, void const*) const
 .text._ZNSt9type_infoD2Ev
                0x0802c820        0xc d:/elektronik/ides/eclipse/yagarto/bin/../lib/gcc/arm-none-eabi/4.6.2/../../../../arm-none-eabi/lib/thumb/v7m\libstdc++.a(tinfo.o)
                0x0802c820                std::type_info::~type_info()
                0x0802c820                std::type_info::~type_info()
 .text._ZNKSt9type_info14__is_pointer_pEv
                0x0802c82c        0x4 d:/elektronik/ides/eclipse/yagarto/bin/../lib/gcc/arm-none-eabi/4.6.2/../../../../arm-none-eabi/lib/thumb/v7m\libstdc++.a(tinfo.o)
                0x0802c82c                std::type_info::__is_pointer_p() const
 .text._ZNKSt9type_info15__is_function_pEv
                0x0802c830        0x4 d:/elektronik/ides/eclipse/yagarto/bin/../lib/gcc/arm-none-eabi/4.6.2/../../../../arm-none-eabi/lib/thumb/v7m\libstdc++.a(tinfo.o)
                0x0802c830                std::type_info::__is_function_p() const
 .text._ZNKSt9type_info11__do_upcastEPKN10__cxxabiv117__class_type_infoEPPv
                0x0802c834        0x4 d:/elektronik/ides/eclipse/yagarto/bin/../lib/gcc/arm-none-eabi/4.6.2/../../../../arm-none-eabi/lib/thumb/v7m\libstdc++.a(tinfo.o)
                0x0802c834                std::type_info::__do_upcast(__cxxabiv1::__class_type_info const*, void**) const
 .text._ZNSt9type_infoD0Ev
                0x0802c838       0x14 d:/elektronik/ides/eclipse/yagarto/bin/../lib/gcc/arm-none-eabi/4.6.2/../../../../arm-none-eabi/lib/thumb/v7m\libstdc++.a(tinfo.o)
                0x0802c838                std::type_info::~type_info()
 .text._ZNKSt9type_infoeqERKS_
                0x0802c84c       0x38 d:/elektronik/ides/eclipse/yagarto/bin/../lib/gcc/arm-none-eabi/4.6.2/../../../../arm-none-eabi/lib/thumb/v7m\libstdc++.a(tinfo.o)
                0x0802c84c                std::type_info::operator==(std::type_info const&) const
 .text._ZNKSt9type_info10__do_catchEPKS_PPvj
                0x0802c884        0x4 d:/elektronik/ides/eclipse/yagarto/bin/../lib/gcc/arm-none-eabi/4.6.2/../../../../arm-none-eabi/lib/thumb/v7m\libstdc++.a(tinfo.o)
                0x0802c884                std::type_info::__do_catch(std::type_info const*, void**, unsigned int) const
 .text._ZNKSt10bad_typeid4whatEv
                0x0802c888        0xc d:/elektronik/ides/eclipse/yagarto/bin/../lib/gcc/arm-none-eabi/4.6.2/../../../../arm-none-eabi/lib/thumb/v7m\libstdc++.a(bad_typeid.o)
                0x0802c888                std::bad_typeid::what() const
 .text._ZNSt10bad_typeidD2Ev
                0x0802c894       0x14 d:/elektronik/ides/eclipse/yagarto/bin/../lib/gcc/arm-none-eabi/4.6.2/../../../../arm-none-eabi/lib/thumb/v7m\libstdc++.a(bad_typeid.o)
                0x0802c894                std::bad_typeid::~bad_typeid()
                0x0802c894                std::bad_typeid::~bad_typeid()
 .text._ZNSt10bad_typeidD0Ev
                0x0802c8a8       0x1c d:/elektronik/ides/eclipse/yagarto/bin/../lib/gcc/arm-none-eabi/4.6.2/../../../../arm-none-eabi/lib/thumb/v7m\libstdc++.a(bad_typeid.o)
                0x0802c8a8                std::bad_typeid::~bad_typeid()
 .text._ZNK10__cxxabiv117__class_type_info11__do_upcastEPKS0_PPv
                0x0802c8c4       0x38 d:/elektronik/ides/eclipse/yagarto/bin/../lib/gcc/arm-none-eabi/4.6.2/../../../../arm-none-eabi/lib/thumb/v7m\libstdc++.a(class_type_info.o)
                0x0802c8c4                __cxxabiv1::__class_type_info::__do_upcast(__cxxabiv1::__class_type_info const*, void**) const
 .text._ZNK10__cxxabiv117__class_type_info20__do_find_public_srcEiPKvPKS0_S2_
                0x0802c8fc        0xc d:/elektronik/ides/eclipse/yagarto/bin/../lib/gcc/arm-none-eabi/4.6.2/../../../../arm-none-eabi/lib/thumb/v7m\libstdc++.a(class_type_info.o)
                0x0802c8fc                __cxxabiv1::__class_type_info::__do_find_public_src(int, void const*, __cxxabiv1::__class_type_info const*, void const*) const
 .text._ZNK10__cxxabiv117__class_type_info11__do_upcastEPKS0_PKvRNS0_15__upcast_resultE
                0x0802c908       0x1c d:/elektronik/ides/eclipse/yagarto/bin/../lib/gcc/arm-none-eabi/4.6.2/../../../../arm-none-eabi/lib/thumb/v7m\libstdc++.a(class_type_info.o)
                0x0802c908                __cxxabiv1::__class_type_info::__do_upcast(__cxxabiv1::__class_type_info const*, void const*, __cxxabiv1::__class_type_info::__upcast_result&) const
 .text._ZN10__cxxabiv117__class_type_infoD2Ev
                0x0802c924       0x14 d:/elektronik/ides/eclipse/yagarto/bin/../lib/gcc/arm-none-eabi/4.6.2/../../../../arm-none-eabi/lib/thumb/v7m\libstdc++.a(class_type_info.o)
                0x0802c924                __cxxabiv1::__class_type_info::~__class_type_info()
                0x0802c924                __cxxabiv1::__class_type_info::~__class_type_info()
 .text._ZN10__cxxabiv117__class_type_infoD0Ev
                0x0802c938       0x1c d:/elektronik/ides/eclipse/yagarto/bin/../lib/gcc/arm-none-eabi/4.6.2/../../../../arm-none-eabi/lib/thumb/v7m\libstdc++.a(class_type_info.o)
                0x0802c938                __cxxabiv1::__class_type_info::~__class_type_info()
 .text._ZNK10__cxxabiv117__class_type_info12__do_dyncastEiNS0_10__sub_kindEPKS0_PKvS3_S5_RNS0_16__dyncast_resultE
                0x0802c954       0x3c d:/elektronik/ides/eclipse/yagarto/bin/../lib/gcc/arm-none-eabi/4.6.2/../../../../arm-none-eabi/lib/thumb/v7m\libstdc++.a(class_type_info.o)
                0x0802c954                __cxxabiv1::__class_type_info::__do_dyncast(int, __cxxabiv1::__class_type_info::__sub_kind, __cxxabiv1::__class_type_info const*, void const*, __cxxabiv1::__class_type_info const*, void const*, __cxxabiv1::__class_type_info::__dyncast_result&) const
 .text._ZNK10__cxxabiv117__class_type_info10__do_catchEPKSt9type_infoPPvj
                0x0802c990       0x28 d:/elektronik/ides/eclipse/yagarto/bin/../lib/gcc/arm-none-eabi/4.6.2/../../../../arm-none-eabi/lib/thumb/v7m\libstdc++.a(class_type_info.o)
                0x0802c990                __cxxabiv1::__class_type_info::__do_catch(std::type_info const*, void**, unsigned int) const
 .text.__cxa_allocate_exception
                0x0802c9b8       0x64 d:/elektronik/ides/eclipse/yagarto/bin/../lib/gcc/arm-none-eabi/4.6.2/../../../../arm-none-eabi/lib/thumb/v7m\libstdc++.a(eh_alloc.o)
                0x0802c9b8                __cxa_allocate_exception
 .text.__cxa_free_exception
                0x0802ca1c       0x34 d:/elektronik/ides/eclipse/yagarto/bin/../lib/gcc/arm-none-eabi/4.6.2/../../../../arm-none-eabi/lib/thumb/v7m\libstdc++.a(eh_alloc.o)
                0x0802ca1c                __cxa_free_exception
 .text._ZNK10__cxxabiv117__pbase_type_info15__pointer_catchEPKS0_PPvj
                0x0802ca50       0x14 d:/elektronik/ides/eclipse/yagarto/bin/../lib/gcc/arm-none-eabi/4.6.2/../../../../arm-none-eabi/lib/thumb/v7m\libstdc++.a(pbase_type_info.o)
                0x0802ca50                __cxxabiv1::__pbase_type_info::__pointer_catch(__cxxabiv1::__pbase_type_info const*, void**, unsigned int) const
 .text._ZN10__cxxabiv117__pbase_type_infoD2Ev
                0x0802ca64       0x14 d:/elektronik/ides/eclipse/yagarto/bin/../lib/gcc/arm-none-eabi/4.6.2/../../../../arm-none-eabi/lib/thumb/v7m\libstdc++.a(pbase_type_info.o)
                0x0802ca64                __cxxabiv1::__pbase_type_info::~__pbase_type_info()
                0x0802ca64                __cxxabiv1::__pbase_type_info::~__pbase_type_info()
 .text._ZN10__cxxabiv117__pbase_type_infoD0Ev
                0x0802ca78       0x1c d:/elektronik/ides/eclipse/yagarto/bin/../lib/gcc/arm-none-eabi/4.6.2/../../../../arm-none-eabi/lib/thumb/v7m\libstdc++.a(pbase_type_info.o)
                0x0802ca78                __cxxabiv1::__pbase_type_info::~__pbase_type_info()
 .text._ZNK10__cxxabiv117__pbase_type_info10__do_catchEPKSt9type_infoPPvj
                0x0802ca94       0x6c d:/elektronik/ides/eclipse/yagarto/bin/../lib/gcc/arm-none-eabi/4.6.2/../../../../arm-none-eabi/lib/thumb/v7m\libstdc++.a(pbase_type_info.o)
                0x0802ca94                __cxxabiv1::__pbase_type_info::__do_catch(std::type_info const*, void**, unsigned int) const
 *(.rodata)
 .rodata        0x0802cb00        0x4 ./STM32_USB_HOST_Library/Core/src/usbh_core.o
 .rodata        0x0802cb04       0x60 ./Menue/CMenue.o
 .rodata        0x0802cb64       0x30 ./FreeRTOS_EC/Source/CTask.o
 .rodata        0x0802cb94       0x74 ./FreeRTOS/Source/tasks.o
 .rodata        0x0802cc08       0x34 ./Audio_MP3/FatFs/src/ff.o
 .rodata        0x0802cc3c       0x10 ./Audio_MP3/CFileHandler.o
 .rodata        0x0802cc4c       0x2c ./main.o
 .rodata        0x0802cc78      0xdd8 d:/elektronik/ides/eclipse/yagarto/bin/../lib/gcc/arm-none-eabi/4.6.2/../../../../arm-none-eabi/lib/thumb/v7m\libstdc++.a(cp-demangle.o)
 .rodata        0x0802da50        0x4 d:/elektronik/ides/eclipse/yagarto/bin/../lib/gcc/arm-none-eabi/4.6.2/../../../../arm-none-eabi/lib/thumb/v7m\libg.a(lib_a-impure.o)
                0x0802da50                _global_impure_ptr
 .rodata        0x0802da54       0x20 d:/elektronik/ides/eclipse/yagarto/bin/../lib/gcc/arm-none-eabi/4.6.2/../../../../arm-none-eabi/lib/thumb/v7m\libg.a(lib_a-svfprintf.o)
 .rodata        0x0802da74       0x20 d:/elektronik/ides/eclipse/yagarto/bin/../lib/gcc/arm-none-eabi/4.6.2/../../../../arm-none-eabi/lib/thumb/v7m\libg.a(lib_a-vfiprintf.o)
 *fill*         0x0802da94        0x4 00
 .rodata        0x0802da98      0x128 d:/elektronik/ides/eclipse/yagarto/bin/../lib/gcc/arm-none-eabi/4.6.2/../../../../arm-none-eabi/lib/thumb/v7m\libg.a(lib_a-mprec.o)
                0x0802daa8                __mprec_tens
                0x0802db70                __mprec_tinytens
                0x0802db98                __mprec_bigtens
 .rodata        0x0802dbc0       0x20 d:/elektronik/ides/eclipse/yagarto/bin/../lib/gcc/arm-none-eabi/4.6.2/../../../../arm-none-eabi/lib/thumb/v7m\libg.a(lib_a-svfiprintf.o)
 *(.rodata*)
 .rodata.GPIO_PIN
                0x0802dbe0        0x8 ./STM32F4-Discovery/stm32f4_discovery.o
                0x0802dbe0                GPIO_PIN
 .rodata.GPIO_CLK
                0x0802dbe8       0x10 ./STM32F4-Discovery/stm32f4_discovery.o
                0x0802dbe8                GPIO_CLK
 .rodata.BUTTON_PIN
                0x0802dbf8        0x4 ./STM32F4-Discovery/stm32f4_discovery.o
                0x0802dbf8                BUTTON_PIN
 .rodata.BUTTON_CLK
                0x0802dbfc        0x4 ./STM32F4-Discovery/stm32f4_discovery.o
                0x0802dbfc                BUTTON_CLK
 .rodata.BUTTON_EXTI_LINE
                0x0802dc00        0x4 ./STM32F4-Discovery/stm32f4_discovery.o
                0x0802dc00                BUTTON_EXTI_LINE
 .rodata.BUTTON_PORT_SOURCE
                0x0802dc04        0x4 ./STM32F4-Discovery/stm32f4_discovery.o
                0x0802dc04                BUTTON_PORT_SOURCE
 .rodata.BUTTON_PIN_SOURCE
                0x0802dc08        0x4 ./STM32F4-Discovery/stm32f4_discovery.o
                0x0802dc08                BUTTON_PIN_SOURCE
 .rodata.BUTTON_IRQn
                0x0802dc0c        0x4 ./STM32F4-Discovery/stm32f4_discovery.o
                0x0802dc0c                BUTTON_IRQn
 .rodata._ZTV6CMenue
                0x0802dc10       0x28 ./Menue/CMenue.o
                0x0802dc10                vtable for CMenue
 .rodata._ZL12c_FontNative
                0x0802dc38       0x18 ./Menue/CMenue.o
 .rodata.dcttab
                0x0802dc50       0xc0 ./HelixMP3/real/dct32.o
 .rodata.preTab
                0x0802dd10       0x18 ./HelixMP3/real/dqchan.o
 .rodata.pow14  0x0802dd28       0x10 ./HelixMP3/real/dqchan.o
 .rodata.pow43_14
                0x0802dd38      0x100 ./HelixMP3/real/dqchan.o
 .rodata.pow43  0x0802de38       0xc0 ./HelixMP3/real/dqchan.o
 .rodata.poly43lo
                0x0802def8       0x14 ./HelixMP3/real/dqchan.o
 .rodata.poly43hi
                0x0802df0c       0x14 ./HelixMP3/real/dqchan.o
 .rodata.pow2exp
                0x0802df20       0x20 ./HelixMP3/real/dqchan.o
 .rodata.pow2frac
                0x0802df40       0x20 ./HelixMP3/real/dqchan.o
 .rodata.xmp3_huffTable
                0x0802df60     0x2124 ./HelixMP3/real/hufftabs.o
                0x0802df60                xmp3_huffTable
 .rodata.xmp3_huffTabOffset
                0x08030084       0x80 ./HelixMP3/real/hufftabs.o
                0x08030084                xmp3_huffTabOffset
 .rodata.xmp3_huffTabLookup
                0x08030104      0x100 ./HelixMP3/real/hufftabs.o
                0x08030104                xmp3_huffTabLookup
 .rodata.xmp3_quadTable
                0x08030204       0x50 ./HelixMP3/real/hufftabs.o
                0x08030204                xmp3_quadTable
 .rodata.xmp3_quadTabOffset
                0x08030254        0x8 ./HelixMP3/real/hufftabs.o
                0x08030254                xmp3_quadTabOffset
 .rodata.xmp3_quadTabMaxBits
                0x0803025c        0x8 ./HelixMP3/real/hufftabs.o
                0x0803025c                xmp3_quadTabMaxBits
 .rodata.c9_0   0x08030264        0x4 ./HelixMP3/real/imdct.o
 .rodata.c9_1   0x08030268        0x4 ./HelixMP3/real/imdct.o
 .rodata.c9_2   0x0803026c        0x4 ./HelixMP3/real/imdct.o
 .rodata.c9_3   0x08030270        0x4 ./HelixMP3/real/imdct.o
 .rodata.c9_4   0x08030274        0x4 ./HelixMP3/real/imdct.o
 .rodata.c18    0x08030278       0x24 ./HelixMP3/real/imdct.o
 .rodata.fastWin36
                0x0803029c       0x48 ./HelixMP3/real/imdct.o
 .rodata.c3_0   0x080302e4        0x4 ./HelixMP3/real/imdct.o
 .rodata.c6     0x080302e8        0xc ./HelixMP3/real/imdct.o
 .rodata.SFLenTab
                0x080302f4       0x20 ./HelixMP3/real/scalfact.o
 .rodata.NRTab  0x08030314       0x48 ./HelixMP3/real/scalfact.o
 .rodata.xmp3_imdctWin
                0x0803035c      0x240 ./HelixMP3/real/trigtabs.o
                0x0803035c                xmp3_imdctWin
 .rodata.xmp3_ISFMpeg1
                0x0803059c       0x38 ./HelixMP3/real/trigtabs.o
                0x0803059c                xmp3_ISFMpeg1
 .rodata.xmp3_ISFMpeg2
                0x080305d4      0x100 ./HelixMP3/real/trigtabs.o
                0x080305d4                xmp3_ISFMpeg2
 .rodata.xmp3_ISFIIP
                0x080306d4       0x10 ./HelixMP3/real/trigtabs.o
                0x080306d4                xmp3_ISFIIP
 .rodata.xmp3_csa
                0x080306e4       0x40 ./HelixMP3/real/trigtabs.o
                0x080306e4                xmp3_csa
 .rodata.xmp3_polyCoef
                0x08030724      0x420 ./HelixMP3/real/trigtabs.o
                0x08030724                xmp3_polyCoef
 .rodata.xmp3_samplerateTab
                0x08030b44       0x24 ./HelixMP3/mp3tabs.o
                0x08030b44                xmp3_samplerateTab
 .rodata.xmp3_bitrateTab
                0x08030b68      0x110 ./HelixMP3/mp3tabs.o
                0x08030b68                xmp3_bitrateTab
 .rodata.xmp3_samplesPerFrameTab
                0x08030c78       0x14 ./HelixMP3/mp3tabs.o
                0x08030c78                xmp3_samplesPerFrameTab
 .rodata.xmp3_sideBytesTab
                0x08030c8c        0xc ./HelixMP3/mp3tabs.o
                0x08030c8c                xmp3_sideBytesTab
 .rodata.xmp3_slotTab
                0x08030c98      0x110 ./HelixMP3/mp3tabs.o
                0x08030c98                xmp3_slotTab
 .rodata.xmp3_sfBandTable
                0x08030da8      0x29c ./HelixMP3/mp3tabs.o
                0x08030da8                xmp3_sfBandTable
 *fill*         0x08031044        0x4 00
 .rodata._ZTV11CGraphicLCD
                0x08031048       0x38 ./GraphicLCD/CGraphicLCD.o
                0x08031048                vtable for CGraphicLCD
 .rodata._ZTV13CT6963CDriver
                0x08031080       0x48 ./GraphicLCD/CT6963CDriver.o
                0x08031080                vtable for CT6963CDriver
 .rodata._ZTV21CT6963_GPIO_Interface
                0x080310c8       0x48 ./GraphicLCD/CT6963GPIOInterface.o
                0x080310c8                vtable for CT6963_GPIO_Interface
 .rodata.c_FontSansSerif12
                0x08031110       0x18 ./GraphicLCD/SansSerif12.o
                0x08031110                c_FontSansSerif12
 .rodata._ZL35Microsoft_Sans_Serif__12_char_table
                0x08031128      0xb40 ./GraphicLCD/SansSerif12.o
 .rodata._ZL38Microsoft_Sans_Serif__12_mapping_table
                0x08031c68      0x100 ./GraphicLCD/SansSerif12.o
 .rodata._ZL36Microsoft_Sans_Serif__12_width_table
                0x08031d68       0x5c ./GraphicLCD/SansSerif12.o
 .rodata._ZL37Microsoft_Sans_Serif__12_offset_table
                0x08031dc4      0x170 ./GraphicLCD/SansSerif12.o
 .rodata.c_FontSansSerif26
                0x08031f34       0x18 ./GraphicLCD/SansSerif26.o
                0x08031f34                c_FontSansSerif26
 .rodata._ZL35Microsoft_Sans_Serif__26_char_table
                0x08031f4c     0x2828 ./GraphicLCD/SansSerif26.o
 .rodata._ZL38Microsoft_Sans_Serif__26_mapping_table
                0x08034774      0x100 ./GraphicLCD/SansSerif26.o
 .rodata._ZL36Microsoft_Sans_Serif__26_width_table
                0x08034874       0x5c ./GraphicLCD/SansSerif26.o
 .rodata._ZL37Microsoft_Sans_Serif__26_offset_table
                0x080348d0      0x170 ./GraphicLCD/SansSerif26.o
 .rodata._ZTV12AManagedTask
                0x08034a40       0x28 ./FreeRTOS_EC/Source/AManagedTask.o
                0x08034a40                vtable for AManagedTask
 .rodata._ZTV12IFreeRTOSObj
                0x08034a68       0x18 ./FreeRTOS_EC/Source/ASyncObject.o
                0x08034a68                vtable for IFreeRTOSObj
 .rodata._ZTV5CTask
                0x08034a80       0x20 ./FreeRTOS_EC/Source/CTask.o
                0x08034a80                vtable for CTask
 .rodata._ZZN5CTask6AttachEPvE19__PRETTY_FUNCTION__
                0x08034aa0       0x2c ./FreeRTOS_EC/Source/CTask.o
 *fill*         0x08034acc        0x4 00
 .rodata._ZTV16CUSB_MassStorage
                0x08034ad0       0x28 ./Audio_MP3/USB_MSC/CUSBMassStorage.o
                0x08034ad0                vtable for CUSB_MassStorage
 .rodata.sstbl.1840
                0x08034af8       0x2c ./Audio_MP3/FatFs/src/ff.o
 .rodata.cstbl.1841
                0x08034b24       0x18 ./Audio_MP3/FatFs/src/ff.o
 .rodata.fatstr.1639
                0x08034b3c        0x4 ./Audio_MP3/FatFs/src/ff.o
 .rodata._ZTV12CFileHandler
                0x08034b40       0x28 ./Audio_MP3/CFileHandler.o
                0x08034b40                vtable for CFileHandler
 .rodata._ZTV24CLedHeartBeatSTM32F4Disc
                0x08034b68       0x28 ./CLedHeartBeatSTM32F4Disc.o
                0x08034b68                vtable for CLedHeartBeatSTM32F4Disc
 .rodata.str1.4
                0x08034b90       0x1c d:/elektronik/ides/eclipse/yagarto/bin/../lib/gcc/arm-none-eabi/4.6.2/../../../../arm-none-eabi/lib/thumb/v7m\libstdc++.a(pure.o)
 .rodata.str1.4
                0x08034bac       0x94 d:/elektronik/ides/eclipse/yagarto/bin/../lib/gcc/arm-none-eabi/4.6.2/../../../../arm-none-eabi/lib/thumb/v7m\libstdc++.a(vterminate.o)
 .rodata._ZTVSt9exception
                0x08034c40       0x18 d:/elektronik/ides/eclipse/yagarto/bin/../lib/gcc/arm-none-eabi/4.6.2/../../../../arm-none-eabi/lib/thumb/v7m\libstdc++.a(eh_exception.o)
                0x08034c40                vtable for std::exception
 .rodata._ZTIN10__cxxabiv115__forced_unwindE
                0x08034c58        0x8 d:/elektronik/ides/eclipse/yagarto/bin/../lib/gcc/arm-none-eabi/4.6.2/../../../../arm-none-eabi/lib/thumb/v7m\libstdc++.a(eh_exception.o)
                0x08034c58                typeinfo for __cxxabiv1::__forced_unwind
 .rodata._ZTISt9exception
                0x08034c60        0x8 d:/elektronik/ides/eclipse/yagarto/bin/../lib/gcc/arm-none-eabi/4.6.2/../../../../arm-none-eabi/lib/thumb/v7m\libstdc++.a(eh_exception.o)
                0x08034c60                typeinfo for std::exception
 .rodata._ZTSSt13bad_exception
                0x08034c68       0x14 d:/elektronik/ides/eclipse/yagarto/bin/../lib/gcc/arm-none-eabi/4.6.2/../../../../arm-none-eabi/lib/thumb/v7m\libstdc++.a(eh_exception.o)
                0x08034c68                typeinfo name for std::bad_exception
 .rodata.str1.4
                0x08034c7c       0x23 d:/elektronik/ides/eclipse/yagarto/bin/../lib/gcc/arm-none-eabi/4.6.2/../../../../arm-none-eabi/lib/thumb/v7m\libstdc++.a(eh_exception.o)
                                 0x24 (size before relaxing)
 *fill*         0x08034c9f        0x1 00
 .rodata._ZTSN10__cxxabiv119__foreign_exceptionE
                0x08034ca0       0x24 d:/elektronik/ides/eclipse/yagarto/bin/../lib/gcc/arm-none-eabi/4.6.2/../../../../arm-none-eabi/lib/thumb/v7m\libstdc++.a(eh_exception.o)
                0x08034ca0                typeinfo name for __cxxabiv1::__foreign_exception
 .rodata._ZTIN10__cxxabiv119__foreign_exceptionE
                0x08034cc4        0x8 d:/elektronik/ides/eclipse/yagarto/bin/../lib/gcc/arm-none-eabi/4.6.2/../../../../arm-none-eabi/lib/thumb/v7m\libstdc++.a(eh_exception.o)
                0x08034cc4                typeinfo for __cxxabiv1::__foreign_exception
 *fill*         0x08034ccc        0x4 00
 .rodata._ZTVSt13bad_exception
                0x08034cd0       0x18 d:/elektronik/ides/eclipse/yagarto/bin/../lib/gcc/arm-none-eabi/4.6.2/../../../../arm-none-eabi/lib/thumb/v7m\libstdc++.a(eh_exception.o)
                0x08034cd0                vtable for std::bad_exception
 .rodata._ZTSSt9exception
                0x08034ce8       0x10 d:/elektronik/ides/eclipse/yagarto/bin/../lib/gcc/arm-none-eabi/4.6.2/../../../../arm-none-eabi/lib/thumb/v7m\libstdc++.a(eh_exception.o)
                0x08034ce8                typeinfo name for std::exception
 .rodata._ZTSN10__cxxabiv115__forced_unwindE
                0x08034cf8       0x20 d:/elektronik/ides/eclipse/yagarto/bin/../lib/gcc/arm-none-eabi/4.6.2/../../../../arm-none-eabi/lib/thumb/v7m\libstdc++.a(eh_exception.o)
                0x08034cf8                typeinfo name for __cxxabiv1::__forced_unwind
 .rodata._ZTISt13bad_exception
                0x08034d18        0xc d:/elektronik/ides/eclipse/yagarto/bin/../lib/gcc/arm-none-eabi/4.6.2/../../../../arm-none-eabi/lib/thumb/v7m\libstdc++.a(eh_exception.o)
                0x08034d18                typeinfo for std::bad_exception
 .rodata._ZTIPv
                0x08034d24       0x10 d:/elektronik/ides/eclipse/yagarto/bin/../lib/gcc/arm-none-eabi/4.6.2/../../../../arm-none-eabi/lib/thumb/v7m\libstdc++.a(fundamental_type_info.o)
                0x08034d24                typeinfo for void*
 .rodata._ZTIv  0x08034d34        0x8 d:/elektronik/ides/eclipse/yagarto/bin/../lib/gcc/arm-none-eabi/4.6.2/../../../../arm-none-eabi/lib/thumb/v7m\libstdc++.a(fundamental_type_info.o)
                0x08034d34                typeinfo for void
 .rodata._ZTSPv
                0x08034d3c        0x4 d:/elektronik/ides/eclipse/yagarto/bin/../lib/gcc/arm-none-eabi/4.6.2/../../../../arm-none-eabi/lib/thumb/v7m\libstdc++.a(fundamental_type_info.o)
                0x08034d3c                typeinfo name for void*
 .rodata._ZTSv  0x08034d40        0x4 d:/elektronik/ides/eclipse/yagarto/bin/../lib/gcc/arm-none-eabi/4.6.2/../../../../arm-none-eabi/lib/thumb/v7m\libstdc++.a(fundamental_type_info.o)
                0x08034d40                typeinfo name for void
 .rodata._ZTIN10__cxxabiv123__fundamental_type_infoE
                0x08034d44        0xc d:/elektronik/ides/eclipse/yagarto/bin/../lib/gcc/arm-none-eabi/4.6.2/../../../../arm-none-eabi/lib/thumb/v7m\libstdc++.a(fundamental_type_info.o)
                0x08034d44                typeinfo for __cxxabiv1::__fundamental_type_info
 .rodata._ZTSN10__cxxabiv123__fundamental_type_infoE
                0x08034d50       0x28 d:/elektronik/ides/eclipse/yagarto/bin/../lib/gcc/arm-none-eabi/4.6.2/../../../../arm-none-eabi/lib/thumb/v7m\libstdc++.a(fundamental_type_info.o)
                0x08034d50                typeinfo name for __cxxabiv1::__fundamental_type_info
 .rodata._ZTVN10__cxxabiv123__fundamental_type_infoE
                0x08034d78       0x20 d:/elektronik/ides/eclipse/yagarto/bin/../lib/gcc/arm-none-eabi/4.6.2/../../../../arm-none-eabi/lib/thumb/v7m\libstdc++.a(fundamental_type_info.o)
                0x08034d78                vtable for __cxxabiv1::__fundamental_type_info
 .rodata._ZTSN10__cxxabiv119__pointer_type_infoE
                0x08034d98       0x24 d:/elektronik/ides/eclipse/yagarto/bin/../lib/gcc/arm-none-eabi/4.6.2/../../../../arm-none-eabi/lib/thumb/v7m\libstdc++.a(pointer_type_info.o)
                0x08034d98                typeinfo name for __cxxabiv1::__pointer_type_info
 .rodata._ZTIN10__cxxabiv119__pointer_type_infoE
                0x08034dbc        0xc d:/elektronik/ides/eclipse/yagarto/bin/../lib/gcc/arm-none-eabi/4.6.2/../../../../arm-none-eabi/lib/thumb/v7m\libstdc++.a(pointer_type_info.o)
                0x08034dbc                typeinfo for __cxxabiv1::__pointer_type_info
 .rodata._ZTVN10__cxxabiv119__pointer_type_infoE
                0x08034dc8       0x28 d:/elektronik/ides/eclipse/yagarto/bin/../lib/gcc/arm-none-eabi/4.6.2/../../../../arm-none-eabi/lib/thumb/v7m\libstdc++.a(pointer_type_info.o)
                0x08034dc8                vtable for __cxxabiv1::__pointer_type_info
 .rodata._ZTVN10__cxxabiv120__si_class_type_infoE
                0x08034df0       0x30 d:/elektronik/ides/eclipse/yagarto/bin/../lib/gcc/arm-none-eabi/4.6.2/../../../../arm-none-eabi/lib/thumb/v7m\libstdc++.a(si_class_type_info.o)
                0x08034df0                vtable for __cxxabiv1::__si_class_type_info
 .rodata._ZTIN10__cxxabiv120__si_class_type_infoE
                0x08034e20        0xc d:/elektronik/ides/eclipse/yagarto/bin/../lib/gcc/arm-none-eabi/4.6.2/../../../../arm-none-eabi/lib/thumb/v7m\libstdc++.a(si_class_type_info.o)
                0x08034e20                typeinfo for __cxxabiv1::__si_class_type_info
 .rodata._ZTSN10__cxxabiv120__si_class_type_infoE
                0x08034e2c       0x28 d:/elektronik/ides/eclipse/yagarto/bin/../lib/gcc/arm-none-eabi/4.6.2/../../../../arm-none-eabi/lib/thumb/v7m\libstdc++.a(si_class_type_info.o)
                0x08034e2c                typeinfo name for __cxxabiv1::__si_class_type_info
 .rodata._ZTISt9type_info
                0x08034e54        0x8 d:/elektronik/ides/eclipse/yagarto/bin/../lib/gcc/arm-none-eabi/4.6.2/../../../../arm-none-eabi/lib/thumb/v7m\libstdc++.a(tinfo.o)
                0x08034e54                typeinfo for std::type_info
 .rodata._ZTSSt9type_info
                0x08034e5c       0x10 d:/elektronik/ides/eclipse/yagarto/bin/../lib/gcc/arm-none-eabi/4.6.2/../../../../arm-none-eabi/lib/thumb/v7m\libstdc++.a(tinfo.o)
                0x08034e5c                typeinfo name for std::type_info
 *fill*         0x08034e6c        0x4 00
 .rodata._ZTVSt9type_info
                0x08034e70       0x20 d:/elektronik/ides/eclipse/yagarto/bin/../lib/gcc/arm-none-eabi/4.6.2/../../../../arm-none-eabi/lib/thumb/v7m\libstdc++.a(tinfo.o)
                0x08034e70                vtable for std::type_info
 .rodata._ZTVSt10bad_typeid
                0x08034e90       0x18 d:/elektronik/ides/eclipse/yagarto/bin/../lib/gcc/arm-none-eabi/4.6.2/../../../../arm-none-eabi/lib/thumb/v7m\libstdc++.a(bad_typeid.o)
                0x08034e90                vtable for std::bad_typeid
 .rodata._ZTISt10bad_typeid
                0x08034ea8        0xc d:/elektronik/ides/eclipse/yagarto/bin/../lib/gcc/arm-none-eabi/4.6.2/../../../../arm-none-eabi/lib/thumb/v7m\libstdc++.a(bad_typeid.o)
                0x08034ea8                typeinfo for std::bad_typeid
 .rodata.str1.4
                0x08034eb4       0x10 d:/elektronik/ides/eclipse/yagarto/bin/../lib/gcc/arm-none-eabi/4.6.2/../../../../arm-none-eabi/lib/thumb/v7m\libstdc++.a(bad_typeid.o)
 .rodata._ZTSSt10bad_typeid
                0x08034ec4       0x10 d:/elektronik/ides/eclipse/yagarto/bin/../lib/gcc/arm-none-eabi/4.6.2/../../../../arm-none-eabi/lib/thumb/v7m\libstdc++.a(bad_typeid.o)
                0x08034ec4                typeinfo name for std::bad_typeid
 *fill*         0x08034ed4        0x4 00
 .rodata._ZTVN10__cxxabiv117__class_type_infoE
                0x08034ed8       0x30 d:/elektronik/ides/eclipse/yagarto/bin/../lib/gcc/arm-none-eabi/4.6.2/../../../../arm-none-eabi/lib/thumb/v7m\libstdc++.a(class_type_info.o)
                0x08034ed8                vtable for __cxxabiv1::__class_type_info
 .rodata._ZTIN10__cxxabiv117__class_type_infoE
                0x08034f08        0xc d:/elektronik/ides/eclipse/yagarto/bin/../lib/gcc/arm-none-eabi/4.6.2/../../../../arm-none-eabi/lib/thumb/v7m\libstdc++.a(class_type_info.o)
                0x08034f08                typeinfo for __cxxabiv1::__class_type_info
 .rodata._ZTSN10__cxxabiv117__class_type_infoE
                0x08034f14       0x24 d:/elektronik/ides/eclipse/yagarto/bin/../lib/gcc/arm-none-eabi/4.6.2/../../../../arm-none-eabi/lib/thumb/v7m\libstdc++.a(class_type_info.o)
                0x08034f14                typeinfo name for __cxxabiv1::__class_type_info
 .rodata._ZTIN10__cxxabiv117__pbase_type_infoE
                0x08034f38        0xc d:/elektronik/ides/eclipse/yagarto/bin/../lib/gcc/arm-none-eabi/4.6.2/../../../../arm-none-eabi/lib/thumb/v7m\libstdc++.a(pbase_type_info.o)
                0x08034f38                typeinfo for __cxxabiv1::__pbase_type_info
 .rodata._ZTSN10__cxxabiv117__pbase_type_infoE
                0x08034f44       0x24 d:/elektronik/ides/eclipse/yagarto/bin/../lib/gcc/arm-none-eabi/4.6.2/../../../../arm-none-eabi/lib/thumb/v7m\libstdc++.a(pbase_type_info.o)
                0x08034f44                typeinfo name for __cxxabiv1::__pbase_type_info
 .rodata._ZTVN10__cxxabiv117__pbase_type_infoE
                0x08034f68       0x28 d:/elektronik/ides/eclipse/yagarto/bin/../lib/gcc/arm-none-eabi/4.6.2/../../../../arm-none-eabi/lib/thumb/v7m\libstdc++.a(pbase_type_info.o)
                0x08034f68                vtable for __cxxabiv1::__pbase_type_info
 .rodata.str1.4
                0x08034f90       0x3f d:/elektronik/ides/eclipse/yagarto/bin/../lib/gcc/arm-none-eabi/4.6.2/../../../../arm-none-eabi/lib/thumb/v7m\libg.a(lib_a-assert.o)
                                 0x44 (size before relaxing)
 *fill*         0x08034fcf        0x1 00
 .rodata.str1.4
                0x08034fd0        0x2 d:/elektronik/ides/eclipse/yagarto/bin/../lib/gcc/arm-none-eabi/4.6.2/../../../../arm-none-eabi/lib/thumb/v7m\libg.a(lib_a-impure.o)
                                  0x4 (size before relaxing)
 *fill*         0x08034fd2        0x2 00
 .rodata.str1.4
                0x08034fd4       0x42 d:/elektronik/ides/eclipse/yagarto/bin/../lib/gcc/arm-none-eabi/4.6.2/../../../../arm-none-eabi/lib/thumb/v7m\libg.a(lib_a-svfprintf.o)
                                 0x44 (size before relaxing)
 .rodata.str1.4
                0x00000000       0x30 d:/elektronik/ides/eclipse/yagarto/bin/../lib/gcc/arm-none-eabi/4.6.2/../../../../arm-none-eabi/lib/thumb/v7m\libg.a(lib_a-vfiprintf.o)
 *fill*         0x08035016        0x2 00
 .rodata.str1.4
                0x08035018       0x10 d:/elektronik/ides/eclipse/yagarto/bin/../lib/gcc/arm-none-eabi/4.6.2/../../../../arm-none-eabi/lib/thumb/v7m\libg.a(lib_a-dtoa.o)
                                 0x14 (size before relaxing)
 .rodata.str1.4
                0x08035028        0xc d:/elektronik/ides/eclipse/yagarto/bin/../lib/gcc/arm-none-eabi/4.6.2/../../../../arm-none-eabi/lib/thumb/v7m\libg.a(lib_a-locale.o)
                                 0x14 (size before relaxing)
 .rodata.str1.4
                0x00000000       0x30 d:/elektronik/ides/eclipse/yagarto/bin/../lib/gcc/arm-none-eabi/4.6.2/../../../../arm-none-eabi/lib/thumb/v7m\libg.a(lib_a-svfiprintf.o)
 *(.glue_7)
 .glue_7        0x00000000        0x0 linker stubs
 *(.glue_7t)
 .glue_7t       0x00000000        0x0 linker stubs
 *(.eh_frame)
 .eh_frame      0x08035034        0x0 d:/elektronik/ides/eclipse/yagarto/bin/../lib/gcc/arm-none-eabi/4.6.2/thumb/v7m/crtbegin.o
 *(.init)
 .init          0x08035034        0x4 d:/elektronik/ides/eclipse/yagarto/bin/../lib/gcc/arm-none-eabi/4.6.2/thumb/v7m/crti.o
                0x08035034                _init
 .init          0x08035038        0x8 d:/elektronik/ides/eclipse/yagarto/bin/../lib/gcc/arm-none-eabi/4.6.2/thumb/v7m/crtn.o
 *(.fini)
 .fini          0x08035040        0x4 d:/elektronik/ides/eclipse/yagarto/bin/../lib/gcc/arm-none-eabi/4.6.2/thumb/v7m/crti.o
                0x08035040                _fini
 .fini          0x08035044        0x8 d:/elektronik/ides/eclipse/yagarto/bin/../lib/gcc/arm-none-eabi/4.6.2/thumb/v7m/crtn.o
                0x0803504c                . = ALIGN (0x4)
                0x0803504c                _etext = .

.vfp11_veneer   0x0803504c        0x0
 .vfp11_veneer  0x00000000        0x0 linker stubs

.v4_bx          0x0803504c        0x0
 .v4_bx         0x00000000        0x0 linker stubs

.ARM.extab      0x0803504c      0x138
 *(.ARM.extab* .gnu.linkonce.armextab.*)
 .ARM.extab.text.__cxa_pure_virtual
                0x0803504c        0xc d:/elektronik/ides/eclipse/yagarto/bin/../lib/gcc/arm-none-eabi/4.6.2/../../../../arm-none-eabi/lib/thumb/v7m\libstdc++.a(pure.o)
 .ARM.extab.text._ZN10__cxxabiv111__terminateEPFvvE
                0x08035058       0x2c d:/elektronik/ides/eclipse/yagarto/bin/../lib/gcc/arm-none-eabi/4.6.2/../../../../arm-none-eabi/lib/thumb/v7m\libstdc++.a(eh_terminate.o)
 .ARM.extab.text._ZN10__cxxabiv112__unexpectedEPFvvE
                0x08035084        0xc d:/elektronik/ides/eclipse/yagarto/bin/../lib/gcc/arm-none-eabi/4.6.2/../../../../arm-none-eabi/lib/thumb/v7m\libstdc++.a(eh_terminate.o)
 .ARM.extab.text._ZSt10unexpectedv
                0x08035090        0xc d:/elektronik/ides/eclipse/yagarto/bin/../lib/gcc/arm-none-eabi/4.6.2/../../../../arm-none-eabi/lib/thumb/v7m\libstdc++.a(eh_terminate.o)
 .ARM.extab.text._ZN9__gnu_cxx27__verbose_terminate_handlerEv
                0x0803509c       0x3c d:/elektronik/ides/eclipse/yagarto/bin/../lib/gcc/arm-none-eabi/4.6.2/../../../../arm-none-eabi/lib/thumb/v7m\libstdc++.a(vterminate.o)
 .ARM.extab.text.__cxa_bad_typeid
                0x080350d8        0xc d:/elektronik/ides/eclipse/yagarto/bin/../lib/gcc/arm-none-eabi/4.6.2/../../../../arm-none-eabi/lib/thumb/v7m\libstdc++.a(eh_aux_runtime.o)
 .ARM.extab.text.__cxa_call_unexpected
                0x080350e4       0x28 d:/elektronik/ides/eclipse/yagarto/bin/../lib/gcc/arm-none-eabi/4.6.2/../../../../arm-none-eabi/lib/thumb/v7m\libstdc++.a(eh_call.o)
 .ARM.extab.text.__cxa_begin_catch
                0x0803510c       0x1c d:/elektronik/ides/eclipse/yagarto/bin/../lib/gcc/arm-none-eabi/4.6.2/../../../../arm-none-eabi/lib/thumb/v7m\libstdc++.a(eh_catch.o)
 .ARM.extab.text._ZL21base_of_encoded_valuehP15_Unwind_Context
                0x08035128        0xc d:/elektronik/ides/eclipse/yagarto/bin/../lib/gcc/arm-none-eabi/4.6.2/../../../../arm-none-eabi/lib/thumb/v7m\libstdc++.a(eh_personality.o)
 .ARM.extab.text.__gxx_personality_v0
                0x08035134       0x20 d:/elektronik/ides/eclipse/yagarto/bin/../lib/gcc/arm-none-eabi/4.6.2/../../../../arm-none-eabi/lib/thumb/v7m\libstdc++.a(eh_personality.o)
 .ARM.extab.text._ZNK10__cxxabiv117__pbase_type_info15__pointer_catchEPKS0_PPvj
                0x08035154        0x0 d:/elektronik/ides/eclipse/yagarto/bin/../lib/gcc/arm-none-eabi/4.6.2/../../../../arm-none-eabi/lib/thumb/v7m\libstdc++.a(pbase_type_info.o)
 .ARM.extab     0x08035154       0x18 d:/elektronik/ides/eclipse/yagarto/bin/../lib/gcc/arm-none-eabi/4.6.2/thumb/v7m\libgcc.a(unwind-arm.o)
 .ARM.extab     0x0803516c       0x18 d:/elektronik/ides/eclipse/yagarto/bin/../lib/gcc/arm-none-eabi/4.6.2/thumb/v7m\libgcc.a(pr-support.o)

.ARM            0x08035184      0x208
                0x08035184                __exidx_start = .
 *(.ARM.exidx*)
 .ARM.exidx.text.__aeabi_atexit
                0x08035244        0x0 d:/elektronik/ides/eclipse/yagarto/bin/../lib/gcc/arm-none-eabi/4.6.2/../../../../arm-none-eabi/lib/thumb/v7m\libstdc++.a(atexit_arm.o)
                                  0x8 (size before relaxing)
 .ARM.exidx.text._ZdlPv
                0x08035244        0x0 d:/elektronik/ides/eclipse/yagarto/bin/../lib/gcc/arm-none-eabi/4.6.2/../../../../arm-none-eabi/lib/thumb/v7m\libstdc++.a(del_op.o)
                                  0x8 (size before relaxing)
 .ARM.exidx.text.__cxa_pure_virtual
                0x08035244        0x8 d:/elektronik/ides/eclipse/yagarto/bin/../lib/gcc/arm-none-eabi/4.6.2/../../../../arm-none-eabi/lib/thumb/v7m\libstdc++.a(pure.o)
 .ARM.exidx.text._ZN10__cxxabiv111__terminateEPFvvE
                0x0803524c        0x8 d:/elektronik/ides/eclipse/yagarto/bin/../lib/gcc/arm-none-eabi/4.6.2/../../../../arm-none-eabi/lib/thumb/v7m\libstdc++.a(eh_terminate.o)
 .ARM.exidx.text._ZSt9terminatev
                0x08035254        0x8 d:/elektronik/ides/eclipse/yagarto/bin/../lib/gcc/arm-none-eabi/4.6.2/../../../../arm-none-eabi/lib/thumb/v7m\libstdc++.a(eh_terminate.o)
 .ARM.exidx.text._ZN10__cxxabiv112__unexpectedEPFvvE
                0x0803525c        0x8 d:/elektronik/ides/eclipse/yagarto/bin/../lib/gcc/arm-none-eabi/4.6.2/../../../../arm-none-eabi/lib/thumb/v7m\libstdc++.a(eh_terminate.o)
 .ARM.exidx.text._ZSt10unexpectedv
                0x08035264        0x8 d:/elektronik/ides/eclipse/yagarto/bin/../lib/gcc/arm-none-eabi/4.6.2/../../../../arm-none-eabi/lib/thumb/v7m\libstdc++.a(eh_terminate.o)
 .ARM.exidx.text._ZN9__gnu_cxx27__verbose_terminate_handlerEv
                0x0803526c       0x10 d:/elektronik/ides/eclipse/yagarto/bin/../lib/gcc/arm-none-eabi/4.6.2/../../../../arm-none-eabi/lib/thumb/v7m\libstdc++.a(vterminate.o)
                                  0x8 (size before relaxing)
 .ARM.exidx.text.__cxa_type_match
                0x0803527c        0x8 d:/elektronik/ides/eclipse/yagarto/bin/../lib/gcc/arm-none-eabi/4.6.2/../../../../arm-none-eabi/lib/thumb/v7m\libstdc++.a(eh_arm.o)
 .ARM.exidx.text.__cxa_begin_cleanup
                0x08035284        0x8 d:/elektronik/ides/eclipse/yagarto/bin/../lib/gcc/arm-none-eabi/4.6.2/../../../../arm-none-eabi/lib/thumb/v7m\libstdc++.a(eh_arm.o)
 .ARM.exidx.text.__gnu_end_cleanup
                0x0803528c        0x0 d:/elektronik/ides/eclipse/yagarto/bin/../lib/gcc/arm-none-eabi/4.6.2/../../../../arm-none-eabi/lib/thumb/v7m\libstdc++.a(eh_arm.o)
                                  0x8 (size before relaxing)
 .ARM.exidx.text.__cxa_bad_typeid
                0x0803528c        0x8 d:/elektronik/ides/eclipse/yagarto/bin/../lib/gcc/arm-none-eabi/4.6.2/../../../../arm-none-eabi/lib/thumb/v7m\libstdc++.a(eh_aux_runtime.o)
 .ARM.exidx.text.__cxa_call_terminate
                0x08035294        0x8 d:/elektronik/ides/eclipse/yagarto/bin/../lib/gcc/arm-none-eabi/4.6.2/../../../../arm-none-eabi/lib/thumb/v7m\libstdc++.a(eh_call.o)
 .ARM.exidx.text.__cxa_call_unexpected
                0x0803529c        0x8 d:/elektronik/ides/eclipse/yagarto/bin/../lib/gcc/arm-none-eabi/4.6.2/../../../../arm-none-eabi/lib/thumb/v7m\libstdc++.a(eh_call.o)
 .ARM.exidx.text.__cxa_begin_catch
                0x080352a4        0x8 d:/elektronik/ides/eclipse/yagarto/bin/../lib/gcc/arm-none-eabi/4.6.2/../../../../arm-none-eabi/lib/thumb/v7m\libstdc++.a(eh_catch.o)
 .ARM.exidx.text.__cxa_end_catch
                0x080352ac        0x8 d:/elektronik/ides/eclipse/yagarto/bin/../lib/gcc/arm-none-eabi/4.6.2/../../../../arm-none-eabi/lib/thumb/v7m\libstdc++.a(eh_catch.o)
 .ARM.exidx.text._ZNSt9exceptionD2Ev
                0x080352b4        0x0 d:/elektronik/ides/eclipse/yagarto/bin/../lib/gcc/arm-none-eabi/4.6.2/../../../../arm-none-eabi/lib/thumb/v7m\libstdc++.a(eh_exception.o)
                                  0x8 (size before relaxing)
 .ARM.exidx.text._ZNSt13bad_exceptionD2Ev
                0x080352b4        0x0 d:/elektronik/ides/eclipse/yagarto/bin/../lib/gcc/arm-none-eabi/4.6.2/../../../../arm-none-eabi/lib/thumb/v7m\libstdc++.a(eh_exception.o)
                                  0x8 (size before relaxing)
 .ARM.exidx.text._ZNKSt9exception4whatEv
                0x080352b4        0x0 d:/elektronik/ides/eclipse/yagarto/bin/../lib/gcc/arm-none-eabi/4.6.2/../../../../arm-none-eabi/lib/thumb/v7m\libstdc++.a(eh_exception.o)
                                  0x8 (size before relaxing)
 .ARM.exidx.text._ZNKSt13bad_exception4whatEv
                0x080352b4        0x0 d:/elektronik/ides/eclipse/yagarto/bin/../lib/gcc/arm-none-eabi/4.6.2/../../../../arm-none-eabi/lib/thumb/v7m\libstdc++.a(eh_exception.o)
                                  0x8 (size before relaxing)
 .ARM.exidx.text._ZNSt13bad_exceptionD0Ev
                0x080352b4        0x0 d:/elektronik/ides/eclipse/yagarto/bin/../lib/gcc/arm-none-eabi/4.6.2/../../../../arm-none-eabi/lib/thumb/v7m\libstdc++.a(eh_exception.o)
                                  0x8 (size before relaxing)
 .ARM.exidx.text._ZNSt9exceptionD0Ev
                0x080352b4        0x0 d:/elektronik/ides/eclipse/yagarto/bin/../lib/gcc/arm-none-eabi/4.6.2/../../../../arm-none-eabi/lib/thumb/v7m\libstdc++.a(eh_exception.o)
                                  0x8 (size before relaxing)
 .ARM.exidx.text.__cxa_get_globals_fast
                0x080352b4        0x0 d:/elektronik/ides/eclipse/yagarto/bin/../lib/gcc/arm-none-eabi/4.6.2/../../../../arm-none-eabi/lib/thumb/v7m\libstdc++.a(eh_globals.o)
                                  0x8 (size before relaxing)
 .ARM.exidx.text.__cxa_get_globals
                0x080352b4        0x0 d:/elektronik/ides/eclipse/yagarto/bin/../lib/gcc/arm-none-eabi/4.6.2/../../../../arm-none-eabi/lib/thumb/v7m\libstdc++.a(eh_globals.o)
                                  0x8 (size before relaxing)
 .ARM.exidx.text._ZL12read_sleb128PKhPl
                0x080352b4        0x0 d:/elektronik/ides/eclipse/yagarto/bin/../lib/gcc/arm-none-eabi/4.6.2/../../../../arm-none-eabi/lib/thumb/v7m\libstdc++.a(eh_personality.o)
                                  0x8 (size before relaxing)
 .ARM.exidx.text._ZL28read_encoded_value_with_basehjPKhPj
                0x080352b4        0x8 d:/elektronik/ides/eclipse/yagarto/bin/../lib/gcc/arm-none-eabi/4.6.2/../../../../arm-none-eabi/lib/thumb/v7m\libstdc++.a(eh_personality.o)
 .ARM.exidx.text._ZL21base_of_encoded_valuehP15_Unwind_Context
                0x080352bc        0x8 d:/elektronik/ides/eclipse/yagarto/bin/../lib/gcc/arm-none-eabi/4.6.2/../../../../arm-none-eabi/lib/thumb/v7m\libstdc++.a(eh_personality.o)
 .ARM.exidx.text._ZL17parse_lsda_headerP15_Unwind_ContextPKhP16lsda_header_info.constprop.1
                0x080352c4        0x8 d:/elektronik/ides/eclipse/yagarto/bin/../lib/gcc/arm-none-eabi/4.6.2/../../../../arm-none-eabi/lib/thumb/v7m\libstdc++.a(eh_personality.o)
 .ARM.exidx.text.__gxx_personality_v0
                0x080352cc        0x8 d:/elektronik/ides/eclipse/yagarto/bin/../lib/gcc/arm-none-eabi/4.6.2/../../../../arm-none-eabi/lib/thumb/v7m\libstdc++.a(eh_personality.o)
 .ARM.exidx.text._ZL23__gxx_exception_cleanup19_Unwind_Reason_CodeP21_Unwind_Control_Block
                0x080352d4        0x8 d:/elektronik/ides/eclipse/yagarto/bin/../lib/gcc/arm-none-eabi/4.6.2/../../../../arm-none-eabi/lib/thumb/v7m\libstdc++.a(eh_throw.o)
 .ARM.exidx.text.__cxa_throw
                0x080352dc        0x8 d:/elektronik/ides/eclipse/yagarto/bin/../lib/gcc/arm-none-eabi/4.6.2/../../../../arm-none-eabi/lib/thumb/v7m\libstdc++.a(eh_throw.o)
 .ARM.exidx.text.__cxa_rethrow
                0x080352e4        0x8 d:/elektronik/ides/eclipse/yagarto/bin/../lib/gcc/arm-none-eabi/4.6.2/../../../../arm-none-eabi/lib/thumb/v7m\libstdc++.a(eh_throw.o)
 .ARM.exidx.text.__cxa_current_exception_type
                0x080352ec        0x8 d:/elektronik/ides/eclipse/yagarto/bin/../lib/gcc/arm-none-eabi/4.6.2/../../../../arm-none-eabi/lib/thumb/v7m\libstdc++.a(eh_type.o)
 .ARM.exidx.text._ZN10__cxxabiv123__fundamental_type_infoD2Ev
                0x080352f4        0x8 d:/elektronik/ides/eclipse/yagarto/bin/../lib/gcc/arm-none-eabi/4.6.2/../../../../arm-none-eabi/lib/thumb/v7m\libstdc++.a(fundamental_type_info.o)
 .ARM.exidx.text._ZN10__cxxabiv123__fundamental_type_infoD0Ev
                0x080352fc        0x0 d:/elektronik/ides/eclipse/yagarto/bin/../lib/gcc/arm-none-eabi/4.6.2/../../../../arm-none-eabi/lib/thumb/v7m\libstdc++.a(fundamental_type_info.o)
                                  0x8 (size before relaxing)
 .ARM.exidx.text._ZNK10__cxxabiv119__pointer_type_info14__is_pointer_pEv
                0x080352fc        0x8 d:/elektronik/ides/eclipse/yagarto/bin/../lib/gcc/arm-none-eabi/4.6.2/../../../../arm-none-eabi/lib/thumb/v7m\libstdc++.a(pointer_type_info.o)
 .ARM.exidx.text._ZN10__cxxabiv119__pointer_type_infoD2Ev
                0x08035304        0x8 d:/elektronik/ides/eclipse/yagarto/bin/../lib/gcc/arm-none-eabi/4.6.2/../../../../arm-none-eabi/lib/thumb/v7m\libstdc++.a(pointer_type_info.o)
 .ARM.exidx.text._ZN10__cxxabiv119__pointer_type_infoD0Ev
                0x0803530c        0x0 d:/elektronik/ides/eclipse/yagarto/bin/../lib/gcc/arm-none-eabi/4.6.2/../../../../arm-none-eabi/lib/thumb/v7m\libstdc++.a(pointer_type_info.o)
                                  0x8 (size before relaxing)
 .ARM.exidx.text._ZNK10__cxxabiv119__pointer_type_info15__pointer_catchEPKNS_17__pbase_type_infoEPPvj
                0x0803530c        0x8 d:/elektronik/ides/eclipse/yagarto/bin/../lib/gcc/arm-none-eabi/4.6.2/../../../../arm-none-eabi/lib/thumb/v7m\libstdc++.a(pointer_type_info.o)
 .ARM.exidx.text._ZN10__cxxabiv120__si_class_type_infoD2Ev
                0x08035314        0x8 d:/elektronik/ides/eclipse/yagarto/bin/../lib/gcc/arm-none-eabi/4.6.2/../../../../arm-none-eabi/lib/thumb/v7m\libstdc++.a(si_class_type_info.o)
 .ARM.exidx.text._ZN10__cxxabiv120__si_class_type_infoD0Ev
                0x0803531c        0x0 d:/elektronik/ides/eclipse/yagarto/bin/../lib/gcc/arm-none-eabi/4.6.2/../../../../arm-none-eabi/lib/thumb/v7m\libstdc++.a(si_class_type_info.o)
                                  0x8 (size before relaxing)
 .ARM.exidx.text._ZNK10__cxxabiv120__si_class_type_info11__do_upcastEPKNS_17__class_type_infoEPKvRNS1_15__upcast_resultE
                0x0803531c        0x8 d:/elektronik/ides/eclipse/yagarto/bin/../lib/gcc/arm-none-eabi/4.6.2/../../../../arm-none-eabi/lib/thumb/v7m\libstdc++.a(si_class_type_info.o)
 .ARM.exidx.text._ZNK10__cxxabiv120__si_class_type_info12__do_dyncastEiNS_17__class_type_info10__sub_kindEPKS1_PKvS4_S6_RNS1_16__dyncast_resultE
                0x08035324        0x8 d:/elektronik/ides/eclipse/yagarto/bin/../lib/gcc/arm-none-eabi/4.6.2/../../../../arm-none-eabi/lib/thumb/v7m\libstdc++.a(si_class_type_info.o)
 .ARM.exidx.text._ZNK10__cxxabiv120__si_class_type_info20__do_find_public_srcEiPKvPKNS_17__class_type_infoES2_
                0x0803532c        0x8 d:/elektronik/ides/eclipse/yagarto/bin/../lib/gcc/arm-none-eabi/4.6.2/../../../../arm-none-eabi/lib/thumb/v7m\libstdc++.a(si_class_type_info.o)
 .ARM.exidx.text._ZNSt9type_infoD2Ev
                0x08035334        0x8 d:/elektronik/ides/eclipse/yagarto/bin/../lib/gcc/arm-none-eabi/4.6.2/../../../../arm-none-eabi/lib/thumb/v7m\libstdc++.a(tinfo.o)
 .ARM.exidx.text._ZNKSt9type_info14__is_pointer_pEv
                0x0803533c        0x0 d:/elektronik/ides/eclipse/yagarto/bin/../lib/gcc/arm-none-eabi/4.6.2/../../../../arm-none-eabi/lib/thumb/v7m\libstdc++.a(tinfo.o)
                                  0x8 (size before relaxing)
 .ARM.exidx.text._ZNKSt9type_info15__is_function_pEv
                0x0803533c        0x0 d:/elektronik/ides/eclipse/yagarto/bin/../lib/gcc/arm-none-eabi/4.6.2/../../../../arm-none-eabi/lib/thumb/v7m\libstdc++.a(tinfo.o)
                                  0x8 (size before relaxing)
 .ARM.exidx.text._ZNKSt9type_info11__do_upcastEPKN10__cxxabiv117__class_type_infoEPPv
                0x0803533c        0x0 d:/elektronik/ides/eclipse/yagarto/bin/../lib/gcc/arm-none-eabi/4.6.2/../../../../arm-none-eabi/lib/thumb/v7m\libstdc++.a(tinfo.o)
                                  0x8 (size before relaxing)
 .ARM.exidx.text._ZNSt9type_infoD0Ev
                0x0803533c        0x0 d:/elektronik/ides/eclipse/yagarto/bin/../lib/gcc/arm-none-eabi/4.6.2/../../../../arm-none-eabi/lib/thumb/v7m\libstdc++.a(tinfo.o)
                                  0x8 (size before relaxing)
 .ARM.exidx.text._ZNKSt9type_infoeqERKS_
                0x0803533c        0x0 d:/elektronik/ides/eclipse/yagarto/bin/../lib/gcc/arm-none-eabi/4.6.2/../../../../arm-none-eabi/lib/thumb/v7m\libstdc++.a(tinfo.o)
                                  0x8 (size before relaxing)
 .ARM.exidx.text._ZNKSt9type_info10__do_catchEPKS_PPvj
                0x0803533c        0x0 d:/elektronik/ides/eclipse/yagarto/bin/../lib/gcc/arm-none-eabi/4.6.2/../../../../arm-none-eabi/lib/thumb/v7m\libstdc++.a(tinfo.o)
                                  0x8 (size before relaxing)
 .ARM.exidx.text._ZNKSt10bad_typeid4whatEv
                0x0803533c        0x0 d:/elektronik/ides/eclipse/yagarto/bin/../lib/gcc/arm-none-eabi/4.6.2/../../../../arm-none-eabi/lib/thumb/v7m\libstdc++.a(bad_typeid.o)
                                  0x8 (size before relaxing)
 .ARM.exidx.text._ZNSt10bad_typeidD2Ev
                0x0803533c        0x0 d:/elektronik/ides/eclipse/yagarto/bin/../lib/gcc/arm-none-eabi/4.6.2/../../../../arm-none-eabi/lib/thumb/v7m\libstdc++.a(bad_typeid.o)
                                  0x8 (size before relaxing)
 .ARM.exidx.text._ZNSt10bad_typeidD0Ev
                0x0803533c        0x0 d:/elektronik/ides/eclipse/yagarto/bin/../lib/gcc/arm-none-eabi/4.6.2/../../../../arm-none-eabi/lib/thumb/v7m\libstdc++.a(bad_typeid.o)
                                  0x8 (size before relaxing)
 .ARM.exidx.text._ZNK10__cxxabiv117__class_type_info11__do_upcastEPKS0_PPv
                0x0803533c        0x8 d:/elektronik/ides/eclipse/yagarto/bin/../lib/gcc/arm-none-eabi/4.6.2/../../../../arm-none-eabi/lib/thumb/v7m\libstdc++.a(class_type_info.o)
 .ARM.exidx.text._ZNK10__cxxabiv117__class_type_info20__do_find_public_srcEiPKvPKS0_S2_
                0x08035344        0x8 d:/elektronik/ides/eclipse/yagarto/bin/../lib/gcc/arm-none-eabi/4.6.2/../../../../arm-none-eabi/lib/thumb/v7m\libstdc++.a(class_type_info.o)
 .ARM.exidx.text._ZNK10__cxxabiv117__class_type_info11__do_upcastEPKS0_PKvRNS0_15__upcast_resultE
                0x0803534c        0x8 d:/elektronik/ides/eclipse/yagarto/bin/../lib/gcc/arm-none-eabi/4.6.2/../../../../arm-none-eabi/lib/thumb/v7m\libstdc++.a(class_type_info.o)
 .ARM.exidx.text._ZN10__cxxabiv117__class_type_infoD2Ev
                0x08035354        0x8 d:/elektronik/ides/eclipse/yagarto/bin/../lib/gcc/arm-none-eabi/4.6.2/../../../../arm-none-eabi/lib/thumb/v7m\libstdc++.a(class_type_info.o)
 .ARM.exidx.text._ZN10__cxxabiv117__class_type_infoD0Ev
                0x0803535c        0x0 d:/elektronik/ides/eclipse/yagarto/bin/../lib/gcc/arm-none-eabi/4.6.2/../../../../arm-none-eabi/lib/thumb/v7m\libstdc++.a(class_type_info.o)
                                  0x8 (size before relaxing)
 .ARM.exidx.text._ZNK10__cxxabiv117__class_type_info12__do_dyncastEiNS0_10__sub_kindEPKS0_PKvS3_S5_RNS0_16__dyncast_resultE
                0x0803535c        0x8 d:/elektronik/ides/eclipse/yagarto/bin/../lib/gcc/arm-none-eabi/4.6.2/../../../../arm-none-eabi/lib/thumb/v7m\libstdc++.a(class_type_info.o)
 .ARM.exidx.text._ZNK10__cxxabiv117__class_type_info10__do_catchEPKSt9type_infoPPvj
                0x08035364        0x8 d:/elektronik/ides/eclipse/yagarto/bin/../lib/gcc/arm-none-eabi/4.6.2/../../../../arm-none-eabi/lib/thumb/v7m\libstdc++.a(class_type_info.o)
 .ARM.exidx.text.__cxa_allocate_exception
                0x0803536c        0x8 d:/elektronik/ides/eclipse/yagarto/bin/../lib/gcc/arm-none-eabi/4.6.2/../../../../arm-none-eabi/lib/thumb/v7m\libstdc++.a(eh_alloc.o)
 .ARM.exidx.text.__cxa_free_exception
                0x08035374        0x0 d:/elektronik/ides/eclipse/yagarto/bin/../lib/gcc/arm-none-eabi/4.6.2/../../../../arm-none-eabi/lib/thumb/v7m\libstdc++.a(eh_alloc.o)
                                  0x8 (size before relaxing)
 .ARM.exidx.text._ZNK10__cxxabiv117__pbase_type_info15__pointer_catchEPKS0_PPvj
                0x08035374        0x8 d:/elektronik/ides/eclipse/yagarto/bin/../lib/gcc/arm-none-eabi/4.6.2/../../../../arm-none-eabi/lib/thumb/v7m\libstdc++.a(pbase_type_info.o)
 .ARM.exidx.text._ZN10__cxxabiv117__pbase_type_infoD2Ev
                0x0803537c        0x0 d:/elektronik/ides/eclipse/yagarto/bin/../lib/gcc/arm-none-eabi/4.6.2/../../../../arm-none-eabi/lib/thumb/v7m\libstdc++.a(pbase_type_info.o)
                                  0x8 (size before relaxing)
 .ARM.exidx.text._ZN10__cxxabiv117__pbase_type_infoD0Ev
                0x0803537c        0x0 d:/elektronik/ides/eclipse/yagarto/bin/../lib/gcc/arm-none-eabi/4.6.2/../../../../arm-none-eabi/lib/thumb/v7m\libstdc++.a(pbase_type_info.o)
                                  0x8 (size before relaxing)
 .ARM.exidx.text._ZNK10__cxxabiv117__pbase_type_info10__do_catchEPKSt9type_infoPPvj
                0x0803537c       0x10 d:/elektronik/ides/eclipse/yagarto/bin/../lib/gcc/arm-none-eabi/4.6.2/../../../../arm-none-eabi/lib/thumb/v7m\libstdc++.a(pbase_type_info.o)
                                  0x8 (size before relaxing)
 .ARM.exidx     0x08035184       0x88 d:/elektronik/ides/eclipse/yagarto/bin/../lib/gcc/arm-none-eabi/4.6.2/thumb/v7m\libgcc.a(unwind-arm.o)
                                 0xc0 (size before relaxing)
 .ARM.exidx     0x0803520c       0x38 d:/elektronik/ides/eclipse/yagarto/bin/../lib/gcc/arm-none-eabi/4.6.2/thumb/v7m\libgcc.a(pr-support.o)
                                 0x48 (size before relaxing)
                0x0803538c                __exidx_end = .

.preinit_array  0x0803538c        0x0
                0x0803538c                PROVIDE (__preinit_array_start, .)
 *(.preinit_array*)
                0x0803538c                PROVIDE (__preinit_array_end, .)

.init_array     0x0803538c        0x8
                0x0803538c                PROVIDE (__init_array_start, .)
 *(SORT(.init_array.*))
 *(.init_array*)
 .init_array    0x0803538c        0x4 d:/elektronik/ides/eclipse/yagarto/bin/../lib/gcc/arm-none-eabi/4.6.2/thumb/v7m/crtbegin.o
 .init_array    0x08035390        0x4 ./main.o
                0x08035394                PROVIDE (__init_array_end, .)

.fini_array     0x08035394        0x4
                0x08035394                PROVIDE (__fini_array_start, .)
 *(.fini_array*)
 .fini_array    0x08035394        0x4 d:/elektronik/ides/eclipse/yagarto/bin/../lib/gcc/arm-none-eabi/4.6.2/thumb/v7m/crtbegin.o
 *(SORT(.fini_array.*))
                0x08035398                PROVIDE (__fini_array_end, .)
                0x08035398                _sidata = .

.data           0x20000000      0x9b0 load address 0x08035398
                0x20000000                . = ALIGN (0x4)
                0x20000000                _sdata = .
 *(.data)
 .data          0x20000000        0x4 d:/elektronik/ides/eclipse/yagarto/bin/../lib/gcc/arm-none-eabi/4.6.2/thumb/v7m/crtbegin.o
                0x20000000                __dso_handle
 *fill*         0x20000004        0x4 00
 .data          0x20000008      0x430 d:/elektronik/ides/eclipse/yagarto/bin/../lib/gcc/arm-none-eabi/4.6.2/../../../../arm-none-eabi/lib/thumb/v7m\libg.a(lib_a-impure.o)
                0x20000008                _impure_ptr
 .data          0x20000438      0x410 d:/elektronik/ides/eclipse/yagarto/bin/../lib/gcc/arm-none-eabi/4.6.2/../../../../arm-none-eabi/lib/thumb/v7m\libg.a(lib_a-mallocr.o)
                0x20000438                __malloc_av_
                0x20000840                __malloc_sbrk_base
                0x20000844                __malloc_trim_threshold
 .data          0x20000848       0x7c d:/elektronik/ides/eclipse/yagarto/bin/../lib/gcc/arm-none-eabi/4.6.2/../../../../arm-none-eabi/lib/thumb/v7m\libg.a(lib_a-locale.o)
                0x20000868                __mb_cur_max
 .data          0x200008c4        0x4 d:/elektronik/ides/eclipse/yagarto/bin/../lib/gcc/arm-none-eabi/4.6.2/../../../../arm-none-eabi/lib/thumb/v7m\libg.a(lib_a-wctomb_r.o)
                0x200008c4                __wctomb
 *(.data*)
 .data.USBH_DeviceConnStatus_cb
                0x200008c8        0xc ./STM32_USB_HOST_Library/Core/src/usbh_core.o
                0x200008c8                USBH_DeviceConnStatus_cb
 .data.USBH_MSC_cb
                0x200008d4       0x10 ./STM32_USB_HOST_Library/Class/MSC/src/usbh_msc_core.o
                0x200008d4                USBH_MSC_cb
 .data.Stat     0x200008e4        0x1 ./STM32_USB_HOST_Library/Class/MSC/src/usbh_msc_fatfs.o
 .data.status.5267
                0x200008e5        0x1 ./STM32_USB_HOST_Library/Class/MSC/src/usbh_msc_scsi.o
 *fill*         0x200008e6        0x2 00
 .data.APBAHBPrescTable
                0x200008e8       0x10 ./STM32F4xx_StdPeriph_Driver/src/stm32f4xx_rcc.o
 .data.GPIO_PORT
                0x200008f8       0x10 ./STM32F4-Discovery/stm32f4_discovery.o
                0x200008f8                GPIO_PORT
 .data.BUTTON_PORT
                0x20000908        0x4 ./STM32F4-Discovery/stm32f4_discovery.o
                0x20000908                BUTTON_PORT
 .data.AudioTotalSize
                0x2000090c        0x4 ./STM32F4-Discovery/stm32f4_discovery_audio_codec.o
                0x2000090c                AudioTotalSize
 .data.AudioRemSize
                0x20000910        0x4 ./STM32F4-Discovery/stm32f4_discovery_audio_codec.o
                0x20000910                AudioRemSize
 .data.CODECTimeout
                0x20000914        0x4 ./STM32F4-Discovery/stm32f4_discovery_audio_codec.o
                0x20000914                CODECTimeout
 .data.CurrAudioInterface
                0x20000918        0x4 ./STM32F4-Discovery/stm32f4_discovery_audio_codec.o
                0x20000918                CurrAudioInterface
 .data.AUDIO_MAL_DMA_CLOCK
                0x2000091c        0x4 ./STM32F4-Discovery/stm32f4_discovery_audio_codec.o
                0x2000091c                AUDIO_MAL_DMA_CLOCK
 .data.AUDIO_MAL_DMA_STREAM
                0x20000920        0x4 ./STM32F4-Discovery/stm32f4_discovery_audio_codec.o
                0x20000920                AUDIO_MAL_DMA_STREAM
 .data.AUDIO_MAL_DMA_DREG
                0x20000924        0x4 ./STM32F4-Discovery/stm32f4_discovery_audio_codec.o
                0x20000924                AUDIO_MAL_DMA_DREG
 .data.AUDIO_MAL_DMA_IRQ
                0x20000928        0x4 ./STM32F4-Discovery/stm32f4_discovery_audio_codec.o
                0x20000928                AUDIO_MAL_DMA_IRQ
 .data.AUDIO_MAL_DMA_FLAG_TC
                0x2000092c        0x4 ./STM32F4-Discovery/stm32f4_discovery_audio_codec.o
                0x2000092c                AUDIO_MAL_DMA_FLAG_TC
 .data.AUDIO_MAL_DMA_FLAG_HT
                0x20000930        0x4 ./STM32F4-Discovery/stm32f4_discovery_audio_codec.o
                0x20000930                AUDIO_MAL_DMA_FLAG_HT
 .data.AUDIO_MAL_DMA_FLAG_FE
                0x20000934        0x4 ./STM32F4-Discovery/stm32f4_discovery_audio_codec.o
                0x20000934                AUDIO_MAL_DMA_FLAG_FE
 .data.AUDIO_MAL_DMA_FLAG_TE
                0x20000938        0x4 ./STM32F4-Discovery/stm32f4_discovery_audio_codec.o
                0x20000938                AUDIO_MAL_DMA_FLAG_TE
 .data.AUDIO_MAL_DMA_FLAG_DME
                0x2000093c        0x4 ./STM32F4-Discovery/stm32f4_discovery_audio_codec.o
                0x2000093c                AUDIO_MAL_DMA_FLAG_DME
 .data.uxCriticalNesting
                0x20000940        0x4 ./FreeRTOS/Source/portable/GCC/ARM_CM4F/port.o
 .data.xNextTaskUnblockTime
                0x20000944        0x4 ./FreeRTOS/Source/tasks.o
 .data.USR_Callbacks
                0x20000948       0x48 ./Audio_MP3/USB_MSC/usbh_usr.o
                0x20000948                USR_Callbacks
 .data.__malloc_margin
                0x20000990        0x4 ./syscalls.o
                0x20000990                __malloc_margin
 .data.SystemCoreClock
                0x20000994        0x4 ./system_stm32f4xx.o
                0x20000994                SystemCoreClock
 .data.AHBPrescTable
                0x20000998       0x10 ./system_stm32f4xx.o
                0x20000998                AHBPrescTable
 .data._ZN10__cxxabiv119__terminate_handlerE
                0x200009a8        0x4 d:/elektronik/ides/eclipse/yagarto/bin/../lib/gcc/arm-none-eabi/4.6.2/../../../../arm-none-eabi/lib/thumb/v7m\libstdc++.a(eh_term_handler.o)
                0x200009a8                __cxxabiv1::__terminate_handler
 .data._ZN10__cxxabiv120__unexpected_handlerE
                0x200009ac        0x4 d:/elektronik/ides/eclipse/yagarto/bin/../lib/gcc/arm-none-eabi/4.6.2/../../../../arm-none-eabi/lib/thumb/v7m\libstdc++.a(eh_unex_handler.o)
                0x200009ac                __cxxabiv1::__unexpected_handler
                0x200009b0                . = ALIGN (0x4)
                0x200009b0                _edata = .

.jcr            0x200009b0        0x0 load address 0x08035d48
 .jcr           0x200009b0        0x0 d:/elektronik/ides/eclipse/yagarto/bin/../lib/gcc/arm-none-eabi/4.6.2/thumb/v7m/crtbegin.o
                0x200009b0                . = ALIGN (0x4)

.bss            0x200009b0     0xa240 load address 0x08035d48
                0x200009b0                _sbss = .
                0x200009b0                __bss_start__ = _sbss
 *(.bss)
 .bss           0x200009b0       0x1c d:/elektronik/ides/eclipse/yagarto/bin/../lib/gcc/arm-none-eabi/4.6.2/thumb/v7m/crtbegin.o
 .bss           0x200009cc       0x34 d:/elektronik/ides/eclipse/yagarto/bin/../lib/gcc/arm-none-eabi/4.6.2/../../../../arm-none-eabi/lib/thumb/v7m\libg.a(lib_a-mallocr.o)
                0x200009cc                __malloc_top_pad
                0x200009d0                __malloc_current_mallinfo
                0x200009f8                __malloc_max_sbrked_mem
                0x200009fc                __malloc_max_total_mem
 *(.bss*)
 .bss.timeout.5153
                0x20000a00        0x2 ./STM32_USB_HOST_Library/Core/src/usbh_core.o
 *fill*         0x20000a02        0x2 00
 .bss.BOTStallErrorCount
                0x20000a04        0x4 ./STM32_USB_HOST_Library/Class/MSC/src/usbh_msc_bot.o
 .bss.remainingDataLength.5214
                0x20000a08        0x4 ./STM32_USB_HOST_Library/Class/MSC/src/usbh_msc_bot.o
 .bss.datapointer.5215
                0x20000a0c        0x4 ./STM32_USB_HOST_Library/Class/MSC/src/usbh_msc_bot.o
 .bss.error_direction.5216
                0x20000a10        0x1 ./STM32_USB_HOST_Library/Class/MSC/src/usbh_msc_bot.o
 .bss.MSCErrorCount
                0x20000a11        0x1 ./STM32_USB_HOST_Library/Class/MSC/src/usbh_msc_core.o
                0x20000a11                MSCErrorCount
 .bss.maxLunExceed.5239
                0x20000a12        0x1 ./STM32_USB_HOST_Library/Class/MSC/src/usbh_msc_core.o
 .bss.OutputDev
                0x20000a13        0x1 ./STM32F4-Discovery/stm32f4_discovery_audio_codec.o
                0x20000a13                OutputDev
 .bss.AUDIO_MAL_DMA_CHANNEL
                0x20000a14        0x4 ./STM32F4-Discovery/stm32f4_discovery_audio_codec.o
                0x20000a14                AUDIO_MAL_DMA_CHANNEL
 .bss._ZN12AManagedTask22s_pManagedTaskListHeadE
                0x20000a18        0x4 ./FreeRTOS_EC/Source/AManagedTask.o
                0x20000a18                AManagedTask::s_pManagedTaskListHead
 .bss.pxCurrentTCB
                0x20000a1c        0x4 ./FreeRTOS/Source/tasks.o
                0x20000a1c                pxCurrentTCB
 .bss.pxReadyTasksLists
                0x20000a20       0xc8 ./FreeRTOS/Source/tasks.o
 .bss.xDelayedTaskList1
                0x20000ae8       0x14 ./FreeRTOS/Source/tasks.o
 .bss.xDelayedTaskList2
                0x20000afc       0x14 ./FreeRTOS/Source/tasks.o
 .bss.pxDelayedTaskList
                0x20000b10        0x4 ./FreeRTOS/Source/tasks.o
 .bss.pxOverflowDelayedTaskList
                0x20000b14        0x4 ./FreeRTOS/Source/tasks.o
 .bss.xPendingReadyList
                0x20000b18       0x14 ./FreeRTOS/Source/tasks.o
 .bss.xTasksWaitingTermination
                0x20000b2c       0x14 ./FreeRTOS/Source/tasks.o
 .bss.uxTasksDeleted
                0x20000b40        0x4 ./FreeRTOS/Source/tasks.o
 .bss.xSuspendedTaskList
                0x20000b44       0x14 ./FreeRTOS/Source/tasks.o
 .bss.xIdleTaskHandle
                0x20000b58        0x4 ./FreeRTOS/Source/tasks.o
 .bss.uxCurrentNumberOfTasks
                0x20000b5c        0x4 ./FreeRTOS/Source/tasks.o
 .bss.xTickCount
                0x20000b60        0x4 ./FreeRTOS/Source/tasks.o
 .bss.uxTopUsedPriority
                0x20000b64        0x4 ./FreeRTOS/Source/tasks.o
 .bss.uxTopReadyPriority
                0x20000b68        0x4 ./FreeRTOS/Source/tasks.o
 .bss.xSchedulerRunning
                0x20000b6c        0x4 ./FreeRTOS/Source/tasks.o
 .bss.uxSchedulerSuspended
                0x20000b70        0x4 ./FreeRTOS/Source/tasks.o
 .bss.uxMissedTicks
                0x20000b74        0x4 ./FreeRTOS/Source/tasks.o
 .bss.xMissedYield
                0x20000b78        0x4 ./FreeRTOS/Source/tasks.o
 .bss.xNumOfOverflows
                0x20000b7c        0x4 ./FreeRTOS/Source/tasks.o
 .bss.uxTaskNumber
                0x20000b80        0x4 ./FreeRTOS/Source/tasks.o
 .bss.pcStatsString
                0x20000b84       0x34 ./FreeRTOS/Source/tasks.o
 .bss.ulTaskSwitchedInTime
                0x20000bb8        0x4 ./FreeRTOS/Source/tasks.o
 .bss.USB_OTG_Core
                0x20000bbc      0x4b0 ./Audio_MP3/USB_MSC/CUSBMassStorage.o
                0x20000bbc                USB_OTG_Core
 .bss.USB_Host  0x2000106c       0x84 ./Audio_MP3/USB_MSC/CUSBMassStorage.o
                0x2000106c                USB_Host
 .bss.FatFs     0x200010f0        0x4 ./Audio_MP3/FatFs/src/ff.o
 .bss.Fsid      0x200010f4        0x2 ./Audio_MP3/FatFs/src/ff.o
 .bss.Drive     0x200010f6        0x1 ./Audio_MP3/FatFs/src/ff.o
 *fill*         0x200010f7        0x1 00
 .bss.semI2SDMAFinished
                0x200010f8        0x4 ./Audio_MP3/CFileHandler.o
                0x200010f8                semI2SDMAFinished
 .bss._ZL12uiReadBuffer
                0x200010fc      0x794 ./Audio_MP3/CFileHandler.o
 .bss._ZL11iPCMBuffer1
                0x20001890     0x1200 ./Audio_MP3/CFileHandler.o
 .bss._ZL11iPCMBuffer2
                0x20002a90     0x1200 ./Audio_MP3/CFileHandler.o
 .bss._ZZN12CFileHandler7PlayMP3EPKcE6offset
                0x20003c90        0x4 ./Audio_MP3/CFileHandler.o
 .bss._ZZN12CFileHandler7PlayMP3EPKcE3err
                0x20003c94        0x4 ./Audio_MP3/CFileHandler.o
 .bss.g_LedTast
                0x20003c98       0x14 ./main.o
                0x20003c98                g_LedTast
 .bss.g_Display
                0x20003cac        0x8 ./main.o
                0x20003cac                g_Display
 .bss.g_Menue   0x20003cb4       0x10 ./main.o
                0x20003cb4                g_Menue
 .bss.g_FileHandler
                0x20003cc4      0x294 ./main.o
                0x20003cc4                g_FileHandler
 .bss.g_MSC     0x20003f58        0xc ./main.o
                0x20003f58                g_MSC
 .bss.t0.3832   0x20003f64        0x2 ./ustime.o
 *fill*         0x20003f66        0x2 00
 .bss.tickcount.3833
                0x20003f68        0x8 ./ustime.o
 .bss._ZZN9__gnu_cxx27__verbose_terminate_handlerEvE11terminating
                0x20003f70        0x1 d:/elektronik/ides/eclipse/yagarto/bin/../lib/gcc/arm-none-eabi/4.6.2/../../../../arm-none-eabi/lib/thumb/v7m\libstdc++.a(vterminate.o)
 *fill*         0x20003f71        0x3 00
 .bss._ZL10eh_globals
                0x20003f74        0xc d:/elektronik/ides/eclipse/yagarto/bin/../lib/gcc/arm-none-eabi/4.6.2/../../../../arm-none-eabi/lib/thumb/v7m\libstdc++.a(eh_globals.o)
 .bss._ZL14emergency_used
                0x20003f80        0x4 d:/elektronik/ides/eclipse/yagarto/bin/../lib/gcc/arm-none-eabi/4.6.2/../../../../arm-none-eabi/lib/thumb/v7m\libstdc++.a(eh_alloc.o)
 *fill*         0x20003f84        0x4 00
 .bss._ZL16emergency_buffer
                0x20003f88      0x800 d:/elektronik/ides/eclipse/yagarto/bin/../lib/gcc/arm-none-eabi/4.6.2/../../../../arm-none-eabi/lib/thumb/v7m\libstdc++.a(eh_alloc.o)
 *(COMMON)
 COMMON         0x20004788       0x40 ./STM32_USB_HOST_Library/Class/MSC/src/usbh_msc_bot.o
                0x20004788                USBH_MSC_CSWData
                0x20004798                USBH_MSC_BOTXferParam
                0x200047a8                USBH_MSC_CBWData
 COMMON         0x200047c8       0x54 ./STM32_USB_HOST_Library/Class/MSC/src/usbh_msc_core.o
                0x200047c8                MSC_Machine
                0x20004814                MSC_Setup
 COMMON         0x2000481c      0x410 ./STM32_USB_HOST_Library/Class/MSC/src/usbh_msc_scsi.o
                0x2000481c                USBH_DataInBuffer
                0x20004a1c                USBH_MSC_Param
                0x20004a2c                USBH_DataOutBuffer
 COMMON         0x20004c2c       0x7c ./STM32F4-Discovery/stm32f4_discovery_audio_codec.o
                0x20004c2c                CurrentPos
                0x20004c30                AUDIO_MAL_DMA_InitStructure
                0x20004c6c                DMA_InitStructure
 COMMON         0x20004ca8     0x5d08 ./HelixMP3/real/buffers.o
                0x20004ca8                fh
                0x20004ce0                mp3DecInfo
                0x200054d0                sfi
                0x200055ec                si
                0x20005734                sbi
                0x20007938                hi
                0x20008b48                di
                0x20008e90                mi
 COMMON         0x2000a9b0      0x23c ./Audio_MP3/USB_MSC/usbh_usr.o
                0x2000a9b0                semUSBApplication
                0x2000a9b4                fatfs
                0x2000abe8                semUSBMounted
 COMMON         0x2000abec        0x4 ./syscalls.o
                0x2000abec                __brkval
                0x2000abf0                . = ALIGN (0x4)
                0x2000abf0                _ebss = .
                0x2000abf0                __bss_end__ = _ebss

._user_heap_stack
                0x2000abf0      0x400 load address 0x08035d48
                0x2000abf0                . = ALIGN (0x4)
                0x2000abf0                PROVIDE (end, .)
                0x2000abf0                PROVIDE (_end, .)
                0x2000abf0                . = (. + _Min_Heap_Size)
                0x2000aff0                . = (. + _Min_Stack_Size)
 *fill*         0x2000abf0      0x400 00
                0x2000aff0                . = ALIGN (0x4)

.memory_b1_text
 *(.mb1text)
 *(.mb1text*)
 *(.mb1rodata)
 *(.mb1rodata*)

/DISCARD/
 libc.a(*)
 libm.a(*)
 libgcc.a(*)

.ARM.attributes
                0x00000000       0x33
 *(.ARM.attributes)
 .ARM.attributes
                0x00000000       0x1d d:/elektronik/ides/eclipse/yagarto/bin/../lib/gcc/arm-none-eabi/4.6.2/thumb/v7m/crti.o
 .ARM.attributes
                0x0000001d       0x2b d:/elektronik/ides/eclipse/yagarto/bin/../lib/gcc/arm-none-eabi/4.6.2/thumb/v7m/crtbegin.o
 .ARM.attributes
                0x00000048       0x1b d:/elektronik/ides/eclipse/yagarto/bin/../lib/gcc/arm-none-eabi/4.6.2/../../../../arm-none-eabi/lib/thumb/v7m/crt0.o
 .ARM.attributes
                0x00000063       0x37 ./STM32_USB_OTG_Driver/src/usb_core.o
 .ARM.attributes
                0x0000009a       0x37 ./STM32_USB_OTG_Driver/src/usb_hcd.o
 .ARM.attributes
                0x000000d1       0x37 ./STM32_USB_OTG_Driver/src/usb_hcd_int.o
 .ARM.attributes
                0x00000108       0x37 ./STM32_USB_HOST_Library/Core/src/usbh_core.o
 .ARM.attributes
                0x0000013f       0x37 ./STM32_USB_HOST_Library/Core/src/usbh_hcs.o
 .ARM.attributes
                0x00000176       0x37 ./STM32_USB_HOST_Library/Core/src/usbh_ioreq.o
 .ARM.attributes
                0x000001ad       0x37 ./STM32_USB_HOST_Library/Core/src/usbh_stdreq.o
 .ARM.attributes
                0x000001e4       0x37 ./STM32_USB_HOST_Library/Class/MSC/src/usbh_msc_bot.o
 .ARM.attributes
                0x0000021b       0x37 ./STM32_USB_HOST_Library/Class/MSC/src/usbh_msc_core.o
 .ARM.attributes
                0x00000252       0x37 ./STM32_USB_HOST_Library/Class/MSC/src/usbh_msc_fatfs.o
 .ARM.attributes
                0x00000289       0x37 ./STM32_USB_HOST_Library/Class/MSC/src/usbh_msc_scsi.o
 .ARM.attributes
                0x000002c0       0x37 ./STM32F4xx_StdPeriph_Driver/src/misc.o
 .ARM.attributes
                0x000002f7       0x37 ./STM32F4xx_StdPeriph_Driver/src/stm32f4xx_adc.o
 .ARM.attributes
                0x0000032e       0x37 ./STM32F4xx_StdPeriph_Driver/src/stm32f4xx_dac.o
 .ARM.attributes
                0x00000365       0x37 ./STM32F4xx_StdPeriph_Driver/src/stm32f4xx_dbgmcu.o
 .ARM.attributes
                0x0000039c       0x37 ./STM32F4xx_StdPeriph_Driver/src/stm32f4xx_dma.o
 .ARM.attributes
                0x000003d3       0x37 ./STM32F4xx_StdPeriph_Driver/src/stm32f4xx_exti.o
 .ARM.attributes
                0x0000040a       0x37 ./STM32F4xx_StdPeriph_Driver/src/stm32f4xx_flash.o
 .ARM.attributes
                0x00000441       0x37 ./STM32F4xx_StdPeriph_Driver/src/stm32f4xx_fsmc.o
 .ARM.attributes
                0x00000478       0x37 ./STM32F4xx_StdPeriph_Driver/src/stm32f4xx_gpio.o
 .ARM.attributes
                0x000004af       0x37 ./STM32F4xx_StdPeriph_Driver/src/stm32f4xx_i2c.o
 .ARM.attributes
                0x000004e6       0x37 ./STM32F4xx_StdPeriph_Driver/src/stm32f4xx_iwdg.o
 .ARM.attributes
                0x0000051d       0x37 ./STM32F4xx_StdPeriph_Driver/src/stm32f4xx_pwr.o
 .ARM.attributes
                0x00000554       0x37 ./STM32F4xx_StdPeriph_Driver/src/stm32f4xx_rcc.o
 .ARM.attributes
                0x0000058b       0x37 ./STM32F4xx_StdPeriph_Driver/src/stm32f4xx_rng.o
 .ARM.attributes
                0x000005c2       0x37 ./STM32F4xx_StdPeriph_Driver/src/stm32f4xx_rtc.o
 .ARM.attributes
                0x000005f9       0x37 ./STM32F4xx_StdPeriph_Driver/src/stm32f4xx_sdio.o
 .ARM.attributes
                0x00000630       0x37 ./STM32F4xx_StdPeriph_Driver/src/stm32f4xx_spi.o
 .ARM.attributes
                0x00000667       0x37 ./STM32F4xx_StdPeriph_Driver/src/stm32f4xx_syscfg.o
 .ARM.attributes
                0x0000069e       0x37 ./STM32F4xx_StdPeriph_Driver/src/stm32f4xx_tim.o
 .ARM.attributes
                0x000006d5       0x37 ./STM32F4xx_StdPeriph_Driver/src/stm32f4xx_usart.o
 .ARM.attributes
                0x0000070c       0x37 ./STM32F4xx_StdPeriph_Driver/src/stm32f4xx_wwdg.o
 .ARM.attributes
                0x00000743       0x37 ./STM32F4-Discovery/stm32f4_discovery.o
 .ARM.attributes
                0x0000077a       0x37 ./STM32F4-Discovery/stm32f4_discovery_audio_codec.o
 .ARM.attributes
                0x000007b1       0x37 ./STM32F4-Discovery/stm32f4_discovery_lis302dl.o
 .ARM.attributes
                0x000007e8       0x37 ./Menue/CMenue.o
 .ARM.attributes
                0x0000081f       0x37 ./HelixMP3/real/bitstream.o
 .ARM.attributes
                0x00000856       0x37 ./HelixMP3/real/buffers.o
 .ARM.attributes
                0x0000088d       0x37 ./HelixMP3/real/dct32.o
 .ARM.attributes
                0x000008c4       0x37 ./HelixMP3/real/dequant.o
 .ARM.attributes
                0x000008fb       0x37 ./HelixMP3/real/dqchan.o
 .ARM.attributes
                0x00000932       0x37 ./HelixMP3/real/huffman.o
 .ARM.attributes
                0x00000969       0x37 ./HelixMP3/real/hufftabs.o
 .ARM.attributes
                0x000009a0       0x37 ./HelixMP3/real/imdct.o
 .ARM.attributes
                0x000009d7       0x37 ./HelixMP3/real/polyphase.o
 .ARM.attributes
                0x00000a0e       0x37 ./HelixMP3/real/scalfact.o
 .ARM.attributes
                0x00000a45       0x37 ./HelixMP3/real/stproc.o
 .ARM.attributes
                0x00000a7c       0x37 ./HelixMP3/real/subband.o
 .ARM.attributes
                0x00000ab3       0x37 ./HelixMP3/real/trigtabs.o
 .ARM.attributes
                0x00000aea       0x37 ./HelixMP3/mp3dec.o
 .ARM.attributes
                0x00000b21       0x37 ./HelixMP3/mp3tabs.o
 .ARM.attributes
                0x00000b58       0x37 ./GraphicLCD/CGraphicLCD.o
 .ARM.attributes
                0x00000b8f       0x37 ./GraphicLCD/CT6963CDriver.o
 .ARM.attributes
                0x00000bc6       0x37 ./GraphicLCD/CT6963GPIOInterface.o
 .ARM.attributes
                0x00000bfd       0x37 ./GraphicLCD/SansSerif12.o
 .ARM.attributes
                0x00000c34       0x37 ./GraphicLCD/SansSerif26.o
 .ARM.attributes
                0x00000c6b       0x37 ./FreeRTOS_EC/Source/AManagedTask.o
 .ARM.attributes
                0x00000ca2       0x37 ./FreeRTOS_EC/Source/ASyncObject.o
 .ARM.attributes
                0x00000cd9       0x37 ./FreeRTOS_EC/Source/ATimer.o
 .ARM.attributes
                0x00000d10       0x37 ./FreeRTOS_EC/Source/CBinarySemaphore.o
 .ARM.attributes
                0x00000d47       0x37 ./FreeRTOS_EC/Source/CCountingSemaphore.o
 .ARM.attributes
                0x00000d7e       0x37 ./FreeRTOS_EC/Source/CFreeRTOS.o
 .ARM.attributes
                0x00000db5       0x37 ./FreeRTOS_EC/Source/CMessageTask.o
 .ARM.attributes
                0x00000dec       0x37 ./FreeRTOS_EC/Source/CMutex.o
 .ARM.attributes
                0x00000e23       0x37 ./FreeRTOS_EC/Source/CQueue.o
 .ARM.attributes
                0x00000e5a       0x37 ./FreeRTOS_EC/Source/CRecursiveMutex.o
 .ARM.attributes
                0x00000e91       0x37 ./FreeRTOS_EC/Source/CTask.o
 .ARM.attributes
                0x00000ec8       0x37 ./FreeRTOS/Source/portable/GCC/ARM_CM4F/port.o
 .ARM.attributes
                0x00000eff       0x37 ./FreeRTOS/Source/croutine.o
 .ARM.attributes
                0x00000f36       0x37 ./FreeRTOS/Source/list.o
 .ARM.attributes
                0x00000f6d       0x37 ./FreeRTOS/Source/queue.o
 .ARM.attributes
                0x00000fa4       0x37 ./FreeRTOS/Source/tasks.o
 .ARM.attributes
                0x00000fdb       0x37 ./FreeRTOS/Source/timers.o
 .ARM.attributes
                0x00001012       0x37 ./Audio_MP3/USB_MSC/CUSBMassStorage.o
 .ARM.attributes
                0x00001049       0x37 ./Audio_MP3/USB_MSC/usb_bsp.o
 .ARM.attributes
                0x00001080       0x37 ./Audio_MP3/USB_MSC/usbh_usr.o
 .ARM.attributes
                0x000010b7       0x37 ./Audio_MP3/FatFs/src/option/syscall.o
 .ARM.attributes
                0x000010ee       0x37 ./Audio_MP3/FatFs/src/ff.o
 .ARM.attributes
                0x00001125       0x37 ./Audio_MP3/CFileHandler.o
 .ARM.attributes
                0x0000115c       0x37 ./Audio_MP3/fattime.o
 .ARM.attributes
                0x00001193       0x37 ./CLedHeartBeatSTM32F4Disc.o
 .ARM.attributes
                0x000011ca       0x37 ./main.o
 .ARM.attributes
                0x00001201       0x27 ./startup_stm32f4xx.o
 .ARM.attributes
                0x00001228       0x37 ./stm32f4xx_it.o
 .ARM.attributes
                0x0000125f       0x37 ./syscalls.o
 .ARM.attributes
                0x00001296       0x37 ./system_stm32f4xx.o
 .ARM.attributes
                0x000012cd       0x37 ./ustime.o
 .ARM.attributes
                0x00001304       0x2b d:/elektronik/ides/eclipse/yagarto/bin/../lib/gcc/arm-none-eabi/4.6.2/../../../../arm-none-eabi/lib/thumb/v7m\libstdc++.a(atexit_arm.o)
 .ARM.attributes
                0x0000132f       0x2b d:/elektronik/ides/eclipse/yagarto/bin/../lib/gcc/arm-none-eabi/4.6.2/../../../../arm-none-eabi/lib/thumb/v7m\libstdc++.a(del_op.o)
 .ARM.attributes
                0x0000135a       0x2b d:/elektronik/ides/eclipse/yagarto/bin/../lib/gcc/arm-none-eabi/4.6.2/../../../../arm-none-eabi/lib/thumb/v7m\libstdc++.a(pure.o)
 .ARM.attributes
                0x00001385       0x2b d:/elektronik/ides/eclipse/yagarto/bin/../lib/gcc/arm-none-eabi/4.6.2/../../../../arm-none-eabi/lib/thumb/v7m\libstdc++.a(eh_terminate.o)
 .ARM.attributes
                0x000013b0       0x2b d:/elektronik/ides/eclipse/yagarto/bin/../lib/gcc/arm-none-eabi/4.6.2/../../../../arm-none-eabi/lib/thumb/v7m\libstdc++.a(eh_term_handler.o)
 .ARM.attributes
                0x000013db       0x2b d:/elektronik/ides/eclipse/yagarto/bin/../lib/gcc/arm-none-eabi/4.6.2/../../../../arm-none-eabi/lib/thumb/v7m\libstdc++.a(eh_unex_handler.o)
 .ARM.attributes
                0x00001406       0x2b d:/elektronik/ides/eclipse/yagarto/bin/../lib/gcc/arm-none-eabi/4.6.2/../../../../arm-none-eabi/lib/thumb/v7m\libstdc++.a(vterminate.o)
 .ARM.attributes
                0x00001431       0x2b d:/elektronik/ides/eclipse/yagarto/bin/../lib/gcc/arm-none-eabi/4.6.2/../../../../arm-none-eabi/lib/thumb/v7m\libstdc++.a(cp-demangle.o)
 .ARM.attributes
                0x0000145c       0x2b d:/elektronik/ides/eclipse/yagarto/bin/../lib/gcc/arm-none-eabi/4.6.2/../../../../arm-none-eabi/lib/thumb/v7m\libstdc++.a(eh_arm.o)
 .ARM.attributes
                0x00001487       0x2b d:/elektronik/ides/eclipse/yagarto/bin/../lib/gcc/arm-none-eabi/4.6.2/../../../../arm-none-eabi/lib/thumb/v7m\libstdc++.a(eh_aux_runtime.o)
 .ARM.attributes
                0x000014b2       0x2b d:/elektronik/ides/eclipse/yagarto/bin/../lib/gcc/arm-none-eabi/4.6.2/../../../../arm-none-eabi/lib/thumb/v7m\libstdc++.a(eh_call.o)
 .ARM.attributes
                0x000014dd       0x2b d:/elektronik/ides/eclipse/yagarto/bin/../lib/gcc/arm-none-eabi/4.6.2/../../../../arm-none-eabi/lib/thumb/v7m\libstdc++.a(eh_catch.o)
 .ARM.attributes
                0x00001508       0x2b d:/elektronik/ides/eclipse/yagarto/bin/../lib/gcc/arm-none-eabi/4.6.2/../../../../arm-none-eabi/lib/thumb/v7m\libstdc++.a(eh_exception.o)
 .ARM.attributes
                0x00001533       0x2b d:/elektronik/ides/eclipse/yagarto/bin/../lib/gcc/arm-none-eabi/4.6.2/../../../../arm-none-eabi/lib/thumb/v7m\libstdc++.a(eh_globals.o)
 .ARM.attributes
                0x0000155e       0x2b d:/elektronik/ides/eclipse/yagarto/bin/../lib/gcc/arm-none-eabi/4.6.2/../../../../arm-none-eabi/lib/thumb/v7m\libstdc++.a(eh_personality.o)
 .ARM.attributes
                0x00001589       0x2b d:/elektronik/ides/eclipse/yagarto/bin/../lib/gcc/arm-none-eabi/4.6.2/../../../../arm-none-eabi/lib/thumb/v7m\libstdc++.a(eh_throw.o)
 .ARM.attributes
                0x000015b4       0x2b d:/elektronik/ides/eclipse/yagarto/bin/../lib/gcc/arm-none-eabi/4.6.2/../../../../arm-none-eabi/lib/thumb/v7m\libstdc++.a(eh_type.o)
 .ARM.attributes
                0x000015df       0x2b d:/elektronik/ides/eclipse/yagarto/bin/../lib/gcc/arm-none-eabi/4.6.2/../../../../arm-none-eabi/lib/thumb/v7m\libstdc++.a(fundamental_type_info.o)
 .ARM.attributes
                0x0000160a       0x2b d:/elektronik/ides/eclipse/yagarto/bin/../lib/gcc/arm-none-eabi/4.6.2/../../../../arm-none-eabi/lib/thumb/v7m\libstdc++.a(pointer_type_info.o)
 .ARM.attributes
                0x00001635       0x2b d:/elektronik/ides/eclipse/yagarto/bin/../lib/gcc/arm-none-eabi/4.6.2/../../../../arm-none-eabi/lib/thumb/v7m\libstdc++.a(si_class_type_info.o)
 .ARM.attributes
                0x00001660       0x2b d:/elektronik/ides/eclipse/yagarto/bin/../lib/gcc/arm-none-eabi/4.6.2/../../../../arm-none-eabi/lib/thumb/v7m\libstdc++.a(tinfo.o)
 .ARM.attributes
                0x0000168b       0x2b d:/elektronik/ides/eclipse/yagarto/bin/../lib/gcc/arm-none-eabi/4.6.2/../../../../arm-none-eabi/lib/thumb/v7m\libstdc++.a(bad_cast.o)
 .ARM.attributes
                0x000016b6       0x2b d:/elektronik/ides/eclipse/yagarto/bin/../lib/gcc/arm-none-eabi/4.6.2/../../../../arm-none-eabi/lib/thumb/v7m\libstdc++.a(bad_typeid.o)
 .ARM.attributes
                0x000016e1       0x2b d:/elektronik/ides/eclipse/yagarto/bin/../lib/gcc/arm-none-eabi/4.6.2/../../../../arm-none-eabi/lib/thumb/v7m\libstdc++.a(class_type_info.o)
 .ARM.attributes
                0x0000170c       0x2b d:/elektronik/ides/eclipse/yagarto/bin/../lib/gcc/arm-none-eabi/4.6.2/../../../../arm-none-eabi/lib/thumb/v7m\libstdc++.a(eh_alloc.o)
 .ARM.attributes
                0x00001737       0x2b d:/elektronik/ides/eclipse/yagarto/bin/../lib/gcc/arm-none-eabi/4.6.2/../../../../arm-none-eabi/lib/thumb/v7m\libstdc++.a(pbase_type_info.o)
 .ARM.attributes
                0x00001762       0x2b d:/elektronik/ides/eclipse/yagarto/bin/../lib/gcc/arm-none-eabi/4.6.2/thumb/v7m\libgcc.a(unwind-arm.o)
 .ARM.attributes
                0x0000178d       0x1d d:/elektronik/ides/eclipse/yagarto/bin/../lib/gcc/arm-none-eabi/4.6.2/thumb/v7m\libgcc.a(libunwind.o)
 .ARM.attributes
                0x000017aa       0x2b d:/elektronik/ides/eclipse/yagarto/bin/../lib/gcc/arm-none-eabi/4.6.2/thumb/v7m\libgcc.a(pr-support.o)
 .ARM.attributes
                0x000017d5       0x2b d:/elektronik/ides/eclipse/yagarto/bin/../lib/gcc/arm-none-eabi/4.6.2/../../../../arm-none-eabi/lib/thumb/v7m\libg.a(lib_a-abort.o)
 .ARM.attributes
                0x00001800       0x2b d:/elektronik/ides/eclipse/yagarto/bin/../lib/gcc/arm-none-eabi/4.6.2/../../../../arm-none-eabi/lib/thumb/v7m\libg.a(lib_a-assert.o)
 .ARM.attributes
                0x0000182b       0x2b d:/elektronik/ides/eclipse/yagarto/bin/../lib/gcc/arm-none-eabi/4.6.2/../../../../arm-none-eabi/lib/thumb/v7m\libg.a(lib_a-atexit.o)
 .ARM.attributes
                0x00001856       0x2b d:/elektronik/ides/eclipse/yagarto/bin/../lib/gcc/arm-none-eabi/4.6.2/../../../../arm-none-eabi/lib/thumb/v7m\libg.a(lib_a-cxa_atexit.o)
 .ARM.attributes
                0x00001881       0x2b d:/elektronik/ides/eclipse/yagarto/bin/../lib/gcc/arm-none-eabi/4.6.2/../../../../arm-none-eabi/lib/thumb/v7m\libg.a(lib_a-exit.o)
 .ARM.attributes
                0x000018ac       0x2b d:/elektronik/ides/eclipse/yagarto/bin/../lib/gcc/arm-none-eabi/4.6.2/../../../../arm-none-eabi/lib/thumb/v7m\libg.a(lib_a-fini.o)
 .ARM.attributes
                0x000018d7       0x2b d:/elektronik/ides/eclipse/yagarto/bin/../lib/gcc/arm-none-eabi/4.6.2/../../../../arm-none-eabi/lib/thumb/v7m\libg.a(lib_a-fiprintf.o)
 .ARM.attributes
                0x00001902       0x2b d:/elektronik/ides/eclipse/yagarto/bin/../lib/gcc/arm-none-eabi/4.6.2/../../../../arm-none-eabi/lib/thumb/v7m\libg.a(lib_a-fputc.o)
 .ARM.attributes
                0x0000192d       0x2b d:/elektronik/ides/eclipse/yagarto/bin/../lib/gcc/arm-none-eabi/4.6.2/../../../../arm-none-eabi/lib/thumb/v7m\libg.a(lib_a-fputs.o)
 .ARM.attributes
                0x00001958       0x2b d:/elektronik/ides/eclipse/yagarto/bin/../lib/gcc/arm-none-eabi/4.6.2/../../../../arm-none-eabi/lib/thumb/v7m\libg.a(lib_a-fvwrite.o)
 .ARM.attributes
                0x00001983       0x2b d:/elektronik/ides/eclipse/yagarto/bin/../lib/gcc/arm-none-eabi/4.6.2/../../../../arm-none-eabi/lib/thumb/v7m\libg.a(lib_a-fwrite.o)
 .ARM.attributes
                0x000019ae       0x2b d:/elektronik/ides/eclipse/yagarto/bin/../lib/gcc/arm-none-eabi/4.6.2/../../../../arm-none-eabi/lib/thumb/v7m\libg.a(lib_a-impure.o)
 .ARM.attributes
                0x000019d9       0x2b d:/elektronik/ides/eclipse/yagarto/bin/../lib/gcc/arm-none-eabi/4.6.2/../../../../arm-none-eabi/lib/thumb/v7m\libg.a(lib_a-init.o)
 .ARM.attributes
                0x00001a04       0x2b d:/elektronik/ides/eclipse/yagarto/bin/../lib/gcc/arm-none-eabi/4.6.2/../../../../arm-none-eabi/lib/thumb/v7m\libg.a(lib_a-malloc.o)
 .ARM.attributes
                0x00001a2f       0x2b d:/elektronik/ides/eclipse/yagarto/bin/../lib/gcc/arm-none-eabi/4.6.2/../../../../arm-none-eabi/lib/thumb/v7m\libg.a(lib_a-mallocr.o)
 .ARM.attributes
                0x00001a5a       0x2b d:/elektronik/ides/eclipse/yagarto/bin/../lib/gcc/arm-none-eabi/4.6.2/../../../../arm-none-eabi/lib/thumb/v7m\libg.a(lib_a-memchr.o)
 .ARM.attributes
                0x00001a85       0x2b d:/elektronik/ides/eclipse/yagarto/bin/../lib/gcc/arm-none-eabi/4.6.2/../../../../arm-none-eabi/lib/thumb/v7m\libg.a(lib_a-memcmp.o)
 .ARM.attributes
                0x00001ab0       0x2b d:/elektronik/ides/eclipse/yagarto/bin/../lib/gcc/arm-none-eabi/4.6.2/../../../../arm-none-eabi/lib/thumb/v7m\libg.a(lib_a-memcpy.o)
 .ARM.attributes
                0x00001adb       0x2b d:/elektronik/ides/eclipse/yagarto/bin/../lib/gcc/arm-none-eabi/4.6.2/../../../../arm-none-eabi/lib/thumb/v7m\libg.a(lib_a-memmove.o)
 .ARM.attributes
                0x00001b06       0x2b d:/elektronik/ides/eclipse/yagarto/bin/../lib/gcc/arm-none-eabi/4.6.2/../../../../arm-none-eabi/lib/thumb/v7m\libg.a(lib_a-memset.o)
 .ARM.attributes
                0x00001b31       0x2b d:/elektronik/ides/eclipse/yagarto/bin/../lib/gcc/arm-none-eabi/4.6.2/../../../../arm-none-eabi/lib/thumb/v7m\libg.a(lib_a-putc.o)
 .ARM.attributes
                0x00001b5c       0x2b d:/elektronik/ides/eclipse/yagarto/bin/../lib/gcc/arm-none-eabi/4.6.2/../../../../arm-none-eabi/lib/thumb/v7m\libg.a(lib_a-realloc.o)
 .ARM.attributes
                0x00001b87       0x2b d:/elektronik/ides/eclipse/yagarto/bin/../lib/gcc/arm-none-eabi/4.6.2/../../../../arm-none-eabi/lib/thumb/v7m\libg.a(lib_a-reallocr.o)
 .ARM.attributes
                0x00001bb2       0x2b d:/elektronik/ides/eclipse/yagarto/bin/../lib/gcc/arm-none-eabi/4.6.2/../../../../arm-none-eabi/lib/thumb/v7m\libg.a(lib_a-signal.o)
 .ARM.attributes
                0x00001bdd       0x2b d:/elektronik/ides/eclipse/yagarto/bin/../lib/gcc/arm-none-eabi/4.6.2/../../../../arm-none-eabi/lib/thumb/v7m\libg.a(lib_a-sprintf.o)
 .ARM.attributes
                0x00001c08       0x2b d:/elektronik/ides/eclipse/yagarto/bin/../lib/gcc/arm-none-eabi/4.6.2/../../../../arm-none-eabi/lib/thumb/v7m\libg.a(lib_a-strcat.o)
 .ARM.attributes
                0x00001c33       0x2b d:/elektronik/ides/eclipse/yagarto/bin/../lib/gcc/arm-none-eabi/4.6.2/../../../../arm-none-eabi/lib/thumb/v7m\libg.a(lib_a-strcmp.o)
 .ARM.attributes
                0x00001c5e       0x2b d:/elektronik/ides/eclipse/yagarto/bin/../lib/gcc/arm-none-eabi/4.6.2/../../../../arm-none-eabi/lib/thumb/v7m\libg.a(lib_a-strcpy.o)
 .ARM.attributes
                0x00001c89       0x2b d:/elektronik/ides/eclipse/yagarto/bin/../lib/gcc/arm-none-eabi/4.6.2/../../../../arm-none-eabi/lib/thumb/v7m\libg.a(lib_a-strlen.o)
 .ARM.attributes
                0x00001cb4       0x2b d:/elektronik/ides/eclipse/yagarto/bin/../lib/gcc/arm-none-eabi/4.6.2/../../../../arm-none-eabi/lib/thumb/v7m\libg.a(lib_a-strncmp.o)
 .ARM.attributes
                0x00001cdf       0x2b d:/elektronik/ides/eclipse/yagarto/bin/../lib/gcc/arm-none-eabi/4.6.2/../../../../arm-none-eabi/lib/thumb/v7m\libg.a(lib_a-strncpy.o)
 .ARM.attributes
                0x00001d0a       0x2b d:/elektronik/ides/eclipse/yagarto/bin/../lib/gcc/arm-none-eabi/4.6.2/../../../../arm-none-eabi/lib/thumb/v7m\libg.a(lib_a-svfprintf.o)
 .ARM.attributes
                0x00001d35       0x2b d:/elektronik/ides/eclipse/yagarto/bin/../lib/gcc/arm-none-eabi/4.6.2/../../../../arm-none-eabi/lib/thumb/v7m\libg.a(lib_a-syswrite.o)
 .ARM.attributes
                0x00001d60       0x2b d:/elektronik/ides/eclipse/yagarto/bin/../lib/gcc/arm-none-eabi/4.6.2/../../../../arm-none-eabi/lib/thumb/v7m\libg.a(lib_a-vfiprintf.o)
 .ARM.attributes
                0x00001d8b       0x2b d:/elektronik/ides/eclipse/yagarto/bin/../lib/gcc/arm-none-eabi/4.6.2/../../../../arm-none-eabi/lib/thumb/v7m\libg.a(lib_a-wbuf.o)
 .ARM.attributes
                0x00001db6       0x2b d:/elektronik/ides/eclipse/yagarto/bin/../lib/gcc/arm-none-eabi/4.6.2/../../../../arm-none-eabi/lib/thumb/v7m\libg.a(lib_a-wsetup.o)
 .ARM.attributes
                0x00001de1       0x2b d:/elektronik/ides/eclipse/yagarto/bin/../lib/gcc/arm-none-eabi/4.6.2/../../../../arm-none-eabi/lib/thumb/v7m\libg.a(lib_a-__atexit.o)
 .ARM.attributes
                0x00001e0c       0x2b d:/elektronik/ides/eclipse/yagarto/bin/../lib/gcc/arm-none-eabi/4.6.2/../../../../arm-none-eabi/lib/thumb/v7m\libg.a(lib_a-__call_atexit.o)
 .ARM.attributes
                0x00001e37       0x2b d:/elektronik/ides/eclipse/yagarto/bin/../lib/gcc/arm-none-eabi/4.6.2/../../../../arm-none-eabi/lib/thumb/v7m\libg.a(lib_a-dtoa.o)
 .ARM.attributes
                0x00001e62       0x2b d:/elektronik/ides/eclipse/yagarto/bin/../lib/gcc/arm-none-eabi/4.6.2/../../../../arm-none-eabi/lib/thumb/v7m\libg.a(lib_a-fflush.o)
 .ARM.attributes
                0x00001e8d       0x2b d:/elektronik/ides/eclipse/yagarto/bin/../lib/gcc/arm-none-eabi/4.6.2/../../../../arm-none-eabi/lib/thumb/v7m\libg.a(lib_a-findfp.o)
 .ARM.attributes
                0x00001eb8       0x2b d:/elektronik/ides/eclipse/yagarto/bin/../lib/gcc/arm-none-eabi/4.6.2/../../../../arm-none-eabi/lib/thumb/v7m\libg.a(lib_a-fputwc.o)
 .ARM.attributes
                0x00001ee3       0x2b d:/elektronik/ides/eclipse/yagarto/bin/../lib/gcc/arm-none-eabi/4.6.2/../../../../arm-none-eabi/lib/thumb/v7m\libg.a(lib_a-freer.o)
 .ARM.attributes
                0x00001f0e       0x2b d:/elektronik/ides/eclipse/yagarto/bin/../lib/gcc/arm-none-eabi/4.6.2/../../../../arm-none-eabi/lib/thumb/v7m\libg.a(lib_a-fwalk.o)
 .ARM.attributes
                0x00001f39       0x2b d:/elektronik/ides/eclipse/yagarto/bin/../lib/gcc/arm-none-eabi/4.6.2/../../../../arm-none-eabi/lib/thumb/v7m\libg.a(lib_a-locale.o)
 .ARM.attributes
                0x00001f64       0x2b d:/elektronik/ides/eclipse/yagarto/bin/../lib/gcc/arm-none-eabi/4.6.2/../../../../arm-none-eabi/lib/thumb/v7m\libg.a(lib_a-makebuf.o)
 .ARM.attributes
                0x00001f8f       0x2b d:/elektronik/ides/eclipse/yagarto/bin/../lib/gcc/arm-none-eabi/4.6.2/../../../../arm-none-eabi/lib/thumb/v7m\libg.a(lib_a-mprec.o)
 .ARM.attributes
                0x00001fba       0x2b d:/elektronik/ides/eclipse/yagarto/bin/../lib/gcc/arm-none-eabi/4.6.2/../../../../arm-none-eabi/lib/thumb/v7m\libg.a(lib_a-s_fpclassify.o)
 .ARM.attributes
                0x00001fe5       0x2b d:/elektronik/ides/eclipse/yagarto/bin/../lib/gcc/arm-none-eabi/4.6.2/../../../../arm-none-eabi/lib/thumb/v7m\libg.a(lib_a-stdio.o)
 .ARM.attributes
                0x00002010       0x2b d:/elektronik/ides/eclipse/yagarto/bin/../lib/gcc/arm-none-eabi/4.6.2/../../../../arm-none-eabi/lib/thumb/v7m\libg.a(lib_a-svfiprintf.o)
 .ARM.attributes
                0x0000203b       0x2b d:/elektronik/ides/eclipse/yagarto/bin/../lib/gcc/arm-none-eabi/4.6.2/../../../../arm-none-eabi/lib/thumb/v7m\libg.a(lib_a-wcrtomb.o)
 .ARM.attributes
                0x00002066       0x2b d:/elektronik/ides/eclipse/yagarto/bin/../lib/gcc/arm-none-eabi/4.6.2/../../../../arm-none-eabi/lib/thumb/v7m\libg.a(lib_a-wctomb_r.o)
 .ARM.attributes
                0x00002091       0x2b d:/elektronik/ides/eclipse/yagarto/bin/../lib/gcc/arm-none-eabi/4.6.2/../../../../arm-none-eabi/lib/thumb/v7m\libg.a(lib_a-callocr.o)
 .ARM.attributes
                0x000020bc       0x2b d:/elektronik/ides/eclipse/yagarto/bin/../lib/gcc/arm-none-eabi/4.6.2/../../../../arm-none-eabi/lib/thumb/v7m\libg.a(lib_a-fclose.o)
 .ARM.attributes
                0x000020e7       0x1d d:/elektronik/ides/eclipse/yagarto/bin/../lib/gcc/arm-none-eabi/4.6.2/thumb/v7m\libgcc.a(_udivsi3.o)
 .ARM.attributes
                0x00002104       0x1d d:/elektronik/ides/eclipse/yagarto/bin/../lib/gcc/arm-none-eabi/4.6.2/thumb/v7m\libgcc.a(_dvmd_tls.o)
 .ARM.attributes
                0x00002121       0x1d d:/elektronik/ides/eclipse/yagarto/bin/../lib/gcc/arm-none-eabi/4.6.2/thumb/v7m\libgcc.a(_arm_addsubdf3.o)
 .ARM.attributes
                0x0000213e       0x1d d:/elektronik/ides/eclipse/yagarto/bin/../lib/gcc/arm-none-eabi/4.6.2/thumb/v7m\libgcc.a(_arm_muldivdf3.o)
 .ARM.attributes
                0x0000215b       0x1d d:/elektronik/ides/eclipse/yagarto/bin/../lib/gcc/arm-none-eabi/4.6.2/thumb/v7m\libgcc.a(_arm_cmpdf2.o)
 .ARM.attributes
                0x00002178       0x1d d:/elektronik/ides/eclipse/yagarto/bin/../lib/gcc/arm-none-eabi/4.6.2/thumb/v7m\libgcc.a(_arm_fixdfsi.o)
 .ARM.attributes
                0x00002195       0x2b d:/elektronik/ides/eclipse/yagarto/bin/../lib/gcc/arm-none-eabi/4.6.2/thumb/v7m/crtend.o
 .ARM.attributes
                0x000021c0       0x1d d:/elektronik/ides/eclipse/yagarto/bin/../lib/gcc/arm-none-eabi/4.6.2/thumb/v7m/crtn.o
OUTPUT(ThunderCryer.elf elf32-littlearm)

.debug_line     0x00000000    0x2a299
 .debug_line    0x00000000       0x68 d:/elektronik/ides/eclipse/yagarto/bin/../lib/gcc/arm-none-eabi/4.6.2/thumb/v7m/crti.o
 .debug_line    0x00000068       0x8a d:/elektronik/ides/eclipse/yagarto/bin/../lib/gcc/arm-none-eabi/4.6.2/../../../../arm-none-eabi/lib/thumb/v7m/crt0.o
 .debug_line    0x000000f2      0x87c ./STM32_USB_OTG_Driver/src/usb_core.o
 .debug_line    0x0000096e      0x5ec ./STM32_USB_OTG_Driver/src/usb_hcd.o
 .debug_line    0x00000f5a      0x70b ./STM32_USB_OTG_Driver/src/usb_hcd_int.o
 .debug_line    0x00001665      0x81f ./STM32_USB_HOST_Library/Core/src/usbh_core.o
 .debug_line    0x00001e84      0x621 ./STM32_USB_HOST_Library/Core/src/usbh_hcs.o
 .debug_line    0x000024a5      0x641 ./STM32_USB_HOST_Library/Core/src/usbh_ioreq.o
 .debug_line    0x00002ae6      0x6a7 ./STM32_USB_HOST_Library/Core/src/usbh_stdreq.o
 .debug_line    0x0000318d      0x825 ./STM32_USB_HOST_Library/Class/MSC/src/usbh_msc_bot.o
 .debug_line    0x000039b2      0x7d4 ./STM32_USB_HOST_Library/Class/MSC/src/usbh_msc_core.o
 .debug_line    0x00004186      0x809 ./STM32_USB_HOST_Library/Class/MSC/src/usbh_msc_fatfs.o
 .debug_line    0x0000498f      0x89c ./STM32_USB_HOST_Library/Class/MSC/src/usbh_msc_scsi.o
 .debug_line    0x0000522b      0x43b ./STM32F4xx_StdPeriph_Driver/src/misc.o
 .debug_line    0x00005666      0x5a0 ./STM32F4xx_StdPeriph_Driver/src/stm32f4xx_adc.o
 .debug_line    0x00005c06      0x4b3 ./STM32F4xx_StdPeriph_Driver/src/stm32f4xx_dac.o
 .debug_line    0x000060b9      0x44e ./STM32F4xx_StdPeriph_Driver/src/stm32f4xx_dbgmcu.o
 .debug_line    0x00006507      0x516 ./STM32F4xx_StdPeriph_Driver/src/stm32f4xx_dma.o
 .debug_line    0x00006a1d      0x46a ./STM32F4xx_StdPeriph_Driver/src/stm32f4xx_exti.o
 .debug_line    0x00006e87      0x541 ./STM32F4xx_StdPeriph_Driver/src/stm32f4xx_flash.o
 .debug_line    0x000073c8      0x58f ./STM32F4xx_StdPeriph_Driver/src/stm32f4xx_fsmc.o
 .debug_line    0x00007957      0x4b1 ./STM32F4xx_StdPeriph_Driver/src/stm32f4xx_gpio.o
 .debug_line    0x00007e08      0x545 ./STM32F4xx_StdPeriph_Driver/src/stm32f4xx_i2c.o
 .debug_line    0x0000834d      0x450 ./STM32F4xx_StdPeriph_Driver/src/stm32f4xx_iwdg.o
 .debug_line    0x0000879d      0x483 ./STM32F4xx_StdPeriph_Driver/src/stm32f4xx_pwr.o
 .debug_line    0x00008c20      0x58f ./STM32F4xx_StdPeriph_Driver/src/stm32f4xx_rcc.o
 .debug_line    0x000091af      0x462 ./STM32F4xx_StdPeriph_Driver/src/stm32f4xx_rng.o
 .debug_line    0x00009611      0x756 ./STM32F4xx_StdPeriph_Driver/src/stm32f4xx_rtc.o
 .debug_line    0x00009d67      0x4e1 ./STM32F4xx_StdPeriph_Driver/src/stm32f4xx_sdio.o
 .debug_line    0x0000a248      0x537 ./STM32F4xx_StdPeriph_Driver/src/stm32f4xx_spi.o
 .debug_line    0x0000a77f      0x443 ./STM32F4xx_StdPeriph_Driver/src/stm32f4xx_syscfg.o
 .debug_line    0x0000abc2      0x7f3 ./STM32F4xx_StdPeriph_Driver/src/stm32f4xx_tim.o
 .debug_line    0x0000b3b5      0x55b ./STM32F4xx_StdPeriph_Driver/src/stm32f4xx_usart.o
 .debug_line    0x0000b910      0x44b ./STM32F4xx_StdPeriph_Driver/src/stm32f4xx_wwdg.o
 .debug_line    0x0000bd5b      0x45e ./STM32F4-Discovery/stm32f4_discovery.o
 .debug_line    0x0000c1b9      0x73e ./STM32F4-Discovery/stm32f4_discovery_audio_codec.o
 .debug_line    0x0000c8f7      0x53b ./STM32F4-Discovery/stm32f4_discovery_lis302dl.o
 .debug_line    0x0000ce32      0x977 ./Menue/CMenue.o
 .debug_line    0x0000d7a9      0x30f ./HelixMP3/real/bitstream.o
 .debug_line    0x0000dab8      0x106 ./HelixMP3/real/buffers.o
 .debug_line    0x0000dbbe      0x346 ./HelixMP3/real/dct32.o
 .debug_line    0x0000df04      0x19a ./HelixMP3/real/dequant.o
 .debug_line    0x0000e09e      0x261 ./HelixMP3/real/dqchan.o
 .debug_line    0x0000e2ff      0x2dd ./HelixMP3/real/huffman.o
 .debug_line    0x0000e5dc       0xc6 ./HelixMP3/real/hufftabs.o
 .debug_line    0x0000e6a2      0x5ce ./HelixMP3/real/imdct.o
 .debug_line    0x0000ec70      0x251 ./HelixMP3/real/polyphase.o
 .debug_line    0x0000eec1      0x2de ./HelixMP3/real/scalfact.o
 .debug_line    0x0000f19f      0x2c2 ./HelixMP3/real/stproc.o
 .debug_line    0x0000f461      0x140 ./HelixMP3/real/subband.o
 .debug_line    0x0000f5a1       0xc6 ./HelixMP3/real/trigtabs.o
 .debug_line    0x0000f667      0x3b1 ./HelixMP3/mp3dec.o
 .debug_line    0x0000fa18       0xb5 ./HelixMP3/mp3tabs.o
 .debug_line    0x0000facd       0x7c ./GraphicLCD/CGraphicLCD.o
 .debug_line    0x0000fb49      0x234 ./GraphicLCD/CT6963CDriver.o
 .debug_line    0x0000fd7d      0x6a2 ./GraphicLCD/CT6963GPIOInterface.o
 .debug_line    0x0001041f       0x60 ./GraphicLCD/SansSerif12.o
 .debug_line    0x0001047f       0x60 ./GraphicLCD/SansSerif26.o
 .debug_line    0x000104df      0x6d1 ./FreeRTOS_EC/Source/AManagedTask.o
 .debug_line    0x00010bb0      0x6f5 ./FreeRTOS_EC/Source/ASyncObject.o
 .debug_line    0x000112a5      0x685 ./FreeRTOS_EC/Source/ATimer.o
 .debug_line    0x0001192a      0x732 ./FreeRTOS_EC/Source/CBinarySemaphore.o
 .debug_line    0x0001205c      0x72e ./FreeRTOS_EC/Source/CCountingSemaphore.o
 .debug_line    0x0001278a      0x5c6 ./FreeRTOS_EC/Source/CFreeRTOS.o
 .debug_line    0x00012d50      0x8df ./FreeRTOS_EC/Source/CMessageTask.o
 .debug_line    0x0001362f      0x717 ./FreeRTOS_EC/Source/CMutex.o
 .debug_line    0x00013d46      0x6f3 ./FreeRTOS_EC/Source/CQueue.o
 .debug_line    0x00014439      0x716 ./FreeRTOS_EC/Source/CRecursiveMutex.o
 .debug_line    0x00014b4f      0x6f7 ./FreeRTOS_EC/Source/CTask.o
 .debug_line    0x00015246      0x5c8 ./FreeRTOS/Source/portable/GCC/ARM_CM4F/port.o
 .debug_line    0x0001580e      0x65c ./FreeRTOS/Source/croutine.o
 .debug_line    0x00015e6a      0x6e5 ./FreeRTOS/Source/list.o
 .debug_line    0x0001654f      0x81e ./FreeRTOS/Source/queue.o
 .debug_line    0x00016d6d      0xb0f ./FreeRTOS/Source/tasks.o
 .debug_line    0x0001787c      0x57d ./FreeRTOS/Source/timers.o
 .debug_line    0x00017df9      0xb81 ./Audio_MP3/USB_MSC/CUSBMassStorage.o
 .debug_line    0x0001897a      0x5d2 ./Audio_MP3/USB_MSC/usb_bsp.o
 .debug_line    0x00018f4c      0xabc ./Audio_MP3/USB_MSC/usbh_usr.o
 .debug_line    0x00019a08      0x707 ./Audio_MP3/FatFs/src/option/syscall.o
 .debug_line    0x0001a10f      0xb95 ./Audio_MP3/FatFs/src/ff.o
 .debug_line    0x0001aca4      0xcca ./Audio_MP3/CFileHandler.o
 .debug_line    0x0001b96e       0xbf ./Audio_MP3/fattime.o
 .debug_line    0x0001ba2d      0x713 ./CLedHeartBeatSTM32F4Disc.o
 .debug_line    0x0001c140      0xd4c ./main.o
 .debug_line    0x0001ce8c       0x70 ./startup_stm32f4xx.o
 .debug_line    0x0001cefc      0xac9 ./stm32f4xx_it.o
 .debug_line    0x0001d9c5      0x780 ./syscalls.o
 .debug_line    0x0001e145      0x462 ./system_stm32f4xx.o
 .debug_line    0x0001e5a7      0x584 ./ustime.o
 .debug_line    0x0001eb2b       0xc8 d:/elektronik/ides/eclipse/yagarto/bin/../lib/gcc/arm-none-eabi/4.6.2/../../../../arm-none-eabi/lib/thumb/v7m\libstdc++.a(atexit_arm.o)
 .debug_line    0x0001ebf3      0x156 d:/elektronik/ides/eclipse/yagarto/bin/../lib/gcc/arm-none-eabi/4.6.2/../../../../arm-none-eabi/lib/thumb/v7m\libstdc++.a(del_op.o)
 .debug_line    0x0001ed49       0xc2 d:/elektronik/ides/eclipse/yagarto/bin/../lib/gcc/arm-none-eabi/4.6.2/../../../../arm-none-eabi/lib/thumb/v7m\libstdc++.a(pure.o)
 .debug_line    0x0001ee0b      0x213 d:/elektronik/ides/eclipse/yagarto/bin/../lib/gcc/arm-none-eabi/4.6.2/../../../../arm-none-eabi/lib/thumb/v7m\libstdc++.a(eh_terminate.o)
 .debug_line    0x0001f01e       0xbb d:/elektronik/ides/eclipse/yagarto/bin/../lib/gcc/arm-none-eabi/4.6.2/../../../../arm-none-eabi/lib/thumb/v7m\libstdc++.a(eh_term_handler.o)
 .debug_line    0x0001f0d9       0xbb d:/elektronik/ides/eclipse/yagarto/bin/../lib/gcc/arm-none-eabi/4.6.2/../../../../arm-none-eabi/lib/thumb/v7m\libstdc++.a(eh_unex_handler.o)
 .debug_line    0x0001f194      0x271 d:/elektronik/ides/eclipse/yagarto/bin/../lib/gcc/arm-none-eabi/4.6.2/../../../../arm-none-eabi/lib/thumb/v7m\libstdc++.a(vterminate.o)
 .debug_line    0x0001f405      0xf98 d:/elektronik/ides/eclipse/yagarto/bin/../lib/gcc/arm-none-eabi/4.6.2/../../../../arm-none-eabi/lib/thumb/v7m\libstdc++.a(cp-demangle.o)
 .debug_line    0x0002039d      0x224 d:/elektronik/ides/eclipse/yagarto/bin/../lib/gcc/arm-none-eabi/4.6.2/../../../../arm-none-eabi/lib/thumb/v7m\libstdc++.a(eh_arm.o)
 .debug_line    0x000205c1      0x1ef d:/elektronik/ides/eclipse/yagarto/bin/../lib/gcc/arm-none-eabi/4.6.2/../../../../arm-none-eabi/lib/thumb/v7m\libstdc++.a(eh_aux_runtime.o)
 .debug_line    0x000207b0      0x27f d:/elektronik/ides/eclipse/yagarto/bin/../lib/gcc/arm-none-eabi/4.6.2/../../../../arm-none-eabi/lib/thumb/v7m\libstdc++.a(eh_call.o)
 .debug_line    0x00020a2f      0x280 d:/elektronik/ides/eclipse/yagarto/bin/../lib/gcc/arm-none-eabi/4.6.2/../../../../arm-none-eabi/lib/thumb/v7m\libstdc++.a(eh_catch.o)
 .debug_line    0x00020caf      0x1d3 d:/elektronik/ides/eclipse/yagarto/bin/../lib/gcc/arm-none-eabi/4.6.2/../../../../arm-none-eabi/lib/thumb/v7m\libstdc++.a(eh_exception.o)
 .debug_line    0x00020e82      0x1d9 d:/elektronik/ides/eclipse/yagarto/bin/../lib/gcc/arm-none-eabi/4.6.2/../../../../arm-none-eabi/lib/thumb/v7m\libstdc++.a(eh_globals.o)
 .debug_line    0x0002105b      0x5b1 d:/elektronik/ides/eclipse/yagarto/bin/../lib/gcc/arm-none-eabi/4.6.2/../../../../arm-none-eabi/lib/thumb/v7m\libstdc++.a(eh_personality.o)
 .debug_line    0x0002160c      0x226 d:/elektronik/ides/eclipse/yagarto/bin/../lib/gcc/arm-none-eabi/4.6.2/../../../../arm-none-eabi/lib/thumb/v7m\libstdc++.a(eh_throw.o)
 .debug_line    0x00021832      0x120 d:/elektronik/ides/eclipse/yagarto/bin/../lib/gcc/arm-none-eabi/4.6.2/../../../../arm-none-eabi/lib/thumb/v7m\libstdc++.a(eh_type.o)
 .debug_line    0x00021952       0xf3 d:/elektronik/ides/eclipse/yagarto/bin/../lib/gcc/arm-none-eabi/4.6.2/../../../../arm-none-eabi/lib/thumb/v7m\libstdc++.a(fundamental_type_info.o)
 .debug_line    0x00021a45      0x128 d:/elektronik/ides/eclipse/yagarto/bin/../lib/gcc/arm-none-eabi/4.6.2/../../../../arm-none-eabi/lib/thumb/v7m\libstdc++.a(pointer_type_info.o)
 .debug_line    0x00021b6d      0x186 d:/elektronik/ides/eclipse/yagarto/bin/../lib/gcc/arm-none-eabi/4.6.2/../../../../arm-none-eabi/lib/thumb/v7m\libstdc++.a(si_class_type_info.o)
 .debug_line    0x00021cf3      0x15a d:/elektronik/ides/eclipse/yagarto/bin/../lib/gcc/arm-none-eabi/4.6.2/../../../../arm-none-eabi/lib/thumb/v7m\libstdc++.a(tinfo.o)
 .debug_line    0x00021e4d       0xe4 d:/elektronik/ides/eclipse/yagarto/bin/../lib/gcc/arm-none-eabi/4.6.2/../../../../arm-none-eabi/lib/thumb/v7m\libstdc++.a(bad_cast.o)
 .debug_line    0x00021f31       0xe6 d:/elektronik/ides/eclipse/yagarto/bin/../lib/gcc/arm-none-eabi/4.6.2/../../../../arm-none-eabi/lib/thumb/v7m\libstdc++.a(bad_typeid.o)
 .debug_line    0x00022017      0x1d6 d:/elektronik/ides/eclipse/yagarto/bin/../lib/gcc/arm-none-eabi/4.6.2/../../../../arm-none-eabi/lib/thumb/v7m\libstdc++.a(class_type_info.o)
 .debug_line    0x000221ed      0x34f d:/elektronik/ides/eclipse/yagarto/bin/../lib/gcc/arm-none-eabi/4.6.2/../../../../arm-none-eabi/lib/thumb/v7m\libstdc++.a(eh_alloc.o)
 .debug_line    0x0002253c      0x14f d:/elektronik/ides/eclipse/yagarto/bin/../lib/gcc/arm-none-eabi/4.6.2/../../../../arm-none-eabi/lib/thumb/v7m\libstdc++.a(pbase_type_info.o)
 .debug_line    0x0002268b      0x4aa d:/elektronik/ides/eclipse/yagarto/bin/../lib/gcc/arm-none-eabi/4.6.2/thumb/v7m\libgcc.a(unwind-arm.o)
 .debug_line    0x00022b35       0xbd d:/elektronik/ides/eclipse/yagarto/bin/../lib/gcc/arm-none-eabi/4.6.2/thumb/v7m\libgcc.a(libunwind.o)
 .debug_line    0x00022bf2      0x1d5 d:/elektronik/ides/eclipse/yagarto/bin/../lib/gcc/arm-none-eabi/4.6.2/thumb/v7m\libgcc.a(pr-support.o)
 .debug_line    0x00022dc7       0xb6 d:/elektronik/ides/eclipse/yagarto/bin/../lib/gcc/arm-none-eabi/4.6.2/../../../../arm-none-eabi/lib/thumb/v7m\libg.a(lib_a-abort.o)
 .debug_line    0x00022e7d      0x182 d:/elektronik/ides/eclipse/yagarto/bin/../lib/gcc/arm-none-eabi/4.6.2/../../../../arm-none-eabi/lib/thumb/v7m\libg.a(lib_a-assert.o)
 .debug_line    0x00022fff       0xc5 d:/elektronik/ides/eclipse/yagarto/bin/../lib/gcc/arm-none-eabi/4.6.2/../../../../arm-none-eabi/lib/thumb/v7m\libg.a(lib_a-atexit.o)
 .debug_line    0x000230c4       0x82 d:/elektronik/ides/eclipse/yagarto/bin/../lib/gcc/arm-none-eabi/4.6.2/../../../../arm-none-eabi/lib/thumb/v7m\libg.a(lib_a-cxa_atexit.o)
 .debug_line    0x00023146      0x171 d:/elektronik/ides/eclipse/yagarto/bin/../lib/gcc/arm-none-eabi/4.6.2/../../../../arm-none-eabi/lib/thumb/v7m\libg.a(lib_a-exit.o)
 .debug_line    0x000232b7       0xd3 d:/elektronik/ides/eclipse/yagarto/bin/../lib/gcc/arm-none-eabi/4.6.2/../../../../arm-none-eabi/lib/thumb/v7m\libg.a(lib_a-fini.o)
 .debug_line    0x0002338a      0x196 d:/elektronik/ides/eclipse/yagarto/bin/../lib/gcc/arm-none-eabi/4.6.2/../../../../arm-none-eabi/lib/thumb/v7m\libg.a(lib_a-fiprintf.o)
 .debug_line    0x00023520      0x193 d:/elektronik/ides/eclipse/yagarto/bin/../lib/gcc/arm-none-eabi/4.6.2/../../../../arm-none-eabi/lib/thumb/v7m\libg.a(lib_a-fputc.o)
 .debug_line    0x000236b3      0x1a2 d:/elektronik/ides/eclipse/yagarto/bin/../lib/gcc/arm-none-eabi/4.6.2/../../../../arm-none-eabi/lib/thumb/v7m\libg.a(lib_a-fputs.o)
 .debug_line    0x00023855      0x29b d:/elektronik/ides/eclipse/yagarto/bin/../lib/gcc/arm-none-eabi/4.6.2/../../../../arm-none-eabi/lib/thumb/v7m\libg.a(lib_a-fvwrite.o)
 .debug_line    0x00023af0      0x1aa d:/elektronik/ides/eclipse/yagarto/bin/../lib/gcc/arm-none-eabi/4.6.2/../../../../arm-none-eabi/lib/thumb/v7m\libg.a(lib_a-fwrite.o)
 .debug_line    0x00023c9a      0x116 d:/elektronik/ides/eclipse/yagarto/bin/../lib/gcc/arm-none-eabi/4.6.2/../../../../arm-none-eabi/lib/thumb/v7m\libg.a(lib_a-impure.o)
 .debug_line    0x00023db0       0xf0 d:/elektronik/ides/eclipse/yagarto/bin/../lib/gcc/arm-none-eabi/4.6.2/../../../../arm-none-eabi/lib/thumb/v7m\libg.a(lib_a-init.o)
 .debug_line    0x00023ea0      0x179 d:/elektronik/ides/eclipse/yagarto/bin/../lib/gcc/arm-none-eabi/4.6.2/../../../../arm-none-eabi/lib/thumb/v7m\libg.a(lib_a-malloc.o)
 .debug_line    0x00024019      0x309 d:/elektronik/ides/eclipse/yagarto/bin/../lib/gcc/arm-none-eabi/4.6.2/../../../../arm-none-eabi/lib/thumb/v7m\libg.a(lib_a-mallocr.o)
 .debug_line    0x00024322      0x151 d:/elektronik/ides/eclipse/yagarto/bin/../lib/gcc/arm-none-eabi/4.6.2/../../../../arm-none-eabi/lib/thumb/v7m\libg.a(lib_a-memchr.o)
 .debug_line    0x00024473      0x147 d:/elektronik/ides/eclipse/yagarto/bin/../lib/gcc/arm-none-eabi/4.6.2/../../../../arm-none-eabi/lib/thumb/v7m\libg.a(lib_a-memcmp.o)
 .debug_line    0x000245ba      0x175 d:/elektronik/ides/eclipse/yagarto/bin/../lib/gcc/arm-none-eabi/4.6.2/../../../../arm-none-eabi/lib/thumb/v7m\libg.a(lib_a-memcpy.o)
 .debug_line    0x0002472f      0x19d d:/elektronik/ides/eclipse/yagarto/bin/../lib/gcc/arm-none-eabi/4.6.2/../../../../arm-none-eabi/lib/thumb/v7m\libg.a(lib_a-memmove.o)
 .debug_line    0x000248cc      0x183 d:/elektronik/ides/eclipse/yagarto/bin/../lib/gcc/arm-none-eabi/4.6.2/../../../../arm-none-eabi/lib/thumb/v7m\libg.a(lib_a-memset.o)
 .debug_line    0x00024a4f      0x20d d:/elektronik/ides/eclipse/yagarto/bin/../lib/gcc/arm-none-eabi/4.6.2/../../../../arm-none-eabi/lib/thumb/v7m\libg.a(lib_a-putc.o)
 .debug_line    0x00024c5c      0x175 d:/elektronik/ides/eclipse/yagarto/bin/../lib/gcc/arm-none-eabi/4.6.2/../../../../arm-none-eabi/lib/thumb/v7m\libg.a(lib_a-realloc.o)
 .debug_line    0x00024dd1      0x28d d:/elektronik/ides/eclipse/yagarto/bin/../lib/gcc/arm-none-eabi/4.6.2/../../../../arm-none-eabi/lib/thumb/v7m\libg.a(lib_a-reallocr.o)
 .debug_line    0x0002505e      0x20a d:/elektronik/ides/eclipse/yagarto/bin/../lib/gcc/arm-none-eabi/4.6.2/../../../../arm-none-eabi/lib/thumb/v7m\libg.a(lib_a-signal.o)
 .debug_line    0x00025268      0x1c9 d:/elektronik/ides/eclipse/yagarto/bin/../lib/gcc/arm-none-eabi/4.6.2/../../../../arm-none-eabi/lib/thumb/v7m\libg.a(lib_a-sprintf.o)
 .debug_line    0x00025431       0xf2 d:/elektronik/ides/eclipse/yagarto/bin/../lib/gcc/arm-none-eabi/4.6.2/../../../../arm-none-eabi/lib/thumb/v7m\libg.a(lib_a-strcat.o)
 .debug_line    0x00025523       0xca d:/elektronik/ides/eclipse/yagarto/bin/../lib/gcc/arm-none-eabi/4.6.2/../../../../arm-none-eabi/lib/thumb/v7m\libg.a(lib_a-strcmp.o)
 .debug_line    0x000255ed       0xbe d:/elektronik/ides/eclipse/yagarto/bin/../lib/gcc/arm-none-eabi/4.6.2/../../../../arm-none-eabi/lib/thumb/v7m\libg.a(lib_a-strcpy.o)
 .debug_line    0x000256ab      0x117 d:/elektronik/ides/eclipse/yagarto/bin/../lib/gcc/arm-none-eabi/4.6.2/../../../../arm-none-eabi/lib/thumb/v7m\libg.a(lib_a-strlen.o)
 .debug_line    0x000257c2      0x186 d:/elektronik/ides/eclipse/yagarto/bin/../lib/gcc/arm-none-eabi/4.6.2/../../../../arm-none-eabi/lib/thumb/v7m\libg.a(lib_a-strncmp.o)
 .debug_line    0x00025948      0x13d d:/elektronik/ides/eclipse/yagarto/bin/../lib/gcc/arm-none-eabi/4.6.2/../../../../arm-none-eabi/lib/thumb/v7m\libg.a(lib_a-strncpy.o)
 .debug_line    0x00025a85      0x921 d:/elektronik/ides/eclipse/yagarto/bin/../lib/gcc/arm-none-eabi/4.6.2/../../../../arm-none-eabi/lib/thumb/v7m\libg.a(lib_a-svfprintf.o)
 .debug_line    0x000263a6      0x13b d:/elektronik/ides/eclipse/yagarto/bin/../lib/gcc/arm-none-eabi/4.6.2/../../../../arm-none-eabi/lib/thumb/v7m\libg.a(lib_a-syswrite.o)
 .debug_line    0x000264e1      0x63d d:/elektronik/ides/eclipse/yagarto/bin/../lib/gcc/arm-none-eabi/4.6.2/../../../../arm-none-eabi/lib/thumb/v7m\libg.a(lib_a-vfiprintf.o)
 .debug_line    0x00026b1e      0x1c8 d:/elektronik/ides/eclipse/yagarto/bin/../lib/gcc/arm-none-eabi/4.6.2/../../../../arm-none-eabi/lib/thumb/v7m\libg.a(lib_a-wbuf.o)
 .debug_line    0x00026ce6      0x1ac d:/elektronik/ides/eclipse/yagarto/bin/../lib/gcc/arm-none-eabi/4.6.2/../../../../arm-none-eabi/lib/thumb/v7m\libg.a(lib_a-wsetup.o)
 .debug_line    0x00026e92      0x166 d:/elektronik/ides/eclipse/yagarto/bin/../lib/gcc/arm-none-eabi/4.6.2/../../../../arm-none-eabi/lib/thumb/v7m\libg.a(lib_a-__atexit.o)
 .debug_line    0x00026ff8      0x19c d:/elektronik/ides/eclipse/yagarto/bin/../lib/gcc/arm-none-eabi/4.6.2/../../../../arm-none-eabi/lib/thumb/v7m\libg.a(lib_a-__call_atexit.o)
 .debug_line    0x00027194      0x770 d:/elektronik/ides/eclipse/yagarto/bin/../lib/gcc/arm-none-eabi/4.6.2/../../../../arm-none-eabi/lib/thumb/v7m\libg.a(lib_a-dtoa.o)
 .debug_line    0x00027904      0x20f d:/elektronik/ides/eclipse/yagarto/bin/../lib/gcc/arm-none-eabi/4.6.2/../../../../arm-none-eabi/lib/thumb/v7m\libg.a(lib_a-fflush.o)
 .debug_line    0x00027b13      0x231 d:/elektronik/ides/eclipse/yagarto/bin/../lib/gcc/arm-none-eabi/4.6.2/../../../../arm-none-eabi/lib/thumb/v7m\libg.a(lib_a-findfp.o)
 .debug_line    0x00027d44      0x1b5 d:/elektronik/ides/eclipse/yagarto/bin/../lib/gcc/arm-none-eabi/4.6.2/../../../../arm-none-eabi/lib/thumb/v7m\libg.a(lib_a-fputwc.o)
 .debug_line    0x00027ef9      0x1ef d:/elektronik/ides/eclipse/yagarto/bin/../lib/gcc/arm-none-eabi/4.6.2/../../../../arm-none-eabi/lib/thumb/v7m\libg.a(lib_a-freer.o)
 .debug_line    0x000280e8      0x196 d:/elektronik/ides/eclipse/yagarto/bin/../lib/gcc/arm-none-eabi/4.6.2/../../../../arm-none-eabi/lib/thumb/v7m\libg.a(lib_a-fwalk.o)
 .debug_line    0x0002827e      0x1aa d:/elektronik/ides/eclipse/yagarto/bin/../lib/gcc/arm-none-eabi/4.6.2/../../../../arm-none-eabi/lib/thumb/v7m\libg.a(lib_a-locale.o)
 .debug_line    0x00028428      0x1ed d:/elektronik/ides/eclipse/yagarto/bin/../lib/gcc/arm-none-eabi/4.6.2/../../../../arm-none-eabi/lib/thumb/v7m\libg.a(lib_a-makebuf.o)
 .debug_line    0x00028615      0x61f d:/elektronik/ides/eclipse/yagarto/bin/../lib/gcc/arm-none-eabi/4.6.2/../../../../arm-none-eabi/lib/thumb/v7m\libg.a(lib_a-mprec.o)
 .debug_line    0x00028c34      0x140 d:/elektronik/ides/eclipse/yagarto/bin/../lib/gcc/arm-none-eabi/4.6.2/../../../../arm-none-eabi/lib/thumb/v7m\libg.a(lib_a-s_fpclassify.o)
 .debug_line    0x00028d74      0x19f d:/elektronik/ides/eclipse/yagarto/bin/../lib/gcc/arm-none-eabi/4.6.2/../../../../arm-none-eabi/lib/thumb/v7m\libg.a(lib_a-stdio.o)
 .debug_line    0x00028f13      0x607 d:/elektronik/ides/eclipse/yagarto/bin/../lib/gcc/arm-none-eabi/4.6.2/../../../../arm-none-eabi/lib/thumb/v7m\libg.a(lib_a-svfiprintf.o)
 .debug_line    0x0002951a      0x19c d:/elektronik/ides/eclipse/yagarto/bin/../lib/gcc/arm-none-eabi/4.6.2/../../../../arm-none-eabi/lib/thumb/v7m\libg.a(lib_a-wcrtomb.o)
 .debug_line    0x000296b6      0x19e d:/elektronik/ides/eclipse/yagarto/bin/../lib/gcc/arm-none-eabi/4.6.2/../../../../arm-none-eabi/lib/thumb/v7m\libg.a(lib_a-wctomb_r.o)
 .debug_line    0x00029854      0x154 d:/elektronik/ides/eclipse/yagarto/bin/../lib/gcc/arm-none-eabi/4.6.2/../../../../arm-none-eabi/lib/thumb/v7m\libg.a(lib_a-callocr.o)
 .debug_line    0x000299a8      0x1b6 d:/elektronik/ides/eclipse/yagarto/bin/../lib/gcc/arm-none-eabi/4.6.2/../../../../arm-none-eabi/lib/thumb/v7m\libg.a(lib_a-fclose.o)
 .debug_line    0x00029b5e       0x93 d:/elektronik/ides/eclipse/yagarto/bin/../lib/gcc/arm-none-eabi/4.6.2/thumb/v7m\libgcc.a(_udivsi3.o)
 .debug_line    0x00029bf1       0x70 d:/elektronik/ides/eclipse/yagarto/bin/../lib/gcc/arm-none-eabi/4.6.2/thumb/v7m\libgcc.a(_dvmd_tls.o)
 .debug_line    0x00029c61      0x20d d:/elektronik/ides/eclipse/yagarto/bin/../lib/gcc/arm-none-eabi/4.6.2/thumb/v7m\libgcc.a(_arm_addsubdf3.o)
 .debug_line    0x00029e6e      0x229 d:/elektronik/ides/eclipse/yagarto/bin/../lib/gcc/arm-none-eabi/4.6.2/thumb/v7m\libgcc.a(_arm_muldivdf3.o)
 .debug_line    0x0002a097      0x10f d:/elektronik/ides/eclipse/yagarto/bin/../lib/gcc/arm-none-eabi/4.6.2/thumb/v7m\libgcc.a(_arm_cmpdf2.o)
 .debug_line    0x0002a1a6       0x87 d:/elektronik/ides/eclipse/yagarto/bin/../lib/gcc/arm-none-eabi/4.6.2/thumb/v7m\libgcc.a(_arm_fixdfsi.o)
 .debug_line    0x0002a22d       0x6c d:/elektronik/ides/eclipse/yagarto/bin/../lib/gcc/arm-none-eabi/4.6.2/thumb/v7m/crtn.o

.debug_info     0x00000000    0x6021d
 .debug_info    0x00000000       0x71 d:/elektronik/ides/eclipse/yagarto/bin/../lib/gcc/arm-none-eabi/4.6.2/thumb/v7m/crti.o
 .debug_info    0x00000071       0xa5 d:/elektronik/ides/eclipse/yagarto/bin/../lib/gcc/arm-none-eabi/4.6.2/../../../../arm-none-eabi/lib/thumb/v7m/crt0.o
 .debug_info    0x00000116     0x22eb ./STM32_USB_OTG_Driver/src/usb_core.o
 .debug_info    0x00002401      0xdba ./STM32_USB_OTG_Driver/src/usb_hcd.o
 .debug_info    0x000031bb     0x1f57 ./STM32_USB_OTG_Driver/src/usb_hcd_int.o
 .debug_info    0x00005112     0x165a ./STM32_USB_HOST_Library/Core/src/usbh_core.o
 .debug_info    0x0000676c      0xc38 ./STM32_USB_HOST_Library/Core/src/usbh_hcs.o
 .debug_info    0x000073a4     0x16c2 ./STM32_USB_HOST_Library/Core/src/usbh_ioreq.o
 .debug_info    0x00008a66     0x18b7 ./STM32_USB_HOST_Library/Core/src/usbh_stdreq.o
 .debug_info    0x0000a31d     0x1883 ./STM32_USB_HOST_Library/Class/MSC/src/usbh_msc_bot.o
 .debug_info    0x0000bba0     0x17dc ./STM32_USB_HOST_Library/Class/MSC/src/usbh_msc_core.o
 .debug_info    0x0000d37c     0x167a ./STM32_USB_HOST_Library/Class/MSC/src/usbh_msc_fatfs.o
 .debug_info    0x0000e9f6      0xff8 ./STM32_USB_HOST_Library/Class/MSC/src/usbh_msc_scsi.o
 .debug_info    0x0000f9ee      0x598 ./STM32F4xx_StdPeriph_Driver/src/misc.o
 .debug_info    0x0000ff86      0xcf9 ./STM32F4xx_StdPeriph_Driver/src/stm32f4xx_adc.o
 .debug_info    0x00010c7f      0x687 ./STM32F4xx_StdPeriph_Driver/src/stm32f4xx_dac.o
 .debug_info    0x00011306      0x1f3 ./STM32F4xx_StdPeriph_Driver/src/stm32f4xx_dbgmcu.o
 .debug_info    0x000114f9      0x7a7 ./STM32F4xx_StdPeriph_Driver/src/stm32f4xx_dma.o
 .debug_info    0x00011ca0      0x376 ./STM32F4xx_StdPeriph_Driver/src/stm32f4xx_exti.o
 .debug_info    0x00012016      0x779 ./STM32F4xx_StdPeriph_Driver/src/stm32f4xx_flash.o
 .debug_info    0x0001278f      0x9a9 ./STM32F4xx_StdPeriph_Driver/src/stm32f4xx_fsmc.o
 .debug_info    0x00013138      0x63d ./STM32F4xx_StdPeriph_Driver/src/stm32f4xx_gpio.o
 .debug_info    0x00013775      0xb95 ./STM32F4xx_StdPeriph_Driver/src/stm32f4xx_i2c.o
 .debug_info    0x0001430a      0x20f ./STM32F4xx_StdPeriph_Driver/src/stm32f4xx_iwdg.o
 .debug_info    0x00014519      0x542 ./STM32F4xx_StdPeriph_Driver/src/stm32f4xx_pwr.o
 .debug_info    0x00014a5b      0xd28 ./STM32F4xx_StdPeriph_Driver/src/stm32f4xx_rcc.o
 .debug_info    0x00015783      0x295 ./STM32F4xx_StdPeriph_Driver/src/stm32f4xx_rng.o
 .debug_info    0x00015a18     0x1227 ./STM32F4xx_StdPeriph_Driver/src/stm32f4xx_rtc.o
 .debug_info    0x00016c3f      0x8a8 ./STM32F4xx_StdPeriph_Driver/src/stm32f4xx_sdio.o
 .debug_info    0x000174e7      0xbd0 ./STM32F4xx_StdPeriph_Driver/src/stm32f4xx_spi.o
 .debug_info    0x000180b7      0x27e ./STM32F4xx_StdPeriph_Driver/src/stm32f4xx_syscfg.o
 .debug_info    0x00018335     0x1e2c ./STM32F4xx_StdPeriph_Driver/src/stm32f4xx_tim.o
 .debug_info    0x0001a161      0xa53 ./STM32F4xx_StdPeriph_Driver/src/stm32f4xx_usart.o
 .debug_info    0x0001abb4      0x25a ./STM32F4xx_StdPeriph_Driver/src/stm32f4xx_wwdg.o
 .debug_info    0x0001ae0e      0x969 ./STM32F4-Discovery/stm32f4_discovery.o
 .debug_info    0x0001b777     0x1496 ./STM32F4-Discovery/stm32f4_discovery_audio_codec.o
 .debug_info    0x0001cc0d      0x85e ./STM32F4-Discovery/stm32f4_discovery_lis302dl.o
 .debug_info    0x0001d46b     0x12ca ./Menue/CMenue.o
 .debug_info    0x0001e735      0x8ed ./HelixMP3/real/bitstream.o
 .debug_info    0x0001f022      0x93e ./HelixMP3/real/buffers.o
 .debug_info    0x0001f960      0x2ae ./HelixMP3/real/dct32.o
 .debug_info    0x0001fc0e      0x7dd ./HelixMP3/real/dequant.o
 .debug_info    0x000203eb      0x773 ./HelixMP3/real/dqchan.o
 .debug_info    0x00020b5e      0xb7f ./HelixMP3/real/huffman.o
 .debug_info    0x000216dd      0x1aa ./HelixMP3/real/hufftabs.o
 .debug_info    0x00021887     0x131c ./HelixMP3/real/imdct.o
 .debug_info    0x00022ba3      0x34b ./HelixMP3/real/polyphase.o
 .debug_info    0x00022eee      0x91c ./HelixMP3/real/scalfact.o
 .debug_info    0x0002380a      0x84b ./HelixMP3/real/stproc.o
 .debug_info    0x00024055      0x409 ./HelixMP3/real/subband.o
 .debug_info    0x0002445e      0x1ab ./HelixMP3/real/trigtabs.o
 .debug_info    0x00024609      0x66a ./HelixMP3/mp3dec.o
 .debug_info    0x00024c73      0x1bb ./HelixMP3/mp3tabs.o
 .debug_info    0x00024e2e      0x554 ./GraphicLCD/CGraphicLCD.o
 .debug_info    0x00025382      0xf6f ./GraphicLCD/CT6963CDriver.o
 .debug_info    0x000262f1      0x6e4 ./GraphicLCD/CT6963GPIOInterface.o
 .debug_info    0x000269d5      0x16e ./GraphicLCD/SansSerif12.o
 .debug_info    0x00026b43      0x16e ./GraphicLCD/SansSerif26.o
 .debug_info    0x00026cb1      0x7b8 ./FreeRTOS_EC/Source/AManagedTask.o
 .debug_info    0x00027469      0x5a7 ./FreeRTOS_EC/Source/ASyncObject.o
 .debug_info    0x00027a10       0x8e ./FreeRTOS_EC/Source/ATimer.o
 .debug_info    0x00027a9e      0x630 ./FreeRTOS_EC/Source/CBinarySemaphore.o
 .debug_info    0x000280ce      0x63e ./FreeRTOS_EC/Source/CCountingSemaphore.o
 .debug_info    0x0002870c      0x1d2 ./FreeRTOS_EC/Source/CFreeRTOS.o
 .debug_info    0x000288de      0xc9c ./FreeRTOS_EC/Source/CMessageTask.o
 .debug_info    0x0002957a      0x605 ./FreeRTOS_EC/Source/CMutex.o
 .debug_info    0x00029b7f      0x834 ./FreeRTOS_EC/Source/CQueue.o
 .debug_info    0x0002a3b3      0x588 ./FreeRTOS_EC/Source/CRecursiveMutex.o
 .debug_info    0x0002a93b      0xa30 ./FreeRTOS_EC/Source/CTask.o
 .debug_info    0x0002b36b      0x249 ./FreeRTOS/Source/portable/GCC/ARM_CM4F/port.o
 .debug_info    0x0002b5b4      0x4fb ./FreeRTOS/Source/croutine.o
 .debug_info    0x0002baaf      0x2da ./FreeRTOS/Source/list.o
 .debug_info    0x0002bd89      0x78f ./FreeRTOS/Source/queue.o
 .debug_info    0x0002c518     0x10f3 ./FreeRTOS/Source/tasks.o
 .debug_info    0x0002d60b       0x9c ./FreeRTOS/Source/timers.o
 .debug_info    0x0002d6a7     0x19aa ./Audio_MP3/USB_MSC/CUSBMassStorage.o
 .debug_info    0x0002f051     0x105b ./Audio_MP3/USB_MSC/usb_bsp.o
 .debug_info    0x000300ac      0x870 ./Audio_MP3/USB_MSC/usbh_usr.o
 .debug_info    0x0003091c       0xa3 ./Audio_MP3/FatFs/src/option/syscall.o
 .debug_info    0x000309bf     0x1929 ./Audio_MP3/FatFs/src/ff.o
 .debug_info    0x000322e8      0xd7d ./Audio_MP3/CFileHandler.o
 .debug_info    0x00033065       0x86 ./Audio_MP3/fattime.o
 .debug_info    0x000330eb      0x661 ./CLedHeartBeatSTM32F4Disc.o
 .debug_info    0x0003374c      0x2f4 ./main.o
 .debug_info    0x00033a40       0x88 ./startup_stm32f4xx.o
 .debug_info    0x00033ac8      0xb7e ./stm32f4xx_it.o
 .debug_info    0x00034646      0xe9a ./syscalls.o
 .debug_info    0x000354e0      0x621 ./system_stm32f4xx.o
 .debug_info    0x00035b01      0x60c ./ustime.o
 .debug_info    0x0003610d       0xd3 d:/elektronik/ides/eclipse/yagarto/bin/../lib/gcc/arm-none-eabi/4.6.2/../../../../arm-none-eabi/lib/thumb/v7m\libstdc++.a(atexit_arm.o)
 .debug_info    0x000361e0      0x43f d:/elektronik/ides/eclipse/yagarto/bin/../lib/gcc/arm-none-eabi/4.6.2/../../../../arm-none-eabi/lib/thumb/v7m\libstdc++.a(del_op.o)
 .debug_info    0x0003661f       0xb7 d:/elektronik/ides/eclipse/yagarto/bin/../lib/gcc/arm-none-eabi/4.6.2/../../../../arm-none-eabi/lib/thumb/v7m\libstdc++.a(pure.o)
 .debug_info    0x000366d6      0x5e3 d:/elektronik/ides/eclipse/yagarto/bin/../lib/gcc/arm-none-eabi/4.6.2/../../../../arm-none-eabi/lib/thumb/v7m\libstdc++.a(eh_terminate.o)
 .debug_info    0x00036cb9       0xa4 d:/elektronik/ides/eclipse/yagarto/bin/../lib/gcc/arm-none-eabi/4.6.2/../../../../arm-none-eabi/lib/thumb/v7m\libstdc++.a(eh_term_handler.o)
 .debug_info    0x00036d5d       0xa4 d:/elektronik/ides/eclipse/yagarto/bin/../lib/gcc/arm-none-eabi/4.6.2/../../../../arm-none-eabi/lib/thumb/v7m\libstdc++.a(eh_unex_handler.o)
 .debug_info    0x00036e01     0x11ba d:/elektronik/ides/eclipse/yagarto/bin/../lib/gcc/arm-none-eabi/4.6.2/../../../../arm-none-eabi/lib/thumb/v7m\libstdc++.a(vterminate.o)
 .debug_info    0x00037fbb     0x2b85 d:/elektronik/ides/eclipse/yagarto/bin/../lib/gcc/arm-none-eabi/4.6.2/../../../../arm-none-eabi/lib/thumb/v7m\libstdc++.a(cp-demangle.o)
 .debug_info    0x0003ab40      0x7fe d:/elektronik/ides/eclipse/yagarto/bin/../lib/gcc/arm-none-eabi/4.6.2/../../../../arm-none-eabi/lib/thumb/v7m\libstdc++.a(eh_arm.o)
 .debug_info    0x0003b33e      0x561 d:/elektronik/ides/eclipse/yagarto/bin/../lib/gcc/arm-none-eabi/4.6.2/../../../../arm-none-eabi/lib/thumb/v7m\libstdc++.a(eh_aux_runtime.o)
 .debug_info    0x0003b89f      0xc79 d:/elektronik/ides/eclipse/yagarto/bin/../lib/gcc/arm-none-eabi/4.6.2/../../../../arm-none-eabi/lib/thumb/v7m\libstdc++.a(eh_call.o)
 .debug_info    0x0003c518      0x983 d:/elektronik/ides/eclipse/yagarto/bin/../lib/gcc/arm-none-eabi/4.6.2/../../../../arm-none-eabi/lib/thumb/v7m\libstdc++.a(eh_catch.o)
 .debug_info    0x0003ce9b      0x583 d:/elektronik/ides/eclipse/yagarto/bin/../lib/gcc/arm-none-eabi/4.6.2/../../../../arm-none-eabi/lib/thumb/v7m\libstdc++.a(eh_exception.o)
 .debug_info    0x0003d41e      0x788 d:/elektronik/ides/eclipse/yagarto/bin/../lib/gcc/arm-none-eabi/4.6.2/../../../../arm-none-eabi/lib/thumb/v7m\libstdc++.a(eh_globals.o)
 .debug_info    0x0003dba6     0x16cc d:/elektronik/ides/eclipse/yagarto/bin/../lib/gcc/arm-none-eabi/4.6.2/../../../../arm-none-eabi/lib/thumb/v7m\libstdc++.a(eh_personality.o)
 .debug_info    0x0003f272      0x62c d:/elektronik/ides/eclipse/yagarto/bin/../lib/gcc/arm-none-eabi/4.6.2/../../../../arm-none-eabi/lib/thumb/v7m\libstdc++.a(eh_throw.o)
 .debug_info    0x0003f89e      0x50f d:/elektronik/ides/eclipse/yagarto/bin/../lib/gcc/arm-none-eabi/4.6.2/../../../../arm-none-eabi/lib/thumb/v7m\libstdc++.a(eh_type.o)
 .debug_info    0x0003fdad      0x1e6 d:/elektronik/ides/eclipse/yagarto/bin/../lib/gcc/arm-none-eabi/4.6.2/../../../../arm-none-eabi/lib/thumb/v7m\libstdc++.a(fundamental_type_info.o)
 .debug_info    0x0003ff93      0x40f d:/elektronik/ides/eclipse/yagarto/bin/../lib/gcc/arm-none-eabi/4.6.2/../../../../arm-none-eabi/lib/thumb/v7m\libstdc++.a(pointer_type_info.o)
 .debug_info    0x000403a2      0x7f2 d:/elektronik/ides/eclipse/yagarto/bin/../lib/gcc/arm-none-eabi/4.6.2/../../../../arm-none-eabi/lib/thumb/v7m\libstdc++.a(si_class_type_info.o)
 .debug_info    0x00040b94      0x53a d:/elektronik/ides/eclipse/yagarto/bin/../lib/gcc/arm-none-eabi/4.6.2/../../../../arm-none-eabi/lib/thumb/v7m\libstdc++.a(tinfo.o)
 .debug_info    0x000410ce      0x1a3 d:/elektronik/ides/eclipse/yagarto/bin/../lib/gcc/arm-none-eabi/4.6.2/../../../../arm-none-eabi/lib/thumb/v7m\libstdc++.a(bad_cast.o)
 .debug_info    0x00041271      0x1a3 d:/elektronik/ides/eclipse/yagarto/bin/../lib/gcc/arm-none-eabi/4.6.2/../../../../arm-none-eabi/lib/thumb/v7m\libstdc++.a(bad_typeid.o)
 .debug_info    0x00041414      0x8c5 d:/elektronik/ides/eclipse/yagarto/bin/../lib/gcc/arm-none-eabi/4.6.2/../../../../arm-none-eabi/lib/thumb/v7m\libstdc++.a(class_type_info.o)
 .debug_info    0x00041cd9      0xfd4 d:/elektronik/ides/eclipse/yagarto/bin/../lib/gcc/arm-none-eabi/4.6.2/../../../../arm-none-eabi/lib/thumb/v7m\libstdc++.a(eh_alloc.o)
 .debug_info    0x00042cad      0x4df d:/elektronik/ides/eclipse/yagarto/bin/../lib/gcc/arm-none-eabi/4.6.2/../../../../arm-none-eabi/lib/thumb/v7m\libstdc++.a(pbase_type_info.o)
 .debug_info    0x0004318c     0x123f d:/elektronik/ides/eclipse/yagarto/bin/../lib/gcc/arm-none-eabi/4.6.2/thumb/v7m\libgcc.a(unwind-arm.o)
 .debug_info    0x000443cb       0xa6 d:/elektronik/ides/eclipse/yagarto/bin/../lib/gcc/arm-none-eabi/4.6.2/thumb/v7m\libgcc.a(libunwind.o)
 .debug_info    0x00044471      0x5f5 d:/elektronik/ides/eclipse/yagarto/bin/../lib/gcc/arm-none-eabi/4.6.2/thumb/v7m\libgcc.a(pr-support.o)
 .debug_info    0x00044a66       0x88 d:/elektronik/ides/eclipse/yagarto/bin/../lib/gcc/arm-none-eabi/4.6.2/../../../../arm-none-eabi/lib/thumb/v7m\libg.a(lib_a-abort.o)
 .debug_info    0x00044aee      0x9e3 d:/elektronik/ides/eclipse/yagarto/bin/../lib/gcc/arm-none-eabi/4.6.2/../../../../arm-none-eabi/lib/thumb/v7m\libg.a(lib_a-assert.o)
 .debug_info    0x000454d1       0xc1 d:/elektronik/ides/eclipse/yagarto/bin/../lib/gcc/arm-none-eabi/4.6.2/../../../../arm-none-eabi/lib/thumb/v7m\libg.a(lib_a-atexit.o)
 .debug_info    0x00045592       0xee d:/elektronik/ides/eclipse/yagarto/bin/../lib/gcc/arm-none-eabi/4.6.2/../../../../arm-none-eabi/lib/thumb/v7m\libg.a(lib_a-cxa_atexit.o)
 .debug_info    0x00045680      0x974 d:/elektronik/ides/eclipse/yagarto/bin/../lib/gcc/arm-none-eabi/4.6.2/../../../../arm-none-eabi/lib/thumb/v7m\libg.a(lib_a-exit.o)
 .debug_info    0x00045ff4       0xfb d:/elektronik/ides/eclipse/yagarto/bin/../lib/gcc/arm-none-eabi/4.6.2/../../../../arm-none-eabi/lib/thumb/v7m\libg.a(lib_a-fini.o)
 .debug_info    0x000460ef      0xa41 d:/elektronik/ides/eclipse/yagarto/bin/../lib/gcc/arm-none-eabi/4.6.2/../../../../arm-none-eabi/lib/thumb/v7m\libg.a(lib_a-fiprintf.o)
 .debug_info    0x00046b30      0x9f3 d:/elektronik/ides/eclipse/yagarto/bin/../lib/gcc/arm-none-eabi/4.6.2/../../../../arm-none-eabi/lib/thumb/v7m\libg.a(lib_a-fputc.o)
 .debug_info    0x00047523      0xa7b d:/elektronik/ides/eclipse/yagarto/bin/../lib/gcc/arm-none-eabi/4.6.2/../../../../arm-none-eabi/lib/thumb/v7m\libg.a(lib_a-fputs.o)
 .debug_info    0x00047f9e      0xab7 d:/elektronik/ides/eclipse/yagarto/bin/../lib/gcc/arm-none-eabi/4.6.2/../../../../arm-none-eabi/lib/thumb/v7m\libg.a(lib_a-fvwrite.o)
 .debug_info    0x00048a55      0xab7 d:/elektronik/ides/eclipse/yagarto/bin/../lib/gcc/arm-none-eabi/4.6.2/../../../../arm-none-eabi/lib/thumb/v7m\libg.a(lib_a-fwrite.o)
 .debug_info    0x0004950c      0x966 d:/elektronik/ides/eclipse/yagarto/bin/../lib/gcc/arm-none-eabi/4.6.2/../../../../arm-none-eabi/lib/thumb/v7m\libg.a(lib_a-impure.o)
 .debug_info    0x00049e72      0x12f d:/elektronik/ides/eclipse/yagarto/bin/../lib/gcc/arm-none-eabi/4.6.2/../../../../arm-none-eabi/lib/thumb/v7m\libg.a(lib_a-init.o)
 .debug_info    0x00049fa1      0x9a5 d:/elektronik/ides/eclipse/yagarto/bin/../lib/gcc/arm-none-eabi/4.6.2/../../../../arm-none-eabi/lib/thumb/v7m\libg.a(lib_a-malloc.o)
 .debug_info    0x0004a946      0xd6b d:/elektronik/ides/eclipse/yagarto/bin/../lib/gcc/arm-none-eabi/4.6.2/../../../../arm-none-eabi/lib/thumb/v7m\libg.a(lib_a-mallocr.o)
 .debug_info    0x0004b6b1      0x122 d:/elektronik/ides/eclipse/yagarto/bin/../lib/gcc/arm-none-eabi/4.6.2/../../../../arm-none-eabi/lib/thumb/v7m\libg.a(lib_a-memchr.o)
 .debug_info    0x0004b7d3      0x110 d:/elektronik/ides/eclipse/yagarto/bin/../lib/gcc/arm-none-eabi/4.6.2/../../../../arm-none-eabi/lib/thumb/v7m\libg.a(lib_a-memcmp.o)
 .debug_info    0x0004b8e3      0x130 d:/elektronik/ides/eclipse/yagarto/bin/../lib/gcc/arm-none-eabi/4.6.2/../../../../arm-none-eabi/lib/thumb/v7m\libg.a(lib_a-memcpy.o)
 .debug_info    0x0004ba13      0x12e d:/elektronik/ides/eclipse/yagarto/bin/../lib/gcc/arm-none-eabi/4.6.2/../../../../arm-none-eabi/lib/thumb/v7m\libg.a(lib_a-memmove.o)
 .debug_info    0x0004bb41      0x116 d:/elektronik/ides/eclipse/yagarto/bin/../lib/gcc/arm-none-eabi/4.6.2/../../../../arm-none-eabi/lib/thumb/v7m\libg.a(lib_a-memset.o)
 .debug_info    0x0004bc57      0x9f7 d:/elektronik/ides/eclipse/yagarto/bin/../lib/gcc/arm-none-eabi/4.6.2/../../../../arm-none-eabi/lib/thumb/v7m\libg.a(lib_a-putc.o)
 .debug_info    0x0004c64e      0x98b d:/elektronik/ides/eclipse/yagarto/bin/../lib/gcc/arm-none-eabi/4.6.2/../../../../arm-none-eabi/lib/thumb/v7m\libg.a(lib_a-realloc.o)
 .debug_info    0x0004cfd9      0xc0c d:/elektronik/ides/eclipse/yagarto/bin/../lib/gcc/arm-none-eabi/4.6.2/../../../../arm-none-eabi/lib/thumb/v7m\libg.a(lib_a-reallocr.o)
 .debug_info    0x0004dbe5      0xb5b d:/elektronik/ides/eclipse/yagarto/bin/../lib/gcc/arm-none-eabi/4.6.2/../../../../arm-none-eabi/lib/thumb/v7m\libg.a(lib_a-signal.o)
 .debug_info    0x0004e740      0xa62 d:/elektronik/ides/eclipse/yagarto/bin/../lib/gcc/arm-none-eabi/4.6.2/../../../../arm-none-eabi/lib/thumb/v7m\libg.a(lib_a-sprintf.o)
 .debug_info    0x0004f1a2       0xe6 d:/elektronik/ides/eclipse/yagarto/bin/../lib/gcc/arm-none-eabi/4.6.2/../../../../arm-none-eabi/lib/thumb/v7m\libg.a(lib_a-strcat.o)
 .debug_info    0x0004f288       0xe7 d:/elektronik/ides/eclipse/yagarto/bin/../lib/gcc/arm-none-eabi/4.6.2/../../../../arm-none-eabi/lib/thumb/v7m\libg.a(lib_a-strcmp.o)
 .debug_info    0x0004f36f       0xb9 d:/elektronik/ides/eclipse/yagarto/bin/../lib/gcc/arm-none-eabi/4.6.2/../../../../arm-none-eabi/lib/thumb/v7m\libg.a(lib_a-strcpy.o)
 .debug_info    0x0004f428       0xb1 d:/elektronik/ides/eclipse/yagarto/bin/../lib/gcc/arm-none-eabi/4.6.2/../../../../arm-none-eabi/lib/thumb/v7m\libg.a(lib_a-strlen.o)
 .debug_info    0x0004f4d9       0xf2 d:/elektronik/ides/eclipse/yagarto/bin/../lib/gcc/arm-none-eabi/4.6.2/../../../../arm-none-eabi/lib/thumb/v7m\libg.a(lib_a-strncmp.o)
 .debug_info    0x0004f5cb      0x125 d:/elektronik/ides/eclipse/yagarto/bin/../lib/gcc/arm-none-eabi/4.6.2/../../../../arm-none-eabi/lib/thumb/v7m\libg.a(lib_a-strncpy.o)
 .debug_info    0x0004f6f0     0x1015 d:/elektronik/ides/eclipse/yagarto/bin/../lib/gcc/arm-none-eabi/4.6.2/../../../../arm-none-eabi/lib/thumb/v7m\libg.a(lib_a-svfprintf.o)
 .debug_info    0x00050705      0x9a2 d:/elektronik/ides/eclipse/yagarto/bin/../lib/gcc/arm-none-eabi/4.6.2/../../../../arm-none-eabi/lib/thumb/v7m\libg.a(lib_a-syswrite.o)
 .debug_info    0x000510a7      0xf50 d:/elektronik/ides/eclipse/yagarto/bin/../lib/gcc/arm-none-eabi/4.6.2/../../../../arm-none-eabi/lib/thumb/v7m\libg.a(lib_a-vfiprintf.o)
 .debug_info    0x00051ff7      0x9e5 d:/elektronik/ides/eclipse/yagarto/bin/../lib/gcc/arm-none-eabi/4.6.2/../../../../arm-none-eabi/lib/thumb/v7m\libg.a(lib_a-wbuf.o)
 .debug_info    0x000529dc      0x992 d:/elektronik/ides/eclipse/yagarto/bin/../lib/gcc/arm-none-eabi/4.6.2/../../../../arm-none-eabi/lib/thumb/v7m\libg.a(lib_a-wsetup.o)
 .debug_info    0x0005336e      0x9ef d:/elektronik/ides/eclipse/yagarto/bin/../lib/gcc/arm-none-eabi/4.6.2/../../../../arm-none-eabi/lib/thumb/v7m\libg.a(lib_a-__atexit.o)
 .debug_info    0x00053d5d      0x9fc d:/elektronik/ides/eclipse/yagarto/bin/../lib/gcc/arm-none-eabi/4.6.2/../../../../arm-none-eabi/lib/thumb/v7m\libg.a(lib_a-__call_atexit.o)
 .debug_info    0x00054759      0xdce d:/elektronik/ides/eclipse/yagarto/bin/../lib/gcc/arm-none-eabi/4.6.2/../../../../arm-none-eabi/lib/thumb/v7m\libg.a(lib_a-dtoa.o)
 .debug_info    0x00055527      0xaae d:/elektronik/ides/eclipse/yagarto/bin/../lib/gcc/arm-none-eabi/4.6.2/../../../../arm-none-eabi/lib/thumb/v7m\libg.a(lib_a-fflush.o)
 .debug_info    0x00055fd5      0xbfa d:/elektronik/ides/eclipse/yagarto/bin/../lib/gcc/arm-none-eabi/4.6.2/../../../../arm-none-eabi/lib/thumb/v7m\libg.a(lib_a-findfp.o)
 .debug_info    0x00056bcf      0xaa5 d:/elektronik/ides/eclipse/yagarto/bin/../lib/gcc/arm-none-eabi/4.6.2/../../../../arm-none-eabi/lib/thumb/v7m\libg.a(lib_a-fputwc.o)
 .debug_info    0x00057674      0xc40 d:/elektronik/ides/eclipse/yagarto/bin/../lib/gcc/arm-none-eabi/4.6.2/../../../../arm-none-eabi/lib/thumb/v7m\libg.a(lib_a-freer.o)
 .debug_info    0x000582b4      0xb36 d:/elektronik/ides/eclipse/yagarto/bin/../lib/gcc/arm-none-eabi/4.6.2/../../../../arm-none-eabi/lib/thumb/v7m\libg.a(lib_a-fwalk.o)
 .debug_info    0x00058dea      0xc96 d:/elektronik/ides/eclipse/yagarto/bin/../lib/gcc/arm-none-eabi/4.6.2/../../../../arm-none-eabi/lib/thumb/v7m\libg.a(lib_a-locale.o)
 .debug_info    0x00059a80      0xb45 d:/elektronik/ides/eclipse/yagarto/bin/../lib/gcc/arm-none-eabi/4.6.2/../../../../arm-none-eabi/lib/thumb/v7m\libg.a(lib_a-makebuf.o)
 .debug_info    0x0005a5c5     0x14d9 d:/elektronik/ides/eclipse/yagarto/bin/../lib/gcc/arm-none-eabi/4.6.2/../../../../arm-none-eabi/lib/thumb/v7m\libg.a(lib_a-mprec.o)
 .debug_info    0x0005ba9e      0x143 d:/elektronik/ides/eclipse/yagarto/bin/../lib/gcc/arm-none-eabi/4.6.2/../../../../arm-none-eabi/lib/thumb/v7m\libg.a(lib_a-s_fpclassify.o)
 .debug_info    0x0005bbe1      0xb35 d:/elektronik/ides/eclipse/yagarto/bin/../lib/gcc/arm-none-eabi/4.6.2/../../../../arm-none-eabi/lib/thumb/v7m\libg.a(lib_a-stdio.o)
 .debug_info    0x0005c716      0xd97 d:/elektronik/ides/eclipse/yagarto/bin/../lib/gcc/arm-none-eabi/4.6.2/../../../../arm-none-eabi/lib/thumb/v7m\libg.a(lib_a-svfiprintf.o)
 .debug_info    0x0005d4ad      0xa99 d:/elektronik/ides/eclipse/yagarto/bin/../lib/gcc/arm-none-eabi/4.6.2/../../../../arm-none-eabi/lib/thumb/v7m\libg.a(lib_a-wcrtomb.o)
 .debug_info    0x0005df46      0xa61 d:/elektronik/ides/eclipse/yagarto/bin/../lib/gcc/arm-none-eabi/4.6.2/../../../../arm-none-eabi/lib/thumb/v7m\libg.a(lib_a-wctomb_r.o)
 .debug_info    0x0005e9a7      0xa4e d:/elektronik/ides/eclipse/yagarto/bin/../lib/gcc/arm-none-eabi/4.6.2/../../../../arm-none-eabi/lib/thumb/v7m\libg.a(lib_a-callocr.o)
 .debug_info    0x0005f3f5      0x9cb d:/elektronik/ides/eclipse/yagarto/bin/../lib/gcc/arm-none-eabi/4.6.2/../../../../arm-none-eabi/lib/thumb/v7m\libg.a(lib_a-fclose.o)
 .debug_info    0x0005fdc0       0xa8 d:/elektronik/ides/eclipse/yagarto/bin/../lib/gcc/arm-none-eabi/4.6.2/thumb/v7m\libgcc.a(_udivsi3.o)
 .debug_info    0x0005fe68       0xa8 d:/elektronik/ides/eclipse/yagarto/bin/../lib/gcc/arm-none-eabi/4.6.2/thumb/v7m\libgcc.a(_dvmd_tls.o)
 .debug_info    0x0005ff10       0xa7 d:/elektronik/ides/eclipse/yagarto/bin/../lib/gcc/arm-none-eabi/4.6.2/thumb/v7m\libgcc.a(_arm_addsubdf3.o)
 .debug_info    0x0005ffb7       0xa7 d:/elektronik/ides/eclipse/yagarto/bin/../lib/gcc/arm-none-eabi/4.6.2/thumb/v7m\libgcc.a(_arm_muldivdf3.o)
 .debug_info    0x0006005e       0xa7 d:/elektronik/ides/eclipse/yagarto/bin/../lib/gcc/arm-none-eabi/4.6.2/thumb/v7m\libgcc.a(_arm_cmpdf2.o)
 .debug_info    0x00060105       0xa7 d:/elektronik/ides/eclipse/yagarto/bin/../lib/gcc/arm-none-eabi/4.6.2/thumb/v7m\libgcc.a(_arm_fixdfsi.o)
 .debug_info    0x000601ac       0x71 d:/elektronik/ides/eclipse/yagarto/bin/../lib/gcc/arm-none-eabi/4.6.2/thumb/v7m/crtn.o

.debug_abbrev   0x00000000    0x1185d
 .debug_abbrev  0x00000000       0x12 d:/elektronik/ides/eclipse/yagarto/bin/../lib/gcc/arm-none-eabi/4.6.2/thumb/v7m/crti.o
 .debug_abbrev  0x00000012       0x14 d:/elektronik/ides/eclipse/yagarto/bin/../lib/gcc/arm-none-eabi/4.6.2/../../../../arm-none-eabi/lib/thumb/v7m/crt0.o
 .debug_abbrev  0x00000026      0x258 ./STM32_USB_OTG_Driver/src/usb_core.o
 .debug_abbrev  0x0000027e      0x193 ./STM32_USB_OTG_Driver/src/usb_hcd.o
 .debug_abbrev  0x00000411      0x226 ./STM32_USB_OTG_Driver/src/usb_hcd_int.o
 .debug_abbrev  0x00000637      0x246 ./STM32_USB_HOST_Library/Core/src/usbh_core.o
 .debug_abbrev  0x0000087d      0x17b ./STM32_USB_HOST_Library/Core/src/usbh_hcs.o
 .debug_abbrev  0x000009f8      0x1e7 ./STM32_USB_HOST_Library/Core/src/usbh_ioreq.o
 .debug_abbrev  0x00000bdf      0x236 ./STM32_USB_HOST_Library/Core/src/usbh_stdreq.o
 .debug_abbrev  0x00000e15      0x20c ./STM32_USB_HOST_Library/Class/MSC/src/usbh_msc_bot.o
 .debug_abbrev  0x00001021      0x229 ./STM32_USB_HOST_Library/Class/MSC/src/usbh_msc_core.o
 .debug_abbrev  0x0000124a      0x1de ./STM32_USB_HOST_Library/Class/MSC/src/usbh_msc_fatfs.o
 .debug_abbrev  0x00001428      0x1c4 ./STM32_USB_HOST_Library/Class/MSC/src/usbh_msc_scsi.o
 .debug_abbrev  0x000015ec      0x128 ./STM32F4xx_StdPeriph_Driver/src/misc.o
 .debug_abbrev  0x00001714      0x18b ./STM32F4xx_StdPeriph_Driver/src/stm32f4xx_adc.o
 .debug_abbrev  0x0000189f      0x174 ./STM32F4xx_StdPeriph_Driver/src/stm32f4xx_dac.o
 .debug_abbrev  0x00001a13       0xdc ./STM32F4xx_StdPeriph_Driver/src/stm32f4xx_dbgmcu.o
 .debug_abbrev  0x00001aef      0x150 ./STM32F4xx_StdPeriph_Driver/src/stm32f4xx_dma.o
 .debug_abbrev  0x00001c3f      0x19a ./STM32F4xx_StdPeriph_Driver/src/stm32f4xx_exti.o
 .debug_abbrev  0x00001dd9      0x16a ./STM32F4xx_StdPeriph_Driver/src/stm32f4xx_flash.o
 .debug_abbrev  0x00001f43      0x168 ./STM32F4xx_StdPeriph_Driver/src/stm32f4xx_fsmc.o
 .debug_abbrev  0x000020ab      0x184 ./STM32F4xx_StdPeriph_Driver/src/stm32f4xx_gpio.o
 .debug_abbrev  0x0000222f      0x15f ./STM32F4xx_StdPeriph_Driver/src/stm32f4xx_i2c.o
 .debug_abbrev  0x0000238e       0xfc ./STM32F4xx_StdPeriph_Driver/src/stm32f4xx_iwdg.o
 .debug_abbrev  0x0000248a      0x177 ./STM32F4xx_StdPeriph_Driver/src/stm32f4xx_pwr.o
 .debug_abbrev  0x00002601      0x1b9 ./STM32F4xx_StdPeriph_Driver/src/stm32f4xx_rcc.o
 .debug_abbrev  0x000027ba      0x139 ./STM32F4xx_StdPeriph_Driver/src/stm32f4xx_rng.o
 .debug_abbrev  0x000028f3      0x16d ./STM32F4xx_StdPeriph_Driver/src/stm32f4xx_rtc.o
 .debug_abbrev  0x00002a60      0x16f ./STM32F4xx_StdPeriph_Driver/src/stm32f4xx_sdio.o
 .debug_abbrev  0x00002bcf      0x162 ./STM32F4xx_StdPeriph_Driver/src/stm32f4xx_spi.o
 .debug_abbrev  0x00002d31      0x12c ./STM32F4xx_StdPeriph_Driver/src/stm32f4xx_syscfg.o
 .debug_abbrev  0x00002e5d      0x165 ./STM32F4xx_StdPeriph_Driver/src/stm32f4xx_tim.o
 .debug_abbrev  0x00002fc2      0x150 ./STM32F4xx_StdPeriph_Driver/src/stm32f4xx_usart.o
 .debug_abbrev  0x00003112      0x120 ./STM32F4xx_StdPeriph_Driver/src/stm32f4xx_wwdg.o
 .debug_abbrev  0x00003232      0x178 ./STM32F4-Discovery/stm32f4_discovery.o
 .debug_abbrev  0x000033aa      0x212 ./STM32F4-Discovery/stm32f4_discovery_audio_codec.o
 .debug_abbrev  0x000035bc      0x1d9 ./STM32F4-Discovery/stm32f4_discovery_lis302dl.o
 .debug_abbrev  0x00003795      0x3ba ./Menue/CMenue.o
 .debug_abbrev  0x00003b4f      0x1a4 ./HelixMP3/real/bitstream.o
 .debug_abbrev  0x00003cf3      0x187 ./HelixMP3/real/buffers.o
 .debug_abbrev  0x00003e7a       0xdb ./HelixMP3/real/dct32.o
 .debug_abbrev  0x00003f55      0x136 ./HelixMP3/real/dequant.o
 .debug_abbrev  0x0000408b      0x12e ./HelixMP3/real/dqchan.o
 .debug_abbrev  0x000041b9      0x1a1 ./HelixMP3/real/huffman.o
 .debug_abbrev  0x0000435a       0xb3 ./HelixMP3/real/hufftabs.o
 .debug_abbrev  0x0000440d      0x1e2 ./HelixMP3/real/imdct.o
 .debug_abbrev  0x000045ef      0x10d ./HelixMP3/real/polyphase.o
 .debug_abbrev  0x000046fc      0x163 ./HelixMP3/real/scalfact.o
 .debug_abbrev  0x0000485f      0x12f ./HelixMP3/real/stproc.o
 .debug_abbrev  0x0000498e      0x103 ./HelixMP3/real/subband.o
 .debug_abbrev  0x00004a91       0x70 ./HelixMP3/real/trigtabs.o
 .debug_abbrev  0x00004b01      0x19d ./HelixMP3/mp3dec.o
 .debug_abbrev  0x00004c9e       0x81 ./HelixMP3/mp3tabs.o
 .debug_abbrev  0x00004d1f      0x1d4 ./GraphicLCD/CGraphicLCD.o
 .debug_abbrev  0x00004ef3      0x263 ./GraphicLCD/CT6963CDriver.o
 .debug_abbrev  0x00005156      0x258 ./GraphicLCD/CT6963GPIOInterface.o
 .debug_abbrev  0x000053ae       0xa7 ./GraphicLCD/SansSerif12.o
 .debug_abbrev  0x00005455       0xa7 ./GraphicLCD/SansSerif26.o
 .debug_abbrev  0x000054fc      0x31e ./FreeRTOS_EC/Source/AManagedTask.o
 .debug_abbrev  0x0000581a      0x242 ./FreeRTOS_EC/Source/ASyncObject.o
 .debug_abbrev  0x00005a5c       0x51 ./FreeRTOS_EC/Source/ATimer.o
 .debug_abbrev  0x00005aad      0x247 ./FreeRTOS_EC/Source/CBinarySemaphore.o
 .debug_abbrev  0x00005cf4      0x238 ./FreeRTOS_EC/Source/CCountingSemaphore.o
 .debug_abbrev  0x00005f2c      0x102 ./FreeRTOS_EC/Source/CFreeRTOS.o
 .debug_abbrev  0x0000602e      0x376 ./FreeRTOS_EC/Source/CMessageTask.o
 .debug_abbrev  0x000063a4      0x231 ./FreeRTOS_EC/Source/CMutex.o
 .debug_abbrev  0x000065d5      0x277 ./FreeRTOS_EC/Source/CQueue.o
 .debug_abbrev  0x0000684c      0x203 ./FreeRTOS_EC/Source/CRecursiveMutex.o
 .debug_abbrev  0x00006a4f      0x334 ./FreeRTOS_EC/Source/CTask.o
 .debug_abbrev  0x00006d83      0x14b ./FreeRTOS/Source/portable/GCC/ARM_CM4F/port.o
 .debug_abbrev  0x00006ece      0x199 ./FreeRTOS/Source/croutine.o
 .debug_abbrev  0x00007067       0xb4 ./FreeRTOS/Source/list.o
 .debug_abbrev  0x0000711b      0x13c ./FreeRTOS/Source/queue.o
 .debug_abbrev  0x00007257      0x19e ./FreeRTOS/Source/tasks.o
 .debug_abbrev  0x000073f5       0x51 ./FreeRTOS/Source/timers.o
 .debug_abbrev  0x00007446      0x391 ./Audio_MP3/USB_MSC/CUSBMassStorage.o
 .debug_abbrev  0x000077d7      0x1f1 ./Audio_MP3/USB_MSC/usb_bsp.o
 .debug_abbrev  0x000079c8      0x1bd ./Audio_MP3/USB_MSC/usbh_usr.o
 .debug_abbrev  0x00007b85       0x51 ./Audio_MP3/FatFs/src/option/syscall.o
 .debug_abbrev  0x00007bd6      0x1e8 ./Audio_MP3/FatFs/src/ff.o
 .debug_abbrev  0x00007dbe      0x3d5 ./Audio_MP3/CFileHandler.o
 .debug_abbrev  0x00008193       0x50 ./Audio_MP3/fattime.o
 .debug_abbrev  0x000081e3      0x2af ./CLedHeartBeatSTM32F4Disc.o
 .debug_abbrev  0x00008492      0x175 ./main.o
 .debug_abbrev  0x00008607       0x12 ./startup_stm32f4xx.o
 .debug_abbrev  0x00008619      0x15c ./stm32f4xx_it.o
 .debug_abbrev  0x00008775      0x236 ./syscalls.o
 .debug_abbrev  0x000089ab      0x142 ./system_stm32f4xx.o
 .debug_abbrev  0x00008aed      0x11b ./ustime.o
 .debug_abbrev  0x00008c08       0x9c d:/elektronik/ides/eclipse/yagarto/bin/../lib/gcc/arm-none-eabi/4.6.2/../../../../arm-none-eabi/lib/thumb/v7m\libstdc++.a(atexit_arm.o)
 .debug_abbrev  0x00008ca4      0x11d d:/elektronik/ides/eclipse/yagarto/bin/../lib/gcc/arm-none-eabi/4.6.2/../../../../arm-none-eabi/lib/thumb/v7m\libstdc++.a(del_op.o)
 .debug_abbrev  0x00008dc1       0x6d d:/elektronik/ides/eclipse/yagarto/bin/../lib/gcc/arm-none-eabi/4.6.2/../../../../arm-none-eabi/lib/thumb/v7m\libstdc++.a(pure.o)
 .debug_abbrev  0x00008e2e      0x219 d:/elektronik/ides/eclipse/yagarto/bin/../lib/gcc/arm-none-eabi/4.6.2/../../../../arm-none-eabi/lib/thumb/v7m\libstdc++.a(eh_terminate.o)
 .debug_abbrev  0x00009047       0x7c d:/elektronik/ides/eclipse/yagarto/bin/../lib/gcc/arm-none-eabi/4.6.2/../../../../arm-none-eabi/lib/thumb/v7m\libstdc++.a(eh_term_handler.o)
 .debug_abbrev  0x000090c3       0x7c d:/elektronik/ides/eclipse/yagarto/bin/../lib/gcc/arm-none-eabi/4.6.2/../../../../arm-none-eabi/lib/thumb/v7m\libstdc++.a(eh_unex_handler.o)
 .debug_abbrev  0x0000913f      0x2c0 d:/elektronik/ides/eclipse/yagarto/bin/../lib/gcc/arm-none-eabi/4.6.2/../../../../arm-none-eabi/lib/thumb/v7m\libstdc++.a(vterminate.o)
 .debug_abbrev  0x000093ff      0x1d3 d:/elektronik/ides/eclipse/yagarto/bin/../lib/gcc/arm-none-eabi/4.6.2/../../../../arm-none-eabi/lib/thumb/v7m\libstdc++.a(cp-demangle.o)
 .debug_abbrev  0x000095d2      0x29a d:/elektronik/ides/eclipse/yagarto/bin/../lib/gcc/arm-none-eabi/4.6.2/../../../../arm-none-eabi/lib/thumb/v7m\libstdc++.a(eh_arm.o)
 .debug_abbrev  0x0000986c      0x190 d:/elektronik/ides/eclipse/yagarto/bin/../lib/gcc/arm-none-eabi/4.6.2/../../../../arm-none-eabi/lib/thumb/v7m\libstdc++.a(eh_aux_runtime.o)
 .debug_abbrev  0x000099fc      0x36e d:/elektronik/ides/eclipse/yagarto/bin/../lib/gcc/arm-none-eabi/4.6.2/../../../../arm-none-eabi/lib/thumb/v7m\libstdc++.a(eh_call.o)
 .debug_abbrev  0x00009d6a      0x290 d:/elektronik/ides/eclipse/yagarto/bin/../lib/gcc/arm-none-eabi/4.6.2/../../../../arm-none-eabi/lib/thumb/v7m\libstdc++.a(eh_catch.o)
 .debug_abbrev  0x00009ffa      0x226 d:/elektronik/ides/eclipse/yagarto/bin/../lib/gcc/arm-none-eabi/4.6.2/../../../../arm-none-eabi/lib/thumb/v7m\libstdc++.a(eh_exception.o)
 .debug_abbrev  0x0000a220      0x1b5 d:/elektronik/ides/eclipse/yagarto/bin/../lib/gcc/arm-none-eabi/4.6.2/../../../../arm-none-eabi/lib/thumb/v7m\libstdc++.a(eh_globals.o)
 .debug_abbrev  0x0000a3d5      0x47b d:/elektronik/ides/eclipse/yagarto/bin/../lib/gcc/arm-none-eabi/4.6.2/../../../../arm-none-eabi/lib/thumb/v7m\libstdc++.a(eh_personality.o)
 .debug_abbrev  0x0000a850      0x25f d:/elektronik/ides/eclipse/yagarto/bin/../lib/gcc/arm-none-eabi/4.6.2/../../../../arm-none-eabi/lib/thumb/v7m\libstdc++.a(eh_throw.o)
 .debug_abbrev  0x0000aaaf      0x1a7 d:/elektronik/ides/eclipse/yagarto/bin/../lib/gcc/arm-none-eabi/4.6.2/../../../../arm-none-eabi/lib/thumb/v7m\libstdc++.a(eh_type.o)
 .debug_abbrev  0x0000ac56      0x164 d:/elektronik/ides/eclipse/yagarto/bin/../lib/gcc/arm-none-eabi/4.6.2/../../../../arm-none-eabi/lib/thumb/v7m\libstdc++.a(fundamental_type_info.o)
 .debug_abbrev  0x0000adba      0x208 d:/elektronik/ides/eclipse/yagarto/bin/../lib/gcc/arm-none-eabi/4.6.2/../../../../arm-none-eabi/lib/thumb/v7m\libstdc++.a(pointer_type_info.o)
 .debug_abbrev  0x0000afc2      0x2f8 d:/elektronik/ides/eclipse/yagarto/bin/../lib/gcc/arm-none-eabi/4.6.2/../../../../arm-none-eabi/lib/thumb/v7m\libstdc++.a(si_class_type_info.o)
 .debug_abbrev  0x0000b2ba      0x299 d:/elektronik/ides/eclipse/yagarto/bin/../lib/gcc/arm-none-eabi/4.6.2/../../../../arm-none-eabi/lib/thumb/v7m\libstdc++.a(tinfo.o)
 .debug_abbrev  0x0000b553      0x136 d:/elektronik/ides/eclipse/yagarto/bin/../lib/gcc/arm-none-eabi/4.6.2/../../../../arm-none-eabi/lib/thumb/v7m\libstdc++.a(bad_cast.o)
 .debug_abbrev  0x0000b689      0x136 d:/elektronik/ides/eclipse/yagarto/bin/../lib/gcc/arm-none-eabi/4.6.2/../../../../arm-none-eabi/lib/thumb/v7m\libstdc++.a(bad_typeid.o)
 .debug_abbrev  0x0000b7bf      0x3a2 d:/elektronik/ides/eclipse/yagarto/bin/../lib/gcc/arm-none-eabi/4.6.2/../../../../arm-none-eabi/lib/thumb/v7m\libstdc++.a(class_type_info.o)
 .debug_abbrev  0x0000bb61      0x44c d:/elektronik/ides/eclipse/yagarto/bin/../lib/gcc/arm-none-eabi/4.6.2/../../../../arm-none-eabi/lib/thumb/v7m\libstdc++.a(eh_alloc.o)
 .debug_abbrev  0x0000bfad      0x280 d:/elektronik/ides/eclipse/yagarto/bin/../lib/gcc/arm-none-eabi/4.6.2/../../../../arm-none-eabi/lib/thumb/v7m\libstdc++.a(pbase_type_info.o)
 .debug_abbrev  0x0000c22d      0x2fc d:/elektronik/ides/eclipse/yagarto/bin/../lib/gcc/arm-none-eabi/4.6.2/thumb/v7m\libgcc.a(unwind-arm.o)
 .debug_abbrev  0x0000c529       0x14 d:/elektronik/ides/eclipse/yagarto/bin/../lib/gcc/arm-none-eabi/4.6.2/thumb/v7m\libgcc.a(libunwind.o)
 .debug_abbrev  0x0000c53d      0x226 d:/elektronik/ides/eclipse/yagarto/bin/../lib/gcc/arm-none-eabi/4.6.2/thumb/v7m\libgcc.a(pr-support.o)
 .debug_abbrev  0x0000c763       0x3f d:/elektronik/ides/eclipse/yagarto/bin/../lib/gcc/arm-none-eabi/4.6.2/../../../../arm-none-eabi/lib/thumb/v7m\libg.a(lib_a-abort.o)
 .debug_abbrev  0x0000c7a2      0x17d d:/elektronik/ides/eclipse/yagarto/bin/../lib/gcc/arm-none-eabi/4.6.2/../../../../arm-none-eabi/lib/thumb/v7m\libg.a(lib_a-assert.o)
 .debug_abbrev  0x0000c91f       0x78 d:/elektronik/ides/eclipse/yagarto/bin/../lib/gcc/arm-none-eabi/4.6.2/../../../../arm-none-eabi/lib/thumb/v7m\libg.a(lib_a-atexit.o)
 .debug_abbrev  0x0000c997       0x8a d:/elektronik/ides/eclipse/yagarto/bin/../lib/gcc/arm-none-eabi/4.6.2/../../../../arm-none-eabi/lib/thumb/v7m\libg.a(lib_a-cxa_atexit.o)
 .debug_abbrev  0x0000ca21      0x17d d:/elektronik/ides/eclipse/yagarto/bin/../lib/gcc/arm-none-eabi/4.6.2/../../../../arm-none-eabi/lib/thumb/v7m\libg.a(lib_a-exit.o)
 .debug_abbrev  0x0000cb9e       0x9b d:/elektronik/ides/eclipse/yagarto/bin/../lib/gcc/arm-none-eabi/4.6.2/../../../../arm-none-eabi/lib/thumb/v7m\libg.a(lib_a-fini.o)
 .debug_abbrev  0x0000cc39      0x1c8 d:/elektronik/ides/eclipse/yagarto/bin/../lib/gcc/arm-none-eabi/4.6.2/../../../../arm-none-eabi/lib/thumb/v7m\libg.a(lib_a-fiprintf.o)
 .debug_abbrev  0x0000ce01      0x1b4 d:/elektronik/ides/eclipse/yagarto/bin/../lib/gcc/arm-none-eabi/4.6.2/../../../../arm-none-eabi/lib/thumb/v7m\libg.a(lib_a-fputc.o)
 .debug_abbrev  0x0000cfb5      0x1bb d:/elektronik/ides/eclipse/yagarto/bin/../lib/gcc/arm-none-eabi/4.6.2/../../../../arm-none-eabi/lib/thumb/v7m\libg.a(lib_a-fputs.o)
 .debug_abbrev  0x0000d170      0x1a7 d:/elektronik/ides/eclipse/yagarto/bin/../lib/gcc/arm-none-eabi/4.6.2/../../../../arm-none-eabi/lib/thumb/v7m\libg.a(lib_a-fvwrite.o)
 .debug_abbrev  0x0000d317      0x1ca d:/elektronik/ides/eclipse/yagarto/bin/../lib/gcc/arm-none-eabi/4.6.2/../../../../arm-none-eabi/lib/thumb/v7m\libg.a(lib_a-fwrite.o)
 .debug_abbrev  0x0000d4e1      0x166 d:/elektronik/ides/eclipse/yagarto/bin/../lib/gcc/arm-none-eabi/4.6.2/../../../../arm-none-eabi/lib/thumb/v7m\libg.a(lib_a-impure.o)
 .debug_abbrev  0x0000d647       0x9b d:/elektronik/ides/eclipse/yagarto/bin/../lib/gcc/arm-none-eabi/4.6.2/../../../../arm-none-eabi/lib/thumb/v7m\libg.a(lib_a-init.o)
 .debug_abbrev  0x0000d6e2      0x196 d:/elektronik/ides/eclipse/yagarto/bin/../lib/gcc/arm-none-eabi/4.6.2/../../../../arm-none-eabi/lib/thumb/v7m\libg.a(lib_a-malloc.o)
 .debug_abbrev  0x0000d878      0x233 d:/elektronik/ides/eclipse/yagarto/bin/../lib/gcc/arm-none-eabi/4.6.2/../../../../arm-none-eabi/lib/thumb/v7m\libg.a(lib_a-mallocr.o)
 .debug_abbrev  0x0000daab       0xc4 d:/elektronik/ides/eclipse/yagarto/bin/../lib/gcc/arm-none-eabi/4.6.2/../../../../arm-none-eabi/lib/thumb/v7m\libg.a(lib_a-memchr.o)
 .debug_abbrev  0x0000db6f       0x7c d:/elektronik/ides/eclipse/yagarto/bin/../lib/gcc/arm-none-eabi/4.6.2/../../../../arm-none-eabi/lib/thumb/v7m\libg.a(lib_a-memcmp.o)
 .debug_abbrev  0x0000dbeb       0x99 d:/elektronik/ides/eclipse/yagarto/bin/../lib/gcc/arm-none-eabi/4.6.2/../../../../arm-none-eabi/lib/thumb/v7m\libg.a(lib_a-memcpy.o)
 .debug_abbrev  0x0000dc84       0xa8 d:/elektronik/ides/eclipse/yagarto/bin/../lib/gcc/arm-none-eabi/4.6.2/../../../../arm-none-eabi/lib/thumb/v7m\libg.a(lib_a-memmove.o)
 .debug_abbrev  0x0000dd2c       0x8d d:/elektronik/ides/eclipse/yagarto/bin/../lib/gcc/arm-none-eabi/4.6.2/../../../../arm-none-eabi/lib/thumb/v7m\libg.a(lib_a-memset.o)
 .debug_abbrev  0x0000ddb9      0x1a7 d:/elektronik/ides/eclipse/yagarto/bin/../lib/gcc/arm-none-eabi/4.6.2/../../../../arm-none-eabi/lib/thumb/v7m\libg.a(lib_a-putc.o)
 .debug_abbrev  0x0000df60      0x18e d:/elektronik/ides/eclipse/yagarto/bin/../lib/gcc/arm-none-eabi/4.6.2/../../../../arm-none-eabi/lib/thumb/v7m\libg.a(lib_a-realloc.o)
 .debug_abbrev  0x0000e0ee      0x1db d:/elektronik/ides/eclipse/yagarto/bin/../lib/gcc/arm-none-eabi/4.6.2/../../../../arm-none-eabi/lib/thumb/v7m\libg.a(lib_a-reallocr.o)
 .debug_abbrev  0x0000e2c9      0x23a d:/elektronik/ides/eclipse/yagarto/bin/../lib/gcc/arm-none-eabi/4.6.2/../../../../arm-none-eabi/lib/thumb/v7m\libg.a(lib_a-signal.o)
 .debug_abbrev  0x0000e503      0x1c8 d:/elektronik/ides/eclipse/yagarto/bin/../lib/gcc/arm-none-eabi/4.6.2/../../../../arm-none-eabi/lib/thumb/v7m\libg.a(lib_a-sprintf.o)
 .debug_abbrev  0x0000e6cb       0x87 d:/elektronik/ides/eclipse/yagarto/bin/../lib/gcc/arm-none-eabi/4.6.2/../../../../arm-none-eabi/lib/thumb/v7m\libg.a(lib_a-strcat.o)
 .debug_abbrev  0x0000e752       0x86 d:/elektronik/ides/eclipse/yagarto/bin/../lib/gcc/arm-none-eabi/4.6.2/../../../../arm-none-eabi/lib/thumb/v7m\libg.a(lib_a-strcmp.o)
 .debug_abbrev  0x0000e7d8       0x6f d:/elektronik/ides/eclipse/yagarto/bin/../lib/gcc/arm-none-eabi/4.6.2/../../../../arm-none-eabi/lib/thumb/v7m\libg.a(lib_a-strcpy.o)
 .debug_abbrev  0x0000e847       0x6d d:/elektronik/ides/eclipse/yagarto/bin/../lib/gcc/arm-none-eabi/4.6.2/../../../../arm-none-eabi/lib/thumb/v7m\libg.a(lib_a-strlen.o)
 .debug_abbrev  0x0000e8b4       0x7e d:/elektronik/ides/eclipse/yagarto/bin/../lib/gcc/arm-none-eabi/4.6.2/../../../../arm-none-eabi/lib/thumb/v7m\libg.a(lib_a-strncmp.o)
 .debug_abbrev  0x0000e932       0x9c d:/elektronik/ides/eclipse/yagarto/bin/../lib/gcc/arm-none-eabi/4.6.2/../../../../arm-none-eabi/lib/thumb/v7m\libg.a(lib_a-strncpy.o)
 .debug_abbrev  0x0000e9ce      0x2ea d:/elektronik/ides/eclipse/yagarto/bin/../lib/gcc/arm-none-eabi/4.6.2/../../../../arm-none-eabi/lib/thumb/v7m\libg.a(lib_a-svfprintf.o)
 .debug_abbrev  0x0000ecb8      0x184 d:/elektronik/ides/eclipse/yagarto/bin/../lib/gcc/arm-none-eabi/4.6.2/../../../../arm-none-eabi/lib/thumb/v7m\libg.a(lib_a-syswrite.o)
 .debug_abbrev  0x0000ee3c      0x31c d:/elektronik/ides/eclipse/yagarto/bin/../lib/gcc/arm-none-eabi/4.6.2/../../../../arm-none-eabi/lib/thumb/v7m\libg.a(lib_a-vfiprintf.o)
 .debug_abbrev  0x0000f158      0x1a7 d:/elektronik/ides/eclipse/yagarto/bin/../lib/gcc/arm-none-eabi/4.6.2/../../../../arm-none-eabi/lib/thumb/v7m\libg.a(lib_a-wbuf.o)
 .debug_abbrev  0x0000f2ff      0x17f d:/elektronik/ides/eclipse/yagarto/bin/../lib/gcc/arm-none-eabi/4.6.2/../../../../arm-none-eabi/lib/thumb/v7m\libg.a(lib_a-wsetup.o)
 .debug_abbrev  0x0000f47e      0x1d3 d:/elektronik/ides/eclipse/yagarto/bin/../lib/gcc/arm-none-eabi/4.6.2/../../../../arm-none-eabi/lib/thumb/v7m\libg.a(lib_a-__atexit.o)
 .debug_abbrev  0x0000f651      0x1bc d:/elektronik/ides/eclipse/yagarto/bin/../lib/gcc/arm-none-eabi/4.6.2/../../../../arm-none-eabi/lib/thumb/v7m\libg.a(lib_a-__call_atexit.o)
 .debug_abbrev  0x0000f80d      0x22b d:/elektronik/ides/eclipse/yagarto/bin/../lib/gcc/arm-none-eabi/4.6.2/../../../../arm-none-eabi/lib/thumb/v7m\libg.a(lib_a-dtoa.o)
 .debug_abbrev  0x0000fa38      0x1fe d:/elektronik/ides/eclipse/yagarto/bin/../lib/gcc/arm-none-eabi/4.6.2/../../../../arm-none-eabi/lib/thumb/v7m\libg.a(lib_a-fflush.o)
 .debug_abbrev  0x0000fc36      0x289 d:/elektronik/ides/eclipse/yagarto/bin/../lib/gcc/arm-none-eabi/4.6.2/../../../../arm-none-eabi/lib/thumb/v7m\libg.a(lib_a-findfp.o)
 .debug_abbrev  0x0000febf      0x1f5 d:/elektronik/ides/eclipse/yagarto/bin/../lib/gcc/arm-none-eabi/4.6.2/../../../../arm-none-eabi/lib/thumb/v7m\libg.a(lib_a-fputwc.o)
 .debug_abbrev  0x000100b4      0x1ea d:/elektronik/ides/eclipse/yagarto/bin/../lib/gcc/arm-none-eabi/4.6.2/../../../../arm-none-eabi/lib/thumb/v7m\libg.a(lib_a-freer.o)
 .debug_abbrev  0x0001029e      0x210 d:/elektronik/ides/eclipse/yagarto/bin/../lib/gcc/arm-none-eabi/4.6.2/../../../../arm-none-eabi/lib/thumb/v7m\libg.a(lib_a-fwalk.o)
 .debug_abbrev  0x000104ae      0x25e d:/elektronik/ides/eclipse/yagarto/bin/../lib/gcc/arm-none-eabi/4.6.2/../../../../arm-none-eabi/lib/thumb/v7m\libg.a(lib_a-locale.o)
 .debug_abbrev  0x0001070c      0x199 d:/elektronik/ides/eclipse/yagarto/bin/../lib/gcc/arm-none-eabi/4.6.2/../../../../arm-none-eabi/lib/thumb/v7m\libg.a(lib_a-makebuf.o)
 .debug_abbrev  0x000108a5      0x30e d:/elektronik/ides/eclipse/yagarto/bin/../lib/gcc/arm-none-eabi/4.6.2/../../../../arm-none-eabi/lib/thumb/v7m\libg.a(lib_a-mprec.o)
 .debug_abbrev  0x00010bb3       0xc5 d:/elektronik/ides/eclipse/yagarto/bin/../lib/gcc/arm-none-eabi/4.6.2/../../../../arm-none-eabi/lib/thumb/v7m\libg.a(lib_a-s_fpclassify.o)
 .debug_abbrev  0x00010c78      0x1f6 d:/elektronik/ides/eclipse/yagarto/bin/../lib/gcc/arm-none-eabi/4.6.2/../../../../arm-none-eabi/lib/thumb/v7m\libg.a(lib_a-stdio.o)
 .debug_abbrev  0x00010e6e      0x262 d:/elektronik/ides/eclipse/yagarto/bin/../lib/gcc/arm-none-eabi/4.6.2/../../../../arm-none-eabi/lib/thumb/v7m\libg.a(lib_a-svfiprintf.o)
 .debug_abbrev  0x000110d0      0x1ae d:/elektronik/ides/eclipse/yagarto/bin/../lib/gcc/arm-none-eabi/4.6.2/../../../../arm-none-eabi/lib/thumb/v7m\libg.a(lib_a-wcrtomb.o)
 .debug_abbrev  0x0001127e      0x1e5 d:/elektronik/ides/eclipse/yagarto/bin/../lib/gcc/arm-none-eabi/4.6.2/../../../../arm-none-eabi/lib/thumb/v7m\libg.a(lib_a-wctomb_r.o)
 .debug_abbrev  0x00011463      0x1ba d:/elektronik/ides/eclipse/yagarto/bin/../lib/gcc/arm-none-eabi/4.6.2/../../../../arm-none-eabi/lib/thumb/v7m\libg.a(lib_a-callocr.o)
 .debug_abbrev  0x0001161d      0x1b6 d:/elektronik/ides/eclipse/yagarto/bin/../lib/gcc/arm-none-eabi/4.6.2/../../../../arm-none-eabi/lib/thumb/v7m\libg.a(lib_a-fclose.o)
 .debug_abbrev  0x000117d3       0x14 d:/elektronik/ides/eclipse/yagarto/bin/../lib/gcc/arm-none-eabi/4.6.2/thumb/v7m\libgcc.a(_udivsi3.o)
 .debug_abbrev  0x000117e7       0x14 d:/elektronik/ides/eclipse/yagarto/bin/../lib/gcc/arm-none-eabi/4.6.2/thumb/v7m\libgcc.a(_dvmd_tls.o)
 .debug_abbrev  0x000117fb       0x14 d:/elektronik/ides/eclipse/yagarto/bin/../lib/gcc/arm-none-eabi/4.6.2/thumb/v7m\libgcc.a(_arm_addsubdf3.o)
 .debug_abbrev  0x0001180f       0x14 d:/elektronik/ides/eclipse/yagarto/bin/../lib/gcc/arm-none-eabi/4.6.2/thumb/v7m\libgcc.a(_arm_muldivdf3.o)
 .debug_abbrev  0x00011823       0x14 d:/elektronik/ides/eclipse/yagarto/bin/../lib/gcc/arm-none-eabi/4.6.2/thumb/v7m\libgcc.a(_arm_cmpdf2.o)
 .debug_abbrev  0x00011837       0x14 d:/elektronik/ides/eclipse/yagarto/bin/../lib/gcc/arm-none-eabi/4.6.2/thumb/v7m\libgcc.a(_arm_fixdfsi.o)
 .debug_abbrev  0x0001184b       0x12 d:/elektronik/ides/eclipse/yagarto/bin/../lib/gcc/arm-none-eabi/4.6.2/thumb/v7m/crtn.o

.debug_aranges  0x00000000     0x18a8
 .debug_aranges
                0x00000000       0x28 d:/elektronik/ides/eclipse/yagarto/bin/../lib/gcc/arm-none-eabi/4.6.2/thumb/v7m/crti.o
 .debug_aranges
                0x00000028       0x20 d:/elektronik/ides/eclipse/yagarto/bin/../lib/gcc/arm-none-eabi/4.6.2/../../../../arm-none-eabi/lib/thumb/v7m/crt0.o
 .debug_aranges
                0x00000048       0x20 ./STM32_USB_OTG_Driver/src/usb_core.o
 .debug_aranges
                0x00000068       0x20 ./STM32_USB_OTG_Driver/src/usb_hcd.o
 .debug_aranges
                0x00000088       0x20 ./STM32_USB_OTG_Driver/src/usb_hcd_int.o
 .debug_aranges
                0x000000a8       0x20 ./STM32_USB_HOST_Library/Core/src/usbh_core.o
 .debug_aranges
                0x000000c8       0x20 ./STM32_USB_HOST_Library/Core/src/usbh_hcs.o
 .debug_aranges
                0x000000e8       0x20 ./STM32_USB_HOST_Library/Core/src/usbh_ioreq.o
 .debug_aranges
                0x00000108       0x20 ./STM32_USB_HOST_Library/Core/src/usbh_stdreq.o
 .debug_aranges
                0x00000128       0x20 ./STM32_USB_HOST_Library/Class/MSC/src/usbh_msc_bot.o
 .debug_aranges
                0x00000148       0x20 ./STM32_USB_HOST_Library/Class/MSC/src/usbh_msc_core.o
 .debug_aranges
                0x00000168       0x20 ./STM32_USB_HOST_Library/Class/MSC/src/usbh_msc_fatfs.o
 .debug_aranges
                0x00000188       0x20 ./STM32_USB_HOST_Library/Class/MSC/src/usbh_msc_scsi.o
 .debug_aranges
                0x000001a8       0x20 ./STM32F4xx_StdPeriph_Driver/src/misc.o
 .debug_aranges
                0x000001c8       0x20 ./STM32F4xx_StdPeriph_Driver/src/stm32f4xx_adc.o
 .debug_aranges
                0x000001e8       0x20 ./STM32F4xx_StdPeriph_Driver/src/stm32f4xx_dac.o
 .debug_aranges
                0x00000208       0x20 ./STM32F4xx_StdPeriph_Driver/src/stm32f4xx_dbgmcu.o
 .debug_aranges
                0x00000228       0x20 ./STM32F4xx_StdPeriph_Driver/src/stm32f4xx_dma.o
 .debug_aranges
                0x00000248       0x20 ./STM32F4xx_StdPeriph_Driver/src/stm32f4xx_exti.o
 .debug_aranges
                0x00000268       0x20 ./STM32F4xx_StdPeriph_Driver/src/stm32f4xx_flash.o
 .debug_aranges
                0x00000288       0x20 ./STM32F4xx_StdPeriph_Driver/src/stm32f4xx_fsmc.o
 .debug_aranges
                0x000002a8       0x20 ./STM32F4xx_StdPeriph_Driver/src/stm32f4xx_gpio.o
 .debug_aranges
                0x000002c8       0x20 ./STM32F4xx_StdPeriph_Driver/src/stm32f4xx_i2c.o
 .debug_aranges
                0x000002e8       0x20 ./STM32F4xx_StdPeriph_Driver/src/stm32f4xx_iwdg.o
 .debug_aranges
                0x00000308       0x20 ./STM32F4xx_StdPeriph_Driver/src/stm32f4xx_pwr.o
 .debug_aranges
                0x00000328       0x20 ./STM32F4xx_StdPeriph_Driver/src/stm32f4xx_rcc.o
 .debug_aranges
                0x00000348       0x20 ./STM32F4xx_StdPeriph_Driver/src/stm32f4xx_rng.o
 .debug_aranges
                0x00000368       0x20 ./STM32F4xx_StdPeriph_Driver/src/stm32f4xx_rtc.o
 .debug_aranges
                0x00000388       0x20 ./STM32F4xx_StdPeriph_Driver/src/stm32f4xx_sdio.o
 .debug_aranges
                0x000003a8       0x20 ./STM32F4xx_StdPeriph_Driver/src/stm32f4xx_spi.o
 .debug_aranges
                0x000003c8       0x20 ./STM32F4xx_StdPeriph_Driver/src/stm32f4xx_syscfg.o
 .debug_aranges
                0x000003e8       0x20 ./STM32F4xx_StdPeriph_Driver/src/stm32f4xx_tim.o
 .debug_aranges
                0x00000408       0x20 ./STM32F4xx_StdPeriph_Driver/src/stm32f4xx_usart.o
 .debug_aranges
                0x00000428       0x20 ./STM32F4xx_StdPeriph_Driver/src/stm32f4xx_wwdg.o
 .debug_aranges
                0x00000448       0x20 ./STM32F4-Discovery/stm32f4_discovery.o
 .debug_aranges
                0x00000468       0x20 ./STM32F4-Discovery/stm32f4_discovery_audio_codec.o
 .debug_aranges
                0x00000488       0x20 ./STM32F4-Discovery/stm32f4_discovery_lis302dl.o
 .debug_aranges
                0x000004a8       0x38 ./Menue/CMenue.o
 .debug_aranges
                0x000004e0       0x20 ./HelixMP3/real/bitstream.o
 .debug_aranges
                0x00000500       0x20 ./HelixMP3/real/buffers.o
 .debug_aranges
                0x00000520       0x20 ./HelixMP3/real/dct32.o
 .debug_aranges
                0x00000540       0x20 ./HelixMP3/real/dequant.o
 .debug_aranges
                0x00000560       0x20 ./HelixMP3/real/dqchan.o
 .debug_aranges
                0x00000580       0x20 ./HelixMP3/real/huffman.o
 .debug_aranges
                0x000005a0       0x20 ./HelixMP3/real/imdct.o
 .debug_aranges
                0x000005c0       0x20 ./HelixMP3/real/polyphase.o
 .debug_aranges
                0x000005e0       0x20 ./HelixMP3/real/scalfact.o
 .debug_aranges
                0x00000600       0x20 ./HelixMP3/real/stproc.o
 .debug_aranges
                0x00000620       0x20 ./HelixMP3/real/subband.o
 .debug_aranges
                0x00000640       0x20 ./HelixMP3/mp3dec.o
 .debug_aranges
                0x00000660       0x20 ./GraphicLCD/CGraphicLCD.o
 .debug_aranges
                0x00000680       0x20 ./GraphicLCD/CT6963CDriver.o
 .debug_aranges
                0x000006a0       0x20 ./GraphicLCD/CT6963GPIOInterface.o
 .debug_aranges
                0x000006c0       0x60 ./FreeRTOS_EC/Source/AManagedTask.o
 .debug_aranges
                0x00000720       0x38 ./FreeRTOS_EC/Source/ASyncObject.o
 .debug_aranges
                0x00000758       0x40 ./FreeRTOS_EC/Source/CBinarySemaphore.o
 .debug_aranges
                0x00000798       0x40 ./FreeRTOS_EC/Source/CCountingSemaphore.o
 .debug_aranges
                0x000007d8       0x20 ./FreeRTOS_EC/Source/CFreeRTOS.o
 .debug_aranges
                0x000007f8       0x70 ./FreeRTOS_EC/Source/CMessageTask.o
 .debug_aranges
                0x00000868       0x40 ./FreeRTOS_EC/Source/CMutex.o
 .debug_aranges
                0x000008a8       0x38 ./FreeRTOS_EC/Source/CQueue.o
 .debug_aranges
                0x000008e0       0x40 ./FreeRTOS_EC/Source/CRecursiveMutex.o
 .debug_aranges
                0x00000920       0x38 ./FreeRTOS_EC/Source/CTask.o
 .debug_aranges
                0x00000958       0x20 ./FreeRTOS/Source/portable/GCC/ARM_CM4F/port.o
 .debug_aranges
                0x00000978       0x20 ./FreeRTOS/Source/croutine.o
 .debug_aranges
                0x00000998       0x20 ./FreeRTOS/Source/list.o
 .debug_aranges
                0x000009b8       0x20 ./FreeRTOS/Source/queue.o
 .debug_aranges
                0x000009d8       0x20 ./FreeRTOS/Source/tasks.o
 .debug_aranges
                0x000009f8       0x38 ./Audio_MP3/USB_MSC/CUSBMassStorage.o
 .debug_aranges
                0x00000a30       0x20 ./Audio_MP3/USB_MSC/usb_bsp.o
 .debug_aranges
                0x00000a50       0x20 ./Audio_MP3/USB_MSC/usbh_usr.o
 .debug_aranges
                0x00000a70       0x20 ./Audio_MP3/FatFs/src/ff.o
 .debug_aranges
                0x00000a90       0x38 ./Audio_MP3/CFileHandler.o
 .debug_aranges
                0x00000ac8       0x20 ./Audio_MP3/fattime.o
 .debug_aranges
                0x00000ae8       0x38 ./CLedHeartBeatSTM32F4Disc.o
 .debug_aranges
                0x00000b20       0x28 ./main.o
 .debug_aranges
                0x00000b48       0x28 ./startup_stm32f4xx.o
 .debug_aranges
                0x00000b70       0x20 ./stm32f4xx_it.o
 .debug_aranges
                0x00000b90       0x20 ./syscalls.o
 .debug_aranges
                0x00000bb0       0x20 ./system_stm32f4xx.o
 .debug_aranges
                0x00000bd0       0x20 ./ustime.o
 .debug_aranges
                0x00000bf0       0x20 d:/elektronik/ides/eclipse/yagarto/bin/../lib/gcc/arm-none-eabi/4.6.2/../../../../arm-none-eabi/lib/thumb/v7m\libstdc++.a(atexit_arm.o)
 .debug_aranges
                0x00000c10       0x20 d:/elektronik/ides/eclipse/yagarto/bin/../lib/gcc/arm-none-eabi/4.6.2/../../../../arm-none-eabi/lib/thumb/v7m\libstdc++.a(del_op.o)
 .debug_aranges
                0x00000c30       0x20 d:/elektronik/ides/eclipse/yagarto/bin/../lib/gcc/arm-none-eabi/4.6.2/../../../../arm-none-eabi/lib/thumb/v7m\libstdc++.a(pure.o)
 .debug_aranges
                0x00000c50       0x48 d:/elektronik/ides/eclipse/yagarto/bin/../lib/gcc/arm-none-eabi/4.6.2/../../../../arm-none-eabi/lib/thumb/v7m\libstdc++.a(eh_terminate.o)
 .debug_aranges
                0x00000c98       0x20 d:/elektronik/ides/eclipse/yagarto/bin/../lib/gcc/arm-none-eabi/4.6.2/../../../../arm-none-eabi/lib/thumb/v7m\libstdc++.a(vterminate.o)
 .debug_aranges
                0x00000cb8       0x20 d:/elektronik/ides/eclipse/yagarto/bin/../lib/gcc/arm-none-eabi/4.6.2/../../../../arm-none-eabi/lib/thumb/v7m\libstdc++.a(cp-demangle.o)
 .debug_aranges
                0x00000cd8       0x30 d:/elektronik/ides/eclipse/yagarto/bin/../lib/gcc/arm-none-eabi/4.6.2/../../../../arm-none-eabi/lib/thumb/v7m\libstdc++.a(eh_arm.o)
 .debug_aranges
                0x00000d08       0x28 d:/elektronik/ides/eclipse/yagarto/bin/../lib/gcc/arm-none-eabi/4.6.2/../../../../arm-none-eabi/lib/thumb/v7m\libstdc++.a(eh_aux_runtime.o)
 .debug_aranges
                0x00000d30       0x28 d:/elektronik/ides/eclipse/yagarto/bin/../lib/gcc/arm-none-eabi/4.6.2/../../../../arm-none-eabi/lib/thumb/v7m\libstdc++.a(eh_call.o)
 .debug_aranges
                0x00000d58       0x38 d:/elektronik/ides/eclipse/yagarto/bin/../lib/gcc/arm-none-eabi/4.6.2/../../../../arm-none-eabi/lib/thumb/v7m\libstdc++.a(eh_catch.o)
 .debug_aranges
                0x00000d90       0x68 d:/elektronik/ides/eclipse/yagarto/bin/../lib/gcc/arm-none-eabi/4.6.2/../../../../arm-none-eabi/lib/thumb/v7m\libstdc++.a(eh_exception.o)
 .debug_aranges
                0x00000df8       0x28 d:/elektronik/ides/eclipse/yagarto/bin/../lib/gcc/arm-none-eabi/4.6.2/../../../../arm-none-eabi/lib/thumb/v7m\libstdc++.a(eh_globals.o)
 .debug_aranges
                0x00000e20       0x40 d:/elektronik/ides/eclipse/yagarto/bin/../lib/gcc/arm-none-eabi/4.6.2/../../../../arm-none-eabi/lib/thumb/v7m\libstdc++.a(eh_personality.o)
 .debug_aranges
                0x00000e60       0x30 d:/elektronik/ides/eclipse/yagarto/bin/../lib/gcc/arm-none-eabi/4.6.2/../../../../arm-none-eabi/lib/thumb/v7m\libstdc++.a(eh_throw.o)
 .debug_aranges
                0x00000e90       0x20 d:/elektronik/ides/eclipse/yagarto/bin/../lib/gcc/arm-none-eabi/4.6.2/../../../../arm-none-eabi/lib/thumb/v7m\libstdc++.a(eh_type.o)
 .debug_aranges
                0x00000eb0       0x28 d:/elektronik/ides/eclipse/yagarto/bin/../lib/gcc/arm-none-eabi/4.6.2/../../../../arm-none-eabi/lib/thumb/v7m\libstdc++.a(fundamental_type_info.o)
 .debug_aranges
                0x00000ed8       0x38 d:/elektronik/ides/eclipse/yagarto/bin/../lib/gcc/arm-none-eabi/4.6.2/../../../../arm-none-eabi/lib/thumb/v7m\libstdc++.a(pointer_type_info.o)
 .debug_aranges
                0x00000f10       0x40 d:/elektronik/ides/eclipse/yagarto/bin/../lib/gcc/arm-none-eabi/4.6.2/../../../../arm-none-eabi/lib/thumb/v7m\libstdc++.a(si_class_type_info.o)
 .debug_aranges
                0x00000f50       0x50 d:/elektronik/ides/eclipse/yagarto/bin/../lib/gcc/arm-none-eabi/4.6.2/../../../../arm-none-eabi/lib/thumb/v7m\libstdc++.a(tinfo.o)
 .debug_aranges
                0x00000fa0       0x30 d:/elektronik/ides/eclipse/yagarto/bin/../lib/gcc/arm-none-eabi/4.6.2/../../../../arm-none-eabi/lib/thumb/v7m\libstdc++.a(bad_cast.o)
 .debug_aranges
                0x00000fd0       0x30 d:/elektronik/ides/eclipse/yagarto/bin/../lib/gcc/arm-none-eabi/4.6.2/../../../../arm-none-eabi/lib/thumb/v7m\libstdc++.a(bad_typeid.o)
 .debug_aranges
                0x00001000       0x50 d:/elektronik/ides/eclipse/yagarto/bin/../lib/gcc/arm-none-eabi/4.6.2/../../../../arm-none-eabi/lib/thumb/v7m\libstdc++.a(class_type_info.o)
 .debug_aranges
                0x00001050       0x38 d:/elektronik/ides/eclipse/yagarto/bin/../lib/gcc/arm-none-eabi/4.6.2/../../../../arm-none-eabi/lib/thumb/v7m\libstdc++.a(eh_alloc.o)
 .debug_aranges
                0x00001088       0x38 d:/elektronik/ides/eclipse/yagarto/bin/../lib/gcc/arm-none-eabi/4.6.2/../../../../arm-none-eabi/lib/thumb/v7m\libstdc++.a(pbase_type_info.o)
 .debug_aranges
                0x000010c0       0x20 d:/elektronik/ides/eclipse/yagarto/bin/../lib/gcc/arm-none-eabi/4.6.2/thumb/v7m\libgcc.a(unwind-arm.o)
 .debug_aranges
                0x000010e0       0x20 d:/elektronik/ides/eclipse/yagarto/bin/../lib/gcc/arm-none-eabi/4.6.2/thumb/v7m\libgcc.a(libunwind.o)
 .debug_aranges
                0x00001100       0x20 d:/elektronik/ides/eclipse/yagarto/bin/../lib/gcc/arm-none-eabi/4.6.2/thumb/v7m\libgcc.a(pr-support.o)
 .debug_aranges
                0x00001120       0x20 d:/elektronik/ides/eclipse/yagarto/bin/../lib/gcc/arm-none-eabi/4.6.2/../../../../arm-none-eabi/lib/thumb/v7m\libg.a(lib_a-abort.o)
 .debug_aranges
                0x00001140       0x20 d:/elektronik/ides/eclipse/yagarto/bin/../lib/gcc/arm-none-eabi/4.6.2/../../../../arm-none-eabi/lib/thumb/v7m\libg.a(lib_a-assert.o)
 .debug_aranges
                0x00001160       0x20 d:/elektronik/ides/eclipse/yagarto/bin/../lib/gcc/arm-none-eabi/4.6.2/../../../../arm-none-eabi/lib/thumb/v7m\libg.a(lib_a-atexit.o)
 .debug_aranges
                0x00001180       0x20 d:/elektronik/ides/eclipse/yagarto/bin/../lib/gcc/arm-none-eabi/4.6.2/../../../../arm-none-eabi/lib/thumb/v7m\libg.a(lib_a-cxa_atexit.o)
 .debug_aranges
                0x000011a0       0x20 d:/elektronik/ides/eclipse/yagarto/bin/../lib/gcc/arm-none-eabi/4.6.2/../../../../arm-none-eabi/lib/thumb/v7m\libg.a(lib_a-exit.o)
 .debug_aranges
                0x000011c0       0x20 d:/elektronik/ides/eclipse/yagarto/bin/../lib/gcc/arm-none-eabi/4.6.2/../../../../arm-none-eabi/lib/thumb/v7m\libg.a(lib_a-fini.o)
 .debug_aranges
                0x000011e0       0x20 d:/elektronik/ides/eclipse/yagarto/bin/../lib/gcc/arm-none-eabi/4.6.2/../../../../arm-none-eabi/lib/thumb/v7m\libg.a(lib_a-fiprintf.o)
 .debug_aranges
                0x00001200       0x20 d:/elektronik/ides/eclipse/yagarto/bin/../lib/gcc/arm-none-eabi/4.6.2/../../../../arm-none-eabi/lib/thumb/v7m\libg.a(lib_a-fputc.o)
 .debug_aranges
                0x00001220       0x20 d:/elektronik/ides/eclipse/yagarto/bin/../lib/gcc/arm-none-eabi/4.6.2/../../../../arm-none-eabi/lib/thumb/v7m\libg.a(lib_a-fputs.o)
 .debug_aranges
                0x00001240       0x20 d:/elektronik/ides/eclipse/yagarto/bin/../lib/gcc/arm-none-eabi/4.6.2/../../../../arm-none-eabi/lib/thumb/v7m\libg.a(lib_a-fvwrite.o)
 .debug_aranges
                0x00001260       0x20 d:/elektronik/ides/eclipse/yagarto/bin/../lib/gcc/arm-none-eabi/4.6.2/../../../../arm-none-eabi/lib/thumb/v7m\libg.a(lib_a-fwrite.o)
 .debug_aranges
                0x00001280       0x20 d:/elektronik/ides/eclipse/yagarto/bin/../lib/gcc/arm-none-eabi/4.6.2/../../../../arm-none-eabi/lib/thumb/v7m\libg.a(lib_a-init.o)
 .debug_aranges
                0x000012a0       0x20 d:/elektronik/ides/eclipse/yagarto/bin/../lib/gcc/arm-none-eabi/4.6.2/../../../../arm-none-eabi/lib/thumb/v7m\libg.a(lib_a-malloc.o)
 .debug_aranges
                0x000012c0       0x20 d:/elektronik/ides/eclipse/yagarto/bin/../lib/gcc/arm-none-eabi/4.6.2/../../../../arm-none-eabi/lib/thumb/v7m\libg.a(lib_a-mallocr.o)
 .debug_aranges
                0x000012e0       0x20 d:/elektronik/ides/eclipse/yagarto/bin/../lib/gcc/arm-none-eabi/4.6.2/../../../../arm-none-eabi/lib/thumb/v7m\libg.a(lib_a-memchr.o)
 .debug_aranges
                0x00001300       0x20 d:/elektronik/ides/eclipse/yagarto/bin/../lib/gcc/arm-none-eabi/4.6.2/../../../../arm-none-eabi/lib/thumb/v7m\libg.a(lib_a-memcmp.o)
 .debug_aranges
                0x00001320       0x20 d:/elektronik/ides/eclipse/yagarto/bin/../lib/gcc/arm-none-eabi/4.6.2/../../../../arm-none-eabi/lib/thumb/v7m\libg.a(lib_a-memcpy.o)
 .debug_aranges
                0x00001340       0x20 d:/elektronik/ides/eclipse/yagarto/bin/../lib/gcc/arm-none-eabi/4.6.2/../../../../arm-none-eabi/lib/thumb/v7m\libg.a(lib_a-memmove.o)
 .debug_aranges
                0x00001360       0x20 d:/elektronik/ides/eclipse/yagarto/bin/../lib/gcc/arm-none-eabi/4.6.2/../../../../arm-none-eabi/lib/thumb/v7m\libg.a(lib_a-memset.o)
 .debug_aranges
                0x00001380       0x20 d:/elektronik/ides/eclipse/yagarto/bin/../lib/gcc/arm-none-eabi/4.6.2/../../../../arm-none-eabi/lib/thumb/v7m\libg.a(lib_a-putc.o)
 .debug_aranges
                0x000013a0       0x20 d:/elektronik/ides/eclipse/yagarto/bin/../lib/gcc/arm-none-eabi/4.6.2/../../../../arm-none-eabi/lib/thumb/v7m\libg.a(lib_a-realloc.o)
 .debug_aranges
                0x000013c0       0x20 d:/elektronik/ides/eclipse/yagarto/bin/../lib/gcc/arm-none-eabi/4.6.2/../../../../arm-none-eabi/lib/thumb/v7m\libg.a(lib_a-reallocr.o)
 .debug_aranges
                0x000013e0       0x20 d:/elektronik/ides/eclipse/yagarto/bin/../lib/gcc/arm-none-eabi/4.6.2/../../../../arm-none-eabi/lib/thumb/v7m\libg.a(lib_a-signal.o)
 .debug_aranges
                0x00001400       0x20 d:/elektronik/ides/eclipse/yagarto/bin/../lib/gcc/arm-none-eabi/4.6.2/../../../../arm-none-eabi/lib/thumb/v7m\libg.a(lib_a-sprintf.o)
 .debug_aranges
                0x00001420       0x20 d:/elektronik/ides/eclipse/yagarto/bin/../lib/gcc/arm-none-eabi/4.6.2/../../../../arm-none-eabi/lib/thumb/v7m\libg.a(lib_a-strcat.o)
 .debug_aranges
                0x00001440       0x20 d:/elektronik/ides/eclipse/yagarto/bin/../lib/gcc/arm-none-eabi/4.6.2/../../../../arm-none-eabi/lib/thumb/v7m\libg.a(lib_a-strcmp.o)
 .debug_aranges
                0x00001460       0x20 d:/elektronik/ides/eclipse/yagarto/bin/../lib/gcc/arm-none-eabi/4.6.2/../../../../arm-none-eabi/lib/thumb/v7m\libg.a(lib_a-strcpy.o)
 .debug_aranges
                0x00001480       0x20 d:/elektronik/ides/eclipse/yagarto/bin/../lib/gcc/arm-none-eabi/4.6.2/../../../../arm-none-eabi/lib/thumb/v7m\libg.a(lib_a-strlen.o)
 .debug_aranges
                0x000014a0       0x20 d:/elektronik/ides/eclipse/yagarto/bin/../lib/gcc/arm-none-eabi/4.6.2/../../../../arm-none-eabi/lib/thumb/v7m\libg.a(lib_a-strncmp.o)
 .debug_aranges
                0x000014c0       0x20 d:/elektronik/ides/eclipse/yagarto/bin/../lib/gcc/arm-none-eabi/4.6.2/../../../../arm-none-eabi/lib/thumb/v7m\libg.a(lib_a-strncpy.o)
 .debug_aranges
                0x000014e0       0x20 d:/elektronik/ides/eclipse/yagarto/bin/../lib/gcc/arm-none-eabi/4.6.2/../../../../arm-none-eabi/lib/thumb/v7m\libg.a(lib_a-svfprintf.o)
 .debug_aranges
                0x00001500       0x20 d:/elektronik/ides/eclipse/yagarto/bin/../lib/gcc/arm-none-eabi/4.6.2/../../../../arm-none-eabi/lib/thumb/v7m\libg.a(lib_a-syswrite.o)
 .debug_aranges
                0x00001520       0x20 d:/elektronik/ides/eclipse/yagarto/bin/../lib/gcc/arm-none-eabi/4.6.2/../../../../arm-none-eabi/lib/thumb/v7m\libg.a(lib_a-vfiprintf.o)
 .debug_aranges
                0x00001540       0x20 d:/elektronik/ides/eclipse/yagarto/bin/../lib/gcc/arm-none-eabi/4.6.2/../../../../arm-none-eabi/lib/thumb/v7m\libg.a(lib_a-wbuf.o)
 .debug_aranges
                0x00001560       0x20 d:/elektronik/ides/eclipse/yagarto/bin/../lib/gcc/arm-none-eabi/4.6.2/../../../../arm-none-eabi/lib/thumb/v7m\libg.a(lib_a-wsetup.o)
 .debug_aranges
                0x00001580       0x20 d:/elektronik/ides/eclipse/yagarto/bin/../lib/gcc/arm-none-eabi/4.6.2/../../../../arm-none-eabi/lib/thumb/v7m\libg.a(lib_a-__atexit.o)
 .debug_aranges
                0x000015a0       0x20 d:/elektronik/ides/eclipse/yagarto/bin/../lib/gcc/arm-none-eabi/4.6.2/../../../../arm-none-eabi/lib/thumb/v7m\libg.a(lib_a-__call_atexit.o)
 .debug_aranges
                0x000015c0       0x20 d:/elektronik/ides/eclipse/yagarto/bin/../lib/gcc/arm-none-eabi/4.6.2/../../../../arm-none-eabi/lib/thumb/v7m\libg.a(lib_a-dtoa.o)
 .debug_aranges
                0x000015e0       0x20 d:/elektronik/ides/eclipse/yagarto/bin/../lib/gcc/arm-none-eabi/4.6.2/../../../../arm-none-eabi/lib/thumb/v7m\libg.a(lib_a-fflush.o)
 .debug_aranges
                0x00001600       0x20 d:/elektronik/ides/eclipse/yagarto/bin/../lib/gcc/arm-none-eabi/4.6.2/../../../../arm-none-eabi/lib/thumb/v7m\libg.a(lib_a-findfp.o)
 .debug_aranges
                0x00001620       0x20 d:/elektronik/ides/eclipse/yagarto/bin/../lib/gcc/arm-none-eabi/4.6.2/../../../../arm-none-eabi/lib/thumb/v7m\libg.a(lib_a-fputwc.o)
 .debug_aranges
                0x00001640       0x20 d:/elektronik/ides/eclipse/yagarto/bin/../lib/gcc/arm-none-eabi/4.6.2/../../../../arm-none-eabi/lib/thumb/v7m\libg.a(lib_a-freer.o)
 .debug_aranges
                0x00001660       0x20 d:/elektronik/ides/eclipse/yagarto/bin/../lib/gcc/arm-none-eabi/4.6.2/../../../../arm-none-eabi/lib/thumb/v7m\libg.a(lib_a-fwalk.o)
 .debug_aranges
                0x00001680       0x20 d:/elektronik/ides/eclipse/yagarto/bin/../lib/gcc/arm-none-eabi/4.6.2/../../../../arm-none-eabi/lib/thumb/v7m\libg.a(lib_a-locale.o)
 .debug_aranges
                0x000016a0       0x20 d:/elektronik/ides/eclipse/yagarto/bin/../lib/gcc/arm-none-eabi/4.6.2/../../../../arm-none-eabi/lib/thumb/v7m\libg.a(lib_a-makebuf.o)
 .debug_aranges
                0x000016c0       0x20 d:/elektronik/ides/eclipse/yagarto/bin/../lib/gcc/arm-none-eabi/4.6.2/../../../../arm-none-eabi/lib/thumb/v7m\libg.a(lib_a-mprec.o)
 .debug_aranges
                0x000016e0       0x20 d:/elektronik/ides/eclipse/yagarto/bin/../lib/gcc/arm-none-eabi/4.6.2/../../../../arm-none-eabi/lib/thumb/v7m\libg.a(lib_a-s_fpclassify.o)
 .debug_aranges
                0x00001700       0x20 d:/elektronik/ides/eclipse/yagarto/bin/../lib/gcc/arm-none-eabi/4.6.2/../../../../arm-none-eabi/lib/thumb/v7m\libg.a(lib_a-stdio.o)
 .debug_aranges
                0x00001720       0x20 d:/elektronik/ides/eclipse/yagarto/bin/../lib/gcc/arm-none-eabi/4.6.2/../../../../arm-none-eabi/lib/thumb/v7m\libg.a(lib_a-svfiprintf.o)
 .debug_aranges
                0x00001740       0x20 d:/elektronik/ides/eclipse/yagarto/bin/../lib/gcc/arm-none-eabi/4.6.2/../../../../arm-none-eabi/lib/thumb/v7m\libg.a(lib_a-wcrtomb.o)
 .debug_aranges
                0x00001760       0x20 d:/elektronik/ides/eclipse/yagarto/bin/../lib/gcc/arm-none-eabi/4.6.2/../../../../arm-none-eabi/lib/thumb/v7m\libg.a(lib_a-wctomb_r.o)
 .debug_aranges
                0x00001780       0x20 d:/elektronik/ides/eclipse/yagarto/bin/../lib/gcc/arm-none-eabi/4.6.2/../../../../arm-none-eabi/lib/thumb/v7m\libg.a(lib_a-callocr.o)
 .debug_aranges
                0x000017a0       0x20 d:/elektronik/ides/eclipse/yagarto/bin/../lib/gcc/arm-none-eabi/4.6.2/../../../../arm-none-eabi/lib/thumb/v7m\libg.a(lib_a-fclose.o)
 .debug_aranges
                0x000017c0       0x20 d:/elektronik/ides/eclipse/yagarto/bin/../lib/gcc/arm-none-eabi/4.6.2/thumb/v7m\libgcc.a(_udivsi3.o)
 .debug_aranges
                0x000017e0       0x20 d:/elektronik/ides/eclipse/yagarto/bin/../lib/gcc/arm-none-eabi/4.6.2/thumb/v7m\libgcc.a(_dvmd_tls.o)
 .debug_aranges
                0x00001800       0x20 d:/elektronik/ides/eclipse/yagarto/bin/../lib/gcc/arm-none-eabi/4.6.2/thumb/v7m\libgcc.a(_arm_addsubdf3.o)
 .debug_aranges
                0x00001820       0x20 d:/elektronik/ides/eclipse/yagarto/bin/../lib/gcc/arm-none-eabi/4.6.2/thumb/v7m\libgcc.a(_arm_muldivdf3.o)
 .debug_aranges
                0x00001840       0x20 d:/elektronik/ides/eclipse/yagarto/bin/../lib/gcc/arm-none-eabi/4.6.2/thumb/v7m\libgcc.a(_arm_cmpdf2.o)
 .debug_aranges
                0x00001860       0x20 d:/elektronik/ides/eclipse/yagarto/bin/../lib/gcc/arm-none-eabi/4.6.2/thumb/v7m\libgcc.a(_arm_fixdfsi.o)
 .debug_aranges
                0x00001880       0x28 d:/elektronik/ides/eclipse/yagarto/bin/../lib/gcc/arm-none-eabi/4.6.2/thumb/v7m/crtn.o

.debug_ranges   0x00000000     0x1538
 .debug_ranges  0x00000000       0x20 d:/elektronik/ides/eclipse/yagarto/bin/../lib/gcc/arm-none-eabi/4.6.2/thumb/v7m/crti.o
 .debug_ranges  0x00000020       0x28 ./Menue/CMenue.o
 .debug_ranges  0x00000048       0x50 ./FreeRTOS_EC/Source/AManagedTask.o
 .debug_ranges  0x00000098       0x28 ./FreeRTOS_EC/Source/ASyncObject.o
 .debug_ranges  0x000000c0       0x30 ./FreeRTOS_EC/Source/CBinarySemaphore.o
 .debug_ranges  0x000000f0       0x30 ./FreeRTOS_EC/Source/CCountingSemaphore.o
 .debug_ranges  0x00000120       0x78 ./FreeRTOS_EC/Source/CMessageTask.o
 .debug_ranges  0x00000198       0x30 ./FreeRTOS_EC/Source/CMutex.o
 .debug_ranges  0x000001c8       0x28 ./FreeRTOS_EC/Source/CQueue.o
 .debug_ranges  0x000001f0       0x30 ./FreeRTOS_EC/Source/CRecursiveMutex.o
 .debug_ranges  0x00000220       0x28 ./FreeRTOS_EC/Source/CTask.o
 .debug_ranges  0x00000248       0x28 ./Audio_MP3/USB_MSC/CUSBMassStorage.o
 .debug_ranges  0x00000270       0x28 ./Audio_MP3/CFileHandler.o
 .debug_ranges  0x00000298       0x28 ./CLedHeartBeatSTM32F4Disc.o
 .debug_ranges  0x000002c0       0x18 ./main.o
 .debug_ranges  0x000002d8       0x20 ./startup_stm32f4xx.o
 .debug_ranges  0x000002f8       0x18 ./ustime.o
 .debug_ranges  0x00000310       0x10 d:/elektronik/ides/eclipse/yagarto/bin/../lib/gcc/arm-none-eabi/4.6.2/../../../../arm-none-eabi/lib/thumb/v7m\libstdc++.a(atexit_arm.o)
 .debug_ranges  0x00000320       0x10 d:/elektronik/ides/eclipse/yagarto/bin/../lib/gcc/arm-none-eabi/4.6.2/../../../../arm-none-eabi/lib/thumb/v7m\libstdc++.a(del_op.o)
 .debug_ranges  0x00000330       0x10 d:/elektronik/ides/eclipse/yagarto/bin/../lib/gcc/arm-none-eabi/4.6.2/../../../../arm-none-eabi/lib/thumb/v7m\libstdc++.a(pure.o)
 .debug_ranges  0x00000340       0x38 d:/elektronik/ides/eclipse/yagarto/bin/../lib/gcc/arm-none-eabi/4.6.2/../../../../arm-none-eabi/lib/thumb/v7m\libstdc++.a(eh_terminate.o)
 .debug_ranges  0x00000378       0xb0 d:/elektronik/ides/eclipse/yagarto/bin/../lib/gcc/arm-none-eabi/4.6.2/../../../../arm-none-eabi/lib/thumb/v7m\libstdc++.a(vterminate.o)
 .debug_ranges  0x00000428       0x30 d:/elektronik/ides/eclipse/yagarto/bin/../lib/gcc/arm-none-eabi/4.6.2/../../../../arm-none-eabi/lib/thumb/v7m\libstdc++.a(cp-demangle.o)
 .debug_ranges  0x00000458      0x110 d:/elektronik/ides/eclipse/yagarto/bin/../lib/gcc/arm-none-eabi/4.6.2/../../../../arm-none-eabi/lib/thumb/v7m\libstdc++.a(eh_arm.o)
 .debug_ranges  0x00000568       0x48 d:/elektronik/ides/eclipse/yagarto/bin/../lib/gcc/arm-none-eabi/4.6.2/../../../../arm-none-eabi/lib/thumb/v7m\libstdc++.a(eh_aux_runtime.o)
 .debug_ranges  0x000005b0       0xb8 d:/elektronik/ides/eclipse/yagarto/bin/../lib/gcc/arm-none-eabi/4.6.2/../../../../arm-none-eabi/lib/thumb/v7m\libstdc++.a(eh_call.o)
 .debug_ranges  0x00000668       0xb8 d:/elektronik/ides/eclipse/yagarto/bin/../lib/gcc/arm-none-eabi/4.6.2/../../../../arm-none-eabi/lib/thumb/v7m\libstdc++.a(eh_catch.o)
 .debug_ranges  0x00000720       0xd0 d:/elektronik/ides/eclipse/yagarto/bin/../lib/gcc/arm-none-eabi/4.6.2/../../../../arm-none-eabi/lib/thumb/v7m\libstdc++.a(eh_exception.o)
 .debug_ranges  0x000007f0       0x18 d:/elektronik/ides/eclipse/yagarto/bin/../lib/gcc/arm-none-eabi/4.6.2/../../../../arm-none-eabi/lib/thumb/v7m\libstdc++.a(eh_globals.o)
 .debug_ranges  0x00000808      0x308 d:/elektronik/ides/eclipse/yagarto/bin/../lib/gcc/arm-none-eabi/4.6.2/../../../../arm-none-eabi/lib/thumb/v7m\libstdc++.a(eh_personality.o)
 .debug_ranges  0x00000b10       0xc8 d:/elektronik/ides/eclipse/yagarto/bin/../lib/gcc/arm-none-eabi/4.6.2/../../../../arm-none-eabi/lib/thumb/v7m\libstdc++.a(eh_throw.o)
 .debug_ranges  0x00000bd8       0x10 d:/elektronik/ides/eclipse/yagarto/bin/../lib/gcc/arm-none-eabi/4.6.2/../../../../arm-none-eabi/lib/thumb/v7m\libstdc++.a(eh_type.o)
 .debug_ranges  0x00000be8       0x30 d:/elektronik/ides/eclipse/yagarto/bin/../lib/gcc/arm-none-eabi/4.6.2/../../../../arm-none-eabi/lib/thumb/v7m\libstdc++.a(fundamental_type_info.o)
 .debug_ranges  0x00000c18       0x40 d:/elektronik/ides/eclipse/yagarto/bin/../lib/gcc/arm-none-eabi/4.6.2/../../../../arm-none-eabi/lib/thumb/v7m\libstdc++.a(pointer_type_info.o)
 .debug_ranges  0x00000c58       0x60 d:/elektronik/ides/eclipse/yagarto/bin/../lib/gcc/arm-none-eabi/4.6.2/../../../../arm-none-eabi/lib/thumb/v7m\libstdc++.a(si_class_type_info.o)
 .debug_ranges  0x00000cb8       0x58 d:/elektronik/ides/eclipse/yagarto/bin/../lib/gcc/arm-none-eabi/4.6.2/../../../../arm-none-eabi/lib/thumb/v7m\libstdc++.a(tinfo.o)
 .debug_ranges  0x00000d10       0x38 d:/elektronik/ides/eclipse/yagarto/bin/../lib/gcc/arm-none-eabi/4.6.2/../../../../arm-none-eabi/lib/thumb/v7m\libstdc++.a(bad_cast.o)
 .debug_ranges  0x00000d48       0x38 d:/elektronik/ides/eclipse/yagarto/bin/../lib/gcc/arm-none-eabi/4.6.2/../../../../arm-none-eabi/lib/thumb/v7m\libstdc++.a(bad_typeid.o)
 .debug_ranges  0x00000d80       0x90 d:/elektronik/ides/eclipse/yagarto/bin/../lib/gcc/arm-none-eabi/4.6.2/../../../../arm-none-eabi/lib/thumb/v7m\libstdc++.a(class_type_info.o)
 .debug_ranges  0x00000e10       0x98 d:/elektronik/ides/eclipse/yagarto/bin/../lib/gcc/arm-none-eabi/4.6.2/../../../../arm-none-eabi/lib/thumb/v7m\libstdc++.a(eh_alloc.o)
 .debug_ranges  0x00000ea8       0x60 d:/elektronik/ides/eclipse/yagarto/bin/../lib/gcc/arm-none-eabi/4.6.2/../../../../arm-none-eabi/lib/thumb/v7m\libstdc++.a(pbase_type_info.o)
 .debug_ranges  0x00000f08      0x140 d:/elektronik/ides/eclipse/yagarto/bin/../lib/gcc/arm-none-eabi/4.6.2/thumb/v7m\libgcc.a(unwind-arm.o)
 .debug_ranges  0x00001048       0x30 d:/elektronik/ides/eclipse/yagarto/bin/../lib/gcc/arm-none-eabi/4.6.2/thumb/v7m\libgcc.a(pr-support.o)
 .debug_ranges  0x00001078       0x40 d:/elektronik/ides/eclipse/yagarto/bin/../lib/gcc/arm-none-eabi/4.6.2/../../../../arm-none-eabi/lib/thumb/v7m\libg.a(lib_a-mallocr.o)
 .debug_ranges  0x000010b8       0xd0 d:/elektronik/ides/eclipse/yagarto/bin/../lib/gcc/arm-none-eabi/4.6.2/../../../../arm-none-eabi/lib/thumb/v7m\libg.a(lib_a-reallocr.o)
 .debug_ranges  0x00001188       0x20 d:/elektronik/ides/eclipse/yagarto/bin/../lib/gcc/arm-none-eabi/4.6.2/../../../../arm-none-eabi/lib/thumb/v7m\libg.a(lib_a-strcat.o)
 .debug_ranges  0x000011a8      0x198 d:/elektronik/ides/eclipse/yagarto/bin/../lib/gcc/arm-none-eabi/4.6.2/../../../../arm-none-eabi/lib/thumb/v7m\libg.a(lib_a-svfprintf.o)
 .debug_ranges  0x00001340       0x80 d:/elektronik/ides/eclipse/yagarto/bin/../lib/gcc/arm-none-eabi/4.6.2/../../../../arm-none-eabi/lib/thumb/v7m\libg.a(lib_a-vfiprintf.o)
 .debug_ranges  0x000013c0       0x20 d:/elektronik/ides/eclipse/yagarto/bin/../lib/gcc/arm-none-eabi/4.6.2/../../../../arm-none-eabi/lib/thumb/v7m\libg.a(lib_a-__call_atexit.o)
 .debug_ranges  0x000013e0       0x68 d:/elektronik/ides/eclipse/yagarto/bin/../lib/gcc/arm-none-eabi/4.6.2/../../../../arm-none-eabi/lib/thumb/v7m\libg.a(lib_a-fflush.o)
 .debug_ranges  0x00001448       0x30 d:/elektronik/ides/eclipse/yagarto/bin/../lib/gcc/arm-none-eabi/4.6.2/../../../../arm-none-eabi/lib/thumb/v7m\libg.a(lib_a-fputwc.o)
 .debug_ranges  0x00001478       0x40 d:/elektronik/ides/eclipse/yagarto/bin/../lib/gcc/arm-none-eabi/4.6.2/../../../../arm-none-eabi/lib/thumb/v7m\libg.a(lib_a-mprec.o)
 .debug_ranges  0x000014b8       0x48 d:/elektronik/ides/eclipse/yagarto/bin/../lib/gcc/arm-none-eabi/4.6.2/../../../../arm-none-eabi/lib/thumb/v7m\libg.a(lib_a-svfiprintf.o)
 .debug_ranges  0x00001500       0x18 d:/elektronik/ides/eclipse/yagarto/bin/../lib/gcc/arm-none-eabi/4.6.2/../../../../arm-none-eabi/lib/thumb/v7m\libg.a(lib_a-callocr.o)
 .debug_ranges  0x00001518       0x20 d:/elektronik/ides/eclipse/yagarto/bin/../lib/gcc/arm-none-eabi/4.6.2/thumb/v7m/crtn.o

.comment        0x00000000       0x11
 .comment       0x00000000       0x11 d:/elektronik/ides/eclipse/yagarto/bin/../lib/gcc/arm-none-eabi/4.6.2/thumb/v7m/crtbegin.o
                                 0x12 (size before relaxing)
 .comment       0x00000000       0x12 ./STM32_USB_OTG_Driver/src/usb_core.o
 .comment       0x00000000       0x12 ./STM32_USB_OTG_Driver/src/usb_hcd.o
 .comment       0x00000000       0x12 ./STM32_USB_OTG_Driver/src/usb_hcd_int.o
 .comment       0x00000000       0x12 ./STM32_USB_HOST_Library/Core/src/usbh_core.o
 .comment       0x00000000       0x12 ./STM32_USB_HOST_Library/Core/src/usbh_hcs.o
 .comment       0x00000000       0x12 ./STM32_USB_HOST_Library/Core/src/usbh_ioreq.o
 .comment       0x00000000       0x12 ./STM32_USB_HOST_Library/Core/src/usbh_stdreq.o
 .comment       0x00000000       0x12 ./STM32_USB_HOST_Library/Class/MSC/src/usbh_msc_bot.o
 .comment       0x00000000       0x12 ./STM32_USB_HOST_Library/Class/MSC/src/usbh_msc_core.o
 .comment       0x00000000       0x12 ./STM32_USB_HOST_Library/Class/MSC/src/usbh_msc_fatfs.o
 .comment       0x00000000       0x12 ./STM32_USB_HOST_Library/Class/MSC/src/usbh_msc_scsi.o
 .comment       0x00000000       0x12 ./STM32F4xx_StdPeriph_Driver/src/misc.o
 .comment       0x00000000       0x12 ./STM32F4xx_StdPeriph_Driver/src/stm32f4xx_adc.o
 .comment       0x00000000       0x12 ./STM32F4xx_StdPeriph_Driver/src/stm32f4xx_dac.o
 .comment       0x00000000       0x12 ./STM32F4xx_StdPeriph_Driver/src/stm32f4xx_dbgmcu.o
 .comment       0x00000000       0x12 ./STM32F4xx_StdPeriph_Driver/src/stm32f4xx_dma.o
 .comment       0x00000000       0x12 ./STM32F4xx_StdPeriph_Driver/src/stm32f4xx_exti.o
 .comment       0x00000000       0x12 ./STM32F4xx_StdPeriph_Driver/src/stm32f4xx_flash.o
 .comment       0x00000000       0x12 ./STM32F4xx_StdPeriph_Driver/src/stm32f4xx_fsmc.o
 .comment       0x00000000       0x12 ./STM32F4xx_StdPeriph_Driver/src/stm32f4xx_gpio.o
 .comment       0x00000000       0x12 ./STM32F4xx_StdPeriph_Driver/src/stm32f4xx_i2c.o
 .comment       0x00000000       0x12 ./STM32F4xx_StdPeriph_Driver/src/stm32f4xx_iwdg.o
 .comment       0x00000000       0x12 ./STM32F4xx_StdPeriph_Driver/src/stm32f4xx_pwr.o
 .comment       0x00000000       0x12 ./STM32F4xx_StdPeriph_Driver/src/stm32f4xx_rcc.o
 .comment       0x00000000       0x12 ./STM32F4xx_StdPeriph_Driver/src/stm32f4xx_rng.o
 .comment       0x00000000       0x12 ./STM32F4xx_StdPeriph_Driver/src/stm32f4xx_rtc.o
 .comment       0x00000000       0x12 ./STM32F4xx_StdPeriph_Driver/src/stm32f4xx_sdio.o
 .comment       0x00000000       0x12 ./STM32F4xx_StdPeriph_Driver/src/stm32f4xx_spi.o
 .comment       0x00000000       0x12 ./STM32F4xx_StdPeriph_Driver/src/stm32f4xx_syscfg.o
 .comment       0x00000000       0x12 ./STM32F4xx_StdPeriph_Driver/src/stm32f4xx_tim.o
 .comment       0x00000000       0x12 ./STM32F4xx_StdPeriph_Driver/src/stm32f4xx_usart.o
 .comment       0x00000000       0x12 ./STM32F4xx_StdPeriph_Driver/src/stm32f4xx_wwdg.o
 .comment       0x00000000       0x12 ./STM32F4-Discovery/stm32f4_discovery.o
 .comment       0x00000000       0x12 ./STM32F4-Discovery/stm32f4_discovery_audio_codec.o
 .comment       0x00000000       0x12 ./STM32F4-Discovery/stm32f4_discovery_lis302dl.o
 .comment       0x00000000       0x12 ./Menue/CMenue.o
 .comment       0x00000000       0x12 ./HelixMP3/real/bitstream.o
 .comment       0x00000000       0x12 ./HelixMP3/real/buffers.o
 .comment       0x00000000       0x12 ./HelixMP3/real/dct32.o
 .comment       0x00000000       0x12 ./HelixMP3/real/dequant.o
 .comment       0x00000000       0x12 ./HelixMP3/real/dqchan.o
 .comment       0x00000000       0x12 ./HelixMP3/real/huffman.o
 .comment       0x00000000       0x12 ./HelixMP3/real/hufftabs.o
 .comment       0x00000000       0x12 ./HelixMP3/real/imdct.o
 .comment       0x00000000       0x12 ./HelixMP3/real/polyphase.o
 .comment       0x00000000       0x12 ./HelixMP3/real/scalfact.o
 .comment       0x00000000       0x12 ./HelixMP3/real/stproc.o
 .comment       0x00000000       0x12 ./HelixMP3/real/subband.o
 .comment       0x00000000       0x12 ./HelixMP3/real/trigtabs.o
 .comment       0x00000000       0x12 ./HelixMP3/mp3dec.o
 .comment       0x00000000       0x12 ./HelixMP3/mp3tabs.o
 .comment       0x00000000       0x12 ./GraphicLCD/CGraphicLCD.o
 .comment       0x00000000       0x12 ./GraphicLCD/CT6963CDriver.o
 .comment       0x00000000       0x12 ./GraphicLCD/CT6963GPIOInterface.o
 .comment       0x00000000       0x12 ./GraphicLCD/SansSerif12.o
 .comment       0x00000000       0x12 ./GraphicLCD/SansSerif26.o
 .comment       0x00000000       0x12 ./FreeRTOS_EC/Source/AManagedTask.o
 .comment       0x00000000       0x12 ./FreeRTOS_EC/Source/ASyncObject.o
 .comment       0x00000000       0x12 ./FreeRTOS_EC/Source/ATimer.o
 .comment       0x00000000       0x12 ./FreeRTOS_EC/Source/CBinarySemaphore.o
 .comment       0x00000000       0x12 ./FreeRTOS_EC/Source/CCountingSemaphore.o
 .comment       0x00000000       0x12 ./FreeRTOS_EC/Source/CFreeRTOS.o
 .comment       0x00000000       0x12 ./FreeRTOS_EC/Source/CMessageTask.o
 .comment       0x00000000       0x12 ./FreeRTOS_EC/Source/CMutex.o
 .comment       0x00000000       0x12 ./FreeRTOS_EC/Source/CQueue.o
 .comment       0x00000000       0x12 ./FreeRTOS_EC/Source/CRecursiveMutex.o
 .comment       0x00000000       0x12 ./FreeRTOS_EC/Source/CTask.o
 .comment       0x00000000       0x12 ./FreeRTOS/Source/portable/GCC/ARM_CM4F/port.o
 .comment       0x00000000       0x12 ./FreeRTOS/Source/croutine.o
 .comment       0x00000000       0x12 ./FreeRTOS/Source/list.o
 .comment       0x00000000       0x12 ./FreeRTOS/Source/queue.o
 .comment       0x00000000       0x12 ./FreeRTOS/Source/tasks.o
 .comment       0x00000000       0x12 ./FreeRTOS/Source/timers.o
 .comment       0x00000000       0x12 ./Audio_MP3/USB_MSC/CUSBMassStorage.o
 .comment       0x00000000       0x12 ./Audio_MP3/USB_MSC/usb_bsp.o
 .comment       0x00000000       0x12 ./Audio_MP3/USB_MSC/usbh_usr.o
 .comment       0x00000000       0x12 ./Audio_MP3/FatFs/src/option/syscall.o
 .comment       0x00000000       0x12 ./Audio_MP3/FatFs/src/ff.o
 .comment       0x00000000       0x12 ./Audio_MP3/CFileHandler.o
 .comment       0x00000000       0x12 ./Audio_MP3/fattime.o
 .comment       0x00000000       0x12 ./CLedHeartBeatSTM32F4Disc.o
 .comment       0x00000000       0x12 ./main.o
 .comment       0x00000000       0x12 ./stm32f4xx_it.o
 .comment       0x00000000       0x12 ./syscalls.o
 .comment       0x00000000       0x12 ./system_stm32f4xx.o
 .comment       0x00000000       0x12 ./ustime.o
 .comment       0x00000000       0x12 d:/elektronik/ides/eclipse/yagarto/bin/../lib/gcc/arm-none-eabi/4.6.2/../../../../arm-none-eabi/lib/thumb/v7m\libstdc++.a(atexit_arm.o)
 .comment       0x00000000       0x12 d:/elektronik/ides/eclipse/yagarto/bin/../lib/gcc/arm-none-eabi/4.6.2/../../../../arm-none-eabi/lib/thumb/v7m\libstdc++.a(del_op.o)
 .comment       0x00000000       0x12 d:/elektronik/ides/eclipse/yagarto/bin/../lib/gcc/arm-none-eabi/4.6.2/../../../../arm-none-eabi/lib/thumb/v7m\libstdc++.a(pure.o)
 .comment       0x00000000       0x12 d:/elektronik/ides/eclipse/yagarto/bin/../lib/gcc/arm-none-eabi/4.6.2/../../../../arm-none-eabi/lib/thumb/v7m\libstdc++.a(eh_terminate.o)
 .comment       0x00000000       0x12 d:/elektronik/ides/eclipse/yagarto/bin/../lib/gcc/arm-none-eabi/4.6.2/../../../../arm-none-eabi/lib/thumb/v7m\libstdc++.a(eh_term_handler.o)
 .comment       0x00000000       0x12 d:/elektronik/ides/eclipse/yagarto/bin/../lib/gcc/arm-none-eabi/4.6.2/../../../../arm-none-eabi/lib/thumb/v7m\libstdc++.a(eh_unex_handler.o)
 .comment       0x00000000       0x12 d:/elektronik/ides/eclipse/yagarto/bin/../lib/gcc/arm-none-eabi/4.6.2/../../../../arm-none-eabi/lib/thumb/v7m\libstdc++.a(vterminate.o)
 .comment       0x00000000       0x12 d:/elektronik/ides/eclipse/yagarto/bin/../lib/gcc/arm-none-eabi/4.6.2/../../../../arm-none-eabi/lib/thumb/v7m\libstdc++.a(cp-demangle.o)
 .comment       0x00000000       0x12 d:/elektronik/ides/eclipse/yagarto/bin/../lib/gcc/arm-none-eabi/4.6.2/../../../../arm-none-eabi/lib/thumb/v7m\libstdc++.a(eh_arm.o)
 .comment       0x00000000       0x12 d:/elektronik/ides/eclipse/yagarto/bin/../lib/gcc/arm-none-eabi/4.6.2/../../../../arm-none-eabi/lib/thumb/v7m\libstdc++.a(eh_aux_runtime.o)
 .comment       0x00000000       0x12 d:/elektronik/ides/eclipse/yagarto/bin/../lib/gcc/arm-none-eabi/4.6.2/../../../../arm-none-eabi/lib/thumb/v7m\libstdc++.a(eh_call.o)
 .comment       0x00000000       0x12 d:/elektronik/ides/eclipse/yagarto/bin/../lib/gcc/arm-none-eabi/4.6.2/../../../../arm-none-eabi/lib/thumb/v7m\libstdc++.a(eh_catch.o)
 .comment       0x00000000       0x12 d:/elektronik/ides/eclipse/yagarto/bin/../lib/gcc/arm-none-eabi/4.6.2/../../../../arm-none-eabi/lib/thumb/v7m\libstdc++.a(eh_exception.o)
 .comment       0x00000000       0x12 d:/elektronik/ides/eclipse/yagarto/bin/../lib/gcc/arm-none-eabi/4.6.2/../../../../arm-none-eabi/lib/thumb/v7m\libstdc++.a(eh_globals.o)
 .comment       0x00000000       0x12 d:/elektronik/ides/eclipse/yagarto/bin/../lib/gcc/arm-none-eabi/4.6.2/../../../../arm-none-eabi/lib/thumb/v7m\libstdc++.a(eh_personality.o)
 .comment       0x00000000       0x12 d:/elektronik/ides/eclipse/yagarto/bin/../lib/gcc/arm-none-eabi/4.6.2/../../../../arm-none-eabi/lib/thumb/v7m\libstdc++.a(eh_throw.o)
 .comment       0x00000000       0x12 d:/elektronik/ides/eclipse/yagarto/bin/../lib/gcc/arm-none-eabi/4.6.2/../../../../arm-none-eabi/lib/thumb/v7m\libstdc++.a(eh_type.o)
 .comment       0x00000000       0x12 d:/elektronik/ides/eclipse/yagarto/bin/../lib/gcc/arm-none-eabi/4.6.2/../../../../arm-none-eabi/lib/thumb/v7m\libstdc++.a(fundamental_type_info.o)
 .comment       0x00000000       0x12 d:/elektronik/ides/eclipse/yagarto/bin/../lib/gcc/arm-none-eabi/4.6.2/../../../../arm-none-eabi/lib/thumb/v7m\libstdc++.a(pointer_type_info.o)
 .comment       0x00000000       0x12 d:/elektronik/ides/eclipse/yagarto/bin/../lib/gcc/arm-none-eabi/4.6.2/../../../../arm-none-eabi/lib/thumb/v7m\libstdc++.a(si_class_type_info.o)
 .comment       0x00000000       0x12 d:/elektronik/ides/eclipse/yagarto/bin/../lib/gcc/arm-none-eabi/4.6.2/../../../../arm-none-eabi/lib/thumb/v7m\libstdc++.a(tinfo.o)
 .comment       0x00000000       0x12 d:/elektronik/ides/eclipse/yagarto/bin/../lib/gcc/arm-none-eabi/4.6.2/../../../../arm-none-eabi/lib/thumb/v7m\libstdc++.a(bad_cast.o)
 .comment       0x00000000       0x12 d:/elektronik/ides/eclipse/yagarto/bin/../lib/gcc/arm-none-eabi/4.6.2/../../../../arm-none-eabi/lib/thumb/v7m\libstdc++.a(bad_typeid.o)
 .comment       0x00000000       0x12 d:/elektronik/ides/eclipse/yagarto/bin/../lib/gcc/arm-none-eabi/4.6.2/../../../../arm-none-eabi/lib/thumb/v7m\libstdc++.a(class_type_info.o)
 .comment       0x00000000       0x12 d:/elektronik/ides/eclipse/yagarto/bin/../lib/gcc/arm-none-eabi/4.6.2/../../../../arm-none-eabi/lib/thumb/v7m\libstdc++.a(eh_alloc.o)
 .comment       0x00000000       0x12 d:/elektronik/ides/eclipse/yagarto/bin/../lib/gcc/arm-none-eabi/4.6.2/../../../../arm-none-eabi/lib/thumb/v7m\libstdc++.a(pbase_type_info.o)
 .comment       0x00000000       0x12 d:/elektronik/ides/eclipse/yagarto/bin/../lib/gcc/arm-none-eabi/4.6.2/thumb/v7m\libgcc.a(unwind-arm.o)
 .comment       0x00000000       0x12 d:/elektronik/ides/eclipse/yagarto/bin/../lib/gcc/arm-none-eabi/4.6.2/thumb/v7m\libgcc.a(pr-support.o)
 .comment       0x00000000       0x12 d:/elektronik/ides/eclipse/yagarto/bin/../lib/gcc/arm-none-eabi/4.6.2/../../../../arm-none-eabi/lib/thumb/v7m\libg.a(lib_a-abort.o)
 .comment       0x00000000       0x12 d:/elektronik/ides/eclipse/yagarto/bin/../lib/gcc/arm-none-eabi/4.6.2/../../../../arm-none-eabi/lib/thumb/v7m\libg.a(lib_a-assert.o)
 .comment       0x00000000       0x12 d:/elektronik/ides/eclipse/yagarto/bin/../lib/gcc/arm-none-eabi/4.6.2/../../../../arm-none-eabi/lib/thumb/v7m\libg.a(lib_a-atexit.o)
 .comment       0x00000000       0x12 d:/elektronik/ides/eclipse/yagarto/bin/../lib/gcc/arm-none-eabi/4.6.2/../../../../arm-none-eabi/lib/thumb/v7m\libg.a(lib_a-cxa_atexit.o)
 .comment       0x00000000       0x12 d:/elektronik/ides/eclipse/yagarto/bin/../lib/gcc/arm-none-eabi/4.6.2/../../../../arm-none-eabi/lib/thumb/v7m\libg.a(lib_a-exit.o)
 .comment       0x00000000       0x12 d:/elektronik/ides/eclipse/yagarto/bin/../lib/gcc/arm-none-eabi/4.6.2/../../../../arm-none-eabi/lib/thumb/v7m\libg.a(lib_a-fini.o)
 .comment       0x00000000       0x12 d:/elektronik/ides/eclipse/yagarto/bin/../lib/gcc/arm-none-eabi/4.6.2/../../../../arm-none-eabi/lib/thumb/v7m\libg.a(lib_a-fiprintf.o)
 .comment       0x00000000       0x12 d:/elektronik/ides/eclipse/yagarto/bin/../lib/gcc/arm-none-eabi/4.6.2/../../../../arm-none-eabi/lib/thumb/v7m\libg.a(lib_a-fputc.o)
 .comment       0x00000000       0x12 d:/elektronik/ides/eclipse/yagarto/bin/../lib/gcc/arm-none-eabi/4.6.2/../../../../arm-none-eabi/lib/thumb/v7m\libg.a(lib_a-fputs.o)
 .comment       0x00000000       0x12 d:/elektronik/ides/eclipse/yagarto/bin/../lib/gcc/arm-none-eabi/4.6.2/../../../../arm-none-eabi/lib/thumb/v7m\libg.a(lib_a-fvwrite.o)
 .comment       0x00000000       0x12 d:/elektronik/ides/eclipse/yagarto/bin/../lib/gcc/arm-none-eabi/4.6.2/../../../../arm-none-eabi/lib/thumb/v7m\libg.a(lib_a-fwrite.o)
 .comment       0x00000000       0x12 d:/elektronik/ides/eclipse/yagarto/bin/../lib/gcc/arm-none-eabi/4.6.2/../../../../arm-none-eabi/lib/thumb/v7m\libg.a(lib_a-impure.o)
 .comment       0x00000000       0x12 d:/elektronik/ides/eclipse/yagarto/bin/../lib/gcc/arm-none-eabi/4.6.2/../../../../arm-none-eabi/lib/thumb/v7m\libg.a(lib_a-init.o)
 .comment       0x00000000       0x12 d:/elektronik/ides/eclipse/yagarto/bin/../lib/gcc/arm-none-eabi/4.6.2/../../../../arm-none-eabi/lib/thumb/v7m\libg.a(lib_a-malloc.o)
 .comment       0x00000000       0x12 d:/elektronik/ides/eclipse/yagarto/bin/../lib/gcc/arm-none-eabi/4.6.2/../../../../arm-none-eabi/lib/thumb/v7m\libg.a(lib_a-mallocr.o)
 .comment       0x00000000       0x12 d:/elektronik/ides/eclipse/yagarto/bin/../lib/gcc/arm-none-eabi/4.6.2/../../../../arm-none-eabi/lib/thumb/v7m\libg.a(lib_a-memchr.o)
 .comment       0x00000000       0x12 d:/elektronik/ides/eclipse/yagarto/bin/../lib/gcc/arm-none-eabi/4.6.2/../../../../arm-none-eabi/lib/thumb/v7m\libg.a(lib_a-memcmp.o)
 .comment       0x00000000       0x12 d:/elektronik/ides/eclipse/yagarto/bin/../lib/gcc/arm-none-eabi/4.6.2/../../../../arm-none-eabi/lib/thumb/v7m\libg.a(lib_a-memcpy.o)
 .comment       0x00000000       0x12 d:/elektronik/ides/eclipse/yagarto/bin/../lib/gcc/arm-none-eabi/4.6.2/../../../../arm-none-eabi/lib/thumb/v7m\libg.a(lib_a-memmove.o)
 .comment       0x00000000       0x12 d:/elektronik/ides/eclipse/yagarto/bin/../lib/gcc/arm-none-eabi/4.6.2/../../../../arm-none-eabi/lib/thumb/v7m\libg.a(lib_a-memset.o)
 .comment       0x00000000       0x12 d:/elektronik/ides/eclipse/yagarto/bin/../lib/gcc/arm-none-eabi/4.6.2/../../../../arm-none-eabi/lib/thumb/v7m\libg.a(lib_a-putc.o)
 .comment       0x00000000       0x12 d:/elektronik/ides/eclipse/yagarto/bin/../lib/gcc/arm-none-eabi/4.6.2/../../../../arm-none-eabi/lib/thumb/v7m\libg.a(lib_a-realloc.o)
 .comment       0x00000000       0x12 d:/elektronik/ides/eclipse/yagarto/bin/../lib/gcc/arm-none-eabi/4.6.2/../../../../arm-none-eabi/lib/thumb/v7m\libg.a(lib_a-reallocr.o)
 .comment       0x00000000       0x12 d:/elektronik/ides/eclipse/yagarto/bin/../lib/gcc/arm-none-eabi/4.6.2/../../../../arm-none-eabi/lib/thumb/v7m\libg.a(lib_a-signal.o)
 .comment       0x00000000       0x12 d:/elektronik/ides/eclipse/yagarto/bin/../lib/gcc/arm-none-eabi/4.6.2/../../../../arm-none-eabi/lib/thumb/v7m\libg.a(lib_a-sprintf.o)
 .comment       0x00000000       0x12 d:/elektronik/ides/eclipse/yagarto/bin/../lib/gcc/arm-none-eabi/4.6.2/../../../../arm-none-eabi/lib/thumb/v7m\libg.a(lib_a-strcat.o)
 .comment       0x00000000       0x12 d:/elektronik/ides/eclipse/yagarto/bin/../lib/gcc/arm-none-eabi/4.6.2/../../../../arm-none-eabi/lib/thumb/v7m\libg.a(lib_a-strcmp.o)
 .comment       0x00000000       0x12 d:/elektronik/ides/eclipse/yagarto/bin/../lib/gcc/arm-none-eabi/4.6.2/../../../../arm-none-eabi/lib/thumb/v7m\libg.a(lib_a-strcpy.o)
 .comment       0x00000000       0x12 d:/elektronik/ides/eclipse/yagarto/bin/../lib/gcc/arm-none-eabi/4.6.2/../../../../arm-none-eabi/lib/thumb/v7m\libg.a(lib_a-strlen.o)
 .comment       0x00000000       0x12 d:/elektronik/ides/eclipse/yagarto/bin/../lib/gcc/arm-none-eabi/4.6.2/../../../../arm-none-eabi/lib/thumb/v7m\libg.a(lib_a-strncmp.o)
 .comment       0x00000000       0x12 d:/elektronik/ides/eclipse/yagarto/bin/../lib/gcc/arm-none-eabi/4.6.2/../../../../arm-none-eabi/lib/thumb/v7m\libg.a(lib_a-strncpy.o)
 .comment       0x00000000       0x12 d:/elektronik/ides/eclipse/yagarto/bin/../lib/gcc/arm-none-eabi/4.6.2/../../../../arm-none-eabi/lib/thumb/v7m\libg.a(lib_a-svfprintf.o)
 .comment       0x00000000       0x12 d:/elektronik/ides/eclipse/yagarto/bin/../lib/gcc/arm-none-eabi/4.6.2/../../../../arm-none-eabi/lib/thumb/v7m\libg.a(lib_a-syswrite.o)
 .comment       0x00000000       0x12 d:/elektronik/ides/eclipse/yagarto/bin/../lib/gcc/arm-none-eabi/4.6.2/../../../../arm-none-eabi/lib/thumb/v7m\libg.a(lib_a-vfiprintf.o)
 .comment       0x00000000       0x12 d:/elektronik/ides/eclipse/yagarto/bin/../lib/gcc/arm-none-eabi/4.6.2/../../../../arm-none-eabi/lib/thumb/v7m\libg.a(lib_a-wbuf.o)
 .comment       0x00000000       0x12 d:/elektronik/ides/eclipse/yagarto/bin/../lib/gcc/arm-none-eabi/4.6.2/../../../../arm-none-eabi/lib/thumb/v7m\libg.a(lib_a-wsetup.o)
 .comment       0x00000000       0x12 d:/elektronik/ides/eclipse/yagarto/bin/../lib/gcc/arm-none-eabi/4.6.2/../../../../arm-none-eabi/lib/thumb/v7m\libg.a(lib_a-__atexit.o)
 .comment       0x00000000       0x12 d:/elektronik/ides/eclipse/yagarto/bin/../lib/gcc/arm-none-eabi/4.6.2/../../../../arm-none-eabi/lib/thumb/v7m\libg.a(lib_a-__call_atexit.o)
 .comment       0x00000000       0x12 d:/elektronik/ides/eclipse/yagarto/bin/../lib/gcc/arm-none-eabi/4.6.2/../../../../arm-none-eabi/lib/thumb/v7m\libg.a(lib_a-dtoa.o)
 .comment       0x00000000       0x12 d:/elektronik/ides/eclipse/yagarto/bin/../lib/gcc/arm-none-eabi/4.6.2/../../../../arm-none-eabi/lib/thumb/v7m\libg.a(lib_a-fflush.o)
 .comment       0x00000000       0x12 d:/elektronik/ides/eclipse/yagarto/bin/../lib/gcc/arm-none-eabi/4.6.2/../../../../arm-none-eabi/lib/thumb/v7m\libg.a(lib_a-findfp.o)
 .comment       0x00000000       0x12 d:/elektronik/ides/eclipse/yagarto/bin/../lib/gcc/arm-none-eabi/4.6.2/../../../../arm-none-eabi/lib/thumb/v7m\libg.a(lib_a-fputwc.o)
 .comment       0x00000000       0x12 d:/elektronik/ides/eclipse/yagarto/bin/../lib/gcc/arm-none-eabi/4.6.2/../../../../arm-none-eabi/lib/thumb/v7m\libg.a(lib_a-freer.o)
 .comment       0x00000000       0x12 d:/elektronik/ides/eclipse/yagarto/bin/../lib/gcc/arm-none-eabi/4.6.2/../../../../arm-none-eabi/lib/thumb/v7m\libg.a(lib_a-fwalk.o)
 .comment       0x00000000       0x12 d:/elektronik/ides/eclipse/yagarto/bin/../lib/gcc/arm-none-eabi/4.6.2/../../../../arm-none-eabi/lib/thumb/v7m\libg.a(lib_a-locale.o)
 .comment       0x00000000       0x12 d:/elektronik/ides/eclipse/yagarto/bin/../lib/gcc/arm-none-eabi/4.6.2/../../../../arm-none-eabi/lib/thumb/v7m\libg.a(lib_a-makebuf.o)
 .comment       0x00000000       0x12 d:/elektronik/ides/eclipse/yagarto/bin/../lib/gcc/arm-none-eabi/4.6.2/../../../../arm-none-eabi/lib/thumb/v7m\libg.a(lib_a-mprec.o)
 .comment       0x00000000       0x12 d:/elektronik/ides/eclipse/yagarto/bin/../lib/gcc/arm-none-eabi/4.6.2/../../../../arm-none-eabi/lib/thumb/v7m\libg.a(lib_a-s_fpclassify.o)
 .comment       0x00000000       0x12 d:/elektronik/ides/eclipse/yagarto/bin/../lib/gcc/arm-none-eabi/4.6.2/../../../../arm-none-eabi/lib/thumb/v7m\libg.a(lib_a-stdio.o)
 .comment       0x00000000       0x12 d:/elektronik/ides/eclipse/yagarto/bin/../lib/gcc/arm-none-eabi/4.6.2/../../../../arm-none-eabi/lib/thumb/v7m\libg.a(lib_a-svfiprintf.o)
 .comment       0x00000000       0x12 d:/elektronik/ides/eclipse/yagarto/bin/../lib/gcc/arm-none-eabi/4.6.2/../../../../arm-none-eabi/lib/thumb/v7m\libg.a(lib_a-wcrtomb.o)
 .comment       0x00000000       0x12 d:/elektronik/ides/eclipse/yagarto/bin/../lib/gcc/arm-none-eabi/4.6.2/../../../../arm-none-eabi/lib/thumb/v7m\libg.a(lib_a-wctomb_r.o)
 .comment       0x00000000       0x12 d:/elektronik/ides/eclipse/yagarto/bin/../lib/gcc/arm-none-eabi/4.6.2/../../../../arm-none-eabi/lib/thumb/v7m\libg.a(lib_a-callocr.o)
 .comment       0x00000000       0x12 d:/elektronik/ides/eclipse/yagarto/bin/../lib/gcc/arm-none-eabi/4.6.2/../../../../arm-none-eabi/lib/thumb/v7m\libg.a(lib_a-fclose.o)
 .comment       0x00000000       0x12 d:/elektronik/ides/eclipse/yagarto/bin/../lib/gcc/arm-none-eabi/4.6.2/thumb/v7m/crtend.o

.debug_loc      0x00000000    0x2196d
 .debug_loc     0x00000000      0x658 ./STM32_USB_OTG_Driver/src/usb_core.o
 .debug_loc     0x00000658      0x230 ./STM32_USB_OTG_Driver/src/usb_hcd.o
 .debug_loc     0x00000888      0x26c ./STM32_USB_OTG_Driver/src/usb_hcd_int.o
 .debug_loc     0x00000af4      0x1c2 ./STM32_USB_HOST_Library/Core/src/usbh_core.o
 .debug_loc     0x00000cb6      0x150 ./STM32_USB_HOST_Library/Core/src/usbh_hcs.o
 .debug_loc     0x00000e06      0x1f8 ./STM32_USB_HOST_Library/Core/src/usbh_ioreq.o
 .debug_loc     0x00000ffe      0x2d8 ./STM32_USB_HOST_Library/Core/src/usbh_stdreq.o
 .debug_loc     0x000012d6       0xe0 ./STM32_USB_HOST_Library/Class/MSC/src/usbh_msc_bot.o
 .debug_loc     0x000013b6      0x188 ./STM32_USB_HOST_Library/Class/MSC/src/usbh_msc_core.o
 .debug_loc     0x0000153e      0x118 ./STM32_USB_HOST_Library/Class/MSC/src/usbh_msc_fatfs.o
 .debug_loc     0x00001656      0x150 ./STM32_USB_HOST_Library/Class/MSC/src/usbh_msc_scsi.o
 .debug_loc     0x000017a6      0x118 ./STM32F4xx_StdPeriph_Driver/src/misc.o
 .debug_loc     0x000018be      0x838 ./STM32F4xx_StdPeriph_Driver/src/stm32f4xx_adc.o
 .debug_loc     0x000020f6      0x3ac ./STM32F4xx_StdPeriph_Driver/src/stm32f4xx_dac.o
 .debug_loc     0x000024a2      0x100 ./STM32F4xx_StdPeriph_Driver/src/stm32f4xx_dbgmcu.o
 .debug_loc     0x000025a2      0x428 ./STM32F4xx_StdPeriph_Driver/src/stm32f4xx_dma.o
 .debug_loc     0x000029ca      0x1b4 ./STM32F4xx_StdPeriph_Driver/src/stm32f4xx_exti.o
 .debug_loc     0x00002b7e      0x624 ./STM32F4xx_StdPeriph_Driver/src/stm32f4xx_flash.o
 .debug_loc     0x000031a2      0x41c ./STM32F4xx_StdPeriph_Driver/src/stm32f4xx_fsmc.o
 .debug_loc     0x000035be      0x310 ./STM32F4xx_StdPeriph_Driver/src/stm32f4xx_gpio.o
 .debug_loc     0x000038ce      0x738 ./STM32F4xx_StdPeriph_Driver/src/stm32f4xx_i2c.o
 .debug_loc     0x00004006      0x138 ./STM32F4xx_StdPeriph_Driver/src/stm32f4xx_iwdg.o
 .debug_loc     0x0000413e      0x288 ./STM32F4xx_StdPeriph_Driver/src/stm32f4xx_pwr.o
 .debug_loc     0x000043c6      0x97c ./STM32F4xx_StdPeriph_Driver/src/stm32f4xx_rcc.o
 .debug_loc     0x00004d42      0x1a8 ./STM32F4xx_StdPeriph_Driver/src/stm32f4xx_rng.o
 .debug_loc     0x00004eea      0xc48 ./STM32F4xx_StdPeriph_Driver/src/stm32f4xx_rtc.o
 .debug_loc     0x00005b32      0x648 ./STM32F4xx_StdPeriph_Driver/src/stm32f4xx_sdio.o
 .debug_loc     0x0000617a      0x578 ./STM32F4xx_StdPeriph_Driver/src/stm32f4xx_spi.o
 .debug_loc     0x000066f2      0x144 ./STM32F4xx_StdPeriph_Driver/src/stm32f4xx_syscfg.o
 .debug_loc     0x00006836     0x1420 ./STM32F4xx_StdPeriph_Driver/src/stm32f4xx_tim.o
 .debug_loc     0x00007c56      0x658 ./STM32F4xx_StdPeriph_Driver/src/stm32f4xx_usart.o
 .debug_loc     0x000082ae      0x19c ./STM32F4xx_StdPeriph_Driver/src/stm32f4xx_wwdg.o
 .debug_loc     0x0000844a      0x150 ./STM32F4-Discovery/stm32f4_discovery.o
 .debug_loc     0x0000859a      0x794 ./STM32F4-Discovery/stm32f4_discovery_audio_codec.o
 .debug_loc     0x00008d2e      0x2cc ./STM32F4-Discovery/stm32f4_discovery_lis302dl.o
 .debug_loc     0x00008ffa      0x1c0 ./Menue/CMenue.o
 .debug_loc     0x000091ba      0x18a ./HelixMP3/real/bitstream.o
 .debug_loc     0x00009344       0xa8 ./HelixMP3/real/buffers.o
 .debug_loc     0x000093ec       0x72 ./HelixMP3/real/dct32.o
 .debug_loc     0x0000945e       0x72 ./HelixMP3/real/dequant.o
 .debug_loc     0x000094d0       0xe4 ./HelixMP3/real/dqchan.o
 .debug_loc     0x000095b4       0xae ./HelixMP3/real/huffman.o
 .debug_loc     0x00009662      0x2ae ./HelixMP3/real/imdct.o
 .debug_loc     0x00009910      0x11c ./HelixMP3/real/polyphase.o
 .debug_loc     0x00009a2c       0xac ./HelixMP3/real/scalfact.o
 .debug_loc     0x00009ad8      0x11c ./HelixMP3/real/stproc.o
 .debug_loc     0x00009bf4       0x38 ./HelixMP3/real/subband.o
 .debug_loc     0x00009c2c      0x1c2 ./HelixMP3/mp3dec.o
 .debug_loc     0x00009dee      0x150 ./GraphicLCD/CGraphicLCD.o
 .debug_loc     0x00009f3e      0x3f2 ./GraphicLCD/CT6963CDriver.o
 .debug_loc     0x0000a330      0x1f8 ./GraphicLCD/CT6963GPIOInterface.o
 .debug_loc     0x0000a528      0x350 ./FreeRTOS_EC/Source/AManagedTask.o
 .debug_loc     0x0000a878      0x1c0 ./FreeRTOS_EC/Source/ASyncObject.o
 .debug_loc     0x0000aa38      0x1f8 ./FreeRTOS_EC/Source/CBinarySemaphore.o
 .debug_loc     0x0000ac30      0x1f8 ./FreeRTOS_EC/Source/CCountingSemaphore.o
 .debug_loc     0x0000ae28       0x9c ./FreeRTOS_EC/Source/CFreeRTOS.o
 .debug_loc     0x0000aec4      0x460 ./FreeRTOS_EC/Source/CMessageTask.o
 .debug_loc     0x0000b324      0x1f8 ./FreeRTOS_EC/Source/CMutex.o
 .debug_loc     0x0000b51c      0x230 ./FreeRTOS_EC/Source/CQueue.o
 .debug_loc     0x0000b74c      0x1f8 ./FreeRTOS_EC/Source/CRecursiveMutex.o
 .debug_loc     0x0000b944      0x268 ./FreeRTOS_EC/Source/CTask.o
 .debug_loc     0x0000bbac      0x178 ./FreeRTOS/Source/portable/GCC/ARM_CM4F/port.o
 .debug_loc     0x0000bd24      0x188 ./FreeRTOS/Source/croutine.o
 .debug_loc     0x0000beac      0x118 ./FreeRTOS/Source/list.o
 .debug_loc     0x0000bfc4      0x380 ./FreeRTOS/Source/queue.o
 .debug_loc     0x0000c344      0x8f6 ./FreeRTOS/Source/tasks.o
 .debug_loc     0x0000cc3a      0x230 ./Audio_MP3/USB_MSC/CUSBMassStorage.o
 .debug_loc     0x0000ce6a      0x1a8 ./Audio_MP3/USB_MSC/usb_bsp.o
 .debug_loc     0x0000d012      0x360 ./Audio_MP3/USB_MSC/usbh_usr.o
 .debug_loc     0x0000d372      0x97c ./Audio_MP3/FatFs/src/ff.o
 .debug_loc     0x0000dcee      0x294 ./Audio_MP3/CFileHandler.o
 .debug_loc     0x0000df82       0x2c ./Audio_MP3/fattime.o
 .debug_loc     0x0000dfae      0x1c0 ./CLedHeartBeatSTM32F4Disc.o
 .debug_loc     0x0000e16e      0x184 ./main.o
 .debug_loc     0x0000e2f2      0x18c ./stm32f4xx_it.o
 .debug_loc     0x0000e47e      0x2a0 ./syscalls.o
 .debug_loc     0x0000e71e       0x9c ./system_stm32f4xx.o
 .debug_loc     0x0000e7ba       0xe0 ./ustime.o
 .debug_loc     0x0000e89a       0x4f d:/elektronik/ides/eclipse/yagarto/bin/../lib/gcc/arm-none-eabi/4.6.2/../../../../arm-none-eabi/lib/thumb/v7m\libstdc++.a(atexit_arm.o)
 .debug_loc     0x0000e8e9       0x1e d:/elektronik/ides/eclipse/yagarto/bin/../lib/gcc/arm-none-eabi/4.6.2/../../../../arm-none-eabi/lib/thumb/v7m\libstdc++.a(del_op.o)
 .debug_loc     0x0000e907       0x20 d:/elektronik/ides/eclipse/yagarto/bin/../lib/gcc/arm-none-eabi/4.6.2/../../../../arm-none-eabi/lib/thumb/v7m\libstdc++.a(pure.o)
 .debug_loc     0x0000e927       0xe4 d:/elektronik/ides/eclipse/yagarto/bin/../lib/gcc/arm-none-eabi/4.6.2/../../../../arm-none-eabi/lib/thumb/v7m\libstdc++.a(eh_terminate.o)
 .debug_loc     0x0000ea0b       0xfa d:/elektronik/ides/eclipse/yagarto/bin/../lib/gcc/arm-none-eabi/4.6.2/../../../../arm-none-eabi/lib/thumb/v7m\libstdc++.a(vterminate.o)
 .debug_loc     0x0000eb05     0x13f0 d:/elektronik/ides/eclipse/yagarto/bin/../lib/gcc/arm-none-eabi/4.6.2/../../../../arm-none-eabi/lib/thumb/v7m\libstdc++.a(cp-demangle.o)
 .debug_loc     0x0000fef5      0x2c0 d:/elektronik/ides/eclipse/yagarto/bin/../lib/gcc/arm-none-eabi/4.6.2/../../../../arm-none-eabi/lib/thumb/v7m\libstdc++.a(eh_arm.o)
 .debug_loc     0x000101b5       0x66 d:/elektronik/ides/eclipse/yagarto/bin/../lib/gcc/arm-none-eabi/4.6.2/../../../../arm-none-eabi/lib/thumb/v7m\libstdc++.a(eh_aux_runtime.o)
 .debug_loc     0x0001021b      0x3d7 d:/elektronik/ides/eclipse/yagarto/bin/../lib/gcc/arm-none-eabi/4.6.2/../../../../arm-none-eabi/lib/thumb/v7m\libstdc++.a(eh_call.o)
 .debug_loc     0x000105f2      0x29a d:/elektronik/ides/eclipse/yagarto/bin/../lib/gcc/arm-none-eabi/4.6.2/../../../../arm-none-eabi/lib/thumb/v7m\libstdc++.a(eh_catch.o)
 .debug_loc     0x0001088c      0x175 d:/elektronik/ides/eclipse/yagarto/bin/../lib/gcc/arm-none-eabi/4.6.2/../../../../arm-none-eabi/lib/thumb/v7m\libstdc++.a(eh_exception.o)
 .debug_loc     0x00010a01     0x1643 d:/elektronik/ides/eclipse/yagarto/bin/../lib/gcc/arm-none-eabi/4.6.2/../../../../arm-none-eabi/lib/thumb/v7m\libstdc++.a(eh_personality.o)
 .debug_loc     0x00012044      0x1b0 d:/elektronik/ides/eclipse/yagarto/bin/../lib/gcc/arm-none-eabi/4.6.2/../../../../arm-none-eabi/lib/thumb/v7m\libstdc++.a(eh_throw.o)
 .debug_loc     0x000121f4       0x51 d:/elektronik/ides/eclipse/yagarto/bin/../lib/gcc/arm-none-eabi/4.6.2/../../../../arm-none-eabi/lib/thumb/v7m\libstdc++.a(eh_type.o)
 .debug_loc     0x00012245       0x8f d:/elektronik/ides/eclipse/yagarto/bin/../lib/gcc/arm-none-eabi/4.6.2/../../../../arm-none-eabi/lib/thumb/v7m\libstdc++.a(fundamental_type_info.o)
 .debug_loc     0x000122d4      0x1b5 d:/elektronik/ides/eclipse/yagarto/bin/../lib/gcc/arm-none-eabi/4.6.2/../../../../arm-none-eabi/lib/thumb/v7m\libstdc++.a(pointer_type_info.o)
 .debug_loc     0x00012489      0x441 d:/elektronik/ides/eclipse/yagarto/bin/../lib/gcc/arm-none-eabi/4.6.2/../../../../arm-none-eabi/lib/thumb/v7m\libstdc++.a(si_class_type_info.o)
 .debug_loc     0x000128ca      0x13d d:/elektronik/ides/eclipse/yagarto/bin/../lib/gcc/arm-none-eabi/4.6.2/../../../../arm-none-eabi/lib/thumb/v7m\libstdc++.a(tinfo.o)
 .debug_loc     0x00012a07       0xa2 d:/elektronik/ides/eclipse/yagarto/bin/../lib/gcc/arm-none-eabi/4.6.2/../../../../arm-none-eabi/lib/thumb/v7m\libstdc++.a(bad_cast.o)
 .debug_loc     0x00012aa9       0xad d:/elektronik/ides/eclipse/yagarto/bin/../lib/gcc/arm-none-eabi/4.6.2/../../../../arm-none-eabi/lib/thumb/v7m\libstdc++.a(bad_typeid.o)
 .debug_loc     0x00012b56      0x341 d:/elektronik/ides/eclipse/yagarto/bin/../lib/gcc/arm-none-eabi/4.6.2/../../../../arm-none-eabi/lib/thumb/v7m\libstdc++.a(class_type_info.o)
 .debug_loc     0x00012e97      0x2f6 d:/elektronik/ides/eclipse/yagarto/bin/../lib/gcc/arm-none-eabi/4.6.2/../../../../arm-none-eabi/lib/thumb/v7m\libstdc++.a(eh_alloc.o)
 .debug_loc     0x0001318d      0x26f d:/elektronik/ides/eclipse/yagarto/bin/../lib/gcc/arm-none-eabi/4.6.2/../../../../arm-none-eabi/lib/thumb/v7m\libstdc++.a(pbase_type_info.o)
 .debug_loc     0x000133fc     0x1377 d:/elektronik/ides/eclipse/yagarto/bin/../lib/gcc/arm-none-eabi/4.6.2/thumb/v7m\libgcc.a(unwind-arm.o)
 .debug_loc     0x00014773      0x58a d:/elektronik/ides/eclipse/yagarto/bin/../lib/gcc/arm-none-eabi/4.6.2/thumb/v7m\libgcc.a(pr-support.o)
 .debug_loc     0x00014cfd       0x20 d:/elektronik/ides/eclipse/yagarto/bin/../lib/gcc/arm-none-eabi/4.6.2/../../../../arm-none-eabi/lib/thumb/v7m\libg.a(lib_a-abort.o)
 .debug_loc     0x00014d1d      0x11f d:/elektronik/ides/eclipse/yagarto/bin/../lib/gcc/arm-none-eabi/4.6.2/../../../../arm-none-eabi/lib/thumb/v7m\libg.a(lib_a-assert.o)
 .debug_loc     0x00014e3c       0x1e d:/elektronik/ides/eclipse/yagarto/bin/../lib/gcc/arm-none-eabi/4.6.2/../../../../arm-none-eabi/lib/thumb/v7m\libg.a(lib_a-atexit.o)
 .debug_loc     0x00014e5a       0x7a d:/elektronik/ides/eclipse/yagarto/bin/../lib/gcc/arm-none-eabi/4.6.2/../../../../arm-none-eabi/lib/thumb/v7m\libg.a(lib_a-cxa_atexit.o)
 .debug_loc     0x00014ed4       0x3e d:/elektronik/ides/eclipse/yagarto/bin/../lib/gcc/arm-none-eabi/4.6.2/../../../../arm-none-eabi/lib/thumb/v7m\libg.a(lib_a-exit.o)
 .debug_loc     0x00014f12       0x71 d:/elektronik/ides/eclipse/yagarto/bin/../lib/gcc/arm-none-eabi/4.6.2/../../../../arm-none-eabi/lib/thumb/v7m\libg.a(lib_a-fini.o)
 .debug_loc     0x00014f83       0xb4 d:/elektronik/ides/eclipse/yagarto/bin/../lib/gcc/arm-none-eabi/4.6.2/../../../../arm-none-eabi/lib/thumb/v7m\libg.a(lib_a-fiprintf.o)
 .debug_loc     0x00015037       0xcc d:/elektronik/ides/eclipse/yagarto/bin/../lib/gcc/arm-none-eabi/4.6.2/../../../../arm-none-eabi/lib/thumb/v7m\libg.a(lib_a-fputc.o)
 .debug_loc     0x00015103       0xca d:/elektronik/ides/eclipse/yagarto/bin/../lib/gcc/arm-none-eabi/4.6.2/../../../../arm-none-eabi/lib/thumb/v7m\libg.a(lib_a-fputs.o)
 .debug_loc     0x000151cd      0x5a8 d:/elektronik/ides/eclipse/yagarto/bin/../lib/gcc/arm-none-eabi/4.6.2/../../../../arm-none-eabi/lib/thumb/v7m\libg.a(lib_a-fvwrite.o)
 .debug_loc     0x00015775      0x153 d:/elektronik/ides/eclipse/yagarto/bin/../lib/gcc/arm-none-eabi/4.6.2/../../../../arm-none-eabi/lib/thumb/v7m\libg.a(lib_a-fwrite.o)
 .debug_loc     0x000158c8       0x7c d:/elektronik/ides/eclipse/yagarto/bin/../lib/gcc/arm-none-eabi/4.6.2/../../../../arm-none-eabi/lib/thumb/v7m\libg.a(lib_a-init.o)
 .debug_loc     0x00015944       0x3c d:/elektronik/ides/eclipse/yagarto/bin/../lib/gcc/arm-none-eabi/4.6.2/../../../../arm-none-eabi/lib/thumb/v7m\libg.a(lib_a-malloc.o)
 .debug_loc     0x00015980      0x995 d:/elektronik/ides/eclipse/yagarto/bin/../lib/gcc/arm-none-eabi/4.6.2/../../../../arm-none-eabi/lib/thumb/v7m\libg.a(lib_a-mallocr.o)
 .debug_loc     0x00016315      0x13f d:/elektronik/ides/eclipse/yagarto/bin/../lib/gcc/arm-none-eabi/4.6.2/../../../../arm-none-eabi/lib/thumb/v7m\libg.a(lib_a-memchr.o)
 .debug_loc     0x00016454       0xd3 d:/elektronik/ides/eclipse/yagarto/bin/../lib/gcc/arm-none-eabi/4.6.2/../../../../arm-none-eabi/lib/thumb/v7m\libg.a(lib_a-memcmp.o)
 .debug_loc     0x00016527      0x1cc d:/elektronik/ides/eclipse/yagarto/bin/../lib/gcc/arm-none-eabi/4.6.2/../../../../arm-none-eabi/lib/thumb/v7m\libg.a(lib_a-memcpy.o)
 .debug_loc     0x000166f3      0x251 d:/elektronik/ides/eclipse/yagarto/bin/../lib/gcc/arm-none-eabi/4.6.2/../../../../arm-none-eabi/lib/thumb/v7m\libg.a(lib_a-memmove.o)
 .debug_loc     0x00016944      0x1fb d:/elektronik/ides/eclipse/yagarto/bin/../lib/gcc/arm-none-eabi/4.6.2/../../../../arm-none-eabi/lib/thumb/v7m\libg.a(lib_a-memset.o)
 .debug_loc     0x00016b3f       0xfc d:/elektronik/ides/eclipse/yagarto/bin/../lib/gcc/arm-none-eabi/4.6.2/../../../../arm-none-eabi/lib/thumb/v7m\libg.a(lib_a-putc.o)
 .debug_loc     0x00016c3b       0x3c d:/elektronik/ides/eclipse/yagarto/bin/../lib/gcc/arm-none-eabi/4.6.2/../../../../arm-none-eabi/lib/thumb/v7m\libg.a(lib_a-realloc.o)
 .debug_loc     0x00016c77      0xb8a d:/elektronik/ides/eclipse/yagarto/bin/../lib/gcc/arm-none-eabi/4.6.2/../../../../arm-none-eabi/lib/thumb/v7m\libg.a(lib_a-reallocr.o)
 .debug_loc     0x00017801      0x2ba d:/elektronik/ides/eclipse/yagarto/bin/../lib/gcc/arm-none-eabi/4.6.2/../../../../arm-none-eabi/lib/thumb/v7m\libg.a(lib_a-signal.o)
 .debug_loc     0x00017abb       0xd9 d:/elektronik/ides/eclipse/yagarto/bin/../lib/gcc/arm-none-eabi/4.6.2/../../../../arm-none-eabi/lib/thumb/v7m\libg.a(lib_a-sprintf.o)
 .debug_loc     0x00017b94       0xb9 d:/elektronik/ides/eclipse/yagarto/bin/../lib/gcc/arm-none-eabi/4.6.2/../../../../arm-none-eabi/lib/thumb/v7m\libg.a(lib_a-strcat.o)
 .debug_loc     0x00017c4d       0x26 d:/elektronik/ides/eclipse/yagarto/bin/../lib/gcc/arm-none-eabi/4.6.2/../../../../arm-none-eabi/lib/thumb/v7m\libg.a(lib_a-strcmp.o)
 .debug_loc     0x00017c73       0x13 d:/elektronik/ides/eclipse/yagarto/bin/../lib/gcc/arm-none-eabi/4.6.2/../../../../arm-none-eabi/lib/thumb/v7m\libg.a(lib_a-strcpy.o)
 .debug_loc     0x00017c86       0x13 d:/elektronik/ides/eclipse/yagarto/bin/../lib/gcc/arm-none-eabi/4.6.2/../../../../arm-none-eabi/lib/thumb/v7m\libg.a(lib_a-strlen.o)
 .debug_loc     0x00017c99      0x16e d:/elektronik/ides/eclipse/yagarto/bin/../lib/gcc/arm-none-eabi/4.6.2/../../../../arm-none-eabi/lib/thumb/v7m\libg.a(lib_a-strncmp.o)
 .debug_loc     0x00017e07       0xe3 d:/elektronik/ides/eclipse/yagarto/bin/../lib/gcc/arm-none-eabi/4.6.2/../../../../arm-none-eabi/lib/thumb/v7m\libg.a(lib_a-strncpy.o)
 .debug_loc     0x00017eea     0x2325 d:/elektronik/ides/eclipse/yagarto/bin/../lib/gcc/arm-none-eabi/4.6.2/../../../../arm-none-eabi/lib/thumb/v7m\libg.a(lib_a-svfprintf.o)
 .debug_loc     0x0001a20f       0x7a d:/elektronik/ides/eclipse/yagarto/bin/../lib/gcc/arm-none-eabi/4.6.2/../../../../arm-none-eabi/lib/thumb/v7m\libg.a(lib_a-syswrite.o)
 .debug_loc     0x0001a289     0x14dd d:/elektronik/ides/eclipse/yagarto/bin/../lib/gcc/arm-none-eabi/4.6.2/../../../../arm-none-eabi/lib/thumb/v7m\libg.a(lib_a-vfiprintf.o)
 .debug_loc     0x0001b766      0x128 d:/elektronik/ides/eclipse/yagarto/bin/../lib/gcc/arm-none-eabi/4.6.2/../../../../arm-none-eabi/lib/thumb/v7m\libg.a(lib_a-wbuf.o)
 .debug_loc     0x0001b88e       0x5c d:/elektronik/ides/eclipse/yagarto/bin/../lib/gcc/arm-none-eabi/4.6.2/../../../../arm-none-eabi/lib/thumb/v7m\libg.a(lib_a-wsetup.o)
 .debug_loc     0x0001b8ea      0x114 d:/elektronik/ides/eclipse/yagarto/bin/../lib/gcc/arm-none-eabi/4.6.2/../../../../arm-none-eabi/lib/thumb/v7m\libg.a(lib_a-__atexit.o)
 .debug_loc     0x0001b9fe      0x1b5 d:/elektronik/ides/eclipse/yagarto/bin/../lib/gcc/arm-none-eabi/4.6.2/../../../../arm-none-eabi/lib/thumb/v7m\libg.a(lib_a-__call_atexit.o)
 .debug_loc     0x0001bbb3     0x1ea0 d:/elektronik/ides/eclipse/yagarto/bin/../lib/gcc/arm-none-eabi/4.6.2/../../../../arm-none-eabi/lib/thumb/v7m\libg.a(lib_a-dtoa.o)
 .debug_loc     0x0001da53      0x1f5 d:/elektronik/ides/eclipse/yagarto/bin/../lib/gcc/arm-none-eabi/4.6.2/../../../../arm-none-eabi/lib/thumb/v7m\libg.a(lib_a-fflush.o)
 .debug_loc     0x0001dc48      0x256 d:/elektronik/ides/eclipse/yagarto/bin/../lib/gcc/arm-none-eabi/4.6.2/../../../../arm-none-eabi/lib/thumb/v7m\libg.a(lib_a-findfp.o)
 .debug_loc     0x0001de9e      0x173 d:/elektronik/ides/eclipse/yagarto/bin/../lib/gcc/arm-none-eabi/4.6.2/../../../../arm-none-eabi/lib/thumb/v7m\libg.a(lib_a-fputwc.o)
 .debug_loc     0x0001e011      0x421 d:/elektronik/ides/eclipse/yagarto/bin/../lib/gcc/arm-none-eabi/4.6.2/../../../../arm-none-eabi/lib/thumb/v7m\libg.a(lib_a-freer.o)
 .debug_loc     0x0001e432      0x259 d:/elektronik/ides/eclipse/yagarto/bin/../lib/gcc/arm-none-eabi/4.6.2/../../../../arm-none-eabi/lib/thumb/v7m\libg.a(lib_a-fwalk.o)
 .debug_loc     0x0001e68b       0xb3 d:/elektronik/ides/eclipse/yagarto/bin/../lib/gcc/arm-none-eabi/4.6.2/../../../../arm-none-eabi/lib/thumb/v7m\libg.a(lib_a-locale.o)
 .debug_loc     0x0001e73e      0x118 d:/elektronik/ides/eclipse/yagarto/bin/../lib/gcc/arm-none-eabi/4.6.2/../../../../arm-none-eabi/lib/thumb/v7m\libg.a(lib_a-makebuf.o)
 .debug_loc     0x0001e856     0x1799 d:/elektronik/ides/eclipse/yagarto/bin/../lib/gcc/arm-none-eabi/4.6.2/../../../../arm-none-eabi/lib/thumb/v7m\libg.a(lib_a-mprec.o)
 .debug_loc     0x0001ffef       0xa0 d:/elektronik/ides/eclipse/yagarto/bin/../lib/gcc/arm-none-eabi/4.6.2/../../../../arm-none-eabi/lib/thumb/v7m\libg.a(lib_a-s_fpclassify.o)
 .debug_loc     0x0002008f      0x219 d:/elektronik/ides/eclipse/yagarto/bin/../lib/gcc/arm-none-eabi/4.6.2/../../../../arm-none-eabi/lib/thumb/v7m\libg.a(lib_a-stdio.o)
 .debug_loc     0x000202a8     0x121a d:/elektronik/ides/eclipse/yagarto/bin/../lib/gcc/arm-none-eabi/4.6.2/../../../../arm-none-eabi/lib/thumb/v7m\libg.a(lib_a-svfiprintf.o)
 .debug_loc     0x000214c2      0x1a1 d:/elektronik/ides/eclipse/yagarto/bin/../lib/gcc/arm-none-eabi/4.6.2/../../../../arm-none-eabi/lib/thumb/v7m\libg.a(lib_a-wcrtomb.o)
 .debug_loc     0x00021663       0xfb d:/elektronik/ides/eclipse/yagarto/bin/../lib/gcc/arm-none-eabi/4.6.2/../../../../arm-none-eabi/lib/thumb/v7m\libg.a(lib_a-wctomb_r.o)
 .debug_loc     0x0002175e      0x16c d:/elektronik/ides/eclipse/yagarto/bin/../lib/gcc/arm-none-eabi/4.6.2/../../../../arm-none-eabi/lib/thumb/v7m\libg.a(lib_a-callocr.o)
 .debug_loc     0x000218ca       0xa3 d:/elektronik/ides/eclipse/yagarto/bin/../lib/gcc/arm-none-eabi/4.6.2/../../../../arm-none-eabi/lib/thumb/v7m\libg.a(lib_a-fclose.o)

.debug_macinfo  0x00000000  0x14eb8f6
 .debug_macinfo
                0x00000000    0x50909 ./STM32_USB_OTG_Driver/src/usb_core.o
 .debug_macinfo
                0x00050909    0x5091e ./STM32_USB_OTG_Driver/src/usb_hcd.o
 .debug_macinfo
                0x000a1227    0x50aef ./STM32_USB_OTG_Driver/src/usb_hcd_int.o
 .debug_macinfo
                0x000f1d16    0x51683 ./STM32_USB_HOST_Library/Core/src/usbh_core.o
 .debug_macinfo
                0x00143399    0x512c1 ./STM32_USB_HOST_Library/Core/src/usbh_hcs.o
 .debug_macinfo
                0x0019465a    0x512b8 ./STM32_USB_HOST_Library/Core/src/usbh_ioreq.o
 .debug_macinfo
                0x001e5912    0x51375 ./STM32_USB_HOST_Library/Core/src/usbh_stdreq.o
 .debug_macinfo
                0x00236c87    0x52082 ./STM32_USB_HOST_Library/Class/MSC/src/usbh_msc_bot.o
 .debug_macinfo
                0x00288d09    0x51c2a ./STM32_USB_HOST_Library/Class/MSC/src/usbh_msc_core.o
 .debug_macinfo
                0x002da933    0x51d78 ./STM32_USB_HOST_Library/Class/MSC/src/usbh_msc_fatfs.o
 .debug_macinfo
                0x0032c6ab    0x51c0e ./STM32_USB_HOST_Library/Class/MSC/src/usbh_msc_scsi.o
 .debug_macinfo
                0x0037e2b9    0x4f87c ./STM32F4xx_StdPeriph_Driver/src/misc.o
 .debug_macinfo
                0x003cdb35    0x52efb ./STM32F4xx_StdPeriph_Driver/src/stm32f4xx_adc.o
 .debug_macinfo
                0x00420a30    0x4f96e ./STM32F4xx_StdPeriph_Driver/src/stm32f4xx_dac.o
 .debug_macinfo
                0x0047039e    0x4fdc8 ./STM32F4xx_StdPeriph_Driver/src/stm32f4xx_dbgmcu.o
 .debug_macinfo
                0x004c0166    0x4fb90 ./STM32F4xx_StdPeriph_Driver/src/stm32f4xx_dma.o
 .debug_macinfo
                0x0050fcf6    0x4f874 ./STM32F4xx_StdPeriph_Driver/src/stm32f4xx_exti.o
 .debug_macinfo
                0x0055f56a    0x50b43 ./STM32F4xx_StdPeriph_Driver/src/stm32f4xx_flash.o
 .debug_macinfo
                0x005b00ad    0x4f995 ./STM32F4xx_StdPeriph_Driver/src/stm32f4xx_fsmc.o
 .debug_macinfo
                0x005ffa42    0x4f850 ./STM32F4xx_StdPeriph_Driver/src/stm32f4xx_gpio.o
 .debug_macinfo
                0x0064f292    0x4f8ba ./STM32F4xx_StdPeriph_Driver/src/stm32f4xx_i2c.o
 .debug_macinfo
                0x0069eb4c    0x4fc5c ./STM32F4xx_StdPeriph_Driver/src/stm32f4xx_iwdg.o
 .debug_macinfo
                0x006ee7a8    0x4fb35 ./STM32F4xx_StdPeriph_Driver/src/stm32f4xx_pwr.o
 .debug_macinfo
                0x0073e2dd    0x4fd5c ./STM32F4xx_StdPeriph_Driver/src/stm32f4xx_rcc.o
 .debug_macinfo
                0x0078e039    0x4fa76 ./STM32F4xx_StdPeriph_Driver/src/stm32f4xx_rng.o
 .debug_macinfo
                0x007ddaaf    0x4fa91 ./STM32F4xx_StdPeriph_Driver/src/stm32f4xx_rtc.o
 .debug_macinfo
                0x0082d540    0x4fdf9 ./STM32F4xx_StdPeriph_Driver/src/stm32f4xx_sdio.o
 .debug_macinfo
                0x0087d339    0x4f93d ./STM32F4xx_StdPeriph_Driver/src/stm32f4xx_spi.o
 .debug_macinfo
                0x008ccc76    0x4f9be ./STM32F4xx_StdPeriph_Driver/src/stm32f4xx_syscfg.o
 .debug_macinfo
                0x0091c634    0x4f929 ./STM32F4xx_StdPeriph_Driver/src/stm32f4xx_tim.o
 .debug_macinfo
                0x0096bf5d    0x50e44 ./STM32F4xx_StdPeriph_Driver/src/stm32f4xx_usart.o
 .debug_macinfo
                0x009bcda1    0x4f95e ./STM32F4xx_StdPeriph_Driver/src/stm32f4xx_wwdg.o
 .debug_macinfo
                0x00a0c6ff    0x4fad9 ./STM32F4-Discovery/stm32f4_discovery.o
 .debug_macinfo
                0x00a5c1d8    0x50481 ./STM32F4-Discovery/stm32f4_discovery_audio_codec.o
 .debug_macinfo
                0x00aac659    0x50a59 ./STM32F4-Discovery/stm32f4_discovery_lis302dl.o
 .debug_macinfo
                0x00afd0b2    0x55130 ./Menue/CMenue.o
 .debug_macinfo
                0x00b521e2     0x20f2 ./HelixMP3/real/bitstream.o
 .debug_macinfo
                0x00b542d4     0x20f1 ./HelixMP3/real/buffers.o
 .debug_macinfo
                0x00b563c5     0x24b4 ./HelixMP3/real/dct32.o
 .debug_macinfo
                0x00b58879     0x20f2 ./HelixMP3/real/dequant.o
 .debug_macinfo
                0x00b5a96b     0x2108 ./HelixMP3/real/dqchan.o
 .debug_macinfo
                0x00b5ca73     0x2369 ./HelixMP3/real/huffman.o
 .debug_macinfo
                0x00b5eddc     0x2330 ./HelixMP3/real/hufftabs.o
 .debug_macinfo
                0x00b6110c     0x20f2 ./HelixMP3/real/imdct.o
 .debug_macinfo
                0x00b631fe     0x262d ./HelixMP3/real/polyphase.o
 .debug_macinfo
                0x00b6582b     0x20df ./HelixMP3/real/scalfact.o
 .debug_macinfo
                0x00b6790a     0x20f2 ./HelixMP3/real/stproc.o
 .debug_macinfo
                0x00b699fc     0x20f2 ./HelixMP3/real/subband.o
 .debug_macinfo
                0x00b6baee     0x20df ./HelixMP3/real/trigtabs.o
 .debug_macinfo
                0x00b6dbcd     0x3732 ./HelixMP3/mp3dec.o
 .debug_macinfo
                0x00b712ff     0x1b92 ./HelixMP3/mp3tabs.o
 .debug_macinfo
                0x00b72e91     0x17f9 ./GraphicLCD/CGraphicLCD.o
 .debug_macinfo
                0x00b7468a     0x1811 ./GraphicLCD/CT6963CDriver.o
 .debug_macinfo
                0x00b75e9b    0x51c7a ./GraphicLCD/CT6963GPIOInterface.o
 .debug_macinfo
                0x00bc7b15     0x180f ./GraphicLCD/SansSerif12.o
 .debug_macinfo
                0x00bc9324     0x180f ./GraphicLCD/SansSerif26.o
 .debug_macinfo
                0x00bcab33    0x51836 ./FreeRTOS_EC/Source/AManagedTask.o
 .debug_macinfo
                0x00c1c369    0x521e3 ./FreeRTOS_EC/Source/ASyncObject.o
 .debug_macinfo
                0x00c6e54c    0x521a2 ./FreeRTOS_EC/Source/ATimer.o
 .debug_macinfo
                0x00cc06ee    0x52265 ./FreeRTOS_EC/Source/CBinarySemaphore.o
 .debug_macinfo
                0x00d12953    0x52267 ./FreeRTOS_EC/Source/CCountingSemaphore.o
 .debug_macinfo
                0x00d64bba    0x51836 ./FreeRTOS_EC/Source/CFreeRTOS.o
 .debug_macinfo
                0x00db63f0    0x5497b ./FreeRTOS_EC/Source/CMessageTask.o
 .debug_macinfo
                0x00e0ad6b    0x521f4 ./FreeRTOS_EC/Source/CMutex.o
 .debug_macinfo
                0x00e5cf5f    0x51bc2 ./FreeRTOS_EC/Source/CQueue.o
 .debug_macinfo
                0x00eaeb21    0x521fd ./FreeRTOS_EC/Source/CRecursiveMutex.o
 .debug_macinfo
                0x00f00d1e    0x51c01 ./FreeRTOS_EC/Source/CTask.o
 .debug_macinfo
                0x00f5291f    0x51a44 ./FreeRTOS/Source/portable/GCC/ARM_CM4F/port.o
 .debug_macinfo
                0x00fa4363    0x51ee9 ./FreeRTOS/Source/croutine.o
 .debug_macinfo
                0x00ff624c    0x52f92 ./FreeRTOS/Source/list.o
 .debug_macinfo
                0x010491de    0x536a1 ./FreeRTOS/Source/queue.o
 .debug_macinfo
                0x0109c87f    0x54c12 ./FreeRTOS/Source/tasks.o
 .debug_macinfo
                0x010f1491    0x524de ./FreeRTOS/Source/timers.o
 .debug_macinfo
                0x0114396f    0x57cc8 ./Audio_MP3/USB_MSC/CUSBMassStorage.o
 .debug_macinfo
                0x0119b637    0x50a9c ./Audio_MP3/USB_MSC/usb_bsp.o
 .debug_macinfo
                0x011ec0d3    0x5788b ./Audio_MP3/USB_MSC/usbh_usr.o
 .debug_macinfo
                0x0124395e    0x5427b ./Audio_MP3/FatFs/src/option/syscall.o
 .debug_macinfo
                0x01297bd9     0x235b ./Audio_MP3/FatFs/src/ff.o
 .debug_macinfo
                0x01299f34    0x58a01 ./Audio_MP3/CFileHandler.o
 .debug_macinfo
                0x012f2935     0x17ce ./Audio_MP3/fattime.o
 .debug_macinfo
                0x012f4103    0x51ad2 ./CLedHeartBeatSTM32F4Disc.o
 .debug_macinfo
                0x01345bd5    0x57ddf ./main.o
 .debug_macinfo
                0x0139d9b4    0x588a6 ./stm32f4xx_it.o
 .debug_macinfo
                0x013f625a    0x54d98 ./syscalls.o
 .debug_macinfo
                0x0144aff2    0x4f8b0 ./system_stm32f4xx.o
 .debug_macinfo
                0x0149a8a2    0x51054 ./ustime.o

.debug_str      0x00000000    0x12d68
 .debug_str     0x00000000      0xfd1 ./STM32_USB_OTG_Driver/src/usb_core.o
                               0x12fa (size before relaxing)
 .debug_str     0x00000fd1       0xcf ./STM32_USB_OTG_Driver/src/usb_hcd.o
                                0x8b7 (size before relaxing)
 .debug_str     0x000010a0      0x268 ./STM32_USB_OTG_Driver/src/usb_hcd_int.o
                                0xec1 (size before relaxing)
 .debug_str     0x00001308      0x94f ./STM32_USB_HOST_Library/Core/src/usbh_core.o
                               0x11d6 (size before relaxing)
 .debug_str     0x00001c57       0xbc ./STM32_USB_HOST_Library/Core/src/usbh_hcs.o
                                0x821 (size before relaxing)
 .debug_str     0x00001d13       0xe3 ./STM32_USB_HOST_Library/Core/src/usbh_ioreq.o
                               0x1192 (size before relaxing)
 .debug_str     0x00001df6      0x1d9 ./STM32_USB_HOST_Library/Core/src/usbh_stdreq.o
                               0x1289 (size before relaxing)
 .debug_str     0x00001fcf      0x374 ./STM32_USB_HOST_Library/Class/MSC/src/usbh_msc_bot.o
                               0x1437 (size before relaxing)
 .debug_str     0x00002343      0x213 ./STM32_USB_HOST_Library/Class/MSC/src/usbh_msc_core.o
                               0x144f (size before relaxing)
 .debug_str     0x00002556      0x156 ./STM32_USB_HOST_Library/Class/MSC/src/usbh_msc_fatfs.o
                               0x124e (size before relaxing)
 .debug_str     0x000026ac      0x10e ./STM32_USB_HOST_Library/Class/MSC/src/usbh_msc_scsi.o
                                0xbcd (size before relaxing)
 .debug_str     0x000027ba      0x24d ./STM32F4xx_StdPeriph_Driver/src/misc.o
                                0x36e (size before relaxing)
 .debug_str     0x00002a07      0x634 ./STM32F4xx_StdPeriph_Driver/src/stm32f4xx_adc.o
                                0x799 (size before relaxing)
 .debug_str     0x0000303b      0x267 ./STM32F4xx_StdPeriph_Driver/src/stm32f4xx_dac.o
                                0x3e8 (size before relaxing)
 .debug_str     0x000032a2       0xc5 ./STM32F4xx_StdPeriph_Driver/src/stm32f4xx_dbgmcu.o
                                0x1ea (size before relaxing)
 .debug_str     0x00003367      0x36d ./STM32F4xx_StdPeriph_Driver/src/stm32f4xx_dma.o
                                0x4e1 (size before relaxing)
 .debug_str     0x000036d4      0x1b6 ./STM32F4xx_StdPeriph_Driver/src/stm32f4xx_exti.o
                                0x303 (size before relaxing)
 .debug_str     0x0000388a      0x3b2 ./STM32F4xx_StdPeriph_Driver/src/stm32f4xx_flash.o
                                0x51c (size before relaxing)
 .debug_str     0x00003c3c      0x5c4 ./STM32F4xx_StdPeriph_Driver/src/stm32f4xx_fsmc.o
                                0x729 (size before relaxing)
 .debug_str     0x00004200      0x291 ./STM32F4xx_StdPeriph_Driver/src/stm32f4xx_gpio.o
                                0x438 (size before relaxing)
 .debug_str     0x00004491      0x439 ./STM32F4xx_StdPeriph_Driver/src/stm32f4xx_i2c.o
                                0x5fa (size before relaxing)
 .debug_str     0x000048ca       0xd1 ./STM32F4xx_StdPeriph_Driver/src/stm32f4xx_iwdg.o
                                0x201 (size before relaxing)
 .debug_str     0x0000499b      0x170 ./STM32F4xx_StdPeriph_Driver/src/stm32f4xx_pwr.o
                                0x326 (size before relaxing)
 .debug_str     0x00004b0b      0x5b2 ./STM32F4xx_StdPeriph_Driver/src/stm32f4xx_rcc.o
                                0x7e5 (size before relaxing)
 .debug_str     0x000050bd       0xc8 ./STM32F4xx_StdPeriph_Driver/src/stm32f4xx_rng.o
                                0x219 (size before relaxing)
 .debug_str     0x00005185      0x94d ./STM32F4xx_StdPeriph_Driver/src/stm32f4xx_rtc.o
                                0xae8 (size before relaxing)
 .debug_str     0x00005ad2      0x465 ./STM32F4xx_StdPeriph_Driver/src/stm32f4xx_sdio.o
                                0x5e0 (size before relaxing)
 .debug_str     0x00005f37      0x382 ./STM32F4xx_StdPeriph_Driver/src/stm32f4xx_spi.o
                                0x61f (size before relaxing)
 .debug_str     0x000062b9      0x14c ./STM32F4xx_StdPeriph_Driver/src/stm32f4xx_syscfg.o
                                0x294 (size before relaxing)
 .debug_str     0x00006405      0xb4b ./STM32F4xx_StdPeriph_Driver/src/stm32f4xx_tim.o
                                0xd65 (size before relaxing)
 .debug_str     0x00006f50      0x419 ./STM32F4xx_StdPeriph_Driver/src/stm32f4xx_usart.o
                                0x624 (size before relaxing)
 .debug_str     0x00007369       0xcd ./STM32F4xx_StdPeriph_Driver/src/stm32f4xx_wwdg.o
                                0x217 (size before relaxing)
 .debug_str     0x00007436      0x6bd ./STM32F4-Discovery/stm32f4_discovery.o
                                0xabe (size before relaxing)
 .debug_str     0x00007af3      0x4a9 ./STM32F4-Discovery/stm32f4_discovery_audio_codec.o
                               0x10b2 (size before relaxing)
 .debug_str     0x00007f9c      0x303 ./STM32F4-Discovery/stm32f4_discovery_lis302dl.o
                                0x6fd (size before relaxing)
 .debug_str     0x0000829f      0x5bb ./Menue/CMenue.o
                                0x7dc (size before relaxing)
 .debug_str     0x0000885a      0x3d0 ./HelixMP3/real/bitstream.o
                                0x4e1 (size before relaxing)
 .debug_str     0x00008c2a      0x173 ./HelixMP3/real/buffers.o
                                0x51c (size before relaxing)
 .debug_str     0x00008d9d       0x4a ./HelixMP3/real/dct32.o
                                 0xee (size before relaxing)
 .debug_str     0x00008de7       0x39 ./HelixMP3/real/dequant.o
                                0x491 (size before relaxing)
 .debug_str     0x00008e20       0xf3 ./HelixMP3/real/dqchan.o
                                0x3bb (size before relaxing)
 .debug_str     0x00008f13      0x19b ./HelixMP3/real/huffman.o
                                0x5e3 (size before relaxing)
 .debug_str     0x000090ae       0x1c ./HelixMP3/real/hufftabs.o
                                0x1a5 (size before relaxing)
 .debug_str     0x000090ca      0x197 ./HelixMP3/real/imdct.o
                                0x592 (size before relaxing)
 .debug_str     0x00009261       0xab ./HelixMP3/real/polyphase.o
                                0x14d (size before relaxing)
 .debug_str     0x0000930c       0x98 ./HelixMP3/real/scalfact.o
                                0x4c1 (size before relaxing)
 .debug_str     0x000093a4       0xba ./HelixMP3/real/stproc.o
                                0x2ed (size before relaxing)
 .debug_str     0x0000945e       0x3d ./HelixMP3/real/subband.o
                                0x2a1 (size before relaxing)
 .debug_str     0x0000949b       0x39 ./HelixMP3/real/trigtabs.o
                                0x10b (size before relaxing)
 .debug_str     0x000094d4      0x292 ./HelixMP3/mp3dec.o
                                0x501 (size before relaxing)
 .debug_str     0x00009766       0x2a ./HelixMP3/mp3tabs.o
                                0x12e (size before relaxing)
 .debug_str     0x00009790      0x1cf ./GraphicLCD/CGraphicLCD.o
                                0x2ed (size before relaxing)
 .debug_str     0x0000995f      0x7b6 ./GraphicLCD/CT6963CDriver.o
                                0x950 (size before relaxing)
 .debug_str     0x0000a115      0x1c5 ./GraphicLCD/CT6963GPIOInterface.o
                                0x566 (size before relaxing)
 .debug_str     0x0000a2da       0xb4 ./GraphicLCD/SansSerif12.o
                                0x197 (size before relaxing)
 .debug_str     0x0000a38e       0xb4 ./GraphicLCD/SansSerif26.o
                                0x197 (size before relaxing)
 .debug_str     0x0000a442      0x2a3 ./FreeRTOS_EC/Source/AManagedTask.o
                                0x524 (size before relaxing)
 .debug_str     0x0000a6e5      0x130 ./FreeRTOS_EC/Source/ASyncObject.o
                                0x32d (size before relaxing)
 .debug_str     0x0000a815       0x21 ./FreeRTOS_EC/Source/ATimer.o
                                0x117 (size before relaxing)
 .debug_str     0x0000a836       0xd3 ./FreeRTOS_EC/Source/CBinarySemaphore.o
                                0x345 (size before relaxing)
 .debug_str     0x0000a909       0xe3 ./FreeRTOS_EC/Source/CCountingSemaphore.o
                                0x367 (size before relaxing)
 .debug_str     0x0000a9ec       0x9a ./FreeRTOS_EC/Source/CFreeRTOS.o
                                0x246 (size before relaxing)
 .debug_str     0x0000aa86      0x405 ./FreeRTOS_EC/Source/CMessageTask.o
                                0x6d4 (size before relaxing)
 .debug_str     0x0000ae8b       0x61 ./FreeRTOS_EC/Source/CMutex.o
                                0x2d4 (size before relaxing)
 .debug_str     0x0000aeec      0x1bf ./FreeRTOS_EC/Source/CQueue.o
                                0x4b0 (size before relaxing)
 .debug_str     0x0000b0ab       0x91 ./FreeRTOS_EC/Source/CRecursiveMutex.o
                                0x2ed (size before relaxing)
 .debug_str     0x0000b13c      0x3fa ./FreeRTOS_EC/Source/CTask.o
                                0x76c (size before relaxing)
 .debug_str     0x0000b536      0x148 ./FreeRTOS/Source/portable/GCC/ARM_CM4F/port.o
                                0x26b (size before relaxing)
 .debug_str     0x0000b67e      0x336 ./FreeRTOS/Source/croutine.o
                                0x450 (size before relaxing)
 .debug_str     0x0000b9b4       0xad ./FreeRTOS/Source/list.o
                                0x244 (size before relaxing)
 .debug_str     0x0000ba61      0x2bb ./FreeRTOS/Source/queue.o
                                0x4ce (size before relaxing)
 .debug_str     0x0000bd1c      0x741 ./FreeRTOS/Source/tasks.o
                                0xa7f (size before relaxing)
 .debug_str     0x0000c45d       0x1c ./FreeRTOS/Source/timers.o
                                0x110 (size before relaxing)
 .debug_str     0x0000c479      0x19c ./Audio_MP3/USB_MSC/CUSBMassStorage.o
                               0x1432 (size before relaxing)
 .debug_str     0x0000c615       0xcf ./Audio_MP3/USB_MSC/usb_bsp.o
                                0xf5c (size before relaxing)
 .debug_str     0x0000c6e4      0x363 ./Audio_MP3/USB_MSC/usbh_usr.o
                                0x7ed (size before relaxing)
 .debug_str     0x0000ca47       0x28 ./Audio_MP3/FatFs/src/option/syscall.o
                                0x121 (size before relaxing)
 .debug_str     0x0000ca6f      0x31a ./Audio_MP3/FatFs/src/ff.o
                                0x607 (size before relaxing)
 .debug_str     0x0000cd89      0x23a ./Audio_MP3/CFileHandler.o
                                0x93e (size before relaxing)
 .debug_str     0x0000cfc3       0x23 ./Audio_MP3/fattime.o
                                 0xe3 (size before relaxing)
 .debug_str     0x0000cfe6      0x153 ./CLedHeartBeatSTM32F4Disc.o
                                0x403 (size before relaxing)
 .debug_str     0x0000d139       0xfb ./main.o
                                0x32e (size before relaxing)
 .debug_str     0x0000d234       0xde ./stm32f4xx_it.o
                                0x7e4 (size before relaxing)
 .debug_str     0x0000d312      0x18d ./syscalls.o
                                0x67d (size before relaxing)
 .debug_str     0x0000d49f       0x5c ./system_stm32f4xx.o
                                0x326 (size before relaxing)
 .debug_str     0x0000d4fb       0x42 ./ustime.o
                                0x344 (size before relaxing)
 .debug_str     0x0000d53d       0xc2 d:/elektronik/ides/eclipse/yagarto/bin/../lib/gcc/arm-none-eabi/4.6.2/../../../../arm-none-eabi/lib/thumb/v7m\libstdc++.a(atexit_arm.o)
                                 0xfd (size before relaxing)
 .debug_str     0x0000d5ff       0xdb d:/elektronik/ides/eclipse/yagarto/bin/../lib/gcc/arm-none-eabi/4.6.2/../../../../arm-none-eabi/lib/thumb/v7m\libstdc++.a(del_op.o)
                                0x1f2 (size before relaxing)
 .debug_str     0x0000d6da       0x4e d:/elektronik/ides/eclipse/yagarto/bin/../lib/gcc/arm-none-eabi/4.6.2/../../../../arm-none-eabi/lib/thumb/v7m\libstdc++.a(pure.o)
                                0x147 (size before relaxing)
 .debug_str     0x0000d728      0x167 d:/elektronik/ides/eclipse/yagarto/bin/../lib/gcc/arm-none-eabi/4.6.2/../../../../arm-none-eabi/lib/thumb/v7m\libstdc++.a(eh_terminate.o)
                                0x357 (size before relaxing)
 .debug_str     0x0000d88f       0x46 d:/elektronik/ides/eclipse/yagarto/bin/../lib/gcc/arm-none-eabi/4.6.2/../../../../arm-none-eabi/lib/thumb/v7m\libstdc++.a(eh_term_handler.o)
                                0x162 (size before relaxing)
 .debug_str     0x0000d8d5       0x46 d:/elektronik/ides/eclipse/yagarto/bin/../lib/gcc/arm-none-eabi/4.6.2/../../../../arm-none-eabi/lib/thumb/v7m\libstdc++.a(eh_unex_handler.o)
                                0x165 (size before relaxing)
 .debug_str     0x0000d91b       0xb8 d:/elektronik/ides/eclipse/yagarto/bin/../lib/gcc/arm-none-eabi/4.6.2/../../../../arm-none-eabi/lib/thumb/v7m\libstdc++.a(vterminate.o)
                                0x711 (size before relaxing)
 .debug_str     0x0000d9d3     0x130c d:/elektronik/ides/eclipse/yagarto/bin/../lib/gcc/arm-none-eabi/4.6.2/../../../../arm-none-eabi/lib/thumb/v7m\libstdc++.a(cp-demangle.o)
                               0x1531 (size before relaxing)
 .debug_str     0x0000ecdf      0x49a d:/elektronik/ides/eclipse/yagarto/bin/../lib/gcc/arm-none-eabi/4.6.2/../../../../arm-none-eabi/lib/thumb/v7m\libstdc++.a(eh_arm.o)
                                0x641 (size before relaxing)
 .debug_str     0x0000f179       0x65 d:/elektronik/ides/eclipse/yagarto/bin/../lib/gcc/arm-none-eabi/4.6.2/../../../../arm-none-eabi/lib/thumb/v7m\libstdc++.a(eh_aux_runtime.o)
                                0x231 (size before relaxing)
 .debug_str     0x0000f1de      0x14c d:/elektronik/ides/eclipse/yagarto/bin/../lib/gcc/arm-none-eabi/4.6.2/../../../../arm-none-eabi/lib/thumb/v7m\libstdc++.a(eh_call.o)
                                0x6ed (size before relaxing)
 .debug_str     0x0000f32a       0xd7 d:/elektronik/ides/eclipse/yagarto/bin/../lib/gcc/arm-none-eabi/4.6.2/../../../../arm-none-eabi/lib/thumb/v7m\libstdc++.a(eh_catch.o)
                                0x58b (size before relaxing)
 .debug_str     0x0000f401      0x170 d:/elektronik/ides/eclipse/yagarto/bin/../lib/gcc/arm-none-eabi/4.6.2/../../../../arm-none-eabi/lib/thumb/v7m\libstdc++.a(eh_exception.o)
                                0x256 (size before relaxing)
 .debug_str     0x0000f571       0x6a d:/elektronik/ides/eclipse/yagarto/bin/../lib/gcc/arm-none-eabi/4.6.2/../../../../arm-none-eabi/lib/thumb/v7m\libstdc++.a(eh_globals.o)
                                0x4d1 (size before relaxing)
 .debug_str     0x0000f5db      0x4da d:/elektronik/ides/eclipse/yagarto/bin/../lib/gcc/arm-none-eabi/4.6.2/../../../../arm-none-eabi/lib/thumb/v7m\libstdc++.a(eh_personality.o)
                                0xa77 (size before relaxing)
 .debug_str     0x0000fab5      0x126 d:/elektronik/ides/eclipse/yagarto/bin/../lib/gcc/arm-none-eabi/4.6.2/../../../../arm-none-eabi/lib/thumb/v7m\libstdc++.a(eh_throw.o)
                                0x551 (size before relaxing)
 .debug_str     0x0000fbdb       0x5b d:/elektronik/ides/eclipse/yagarto/bin/../lib/gcc/arm-none-eabi/4.6.2/../../../../arm-none-eabi/lib/thumb/v7m\libstdc++.a(eh_type.o)
                                0x473 (size before relaxing)
 .debug_str     0x0000fc36       0xe3 d:/elektronik/ides/eclipse/yagarto/bin/../lib/gcc/arm-none-eabi/4.6.2/../../../../arm-none-eabi/lib/thumb/v7m\libstdc++.a(fundamental_type_info.o)
                                0x1b1 (size before relaxing)
 .debug_str     0x0000fd19      0x162 d:/elektronik/ides/eclipse/yagarto/bin/../lib/gcc/arm-none-eabi/4.6.2/../../../../arm-none-eabi/lib/thumb/v7m\libstdc++.a(pointer_type_info.o)
                                0x2bc (size before relaxing)
 .debug_str     0x0000fe7b      0x409 d:/elektronik/ides/eclipse/yagarto/bin/../lib/gcc/arm-none-eabi/4.6.2/../../../../arm-none-eabi/lib/thumb/v7m\libstdc++.a(si_class_type_info.o)
                                0x579 (size before relaxing)
 .debug_str     0x00010284      0x192 d:/elektronik/ides/eclipse/yagarto/bin/../lib/gcc/arm-none-eabi/4.6.2/../../../../arm-none-eabi/lib/thumb/v7m\libstdc++.a(tinfo.o)
                                0x33b (size before relaxing)
 .debug_str     0x00010416       0x60 d:/elektronik/ides/eclipse/yagarto/bin/../lib/gcc/arm-none-eabi/4.6.2/../../../../arm-none-eabi/lib/thumb/v7m\libstdc++.a(bad_cast.o)
                                 0xec (size before relaxing)
 .debug_str     0x00010476       0x67 d:/elektronik/ides/eclipse/yagarto/bin/../lib/gcc/arm-none-eabi/4.6.2/../../../../arm-none-eabi/lib/thumb/v7m\libstdc++.a(bad_typeid.o)
                                 0xf5 (size before relaxing)
 .debug_str     0x000104dd      0x26d d:/elektronik/ides/eclipse/yagarto/bin/../lib/gcc/arm-none-eabi/4.6.2/../../../../arm-none-eabi/lib/thumb/v7m\libstdc++.a(class_type_info.o)
                                0x5eb (size before relaxing)
 .debug_str     0x0001074a      0x321 d:/elektronik/ides/eclipse/yagarto/bin/../lib/gcc/arm-none-eabi/4.6.2/../../../../arm-none-eabi/lib/thumb/v7m\libstdc++.a(eh_alloc.o)
                                0x887 (size before relaxing)
 .debug_str     0x00010a6b      0x138 d:/elektronik/ides/eclipse/yagarto/bin/../lib/gcc/arm-none-eabi/4.6.2/../../../../arm-none-eabi/lib/thumb/v7m\libstdc++.a(pbase_type_info.o)
                                0x32e (size before relaxing)
 .debug_str     0x00010ba3      0x4de d:/elektronik/ides/eclipse/yagarto/bin/../lib/gcc/arm-none-eabi/4.6.2/thumb/v7m\libgcc.a(unwind-arm.o)
                                0x930 (size before relaxing)
 .debug_str     0x00011081       0xfc d:/elektronik/ides/eclipse/yagarto/bin/../lib/gcc/arm-none-eabi/4.6.2/thumb/v7m\libgcc.a(pr-support.o)
                                0x467 (size before relaxing)
 .debug_str     0x0001117d       0x95 d:/elektronik/ides/eclipse/yagarto/bin/../lib/gcc/arm-none-eabi/4.6.2/../../../../arm-none-eabi/lib/thumb/v7m\libg.a(lib_a-abort.o)
                                0x12a (size before relaxing)
 .debug_str     0x00011212       0x66 d:/elektronik/ides/eclipse/yagarto/bin/../lib/gcc/arm-none-eabi/4.6.2/../../../../arm-none-eabi/lib/thumb/v7m\libg.a(lib_a-assert.o)
                                0x511 (size before relaxing)
 .debug_str     0x00011278       0x6f d:/elektronik/ides/eclipse/yagarto/bin/../lib/gcc/arm-none-eabi/4.6.2/../../../../arm-none-eabi/lib/thumb/v7m\libg.a(lib_a-atexit.o)
                                0x15c (size before relaxing)
 .debug_str     0x000112e7       0x50 d:/elektronik/ides/eclipse/yagarto/bin/../lib/gcc/arm-none-eabi/4.6.2/../../../../arm-none-eabi/lib/thumb/v7m\libg.a(lib_a-cxa_atexit.o)
                                0x166 (size before relaxing)
 .debug_str     0x00011337       0x50 d:/elektronik/ides/eclipse/yagarto/bin/../lib/gcc/arm-none-eabi/4.6.2/../../../../arm-none-eabi/lib/thumb/v7m\libg.a(lib_a-exit.o)
                                0x4ef (size before relaxing)
 .debug_str     0x00011387       0xc0 d:/elektronik/ides/eclipse/yagarto/bin/../lib/gcc/arm-none-eabi/4.6.2/../../../../arm-none-eabi/lib/thumb/v7m\libg.a(lib_a-fini.o)
                                0x162 (size before relaxing)
 .debug_str     0x00011447       0xba d:/elektronik/ides/eclipse/yagarto/bin/../lib/gcc/arm-none-eabi/4.6.2/../../../../arm-none-eabi/lib/thumb/v7m\libg.a(lib_a-fiprintf.o)
                                0x520 (size before relaxing)
 .debug_str     0x00011501       0x4c d:/elektronik/ides/eclipse/yagarto/bin/../lib/gcc/arm-none-eabi/4.6.2/../../../../arm-none-eabi/lib/thumb/v7m\libg.a(lib_a-fputc.o)
                                0x4fd (size before relaxing)
 .debug_str     0x0001154d       0x88 d:/elektronik/ides/eclipse/yagarto/bin/../lib/gcc/arm-none-eabi/4.6.2/../../../../arm-none-eabi/lib/thumb/v7m\libg.a(lib_a-fputs.o)
                                0x53b (size before relaxing)
 .debug_str     0x000115d5       0x6a d:/elektronik/ides/eclipse/yagarto/bin/../lib/gcc/arm-none-eabi/4.6.2/../../../../arm-none-eabi/lib/thumb/v7m\libg.a(lib_a-fvwrite.o)
                                0x546 (size before relaxing)
 .debug_str     0x0001163f       0x4f d:/elektronik/ides/eclipse/yagarto/bin/../lib/gcc/arm-none-eabi/4.6.2/../../../../arm-none-eabi/lib/thumb/v7m\libg.a(lib_a-fwrite.o)
                                0x542 (size before relaxing)
 .debug_str     0x0001168e       0x9a d:/elektronik/ides/eclipse/yagarto/bin/../lib/gcc/arm-none-eabi/4.6.2/../../../../arm-none-eabi/lib/thumb/v7m\libg.a(lib_a-impure.o)
                                0x4fd (size before relaxing)
 .debug_str     0x00011728       0x9b d:/elektronik/ides/eclipse/yagarto/bin/../lib/gcc/arm-none-eabi/4.6.2/../../../../arm-none-eabi/lib/thumb/v7m\libg.a(lib_a-init.o)
                                0x18c (size before relaxing)
 .debug_str     0x000117c3       0x4b d:/elektronik/ides/eclipse/yagarto/bin/../lib/gcc/arm-none-eabi/4.6.2/../../../../arm-none-eabi/lib/thumb/v7m\libg.a(lib_a-malloc.o)
                                0x4ff (size before relaxing)
 .debug_str     0x0001180e      0x20c d:/elektronik/ides/eclipse/yagarto/bin/../lib/gcc/arm-none-eabi/4.6.2/../../../../arm-none-eabi/lib/thumb/v7m\libg.a(lib_a-mallocr.o)
                                0x6d4 (size before relaxing)
 .debug_str     0x00011a1a       0xa5 d:/elektronik/ides/eclipse/yagarto/bin/../lib/gcc/arm-none-eabi/4.6.2/../../../../arm-none-eabi/lib/thumb/v7m\libg.a(lib_a-memchr.o)
                                0x14d (size before relaxing)
 .debug_str     0x00011abf       0x46 d:/elektronik/ides/eclipse/yagarto/bin/../lib/gcc/arm-none-eabi/4.6.2/../../../../arm-none-eabi/lib/thumb/v7m\libg.a(lib_a-memcmp.o)
                                0x133 (size before relaxing)
 .debug_str     0x00011b05       0x68 d:/elektronik/ides/eclipse/yagarto/bin/../lib/gcc/arm-none-eabi/4.6.2/../../../../arm-none-eabi/lib/thumb/v7m\libg.a(lib_a-memcpy.o)
                                0x15a (size before relaxing)
 .debug_str     0x00011b6d       0x51 d:/elektronik/ides/eclipse/yagarto/bin/../lib/gcc/arm-none-eabi/4.6.2/../../../../arm-none-eabi/lib/thumb/v7m\libg.a(lib_a-memmove.o)
                                0x166 (size before relaxing)
 .debug_str     0x00011bbe       0x53 d:/elektronik/ides/eclipse/yagarto/bin/../lib/gcc/arm-none-eabi/4.6.2/../../../../arm-none-eabi/lib/thumb/v7m\libg.a(lib_a-memset.o)
                                0x147 (size before relaxing)
 .debug_str     0x00011c11       0x44 d:/elektronik/ides/eclipse/yagarto/bin/../lib/gcc/arm-none-eabi/4.6.2/../../../../arm-none-eabi/lib/thumb/v7m\libg.a(lib_a-putc.o)
                                0x4f5 (size before relaxing)
 .debug_str     0x00011c55       0x48 d:/elektronik/ides/eclipse/yagarto/bin/../lib/gcc/arm-none-eabi/4.6.2/../../../../arm-none-eabi/lib/thumb/v7m\libg.a(lib_a-realloc.o)
                                0x4f7 (size before relaxing)
 .debug_str     0x00011c9d       0x54 d:/elektronik/ides/eclipse/yagarto/bin/../lib/gcc/arm-none-eabi/4.6.2/../../../../arm-none-eabi/lib/thumb/v7m\libg.a(lib_a-reallocr.o)
                                0x5a6 (size before relaxing)
 .debug_str     0x00011cf1       0xea d:/elektronik/ides/eclipse/yagarto/bin/../lib/gcc/arm-none-eabi/4.6.2/../../../../arm-none-eabi/lib/thumb/v7m\libg.a(lib_a-signal.o)
                                0x550 (size before relaxing)
 .debug_str     0x00011ddb       0x52 d:/elektronik/ides/eclipse/yagarto/bin/../lib/gcc/arm-none-eabi/4.6.2/../../../../arm-none-eabi/lib/thumb/v7m\libg.a(lib_a-sprintf.o)
                                0x51d (size before relaxing)
 .debug_str     0x00011e2d       0x51 d:/elektronik/ides/eclipse/yagarto/bin/../lib/gcc/arm-none-eabi/4.6.2/../../../../arm-none-eabi/lib/thumb/v7m\libg.a(lib_a-strcat.o)
                                0x137 (size before relaxing)
 .debug_str     0x00011e7e       0xb5 d:/elektronik/ides/eclipse/yagarto/bin/../lib/gcc/arm-none-eabi/4.6.2/../../../../arm-none-eabi/lib/thumb/v7m\libg.a(lib_a-strcmp.o)
                                0x14a (size before relaxing)
 .debug_str     0x00011f33       0x4e d:/elektronik/ides/eclipse/yagarto/bin/../lib/gcc/arm-none-eabi/4.6.2/../../../../arm-none-eabi/lib/thumb/v7m\libg.a(lib_a-strcpy.o)
                                0x139 (size before relaxing)
 .debug_str     0x00011f81       0x4e d:/elektronik/ides/eclipse/yagarto/bin/../lib/gcc/arm-none-eabi/4.6.2/../../../../arm-none-eabi/lib/thumb/v7m\libg.a(lib_a-strlen.o)
                                0x140 (size before relaxing)
 .debug_str     0x00011fcf       0x48 d:/elektronik/ides/eclipse/yagarto/bin/../lib/gcc/arm-none-eabi/4.6.2/../../../../arm-none-eabi/lib/thumb/v7m\libg.a(lib_a-strncmp.o)
                                0x135 (size before relaxing)
 .debug_str     0x00012017       0x48 d:/elektronik/ides/eclipse/yagarto/bin/../lib/gcc/arm-none-eabi/4.6.2/../../../../arm-none-eabi/lib/thumb/v7m\libg.a(lib_a-strncpy.o)
                                0x15d (size before relaxing)
 .debug_str     0x0001205f      0x161 d:/elektronik/ides/eclipse/yagarto/bin/../lib/gcc/arm-none-eabi/4.6.2/../../../../arm-none-eabi/lib/thumb/v7m\libg.a(lib_a-svfprintf.o)
                                0x6c8 (size before relaxing)
 .debug_str     0x000121c0       0x96 d:/elektronik/ides/eclipse/yagarto/bin/../lib/gcc/arm-none-eabi/4.6.2/../../../../arm-none-eabi/lib/thumb/v7m\libg.a(lib_a-syswrite.o)
                                0x4f3 (size before relaxing)
 .debug_str     0x00012256       0x37 d:/elektronik/ides/eclipse/yagarto/bin/../lib/gcc/arm-none-eabi/4.6.2/../../../../arm-none-eabi/lib/thumb/v7m\libg.a(lib_a-vfiprintf.o)
                                0x664 (size before relaxing)
 .debug_str     0x0001228d       0x4e d:/elektronik/ides/eclipse/yagarto/bin/../lib/gcc/arm-none-eabi/4.6.2/../../../../arm-none-eabi/lib/thumb/v7m\libg.a(lib_a-wbuf.o)
                                0x4f3 (size before relaxing)
 .debug_str     0x000122db       0x4a d:/elektronik/ides/eclipse/yagarto/bin/../lib/gcc/arm-none-eabi/4.6.2/../../../../arm-none-eabi/lib/thumb/v7m\libg.a(lib_a-wsetup.o)
                                0x4ef (size before relaxing)
 .debug_str     0x00012325       0x63 d:/elektronik/ides/eclipse/yagarto/bin/../lib/gcc/arm-none-eabi/4.6.2/../../../../arm-none-eabi/lib/thumb/v7m\libg.a(lib_a-__atexit.o)
                                0x545 (size before relaxing)
 .debug_str     0x00012388       0x65 d:/elektronik/ides/eclipse/yagarto/bin/../lib/gcc/arm-none-eabi/4.6.2/../../../../arm-none-eabi/lib/thumb/v7m\libg.a(lib_a-__call_atexit.o)
                                0x517 (size before relaxing)
 .debug_str     0x000123ed      0x100 d:/elektronik/ides/eclipse/yagarto/bin/../lib/gcc/arm-none-eabi/4.6.2/../../../../arm-none-eabi/lib/thumb/v7m\libg.a(lib_a-dtoa.o)
                                0x5e4 (size before relaxing)
 .debug_str     0x000124ed       0x59 d:/elektronik/ides/eclipse/yagarto/bin/../lib/gcc/arm-none-eabi/4.6.2/../../../../arm-none-eabi/lib/thumb/v7m\libg.a(lib_a-fflush.o)
                                0x51f (size before relaxing)
 .debug_str     0x00012546      0x106 d:/elektronik/ides/eclipse/yagarto/bin/../lib/gcc/arm-none-eabi/4.6.2/../../../../arm-none-eabi/lib/thumb/v7m\libg.a(lib_a-findfp.o)
                                0x5d7 (size before relaxing)
 .debug_str     0x0001264c       0x51 d:/elektronik/ides/eclipse/yagarto/bin/../lib/gcc/arm-none-eabi/4.6.2/../../../../arm-none-eabi/lib/thumb/v7m\libg.a(lib_a-fputwc.o)
                                0x50c (size before relaxing)
 .debug_str     0x0001269d       0x3c d:/elektronik/ides/eclipse/yagarto/bin/../lib/gcc/arm-none-eabi/4.6.2/../../../../arm-none-eabi/lib/thumb/v7m\libg.a(lib_a-freer.o)
                                0x626 (size before relaxing)
 .debug_str     0x000126d9       0x62 d:/elektronik/ides/eclipse/yagarto/bin/../lib/gcc/arm-none-eabi/4.6.2/../../../../arm-none-eabi/lib/thumb/v7m\libg.a(lib_a-fwalk.o)
                                0x518 (size before relaxing)
 .debug_str     0x0001273b      0x26b d:/elektronik/ides/eclipse/yagarto/bin/../lib/gcc/arm-none-eabi/4.6.2/../../../../arm-none-eabi/lib/thumb/v7m\libg.a(lib_a-locale.o)
                                0x753 (size before relaxing)
 .debug_str     0x000129a6       0x57 d:/elektronik/ides/eclipse/yagarto/bin/../lib/gcc/arm-none-eabi/4.6.2/../../../../arm-none-eabi/lib/thumb/v7m\libg.a(lib_a-makebuf.o)
                                0x5e9 (size before relaxing)
 .debug_str     0x000129fd       0xfc d:/elektronik/ides/eclipse/yagarto/bin/../lib/gcc/arm-none-eabi/4.6.2/../../../../arm-none-eabi/lib/thumb/v7m\libg.a(lib_a-mprec.o)
                                0x5f1 (size before relaxing)
 .debug_str     0x00012af9       0xc6 d:/elektronik/ides/eclipse/yagarto/bin/../lib/gcc/arm-none-eabi/4.6.2/../../../../arm-none-eabi/lib/thumb/v7m\libg.a(lib_a-s_fpclassify.o)
                                0x185 (size before relaxing)
 .debug_str     0x00012bbf       0x71 d:/elektronik/ides/eclipse/yagarto/bin/../lib/gcc/arm-none-eabi/4.6.2/../../../../arm-none-eabi/lib/thumb/v7m\libg.a(lib_a-stdio.o)
                                0x524 (size before relaxing)
 .debug_str     0x00012c30       0x1a d:/elektronik/ides/eclipse/yagarto/bin/../lib/gcc/arm-none-eabi/4.6.2/../../../../arm-none-eabi/lib/thumb/v7m\libg.a(lib_a-svfiprintf.o)
                                0x63b (size before relaxing)
 .debug_str     0x00012c4a       0x5c d:/elektronik/ides/eclipse/yagarto/bin/../lib/gcc/arm-none-eabi/4.6.2/../../../../arm-none-eabi/lib/thumb/v7m\libg.a(lib_a-wcrtomb.o)
                                0x51d (size before relaxing)
 .debug_str     0x00012ca6       0x61 d:/elektronik/ides/eclipse/yagarto/bin/../lib/gcc/arm-none-eabi/4.6.2/../../../../arm-none-eabi/lib/thumb/v7m\libg.a(lib_a-wctomb_r.o)
                                0x52c (size before relaxing)
 .debug_str     0x00012d07       0x19 d:/elektronik/ides/eclipse/yagarto/bin/../lib/gcc/arm-none-eabi/4.6.2/../../../../arm-none-eabi/lib/thumb/v7m\libg.a(lib_a-callocr.o)
                                0x525 (size before relaxing)
 .debug_str     0x00012d20       0x48 d:/elektronik/ides/eclipse/yagarto/bin/../lib/gcc/arm-none-eabi/4.6.2/../../../../arm-none-eabi/lib/thumb/v7m\libg.a(lib_a-fclose.o)
                                0x4f9 (size before relaxing)

.debug_frame    0x00000000     0xaa48
 .debug_frame   0x00000000      0x370 ./STM32_USB_OTG_Driver/src/usb_core.o
 .debug_frame   0x00000370      0x138 ./STM32_USB_OTG_Driver/src/usb_hcd.o
 .debug_frame   0x000004a8      0x168 ./STM32_USB_OTG_Driver/src/usb_hcd_int.o
 .debug_frame   0x00000610      0x10c ./STM32_USB_HOST_Library/Core/src/usbh_core.o
 .debug_frame   0x0000071c       0xc4 ./STM32_USB_HOST_Library/Core/src/usbh_hcs.o
 .debug_frame   0x000007e0      0x12c ./STM32_USB_HOST_Library/Core/src/usbh_ioreq.o
 .debug_frame   0x0000090c      0x1a0 ./STM32_USB_HOST_Library/Core/src/usbh_stdreq.o
 .debug_frame   0x00000aac       0x90 ./STM32_USB_HOST_Library/Class/MSC/src/usbh_msc_bot.o
 .debug_frame   0x00000b3c       0xec ./STM32_USB_HOST_Library/Class/MSC/src/usbh_msc_core.o
 .debug_frame   0x00000c28       0xa8 ./STM32_USB_HOST_Library/Class/MSC/src/usbh_msc_fatfs.o
 .debug_frame   0x00000cd0       0xd0 ./STM32_USB_HOST_Library/Class/MSC/src/usbh_msc_scsi.o
 .debug_frame   0x00000da0       0x9c ./STM32F4xx_StdPeriph_Driver/src/misc.o
 .debug_frame   0x00000e3c      0x438 ./STM32F4xx_StdPeriph_Driver/src/stm32f4xx_adc.o
 .debug_frame   0x00001274      0x1ec ./STM32F4xx_StdPeriph_Driver/src/stm32f4xx_dac.o
 .debug_frame   0x00001460       0x9c ./STM32F4xx_StdPeriph_Driver/src/stm32f4xx_dbgmcu.o
 .debug_frame   0x000014fc      0x224 ./STM32F4xx_StdPeriph_Driver/src/stm32f4xx_dma.o
 .debug_frame   0x00001720       0xf0 ./STM32F4xx_StdPeriph_Driver/src/stm32f4xx_exti.o
 .debug_frame   0x00001810      0x384 ./STM32F4xx_StdPeriph_Driver/src/stm32f4xx_flash.o
 .debug_frame   0x00001b94      0x224 ./STM32F4xx_StdPeriph_Driver/src/stm32f4xx_fsmc.o
 .debug_frame   0x00001db8      0x19c ./STM32F4xx_StdPeriph_Driver/src/stm32f4xx_gpio.o
 .debug_frame   0x00001f54      0x3b4 ./STM32F4xx_StdPeriph_Driver/src/stm32f4xx_i2c.o
 .debug_frame   0x00002308       0xb8 ./STM32F4xx_StdPeriph_Driver/src/stm32f4xx_iwdg.o
 .debug_frame   0x000023c0      0x160 ./STM32F4xx_StdPeriph_Driver/src/stm32f4xx_pwr.o
 .debug_frame   0x00002520      0x4e4 ./STM32F4xx_StdPeriph_Driver/src/stm32f4xx_rcc.o
 .debug_frame   0x00002a04       0xf0 ./STM32F4xx_StdPeriph_Driver/src/stm32f4xx_rng.o
 .debug_frame   0x00002af4      0x68c ./STM32F4xx_StdPeriph_Driver/src/stm32f4xx_rtc.o
 .debug_frame   0x00003180      0x358 ./STM32F4xx_StdPeriph_Driver/src/stm32f4xx_sdio.o
 .debug_frame   0x000034d8      0x2d0 ./STM32F4xx_StdPeriph_Driver/src/stm32f4xx_spi.o
 .debug_frame   0x000037a8       0xbc ./STM32F4xx_StdPeriph_Driver/src/stm32f4xx_syscfg.o
 .debug_frame   0x00003864      0xa3c ./STM32F4xx_StdPeriph_Driver/src/stm32f4xx_tim.o
 .debug_frame   0x000042a0      0x344 ./STM32F4xx_StdPeriph_Driver/src/stm32f4xx_usart.o
 .debug_frame   0x000045e4       0xf0 ./STM32F4xx_StdPeriph_Driver/src/stm32f4xx_wwdg.o
 .debug_frame   0x000046d4       0xc4 ./STM32F4-Discovery/stm32f4_discovery.o
 .debug_frame   0x00004798      0x478 ./STM32F4-Discovery/stm32f4_discovery_audio_codec.o
 .debug_frame   0x00004c10      0x1ac ./STM32F4-Discovery/stm32f4_discovery_lis302dl.o
 .debug_frame   0x00004dbc      0x104 ./Menue/CMenue.o
 .debug_frame   0x00004ec0       0xe0 ./HelixMP3/real/bitstream.o
 .debug_frame   0x00004fa0       0x68 ./HelixMP3/real/buffers.o
 .debug_frame   0x00005008       0x54 ./HelixMP3/real/dct32.o
 .debug_frame   0x0000505c       0x5c ./HelixMP3/real/dequant.o
 .debug_frame   0x000050b8       0x90 ./HelixMP3/real/dqchan.o
 .debug_frame   0x00005148       0x70 ./HelixMP3/real/huffman.o
 .debug_frame   0x000051b8      0x1b8 ./HelixMP3/real/imdct.o
 .debug_frame   0x00005370       0xb8 ./HelixMP3/real/polyphase.o
 .debug_frame   0x00005428       0x78 ./HelixMP3/real/scalfact.o
 .debug_frame   0x000054a0       0xac ./HelixMP3/real/stproc.o
 .debug_frame   0x0000554c       0x34 ./HelixMP3/real/subband.o
 .debug_frame   0x00005580      0x10c ./HelixMP3/mp3dec.o
 .debug_frame   0x0000568c       0xc0 ./GraphicLCD/CGraphicLCD.o
 .debug_frame   0x0000574c      0x25c ./GraphicLCD/CT6963CDriver.o
 .debug_frame   0x000059a8      0x130 ./GraphicLCD/CT6963GPIOInterface.o
 .debug_frame   0x00005ad8      0x1f8 ./FreeRTOS_EC/Source/AManagedTask.o
 .debug_frame   0x00005cd0      0x104 ./FreeRTOS_EC/Source/ASyncObject.o
 .debug_frame   0x00005dd4      0x128 ./FreeRTOS_EC/Source/CBinarySemaphore.o
 .debug_frame   0x00005efc      0x128 ./FreeRTOS_EC/Source/CCountingSemaphore.o
 .debug_frame   0x00006024       0x64 ./FreeRTOS_EC/Source/CFreeRTOS.o
 .debug_frame   0x00006088      0x280 ./FreeRTOS_EC/Source/CMessageTask.o
 .debug_frame   0x00006308      0x128 ./FreeRTOS_EC/Source/CMutex.o
 .debug_frame   0x00006430      0x144 ./FreeRTOS_EC/Source/CQueue.o
 .debug_frame   0x00006574      0x120 ./FreeRTOS_EC/Source/CRecursiveMutex.o
 .debug_frame   0x00006694      0x160 ./FreeRTOS_EC/Source/CTask.o
 .debug_frame   0x000067f4      0x124 ./FreeRTOS/Source/portable/GCC/ARM_CM4F/port.o
 .debug_frame   0x00006918       0xf0 ./FreeRTOS/Source/croutine.o
 .debug_frame   0x00006a08       0x9c ./FreeRTOS/Source/list.o
 .debug_frame   0x00006aa4      0x204 ./FreeRTOS/Source/queue.o
 .debug_frame   0x00006ca8      0x540 ./FreeRTOS/Source/tasks.o
 .debug_frame   0x000071e8      0x144 ./Audio_MP3/USB_MSC/CUSBMassStorage.o
 .debug_frame   0x0000732c      0x104 ./Audio_MP3/USB_MSC/usb_bsp.o
 .debug_frame   0x00007430      0x208 ./Audio_MP3/USB_MSC/usbh_usr.o
 .debug_frame   0x00007638      0x554 ./Audio_MP3/FatFs/src/ff.o
 .debug_frame   0x00007b8c      0x180 ./Audio_MP3/CFileHandler.o
 .debug_frame   0x00007d0c       0x2c ./Audio_MP3/fattime.o
 .debug_frame   0x00007d38      0x104 ./CLedHeartBeatSTM32F4Disc.o
 .debug_frame   0x00007e3c       0xf8 ./main.o
 .debug_frame   0x00007f34      0x10c ./stm32f4xx_it.o
 .debug_frame   0x00008040      0x16c ./syscalls.o
 .debug_frame   0x000081ac       0x64 ./system_stm32f4xx.o
 .debug_frame   0x00008210       0x8c ./ustime.o
 .debug_frame   0x0000829c       0x20 d:/elektronik/ides/eclipse/yagarto/bin/../lib/gcc/arm-none-eabi/4.6.2/../../../../arm-none-eabi/lib/thumb/v7m\libstdc++.a(atexit_arm.o)
 .debug_frame   0x000082bc       0x20 d:/elektronik/ides/eclipse/yagarto/bin/../lib/gcc/arm-none-eabi/4.6.2/../../../../arm-none-eabi/lib/thumb/v7m\libstdc++.a(del_op.o)
 .debug_frame   0x000082dc       0x28 d:/elektronik/ides/eclipse/yagarto/bin/../lib/gcc/arm-none-eabi/4.6.2/../../../../arm-none-eabi/lib/thumb/v7m\libstdc++.a(pure.o)
 .debug_frame   0x00008304       0x90 d:/elektronik/ides/eclipse/yagarto/bin/../lib/gcc/arm-none-eabi/4.6.2/../../../../arm-none-eabi/lib/thumb/v7m\libstdc++.a(eh_terminate.o)
 .debug_frame   0x00008394       0x30 d:/elektronik/ides/eclipse/yagarto/bin/../lib/gcc/arm-none-eabi/4.6.2/../../../../arm-none-eabi/lib/thumb/v7m\libstdc++.a(vterminate.o)
 .debug_frame   0x000083c4      0xb44 d:/elektronik/ides/eclipse/yagarto/bin/../lib/gcc/arm-none-eabi/4.6.2/../../../../arm-none-eabi/lib/thumb/v7m\libstdc++.a(cp-demangle.o)
 .debug_frame   0x00008f08       0x60 d:/elektronik/ides/eclipse/yagarto/bin/../lib/gcc/arm-none-eabi/4.6.2/../../../../arm-none-eabi/lib/thumb/v7m\libstdc++.a(eh_arm.o)
 .debug_frame   0x00008f68       0x40 d:/elektronik/ides/eclipse/yagarto/bin/../lib/gcc/arm-none-eabi/4.6.2/../../../../arm-none-eabi/lib/thumb/v7m\libstdc++.a(eh_aux_runtime.o)
 .debug_frame   0x00008fa8       0x50 d:/elektronik/ides/eclipse/yagarto/bin/../lib/gcc/arm-none-eabi/4.6.2/../../../../arm-none-eabi/lib/thumb/v7m\libstdc++.a(eh_call.o)
 .debug_frame   0x00008ff8       0x6c d:/elektronik/ides/eclipse/yagarto/bin/../lib/gcc/arm-none-eabi/4.6.2/../../../../arm-none-eabi/lib/thumb/v7m\libstdc++.a(eh_catch.o)
 .debug_frame   0x00009064       0xd0 d:/elektronik/ides/eclipse/yagarto/bin/../lib/gcc/arm-none-eabi/4.6.2/../../../../arm-none-eabi/lib/thumb/v7m\libstdc++.a(eh_exception.o)
 .debug_frame   0x00009134       0x30 d:/elektronik/ides/eclipse/yagarto/bin/../lib/gcc/arm-none-eabi/4.6.2/../../../../arm-none-eabi/lib/thumb/v7m\libstdc++.a(eh_globals.o)
 .debug_frame   0x00009164       0xac d:/elektronik/ides/eclipse/yagarto/bin/../lib/gcc/arm-none-eabi/4.6.2/../../../../arm-none-eabi/lib/thumb/v7m\libstdc++.a(eh_personality.o)
 .debug_frame   0x00009210       0x60 d:/elektronik/ides/eclipse/yagarto/bin/../lib/gcc/arm-none-eabi/4.6.2/../../../../arm-none-eabi/lib/thumb/v7m\libstdc++.a(eh_throw.o)
 .debug_frame   0x00009270       0x28 d:/elektronik/ides/eclipse/yagarto/bin/../lib/gcc/arm-none-eabi/4.6.2/../../../../arm-none-eabi/lib/thumb/v7m\libstdc++.a(eh_type.o)
 .debug_frame   0x00009298       0x40 d:/elektronik/ides/eclipse/yagarto/bin/../lib/gcc/arm-none-eabi/4.6.2/../../../../arm-none-eabi/lib/thumb/v7m\libstdc++.a(fundamental_type_info.o)
 .debug_frame   0x000092d8       0x6c d:/elektronik/ides/eclipse/yagarto/bin/../lib/gcc/arm-none-eabi/4.6.2/../../../../arm-none-eabi/lib/thumb/v7m\libstdc++.a(pointer_type_info.o)
 .debug_frame   0x00009344       0xa8 d:/elektronik/ides/eclipse/yagarto/bin/../lib/gcc/arm-none-eabi/4.6.2/../../../../arm-none-eabi/lib/thumb/v7m\libstdc++.a(si_class_type_info.o)
 .debug_frame   0x000093ec       0x90 d:/elektronik/ides/eclipse/yagarto/bin/../lib/gcc/arm-none-eabi/4.6.2/../../../../arm-none-eabi/lib/thumb/v7m\libstdc++.a(tinfo.o)
 .debug_frame   0x0000947c       0x50 d:/elektronik/ides/eclipse/yagarto/bin/../lib/gcc/arm-none-eabi/4.6.2/../../../../arm-none-eabi/lib/thumb/v7m\libstdc++.a(bad_cast.o)
 .debug_frame   0x000094cc       0x50 d:/elektronik/ides/eclipse/yagarto/bin/../lib/gcc/arm-none-eabi/4.6.2/../../../../arm-none-eabi/lib/thumb/v7m\libstdc++.a(bad_typeid.o)
 .debug_frame   0x0000951c       0xcc d:/elektronik/ides/eclipse/yagarto/bin/../lib/gcc/arm-none-eabi/4.6.2/../../../../arm-none-eabi/lib/thumb/v7m\libstdc++.a(class_type_info.o)
 .debug_frame   0x000095e8       0x6c d:/elektronik/ides/eclipse/yagarto/bin/../lib/gcc/arm-none-eabi/4.6.2/../../../../arm-none-eabi/lib/thumb/v7m\libstdc++.a(eh_alloc.o)
 .debug_frame   0x00009654       0x78 d:/elektronik/ides/eclipse/yagarto/bin/../lib/gcc/arm-none-eabi/4.6.2/../../../../arm-none-eabi/lib/thumb/v7m\libstdc++.a(pbase_type_info.o)
 .debug_frame   0x000096cc      0x268 d:/elektronik/ides/eclipse/yagarto/bin/../lib/gcc/arm-none-eabi/4.6.2/thumb/v7m\libgcc.a(unwind-arm.o)
 .debug_frame   0x00009934       0xec d:/elektronik/ides/eclipse/yagarto/bin/../lib/gcc/arm-none-eabi/4.6.2/thumb/v7m\libgcc.a(pr-support.o)
 .debug_frame   0x00009a20       0x28 d:/elektronik/ides/eclipse/yagarto/bin/../lib/gcc/arm-none-eabi/4.6.2/../../../../arm-none-eabi/lib/thumb/v7m\libg.a(lib_a-abort.o)
 .debug_frame   0x00009a48       0x40 d:/elektronik/ides/eclipse/yagarto/bin/../lib/gcc/arm-none-eabi/4.6.2/../../../../arm-none-eabi/lib/thumb/v7m\libg.a(lib_a-assert.o)
 .debug_frame   0x00009a88       0x20 d:/elektronik/ides/eclipse/yagarto/bin/../lib/gcc/arm-none-eabi/4.6.2/../../../../arm-none-eabi/lib/thumb/v7m\libg.a(lib_a-atexit.o)
 .debug_frame   0x00009aa8       0x28 d:/elektronik/ides/eclipse/yagarto/bin/../lib/gcc/arm-none-eabi/4.6.2/../../../../arm-none-eabi/lib/thumb/v7m\libg.a(lib_a-cxa_atexit.o)
 .debug_frame   0x00009ad0       0x28 d:/elektronik/ides/eclipse/yagarto/bin/../lib/gcc/arm-none-eabi/4.6.2/../../../../arm-none-eabi/lib/thumb/v7m\libg.a(lib_a-exit.o)
 .debug_frame   0x00009af8       0x2c d:/elektronik/ides/eclipse/yagarto/bin/../lib/gcc/arm-none-eabi/4.6.2/../../../../arm-none-eabi/lib/thumb/v7m\libg.a(lib_a-fini.o)
 .debug_frame   0x00009b24       0x58 d:/elektronik/ides/eclipse/yagarto/bin/../lib/gcc/arm-none-eabi/4.6.2/../../../../arm-none-eabi/lib/thumb/v7m\libg.a(lib_a-fiprintf.o)
 .debug_frame   0x00009b7c       0x48 d:/elektronik/ides/eclipse/yagarto/bin/../lib/gcc/arm-none-eabi/4.6.2/../../../../arm-none-eabi/lib/thumb/v7m\libg.a(lib_a-fputc.o)
 .debug_frame   0x00009bc4       0x3c d:/elektronik/ides/eclipse/yagarto/bin/../lib/gcc/arm-none-eabi/4.6.2/../../../../arm-none-eabi/lib/thumb/v7m\libg.a(lib_a-fputs.o)
 .debug_frame   0x00009c00       0x38 d:/elektronik/ides/eclipse/yagarto/bin/../lib/gcc/arm-none-eabi/4.6.2/../../../../arm-none-eabi/lib/thumb/v7m\libg.a(lib_a-fvwrite.o)
 .debug_frame   0x00009c38       0x54 d:/elektronik/ides/eclipse/yagarto/bin/../lib/gcc/arm-none-eabi/4.6.2/../../../../arm-none-eabi/lib/thumb/v7m\libg.a(lib_a-fwrite.o)
 .debug_frame   0x00009c8c       0x2c d:/elektronik/ides/eclipse/yagarto/bin/../lib/gcc/arm-none-eabi/4.6.2/../../../../arm-none-eabi/lib/thumb/v7m\libg.a(lib_a-init.o)
 .debug_frame   0x00009cb8       0x30 d:/elektronik/ides/eclipse/yagarto/bin/../lib/gcc/arm-none-eabi/4.6.2/../../../../arm-none-eabi/lib/thumb/v7m\libg.a(lib_a-malloc.o)
 .debug_frame   0x00009ce8       0x38 d:/elektronik/ides/eclipse/yagarto/bin/../lib/gcc/arm-none-eabi/4.6.2/../../../../arm-none-eabi/lib/thumb/v7m\libg.a(lib_a-mallocr.o)
 .debug_frame   0x00009d20       0x2c d:/elektronik/ides/eclipse/yagarto/bin/../lib/gcc/arm-none-eabi/4.6.2/../../../../arm-none-eabi/lib/thumb/v7m\libg.a(lib_a-memchr.o)
 .debug_frame   0x00009d4c       0x2c d:/elektronik/ides/eclipse/yagarto/bin/../lib/gcc/arm-none-eabi/4.6.2/../../../../arm-none-eabi/lib/thumb/v7m\libg.a(lib_a-memcmp.o)
 .debug_frame   0x00009d78       0x2c d:/elektronik/ides/eclipse/yagarto/bin/../lib/gcc/arm-none-eabi/4.6.2/../../../../arm-none-eabi/lib/thumb/v7m\libg.a(lib_a-memcpy.o)
 .debug_frame   0x00009da4       0x2c d:/elektronik/ides/eclipse/yagarto/bin/../lib/gcc/arm-none-eabi/4.6.2/../../../../arm-none-eabi/lib/thumb/v7m\libg.a(lib_a-memmove.o)
 .debug_frame   0x00009dd0       0x2c d:/elektronik/ides/eclipse/yagarto/bin/../lib/gcc/arm-none-eabi/4.6.2/../../../../arm-none-eabi/lib/thumb/v7m\libg.a(lib_a-memset.o)
 .debug_frame   0x00009dfc       0x48 d:/elektronik/ides/eclipse/yagarto/bin/../lib/gcc/arm-none-eabi/4.6.2/../../../../arm-none-eabi/lib/thumb/v7m\libg.a(lib_a-putc.o)
 .debug_frame   0x00009e44       0x20 d:/elektronik/ides/eclipse/yagarto/bin/../lib/gcc/arm-none-eabi/4.6.2/../../../../arm-none-eabi/lib/thumb/v7m\libg.a(lib_a-realloc.o)
 .debug_frame   0x00009e64       0x38 d:/elektronik/ides/eclipse/yagarto/bin/../lib/gcc/arm-none-eabi/4.6.2/../../../../arm-none-eabi/lib/thumb/v7m\libg.a(lib_a-reallocr.o)
 .debug_frame   0x00009e9c       0xc0 d:/elektronik/ides/eclipse/yagarto/bin/../lib/gcc/arm-none-eabi/4.6.2/../../../../arm-none-eabi/lib/thumb/v7m\libg.a(lib_a-signal.o)
 .debug_frame   0x00009f5c       0x64 d:/elektronik/ides/eclipse/yagarto/bin/../lib/gcc/arm-none-eabi/4.6.2/../../../../arm-none-eabi/lib/thumb/v7m\libg.a(lib_a-sprintf.o)
 .debug_frame   0x00009fc0       0x2c d:/elektronik/ides/eclipse/yagarto/bin/../lib/gcc/arm-none-eabi/4.6.2/../../../../arm-none-eabi/lib/thumb/v7m\libg.a(lib_a-strcat.o)
 .debug_frame   0x00009fec       0x30 d:/elektronik/ides/eclipse/yagarto/bin/../lib/gcc/arm-none-eabi/4.6.2/../../../../arm-none-eabi/lib/thumb/v7m\libg.a(lib_a-strcmp.o)
 .debug_frame   0x0000a01c       0x20 d:/elektronik/ides/eclipse/yagarto/bin/../lib/gcc/arm-none-eabi/4.6.2/../../../../arm-none-eabi/lib/thumb/v7m\libg.a(lib_a-strcpy.o)
 .debug_frame   0x0000a03c       0x20 d:/elektronik/ides/eclipse/yagarto/bin/../lib/gcc/arm-none-eabi/4.6.2/../../../../arm-none-eabi/lib/thumb/v7m\libg.a(lib_a-strlen.o)
 .debug_frame   0x0000a05c       0x30 d:/elektronik/ides/eclipse/yagarto/bin/../lib/gcc/arm-none-eabi/4.6.2/../../../../arm-none-eabi/lib/thumb/v7m\libg.a(lib_a-strncmp.o)
 .debug_frame   0x0000a08c       0x2c d:/elektronik/ides/eclipse/yagarto/bin/../lib/gcc/arm-none-eabi/4.6.2/../../../../arm-none-eabi/lib/thumb/v7m\libg.a(lib_a-strncpy.o)
 .debug_frame   0x0000a0b8       0x3c d:/elektronik/ides/eclipse/yagarto/bin/../lib/gcc/arm-none-eabi/4.6.2/../../../../arm-none-eabi/lib/thumb/v7m\libg.a(lib_a-svfprintf.o)
 .debug_frame   0x0000a0f4       0x28 d:/elektronik/ides/eclipse/yagarto/bin/../lib/gcc/arm-none-eabi/4.6.2/../../../../arm-none-eabi/lib/thumb/v7m\libg.a(lib_a-syswrite.o)
 .debug_frame   0x0000a11c       0x7c d:/elektronik/ides/eclipse/yagarto/bin/../lib/gcc/arm-none-eabi/4.6.2/../../../../arm-none-eabi/lib/thumb/v7m\libg.a(lib_a-vfiprintf.o)
 .debug_frame   0x0000a198       0x3c d:/elektronik/ides/eclipse/yagarto/bin/../lib/gcc/arm-none-eabi/4.6.2/../../../../arm-none-eabi/lib/thumb/v7m\libg.a(lib_a-wbuf.o)
 .debug_frame   0x0000a1d4       0x2c d:/elektronik/ides/eclipse/yagarto/bin/../lib/gcc/arm-none-eabi/4.6.2/../../../../arm-none-eabi/lib/thumb/v7m\libg.a(lib_a-wsetup.o)
 .debug_frame   0x0000a200       0x34 d:/elektronik/ides/eclipse/yagarto/bin/../lib/gcc/arm-none-eabi/4.6.2/../../../../arm-none-eabi/lib/thumb/v7m\libg.a(lib_a-__atexit.o)
 .debug_frame   0x0000a234       0x38 d:/elektronik/ides/eclipse/yagarto/bin/../lib/gcc/arm-none-eabi/4.6.2/../../../../arm-none-eabi/lib/thumb/v7m\libg.a(lib_a-__call_atexit.o)
 .debug_frame   0x0000a26c       0x64 d:/elektronik/ides/eclipse/yagarto/bin/../lib/gcc/arm-none-eabi/4.6.2/../../../../arm-none-eabi/lib/thumb/v7m\libg.a(lib_a-dtoa.o)
 .debug_frame   0x0000a2d0       0x40 d:/elektronik/ides/eclipse/yagarto/bin/../lib/gcc/arm-none-eabi/4.6.2/../../../../arm-none-eabi/lib/thumb/v7m\libg.a(lib_a-fflush.o)
 .debug_frame   0x0000a310      0x120 d:/elektronik/ides/eclipse/yagarto/bin/../lib/gcc/arm-none-eabi/4.6.2/../../../../arm-none-eabi/lib/thumb/v7m\libg.a(lib_a-findfp.o)
 .debug_frame   0x0000a430       0x50 d:/elektronik/ides/eclipse/yagarto/bin/../lib/gcc/arm-none-eabi/4.6.2/../../../../arm-none-eabi/lib/thumb/v7m\libg.a(lib_a-fputwc.o)
 .debug_frame   0x0000a480       0x50 d:/elektronik/ides/eclipse/yagarto/bin/../lib/gcc/arm-none-eabi/4.6.2/../../../../arm-none-eabi/lib/thumb/v7m\libg.a(lib_a-freer.o)
 .debug_frame   0x0000a4d0       0x54 d:/elektronik/ides/eclipse/yagarto/bin/../lib/gcc/arm-none-eabi/4.6.2/../../../../arm-none-eabi/lib/thumb/v7m\libg.a(lib_a-fwalk.o)
 .debug_frame   0x0000a524       0x98 d:/elektronik/ides/eclipse/yagarto/bin/../lib/gcc/arm-none-eabi/4.6.2/../../../../arm-none-eabi/lib/thumb/v7m\libg.a(lib_a-locale.o)
 .debug_frame   0x0000a5bc       0x30 d:/elektronik/ides/eclipse/yagarto/bin/../lib/gcc/arm-none-eabi/4.6.2/../../../../arm-none-eabi/lib/thumb/v7m\libg.a(lib_a-makebuf.o)
 .debug_frame   0x0000a5ec      0x230 d:/elektronik/ides/eclipse/yagarto/bin/../lib/gcc/arm-none-eabi/4.6.2/../../../../arm-none-eabi/lib/thumb/v7m\libg.a(lib_a-mprec.o)
 .debug_frame   0x0000a81c       0x28 d:/elektronik/ides/eclipse/yagarto/bin/../lib/gcc/arm-none-eabi/4.6.2/../../../../arm-none-eabi/lib/thumb/v7m\libg.a(lib_a-s_fpclassify.o)
 .debug_frame   0x0000a844       0x80 d:/elektronik/ides/eclipse/yagarto/bin/../lib/gcc/arm-none-eabi/4.6.2/../../../../arm-none-eabi/lib/thumb/v7m\libg.a(lib_a-stdio.o)
 .debug_frame   0x0000a8c4       0x64 d:/elektronik/ides/eclipse/yagarto/bin/../lib/gcc/arm-none-eabi/4.6.2/../../../../arm-none-eabi/lib/thumb/v7m\libg.a(lib_a-svfiprintf.o)
 .debug_frame   0x0000a928       0x58 d:/elektronik/ides/eclipse/yagarto/bin/../lib/gcc/arm-none-eabi/4.6.2/../../../../arm-none-eabi/lib/thumb/v7m\libg.a(lib_a-wcrtomb.o)
 .debug_frame   0x0000a980       0x44 d:/elektronik/ides/eclipse/yagarto/bin/../lib/gcc/arm-none-eabi/4.6.2/../../../../arm-none-eabi/lib/thumb/v7m\libg.a(lib_a-wctomb_r.o)
 .debug_frame   0x0000a9c4       0x28 d:/elektronik/ides/eclipse/yagarto/bin/../lib/gcc/arm-none-eabi/4.6.2/../../../../arm-none-eabi/lib/thumb/v7m\libg.a(lib_a-callocr.o)
 .debug_frame   0x0000a9ec       0x3c d:/elektronik/ides/eclipse/yagarto/bin/../lib/gcc/arm-none-eabi/4.6.2/../../../../arm-none-eabi/lib/thumb/v7m\libg.a(lib_a-fclose.o)
 .debug_frame   0x0000aa28       0x20 d:/elektronik/ides/eclipse/yagarto/bin/../lib/gcc/arm-none-eabi/4.6.2/thumb/v7m\libgcc.a(_udivsi3.o)
