Archive member included because of file (symbol)

e:/elektronik/toolchain/yagarto/bin/../lib/gcc/arm-none-eabi/4.6.2/../../../../arm-none-eabi/lib/thumb/v7m\libstdc++.a(atexit_arm.o)
                              ./main.o (__aeabi_atexit)
e:/elektronik/toolchain/yagarto/bin/../lib/gcc/arm-none-eabi/4.6.2/../../../../arm-none-eabi/lib/thumb/v7m\libstdc++.a(del_op.o)
                              ./Menue/CMenue.o (operator delete(void*))
e:/elektronik/toolchain/yagarto/bin/../lib/gcc/arm-none-eabi/4.6.2/../../../../arm-none-eabi/lib/thumb/v7m\libstdc++.a(pure.o)
                              ./GraphicLCD/CGraphicLCD.o (__cxa_pure_virtual)
e:/elektronik/toolchain/yagarto/bin/../lib/gcc/arm-none-eabi/4.6.2/../../../../arm-none-eabi/lib/thumb/v7m\libstdc++.a(eh_terminate.o)
                              e:/elektronik/toolchain/yagarto/bin/../lib/gcc/arm-none-eabi/4.6.2/../../../../arm-none-eabi/lib/thumb/v7m\libstdc++.a(pure.o) (std::terminate())
e:/elektronik/toolchain/yagarto/bin/../lib/gcc/arm-none-eabi/4.6.2/../../../../arm-none-eabi/lib/thumb/v7m\libstdc++.a(eh_term_handler.o)
                              e:/elektronik/toolchain/yagarto/bin/../lib/gcc/arm-none-eabi/4.6.2/../../../../arm-none-eabi/lib/thumb/v7m\libstdc++.a(eh_terminate.o) (__cxxabiv1::__terminate_handler)
e:/elektronik/toolchain/yagarto/bin/../lib/gcc/arm-none-eabi/4.6.2/../../../../arm-none-eabi/lib/thumb/v7m\libstdc++.a(eh_unex_handler.o)
                              e:/elektronik/toolchain/yagarto/bin/../lib/gcc/arm-none-eabi/4.6.2/../../../../arm-none-eabi/lib/thumb/v7m\libstdc++.a(eh_terminate.o) (__cxxabiv1::__unexpected_handler)
e:/elektronik/toolchain/yagarto/bin/../lib/gcc/arm-none-eabi/4.6.2/../../../../arm-none-eabi/lib/thumb/v7m\libstdc++.a(vterminate.o)
                              e:/elektronik/toolchain/yagarto/bin/../lib/gcc/arm-none-eabi/4.6.2/../../../../arm-none-eabi/lib/thumb/v7m\libstdc++.a(eh_term_handler.o) (__gnu_cxx::__verbose_terminate_handler())
e:/elektronik/toolchain/yagarto/bin/../lib/gcc/arm-none-eabi/4.6.2/../../../../arm-none-eabi/lib/thumb/v7m\libstdc++.a(cp-demangle.o)
                              e:/elektronik/toolchain/yagarto/bin/../lib/gcc/arm-none-eabi/4.6.2/../../../../arm-none-eabi/lib/thumb/v7m\libstdc++.a(vterminate.o) (__cxa_demangle)
e:/elektronik/toolchain/yagarto/bin/../lib/gcc/arm-none-eabi/4.6.2/../../../../arm-none-eabi/lib/thumb/v7m\libstdc++.a(eh_arm.o)
                              e:/elektronik/toolchain/yagarto/bin/../lib/gcc/arm-none-eabi/4.6.2/../../../../arm-none-eabi/lib/thumb/v7m\libstdc++.a(eh_terminate.o) (__cxa_end_cleanup)
e:/elektronik/toolchain/yagarto/bin/../lib/gcc/arm-none-eabi/4.6.2/../../../../arm-none-eabi/lib/thumb/v7m\libstdc++.a(eh_aux_runtime.o)
                              e:/elektronik/toolchain/yagarto/bin/../lib/gcc/arm-none-eabi/4.6.2/../../../../arm-none-eabi/lib/thumb/v7m\libstdc++.a(eh_arm.o) (__cxa_bad_typeid)
e:/elektronik/toolchain/yagarto/bin/../lib/gcc/arm-none-eabi/4.6.2/../../../../arm-none-eabi/lib/thumb/v7m\libstdc++.a(eh_call.o)
                              e:/elektronik/toolchain/yagarto/bin/../lib/gcc/arm-none-eabi/4.6.2/../../../../arm-none-eabi/lib/thumb/v7m\libstdc++.a(eh_terminate.o) (__cxa_call_unexpected)
e:/elektronik/toolchain/yagarto/bin/../lib/gcc/arm-none-eabi/4.6.2/../../../../arm-none-eabi/lib/thumb/v7m\libstdc++.a(eh_catch.o)
                              e:/elektronik/toolchain/yagarto/bin/../lib/gcc/arm-none-eabi/4.6.2/../../../../arm-none-eabi/lib/thumb/v7m\libstdc++.a(eh_terminate.o) (__cxa_begin_catch)
e:/elektronik/toolchain/yagarto/bin/../lib/gcc/arm-none-eabi/4.6.2/../../../../arm-none-eabi/lib/thumb/v7m\libstdc++.a(eh_exception.o)
                              e:/elektronik/toolchain/yagarto/bin/../lib/gcc/arm-none-eabi/4.6.2/../../../../arm-none-eabi/lib/thumb/v7m\libstdc++.a(vterminate.o) (typeinfo for std::exception)
e:/elektronik/toolchain/yagarto/bin/../lib/gcc/arm-none-eabi/4.6.2/../../../../arm-none-eabi/lib/thumb/v7m\libstdc++.a(eh_globals.o)
                              e:/elektronik/toolchain/yagarto/bin/../lib/gcc/arm-none-eabi/4.6.2/../../../../arm-none-eabi/lib/thumb/v7m\libstdc++.a(eh_call.o) (__cxa_get_globals_fast)
e:/elektronik/toolchain/yagarto/bin/../lib/gcc/arm-none-eabi/4.6.2/../../../../arm-none-eabi/lib/thumb/v7m\libstdc++.a(eh_personality.o)
                              e:/elektronik/toolchain/yagarto/bin/../lib/gcc/arm-none-eabi/4.6.2/../../../../arm-none-eabi/lib/thumb/v7m\libstdc++.a(eh_terminate.o) (__gxx_personality_v0)
e:/elektronik/toolchain/yagarto/bin/../lib/gcc/arm-none-eabi/4.6.2/../../../../arm-none-eabi/lib/thumb/v7m\libstdc++.a(eh_throw.o)
                              e:/elektronik/toolchain/yagarto/bin/../lib/gcc/arm-none-eabi/4.6.2/../../../../arm-none-eabi/lib/thumb/v7m\libstdc++.a(eh_aux_runtime.o) (__cxa_throw)
e:/elektronik/toolchain/yagarto/bin/../lib/gcc/arm-none-eabi/4.6.2/../../../../arm-none-eabi/lib/thumb/v7m\libstdc++.a(eh_type.o)
                              e:/elektronik/toolchain/yagarto/bin/../lib/gcc/arm-none-eabi/4.6.2/../../../../arm-none-eabi/lib/thumb/v7m\libstdc++.a(vterminate.o) (__cxa_current_exception_type)
e:/elektronik/toolchain/yagarto/bin/../lib/gcc/arm-none-eabi/4.6.2/../../../../arm-none-eabi/lib/thumb/v7m\libstdc++.a(fundamental_type_info.o)
                              e:/elektronik/toolchain/yagarto/bin/../lib/gcc/arm-none-eabi/4.6.2/../../../../arm-none-eabi/lib/thumb/v7m\libstdc++.a(eh_arm.o) (typeinfo for void)
e:/elektronik/toolchain/yagarto/bin/../lib/gcc/arm-none-eabi/4.6.2/../../../../arm-none-eabi/lib/thumb/v7m\libstdc++.a(pointer_type_info.o)
                              e:/elektronik/toolchain/yagarto/bin/../lib/gcc/arm-none-eabi/4.6.2/../../../../arm-none-eabi/lib/thumb/v7m\libstdc++.a(fundamental_type_info.o) (vtable for __cxxabiv1::__pointer_type_info)
e:/elektronik/toolchain/yagarto/bin/../lib/gcc/arm-none-eabi/4.6.2/../../../../arm-none-eabi/lib/thumb/v7m\libstdc++.a(si_class_type_info.o)
                              e:/elektronik/toolchain/yagarto/bin/../lib/gcc/arm-none-eabi/4.6.2/../../../../arm-none-eabi/lib/thumb/v7m\libstdc++.a(eh_exception.o) (vtable for __cxxabiv1::__si_class_type_info)
e:/elektronik/toolchain/yagarto/bin/../lib/gcc/arm-none-eabi/4.6.2/../../../../arm-none-eabi/lib/thumb/v7m\libstdc++.a(tinfo.o)
                              e:/elektronik/toolchain/yagarto/bin/../lib/gcc/arm-none-eabi/4.6.2/../../../../arm-none-eabi/lib/thumb/v7m\libstdc++.a(fundamental_type_info.o) (std::type_info::~type_info())
e:/elektronik/toolchain/yagarto/bin/../lib/gcc/arm-none-eabi/4.6.2/../../../../arm-none-eabi/lib/thumb/v7m\libstdc++.a(bad_cast.o)
                              e:/elektronik/toolchain/yagarto/bin/../lib/gcc/arm-none-eabi/4.6.2/../../../../arm-none-eabi/lib/thumb/v7m\libstdc++.a(eh_aux_runtime.o) (typeinfo for std::bad_cast)
e:/elektronik/toolchain/yagarto/bin/../lib/gcc/arm-none-eabi/4.6.2/../../../../arm-none-eabi/lib/thumb/v7m\libstdc++.a(bad_typeid.o)
                              e:/elektronik/toolchain/yagarto/bin/../lib/gcc/arm-none-eabi/4.6.2/../../../../arm-none-eabi/lib/thumb/v7m\libstdc++.a(eh_aux_runtime.o) (typeinfo for std::bad_typeid)
e:/elektronik/toolchain/yagarto/bin/../lib/gcc/arm-none-eabi/4.6.2/../../../../arm-none-eabi/lib/thumb/v7m\libstdc++.a(class_type_info.o)
                              e:/elektronik/toolchain/yagarto/bin/../lib/gcc/arm-none-eabi/4.6.2/../../../../arm-none-eabi/lib/thumb/v7m\libstdc++.a(si_class_type_info.o) (__cxxabiv1::__class_type_info::__do_upcast(__cxxabiv1::__class_type_info const*, void**) const)
e:/elektronik/toolchain/yagarto/bin/../lib/gcc/arm-none-eabi/4.6.2/../../../../arm-none-eabi/lib/thumb/v7m\libstdc++.a(eh_alloc.o)
                              e:/elektronik/toolchain/yagarto/bin/../lib/gcc/arm-none-eabi/4.6.2/../../../../arm-none-eabi/lib/thumb/v7m\libstdc++.a(eh_aux_runtime.o) (__cxa_allocate_exception)
e:/elektronik/toolchain/yagarto/bin/../lib/gcc/arm-none-eabi/4.6.2/../../../../arm-none-eabi/lib/thumb/v7m\libstdc++.a(pbase_type_info.o)
                              e:/elektronik/toolchain/yagarto/bin/../lib/gcc/arm-none-eabi/4.6.2/../../../../arm-none-eabi/lib/thumb/v7m\libstdc++.a(pointer_type_info.o) (__cxxabiv1::__pbase_type_info::~__pbase_type_info())
e:/elektronik/toolchain/yagarto/bin/../lib/gcc/arm-none-eabi/4.6.2/thumb/v7m\libgcc.a(unwind-arm.o)
                              e:/elektronik/toolchain/yagarto/bin/../lib/gcc/arm-none-eabi/4.6.2/../../../../arm-none-eabi/lib/thumb/v7m\libstdc++.a(eh_arm.o) (__aeabi_unwind_cpp_pr0)
e:/elektronik/toolchain/yagarto/bin/../lib/gcc/arm-none-eabi/4.6.2/thumb/v7m\libgcc.a(libunwind.o)
                              e:/elektronik/toolchain/yagarto/bin/../lib/gcc/arm-none-eabi/4.6.2/thumb/v7m\libgcc.a(unwind-arm.o) (restore_core_regs)
e:/elektronik/toolchain/yagarto/bin/../lib/gcc/arm-none-eabi/4.6.2/thumb/v7m\libgcc.a(pr-support.o)
                              e:/elektronik/toolchain/yagarto/bin/../lib/gcc/arm-none-eabi/4.6.2/thumb/v7m\libgcc.a(unwind-arm.o) (__gnu_unwind_execute)
e:/elektronik/toolchain/yagarto/bin/../lib/gcc/arm-none-eabi/4.6.2/../../../../arm-none-eabi/lib/thumb/v7m\libg.a(lib_a-abort.o)
                              e:/elektronik/toolchain/yagarto/bin/../lib/gcc/arm-none-eabi/4.6.2/../../../../arm-none-eabi/lib/thumb/v7m\libstdc++.a(eh_terminate.o) (abort)
e:/elektronik/toolchain/yagarto/bin/../lib/gcc/arm-none-eabi/4.6.2/../../../../arm-none-eabi/lib/thumb/v7m\libg.a(lib_a-assert.o)
                              ./FreeRTOS_EC/Source/ASyncObject.o (__assert_func)
e:/elektronik/toolchain/yagarto/bin/../lib/gcc/arm-none-eabi/4.6.2/../../../../arm-none-eabi/lib/thumb/v7m\libg.a(lib_a-atexit.o)
                              e:/elektronik/toolchain/yagarto/bin/../lib/gcc/arm-none-eabi/4.6.2/../../../../arm-none-eabi/lib/thumb/v7m/crt0.o (atexit)
e:/elektronik/toolchain/yagarto/bin/../lib/gcc/arm-none-eabi/4.6.2/../../../../arm-none-eabi/lib/thumb/v7m\libg.a(lib_a-cxa_atexit.o)
                              e:/elektronik/toolchain/yagarto/bin/../lib/gcc/arm-none-eabi/4.6.2/../../../../arm-none-eabi/lib/thumb/v7m\libstdc++.a(atexit_arm.o) (__cxa_atexit)
e:/elektronik/toolchain/yagarto/bin/../lib/gcc/arm-none-eabi/4.6.2/../../../../arm-none-eabi/lib/thumb/v7m\libg.a(lib_a-exit.o)
                              e:/elektronik/toolchain/yagarto/bin/../lib/gcc/arm-none-eabi/4.6.2/../../../../arm-none-eabi/lib/thumb/v7m/crt0.o (exit)
e:/elektronik/toolchain/yagarto/bin/../lib/gcc/arm-none-eabi/4.6.2/../../../../arm-none-eabi/lib/thumb/v7m\libg.a(lib_a-fini.o)
                              e:/elektronik/toolchain/yagarto/bin/../lib/gcc/arm-none-eabi/4.6.2/../../../../arm-none-eabi/lib/thumb/v7m/crt0.o (__libc_fini_array)
e:/elektronik/toolchain/yagarto/bin/../lib/gcc/arm-none-eabi/4.6.2/../../../../arm-none-eabi/lib/thumb/v7m\libg.a(lib_a-fiprintf.o)
                              e:/elektronik/toolchain/yagarto/bin/../lib/gcc/arm-none-eabi/4.6.2/../../../../arm-none-eabi/lib/thumb/v7m\libg.a(lib_a-assert.o) (fiprintf)
e:/elektronik/toolchain/yagarto/bin/../lib/gcc/arm-none-eabi/4.6.2/../../../../arm-none-eabi/lib/thumb/v7m\libg.a(lib_a-fputc.o)
                              e:/elektronik/toolchain/yagarto/bin/../lib/gcc/arm-none-eabi/4.6.2/../../../../arm-none-eabi/lib/thumb/v7m\libstdc++.a(vterminate.o) (fputc)
e:/elektronik/toolchain/yagarto/bin/../lib/gcc/arm-none-eabi/4.6.2/../../../../arm-none-eabi/lib/thumb/v7m\libg.a(lib_a-fputs.o)
                              e:/elektronik/toolchain/yagarto/bin/../lib/gcc/arm-none-eabi/4.6.2/../../../../arm-none-eabi/lib/thumb/v7m\libstdc++.a(vterminate.o) (fputs)
e:/elektronik/toolchain/yagarto/bin/../lib/gcc/arm-none-eabi/4.6.2/../../../../arm-none-eabi/lib/thumb/v7m\libg.a(lib_a-fvwrite.o)
                              e:/elektronik/toolchain/yagarto/bin/../lib/gcc/arm-none-eabi/4.6.2/../../../../arm-none-eabi/lib/thumb/v7m\libg.a(lib_a-fputs.o) (__sfvwrite_r)
e:/elektronik/toolchain/yagarto/bin/../lib/gcc/arm-none-eabi/4.6.2/../../../../arm-none-eabi/lib/thumb/v7m\libg.a(lib_a-fwrite.o)
                              e:/elektronik/toolchain/yagarto/bin/../lib/gcc/arm-none-eabi/4.6.2/../../../../arm-none-eabi/lib/thumb/v7m\libstdc++.a(vterminate.o) (fwrite)
e:/elektronik/toolchain/yagarto/bin/../lib/gcc/arm-none-eabi/4.6.2/../../../../arm-none-eabi/lib/thumb/v7m\libg.a(lib_a-impure.o)
                              e:/elektronik/toolchain/yagarto/bin/../lib/gcc/arm-none-eabi/4.6.2/../../../../arm-none-eabi/lib/thumb/v7m\libg.a(lib_a-exit.o) (_global_impure_ptr)
e:/elektronik/toolchain/yagarto/bin/../lib/gcc/arm-none-eabi/4.6.2/../../../../arm-none-eabi/lib/thumb/v7m\libg.a(lib_a-init.o)
                              e:/elektronik/toolchain/yagarto/bin/../lib/gcc/arm-none-eabi/4.6.2/../../../../arm-none-eabi/lib/thumb/v7m/crt0.o (__libc_init_array)
e:/elektronik/toolchain/yagarto/bin/../lib/gcc/arm-none-eabi/4.6.2/../../../../arm-none-eabi/lib/thumb/v7m\libg.a(lib_a-malloc.o)
                              ./FreeRTOS/Source/croutine.o (malloc)
e:/elektronik/toolchain/yagarto/bin/../lib/gcc/arm-none-eabi/4.6.2/../../../../arm-none-eabi/lib/thumb/v7m\libg.a(lib_a-mallocr.o)
                              e:/elektronik/toolchain/yagarto/bin/../lib/gcc/arm-none-eabi/4.6.2/../../../../arm-none-eabi/lib/thumb/v7m\libg.a(lib_a-fvwrite.o) (_malloc_r)
e:/elektronik/toolchain/yagarto/bin/../lib/gcc/arm-none-eabi/4.6.2/../../../../arm-none-eabi/lib/thumb/v7m\libg.a(lib_a-memchr.o)
                              e:/elektronik/toolchain/yagarto/bin/../lib/gcc/arm-none-eabi/4.6.2/../../../../arm-none-eabi/lib/thumb/v7m\libg.a(lib_a-fvwrite.o) (memchr)
e:/elektronik/toolchain/yagarto/bin/../lib/gcc/arm-none-eabi/4.6.2/../../../../arm-none-eabi/lib/thumb/v7m\libg.a(lib_a-memcmp.o)
                              e:/elektronik/toolchain/yagarto/bin/../lib/gcc/arm-none-eabi/4.6.2/../../../../arm-none-eabi/lib/thumb/v7m\libstdc++.a(cp-demangle.o) (memcmp)
e:/elektronik/toolchain/yagarto/bin/../lib/gcc/arm-none-eabi/4.6.2/../../../../arm-none-eabi/lib/thumb/v7m\libg.a(lib_a-memcpy.o)
                              ./FreeRTOS/Source/queue.o (memcpy)
e:/elektronik/toolchain/yagarto/bin/../lib/gcc/arm-none-eabi/4.6.2/../../../../arm-none-eabi/lib/thumb/v7m\libg.a(lib_a-memmove.o)
                              e:/elektronik/toolchain/yagarto/bin/../lib/gcc/arm-none-eabi/4.6.2/../../../../arm-none-eabi/lib/thumb/v7m\libg.a(lib_a-fvwrite.o) (memmove)
e:/elektronik/toolchain/yagarto/bin/../lib/gcc/arm-none-eabi/4.6.2/../../../../arm-none-eabi/lib/thumb/v7m\libg.a(lib_a-memset.o)
                              e:/elektronik/toolchain/yagarto/bin/../lib/gcc/arm-none-eabi/4.6.2/../../../../arm-none-eabi/lib/thumb/v7m/crt0.o (memset)
e:/elektronik/toolchain/yagarto/bin/../lib/gcc/arm-none-eabi/4.6.2/../../../../arm-none-eabi/lib/thumb/v7m\libg.a(lib_a-putc.o)
                              e:/elektronik/toolchain/yagarto/bin/../lib/gcc/arm-none-eabi/4.6.2/../../../../arm-none-eabi/lib/thumb/v7m\libg.a(lib_a-fputc.o) (_putc_r)
e:/elektronik/toolchain/yagarto/bin/../lib/gcc/arm-none-eabi/4.6.2/../../../../arm-none-eabi/lib/thumb/v7m\libg.a(lib_a-realloc.o)
                              e:/elektronik/toolchain/yagarto/bin/../lib/gcc/arm-none-eabi/4.6.2/../../../../arm-none-eabi/lib/thumb/v7m\libstdc++.a(cp-demangle.o) (realloc)
e:/elektronik/toolchain/yagarto/bin/../lib/gcc/arm-none-eabi/4.6.2/../../../../arm-none-eabi/lib/thumb/v7m\libg.a(lib_a-reallocr.o)
                              e:/elektronik/toolchain/yagarto/bin/../lib/gcc/arm-none-eabi/4.6.2/../../../../arm-none-eabi/lib/thumb/v7m\libg.a(lib_a-fvwrite.o) (_realloc_r)
e:/elektronik/toolchain/yagarto/bin/../lib/gcc/arm-none-eabi/4.6.2/../../../../arm-none-eabi/lib/thumb/v7m\libg.a(lib_a-signal.o)
                              e:/elektronik/toolchain/yagarto/bin/../lib/gcc/arm-none-eabi/4.6.2/../../../../arm-none-eabi/lib/thumb/v7m\libg.a(lib_a-abort.o) (raise)
e:/elektronik/toolchain/yagarto/bin/../lib/gcc/arm-none-eabi/4.6.2/../../../../arm-none-eabi/lib/thumb/v7m\libg.a(lib_a-sprintf.o)
                              ./FreeRTOS/Source/tasks.o (sprintf)
e:/elektronik/toolchain/yagarto/bin/../lib/gcc/arm-none-eabi/4.6.2/../../../../arm-none-eabi/lib/thumb/v7m\libg.a(lib_a-strcat.o)
                              ./FreeRTOS/Source/tasks.o (strcat)
e:/elektronik/toolchain/yagarto/bin/../lib/gcc/arm-none-eabi/4.6.2/../../../../arm-none-eabi/lib/thumb/v7m\libg.a(lib_a-strcmp.o)
                              e:/elektronik/toolchain/yagarto/bin/../lib/gcc/arm-none-eabi/4.6.2/../../../../arm-none-eabi/lib/thumb/v7m\libstdc++.a(cp-demangle.o) (strcmp)
e:/elektronik/toolchain/yagarto/bin/../lib/gcc/arm-none-eabi/4.6.2/../../../../arm-none-eabi/lib/thumb/v7m\libg.a(lib_a-strcpy.o)
                              e:/elektronik/toolchain/yagarto/bin/../lib/gcc/arm-none-eabi/4.6.2/../../../../arm-none-eabi/lib/thumb/v7m\libstdc++.a(cp-demangle.o) (strcpy)
e:/elektronik/toolchain/yagarto/bin/../lib/gcc/arm-none-eabi/4.6.2/../../../../arm-none-eabi/lib/thumb/v7m\libg.a(lib_a-strlen.o)
                              ./FreeRTOS/Source/tasks.o (strlen)
e:/elektronik/toolchain/yagarto/bin/../lib/gcc/arm-none-eabi/4.6.2/../../../../arm-none-eabi/lib/thumb/v7m\libg.a(lib_a-strncmp.o)
                              e:/elektronik/toolchain/yagarto/bin/../lib/gcc/arm-none-eabi/4.6.2/../../../../arm-none-eabi/lib/thumb/v7m\libstdc++.a(cp-demangle.o) (strncmp)
e:/elektronik/toolchain/yagarto/bin/../lib/gcc/arm-none-eabi/4.6.2/../../../../arm-none-eabi/lib/thumb/v7m\libg.a(lib_a-strncpy.o)
                              ./FreeRTOS/Source/tasks.o (strncpy)
e:/elektronik/toolchain/yagarto/bin/../lib/gcc/arm-none-eabi/4.6.2/../../../../arm-none-eabi/lib/thumb/v7m\libg.a(lib_a-svfprintf.o)
                              e:/elektronik/toolchain/yagarto/bin/../lib/gcc/arm-none-eabi/4.6.2/../../../../arm-none-eabi/lib/thumb/v7m\libg.a(lib_a-sprintf.o) (_svfprintf_r)
e:/elektronik/toolchain/yagarto/bin/../lib/gcc/arm-none-eabi/4.6.2/../../../../arm-none-eabi/lib/thumb/v7m\libg.a(lib_a-syswrite.o)
                              e:/elektronik/toolchain/yagarto/bin/../lib/gcc/arm-none-eabi/4.6.2/../../../../arm-none-eabi/lib/thumb/v7m\libstdc++.a(pure.o) (write)
e:/elektronik/toolchain/yagarto/bin/../lib/gcc/arm-none-eabi/4.6.2/../../../../arm-none-eabi/lib/thumb/v7m\libg.a(lib_a-vfiprintf.o)
                              e:/elektronik/toolchain/yagarto/bin/../lib/gcc/arm-none-eabi/4.6.2/../../../../arm-none-eabi/lib/thumb/v7m\libg.a(lib_a-fiprintf.o) (_vfiprintf_r)
e:/elektronik/toolchain/yagarto/bin/../lib/gcc/arm-none-eabi/4.6.2/../../../../arm-none-eabi/lib/thumb/v7m\libg.a(lib_a-wbuf.o)
                              e:/elektronik/toolchain/yagarto/bin/../lib/gcc/arm-none-eabi/4.6.2/../../../../arm-none-eabi/lib/thumb/v7m\libg.a(lib_a-putc.o) (__swbuf_r)
e:/elektronik/toolchain/yagarto/bin/../lib/gcc/arm-none-eabi/4.6.2/../../../../arm-none-eabi/lib/thumb/v7m\libg.a(lib_a-wsetup.o)
                              e:/elektronik/toolchain/yagarto/bin/../lib/gcc/arm-none-eabi/4.6.2/../../../../arm-none-eabi/lib/thumb/v7m\libg.a(lib_a-fvwrite.o) (__swsetup_r)
e:/elektronik/toolchain/yagarto/bin/../lib/gcc/arm-none-eabi/4.6.2/../../../../arm-none-eabi/lib/thumb/v7m\libg.a(lib_a-__atexit.o)
                              e:/elektronik/toolchain/yagarto/bin/../lib/gcc/arm-none-eabi/4.6.2/../../../../arm-none-eabi/lib/thumb/v7m\libg.a(lib_a-atexit.o) (__register_exitproc)
e:/elektronik/toolchain/yagarto/bin/../lib/gcc/arm-none-eabi/4.6.2/../../../../arm-none-eabi/lib/thumb/v7m\libg.a(lib_a-__call_atexit.o)
                              e:/elektronik/toolchain/yagarto/bin/../lib/gcc/arm-none-eabi/4.6.2/../../../../arm-none-eabi/lib/thumb/v7m\libg.a(lib_a-exit.o) (__call_exitprocs)
e:/elektronik/toolchain/yagarto/bin/../lib/gcc/arm-none-eabi/4.6.2/../../../../arm-none-eabi/lib/thumb/v7m\libg.a(lib_a-dtoa.o)
                              e:/elektronik/toolchain/yagarto/bin/../lib/gcc/arm-none-eabi/4.6.2/../../../../arm-none-eabi/lib/thumb/v7m\libg.a(lib_a-svfprintf.o) (_dtoa_r)
e:/elektronik/toolchain/yagarto/bin/../lib/gcc/arm-none-eabi/4.6.2/../../../../arm-none-eabi/lib/thumb/v7m\libg.a(lib_a-fflush.o)
                              e:/elektronik/toolchain/yagarto/bin/../lib/gcc/arm-none-eabi/4.6.2/../../../../arm-none-eabi/lib/thumb/v7m\libg.a(lib_a-fvwrite.o) (_fflush_r)
e:/elektronik/toolchain/yagarto/bin/../lib/gcc/arm-none-eabi/4.6.2/../../../../arm-none-eabi/lib/thumb/v7m\libg.a(lib_a-findfp.o)
                              e:/elektronik/toolchain/yagarto/bin/../lib/gcc/arm-none-eabi/4.6.2/../../../../arm-none-eabi/lib/thumb/v7m\libg.a(lib_a-fputc.o) (__sinit)
e:/elektronik/toolchain/yagarto/bin/../lib/gcc/arm-none-eabi/4.6.2/../../../../arm-none-eabi/lib/thumb/v7m\libg.a(lib_a-fputwc.o)
                              e:/elektronik/toolchain/yagarto/bin/../lib/gcc/arm-none-eabi/4.6.2/../../../../arm-none-eabi/lib/thumb/v7m\libg.a(lib_a-vfiprintf.o) (_fputwc_r)
e:/elektronik/toolchain/yagarto/bin/../lib/gcc/arm-none-eabi/4.6.2/../../../../arm-none-eabi/lib/thumb/v7m\libg.a(lib_a-freer.o)
                              e:/elektronik/toolchain/yagarto/bin/../lib/gcc/arm-none-eabi/4.6.2/../../../../arm-none-eabi/lib/thumb/v7m\libg.a(lib_a-fvwrite.o) (_free_r)
e:/elektronik/toolchain/yagarto/bin/../lib/gcc/arm-none-eabi/4.6.2/../../../../arm-none-eabi/lib/thumb/v7m\libg.a(lib_a-fwalk.o)
                              e:/elektronik/toolchain/yagarto/bin/../lib/gcc/arm-none-eabi/4.6.2/../../../../arm-none-eabi/lib/thumb/v7m\libg.a(lib_a-findfp.o) (_fwalk)
e:/elektronik/toolchain/yagarto/bin/../lib/gcc/arm-none-eabi/4.6.2/../../../../arm-none-eabi/lib/thumb/v7m\libg.a(lib_a-locale.o)
                              e:/elektronik/toolchain/yagarto/bin/../lib/gcc/arm-none-eabi/4.6.2/../../../../arm-none-eabi/lib/thumb/v7m\libg.a(lib_a-fputwc.o) (__locale_mb_cur_max)
e:/elektronik/toolchain/yagarto/bin/../lib/gcc/arm-none-eabi/4.6.2/../../../../arm-none-eabi/lib/thumb/v7m\libg.a(lib_a-makebuf.o)
                              e:/elektronik/toolchain/yagarto/bin/../lib/gcc/arm-none-eabi/4.6.2/../../../../arm-none-eabi/lib/thumb/v7m\libg.a(lib_a-wsetup.o) (__smakebuf_r)
e:/elektronik/toolchain/yagarto/bin/../lib/gcc/arm-none-eabi/4.6.2/../../../../arm-none-eabi/lib/thumb/v7m\libg.a(lib_a-mprec.o)
                              e:/elektronik/toolchain/yagarto/bin/../lib/gcc/arm-none-eabi/4.6.2/../../../../arm-none-eabi/lib/thumb/v7m\libg.a(lib_a-dtoa.o) (_Balloc)
e:/elektronik/toolchain/yagarto/bin/../lib/gcc/arm-none-eabi/4.6.2/../../../../arm-none-eabi/lib/thumb/v7m\libg.a(lib_a-s_fpclassify.o)
                              e:/elektronik/toolchain/yagarto/bin/../lib/gcc/arm-none-eabi/4.6.2/../../../../arm-none-eabi/lib/thumb/v7m\libg.a(lib_a-svfprintf.o) (__fpclassifyd)
e:/elektronik/toolchain/yagarto/bin/../lib/gcc/arm-none-eabi/4.6.2/../../../../arm-none-eabi/lib/thumb/v7m\libg.a(lib_a-stdio.o)
                              e:/elektronik/toolchain/yagarto/bin/../lib/gcc/arm-none-eabi/4.6.2/../../../../arm-none-eabi/lib/thumb/v7m\libg.a(lib_a-findfp.o) (__sread)
e:/elektronik/toolchain/yagarto/bin/../lib/gcc/arm-none-eabi/4.6.2/../../../../arm-none-eabi/lib/thumb/v7m\libg.a(lib_a-svfiprintf.o)
                              e:/elektronik/toolchain/yagarto/bin/../lib/gcc/arm-none-eabi/4.6.2/../../../../arm-none-eabi/lib/thumb/v7m\libg.a(lib_a-svfprintf.o) (__ssprint_r)
e:/elektronik/toolchain/yagarto/bin/../lib/gcc/arm-none-eabi/4.6.2/../../../../arm-none-eabi/lib/thumb/v7m\libg.a(lib_a-wcrtomb.o)
                              e:/elektronik/toolchain/yagarto/bin/../lib/gcc/arm-none-eabi/4.6.2/../../../../arm-none-eabi/lib/thumb/v7m\libg.a(lib_a-fputwc.o) (_wcrtomb_r)
e:/elektronik/toolchain/yagarto/bin/../lib/gcc/arm-none-eabi/4.6.2/../../../../arm-none-eabi/lib/thumb/v7m\libg.a(lib_a-wctomb_r.o)
                              e:/elektronik/toolchain/yagarto/bin/../lib/gcc/arm-none-eabi/4.6.2/../../../../arm-none-eabi/lib/thumb/v7m\libg.a(lib_a-wcrtomb.o) (__wctomb)
e:/elektronik/toolchain/yagarto/bin/../lib/gcc/arm-none-eabi/4.6.2/../../../../arm-none-eabi/lib/thumb/v7m\libg.a(lib_a-callocr.o)
                              e:/elektronik/toolchain/yagarto/bin/../lib/gcc/arm-none-eabi/4.6.2/../../../../arm-none-eabi/lib/thumb/v7m\libg.a(lib_a-mprec.o) (_calloc_r)
e:/elektronik/toolchain/yagarto/bin/../lib/gcc/arm-none-eabi/4.6.2/../../../../arm-none-eabi/lib/thumb/v7m\libg.a(lib_a-fclose.o)
                              e:/elektronik/toolchain/yagarto/bin/../lib/gcc/arm-none-eabi/4.6.2/../../../../arm-none-eabi/lib/thumb/v7m\libg.a(lib_a-findfp.o) (fclose)
e:/elektronik/toolchain/yagarto/bin/../lib/gcc/arm-none-eabi/4.6.2/thumb/v7m\libgcc.a(_udivsi3.o)
                              e:/elektronik/toolchain/yagarto/bin/../lib/gcc/arm-none-eabi/4.6.2/../../../../arm-none-eabi/lib/thumb/v7m\libg.a(lib_a-fwrite.o) (__aeabi_uidiv)
e:/elektronik/toolchain/yagarto/bin/../lib/gcc/arm-none-eabi/4.6.2/thumb/v7m\libgcc.a(_dvmd_tls.o)
                              e:/elektronik/toolchain/yagarto/bin/../lib/gcc/arm-none-eabi/4.6.2/thumb/v7m\libgcc.a(_udivsi3.o) (__aeabi_idiv0)
e:/elektronik/toolchain/yagarto/bin/../lib/gcc/arm-none-eabi/4.6.2/thumb/v7m\libgcc.a(_arm_addsubdf3.o)
                              e:/elektronik/toolchain/yagarto/bin/../lib/gcc/arm-none-eabi/4.6.2/../../../../arm-none-eabi/lib/thumb/v7m\libg.a(lib_a-dtoa.o) (__aeabi_dsub)
e:/elektronik/toolchain/yagarto/bin/../lib/gcc/arm-none-eabi/4.6.2/thumb/v7m\libgcc.a(_arm_muldivdf3.o)
                              e:/elektronik/toolchain/yagarto/bin/../lib/gcc/arm-none-eabi/4.6.2/../../../../arm-none-eabi/lib/thumb/v7m\libg.a(lib_a-dtoa.o) (__aeabi_dmul)
e:/elektronik/toolchain/yagarto/bin/../lib/gcc/arm-none-eabi/4.6.2/thumb/v7m\libgcc.a(_arm_cmpdf2.o)
                              e:/elektronik/toolchain/yagarto/bin/../lib/gcc/arm-none-eabi/4.6.2/../../../../arm-none-eabi/lib/thumb/v7m\libg.a(lib_a-svfprintf.o) (__aeabi_dcmpeq)
e:/elektronik/toolchain/yagarto/bin/../lib/gcc/arm-none-eabi/4.6.2/thumb/v7m\libgcc.a(_arm_fixdfsi.o)
                              e:/elektronik/toolchain/yagarto/bin/../lib/gcc/arm-none-eabi/4.6.2/../../../../arm-none-eabi/lib/thumb/v7m\libg.a(lib_a-dtoa.o) (__aeabi_d2iz)

Allocating common symbols
Common symbol       size              file

CurrentPos          0x4               ./STM32F4-Discovery/stm32f4_discovery_audio_codec.o
__brkval            0x4               ./syscalls.o
AUDIO_MAL_DMA_InitStructure
                    0x3c              ./STM32F4-Discovery/stm32f4_discovery_audio_codec.o
NVIC_InitStructure  0x4               ./STM32F4-Discovery/stm32f4_discovery.o
DMA_InitStructure   0x3c              ./STM32F4-Discovery/stm32f4_discovery_audio_codec.o

Discarded input sections

 .group         0x00000000        0x8 ./Menue/CMenue.o
 .group         0x00000000        0x8 ./Menue/CMenue.o
 .group         0x00000000        0x8 ./Menue/CMenue.o
 .group         0x00000000        0x8 ./FreeRTOS_EC/Source/AManagedTask.o
 .group         0x00000000        0x8 ./FreeRTOS_EC/Source/AManagedTask.o
 .group         0x00000000        0x8 ./FreeRTOS_EC/Source/AManagedTask.o
 .group         0x00000000        0x8 ./FreeRTOS_EC/Source/AManagedTask.o
 .group         0x00000000        0x8 ./FreeRTOS_EC/Source/AManagedTask.o
 .group         0x00000000        0x8 ./FreeRTOS_EC/Source/AManagedTask.o
 .group         0x00000000        0x8 ./FreeRTOS_EC/Source/AManagedTask.o
 .group         0x00000000        0x8 ./FreeRTOS_EC/Source/AManagedTask.o
 .text._ZNK5CTask7IsValidEv
                0x00000000       0x24 ./FreeRTOS_EC/Source/AManagedTask.o
 .text._ZN5CTask6DetachEv
                0x00000000       0x24 ./FreeRTOS_EC/Source/AManagedTask.o
 .text._ZN12AManagedTask8OnCreateEPKctm
                0x00000000       0x20 ./FreeRTOS_EC/Source/AManagedTask.o
 .group         0x00000000        0x8 ./FreeRTOS_EC/Source/ASyncObject.o
 .group         0x00000000        0x8 ./FreeRTOS_EC/Source/ASyncObject.o
 .group         0x00000000        0x8 ./FreeRTOS_EC/Source/ASyncObject.o
 .group         0x00000000        0x8 ./FreeRTOS_EC/Source/ASyncObject.o
 .group         0x00000000        0x8 ./FreeRTOS_EC/Source/CBinarySemaphore.o
 .group         0x00000000        0x8 ./FreeRTOS_EC/Source/CBinarySemaphore.o
 .group         0x00000000        0x8 ./FreeRTOS_EC/Source/CBinarySemaphore.o
 .group         0x00000000        0x8 ./FreeRTOS_EC/Source/CBinarySemaphore.o
 .text._ZNK11ASyncObject7IsValidEv
                0x00000000       0x24 ./FreeRTOS_EC/Source/CBinarySemaphore.o
 .text._ZN11ASyncObject6DetachEv
                0x00000000       0x24 ./FreeRTOS_EC/Source/CBinarySemaphore.o
 .group         0x00000000        0x8 ./FreeRTOS_EC/Source/CCountingSemaphore.o
 .group         0x00000000        0x8 ./FreeRTOS_EC/Source/CCountingSemaphore.o
 .group         0x00000000        0x8 ./FreeRTOS_EC/Source/CCountingSemaphore.o
 .group         0x00000000        0x8 ./FreeRTOS_EC/Source/CCountingSemaphore.o
 .text._ZNK11ASyncObject7IsValidEv
                0x00000000       0x24 ./FreeRTOS_EC/Source/CCountingSemaphore.o
 .text._ZN11ASyncObject6DetachEv
                0x00000000       0x24 ./FreeRTOS_EC/Source/CCountingSemaphore.o
 .group         0x00000000        0x8 ./FreeRTOS_EC/Source/CMessageTask.o
 .group         0x00000000        0x8 ./FreeRTOS_EC/Source/CMessageTask.o
 .group         0x00000000        0x8 ./FreeRTOS_EC/Source/CMessageTask.o
 .group         0x00000000        0x8 ./FreeRTOS_EC/Source/CMessageTask.o
 .group         0x00000000        0x8 ./FreeRTOS_EC/Source/CMessageTask.o
 .group         0x00000000        0x8 ./FreeRTOS_EC/Source/CMessageTask.o
 .group         0x00000000        0x8 ./FreeRTOS_EC/Source/CMessageTask.o
 .group         0x00000000        0x8 ./FreeRTOS_EC/Source/CMessageTask.o
 .group         0x00000000        0x8 ./FreeRTOS_EC/Source/CMessageTask.o
 .group         0x00000000        0x8 ./FreeRTOS_EC/Source/CMessageTask.o
 .text._ZNK5CTask7IsValidEv
                0x00000000       0x24 ./FreeRTOS_EC/Source/CMessageTask.o
 .text._ZN5CTask6DetachEv
                0x00000000       0x24 ./FreeRTOS_EC/Source/CMessageTask.o
 .text._ZN12AManagedTask12HardwareInitEv
                0x00000000       0x18 ./FreeRTOS_EC/Source/CMessageTask.o
 .group         0x00000000        0x8 ./FreeRTOS_EC/Source/CMutex.o
 .group         0x00000000        0x8 ./FreeRTOS_EC/Source/CMutex.o
 .group         0x00000000        0x8 ./FreeRTOS_EC/Source/CMutex.o
 .group         0x00000000        0x8 ./FreeRTOS_EC/Source/CMutex.o
 .text._ZNK11ASyncObject7IsValidEv
                0x00000000       0x24 ./FreeRTOS_EC/Source/CMutex.o
 .text._ZN11ASyncObject6DetachEv
                0x00000000       0x24 ./FreeRTOS_EC/Source/CMutex.o
 .group         0x00000000        0x8 ./FreeRTOS_EC/Source/CQueue.o
 .group         0x00000000        0x8 ./FreeRTOS_EC/Source/CQueue.o
 .group         0x00000000        0x8 ./FreeRTOS_EC/Source/CQueue.o
 .group         0x00000000        0x8 ./FreeRTOS_EC/Source/CQueue.o
 .text._ZN12IFreeRTOSObjC2Ev
                0x00000000       0x20 ./FreeRTOS_EC/Source/CQueue.o
 .rodata._ZTV12IFreeRTOSObj
                0x00000000       0x18 ./FreeRTOS_EC/Source/CQueue.o
 .group         0x00000000        0x8 ./FreeRTOS_EC/Source/CRecursiveMutex.o
 .group         0x00000000        0x8 ./FreeRTOS_EC/Source/CRecursiveMutex.o
 .group         0x00000000        0x8 ./FreeRTOS_EC/Source/CRecursiveMutex.o
 .group         0x00000000        0x8 ./FreeRTOS_EC/Source/CRecursiveMutex.o
 .text._ZNK11ASyncObject7IsValidEv
                0x00000000       0x24 ./FreeRTOS_EC/Source/CRecursiveMutex.o
 .text._ZN11ASyncObject6DetachEv
                0x00000000       0x24 ./FreeRTOS_EC/Source/CRecursiveMutex.o
 .group         0x00000000        0x8 ./FreeRTOS_EC/Source/CTask.o
 .group         0x00000000        0x8 ./FreeRTOS_EC/Source/CTask.o
 .group         0x00000000        0x8 ./FreeRTOS_EC/Source/CTask.o
 .group         0x00000000        0x8 ./FreeRTOS_EC/Source/CTask.o
 .text._ZNK5CTask7IsValidEv
                0x00000000       0x24 ./FreeRTOS_EC/Source/CTask.o
 .text._ZN5CTask6DetachEv
                0x00000000       0x24 ./FreeRTOS_EC/Source/CTask.o
 .text._ZN12IFreeRTOSObjC2Ev
                0x00000000       0x20 ./FreeRTOS_EC/Source/CTask.o
 .rodata._ZTV12IFreeRTOSObj
                0x00000000       0x18 ./FreeRTOS_EC/Source/CTask.o
 .group         0x00000000        0x8 ./CLedHeartBeatSTM32F4Disc.o
 .group         0x00000000        0x8 ./CLedHeartBeatSTM32F4Disc.o
 .group         0x00000000        0x8 ./CLedHeartBeatSTM32F4Disc.o
 .text._ZNK5CTask7IsValidEv
                0x00000000       0x24 ./CLedHeartBeatSTM32F4Disc.o
 .text._ZN5CTask6DetachEv
                0x00000000       0x24 ./CLedHeartBeatSTM32F4Disc.o
 .text._ZN12AManagedTask8OnCreateEPKctm
                0x00000000       0x20 ./CLedHeartBeatSTM32F4Disc.o
 .group         0x00000000        0x8 ./main.o
 .group         0x00000000        0x8 e:/elektronik/toolchain/yagarto/bin/../lib/gcc/arm-none-eabi/4.6.2/../../../../arm-none-eabi/lib/thumb/v7m\libstdc++.a(fundamental_type_info.o)
 .group         0x00000000        0x8 e:/elektronik/toolchain/yagarto/bin/../lib/gcc/arm-none-eabi/4.6.2/../../../../arm-none-eabi/lib/thumb/v7m\libstdc++.a(fundamental_type_info.o)
 .group         0x00000000        0x8 e:/elektronik/toolchain/yagarto/bin/../lib/gcc/arm-none-eabi/4.6.2/../../../../arm-none-eabi/lib/thumb/v7m\libstdc++.a(fundamental_type_info.o)
 .group         0x00000000        0x8 e:/elektronik/toolchain/yagarto/bin/../lib/gcc/arm-none-eabi/4.6.2/../../../../arm-none-eabi/lib/thumb/v7m\libstdc++.a(fundamental_type_info.o)
 .group         0x00000000        0x8 e:/elektronik/toolchain/yagarto/bin/../lib/gcc/arm-none-eabi/4.6.2/../../../../arm-none-eabi/lib/thumb/v7m\libstdc++.a(fundamental_type_info.o)
 .group         0x00000000        0x8 e:/elektronik/toolchain/yagarto/bin/../lib/gcc/arm-none-eabi/4.6.2/../../../../arm-none-eabi/lib/thumb/v7m\libstdc++.a(fundamental_type_info.o)
 .group         0x00000000        0x8 e:/elektronik/toolchain/yagarto/bin/../lib/gcc/arm-none-eabi/4.6.2/../../../../arm-none-eabi/lib/thumb/v7m\libstdc++.a(fundamental_type_info.o)
 .group         0x00000000        0x8 e:/elektronik/toolchain/yagarto/bin/../lib/gcc/arm-none-eabi/4.6.2/../../../../arm-none-eabi/lib/thumb/v7m\libstdc++.a(fundamental_type_info.o)
 .group         0x00000000        0x8 e:/elektronik/toolchain/yagarto/bin/../lib/gcc/arm-none-eabi/4.6.2/../../../../arm-none-eabi/lib/thumb/v7m\libstdc++.a(fundamental_type_info.o)
 .group         0x00000000        0x8 e:/elektronik/toolchain/yagarto/bin/../lib/gcc/arm-none-eabi/4.6.2/../../../../arm-none-eabi/lib/thumb/v7m\libstdc++.a(fundamental_type_info.o)
 .group         0x00000000        0x8 e:/elektronik/toolchain/yagarto/bin/../lib/gcc/arm-none-eabi/4.6.2/../../../../arm-none-eabi/lib/thumb/v7m\libstdc++.a(fundamental_type_info.o)
 .group         0x00000000        0x8 e:/elektronik/toolchain/yagarto/bin/../lib/gcc/arm-none-eabi/4.6.2/../../../../arm-none-eabi/lib/thumb/v7m\libstdc++.a(fundamental_type_info.o)
 .group         0x00000000        0x8 e:/elektronik/toolchain/yagarto/bin/../lib/gcc/arm-none-eabi/4.6.2/../../../../arm-none-eabi/lib/thumb/v7m\libstdc++.a(fundamental_type_info.o)
 .group         0x00000000        0x8 e:/elektronik/toolchain/yagarto/bin/../lib/gcc/arm-none-eabi/4.6.2/../../../../arm-none-eabi/lib/thumb/v7m\libstdc++.a(fundamental_type_info.o)
 .group         0x00000000        0x8 e:/elektronik/toolchain/yagarto/bin/../lib/gcc/arm-none-eabi/4.6.2/../../../../arm-none-eabi/lib/thumb/v7m\libstdc++.a(fundamental_type_info.o)
 .group         0x00000000        0x8 e:/elektronik/toolchain/yagarto/bin/../lib/gcc/arm-none-eabi/4.6.2/../../../../arm-none-eabi/lib/thumb/v7m\libstdc++.a(fundamental_type_info.o)
 .group         0x00000000        0x8 e:/elektronik/toolchain/yagarto/bin/../lib/gcc/arm-none-eabi/4.6.2/../../../../arm-none-eabi/lib/thumb/v7m\libstdc++.a(fundamental_type_info.o)
 .group         0x00000000        0x8 e:/elektronik/toolchain/yagarto/bin/../lib/gcc/arm-none-eabi/4.6.2/../../../../arm-none-eabi/lib/thumb/v7m\libstdc++.a(fundamental_type_info.o)
 .group         0x00000000        0x8 e:/elektronik/toolchain/yagarto/bin/../lib/gcc/arm-none-eabi/4.6.2/../../../../arm-none-eabi/lib/thumb/v7m\libstdc++.a(fundamental_type_info.o)
 .group         0x00000000        0x8 e:/elektronik/toolchain/yagarto/bin/../lib/gcc/arm-none-eabi/4.6.2/../../../../arm-none-eabi/lib/thumb/v7m\libstdc++.a(fundamental_type_info.o)
 .group         0x00000000        0x8 e:/elektronik/toolchain/yagarto/bin/../lib/gcc/arm-none-eabi/4.6.2/../../../../arm-none-eabi/lib/thumb/v7m\libstdc++.a(fundamental_type_info.o)
 .group         0x00000000        0x8 e:/elektronik/toolchain/yagarto/bin/../lib/gcc/arm-none-eabi/4.6.2/../../../../arm-none-eabi/lib/thumb/v7m\libstdc++.a(fundamental_type_info.o)
 .group         0x00000000        0x8 e:/elektronik/toolchain/yagarto/bin/../lib/gcc/arm-none-eabi/4.6.2/../../../../arm-none-eabi/lib/thumb/v7m\libstdc++.a(fundamental_type_info.o)
 .group         0x00000000        0x8 e:/elektronik/toolchain/yagarto/bin/../lib/gcc/arm-none-eabi/4.6.2/../../../../arm-none-eabi/lib/thumb/v7m\libstdc++.a(fundamental_type_info.o)
 .group         0x00000000        0x8 e:/elektronik/toolchain/yagarto/bin/../lib/gcc/arm-none-eabi/4.6.2/../../../../arm-none-eabi/lib/thumb/v7m\libstdc++.a(fundamental_type_info.o)
 .group         0x00000000        0x8 e:/elektronik/toolchain/yagarto/bin/../lib/gcc/arm-none-eabi/4.6.2/../../../../arm-none-eabi/lib/thumb/v7m\libstdc++.a(fundamental_type_info.o)
 .group         0x00000000        0x8 e:/elektronik/toolchain/yagarto/bin/../lib/gcc/arm-none-eabi/4.6.2/../../../../arm-none-eabi/lib/thumb/v7m\libstdc++.a(fundamental_type_info.o)
 .group         0x00000000        0x8 e:/elektronik/toolchain/yagarto/bin/../lib/gcc/arm-none-eabi/4.6.2/../../../../arm-none-eabi/lib/thumb/v7m\libstdc++.a(fundamental_type_info.o)
 .group         0x00000000        0x8 e:/elektronik/toolchain/yagarto/bin/../lib/gcc/arm-none-eabi/4.6.2/../../../../arm-none-eabi/lib/thumb/v7m\libstdc++.a(fundamental_type_info.o)
 .group         0x00000000        0x8 e:/elektronik/toolchain/yagarto/bin/../lib/gcc/arm-none-eabi/4.6.2/../../../../arm-none-eabi/lib/thumb/v7m\libstdc++.a(fundamental_type_info.o)
 .group         0x00000000        0x8 e:/elektronik/toolchain/yagarto/bin/../lib/gcc/arm-none-eabi/4.6.2/../../../../arm-none-eabi/lib/thumb/v7m\libstdc++.a(fundamental_type_info.o)
 .group         0x00000000        0x8 e:/elektronik/toolchain/yagarto/bin/../lib/gcc/arm-none-eabi/4.6.2/../../../../arm-none-eabi/lib/thumb/v7m\libstdc++.a(fundamental_type_info.o)
 .group         0x00000000        0x8 e:/elektronik/toolchain/yagarto/bin/../lib/gcc/arm-none-eabi/4.6.2/../../../../arm-none-eabi/lib/thumb/v7m\libstdc++.a(fundamental_type_info.o)
 .group         0x00000000        0x8 e:/elektronik/toolchain/yagarto/bin/../lib/gcc/arm-none-eabi/4.6.2/../../../../arm-none-eabi/lib/thumb/v7m\libstdc++.a(fundamental_type_info.o)
 .group         0x00000000        0x8 e:/elektronik/toolchain/yagarto/bin/../lib/gcc/arm-none-eabi/4.6.2/../../../../arm-none-eabi/lib/thumb/v7m\libstdc++.a(fundamental_type_info.o)
 .group         0x00000000        0x8 e:/elektronik/toolchain/yagarto/bin/../lib/gcc/arm-none-eabi/4.6.2/../../../../arm-none-eabi/lib/thumb/v7m\libstdc++.a(fundamental_type_info.o)
 .group         0x00000000        0x8 e:/elektronik/toolchain/yagarto/bin/../lib/gcc/arm-none-eabi/4.6.2/../../../../arm-none-eabi/lib/thumb/v7m\libstdc++.a(fundamental_type_info.o)
 .group         0x00000000        0x8 e:/elektronik/toolchain/yagarto/bin/../lib/gcc/arm-none-eabi/4.6.2/../../../../arm-none-eabi/lib/thumb/v7m\libstdc++.a(fundamental_type_info.o)
 .group         0x00000000        0x8 e:/elektronik/toolchain/yagarto/bin/../lib/gcc/arm-none-eabi/4.6.2/../../../../arm-none-eabi/lib/thumb/v7m\libstdc++.a(fundamental_type_info.o)
 .group         0x00000000        0x8 e:/elektronik/toolchain/yagarto/bin/../lib/gcc/arm-none-eabi/4.6.2/../../../../arm-none-eabi/lib/thumb/v7m\libstdc++.a(fundamental_type_info.o)
 .group         0x00000000        0x8 e:/elektronik/toolchain/yagarto/bin/../lib/gcc/arm-none-eabi/4.6.2/../../../../arm-none-eabi/lib/thumb/v7m\libstdc++.a(fundamental_type_info.o)
 .group         0x00000000        0x8 e:/elektronik/toolchain/yagarto/bin/../lib/gcc/arm-none-eabi/4.6.2/../../../../arm-none-eabi/lib/thumb/v7m\libstdc++.a(fundamental_type_info.o)
 .group         0x00000000        0x8 e:/elektronik/toolchain/yagarto/bin/../lib/gcc/arm-none-eabi/4.6.2/../../../../arm-none-eabi/lib/thumb/v7m\libstdc++.a(fundamental_type_info.o)
 .group         0x00000000        0x8 e:/elektronik/toolchain/yagarto/bin/../lib/gcc/arm-none-eabi/4.6.2/../../../../arm-none-eabi/lib/thumb/v7m\libstdc++.a(fundamental_type_info.o)
 .group         0x00000000        0x8 e:/elektronik/toolchain/yagarto/bin/../lib/gcc/arm-none-eabi/4.6.2/../../../../arm-none-eabi/lib/thumb/v7m\libstdc++.a(fundamental_type_info.o)
 .group         0x00000000        0x8 e:/elektronik/toolchain/yagarto/bin/../lib/gcc/arm-none-eabi/4.6.2/../../../../arm-none-eabi/lib/thumb/v7m\libstdc++.a(fundamental_type_info.o)
 .group         0x00000000        0x8 e:/elektronik/toolchain/yagarto/bin/../lib/gcc/arm-none-eabi/4.6.2/../../../../arm-none-eabi/lib/thumb/v7m\libstdc++.a(fundamental_type_info.o)
 .group         0x00000000        0x8 e:/elektronik/toolchain/yagarto/bin/../lib/gcc/arm-none-eabi/4.6.2/../../../../arm-none-eabi/lib/thumb/v7m\libstdc++.a(fundamental_type_info.o)
 .group         0x00000000        0x8 e:/elektronik/toolchain/yagarto/bin/../lib/gcc/arm-none-eabi/4.6.2/../../../../arm-none-eabi/lib/thumb/v7m\libstdc++.a(fundamental_type_info.o)
 .group         0x00000000        0x8 e:/elektronik/toolchain/yagarto/bin/../lib/gcc/arm-none-eabi/4.6.2/../../../../arm-none-eabi/lib/thumb/v7m\libstdc++.a(fundamental_type_info.o)
 .group         0x00000000        0x8 e:/elektronik/toolchain/yagarto/bin/../lib/gcc/arm-none-eabi/4.6.2/../../../../arm-none-eabi/lib/thumb/v7m\libstdc++.a(fundamental_type_info.o)
 .group         0x00000000        0x8 e:/elektronik/toolchain/yagarto/bin/../lib/gcc/arm-none-eabi/4.6.2/../../../../arm-none-eabi/lib/thumb/v7m\libstdc++.a(fundamental_type_info.o)
 .group         0x00000000        0x8 e:/elektronik/toolchain/yagarto/bin/../lib/gcc/arm-none-eabi/4.6.2/../../../../arm-none-eabi/lib/thumb/v7m\libstdc++.a(fundamental_type_info.o)
 .group         0x00000000        0x8 e:/elektronik/toolchain/yagarto/bin/../lib/gcc/arm-none-eabi/4.6.2/../../../../arm-none-eabi/lib/thumb/v7m\libstdc++.a(fundamental_type_info.o)
 .group         0x00000000        0x8 e:/elektronik/toolchain/yagarto/bin/../lib/gcc/arm-none-eabi/4.6.2/../../../../arm-none-eabi/lib/thumb/v7m\libstdc++.a(fundamental_type_info.o)
 .group         0x00000000        0x8 e:/elektronik/toolchain/yagarto/bin/../lib/gcc/arm-none-eabi/4.6.2/../../../../arm-none-eabi/lib/thumb/v7m\libstdc++.a(fundamental_type_info.o)
 .group         0x00000000        0x8 e:/elektronik/toolchain/yagarto/bin/../lib/gcc/arm-none-eabi/4.6.2/../../../../arm-none-eabi/lib/thumb/v7m\libstdc++.a(fundamental_type_info.o)
 .group         0x00000000        0x8 e:/elektronik/toolchain/yagarto/bin/../lib/gcc/arm-none-eabi/4.6.2/../../../../arm-none-eabi/lib/thumb/v7m\libstdc++.a(fundamental_type_info.o)
 .group         0x00000000        0x8 e:/elektronik/toolchain/yagarto/bin/../lib/gcc/arm-none-eabi/4.6.2/../../../../arm-none-eabi/lib/thumb/v7m\libstdc++.a(fundamental_type_info.o)
 .group         0x00000000        0x8 e:/elektronik/toolchain/yagarto/bin/../lib/gcc/arm-none-eabi/4.6.2/../../../../arm-none-eabi/lib/thumb/v7m\libstdc++.a(fundamental_type_info.o)
 .group         0x00000000        0x8 e:/elektronik/toolchain/yagarto/bin/../lib/gcc/arm-none-eabi/4.6.2/../../../../arm-none-eabi/lib/thumb/v7m\libstdc++.a(fundamental_type_info.o)
 .group         0x00000000        0x8 e:/elektronik/toolchain/yagarto/bin/../lib/gcc/arm-none-eabi/4.6.2/../../../../arm-none-eabi/lib/thumb/v7m\libstdc++.a(fundamental_type_info.o)
 .group         0x00000000        0x8 e:/elektronik/toolchain/yagarto/bin/../lib/gcc/arm-none-eabi/4.6.2/../../../../arm-none-eabi/lib/thumb/v7m\libstdc++.a(fundamental_type_info.o)
 .group         0x00000000        0x8 e:/elektronik/toolchain/yagarto/bin/../lib/gcc/arm-none-eabi/4.6.2/../../../../arm-none-eabi/lib/thumb/v7m\libstdc++.a(fundamental_type_info.o)
 .group         0x00000000        0x8 e:/elektronik/toolchain/yagarto/bin/../lib/gcc/arm-none-eabi/4.6.2/../../../../arm-none-eabi/lib/thumb/v7m\libstdc++.a(fundamental_type_info.o)
 .group         0x00000000        0x8 e:/elektronik/toolchain/yagarto/bin/../lib/gcc/arm-none-eabi/4.6.2/../../../../arm-none-eabi/lib/thumb/v7m\libstdc++.a(fundamental_type_info.o)
 .group         0x00000000        0x8 e:/elektronik/toolchain/yagarto/bin/../lib/gcc/arm-none-eabi/4.6.2/../../../../arm-none-eabi/lib/thumb/v7m\libstdc++.a(fundamental_type_info.o)
 .group         0x00000000        0x8 e:/elektronik/toolchain/yagarto/bin/../lib/gcc/arm-none-eabi/4.6.2/../../../../arm-none-eabi/lib/thumb/v7m\libstdc++.a(fundamental_type_info.o)
 .group         0x00000000        0x8 e:/elektronik/toolchain/yagarto/bin/../lib/gcc/arm-none-eabi/4.6.2/../../../../arm-none-eabi/lib/thumb/v7m\libstdc++.a(fundamental_type_info.o)
 .group         0x00000000        0x8 e:/elektronik/toolchain/yagarto/bin/../lib/gcc/arm-none-eabi/4.6.2/../../../../arm-none-eabi/lib/thumb/v7m\libstdc++.a(fundamental_type_info.o)
 .group         0x00000000        0x8 e:/elektronik/toolchain/yagarto/bin/../lib/gcc/arm-none-eabi/4.6.2/../../../../arm-none-eabi/lib/thumb/v7m\libstdc++.a(fundamental_type_info.o)
 .group         0x00000000        0x8 e:/elektronik/toolchain/yagarto/bin/../lib/gcc/arm-none-eabi/4.6.2/../../../../arm-none-eabi/lib/thumb/v7m\libstdc++.a(fundamental_type_info.o)
 .group         0x00000000        0x8 e:/elektronik/toolchain/yagarto/bin/../lib/gcc/arm-none-eabi/4.6.2/../../../../arm-none-eabi/lib/thumb/v7m\libstdc++.a(fundamental_type_info.o)
 .group         0x00000000        0x8 e:/elektronik/toolchain/yagarto/bin/../lib/gcc/arm-none-eabi/4.6.2/../../../../arm-none-eabi/lib/thumb/v7m\libstdc++.a(fundamental_type_info.o)
 .group         0x00000000        0x8 e:/elektronik/toolchain/yagarto/bin/../lib/gcc/arm-none-eabi/4.6.2/../../../../arm-none-eabi/lib/thumb/v7m\libstdc++.a(fundamental_type_info.o)
 .group         0x00000000        0x8 e:/elektronik/toolchain/yagarto/bin/../lib/gcc/arm-none-eabi/4.6.2/../../../../arm-none-eabi/lib/thumb/v7m\libstdc++.a(fundamental_type_info.o)
 .group         0x00000000        0x8 e:/elektronik/toolchain/yagarto/bin/../lib/gcc/arm-none-eabi/4.6.2/../../../../arm-none-eabi/lib/thumb/v7m\libstdc++.a(fundamental_type_info.o)
 .group         0x00000000        0x8 e:/elektronik/toolchain/yagarto/bin/../lib/gcc/arm-none-eabi/4.6.2/../../../../arm-none-eabi/lib/thumb/v7m\libstdc++.a(fundamental_type_info.o)
 .group         0x00000000        0x8 e:/elektronik/toolchain/yagarto/bin/../lib/gcc/arm-none-eabi/4.6.2/../../../../arm-none-eabi/lib/thumb/v7m\libstdc++.a(fundamental_type_info.o)
 .group         0x00000000        0x8 e:/elektronik/toolchain/yagarto/bin/../lib/gcc/arm-none-eabi/4.6.2/../../../../arm-none-eabi/lib/thumb/v7m\libstdc++.a(fundamental_type_info.o)
 .group         0x00000000        0x8 e:/elektronik/toolchain/yagarto/bin/../lib/gcc/arm-none-eabi/4.6.2/../../../../arm-none-eabi/lib/thumb/v7m\libstdc++.a(fundamental_type_info.o)
 .group         0x00000000        0x8 e:/elektronik/toolchain/yagarto/bin/../lib/gcc/arm-none-eabi/4.6.2/../../../../arm-none-eabi/lib/thumb/v7m\libstdc++.a(fundamental_type_info.o)
 .group         0x00000000        0x8 e:/elektronik/toolchain/yagarto/bin/../lib/gcc/arm-none-eabi/4.6.2/../../../../arm-none-eabi/lib/thumb/v7m\libstdc++.a(fundamental_type_info.o)
 .group         0x00000000        0x8 e:/elektronik/toolchain/yagarto/bin/../lib/gcc/arm-none-eabi/4.6.2/../../../../arm-none-eabi/lib/thumb/v7m\libstdc++.a(fundamental_type_info.o)
 .group         0x00000000        0x8 e:/elektronik/toolchain/yagarto/bin/../lib/gcc/arm-none-eabi/4.6.2/../../../../arm-none-eabi/lib/thumb/v7m\libstdc++.a(fundamental_type_info.o)
 .group         0x00000000        0x8 e:/elektronik/toolchain/yagarto/bin/../lib/gcc/arm-none-eabi/4.6.2/../../../../arm-none-eabi/lib/thumb/v7m\libstdc++.a(fundamental_type_info.o)
 .group         0x00000000        0x8 e:/elektronik/toolchain/yagarto/bin/../lib/gcc/arm-none-eabi/4.6.2/../../../../arm-none-eabi/lib/thumb/v7m\libstdc++.a(fundamental_type_info.o)
 .group         0x00000000        0x8 e:/elektronik/toolchain/yagarto/bin/../lib/gcc/arm-none-eabi/4.6.2/../../../../arm-none-eabi/lib/thumb/v7m\libstdc++.a(fundamental_type_info.o)
 .group         0x00000000        0x8 e:/elektronik/toolchain/yagarto/bin/../lib/gcc/arm-none-eabi/4.6.2/../../../../arm-none-eabi/lib/thumb/v7m\libstdc++.a(fundamental_type_info.o)
 .group         0x00000000        0x8 e:/elektronik/toolchain/yagarto/bin/../lib/gcc/arm-none-eabi/4.6.2/../../../../arm-none-eabi/lib/thumb/v7m\libstdc++.a(fundamental_type_info.o)
 .group         0x00000000        0x8 e:/elektronik/toolchain/yagarto/bin/../lib/gcc/arm-none-eabi/4.6.2/../../../../arm-none-eabi/lib/thumb/v7m\libstdc++.a(fundamental_type_info.o)
 .group         0x00000000        0x8 e:/elektronik/toolchain/yagarto/bin/../lib/gcc/arm-none-eabi/4.6.2/../../../../arm-none-eabi/lib/thumb/v7m\libstdc++.a(fundamental_type_info.o)
 .group         0x00000000        0x8 e:/elektronik/toolchain/yagarto/bin/../lib/gcc/arm-none-eabi/4.6.2/../../../../arm-none-eabi/lib/thumb/v7m\libstdc++.a(fundamental_type_info.o)
 .group         0x00000000        0x8 e:/elektronik/toolchain/yagarto/bin/../lib/gcc/arm-none-eabi/4.6.2/../../../../arm-none-eabi/lib/thumb/v7m\libstdc++.a(fundamental_type_info.o)
 .group         0x00000000        0x8 e:/elektronik/toolchain/yagarto/bin/../lib/gcc/arm-none-eabi/4.6.2/../../../../arm-none-eabi/lib/thumb/v7m\libstdc++.a(fundamental_type_info.o)
 .group         0x00000000        0x8 e:/elektronik/toolchain/yagarto/bin/../lib/gcc/arm-none-eabi/4.6.2/../../../../arm-none-eabi/lib/thumb/v7m\libstdc++.a(fundamental_type_info.o)
 .group         0x00000000        0x8 e:/elektronik/toolchain/yagarto/bin/../lib/gcc/arm-none-eabi/4.6.2/../../../../arm-none-eabi/lib/thumb/v7m\libstdc++.a(fundamental_type_info.o)
 .group         0x00000000        0x8 e:/elektronik/toolchain/yagarto/bin/../lib/gcc/arm-none-eabi/4.6.2/../../../../arm-none-eabi/lib/thumb/v7m\libstdc++.a(fundamental_type_info.o)
 .group         0x00000000        0x8 e:/elektronik/toolchain/yagarto/bin/../lib/gcc/arm-none-eabi/4.6.2/../../../../arm-none-eabi/lib/thumb/v7m\libstdc++.a(fundamental_type_info.o)
 .group         0x00000000        0x8 e:/elektronik/toolchain/yagarto/bin/../lib/gcc/arm-none-eabi/4.6.2/../../../../arm-none-eabi/lib/thumb/v7m\libstdc++.a(fundamental_type_info.o)
 .group         0x00000000        0x8 e:/elektronik/toolchain/yagarto/bin/../lib/gcc/arm-none-eabi/4.6.2/../../../../arm-none-eabi/lib/thumb/v7m\libstdc++.a(fundamental_type_info.o)
 .group         0x00000000        0x8 e:/elektronik/toolchain/yagarto/bin/../lib/gcc/arm-none-eabi/4.6.2/../../../../arm-none-eabi/lib/thumb/v7m\libstdc++.a(fundamental_type_info.o)
 .group         0x00000000        0x8 e:/elektronik/toolchain/yagarto/bin/../lib/gcc/arm-none-eabi/4.6.2/../../../../arm-none-eabi/lib/thumb/v7m\libstdc++.a(fundamental_type_info.o)
 .group         0x00000000        0x8 e:/elektronik/toolchain/yagarto/bin/../lib/gcc/arm-none-eabi/4.6.2/../../../../arm-none-eabi/lib/thumb/v7m\libstdc++.a(fundamental_type_info.o)
 .group         0x00000000        0x8 e:/elektronik/toolchain/yagarto/bin/../lib/gcc/arm-none-eabi/4.6.2/../../../../arm-none-eabi/lib/thumb/v7m\libstdc++.a(fundamental_type_info.o)
 .group         0x00000000        0x8 e:/elektronik/toolchain/yagarto/bin/../lib/gcc/arm-none-eabi/4.6.2/../../../../arm-none-eabi/lib/thumb/v7m\libstdc++.a(fundamental_type_info.o)
 .group         0x00000000        0x8 e:/elektronik/toolchain/yagarto/bin/../lib/gcc/arm-none-eabi/4.6.2/../../../../arm-none-eabi/lib/thumb/v7m\libstdc++.a(fundamental_type_info.o)
 .group         0x00000000        0x8 e:/elektronik/toolchain/yagarto/bin/../lib/gcc/arm-none-eabi/4.6.2/../../../../arm-none-eabi/lib/thumb/v7m\libstdc++.a(fundamental_type_info.o)
 .group         0x00000000        0x8 e:/elektronik/toolchain/yagarto/bin/../lib/gcc/arm-none-eabi/4.6.2/../../../../arm-none-eabi/lib/thumb/v7m\libstdc++.a(fundamental_type_info.o)
 .group         0x00000000        0x8 e:/elektronik/toolchain/yagarto/bin/../lib/gcc/arm-none-eabi/4.6.2/../../../../arm-none-eabi/lib/thumb/v7m\libstdc++.a(fundamental_type_info.o)
 .group         0x00000000        0x8 e:/elektronik/toolchain/yagarto/bin/../lib/gcc/arm-none-eabi/4.6.2/../../../../arm-none-eabi/lib/thumb/v7m\libstdc++.a(fundamental_type_info.o)
 .group         0x00000000        0x8 e:/elektronik/toolchain/yagarto/bin/../lib/gcc/arm-none-eabi/4.6.2/../../../../arm-none-eabi/lib/thumb/v7m\libstdc++.a(fundamental_type_info.o)
 .group         0x00000000        0x8 e:/elektronik/toolchain/yagarto/bin/../lib/gcc/arm-none-eabi/4.6.2/../../../../arm-none-eabi/lib/thumb/v7m\libstdc++.a(fundamental_type_info.o)
 .group         0x00000000        0x8 e:/elektronik/toolchain/yagarto/bin/../lib/gcc/arm-none-eabi/4.6.2/../../../../arm-none-eabi/lib/thumb/v7m\libstdc++.a(fundamental_type_info.o)
 .group         0x00000000        0x8 e:/elektronik/toolchain/yagarto/bin/../lib/gcc/arm-none-eabi/4.6.2/../../../../arm-none-eabi/lib/thumb/v7m\libstdc++.a(fundamental_type_info.o)
 .group         0x00000000        0x8 e:/elektronik/toolchain/yagarto/bin/../lib/gcc/arm-none-eabi/4.6.2/../../../../arm-none-eabi/lib/thumb/v7m\libstdc++.a(fundamental_type_info.o)
 .group         0x00000000        0x8 e:/elektronik/toolchain/yagarto/bin/../lib/gcc/arm-none-eabi/4.6.2/../../../../arm-none-eabi/lib/thumb/v7m\libstdc++.a(fundamental_type_info.o)
 .group         0x00000000        0x8 e:/elektronik/toolchain/yagarto/bin/../lib/gcc/arm-none-eabi/4.6.2/../../../../arm-none-eabi/lib/thumb/v7m\libstdc++.a(fundamental_type_info.o)
 .group         0x00000000        0x8 e:/elektronik/toolchain/yagarto/bin/../lib/gcc/arm-none-eabi/4.6.2/../../../../arm-none-eabi/lib/thumb/v7m\libstdc++.a(fundamental_type_info.o)
 .group         0x00000000        0x8 e:/elektronik/toolchain/yagarto/bin/../lib/gcc/arm-none-eabi/4.6.2/../../../../arm-none-eabi/lib/thumb/v7m\libstdc++.a(fundamental_type_info.o)
 .group         0x00000000        0x8 e:/elektronik/toolchain/yagarto/bin/../lib/gcc/arm-none-eabi/4.6.2/../../../../arm-none-eabi/lib/thumb/v7m\libstdc++.a(fundamental_type_info.o)
 .group         0x00000000        0x8 e:/elektronik/toolchain/yagarto/bin/../lib/gcc/arm-none-eabi/4.6.2/../../../../arm-none-eabi/lib/thumb/v7m\libstdc++.a(fundamental_type_info.o)
 .group         0x00000000        0x8 e:/elektronik/toolchain/yagarto/bin/../lib/gcc/arm-none-eabi/4.6.2/../../../../arm-none-eabi/lib/thumb/v7m\libstdc++.a(fundamental_type_info.o)
 .group         0x00000000        0x8 e:/elektronik/toolchain/yagarto/bin/../lib/gcc/arm-none-eabi/4.6.2/../../../../arm-none-eabi/lib/thumb/v7m\libstdc++.a(fundamental_type_info.o)
 .group         0x00000000        0x8 e:/elektronik/toolchain/yagarto/bin/../lib/gcc/arm-none-eabi/4.6.2/../../../../arm-none-eabi/lib/thumb/v7m\libstdc++.a(fundamental_type_info.o)
 .group         0x00000000        0x8 e:/elektronik/toolchain/yagarto/bin/../lib/gcc/arm-none-eabi/4.6.2/../../../../arm-none-eabi/lib/thumb/v7m\libstdc++.a(fundamental_type_info.o)
 .group         0x00000000        0x8 e:/elektronik/toolchain/yagarto/bin/../lib/gcc/arm-none-eabi/4.6.2/../../../../arm-none-eabi/lib/thumb/v7m\libstdc++.a(fundamental_type_info.o)
 .group         0x00000000        0x8 e:/elektronik/toolchain/yagarto/bin/../lib/gcc/arm-none-eabi/4.6.2/../../../../arm-none-eabi/lib/thumb/v7m\libstdc++.a(fundamental_type_info.o)
 .group         0x00000000        0x8 e:/elektronik/toolchain/yagarto/bin/../lib/gcc/arm-none-eabi/4.6.2/../../../../arm-none-eabi/lib/thumb/v7m\libstdc++.a(fundamental_type_info.o)
 .group         0x00000000        0x8 e:/elektronik/toolchain/yagarto/bin/../lib/gcc/arm-none-eabi/4.6.2/../../../../arm-none-eabi/lib/thumb/v7m\libstdc++.a(fundamental_type_info.o)
 .group         0x00000000        0x8 e:/elektronik/toolchain/yagarto/bin/../lib/gcc/arm-none-eabi/4.6.2/../../../../arm-none-eabi/lib/thumb/v7m\libstdc++.a(fundamental_type_info.o)
 .group         0x00000000        0x8 e:/elektronik/toolchain/yagarto/bin/../lib/gcc/arm-none-eabi/4.6.2/../../../../arm-none-eabi/lib/thumb/v7m\libstdc++.a(fundamental_type_info.o)
 .group         0x00000000        0x8 e:/elektronik/toolchain/yagarto/bin/../lib/gcc/arm-none-eabi/4.6.2/../../../../arm-none-eabi/lib/thumb/v7m\libstdc++.a(fundamental_type_info.o)
 .group         0x00000000        0x8 e:/elektronik/toolchain/yagarto/bin/../lib/gcc/arm-none-eabi/4.6.2/../../../../arm-none-eabi/lib/thumb/v7m\libstdc++.a(fundamental_type_info.o)
 .group         0x00000000        0x8 e:/elektronik/toolchain/yagarto/bin/../lib/gcc/arm-none-eabi/4.6.2/../../../../arm-none-eabi/lib/thumb/v7m\libstdc++.a(fundamental_type_info.o)
 .group         0x00000000        0x8 e:/elektronik/toolchain/yagarto/bin/../lib/gcc/arm-none-eabi/4.6.2/../../../../arm-none-eabi/lib/thumb/v7m\libstdc++.a(fundamental_type_info.o)
 .group         0x00000000        0x8 e:/elektronik/toolchain/yagarto/bin/../lib/gcc/arm-none-eabi/4.6.2/../../../../arm-none-eabi/lib/thumb/v7m\libstdc++.a(fundamental_type_info.o)
 .group         0x00000000        0x8 e:/elektronik/toolchain/yagarto/bin/../lib/gcc/arm-none-eabi/4.6.2/../../../../arm-none-eabi/lib/thumb/v7m\libstdc++.a(fundamental_type_info.o)
 .group         0x00000000       0x10 e:/elektronik/toolchain/yagarto/bin/../lib/gcc/arm-none-eabi/4.6.2/../../../../arm-none-eabi/lib/thumb/v7m\libstdc++.a(pbase_type_info.o)

Memory Configuration

Name             Origin             Length             Attributes
FLASH            0x08000000         0x00100000         xr
RAM              0x20000000         0x00020000         xrw
MEMORY_B1        0x60000000         0x00000000         xr
*default*        0x00000000         0xffffffff

Linker script and memory map

LOAD e:/elektronik/toolchain/yagarto/bin/../lib/gcc/arm-none-eabi/4.6.2/thumb/v7m/crti.o
LOAD e:/elektronik/toolchain/yagarto/bin/../lib/gcc/arm-none-eabi/4.6.2/thumb/v7m/crtbegin.o
LOAD e:/elektronik/toolchain/yagarto/bin/../lib/gcc/arm-none-eabi/4.6.2/../../../../arm-none-eabi/lib/thumb/v7m/crt0.o
LOAD ./STM32F4xx_StdPeriph_Driver/src/misc.o
LOAD ./STM32F4xx_StdPeriph_Driver/src/stm32f4xx_adc.o
LOAD ./STM32F4xx_StdPeriph_Driver/src/stm32f4xx_can.o
LOAD ./STM32F4xx_StdPeriph_Driver/src/stm32f4xx_crc.o
LOAD ./STM32F4xx_StdPeriph_Driver/src/stm32f4xx_cryp.o
LOAD ./STM32F4xx_StdPeriph_Driver/src/stm32f4xx_cryp_aes.o
LOAD ./STM32F4xx_StdPeriph_Driver/src/stm32f4xx_cryp_des.o
LOAD ./STM32F4xx_StdPeriph_Driver/src/stm32f4xx_cryp_tdes.o
LOAD ./STM32F4xx_StdPeriph_Driver/src/stm32f4xx_dac.o
LOAD ./STM32F4xx_StdPeriph_Driver/src/stm32f4xx_dbgmcu.o
LOAD ./STM32F4xx_StdPeriph_Driver/src/stm32f4xx_dcmi.o
LOAD ./STM32F4xx_StdPeriph_Driver/src/stm32f4xx_dma.o
LOAD ./STM32F4xx_StdPeriph_Driver/src/stm32f4xx_exti.o
LOAD ./STM32F4xx_StdPeriph_Driver/src/stm32f4xx_flash.o
LOAD ./STM32F4xx_StdPeriph_Driver/src/stm32f4xx_fsmc.o
LOAD ./STM32F4xx_StdPeriph_Driver/src/stm32f4xx_gpio.o
LOAD ./STM32F4xx_StdPeriph_Driver/src/stm32f4xx_hash.o
LOAD ./STM32F4xx_StdPeriph_Driver/src/stm32f4xx_hash_md5.o
LOAD ./STM32F4xx_StdPeriph_Driver/src/stm32f4xx_hash_sha1.o
LOAD ./STM32F4xx_StdPeriph_Driver/src/stm32f4xx_i2c.o
LOAD ./STM32F4xx_StdPeriph_Driver/src/stm32f4xx_iwdg.o
LOAD ./STM32F4xx_StdPeriph_Driver/src/stm32f4xx_pwr.o
LOAD ./STM32F4xx_StdPeriph_Driver/src/stm32f4xx_rcc.o
LOAD ./STM32F4xx_StdPeriph_Driver/src/stm32f4xx_rng.o
LOAD ./STM32F4xx_StdPeriph_Driver/src/stm32f4xx_rtc.o
LOAD ./STM32F4xx_StdPeriph_Driver/src/stm32f4xx_sdio.o
LOAD ./STM32F4xx_StdPeriph_Driver/src/stm32f4xx_spi.o
LOAD ./STM32F4xx_StdPeriph_Driver/src/stm32f4xx_syscfg.o
LOAD ./STM32F4xx_StdPeriph_Driver/src/stm32f4xx_tim.o
LOAD ./STM32F4xx_StdPeriph_Driver/src/stm32f4xx_usart.o
LOAD ./STM32F4xx_StdPeriph_Driver/src/stm32f4xx_wwdg.o
LOAD ./STM32F4-Discovery/stm32f4_discovery.o
LOAD ./STM32F4-Discovery/stm32f4_discovery_audio_codec.o
LOAD ./STM32F4-Discovery/stm32f4_discovery_lis302dl.o
LOAD ./Menue/CMenue.o
LOAD ./GraphicLCD/CGraphicLCD.o
LOAD ./GraphicLCD/CT6963CDriver.o
LOAD ./GraphicLCD/CT6963GPIOInterface.o
LOAD ./GraphicLCD/SansSerif12.o
LOAD ./FreeRTOS_EC/Source/AManagedTask.o
LOAD ./FreeRTOS_EC/Source/ASyncObject.o
LOAD ./FreeRTOS_EC/Source/ATimer.o
LOAD ./FreeRTOS_EC/Source/CBinarySemaphore.o
LOAD ./FreeRTOS_EC/Source/CCountingSemaphore.o
LOAD ./FreeRTOS_EC/Source/CFreeRTOS.o
LOAD ./FreeRTOS_EC/Source/CMessageTask.o
LOAD ./FreeRTOS_EC/Source/CMutex.o
LOAD ./FreeRTOS_EC/Source/CQueue.o
LOAD ./FreeRTOS_EC/Source/CRecursiveMutex.o
LOAD ./FreeRTOS_EC/Source/CTask.o
LOAD ./FreeRTOS/Source/portable/GCC/ARM_CM4F/port.o
LOAD ./FreeRTOS/Source/croutine.o
LOAD ./FreeRTOS/Source/list.o
LOAD ./FreeRTOS/Source/queue.o
LOAD ./FreeRTOS/Source/tasks.o
LOAD ./FreeRTOS/Source/timers.o
LOAD ./CLedHeartBeatSTM32F4Disc.o
LOAD ./main.o
LOAD ./startup_stm32f4xx.o
LOAD ./stm32f4xx_it.o
LOAD ./syscalls.o
LOAD ./system_stm32f4xx.o
LOAD ./ustime.o
LOAD e:/elektronik/toolchain/yagarto/bin/../lib/gcc/arm-none-eabi/4.6.2/../../../../arm-none-eabi/lib/thumb/v7m\libstdc++.a
LOAD e:/elektronik/toolchain/yagarto/bin/../lib/gcc/arm-none-eabi/4.6.2/../../../../arm-none-eabi/lib/thumb/v7m\libm.a
START GROUP
LOAD e:/elektronik/toolchain/yagarto/bin/../lib/gcc/arm-none-eabi/4.6.2/thumb/v7m\libgcc.a
LOAD e:/elektronik/toolchain/yagarto/bin/../lib/gcc/arm-none-eabi/4.6.2/../../../../arm-none-eabi/lib/thumb/v7m\libg.a
LOAD e:/elektronik/toolchain/yagarto/bin/../lib/gcc/arm-none-eabi/4.6.2/../../../../arm-none-eabi/lib/thumb/v7m\libc.a
END GROUP
LOAD e:/elektronik/toolchain/yagarto/bin/../lib/gcc/arm-none-eabi/4.6.2/thumb/v7m/crtend.o
LOAD e:/elektronik/toolchain/yagarto/bin/../lib/gcc/arm-none-eabi/4.6.2/thumb/v7m/crtn.o
                0x20020000                _estack = 0x20020000
                0x00000000                _Min_Heap_Size = 0x0
                0x00000400                _Min_Stack_Size = 0x400

.isr_vector     0x08000000      0x188
                0x08000000                . = ALIGN (0x4)
 *(.isr_vector)
 .isr_vector    0x08000000      0x188 ./startup_stm32f4xx.o
                0x08000000                g_pfnVectors
                0x08000188                . = ALIGN (0x4)

.text           0x08000188    0x28b58
                0x08000188                . = ALIGN (0x4)
 *(.text)
 .text          0x08000188        0x0 e:/elektronik/toolchain/yagarto/bin/../lib/gcc/arm-none-eabi/4.6.2/thumb/v7m/crti.o
 .text          0x08000188       0x54 e:/elektronik/toolchain/yagarto/bin/../lib/gcc/arm-none-eabi/4.6.2/thumb/v7m/crtbegin.o
 .text          0x080001dc       0x70 e:/elektronik/toolchain/yagarto/bin/../lib/gcc/arm-none-eabi/4.6.2/../../../../arm-none-eabi/lib/thumb/v7m/crt0.o
                0x080001dc                _start
                0x080001dc                start
                0x080001dc                _mainCRTStartup
 .text          0x0800024c        0x0 ./STM32F4xx_StdPeriph_Driver/src/misc.o
 .text          0x0800024c        0x0 ./STM32F4xx_StdPeriph_Driver/src/stm32f4xx_adc.o
 .text          0x0800024c        0x0 ./STM32F4xx_StdPeriph_Driver/src/stm32f4xx_can.o
 .text          0x0800024c        0x0 ./STM32F4xx_StdPeriph_Driver/src/stm32f4xx_crc.o
 .text          0x0800024c        0x0 ./STM32F4xx_StdPeriph_Driver/src/stm32f4xx_cryp.o
 .text          0x0800024c        0x0 ./STM32F4xx_StdPeriph_Driver/src/stm32f4xx_cryp_aes.o
 .text          0x0800024c        0x0 ./STM32F4xx_StdPeriph_Driver/src/stm32f4xx_cryp_des.o
 .text          0x0800024c        0x0 ./STM32F4xx_StdPeriph_Driver/src/stm32f4xx_cryp_tdes.o
 .text          0x0800024c        0x0 ./STM32F4xx_StdPeriph_Driver/src/stm32f4xx_dac.o
 .text          0x0800024c        0x0 ./STM32F4xx_StdPeriph_Driver/src/stm32f4xx_dbgmcu.o
 .text          0x0800024c        0x0 ./STM32F4xx_StdPeriph_Driver/src/stm32f4xx_dcmi.o
 .text          0x0800024c        0x0 ./STM32F4xx_StdPeriph_Driver/src/stm32f4xx_dma.o
 .text          0x0800024c        0x0 ./STM32F4xx_StdPeriph_Driver/src/stm32f4xx_exti.o
 .text          0x0800024c        0x0 ./STM32F4xx_StdPeriph_Driver/src/stm32f4xx_flash.o
 .text          0x0800024c        0x0 ./STM32F4xx_StdPeriph_Driver/src/stm32f4xx_fsmc.o
 .text          0x0800024c        0x0 ./STM32F4xx_StdPeriph_Driver/src/stm32f4xx_gpio.o
 .text          0x0800024c        0x0 ./STM32F4xx_StdPeriph_Driver/src/stm32f4xx_hash.o
 .text          0x0800024c        0x0 ./STM32F4xx_StdPeriph_Driver/src/stm32f4xx_hash_md5.o
 .text          0x0800024c        0x0 ./STM32F4xx_StdPeriph_Driver/src/stm32f4xx_hash_sha1.o
 .text          0x0800024c        0x0 ./STM32F4xx_StdPeriph_Driver/src/stm32f4xx_i2c.o
 .text          0x0800024c        0x0 ./STM32F4xx_StdPeriph_Driver/src/stm32f4xx_iwdg.o
 .text          0x0800024c        0x0 ./STM32F4xx_StdPeriph_Driver/src/stm32f4xx_pwr.o
 .text          0x0800024c        0x0 ./STM32F4xx_StdPeriph_Driver/src/stm32f4xx_rcc.o
 .text          0x0800024c        0x0 ./STM32F4xx_StdPeriph_Driver/src/stm32f4xx_rng.o
 .text          0x0800024c        0x0 ./STM32F4xx_StdPeriph_Driver/src/stm32f4xx_rtc.o
 .text          0x0800024c        0x0 ./STM32F4xx_StdPeriph_Driver/src/stm32f4xx_sdio.o
 .text          0x0800024c        0x0 ./STM32F4xx_StdPeriph_Driver/src/stm32f4xx_spi.o
 .text          0x0800024c        0x0 ./STM32F4xx_StdPeriph_Driver/src/stm32f4xx_syscfg.o
 .text          0x0800024c        0x0 ./STM32F4xx_StdPeriph_Driver/src/stm32f4xx_tim.o
 .text          0x0800024c        0x0 ./STM32F4xx_StdPeriph_Driver/src/stm32f4xx_usart.o
 .text          0x0800024c        0x0 ./STM32F4xx_StdPeriph_Driver/src/stm32f4xx_wwdg.o
 .text          0x0800024c        0x0 ./STM32F4-Discovery/stm32f4_discovery.o
 .text          0x0800024c        0x0 ./STM32F4-Discovery/stm32f4_discovery_audio_codec.o
 .text          0x0800024c        0x0 ./STM32F4-Discovery/stm32f4_discovery_lis302dl.o
 .text          0x0800024c        0x0 ./Menue/CMenue.o
 .text          0x0800024c        0x0 ./GraphicLCD/CGraphicLCD.o
 .text          0x0800024c        0x0 ./GraphicLCD/CT6963CDriver.o
 .text          0x0800024c        0x0 ./GraphicLCD/CT6963GPIOInterface.o
 .text          0x0800024c        0x0 ./GraphicLCD/SansSerif12.o
 .text          0x0800024c        0x0 ./FreeRTOS_EC/Source/AManagedTask.o
 .text          0x0800024c        0x0 ./FreeRTOS_EC/Source/ASyncObject.o
 .text          0x0800024c        0x0 ./FreeRTOS_EC/Source/ATimer.o
 .text          0x0800024c        0x0 ./FreeRTOS_EC/Source/CBinarySemaphore.o
 .text          0x0800024c        0x0 ./FreeRTOS_EC/Source/CCountingSemaphore.o
 .text          0x0800024c        0x0 ./FreeRTOS_EC/Source/CFreeRTOS.o
 .text          0x0800024c        0x0 ./FreeRTOS_EC/Source/CMessageTask.o
 .text          0x0800024c        0x0 ./FreeRTOS_EC/Source/CMutex.o
 .text          0x0800024c        0x0 ./FreeRTOS_EC/Source/CQueue.o
 .text          0x0800024c        0x0 ./FreeRTOS_EC/Source/CRecursiveMutex.o
 .text          0x0800024c        0x0 ./FreeRTOS_EC/Source/CTask.o
 .text          0x0800024c        0x0 ./FreeRTOS/Source/portable/GCC/ARM_CM4F/port.o
 .text          0x0800024c        0x0 ./FreeRTOS/Source/croutine.o
 .text          0x0800024c        0x0 ./FreeRTOS/Source/list.o
 .text          0x0800024c        0x0 ./FreeRTOS/Source/queue.o
 .text          0x0800024c        0x0 ./FreeRTOS/Source/tasks.o
 .text          0x0800024c        0x0 ./FreeRTOS/Source/timers.o
 .text          0x0800024c        0x0 ./CLedHeartBeatSTM32F4Disc.o
 .text          0x0800024c        0x0 ./main.o
 .text          0x0800024c       0x14 ./startup_stm32f4xx.o
 .text          0x08000260        0x0 ./stm32f4xx_it.o
 .text          0x08000260        0x0 ./syscalls.o
 .text          0x08000260        0x0 ./system_stm32f4xx.o
 .text          0x08000260        0x0 ./ustime.o
 .text          0x08000260        0x0 e:/elektronik/toolchain/yagarto/bin/../lib/gcc/arm-none-eabi/4.6.2/../../../../arm-none-eabi/lib/thumb/v7m\libstdc++.a(atexit_arm.o)
 .text          0x08000260        0x0 e:/elektronik/toolchain/yagarto/bin/../lib/gcc/arm-none-eabi/4.6.2/../../../../arm-none-eabi/lib/thumb/v7m\libstdc++.a(del_op.o)
 .text          0x08000260        0x0 e:/elektronik/toolchain/yagarto/bin/../lib/gcc/arm-none-eabi/4.6.2/../../../../arm-none-eabi/lib/thumb/v7m\libstdc++.a(pure.o)
 .text          0x08000260        0x0 e:/elektronik/toolchain/yagarto/bin/../lib/gcc/arm-none-eabi/4.6.2/../../../../arm-none-eabi/lib/thumb/v7m\libstdc++.a(eh_terminate.o)
 .text          0x08000260        0x0 e:/elektronik/toolchain/yagarto/bin/../lib/gcc/arm-none-eabi/4.6.2/../../../../arm-none-eabi/lib/thumb/v7m\libstdc++.a(eh_term_handler.o)
 .text          0x08000260        0x0 e:/elektronik/toolchain/yagarto/bin/../lib/gcc/arm-none-eabi/4.6.2/../../../../arm-none-eabi/lib/thumb/v7m\libstdc++.a(eh_unex_handler.o)
 .text          0x08000260        0x0 e:/elektronik/toolchain/yagarto/bin/../lib/gcc/arm-none-eabi/4.6.2/../../../../arm-none-eabi/lib/thumb/v7m\libstdc++.a(vterminate.o)
 .text          0x08000260     0x58f8 e:/elektronik/toolchain/yagarto/bin/../lib/gcc/arm-none-eabi/4.6.2/../../../../arm-none-eabi/lib/thumb/v7m\libstdc++.a(cp-demangle.o)
                0x08005a28                __cxa_demangle
                0x08005b0c                __gcclibcxx_demangle_callback
 .text          0x08005b58        0x0 e:/elektronik/toolchain/yagarto/bin/../lib/gcc/arm-none-eabi/4.6.2/../../../../arm-none-eabi/lib/thumb/v7m\libstdc++.a(eh_arm.o)
 .text          0x08005b58        0x0 e:/elektronik/toolchain/yagarto/bin/../lib/gcc/arm-none-eabi/4.6.2/../../../../arm-none-eabi/lib/thumb/v7m\libstdc++.a(eh_aux_runtime.o)
 .text          0x08005b58        0x0 e:/elektronik/toolchain/yagarto/bin/../lib/gcc/arm-none-eabi/4.6.2/../../../../arm-none-eabi/lib/thumb/v7m\libstdc++.a(eh_call.o)
 .text          0x08005b58        0x0 e:/elektronik/toolchain/yagarto/bin/../lib/gcc/arm-none-eabi/4.6.2/../../../../arm-none-eabi/lib/thumb/v7m\libstdc++.a(eh_catch.o)
 .text          0x08005b58        0x0 e:/elektronik/toolchain/yagarto/bin/../lib/gcc/arm-none-eabi/4.6.2/../../../../arm-none-eabi/lib/thumb/v7m\libstdc++.a(eh_exception.o)
 .text          0x08005b58        0x0 e:/elektronik/toolchain/yagarto/bin/../lib/gcc/arm-none-eabi/4.6.2/../../../../arm-none-eabi/lib/thumb/v7m\libstdc++.a(eh_globals.o)
 .text          0x08005b58        0x0 e:/elektronik/toolchain/yagarto/bin/../lib/gcc/arm-none-eabi/4.6.2/../../../../arm-none-eabi/lib/thumb/v7m\libstdc++.a(eh_personality.o)
 .text          0x08005b58        0x0 e:/elektronik/toolchain/yagarto/bin/../lib/gcc/arm-none-eabi/4.6.2/../../../../arm-none-eabi/lib/thumb/v7m\libstdc++.a(eh_throw.o)
 .text          0x08005b58        0x0 e:/elektronik/toolchain/yagarto/bin/../lib/gcc/arm-none-eabi/4.6.2/../../../../arm-none-eabi/lib/thumb/v7m\libstdc++.a(eh_type.o)
 .text          0x08005b58        0x0 e:/elektronik/toolchain/yagarto/bin/../lib/gcc/arm-none-eabi/4.6.2/../../../../arm-none-eabi/lib/thumb/v7m\libstdc++.a(fundamental_type_info.o)
 .text          0x08005b58        0x0 e:/elektronik/toolchain/yagarto/bin/../lib/gcc/arm-none-eabi/4.6.2/../../../../arm-none-eabi/lib/thumb/v7m\libstdc++.a(pointer_type_info.o)
 .text          0x08005b58        0x0 e:/elektronik/toolchain/yagarto/bin/../lib/gcc/arm-none-eabi/4.6.2/../../../../arm-none-eabi/lib/thumb/v7m\libstdc++.a(si_class_type_info.o)
 .text          0x08005b58        0x0 e:/elektronik/toolchain/yagarto/bin/../lib/gcc/arm-none-eabi/4.6.2/../../../../arm-none-eabi/lib/thumb/v7m\libstdc++.a(tinfo.o)
 .text          0x08005b58        0x0 e:/elektronik/toolchain/yagarto/bin/../lib/gcc/arm-none-eabi/4.6.2/../../../../arm-none-eabi/lib/thumb/v7m\libstdc++.a(bad_cast.o)
 .text          0x08005b58        0x0 e:/elektronik/toolchain/yagarto/bin/../lib/gcc/arm-none-eabi/4.6.2/../../../../arm-none-eabi/lib/thumb/v7m\libstdc++.a(bad_typeid.o)
 .text          0x08005b58        0x0 e:/elektronik/toolchain/yagarto/bin/../lib/gcc/arm-none-eabi/4.6.2/../../../../arm-none-eabi/lib/thumb/v7m\libstdc++.a(class_type_info.o)
 .text          0x08005b58        0x0 e:/elektronik/toolchain/yagarto/bin/../lib/gcc/arm-none-eabi/4.6.2/../../../../arm-none-eabi/lib/thumb/v7m\libstdc++.a(eh_alloc.o)
 .text          0x08005b58        0x0 e:/elektronik/toolchain/yagarto/bin/../lib/gcc/arm-none-eabi/4.6.2/../../../../arm-none-eabi/lib/thumb/v7m\libstdc++.a(pbase_type_info.o)
 .text          0x08005b58      0xa10 e:/elektronik/toolchain/yagarto/bin/../lib/gcc/arm-none-eabi/4.6.2/thumb/v7m\libgcc.a(unwind-arm.o)
                0x08005e14                _Unwind_VRS_Get
                0x08005e60                _Unwind_VRS_Set
                0x08006174                __aeabi_unwind_cpp_pr2
                0x08006178                __aeabi_unwind_cpp_pr1
                0x0800617c                __aeabi_unwind_cpp_pr0
                0x08006180                _Unwind_VRS_Pop
                0x08006410                _Unwind_GetCFA
                0x08006414                __gnu_Unwind_RaiseException
                0x08006474                __gnu_Unwind_ForcedUnwind
                0x08006488                __gnu_Unwind_Resume
                0x080064c4                __gnu_Unwind_Resume_or_Rethrow
                0x080064d4                _Unwind_Complete
                0x080064d8                _Unwind_DeleteException
                0x080064e8                __gnu_Unwind_Backtrace
 .text          0x08006568      0x1ac e:/elektronik/toolchain/yagarto/bin/../lib/gcc/arm-none-eabi/4.6.2/thumb/v7m\libgcc.a(libunwind.o)
                0x08006568                __restore_core_regs
                0x08006568                restore_core_regs
                0x08006580                __gnu_Unwind_Restore_VFP
                0x08006588                __gnu_Unwind_Save_VFP
                0x08006590                __gnu_Unwind_Restore_VFP_D
                0x08006598                __gnu_Unwind_Save_VFP_D
                0x080065a0                __gnu_Unwind_Restore_VFP_D_16_to_31
                0x080065a8                __gnu_Unwind_Save_VFP_D_16_to_31
                0x080065b0                __gnu_Unwind_Restore_WMMXD
                0x080065f4                __gnu_Unwind_Save_WMMXD
                0x08006638                __gnu_Unwind_Restore_WMMXC
                0x0800664c                __gnu_Unwind_Save_WMMXC
                0x08006660                ___Unwind_RaiseException
                0x08006660                _Unwind_RaiseException
                0x08006684                _Unwind_Resume
                0x08006684                ___Unwind_Resume
                0x080066a8                _Unwind_Resume_or_Rethrow
                0x080066a8                ___Unwind_Resume_or_Rethrow
                0x080066cc                _Unwind_ForcedUnwind
                0x080066cc                ___Unwind_ForcedUnwind
                0x080066f0                ___Unwind_Backtrace
                0x080066f0                _Unwind_Backtrace
 .text          0x08006714      0x3d4 e:/elektronik/toolchain/yagarto/bin/../lib/gcc/arm-none-eabi/4.6.2/thumb/v7m\libgcc.a(pr-support.o)
                0x08006768                __gnu_unwind_execute
                0x08006a8c                __gnu_unwind_frame
                0x08006ab8                _Unwind_GetRegionStart
                0x08006ac4                _Unwind_GetLanguageSpecificData
                0x08006ad8                _Unwind_GetDataRelBase
                0x08006ae0                _Unwind_GetTextRelBase
 .text          0x08006ae8       0x10 e:/elektronik/toolchain/yagarto/bin/../lib/gcc/arm-none-eabi/4.6.2/../../../../arm-none-eabi/lib/thumb/v7m\libg.a(lib_a-abort.o)
                0x08006ae8                abort
 .text          0x08006af8       0x48 e:/elektronik/toolchain/yagarto/bin/../lib/gcc/arm-none-eabi/4.6.2/../../../../arm-none-eabi/lib/thumb/v7m\libg.a(lib_a-assert.o)
                0x08006af8                __assert_func
                0x08006b34                __assert
 .text          0x08006b40        0xc e:/elektronik/toolchain/yagarto/bin/../lib/gcc/arm-none-eabi/4.6.2/../../../../arm-none-eabi/lib/thumb/v7m\libg.a(lib_a-atexit.o)
                0x08006b40                atexit
 .text          0x08006b4c       0x14 e:/elektronik/toolchain/yagarto/bin/../lib/gcc/arm-none-eabi/4.6.2/../../../../arm-none-eabi/lib/thumb/v7m\libg.a(lib_a-cxa_atexit.o)
                0x08006b4c                __cxa_atexit
 .text          0x08006b60       0x20 e:/elektronik/toolchain/yagarto/bin/../lib/gcc/arm-none-eabi/4.6.2/../../../../arm-none-eabi/lib/thumb/v7m\libg.a(lib_a-exit.o)
                0x08006b60                exit
 .text          0x08006b80       0x2c e:/elektronik/toolchain/yagarto/bin/../lib/gcc/arm-none-eabi/4.6.2/../../../../arm-none-eabi/lib/thumb/v7m\libg.a(lib_a-fini.o)
                0x08006b80                __libc_fini_array
 .text          0x08006bac       0x4c e:/elektronik/toolchain/yagarto/bin/../lib/gcc/arm-none-eabi/4.6.2/../../../../arm-none-eabi/lib/thumb/v7m\libg.a(lib_a-fiprintf.o)
                0x08006bac                _fiprintf_r
                0x08006bcc                fiprintf
 .text          0x08006bf8       0x4c e:/elektronik/toolchain/yagarto/bin/../lib/gcc/arm-none-eabi/4.6.2/../../../../arm-none-eabi/lib/thumb/v7m\libg.a(lib_a-fputc.o)
                0x08006bf8                _fputc_r
                0x08006c1c                fputc
 .text          0x08006c44       0x60 e:/elektronik/toolchain/yagarto/bin/../lib/gcc/arm-none-eabi/4.6.2/../../../../arm-none-eabi/lib/thumb/v7m\libg.a(lib_a-fputs.o)
                0x08006c44                _fputs_r
                0x08006c94                fputs
 .text          0x08006ca4      0x334 e:/elektronik/toolchain/yagarto/bin/../lib/gcc/arm-none-eabi/4.6.2/../../../../arm-none-eabi/lib/thumb/v7m\libg.a(lib_a-fvwrite.o)
                0x08006ca4                __sfvwrite_r
 .text          0x08006fd8       0x94 e:/elektronik/toolchain/yagarto/bin/../lib/gcc/arm-none-eabi/4.6.2/../../../../arm-none-eabi/lib/thumb/v7m\libg.a(lib_a-fwrite.o)
                0x08006fd8                _fwrite_r
                0x08007044                fwrite
 .text          0x0800706c        0x0 e:/elektronik/toolchain/yagarto/bin/../lib/gcc/arm-none-eabi/4.6.2/../../../../arm-none-eabi/lib/thumb/v7m\libg.a(lib_a-impure.o)
 .text          0x0800706c       0x48 e:/elektronik/toolchain/yagarto/bin/../lib/gcc/arm-none-eabi/4.6.2/../../../../arm-none-eabi/lib/thumb/v7m\libg.a(lib_a-init.o)
                0x0800706c                __libc_init_array
 .text          0x080070b4       0x20 e:/elektronik/toolchain/yagarto/bin/../lib/gcc/arm-none-eabi/4.6.2/../../../../arm-none-eabi/lib/thumb/v7m\libg.a(lib_a-malloc.o)
                0x080070b4                malloc
                0x080070c4                free
 .text          0x080070d4      0x564 e:/elektronik/toolchain/yagarto/bin/../lib/gcc/arm-none-eabi/4.6.2/../../../../arm-none-eabi/lib/thumb/v7m\libg.a(lib_a-mallocr.o)
                0x080070d4                _malloc_r
 .text          0x08007638       0x88 e:/elektronik/toolchain/yagarto/bin/../lib/gcc/arm-none-eabi/4.6.2/../../../../arm-none-eabi/lib/thumb/v7m\libg.a(lib_a-memchr.o)
                0x08007638                memchr
 .text          0x080076c0       0x60 e:/elektronik/toolchain/yagarto/bin/../lib/gcc/arm-none-eabi/4.6.2/../../../../arm-none-eabi/lib/thumb/v7m\libg.a(lib_a-memcmp.o)
                0x080076c0                memcmp
 .text          0x08007720       0x84 e:/elektronik/toolchain/yagarto/bin/../lib/gcc/arm-none-eabi/4.6.2/../../../../arm-none-eabi/lib/thumb/v7m\libg.a(lib_a-memcpy.o)
                0x08007720                memcpy
 .text          0x080077a4       0xc8 e:/elektronik/toolchain/yagarto/bin/../lib/gcc/arm-none-eabi/4.6.2/../../../../arm-none-eabi/lib/thumb/v7m\libg.a(lib_a-memmove.o)
                0x080077a4                memmove
 .text          0x0800786c       0x94 e:/elektronik/toolchain/yagarto/bin/../lib/gcc/arm-none-eabi/4.6.2/../../../../arm-none-eabi/lib/thumb/v7m\libg.a(lib_a-memset.o)
                0x0800786c                memset
 .text          0x08007900       0xc8 e:/elektronik/toolchain/yagarto/bin/../lib/gcc/arm-none-eabi/4.6.2/../../../../arm-none-eabi/lib/thumb/v7m\libg.a(lib_a-putc.o)
                0x08007900                _putc_r
                0x08007960                putc
 .text          0x080079c8       0x14 e:/elektronik/toolchain/yagarto/bin/../lib/gcc/arm-none-eabi/4.6.2/../../../../arm-none-eabi/lib/thumb/v7m\libg.a(lib_a-realloc.o)
                0x080079c8                realloc
 .text          0x080079dc      0x410 e:/elektronik/toolchain/yagarto/bin/../lib/gcc/arm-none-eabi/4.6.2/../../../../arm-none-eabi/lib/thumb/v7m\libg.a(lib_a-reallocr.o)
                0x080079dc                _realloc_r
 .text          0x08007dec      0x158 e:/elektronik/toolchain/yagarto/bin/../lib/gcc/arm-none-eabi/4.6.2/../../../../arm-none-eabi/lib/thumb/v7m\libg.a(lib_a-signal.o)
                0x08007dec                _init_signal_r
                0x08007e20                _signal_r
                0x08007e60                _raise_r
                0x08007eb8                __sigtramp_r
                0x08007f08                raise
                0x08007f18                signal
                0x08007f28                _init_signal
                0x08007f34                __sigtramp
 .text          0x08007f44       0x94 e:/elektronik/toolchain/yagarto/bin/../lib/gcc/arm-none-eabi/4.6.2/../../../../arm-none-eabi/lib/thumb/v7m\libg.a(lib_a-sprintf.o)
                0x08007f44                _sprintf_r
                0x08007f88                sprintf
 .text          0x08007fd8       0x50 e:/elektronik/toolchain/yagarto/bin/../lib/gcc/arm-none-eabi/4.6.2/../../../../arm-none-eabi/lib/thumb/v7m\libg.a(lib_a-strcat.o)
                0x08007fd8                strcat
 .text          0x08008028      0x1dc e:/elektronik/toolchain/yagarto/bin/../lib/gcc/arm-none-eabi/4.6.2/../../../../arm-none-eabi/lib/thumb/v7m\libg.a(lib_a-strcmp.o)
                0x08008028                strcmp
 .text          0x08008204       0xbc e:/elektronik/toolchain/yagarto/bin/../lib/gcc/arm-none-eabi/4.6.2/../../../../arm-none-eabi/lib/thumb/v7m\libg.a(lib_a-strcpy.o)
                0x08008204                strcpy
 .text          0x080082c0       0x60 e:/elektronik/toolchain/yagarto/bin/../lib/gcc/arm-none-eabi/4.6.2/../../../../arm-none-eabi/lib/thumb/v7m\libg.a(lib_a-strlen.o)
                0x080082c0                strlen
 .text          0x08008320       0xa8 e:/elektronik/toolchain/yagarto/bin/../lib/gcc/arm-none-eabi/4.6.2/../../../../arm-none-eabi/lib/thumb/v7m\libg.a(lib_a-strncmp.o)
                0x08008320                strncmp
 .text          0x080083c8       0x70 e:/elektronik/toolchain/yagarto/bin/../lib/gcc/arm-none-eabi/4.6.2/../../../../arm-none-eabi/lib/thumb/v7m\libg.a(lib_a-strncpy.o)
                0x080083c8                strncpy
 .text          0x08008438     0x1314 e:/elektronik/toolchain/yagarto/bin/../lib/gcc/arm-none-eabi/4.6.2/../../../../arm-none-eabi/lib/thumb/v7m\libg.a(lib_a-svfprintf.o)
                0x08008438                _svfprintf_r
 .text          0x0800974c       0x1c e:/elektronik/toolchain/yagarto/bin/../lib/gcc/arm-none-eabi/4.6.2/../../../../arm-none-eabi/lib/thumb/v7m\libg.a(lib_a-syswrite.o)
                0x0800974c                write
 .text          0x08009768      0xb54 e:/elektronik/toolchain/yagarto/bin/../lib/gcc/arm-none-eabi/4.6.2/../../../../arm-none-eabi/lib/thumb/v7m\libg.a(lib_a-vfiprintf.o)
                0x08009768                __sprint_r
                0x080097e8                _vfiprintf_r
                0x0800a2a0                vfiprintf
 .text          0x0800a2bc       0xc8 e:/elektronik/toolchain/yagarto/bin/../lib/gcc/arm-none-eabi/4.6.2/../../../../arm-none-eabi/lib/thumb/v7m\libg.a(lib_a-wbuf.o)
                0x0800a2bc                __swbuf_r
                0x0800a374                __swbuf
 .text          0x0800a384       0xb8 e:/elektronik/toolchain/yagarto/bin/../lib/gcc/arm-none-eabi/4.6.2/../../../../arm-none-eabi/lib/thumb/v7m\libg.a(lib_a-wsetup.o)
                0x0800a384                __swsetup_r
 .text          0x0800a43c       0xb0 e:/elektronik/toolchain/yagarto/bin/../lib/gcc/arm-none-eabi/4.6.2/../../../../arm-none-eabi/lib/thumb/v7m\libg.a(lib_a-__atexit.o)
                0x0800a43c                __register_exitproc
 .text          0x0800a4ec       0xd8 e:/elektronik/toolchain/yagarto/bin/../lib/gcc/arm-none-eabi/4.6.2/../../../../arm-none-eabi/lib/thumb/v7m\libg.a(lib_a-__call_atexit.o)
                0x0800a4ec                __call_exitprocs
 *fill*         0x0800a5c4        0x4 00
 .text          0x0800a5c8     0x1040 e:/elektronik/toolchain/yagarto/bin/../lib/gcc/arm-none-eabi/4.6.2/../../../../arm-none-eabi/lib/thumb/v7m\libg.a(lib_a-dtoa.o)
                0x0800a70c                _dtoa_r
 .text          0x0800b608      0x1a4 e:/elektronik/toolchain/yagarto/bin/../lib/gcc/arm-none-eabi/4.6.2/../../../../arm-none-eabi/lib/thumb/v7m\libg.a(lib_a-fflush.o)
                0x0800b608                _fflush_r
                0x0800b78c                fflush
 .text          0x0800b7ac      0x1c4 e:/elektronik/toolchain/yagarto/bin/../lib/gcc/arm-none-eabi/4.6.2/../../../../arm-none-eabi/lib/thumb/v7m\libg.a(lib_a-findfp.o)
                0x0800b7b4                _cleanup_r
                0x0800b814                __sfmoreglue
                0x0800b840                _cleanup
                0x0800b84c                __sinit
                0x0800b894                __sfp
                0x0800b930                __sfp_lock_acquire
                0x0800b934                __sfp_lock_release
                0x0800b938                __sinit_lock_acquire
                0x0800b93c                __sinit_lock_release
                0x0800b940                __fp_lock_all
                0x0800b958                __fp_unlock_all
 .text          0x0800b970      0x104 e:/elektronik/toolchain/yagarto/bin/../lib/gcc/arm-none-eabi/4.6.2/../../../../arm-none-eabi/lib/thumb/v7m\libg.a(lib_a-fputwc.o)
                0x0800b970                _fputwc_r
                0x0800ba50                fputwc
 .text          0x0800ba74      0x224 e:/elektronik/toolchain/yagarto/bin/../lib/gcc/arm-none-eabi/4.6.2/../../../../arm-none-eabi/lib/thumb/v7m\libg.a(lib_a-freer.o)
                0x0800ba74                _malloc_trim_r
                0x0800bb14                _free_r
 .text          0x0800bc98       0xa0 e:/elektronik/toolchain/yagarto/bin/../lib/gcc/arm-none-eabi/4.6.2/../../../../arm-none-eabi/lib/thumb/v7m\libg.a(lib_a-fwalk.o)
                0x0800bc98                _fwalk
                0x0800bce4                _fwalk_reent
 .text          0x0800bd38       0x88 e:/elektronik/toolchain/yagarto/bin/../lib/gcc/arm-none-eabi/4.6.2/../../../../arm-none-eabi/lib/thumb/v7m\libg.a(lib_a-locale.o)
                0x0800bd38                _setlocale_r
                0x0800bd7c                __locale_charset
                0x0800bd88                __locale_mb_cur_max
                0x0800bd94                __locale_msgcharset
                0x0800bd9c                __locale_cjk_lang
                0x0800bda0                _localeconv_r
                0x0800bda8                setlocale
                0x0800bdb8                localeconv
 .text          0x0800bdc0       0xe4 e:/elektronik/toolchain/yagarto/bin/../lib/gcc/arm-none-eabi/4.6.2/../../../../arm-none-eabi/lib/thumb/v7m\libg.a(lib_a-makebuf.o)
                0x0800bdc0                __smakebuf_r
 .text          0x0800bea4      0x8c8 e:/elektronik/toolchain/yagarto/bin/../lib/gcc/arm-none-eabi/4.6.2/../../../../arm-none-eabi/lib/thumb/v7m\libg.a(lib_a-mprec.o)
                0x0800bea4                _Balloc
                0x0800bef0                _Bfree
                0x0800bf04                __multadd
                0x0800bf88                __s2b
                0x0800c01c                __hi0bits
                0x0800c058                __lo0bits
                0x0800c0b4                __i2b
                0x0800c0c8                __multiply
                0x0800c200                __pow5mult
                0x0800c298                __lshift
                0x0800c358                __mcmp
                0x0800c398                __mdiff
                0x0800c47c                __ulp
                0x0800c4c0                __b2d
                0x0800c56c                __d2b
                0x0800c634                __ratio
                0x0800c690                _mprec_log10
                0x0800c6c4                __copybits
                0x0800c70c                __any_on
 .text          0x0800c76c       0x90 e:/elektronik/toolchain/yagarto/bin/../lib/gcc/arm-none-eabi/4.6.2/../../../../arm-none-eabi/lib/thumb/v7m\libg.a(lib_a-s_fpclassify.o)
                0x0800c76c                __fpclassifyd
 .text          0x0800c7fc       0x8c e:/elektronik/toolchain/yagarto/bin/../lib/gcc/arm-none-eabi/4.6.2/../../../../arm-none-eabi/lib/thumb/v7m\libg.a(lib_a-stdio.o)
                0x0800c7fc                __sread
                0x0800c820                __seofread
                0x0800c824                __swrite
                0x0800c85c                __sseek
                0x0800c880                __sclose
 .text          0x0800c888      0xa00 e:/elektronik/toolchain/yagarto/bin/../lib/gcc/arm-none-eabi/4.6.2/../../../../arm-none-eabi/lib/thumb/v7m\libg.a(lib_a-svfiprintf.o)
                0x0800c888                __ssprint_r
                0x0800c9a0                _svfiprintf_r
 .text          0x0800d288       0xac e:/elektronik/toolchain/yagarto/bin/../lib/gcc/arm-none-eabi/4.6.2/../../../../arm-none-eabi/lib/thumb/v7m\libg.a(lib_a-wcrtomb.o)
                0x0800d288                _wcrtomb_r
                0x0800d2d4                wcrtomb
 .text          0x0800d334       0x4c e:/elektronik/toolchain/yagarto/bin/../lib/gcc/arm-none-eabi/4.6.2/../../../../arm-none-eabi/lib/thumb/v7m\libg.a(lib_a-wctomb_r.o)
                0x0800d334                __ascii_wctomb
                0x0800d350                _wctomb_r
 .text          0x0800d380       0x60 e:/elektronik/toolchain/yagarto/bin/../lib/gcc/arm-none-eabi/4.6.2/../../../../arm-none-eabi/lib/thumb/v7m\libg.a(lib_a-callocr.o)
                0x0800d380                _calloc_r
 .text          0x0800d3e0       0x9c e:/elektronik/toolchain/yagarto/bin/../lib/gcc/arm-none-eabi/4.6.2/../../../../arm-none-eabi/lib/thumb/v7m\libg.a(lib_a-fclose.o)
                0x0800d3e0                _fclose_r
                0x0800d46c                fclose
 *fill*         0x0800d47c        0x4 00
 .text          0x0800d480      0x278 e:/elektronik/toolchain/yagarto/bin/../lib/gcc/arm-none-eabi/4.6.2/thumb/v7m\libgcc.a(_udivsi3.o)
                0x0800d480                __aeabi_uidiv
                0x0800d480                __udivsi3
                0x0800d6dc                __aeabi_uidivmod
 .text          0x0800d6f8        0x4 e:/elektronik/toolchain/yagarto/bin/../lib/gcc/arm-none-eabi/4.6.2/thumb/v7m\libgcc.a(_dvmd_tls.o)
                0x0800d6f8                __aeabi_idiv0
                0x0800d6f8                __aeabi_ldiv0
 .text          0x0800d6fc      0x370 e:/elektronik/toolchain/yagarto/bin/../lib/gcc/arm-none-eabi/4.6.2/thumb/v7m\libgcc.a(_arm_addsubdf3.o)
                0x0800d6fc                __aeabi_drsub
                0x0800d704                __aeabi_dsub
                0x0800d704                __subdf3
                0x0800d708                __aeabi_dadd
                0x0800d708                __adddf3
                0x0800d980                __floatunsidf
                0x0800d980                __aeabi_ui2d
                0x0800d9a0                __floatsidf
                0x0800d9a0                __aeabi_i2d
                0x0800d9c4                __aeabi_f2d
                0x0800d9c4                __extendsfdf2
                0x0800da00                __floatundidf
                0x0800da00                __aeabi_ul2d
                0x0800da10                __floatdidf
                0x0800da10                __aeabi_l2d
 .text          0x0800da6c      0x424 e:/elektronik/toolchain/yagarto/bin/../lib/gcc/arm-none-eabi/4.6.2/thumb/v7m\libgcc.a(_arm_muldivdf3.o)
                0x0800da6c                __aeabi_dmul
                0x0800da6c                __muldf3
                0x0800dcc0                __divdf3
                0x0800dcc0                __aeabi_ddiv
 .text          0x0800de90      0x110 e:/elektronik/toolchain/yagarto/bin/../lib/gcc/arm-none-eabi/4.6.2/thumb/v7m\libgcc.a(_arm_cmpdf2.o)
                0x0800de90                __gtdf2
                0x0800de90                __gedf2
                0x0800de98                __ltdf2
                0x0800de98                __ledf2
                0x0800dea0                __nedf2
                0x0800dea0                __eqdf2
                0x0800dea0                __cmpdf2
                0x0800df1c                __aeabi_cdrcmple
                0x0800df2c                __aeabi_cdcmpeq
                0x0800df2c                __aeabi_cdcmple
                0x0800df3c                __aeabi_dcmpeq
                0x0800df50                __aeabi_dcmplt
                0x0800df64                __aeabi_dcmple
                0x0800df78                __aeabi_dcmpge
                0x0800df8c                __aeabi_dcmpgt
 .text          0x0800dfa0       0x50 e:/elektronik/toolchain/yagarto/bin/../lib/gcc/arm-none-eabi/4.6.2/thumb/v7m\libgcc.a(_arm_fixdfsi.o)
                0x0800dfa0                __aeabi_d2iz
                0x0800dfa0                __fixdfsi
 .text          0x0800dff0        0x0 e:/elektronik/toolchain/yagarto/bin/../lib/gcc/arm-none-eabi/4.6.2/thumb/v7m/crtend.o
 .text          0x0800dff0        0x0 e:/elektronik/toolchain/yagarto/bin/../lib/gcc/arm-none-eabi/4.6.2/thumb/v7m/crtn.o
 *(.text*)
 .text.NVIC_PriorityGroupConfig
                0x0800dff0       0x28 ./STM32F4xx_StdPeriph_Driver/src/misc.o
                0x0800dff0                NVIC_PriorityGroupConfig
 .text.NVIC_Init
                0x0800e018       0xe4 ./STM32F4xx_StdPeriph_Driver/src/misc.o
                0x0800e018                NVIC_Init
 .text.NVIC_SetVectorTable
                0x0800e0fc       0x2c ./STM32F4xx_StdPeriph_Driver/src/misc.o
                0x0800e0fc                NVIC_SetVectorTable
 .text.NVIC_SystemLPConfig
                0x0800e128       0x58 ./STM32F4xx_StdPeriph_Driver/src/misc.o
                0x0800e128                NVIC_SystemLPConfig
 .text.SysTick_CLKSourceConfig
                0x0800e180       0x4c ./STM32F4xx_StdPeriph_Driver/src/misc.o
                0x0800e180                SysTick_CLKSourceConfig
 .text.ADC_DeInit
                0x0800e1cc       0x20 ./STM32F4xx_StdPeriph_Driver/src/stm32f4xx_adc.o
                0x0800e1cc                ADC_DeInit
 .text.ADC_Init
                0x0800e1ec       0xb8 ./STM32F4xx_StdPeriph_Driver/src/stm32f4xx_adc.o
                0x0800e1ec                ADC_Init
 .text.ADC_StructInit
                0x0800e2a4       0x4c ./STM32F4xx_StdPeriph_Driver/src/stm32f4xx_adc.o
                0x0800e2a4                ADC_StructInit
 .text.ADC_CommonInit
                0x0800e2f0       0x5c ./STM32F4xx_StdPeriph_Driver/src/stm32f4xx_adc.o
                0x0800e2f0                ADC_CommonInit
 .text.ADC_CommonStructInit
                0x0800e34c       0x34 ./STM32F4xx_StdPeriph_Driver/src/stm32f4xx_adc.o
                0x0800e34c                ADC_CommonStructInit
 .text.ADC_Cmd  0x0800e380       0x38 ./STM32F4xx_StdPeriph_Driver/src/stm32f4xx_adc.o
                0x0800e380                ADC_Cmd
 .text.ADC_AnalogWatchdogCmd
                0x0800e3b8       0x3c ./STM32F4xx_StdPeriph_Driver/src/stm32f4xx_adc.o
                0x0800e3b8                ADC_AnalogWatchdogCmd
 .text.ADC_AnalogWatchdogThresholdsConfig
                0x0800e3f4       0x28 ./STM32F4xx_StdPeriph_Driver/src/stm32f4xx_adc.o
                0x0800e3f4                ADC_AnalogWatchdogThresholdsConfig
 .text.ADC_AnalogWatchdogSingleChannelConfig
                0x0800e41c       0x38 ./STM32F4xx_StdPeriph_Driver/src/stm32f4xx_adc.o
                0x0800e41c                ADC_AnalogWatchdogSingleChannelConfig
 .text.ADC_TempSensorVrefintCmd
                0x0800e454       0x4c ./STM32F4xx_StdPeriph_Driver/src/stm32f4xx_adc.o
                0x0800e454                ADC_TempSensorVrefintCmd
 .text.ADC_VBATCmd
                0x0800e4a0       0x4c ./STM32F4xx_StdPeriph_Driver/src/stm32f4xx_adc.o
                0x0800e4a0                ADC_VBATCmd
 .text.ADC_RegularChannelConfig
                0x0800e4ec      0x1bc ./STM32F4xx_StdPeriph_Driver/src/stm32f4xx_adc.o
                0x0800e4ec                ADC_RegularChannelConfig
 .text.ADC_SoftwareStartConv
                0x0800e6a8       0x20 ./STM32F4xx_StdPeriph_Driver/src/stm32f4xx_adc.o
                0x0800e6a8                ADC_SoftwareStartConv
 .text.ADC_GetSoftwareStartConvStatus
                0x0800e6c8       0x38 ./STM32F4xx_StdPeriph_Driver/src/stm32f4xx_adc.o
                0x0800e6c8                ADC_GetSoftwareStartConvStatus
 .text.ADC_EOCOnEachRegularChannelCmd
                0x0800e700       0x38 ./STM32F4xx_StdPeriph_Driver/src/stm32f4xx_adc.o
                0x0800e700                ADC_EOCOnEachRegularChannelCmd
 .text.ADC_ContinuousModeCmd
                0x0800e738       0x38 ./STM32F4xx_StdPeriph_Driver/src/stm32f4xx_adc.o
                0x0800e738                ADC_ContinuousModeCmd
 .text.ADC_DiscModeChannelCountConfig
                0x0800e770       0x4c ./STM32F4xx_StdPeriph_Driver/src/stm32f4xx_adc.o
                0x0800e770                ADC_DiscModeChannelCountConfig
 .text.ADC_DiscModeCmd
                0x0800e7bc       0x38 ./STM32F4xx_StdPeriph_Driver/src/stm32f4xx_adc.o
                0x0800e7bc                ADC_DiscModeCmd
 .text.ADC_GetConversionValue
                0x0800e7f4       0x1c ./STM32F4xx_StdPeriph_Driver/src/stm32f4xx_adc.o
                0x0800e7f4                ADC_GetConversionValue
 .text.ADC_GetMultiModeConversionValue
                0x0800e810       0x18 ./STM32F4xx_StdPeriph_Driver/src/stm32f4xx_adc.o
                0x0800e810                ADC_GetMultiModeConversionValue
 .text.ADC_DMACmd
                0x0800e828       0x38 ./STM32F4xx_StdPeriph_Driver/src/stm32f4xx_adc.o
                0x0800e828                ADC_DMACmd
 .text.ADC_DMARequestAfterLastTransferCmd
                0x0800e860       0x38 ./STM32F4xx_StdPeriph_Driver/src/stm32f4xx_adc.o
                0x0800e860                ADC_DMARequestAfterLastTransferCmd
 .text.ADC_MultiModeDMARequestAfterLastTransferCmd
                0x0800e898       0x4c ./STM32F4xx_StdPeriph_Driver/src/stm32f4xx_adc.o
                0x0800e898                ADC_MultiModeDMARequestAfterLastTransferCmd
 .text.ADC_InjectedChannelConfig
                0x0800e8e4      0x144 ./STM32F4xx_StdPeriph_Driver/src/stm32f4xx_adc.o
                0x0800e8e4                ADC_InjectedChannelConfig
 .text.ADC_InjectedSequencerLengthConfig
                0x0800ea28       0x4c ./STM32F4xx_StdPeriph_Driver/src/stm32f4xx_adc.o
                0x0800ea28                ADC_InjectedSequencerLengthConfig
 .text.ADC_SetInjectedOffset
                0x0800ea74       0x34 ./STM32F4xx_StdPeriph_Driver/src/stm32f4xx_adc.o
                0x0800ea74                ADC_SetInjectedOffset
 .text.ADC_ExternalTrigInjectedConvConfig
                0x0800eaa8       0x38 ./STM32F4xx_StdPeriph_Driver/src/stm32f4xx_adc.o
                0x0800eaa8                ADC_ExternalTrigInjectedConvConfig
 .text.ADC_ExternalTrigInjectedConvEdgeConfig
                0x0800eae0       0x38 ./STM32F4xx_StdPeriph_Driver/src/stm32f4xx_adc.o
                0x0800eae0                ADC_ExternalTrigInjectedConvEdgeConfig
 .text.ADC_SoftwareStartInjectedConv
                0x0800eb18       0x20 ./STM32F4xx_StdPeriph_Driver/src/stm32f4xx_adc.o
                0x0800eb18                ADC_SoftwareStartInjectedConv
 .text.ADC_GetSoftwareStartInjectedConvCmdStatus
                0x0800eb38       0x38 ./STM32F4xx_StdPeriph_Driver/src/stm32f4xx_adc.o
                0x0800eb38                ADC_GetSoftwareStartInjectedConvCmdStatus
 .text.ADC_AutoInjectedConvCmd
                0x0800eb70       0x38 ./STM32F4xx_StdPeriph_Driver/src/stm32f4xx_adc.o
                0x0800eb70                ADC_AutoInjectedConvCmd
 .text.ADC_InjectedDiscModeCmd
                0x0800eba8       0x38 ./STM32F4xx_StdPeriph_Driver/src/stm32f4xx_adc.o
                0x0800eba8                ADC_InjectedDiscModeCmd
 .text.ADC_GetInjectedConversionValue
                0x0800ebe0       0x34 ./STM32F4xx_StdPeriph_Driver/src/stm32f4xx_adc.o
                0x0800ebe0                ADC_GetInjectedConversionValue
 .text.ADC_ITConfig
                0x0800ec14       0x5c ./STM32F4xx_StdPeriph_Driver/src/stm32f4xx_adc.o
                0x0800ec14                ADC_ITConfig
 .text.ADC_GetFlagStatus
                0x0800ec70       0x3c ./STM32F4xx_StdPeriph_Driver/src/stm32f4xx_adc.o
                0x0800ec70                ADC_GetFlagStatus
 .text.ADC_ClearFlag
                0x0800ecac       0x20 ./STM32F4xx_StdPeriph_Driver/src/stm32f4xx_adc.o
                0x0800ecac                ADC_ClearFlag
 .text.ADC_GetITStatus
                0x0800eccc       0x70 ./STM32F4xx_StdPeriph_Driver/src/stm32f4xx_adc.o
                0x0800eccc                ADC_GetITStatus
 .text.ADC_ClearITPendingBit
                0x0800ed3c       0x30 ./STM32F4xx_StdPeriph_Driver/src/stm32f4xx_adc.o
                0x0800ed3c                ADC_ClearITPendingBit
 .text.CAN_DeInit
                0x0800ed6c       0x50 ./STM32F4xx_StdPeriph_Driver/src/stm32f4xx_can.o
                0x0800ed6c                CAN_DeInit
 .text.CAN_Init
                0x0800edbc      0x1c0 ./STM32F4xx_StdPeriph_Driver/src/stm32f4xx_can.o
                0x0800edbc                CAN_Init
 .text.CAN_FilterInit
                0x0800ef7c      0x220 ./STM32F4xx_StdPeriph_Driver/src/stm32f4xx_can.o
                0x0800ef7c                CAN_FilterInit
 .text.CAN_StructInit
                0x0800f19c       0x6c ./STM32F4xx_StdPeriph_Driver/src/stm32f4xx_can.o
                0x0800f19c                CAN_StructInit
 .text.CAN_SlaveStartBank
                0x0800f208       0x90 ./STM32F4xx_StdPeriph_Driver/src/stm32f4xx_can.o
                0x0800f208                CAN_SlaveStartBank
 .text.CAN_DBGFreeze
                0x0800f298       0x38 ./STM32F4xx_StdPeriph_Driver/src/stm32f4xx_can.o
                0x0800f298                CAN_DBGFreeze
 .text.CAN_TTComModeCmd
                0x0800f2d0       0x98 ./STM32F4xx_StdPeriph_Driver/src/stm32f4xx_can.o
                0x0800f2d0                CAN_TTComModeCmd
 .text.CAN_Transmit
                0x0800f368      0x1e4 ./STM32F4xx_StdPeriph_Driver/src/stm32f4xx_can.o
                0x0800f368                CAN_Transmit
 .text.CAN_TransmitStatus
                0x0800f54c      0x114 ./STM32F4xx_StdPeriph_Driver/src/stm32f4xx_can.o
                0x0800f54c                CAN_TransmitStatus
 .text.CAN_CancelTransmit
                0x0800f660       0x50 ./STM32F4xx_StdPeriph_Driver/src/stm32f4xx_can.o
                0x0800f660                CAN_CancelTransmit
 .text.CAN_Receive
                0x0800f6b0      0x1a8 ./STM32F4xx_StdPeriph_Driver/src/stm32f4xx_can.o
                0x0800f6b0                CAN_Receive
 .text.CAN_FIFORelease
                0x0800f858       0x38 ./STM32F4xx_StdPeriph_Driver/src/stm32f4xx_can.o
                0x0800f858                CAN_FIFORelease
 .text.CAN_MessagePending
                0x0800f890       0x50 ./STM32F4xx_StdPeriph_Driver/src/stm32f4xx_can.o
                0x0800f890                CAN_MessagePending
 .text.CAN_OperatingModeRequest
                0x0800f8e0      0x114 ./STM32F4xx_StdPeriph_Driver/src/stm32f4xx_can.o
                0x0800f8e0                CAN_OperatingModeRequest
 .text.CAN_Sleep
                0x0800f9f4       0x40 ./STM32F4xx_StdPeriph_Driver/src/stm32f4xx_can.o
                0x0800f9f4                CAN_Sleep
 .text.CAN_WakeUp
                0x0800fa34       0x5c ./STM32F4xx_StdPeriph_Driver/src/stm32f4xx_can.o
                0x0800fa34                CAN_WakeUp
 .text.CAN_GetLastErrorCode
                0x0800fa90       0x28 ./STM32F4xx_StdPeriph_Driver/src/stm32f4xx_can.o
                0x0800fa90                CAN_GetLastErrorCode
 .text.CAN_GetReceiveErrorCounter
                0x0800fab8       0x28 ./STM32F4xx_StdPeriph_Driver/src/stm32f4xx_can.o
                0x0800fab8                CAN_GetReceiveErrorCounter
 .text.CAN_GetLSBTransmitErrorCounter
                0x0800fae0       0x2c ./STM32F4xx_StdPeriph_Driver/src/stm32f4xx_can.o
                0x0800fae0                CAN_GetLSBTransmitErrorCounter
 .text.CAN_ITConfig
                0x0800fb0c       0x40 ./STM32F4xx_StdPeriph_Driver/src/stm32f4xx_can.o
                0x0800fb0c                CAN_ITConfig
 .text.CAN_GetFlagStatus
                0x0800fb4c      0x104 ./STM32F4xx_StdPeriph_Driver/src/stm32f4xx_can.o
                0x0800fb4c                CAN_GetFlagStatus
 .text.CAN_ClearFlag
                0x0800fc50       0x7c ./STM32F4xx_StdPeriph_Driver/src/stm32f4xx_can.o
                0x0800fc50                CAN_ClearFlag
 .text.CAN_GetITStatus
                0x0800fccc      0x1bc ./STM32F4xx_StdPeriph_Driver/src/stm32f4xx_can.o
                0x0800fccc                CAN_GetITStatus
 .text.CAN_ClearITPendingBit
                0x0800fe88       0xfc ./STM32F4xx_StdPeriph_Driver/src/stm32f4xx_can.o
                0x0800fe88                CAN_ClearITPendingBit
 .text.CheckITStatus
                0x0800ff84       0x38 ./STM32F4xx_StdPeriph_Driver/src/stm32f4xx_can.o
 .text.CRC_ResetDR
                0x0800ffbc       0x18 ./STM32F4xx_StdPeriph_Driver/src/stm32f4xx_crc.o
                0x0800ffbc                CRC_ResetDR
 .text.CRC_CalcCRC
                0x0800ffd4       0x2c ./STM32F4xx_StdPeriph_Driver/src/stm32f4xx_crc.o
                0x0800ffd4                CRC_CalcCRC
 .text.CRC_CalcBlockCRC
                0x08010000       0x54 ./STM32F4xx_StdPeriph_Driver/src/stm32f4xx_crc.o
                0x08010000                CRC_CalcBlockCRC
 .text.CRC_GetCRC
                0x08010054       0x18 ./STM32F4xx_StdPeriph_Driver/src/stm32f4xx_crc.o
                0x08010054                CRC_GetCRC
 .text.CRC_SetIDRegister
                0x0801006c       0x20 ./STM32F4xx_StdPeriph_Driver/src/stm32f4xx_crc.o
                0x0801006c                CRC_SetIDRegister
 .text.CRC_GetIDRegister
                0x0801008c       0x18 ./STM32F4xx_StdPeriph_Driver/src/stm32f4xx_crc.o
                0x0801008c                CRC_GetIDRegister
 .text.CRYP_DeInit
                0x080100a4       0x20 ./STM32F4xx_StdPeriph_Driver/src/stm32f4xx_cryp.o
                0x080100a4                CRYP_DeInit
 .text.CRYP_Init
                0x080100c4      0x104 ./STM32F4xx_StdPeriph_Driver/src/stm32f4xx_cryp.o
                0x080100c4                CRYP_Init
 .text.CRYP_StructInit
                0x080101c8       0x34 ./STM32F4xx_StdPeriph_Driver/src/stm32f4xx_cryp.o
                0x080101c8                CRYP_StructInit
 .text.CRYP_KeyInit
                0x080101fc       0x84 ./STM32F4xx_StdPeriph_Driver/src/stm32f4xx_cryp.o
                0x080101fc                CRYP_KeyInit
 .text.CRYP_KeyStructInit
                0x08010280       0x54 ./STM32F4xx_StdPeriph_Driver/src/stm32f4xx_cryp.o
                0x08010280                CRYP_KeyStructInit
 .text.CRYP_IVInit
                0x080102d4       0x4c ./STM32F4xx_StdPeriph_Driver/src/stm32f4xx_cryp.o
                0x080102d4                CRYP_IVInit
 .text.CRYP_IVStructInit
                0x08010320       0x34 ./STM32F4xx_StdPeriph_Driver/src/stm32f4xx_cryp.o
                0x08010320                CRYP_IVStructInit
 .text.CRYP_FIFOFlush
                0x08010354       0x24 ./STM32F4xx_StdPeriph_Driver/src/stm32f4xx_cryp.o
                0x08010354                CRYP_FIFOFlush
 .text.CRYP_Cmd
                0x08010378       0x4c ./STM32F4xx_StdPeriph_Driver/src/stm32f4xx_cryp.o
                0x08010378                CRYP_Cmd
 .text.CRYP_DataIn
                0x080103c4       0x20 ./STM32F4xx_StdPeriph_Driver/src/stm32f4xx_cryp.o
                0x080103c4                CRYP_DataIn
 .text.CRYP_DataOut
                0x080103e4       0x18 ./STM32F4xx_StdPeriph_Driver/src/stm32f4xx_cryp.o
                0x080103e4                CRYP_DataOut
 .text.CRYP_SaveContext
                0x080103fc      0x170 ./STM32F4xx_StdPeriph_Driver/src/stm32f4xx_cryp.o
                0x080103fc                CRYP_SaveContext
 .text.CRYP_RestoreContext
                0x0801056c       0xe0 ./STM32F4xx_StdPeriph_Driver/src/stm32f4xx_cryp.o
                0x0801056c                CRYP_RestoreContext
 .text.CRYP_DMACmd
                0x0801064c       0x5c ./STM32F4xx_StdPeriph_Driver/src/stm32f4xx_cryp.o
                0x0801064c                CRYP_DMACmd
 .text.CRYP_ITConfig
                0x080106a8       0x5c ./STM32F4xx_StdPeriph_Driver/src/stm32f4xx_cryp.o
                0x080106a8                CRYP_ITConfig
 .text.CRYP_GetITStatus
                0x08010704       0x40 ./STM32F4xx_StdPeriph_Driver/src/stm32f4xx_cryp.o
                0x08010704                CRYP_GetITStatus
 .text.CRYP_GetFlagStatus
                0x08010744       0x60 ./STM32F4xx_StdPeriph_Driver/src/stm32f4xx_cryp.o
                0x08010744                CRYP_GetFlagStatus
 .text.CRYP_AES_ECB
                0x080107a4      0x4b0 ./STM32F4xx_StdPeriph_Driver/src/stm32f4xx_cryp_aes.o
                0x080107a4                CRYP_AES_ECB
 .text.CRYP_AES_CBC
                0x08010c54      0x5cc ./STM32F4xx_StdPeriph_Driver/src/stm32f4xx_cryp_aes.o
                0x08010c54                CRYP_AES_CBC
 .text.CRYP_AES_CTR
                0x08011220      0x550 ./STM32F4xx_StdPeriph_Driver/src/stm32f4xx_cryp_aes.o
                0x08011220                CRYP_AES_CTR
 .text.CRYP_DES_ECB
                0x08011770      0x160 ./STM32F4xx_StdPeriph_Driver/src/stm32f4xx_cryp_des.o
                0x08011770                CRYP_DES_ECB
 .text.CRYP_DES_CBC
                0x080118d0      0x1b0 ./STM32F4xx_StdPeriph_Driver/src/stm32f4xx_cryp_des.o
                0x080118d0                CRYP_DES_CBC
 .text.CRYP_TDES_ECB
                0x08011a80      0x1d0 ./STM32F4xx_StdPeriph_Driver/src/stm32f4xx_cryp_tdes.o
                0x08011a80                CRYP_TDES_ECB
 .text.CRYP_TDES_CBC
                0x08011c50      0x268 ./STM32F4xx_StdPeriph_Driver/src/stm32f4xx_cryp_tdes.o
                0x08011c50                CRYP_TDES_CBC
 .text.DAC_DeInit
                0x08011eb8       0x20 ./STM32F4xx_StdPeriph_Driver/src/stm32f4xx_dac.o
                0x08011eb8                DAC_DeInit
 .text.DAC_Init
                0x08011ed8       0x74 ./STM32F4xx_StdPeriph_Driver/src/stm32f4xx_dac.o
                0x08011ed8                DAC_Init
 .text.DAC_StructInit
                0x08011f4c       0x34 ./STM32F4xx_StdPeriph_Driver/src/stm32f4xx_dac.o
                0x08011f4c                DAC_StructInit
 .text.DAC_Cmd  0x08011f80       0x68 ./STM32F4xx_StdPeriph_Driver/src/stm32f4xx_dac.o
                0x08011f80                DAC_Cmd
 .text.DAC_SoftwareTriggerCmd
                0x08011fe8       0x70 ./STM32F4xx_StdPeriph_Driver/src/stm32f4xx_dac.o
                0x08011fe8                DAC_SoftwareTriggerCmd
 .text.DAC_DualSoftwareTriggerCmd
                0x08012058       0x4c ./STM32F4xx_StdPeriph_Driver/src/stm32f4xx_dac.o
                0x08012058                DAC_DualSoftwareTriggerCmd
 .text.DAC_WaveGenerationCmd
                0x080120a4       0x64 ./STM32F4xx_StdPeriph_Driver/src/stm32f4xx_dac.o
                0x080120a4                DAC_WaveGenerationCmd
 .text.DAC_SetChannel1Data
                0x08012108       0x38 ./STM32F4xx_StdPeriph_Driver/src/stm32f4xx_dac.o
                0x08012108                DAC_SetChannel1Data
 .text.DAC_SetChannel2Data
                0x08012140       0x38 ./STM32F4xx_StdPeriph_Driver/src/stm32f4xx_dac.o
                0x08012140                DAC_SetChannel2Data
 .text.DAC_SetDualChannelData
                0x08012178       0x64 ./STM32F4xx_StdPeriph_Driver/src/stm32f4xx_dac.o
                0x08012178                DAC_SetDualChannelData
 .text.DAC_GetDataOutputValue
                0x080121dc       0x3c ./STM32F4xx_StdPeriph_Driver/src/stm32f4xx_dac.o
                0x080121dc                DAC_GetDataOutputValue
 .text.DAC_DMACmd
                0x08012218       0x68 ./STM32F4xx_StdPeriph_Driver/src/stm32f4xx_dac.o
                0x08012218                DAC_DMACmd
 .text.DAC_ITConfig
                0x08012280       0x64 ./STM32F4xx_StdPeriph_Driver/src/stm32f4xx_dac.o
                0x08012280                DAC_ITConfig
 .text.DAC_GetFlagStatus
                0x080122e4       0x48 ./STM32F4xx_StdPeriph_Driver/src/stm32f4xx_dac.o
                0x080122e4                DAC_GetFlagStatus
 .text.DAC_ClearFlag
                0x0801232c       0x28 ./STM32F4xx_StdPeriph_Driver/src/stm32f4xx_dac.o
                0x0801232c                DAC_ClearFlag
 .text.DAC_GetITStatus
                0x08012354       0x6c ./STM32F4xx_StdPeriph_Driver/src/stm32f4xx_dac.o
                0x08012354                DAC_GetITStatus
 .text.DAC_ClearITPendingBit
                0x080123c0       0x28 ./STM32F4xx_StdPeriph_Driver/src/stm32f4xx_dac.o
                0x080123c0                DAC_ClearITPendingBit
 .text.DBGMCU_GetREVID
                0x080123e8       0x1c ./STM32F4xx_StdPeriph_Driver/src/stm32f4xx_dbgmcu.o
                0x080123e8                DBGMCU_GetREVID
 .text.DBGMCU_GetDEVID
                0x08012404       0x20 ./STM32F4xx_StdPeriph_Driver/src/stm32f4xx_dbgmcu.o
                0x08012404                DBGMCU_GetDEVID
 .text.DBGMCU_Config
                0x08012424       0x58 ./STM32F4xx_StdPeriph_Driver/src/stm32f4xx_dbgmcu.o
                0x08012424                DBGMCU_Config
 .text.DBGMCU_APB1PeriphConfig
                0x0801247c       0x58 ./STM32F4xx_StdPeriph_Driver/src/stm32f4xx_dbgmcu.o
                0x0801247c                DBGMCU_APB1PeriphConfig
 .text.DBGMCU_APB2PeriphConfig
                0x080124d4       0x58 ./STM32F4xx_StdPeriph_Driver/src/stm32f4xx_dbgmcu.o
                0x080124d4                DBGMCU_APB2PeriphConfig
 .text.DCMI_DeInit
                0x0801252c       0x6c ./STM32F4xx_StdPeriph_Driver/src/stm32f4xx_dcmi.o
                0x0801252c                DCMI_DeInit
 .text.DCMI_Init
                0x08012598       0x94 ./STM32F4xx_StdPeriph_Driver/src/stm32f4xx_dcmi.o
                0x08012598                DCMI_Init
 .text.DCMI_StructInit
                0x0801262c       0x4c ./STM32F4xx_StdPeriph_Driver/src/stm32f4xx_dcmi.o
                0x0801262c                DCMI_StructInit
 .text.DCMI_CROPConfig
                0x08012678       0x48 ./STM32F4xx_StdPeriph_Driver/src/stm32f4xx_dcmi.o
                0x08012678                DCMI_CROPConfig
 .text.DCMI_CROPCmd
                0x080126c0       0x4c ./STM32F4xx_StdPeriph_Driver/src/stm32f4xx_dcmi.o
                0x080126c0                DCMI_CROPCmd
 .text.DCMI_SetEmbeddedSynchroCodes
                0x0801270c       0x40 ./STM32F4xx_StdPeriph_Driver/src/stm32f4xx_dcmi.o
                0x0801270c                DCMI_SetEmbeddedSynchroCodes
 .text.DCMI_JPEGCmd
                0x0801274c       0x4c ./STM32F4xx_StdPeriph_Driver/src/stm32f4xx_dcmi.o
                0x0801274c                DCMI_JPEGCmd
 .text.DCMI_Cmd
                0x08012798       0x4c ./STM32F4xx_StdPeriph_Driver/src/stm32f4xx_dcmi.o
                0x08012798                DCMI_Cmd
 .text.DCMI_CaptureCmd
                0x080127e4       0x4c ./STM32F4xx_StdPeriph_Driver/src/stm32f4xx_dcmi.o
                0x080127e4                DCMI_CaptureCmd
 .text.DCMI_ReadData
                0x08012830       0x18 ./STM32F4xx_StdPeriph_Driver/src/stm32f4xx_dcmi.o
                0x08012830                DCMI_ReadData
 .text.DCMI_ITConfig
                0x08012848       0x5c ./STM32F4xx_StdPeriph_Driver/src/stm32f4xx_dcmi.o
                0x08012848                DCMI_ITConfig
 .text.DCMI_GetFlagStatus
                0x080128a4       0x7c ./STM32F4xx_StdPeriph_Driver/src/stm32f4xx_dcmi.o
                0x080128a4                DCMI_GetFlagStatus
 .text.DCMI_ClearFlag
                0x08012920       0x20 ./STM32F4xx_StdPeriph_Driver/src/stm32f4xx_dcmi.o
                0x08012920                DCMI_ClearFlag
 .text.DCMI_GetITStatus
                0x08012940       0x4c ./STM32F4xx_StdPeriph_Driver/src/stm32f4xx_dcmi.o
                0x08012940                DCMI_GetITStatus
 .text.DCMI_ClearITPendingBit
                0x0801298c       0x20 ./STM32F4xx_StdPeriph_Driver/src/stm32f4xx_dcmi.o
                0x0801298c                DCMI_ClearITPendingBit
 .text.DMA_DeInit
                0x080129ac      0x244 ./STM32F4xx_StdPeriph_Driver/src/stm32f4xx_dma.o
                0x080129ac                DMA_DeInit
 .text.DMA_Init
                0x08012bf0       0xb0 ./STM32F4xx_StdPeriph_Driver/src/stm32f4xx_dma.o
                0x08012bf0                DMA_Init
 .text.DMA_StructInit
                0x08012ca0       0x8c ./STM32F4xx_StdPeriph_Driver/src/stm32f4xx_dma.o
                0x08012ca0                DMA_StructInit
 .text.DMA_Cmd  0x08012d2c       0x38 ./STM32F4xx_StdPeriph_Driver/src/stm32f4xx_dma.o
                0x08012d2c                DMA_Cmd
 .text.DMA_PeriphIncOffsetSizeConfig
                0x08012d64       0x34 ./STM32F4xx_StdPeriph_Driver/src/stm32f4xx_dma.o
                0x08012d64                DMA_PeriphIncOffsetSizeConfig
 .text.DMA_FlowControllerConfig
                0x08012d98       0x34 ./STM32F4xx_StdPeriph_Driver/src/stm32f4xx_dma.o
                0x08012d98                DMA_FlowControllerConfig
 .text.DMA_SetCurrDataCounter
                0x08012dcc       0x1c ./STM32F4xx_StdPeriph_Driver/src/stm32f4xx_dma.o
                0x08012dcc                DMA_SetCurrDataCounter
 .text.DMA_GetCurrDataCounter
                0x08012de8       0x1c ./STM32F4xx_StdPeriph_Driver/src/stm32f4xx_dma.o
                0x08012de8                DMA_GetCurrDataCounter
 .text.DMA_DoubleBufferModeConfig
                0x08012e04       0x3c ./STM32F4xx_StdPeriph_Driver/src/stm32f4xx_dma.o
                0x08012e04                DMA_DoubleBufferModeConfig
 .text.DMA_DoubleBufferModeCmd
                0x08012e40       0x38 ./STM32F4xx_StdPeriph_Driver/src/stm32f4xx_dma.o
                0x08012e40                DMA_DoubleBufferModeCmd
 .text.DMA_MemoryTargetConfig
                0x08012e78       0x2c ./STM32F4xx_StdPeriph_Driver/src/stm32f4xx_dma.o
                0x08012e78                DMA_MemoryTargetConfig
 .text.DMA_GetCurrentMemoryTarget
                0x08012ea4       0x38 ./STM32F4xx_StdPeriph_Driver/src/stm32f4xx_dma.o
                0x08012ea4                DMA_GetCurrentMemoryTarget
 .text.DMA_GetCmdStatus
                0x08012edc       0x38 ./STM32F4xx_StdPeriph_Driver/src/stm32f4xx_dma.o
                0x08012edc                DMA_GetCmdStatus
 .text.DMA_GetFIFOStatus
                0x08012f14       0x28 ./STM32F4xx_StdPeriph_Driver/src/stm32f4xx_dma.o
                0x08012f14                DMA_GetFIFOStatus
 .text.DMA_GetFlagStatus
                0x08012f3c       0x88 ./STM32F4xx_StdPeriph_Driver/src/stm32f4xx_dma.o
                0x08012f3c                DMA_GetFlagStatus
 .text.DMA_ClearFlag
                0x08012fc4       0x64 ./STM32F4xx_StdPeriph_Driver/src/stm32f4xx_dma.o
                0x08012fc4                DMA_ClearFlag
 .text.DMA_ITConfig
                0x08013028       0x78 ./STM32F4xx_StdPeriph_Driver/src/stm32f4xx_dma.o
                0x08013028                DMA_ITConfig
 .text.DMA_GetITStatus
                0x080130a0       0xc8 ./STM32F4xx_StdPeriph_Driver/src/stm32f4xx_dma.o
                0x080130a0                DMA_GetITStatus
 .text.DMA_ClearITPendingBit
                0x08013168       0x64 ./STM32F4xx_StdPeriph_Driver/src/stm32f4xx_dma.o
                0x08013168                DMA_ClearITPendingBit
 .text.EXTI_DeInit
                0x080131cc       0x54 ./STM32F4xx_StdPeriph_Driver/src/stm32f4xx_exti.o
                0x080131cc                EXTI_DeInit
 .text.EXTI_Init
                0x08013220      0x144 ./STM32F4xx_StdPeriph_Driver/src/stm32f4xx_exti.o
                0x08013220                EXTI_Init
 .text.EXTI_StructInit
                0x08013364       0x34 ./STM32F4xx_StdPeriph_Driver/src/stm32f4xx_exti.o
                0x08013364                EXTI_StructInit
 .text.EXTI_GenerateSWInterrupt
                0x08013398       0x2c ./STM32F4xx_StdPeriph_Driver/src/stm32f4xx_exti.o
                0x08013398                EXTI_GenerateSWInterrupt
 .text.EXTI_GetFlagStatus
                0x080133c4       0x40 ./STM32F4xx_StdPeriph_Driver/src/stm32f4xx_exti.o
                0x080133c4                EXTI_GetFlagStatus
 .text.EXTI_ClearFlag
                0x08013404       0x20 ./STM32F4xx_StdPeriph_Driver/src/stm32f4xx_exti.o
                0x08013404                EXTI_ClearFlag
 .text.EXTI_GetITStatus
                0x08013424       0x5c ./STM32F4xx_StdPeriph_Driver/src/stm32f4xx_exti.o
                0x08013424                EXTI_GetITStatus
 .text.EXTI_ClearITPendingBit
                0x08013480       0x20 ./STM32F4xx_StdPeriph_Driver/src/stm32f4xx_exti.o
                0x08013480                EXTI_ClearITPendingBit
 .text.FLASH_SetLatency
                0x080134a0       0x20 ./STM32F4xx_StdPeriph_Driver/src/stm32f4xx_flash.o
                0x080134a0                FLASH_SetLatency
 .text.FLASH_PrefetchBufferCmd
                0x080134c0       0x4c ./STM32F4xx_StdPeriph_Driver/src/stm32f4xx_flash.o
                0x080134c0                FLASH_PrefetchBufferCmd
 .text.FLASH_InstructionCacheCmd
                0x0801350c       0x4c ./STM32F4xx_StdPeriph_Driver/src/stm32f4xx_flash.o
                0x0801350c                FLASH_InstructionCacheCmd
 .text.FLASH_DataCacheCmd
                0x08013558       0x4c ./STM32F4xx_StdPeriph_Driver/src/stm32f4xx_flash.o
                0x08013558                FLASH_DataCacheCmd
 .text.FLASH_InstructionCacheReset
                0x080135a4       0x24 ./STM32F4xx_StdPeriph_Driver/src/stm32f4xx_flash.o
                0x080135a4                FLASH_InstructionCacheReset
 .text.FLASH_DataCacheReset
                0x080135c8       0x24 ./STM32F4xx_StdPeriph_Driver/src/stm32f4xx_flash.o
                0x080135c8                FLASH_DataCacheReset
 .text.FLASH_Unlock
                0x080135ec       0x3c ./STM32F4xx_StdPeriph_Driver/src/stm32f4xx_flash.o
                0x080135ec                FLASH_Unlock
 .text.FLASH_Lock
                0x08013628       0x24 ./STM32F4xx_StdPeriph_Driver/src/stm32f4xx_flash.o
                0x08013628                FLASH_Lock
 .text.FLASH_EraseSector
                0x0801364c      0x11c ./STM32F4xx_StdPeriph_Driver/src/stm32f4xx_flash.o
                0x0801364c                FLASH_EraseSector
 .text.FLASH_EraseAllSectors
                0x08013768       0xe4 ./STM32F4xx_StdPeriph_Driver/src/stm32f4xx_flash.o
                0x08013768                FLASH_EraseAllSectors
 .text.FLASH_ProgramDoubleWord
                0x0801384c       0xa0 ./STM32F4xx_StdPeriph_Driver/src/stm32f4xx_flash.o
                0x0801384c                FLASH_ProgramDoubleWord
 .text.FLASH_ProgramWord
                0x080138ec       0x98 ./STM32F4xx_StdPeriph_Driver/src/stm32f4xx_flash.o
                0x080138ec                FLASH_ProgramWord
 .text.FLASH_ProgramHalfWord
                0x08013984       0x9c ./STM32F4xx_StdPeriph_Driver/src/stm32f4xx_flash.o
                0x08013984                FLASH_ProgramHalfWord
 .text.FLASH_ProgramByte
                0x08013a20       0x98 ./STM32F4xx_StdPeriph_Driver/src/stm32f4xx_flash.o
                0x08013a20                FLASH_ProgramByte
 .text.FLASH_OB_Unlock
                0x08013ab8       0x44 ./STM32F4xx_StdPeriph_Driver/src/stm32f4xx_flash.o
                0x08013ab8                FLASH_OB_Unlock
 .text.FLASH_OB_Lock
                0x08013afc       0x24 ./STM32F4xx_StdPeriph_Driver/src/stm32f4xx_flash.o
                0x08013afc                FLASH_OB_Lock
 .text.FLASH_OB_WRPConfig
                0x08013b20       0x74 ./STM32F4xx_StdPeriph_Driver/src/stm32f4xx_flash.o
                0x08013b20                FLASH_OB_WRPConfig
 .text.FLASH_OB_RDPConfig
                0x08013b94       0x34 ./STM32F4xx_StdPeriph_Driver/src/stm32f4xx_flash.o
                0x08013b94                FLASH_OB_RDPConfig
 .text.FLASH_OB_UserConfig
                0x08013bc8       0x64 ./STM32F4xx_StdPeriph_Driver/src/stm32f4xx_flash.o
                0x08013bc8                FLASH_OB_UserConfig
 .text.FLASH_OB_BORConfig
                0x08013c2c       0x4c ./STM32F4xx_StdPeriph_Driver/src/stm32f4xx_flash.o
                0x08013c2c                FLASH_OB_BORConfig
 .text.FLASH_OB_Launch
                0x08013c78       0x3c ./STM32F4xx_StdPeriph_Driver/src/stm32f4xx_flash.o
                0x08013c78                FLASH_OB_Launch
 .text.FLASH_OB_GetUser
                0x08013cb4       0x1c ./STM32F4xx_StdPeriph_Driver/src/stm32f4xx_flash.o
                0x08013cb4                FLASH_OB_GetUser
 .text.FLASH_OB_GetWRP
                0x08013cd0       0x18 ./STM32F4xx_StdPeriph_Driver/src/stm32f4xx_flash.o
                0x08013cd0                FLASH_OB_GetWRP
 .text.FLASH_OB_GetRDP
                0x08013ce8       0x38 ./STM32F4xx_StdPeriph_Driver/src/stm32f4xx_flash.o
                0x08013ce8                FLASH_OB_GetRDP
 .text.FLASH_OB_GetBOR
                0x08013d20       0x20 ./STM32F4xx_StdPeriph_Driver/src/stm32f4xx_flash.o
                0x08013d20                FLASH_OB_GetBOR
 .text.FLASH_ITConfig
                0x08013d40       0x58 ./STM32F4xx_StdPeriph_Driver/src/stm32f4xx_flash.o
                0x08013d40                FLASH_ITConfig
 .text.FLASH_GetFlagStatus
                0x08013d98       0x40 ./STM32F4xx_StdPeriph_Driver/src/stm32f4xx_flash.o
                0x08013d98                FLASH_GetFlagStatus
 .text.FLASH_ClearFlag
                0x08013dd8       0x20 ./STM32F4xx_StdPeriph_Driver/src/stm32f4xx_flash.o
                0x08013dd8                FLASH_ClearFlag
 .text.FLASH_GetStatus
                0x08013df8       0x88 ./STM32F4xx_StdPeriph_Driver/src/stm32f4xx_flash.o
                0x08013df8                FLASH_GetStatus
 .text.FLASH_WaitForLastOperation
                0x08013e80       0x34 ./STM32F4xx_StdPeriph_Driver/src/stm32f4xx_flash.o
                0x08013e80                FLASH_WaitForLastOperation
 .text.FSMC_NORSRAMDeInit
                0x08013eb4       0x5c ./STM32F4xx_StdPeriph_Driver/src/stm32f4xx_fsmc.o
                0x08013eb4                FSMC_NORSRAMDeInit
 .text.FSMC_NORSRAMInit
                0x08013f10      0x150 ./STM32F4xx_StdPeriph_Driver/src/stm32f4xx_fsmc.o
                0x08013f10                FSMC_NORSRAMInit
 .text.FSMC_NORSRAMStructInit
                0x08014060      0x108 ./STM32F4xx_StdPeriph_Driver/src/stm32f4xx_fsmc.o
                0x08014060                FSMC_NORSRAMStructInit
 .text.FSMC_NORSRAMCmd
                0x08014168       0x58 ./STM32F4xx_StdPeriph_Driver/src/stm32f4xx_fsmc.o
                0x08014168                FSMC_NORSRAMCmd
 .text.FSMC_NANDDeInit
                0x080141c0       0x8c ./STM32F4xx_StdPeriph_Driver/src/stm32f4xx_fsmc.o
                0x080141c0                FSMC_NANDDeInit
 .text.FSMC_NANDInit
                0x0801424c      0x100 ./STM32F4xx_StdPeriph_Driver/src/stm32f4xx_fsmc.o
                0x0801424c                FSMC_NANDInit
 .text.FSMC_NANDStructInit
                0x0801434c       0x9c ./STM32F4xx_StdPeriph_Driver/src/stm32f4xx_fsmc.o
                0x0801434c                FSMC_NANDStructInit
 .text.FSMC_NANDCmd
                0x080143e8       0xa0 ./STM32F4xx_StdPeriph_Driver/src/stm32f4xx_fsmc.o
                0x080143e8                FSMC_NANDCmd
 .text.FSMC_NANDECCCmd
                0x08014488       0xa0 ./STM32F4xx_StdPeriph_Driver/src/stm32f4xx_fsmc.o
                0x08014488                FSMC_NANDECCCmd
 .text.FSMC_GetECC
                0x08014528       0x3c ./STM32F4xx_StdPeriph_Driver/src/stm32f4xx_fsmc.o
                0x08014528                FSMC_GetECC
 .text.FSMC_PCCARDDeInit
                0x08014564       0x50 ./STM32F4xx_StdPeriph_Driver/src/stm32f4xx_fsmc.o
                0x08014564                FSMC_PCCARDDeInit
 .text.FSMC_PCCARDInit
                0x080145b4       0xd4 ./STM32F4xx_StdPeriph_Driver/src/stm32f4xx_fsmc.o
                0x080145b4                FSMC_PCCARDInit
 .text.FSMC_PCCARDStructInit
                0x08014688       0xa4 ./STM32F4xx_StdPeriph_Driver/src/stm32f4xx_fsmc.o
                0x08014688                FSMC_PCCARDStructInit
 .text.FSMC_PCCARDCmd
                0x0801472c       0x54 ./STM32F4xx_StdPeriph_Driver/src/stm32f4xx_fsmc.o
                0x0801472c                FSMC_PCCARDCmd
 .text.FSMC_ITConfig
                0x08014780       0xec ./STM32F4xx_StdPeriph_Driver/src/stm32f4xx_fsmc.o
                0x08014780                FSMC_ITConfig
 .text.FSMC_GetFlagStatus
                0x0801486c       0x74 ./STM32F4xx_StdPeriph_Driver/src/stm32f4xx_fsmc.o
                0x0801486c                FSMC_GetFlagStatus
 .text.FSMC_ClearFlag
                0x080148e0       0x80 ./STM32F4xx_StdPeriph_Driver/src/stm32f4xx_fsmc.o
                0x080148e0                FSMC_ClearFlag
 .text.FSMC_GetITStatus
                0x08014960       0x94 ./STM32F4xx_StdPeriph_Driver/src/stm32f4xx_fsmc.o
                0x08014960                FSMC_GetITStatus
 .text.FSMC_ClearITPendingBit
                0x080149f4       0x8c ./STM32F4xx_StdPeriph_Driver/src/stm32f4xx_fsmc.o
                0x080149f4                FSMC_ClearITPendingBit
 .text.GPIO_DeInit
                0x08014a80      0x178 ./STM32F4xx_StdPeriph_Driver/src/stm32f4xx_gpio.o
                0x08014a80                GPIO_DeInit
 .text.GPIO_Init
                0x08014bf8      0x154 ./STM32F4xx_StdPeriph_Driver/src/stm32f4xx_gpio.o
                0x08014bf8                GPIO_Init
 .text.GPIO_StructInit
                0x08014d4c       0x3c ./STM32F4xx_StdPeriph_Driver/src/stm32f4xx_gpio.o
                0x08014d4c                GPIO_StructInit
 .text.GPIO_PinLockConfig
                0x08014d88       0x44 ./STM32F4xx_StdPeriph_Driver/src/stm32f4xx_gpio.o
                0x08014d88                GPIO_PinLockConfig
 .text.GPIO_ReadInputDataBit
                0x08014dcc       0x3c ./STM32F4xx_StdPeriph_Driver/src/stm32f4xx_gpio.o
                0x08014dcc                GPIO_ReadInputDataBit
 .text.GPIO_ReadInputData
                0x08014e08       0x1c ./STM32F4xx_StdPeriph_Driver/src/stm32f4xx_gpio.o
                0x08014e08                GPIO_ReadInputData
 .text.GPIO_ReadOutputDataBit
                0x08014e24       0x3c ./STM32F4xx_StdPeriph_Driver/src/stm32f4xx_gpio.o
                0x08014e24                GPIO_ReadOutputDataBit
 .text.GPIO_ReadOutputData
                0x08014e60       0x1c ./STM32F4xx_StdPeriph_Driver/src/stm32f4xx_gpio.o
                0x08014e60                GPIO_ReadOutputData
 .text.GPIO_SetBits
                0x08014e7c       0x1c ./STM32F4xx_StdPeriph_Driver/src/stm32f4xx_gpio.o
                0x08014e7c                GPIO_SetBits
 .text.GPIO_ResetBits
                0x08014e98       0x1c ./STM32F4xx_StdPeriph_Driver/src/stm32f4xx_gpio.o
                0x08014e98                GPIO_ResetBits
 .text.GPIO_WriteBit
                0x08014eb4       0x30 ./STM32F4xx_StdPeriph_Driver/src/stm32f4xx_gpio.o
                0x08014eb4                GPIO_WriteBit
 .text.GPIO_Write
                0x08014ee4       0x1c ./STM32F4xx_StdPeriph_Driver/src/stm32f4xx_gpio.o
                0x08014ee4                GPIO_Write
 .text.GPIO_ToggleBits
                0x08014f00       0x24 ./STM32F4xx_StdPeriph_Driver/src/stm32f4xx_gpio.o
                0x08014f00                GPIO_ToggleBits
 .text.GPIO_PinAFConfig
                0x08014f24       0xac ./STM32F4xx_StdPeriph_Driver/src/stm32f4xx_gpio.o
                0x08014f24                GPIO_PinAFConfig
 .text.HASH_DeInit
                0x08014fd0       0x20 ./STM32F4xx_StdPeriph_Driver/src/stm32f4xx_hash.o
                0x08014fd0                HASH_DeInit
 .text.HASH_Init
                0x08014ff0       0xa8 ./STM32F4xx_StdPeriph_Driver/src/stm32f4xx_hash.o
                0x08014ff0                HASH_Init
 .text.HASH_StructInit
                0x08015098       0x34 ./STM32F4xx_StdPeriph_Driver/src/stm32f4xx_hash.o
                0x08015098                HASH_StructInit
 .text.HASH_Reset
                0x080150cc       0x24 ./STM32F4xx_StdPeriph_Driver/src/stm32f4xx_hash.o
                0x080150cc                HASH_Reset
 .text.HASH_SetLastWordValidBitsNbr
                0x080150f0       0x48 ./STM32F4xx_StdPeriph_Driver/src/stm32f4xx_hash.o
                0x080150f0                HASH_SetLastWordValidBitsNbr
 .text.HASH_DataIn
                0x08015138       0x20 ./STM32F4xx_StdPeriph_Driver/src/stm32f4xx_hash.o
                0x08015138                HASH_DataIn
 .text.HASH_GetInFIFOWordsNbr
                0x08015158       0x20 ./STM32F4xx_StdPeriph_Driver/src/stm32f4xx_hash.o
                0x08015158                HASH_GetInFIFOWordsNbr
 .text.HASH_GetDigest
                0x08015178       0x64 ./STM32F4xx_StdPeriph_Driver/src/stm32f4xx_hash.o
                0x08015178                HASH_GetDigest
 .text.HASH_StartDigest
                0x080151dc       0x24 ./STM32F4xx_StdPeriph_Driver/src/stm32f4xx_hash.o
                0x080151dc                HASH_StartDigest
 .text.HASH_SaveContext
                0x08015200       0x84 ./STM32F4xx_StdPeriph_Driver/src/stm32f4xx_hash.o
                0x08015200                HASH_SaveContext
 .text.HASH_RestoreContext
                0x08015284       0x94 ./STM32F4xx_StdPeriph_Driver/src/stm32f4xx_hash.o
                0x08015284                HASH_RestoreContext
 .text.HASH_DMACmd
                0x08015318       0x4c ./STM32F4xx_StdPeriph_Driver/src/stm32f4xx_hash.o
                0x08015318                HASH_DMACmd
 .text.HASH_ITConfig
                0x08015364       0x5c ./STM32F4xx_StdPeriph_Driver/src/stm32f4xx_hash.o
                0x08015364                HASH_ITConfig
 .text.HASH_GetFlagStatus
                0x080153c0       0x60 ./STM32F4xx_StdPeriph_Driver/src/stm32f4xx_hash.o
                0x080153c0                HASH_GetFlagStatus
 .text.HASH_ClearFlag
                0x08015420       0x24 ./STM32F4xx_StdPeriph_Driver/src/stm32f4xx_hash.o
                0x08015420                HASH_ClearFlag
 .text.HASH_GetITStatus
                0x08015444       0x58 ./STM32F4xx_StdPeriph_Driver/src/stm32f4xx_hash.o
                0x08015444                HASH_GetITStatus
 .text.HASH_ClearITPendingBit
                0x0801549c       0x28 ./STM32F4xx_StdPeriph_Driver/src/stm32f4xx_hash.o
                0x0801549c                HASH_ClearITPendingBit
 .text.HASH_MD5
                0x080154c4      0x140 ./STM32F4xx_StdPeriph_Driver/src/stm32f4xx_hash_md5.o
                0x080154c4                HASH_MD5
 .text.HMAC_MD5
                0x08015604      0x258 ./STM32F4xx_StdPeriph_Driver/src/stm32f4xx_hash_md5.o
                0x08015604                HMAC_MD5
 .text.HASH_SHA1
                0x0801585c      0x158 ./STM32F4xx_StdPeriph_Driver/src/stm32f4xx_hash_sha1.o
                0x0801585c                HASH_SHA1
 .text.HMAC_SHA1
                0x080159b4      0x270 ./STM32F4xx_StdPeriph_Driver/src/stm32f4xx_hash_sha1.o
                0x080159b4                HMAC_SHA1
 .text.I2C_DeInit
                0x08015c24       0x88 ./STM32F4xx_StdPeriph_Driver/src/stm32f4xx_i2c.o
                0x08015c24                I2C_DeInit
 .text.I2C_Init
                0x08015cac      0x1ac ./STM32F4xx_StdPeriph_Driver/src/stm32f4xx_i2c.o
                0x08015cac                I2C_Init
 .text.I2C_StructInit
                0x08015e58       0x44 ./STM32F4xx_StdPeriph_Driver/src/stm32f4xx_i2c.o
                0x08015e58                I2C_StructInit
 .text.I2C_Cmd  0x08015e9c       0x40 ./STM32F4xx_StdPeriph_Driver/src/stm32f4xx_i2c.o
                0x08015e9c                I2C_Cmd
 .text.I2C_GenerateSTART
                0x08015edc       0x40 ./STM32F4xx_StdPeriph_Driver/src/stm32f4xx_i2c.o
                0x08015edc                I2C_GenerateSTART
 .text.I2C_GenerateSTOP
                0x08015f1c       0x40 ./STM32F4xx_StdPeriph_Driver/src/stm32f4xx_i2c.o
                0x08015f1c                I2C_GenerateSTOP
 .text.I2C_Send7bitAddress
                0x08015f5c       0x3c ./STM32F4xx_StdPeriph_Driver/src/stm32f4xx_i2c.o
                0x08015f5c                I2C_Send7bitAddress
 .text.I2C_AcknowledgeConfig
                0x08015f98       0x40 ./STM32F4xx_StdPeriph_Driver/src/stm32f4xx_i2c.o
                0x08015f98                I2C_AcknowledgeConfig
 .text.I2C_OwnAddress2Config
                0x08015fd8       0x44 ./STM32F4xx_StdPeriph_Driver/src/stm32f4xx_i2c.o
                0x08015fd8                I2C_OwnAddress2Config
 .text.I2C_DualAddressCmd
                0x0801601c       0x40 ./STM32F4xx_StdPeriph_Driver/src/stm32f4xx_i2c.o
                0x0801601c                I2C_DualAddressCmd
 .text.I2C_GeneralCallCmd
                0x0801605c       0x40 ./STM32F4xx_StdPeriph_Driver/src/stm32f4xx_i2c.o
                0x0801605c                I2C_GeneralCallCmd
 .text.I2C_SoftwareResetCmd
                0x0801609c       0x48 ./STM32F4xx_StdPeriph_Driver/src/stm32f4xx_i2c.o
                0x0801609c                I2C_SoftwareResetCmd
 .text.I2C_StretchClockCmd
                0x080160e4       0x40 ./STM32F4xx_StdPeriph_Driver/src/stm32f4xx_i2c.o
                0x080160e4                I2C_StretchClockCmd
 .text.I2C_FastModeDutyCycleConfig
                0x08016124       0x40 ./STM32F4xx_StdPeriph_Driver/src/stm32f4xx_i2c.o
                0x08016124                I2C_FastModeDutyCycleConfig
 .text.I2C_NACKPositionConfig
                0x08016164       0x40 ./STM32F4xx_StdPeriph_Driver/src/stm32f4xx_i2c.o
                0x08016164                I2C_NACKPositionConfig
 .text.I2C_SMBusAlertConfig
                0x080161a4       0x40 ./STM32F4xx_StdPeriph_Driver/src/stm32f4xx_i2c.o
                0x080161a4                I2C_SMBusAlertConfig
 .text.I2C_ARPCmd
                0x080161e4       0x40 ./STM32F4xx_StdPeriph_Driver/src/stm32f4xx_i2c.o
                0x080161e4                I2C_ARPCmd
 .text.I2C_SendData
                0x08016224       0x20 ./STM32F4xx_StdPeriph_Driver/src/stm32f4xx_i2c.o
                0x08016224                I2C_SendData
 .text.I2C_ReceiveData
                0x08016244       0x1c ./STM32F4xx_StdPeriph_Driver/src/stm32f4xx_i2c.o
                0x08016244                I2C_ReceiveData
 .text.I2C_TransmitPEC
                0x08016260       0x40 ./STM32F4xx_StdPeriph_Driver/src/stm32f4xx_i2c.o
                0x08016260                I2C_TransmitPEC
 .text.I2C_PECPositionConfig
                0x080162a0       0x40 ./STM32F4xx_StdPeriph_Driver/src/stm32f4xx_i2c.o
                0x080162a0                I2C_PECPositionConfig
 .text.I2C_CalculatePEC
                0x080162e0       0x40 ./STM32F4xx_StdPeriph_Driver/src/stm32f4xx_i2c.o
                0x080162e0                I2C_CalculatePEC
 .text.I2C_GetPEC
                0x08016320       0x24 ./STM32F4xx_StdPeriph_Driver/src/stm32f4xx_i2c.o
                0x08016320                I2C_GetPEC
 .text.I2C_DMACmd
                0x08016344       0x40 ./STM32F4xx_StdPeriph_Driver/src/stm32f4xx_i2c.o
                0x08016344                I2C_DMACmd
 .text.I2C_DMALastTransferCmd
                0x08016384       0x40 ./STM32F4xx_StdPeriph_Driver/src/stm32f4xx_i2c.o
                0x08016384                I2C_DMALastTransferCmd
 .text.I2C_ReadRegister
                0x080163c4       0x30 ./STM32F4xx_StdPeriph_Driver/src/stm32f4xx_i2c.o
                0x080163c4                I2C_ReadRegister
 .text.I2C_ITConfig
                0x080163f4       0x48 ./STM32F4xx_StdPeriph_Driver/src/stm32f4xx_i2c.o
                0x080163f4                I2C_ITConfig
 .text.I2C_CheckEvent
                0x0801643c       0x70 ./STM32F4xx_StdPeriph_Driver/src/stm32f4xx_i2c.o
                0x0801643c                I2C_CheckEvent
 .text.I2C_GetLastEvent
                0x080164ac       0x4c ./STM32F4xx_StdPeriph_Driver/src/stm32f4xx_i2c.o
                0x080164ac                I2C_GetLastEvent
 .text.I2C_GetFlagStatus
                0x080164f8       0x78 ./STM32F4xx_StdPeriph_Driver/src/stm32f4xx_i2c.o
                0x080164f8                I2C_GetFlagStatus
 .text.I2C_ClearFlag
                0x08016570       0x30 ./STM32F4xx_StdPeriph_Driver/src/stm32f4xx_i2c.o
                0x08016570                I2C_ClearFlag
 .text.I2C_GetITStatus
                0x080165a0       0x64 ./STM32F4xx_StdPeriph_Driver/src/stm32f4xx_i2c.o
                0x080165a0                I2C_GetITStatus
 .text.I2C_ClearITPendingBit
                0x08016604       0x30 ./STM32F4xx_StdPeriph_Driver/src/stm32f4xx_i2c.o
                0x08016604                I2C_ClearITPendingBit
 .text.IWDG_WriteAccessCmd
                0x08016634       0x20 ./STM32F4xx_StdPeriph_Driver/src/stm32f4xx_iwdg.o
                0x08016634                IWDG_WriteAccessCmd
 .text.IWDG_SetPrescaler
                0x08016654       0x20 ./STM32F4xx_StdPeriph_Driver/src/stm32f4xx_iwdg.o
                0x08016654                IWDG_SetPrescaler
 .text.IWDG_SetReload
                0x08016674       0x20 ./STM32F4xx_StdPeriph_Driver/src/stm32f4xx_iwdg.o
                0x08016674                IWDG_SetReload
 .text.IWDG_ReloadCounter
                0x08016694       0x18 ./STM32F4xx_StdPeriph_Driver/src/stm32f4xx_iwdg.o
                0x08016694                IWDG_ReloadCounter
 .text.IWDG_Enable
                0x080166ac       0x18 ./STM32F4xx_StdPeriph_Driver/src/stm32f4xx_iwdg.o
                0x080166ac                IWDG_Enable
 .text.IWDG_GetFlagStatus
                0x080166c4       0x40 ./STM32F4xx_StdPeriph_Driver/src/stm32f4xx_iwdg.o
                0x080166c4                IWDG_GetFlagStatus
 .text.PWR_DeInit
                0x08016704       0x20 ./STM32F4xx_StdPeriph_Driver/src/stm32f4xx_pwr.o
                0x08016704                PWR_DeInit
 .text.PWR_BackupAccessCmd
                0x08016724       0x20 ./STM32F4xx_StdPeriph_Driver/src/stm32f4xx_pwr.o
                0x08016724                PWR_BackupAccessCmd
 .text.PWR_PVDLevelConfig
                0x08016744       0x40 ./STM32F4xx_StdPeriph_Driver/src/stm32f4xx_pwr.o
                0x08016744                PWR_PVDLevelConfig
 .text.PWR_PVDCmd
                0x08016784       0x20 ./STM32F4xx_StdPeriph_Driver/src/stm32f4xx_pwr.o
                0x08016784                PWR_PVDCmd
 .text.PWR_WakeUpPinCmd
                0x080167a4       0x20 ./STM32F4xx_StdPeriph_Driver/src/stm32f4xx_pwr.o
                0x080167a4                PWR_WakeUpPinCmd
 .text.PWR_BackupRegulatorCmd
                0x080167c4       0x20 ./STM32F4xx_StdPeriph_Driver/src/stm32f4xx_pwr.o
                0x080167c4                PWR_BackupRegulatorCmd
 .text.PWR_HighPerformanceModeCmd
                0x080167e4       0x20 ./STM32F4xx_StdPeriph_Driver/src/stm32f4xx_pwr.o
                0x080167e4                PWR_HighPerformanceModeCmd
 .text.PWR_FlashPowerDownCmd
                0x08016804       0x20 ./STM32F4xx_StdPeriph_Driver/src/stm32f4xx_pwr.o
                0x08016804                PWR_FlashPowerDownCmd
 .text.PWR_EnterSTOPMode
                0x08016824       0x80 ./STM32F4xx_StdPeriph_Driver/src/stm32f4xx_pwr.o
                0x08016824                PWR_EnterSTOPMode
 .text.PWR_EnterSTANDBYMode
                0x080168a4       0x54 ./STM32F4xx_StdPeriph_Driver/src/stm32f4xx_pwr.o
                0x080168a4                PWR_EnterSTANDBYMode
 .text.PWR_GetFlagStatus
                0x080168f8       0x40 ./STM32F4xx_StdPeriph_Driver/src/stm32f4xx_pwr.o
                0x080168f8                PWR_GetFlagStatus
 .text.PWR_ClearFlag
                0x08016938       0x30 ./STM32F4xx_StdPeriph_Driver/src/stm32f4xx_pwr.o
                0x08016938                PWR_ClearFlag
 .text.RCC_DeInit
                0x08016968       0x84 ./STM32F4xx_StdPeriph_Driver/src/stm32f4xx_rcc.o
                0x08016968                RCC_DeInit
 .text.RCC_HSEConfig
                0x080169ec       0x30 ./STM32F4xx_StdPeriph_Driver/src/stm32f4xx_rcc.o
                0x080169ec                RCC_HSEConfig
 .text.RCC_WaitForHSEStartUp
                0x08016a1c       0x64 ./STM32F4xx_StdPeriph_Driver/src/stm32f4xx_rcc.o
                0x08016a1c                RCC_WaitForHSEStartUp
 .text.RCC_AdjustHSICalibrationValue
                0x08016a80       0x48 ./STM32F4xx_StdPeriph_Driver/src/stm32f4xx_rcc.o
                0x08016a80                RCC_AdjustHSICalibrationValue
 .text.RCC_HSICmd
                0x08016ac8       0x20 ./STM32F4xx_StdPeriph_Driver/src/stm32f4xx_rcc.o
                0x08016ac8                RCC_HSICmd
 .text.RCC_LSEConfig
                0x08016ae8       0x60 ./STM32F4xx_StdPeriph_Driver/src/stm32f4xx_rcc.o
                0x08016ae8                RCC_LSEConfig
 .text.RCC_LSICmd
                0x08016b48       0x20 ./STM32F4xx_StdPeriph_Driver/src/stm32f4xx_rcc.o
                0x08016b48                RCC_LSICmd
 .text.RCC_PLLConfig
                0x08016b68       0x48 ./STM32F4xx_StdPeriph_Driver/src/stm32f4xx_rcc.o
                0x08016b68                RCC_PLLConfig
 .text.RCC_PLLCmd
                0x08016bb0       0x20 ./STM32F4xx_StdPeriph_Driver/src/stm32f4xx_rcc.o
                0x08016bb0                RCC_PLLCmd
 .text.RCC_PLLI2SConfig
                0x08016bd0       0x30 ./STM32F4xx_StdPeriph_Driver/src/stm32f4xx_rcc.o
                0x08016bd0                RCC_PLLI2SConfig
 .text.RCC_PLLI2SCmd
                0x08016c00       0x20 ./STM32F4xx_StdPeriph_Driver/src/stm32f4xx_rcc.o
                0x08016c00                RCC_PLLI2SCmd
 .text.RCC_ClockSecuritySystemCmd
                0x08016c20       0x20 ./STM32F4xx_StdPeriph_Driver/src/stm32f4xx_rcc.o
                0x08016c20                RCC_ClockSecuritySystemCmd
 .text.RCC_MCO1Config
                0x08016c40       0x48 ./STM32F4xx_StdPeriph_Driver/src/stm32f4xx_rcc.o
                0x08016c40                RCC_MCO1Config
 .text.RCC_MCO2Config
                0x08016c88       0x48 ./STM32F4xx_StdPeriph_Driver/src/stm32f4xx_rcc.o
                0x08016c88                RCC_MCO2Config
 .text.RCC_SYSCLKConfig
                0x08016cd0       0x40 ./STM32F4xx_StdPeriph_Driver/src/stm32f4xx_rcc.o
                0x08016cd0                RCC_SYSCLKConfig
 .text.RCC_GetSYSCLKSource
                0x08016d10       0x20 ./STM32F4xx_StdPeriph_Driver/src/stm32f4xx_rcc.o
                0x08016d10                RCC_GetSYSCLKSource
 .text.RCC_HCLKConfig
                0x08016d30       0x40 ./STM32F4xx_StdPeriph_Driver/src/stm32f4xx_rcc.o
                0x08016d30                RCC_HCLKConfig
 .text.RCC_PCLK1Config
                0x08016d70       0x40 ./STM32F4xx_StdPeriph_Driver/src/stm32f4xx_rcc.o
                0x08016d70                RCC_PCLK1Config
 .text.RCC_PCLK2Config
                0x08016db0       0x44 ./STM32F4xx_StdPeriph_Driver/src/stm32f4xx_rcc.o
                0x08016db0                RCC_PCLK2Config
 .text.RCC_GetClocksFreq
                0x08016df4      0x1d0 ./STM32F4xx_StdPeriph_Driver/src/stm32f4xx_rcc.o
                0x08016df4                RCC_GetClocksFreq
 .text.RCC_RTCCLKConfig
                0x08016fc4       0x78 ./STM32F4xx_StdPeriph_Driver/src/stm32f4xx_rcc.o
                0x08016fc4                RCC_RTCCLKConfig
 .text.RCC_RTCCLKCmd
                0x0801703c       0x20 ./STM32F4xx_StdPeriph_Driver/src/stm32f4xx_rcc.o
                0x0801703c                RCC_RTCCLKCmd
 .text.RCC_BackupResetCmd
                0x0801705c       0x20 ./STM32F4xx_StdPeriph_Driver/src/stm32f4xx_rcc.o
                0x0801705c                RCC_BackupResetCmd
 .text.RCC_I2SCLKConfig
                0x0801707c       0x20 ./STM32F4xx_StdPeriph_Driver/src/stm32f4xx_rcc.o
                0x0801707c                RCC_I2SCLKConfig
 .text.RCC_AHB1PeriphClockCmd
                0x0801709c       0x58 ./STM32F4xx_StdPeriph_Driver/src/stm32f4xx_rcc.o
                0x0801709c                RCC_AHB1PeriphClockCmd
 .text.RCC_AHB2PeriphClockCmd
                0x080170f4       0x58 ./STM32F4xx_StdPeriph_Driver/src/stm32f4xx_rcc.o
                0x080170f4                RCC_AHB2PeriphClockCmd
 .text.RCC_AHB3PeriphClockCmd
                0x0801714c       0x58 ./STM32F4xx_StdPeriph_Driver/src/stm32f4xx_rcc.o
                0x0801714c                RCC_AHB3PeriphClockCmd
 .text.RCC_APB1PeriphClockCmd
                0x080171a4       0x58 ./STM32F4xx_StdPeriph_Driver/src/stm32f4xx_rcc.o
                0x080171a4                RCC_APB1PeriphClockCmd
 .text.RCC_APB2PeriphClockCmd
                0x080171fc       0x58 ./STM32F4xx_StdPeriph_Driver/src/stm32f4xx_rcc.o
                0x080171fc                RCC_APB2PeriphClockCmd
 .text.RCC_AHB1PeriphResetCmd
                0x08017254       0x58 ./STM32F4xx_StdPeriph_Driver/src/stm32f4xx_rcc.o
                0x08017254                RCC_AHB1PeriphResetCmd
 .text.RCC_AHB2PeriphResetCmd
                0x080172ac       0x58 ./STM32F4xx_StdPeriph_Driver/src/stm32f4xx_rcc.o
                0x080172ac                RCC_AHB2PeriphResetCmd
 .text.RCC_AHB3PeriphResetCmd
                0x08017304       0x58 ./STM32F4xx_StdPeriph_Driver/src/stm32f4xx_rcc.o
                0x08017304                RCC_AHB3PeriphResetCmd
 .text.RCC_APB1PeriphResetCmd
                0x0801735c       0x58 ./STM32F4xx_StdPeriph_Driver/src/stm32f4xx_rcc.o
                0x0801735c                RCC_APB1PeriphResetCmd
 .text.RCC_APB2PeriphResetCmd
                0x080173b4       0x58 ./STM32F4xx_StdPeriph_Driver/src/stm32f4xx_rcc.o
                0x080173b4                RCC_APB2PeriphResetCmd
 .text.RCC_AHB1PeriphClockLPModeCmd
                0x0801740c       0x58 ./STM32F4xx_StdPeriph_Driver/src/stm32f4xx_rcc.o
                0x0801740c                RCC_AHB1PeriphClockLPModeCmd
 .text.RCC_AHB2PeriphClockLPModeCmd
                0x08017464       0x58 ./STM32F4xx_StdPeriph_Driver/src/stm32f4xx_rcc.o
                0x08017464                RCC_AHB2PeriphClockLPModeCmd
 .text.RCC_AHB3PeriphClockLPModeCmd
                0x080174bc       0x58 ./STM32F4xx_StdPeriph_Driver/src/stm32f4xx_rcc.o
                0x080174bc                RCC_AHB3PeriphClockLPModeCmd
 .text.RCC_APB1PeriphClockLPModeCmd
                0x08017514       0x58 ./STM32F4xx_StdPeriph_Driver/src/stm32f4xx_rcc.o
                0x08017514                RCC_APB1PeriphClockLPModeCmd
 .text.RCC_APB2PeriphClockLPModeCmd
                0x0801756c       0x58 ./STM32F4xx_StdPeriph_Driver/src/stm32f4xx_rcc.o
                0x0801756c                RCC_APB2PeriphClockLPModeCmd
 .text.RCC_ITConfig
                0x080175c4       0x60 ./STM32F4xx_StdPeriph_Driver/src/stm32f4xx_rcc.o
                0x080175c4                RCC_ITConfig
 .text.RCC_GetFlagStatus
                0x08017624       0x90 ./STM32F4xx_StdPeriph_Driver/src/stm32f4xx_rcc.o
                0x08017624                RCC_GetFlagStatus
 .text.RCC_ClearFlag
                0x080176b4       0x24 ./STM32F4xx_StdPeriph_Driver/src/stm32f4xx_rcc.o
                0x080176b4                RCC_ClearFlag
 .text.RCC_GetITStatus
                0x080176d8       0x40 ./STM32F4xx_StdPeriph_Driver/src/stm32f4xx_rcc.o
                0x080176d8                RCC_GetITStatus
 .text.RCC_ClearITPendingBit
                0x08017718       0x20 ./STM32F4xx_StdPeriph_Driver/src/stm32f4xx_rcc.o
                0x08017718                RCC_ClearITPendingBit
 .text.RNG_DeInit
                0x08017738       0x20 ./STM32F4xx_StdPeriph_Driver/src/stm32f4xx_rng.o
                0x08017738                RNG_DeInit
 .text.RNG_Cmd  0x08017758       0x4c ./STM32F4xx_StdPeriph_Driver/src/stm32f4xx_rng.o
                0x08017758                RNG_Cmd
 .text.RNG_GetRandomNumber
                0x080177a4       0x18 ./STM32F4xx_StdPeriph_Driver/src/stm32f4xx_rng.o
                0x080177a4                RNG_GetRandomNumber
 .text.RNG_ITConfig
                0x080177bc       0x4c ./STM32F4xx_StdPeriph_Driver/src/stm32f4xx_rng.o
                0x080177bc                RNG_ITConfig
 .text.RNG_GetFlagStatus
                0x08017808       0x40 ./STM32F4xx_StdPeriph_Driver/src/stm32f4xx_rng.o
                0x08017808                RNG_GetFlagStatus
 .text.RNG_ClearFlag
                0x08017848       0x28 ./STM32F4xx_StdPeriph_Driver/src/stm32f4xx_rng.o
                0x08017848                RNG_ClearFlag
 .text.RNG_GetITStatus
                0x08017870       0x40 ./STM32F4xx_StdPeriph_Driver/src/stm32f4xx_rng.o
                0x08017870                RNG_GetITStatus
 .text.RNG_ClearITPendingBit
                0x080178b0       0x28 ./STM32F4xx_StdPeriph_Driver/src/stm32f4xx_rng.o
                0x080178b0                RNG_ClearITPendingBit
 .text.RTC_DeInit
                0x080178d8      0x16c ./STM32F4xx_StdPeriph_Driver/src/stm32f4xx_rtc.o
                0x080178d8                RTC_DeInit
 .text.RTC_Init
                0x08017a44       0xc4 ./STM32F4xx_StdPeriph_Driver/src/stm32f4xx_rtc.o
                0x08017a44                RTC_Init
 .text.RTC_StructInit
                0x08017b08       0x2c ./STM32F4xx_StdPeriph_Driver/src/stm32f4xx_rtc.o
                0x08017b08                RTC_StructInit
 .text.RTC_WriteProtectionCmd
                0x08017b34       0x48 ./STM32F4xx_StdPeriph_Driver/src/stm32f4xx_rtc.o
                0x08017b34                RTC_WriteProtectionCmd
 .text.RTC_EnterInitMode
                0x08017b7c       0x94 ./STM32F4xx_StdPeriph_Driver/src/stm32f4xx_rtc.o
                0x08017b7c                RTC_EnterInitMode
 .text.RTC_ExitInitMode
                0x08017c10       0x24 ./STM32F4xx_StdPeriph_Driver/src/stm32f4xx_rtc.o
                0x08017c10                RTC_ExitInitMode
 .text.RTC_WaitForSynchro
                0x08017c34       0xb0 ./STM32F4xx_StdPeriph_Driver/src/stm32f4xx_rtc.o
                0x08017c34                RTC_WaitForSynchro
 .text.RTC_RefClockCmd
                0x08017ce4       0x9c ./STM32F4xx_StdPeriph_Driver/src/stm32f4xx_rtc.o
                0x08017ce4                RTC_RefClockCmd
 .text.RTC_BypassShadowCmd
                0x08017d80       0x78 ./STM32F4xx_StdPeriph_Driver/src/stm32f4xx_rtc.o
                0x08017d80                RTC_BypassShadowCmd
 .text.RTC_SetTime
                0x08017df8      0x148 ./STM32F4xx_StdPeriph_Driver/src/stm32f4xx_rtc.o
                0x08017df8                RTC_SetTime
 .text.RTC_TimeStructInit
                0x08017f40       0x34 ./STM32F4xx_StdPeriph_Driver/src/stm32f4xx_rtc.o
                0x08017f40                RTC_TimeStructInit
 .text.RTC_GetTime
                0x08017f74       0xac ./STM32F4xx_StdPeriph_Driver/src/stm32f4xx_rtc.o
                0x08017f74                RTC_GetTime
 .text.RTC_GetSubSecond
                0x08018020       0x30 ./STM32F4xx_StdPeriph_Driver/src/stm32f4xx_rtc.o
                0x08018020                RTC_GetSubSecond
 .text.RTC_SetDate
                0x08018050      0x140 ./STM32F4xx_StdPeriph_Driver/src/stm32f4xx_rtc.o
                0x08018050                RTC_SetDate
 .text.RTC_DateStructInit
                0x08018190       0x34 ./STM32F4xx_StdPeriph_Driver/src/stm32f4xx_rtc.o
                0x08018190                RTC_DateStructInit
 .text.RTC_GetDate
                0x080181c4       0xb0 ./STM32F4xx_StdPeriph_Driver/src/stm32f4xx_rtc.o
                0x080181c4                RTC_GetDate
 .text.RTC_SetAlarm
                0x08018274      0x17c ./STM32F4xx_StdPeriph_Driver/src/stm32f4xx_rtc.o
                0x08018274                RTC_SetAlarm
 .text.RTC_AlarmStructInit
                0x080183f0       0x4c ./STM32F4xx_StdPeriph_Driver/src/stm32f4xx_rtc.o
                0x080183f0                RTC_AlarmStructInit
 .text.RTC_GetAlarm
                0x0801843c       0xec ./STM32F4xx_StdPeriph_Driver/src/stm32f4xx_rtc.o
                0x0801843c                RTC_GetAlarm
 .text.RTC_AlarmCmd
                0x08018528       0xf0 ./STM32F4xx_StdPeriph_Driver/src/stm32f4xx_rtc.o
                0x08018528                RTC_AlarmCmd
 .text.RTC_AlarmSubSecondConfig
                0x08018618       0x70 ./STM32F4xx_StdPeriph_Driver/src/stm32f4xx_rtc.o
                0x08018618                RTC_AlarmSubSecondConfig
 .text.RTC_GetAlarmSubSecond
                0x08018688       0x50 ./STM32F4xx_StdPeriph_Driver/src/stm32f4xx_rtc.o
                0x08018688                RTC_GetAlarmSubSecond
 .text.RTC_WakeUpClockConfig
                0x080186d8       0x70 ./STM32F4xx_StdPeriph_Driver/src/stm32f4xx_rtc.o
                0x080186d8                RTC_WakeUpClockConfig
 .text.RTC_SetWakeUpCounter
                0x08018748       0x48 ./STM32F4xx_StdPeriph_Driver/src/stm32f4xx_rtc.o
                0x08018748                RTC_SetWakeUpCounter
 .text.RTC_GetWakeUpCounter
                0x08018790       0x20 ./STM32F4xx_StdPeriph_Driver/src/stm32f4xx_rtc.o
                0x08018790                RTC_GetWakeUpCounter
 .text.RTC_WakeUpCmd
                0x080187b0       0xd8 ./STM32F4xx_StdPeriph_Driver/src/stm32f4xx_rtc.o
                0x080187b0                RTC_WakeUpCmd
 .text.RTC_DayLightSavingConfig
                0x08018888       0x74 ./STM32F4xx_StdPeriph_Driver/src/stm32f4xx_rtc.o
                0x08018888                RTC_DayLightSavingConfig
 .text.RTC_GetStoreOperation
                0x080188fc       0x1c ./STM32F4xx_StdPeriph_Driver/src/stm32f4xx_rtc.o
                0x080188fc                RTC_GetStoreOperation
 .text.RTC_OutputConfig
                0x08018918       0x74 ./STM32F4xx_StdPeriph_Driver/src/stm32f4xx_rtc.o
                0x08018918                RTC_OutputConfig
 .text.RTC_CoarseCalibConfig
                0x0801898c       0x74 ./STM32F4xx_StdPeriph_Driver/src/stm32f4xx_rtc.o
                0x0801898c                RTC_CoarseCalibConfig
 .text.RTC_CoarseCalibCmd
                0x08018a00       0x9c ./STM32F4xx_StdPeriph_Driver/src/stm32f4xx_rtc.o
                0x08018a00                RTC_CoarseCalibCmd
 .text.RTC_CalibOutputCmd
                0x08018a9c       0x78 ./STM32F4xx_StdPeriph_Driver/src/stm32f4xx_rtc.o
                0x08018a9c                RTC_CalibOutputCmd
 .text.RTC_CalibOutputConfig
                0x08018b14       0x70 ./STM32F4xx_StdPeriph_Driver/src/stm32f4xx_rtc.o
                0x08018b14                RTC_CalibOutputConfig
 .text.RTC_SmoothCalibConfig
                0x08018b84       0xbc ./STM32F4xx_StdPeriph_Driver/src/stm32f4xx_rtc.o
                0x08018b84                RTC_SmoothCalibConfig
 .text.RTC_TimeStampCmd
                0x08018c40       0x84 ./STM32F4xx_StdPeriph_Driver/src/stm32f4xx_rtc.o
                0x08018c40                RTC_TimeStampCmd
 .text.RTC_GetTimeStamp
                0x08018cc4      0x134 ./STM32F4xx_StdPeriph_Driver/src/stm32f4xx_rtc.o
                0x08018cc4                RTC_GetTimeStamp
 .text.RTC_GetTimeStampSubSecond
                0x08018df8       0x18 ./STM32F4xx_StdPeriph_Driver/src/stm32f4xx_rtc.o
                0x08018df8                RTC_GetTimeStampSubSecond
 .text.RTC_TamperTriggerConfig
                0x08018e10       0x5c ./STM32F4xx_StdPeriph_Driver/src/stm32f4xx_rtc.o
                0x08018e10                RTC_TamperTriggerConfig
 .text.RTC_TamperCmd
                0x08018e6c       0x58 ./STM32F4xx_StdPeriph_Driver/src/stm32f4xx_rtc.o
                0x08018e6c                RTC_TamperCmd
 .text.RTC_TamperFilterConfig
                0x08018ec4       0x44 ./STM32F4xx_StdPeriph_Driver/src/stm32f4xx_rtc.o
                0x08018ec4                RTC_TamperFilterConfig
 .text.RTC_TamperSamplingFreqConfig
                0x08018f08       0x44 ./STM32F4xx_StdPeriph_Driver/src/stm32f4xx_rtc.o
                0x08018f08                RTC_TamperSamplingFreqConfig
 .text.RTC_TamperPinsPrechargeDuration
                0x08018f4c       0x44 ./STM32F4xx_StdPeriph_Driver/src/stm32f4xx_rtc.o
                0x08018f4c                RTC_TamperPinsPrechargeDuration
 .text.RTC_TimeStampOnTamperDetectionCmd
                0x08018f90       0x4c ./STM32F4xx_StdPeriph_Driver/src/stm32f4xx_rtc.o
                0x08018f90                RTC_TimeStampOnTamperDetectionCmd
 .text.RTC_TamperPullUpCmd
                0x08018fdc       0x4c ./STM32F4xx_StdPeriph_Driver/src/stm32f4xx_rtc.o
                0x08018fdc                RTC_TamperPullUpCmd
 .text.RTC_WriteBackupRegister
                0x08019028       0x38 ./STM32F4xx_StdPeriph_Driver/src/stm32f4xx_rtc.o
                0x08019028                RTC_WriteBackupRegister
 .text.RTC_ReadBackupRegister
                0x08019060       0x34 ./STM32F4xx_StdPeriph_Driver/src/stm32f4xx_rtc.o
                0x08019060                RTC_ReadBackupRegister
 .text.RTC_TamperPinSelection
                0x08019094       0x44 ./STM32F4xx_StdPeriph_Driver/src/stm32f4xx_rtc.o
                0x08019094                RTC_TamperPinSelection
 .text.RTC_TimeStampPinSelection
                0x080190d8       0x44 ./STM32F4xx_StdPeriph_Driver/src/stm32f4xx_rtc.o
                0x080190d8                RTC_TimeStampPinSelection
 .text.RTC_OutputTypeConfig
                0x0801911c       0x44 ./STM32F4xx_StdPeriph_Driver/src/stm32f4xx_rtc.o
                0x0801911c                RTC_OutputTypeConfig
 .text.RTC_SynchroShiftConfig
                0x08019160       0xe0 ./STM32F4xx_StdPeriph_Driver/src/stm32f4xx_rtc.o
                0x08019160                RTC_SynchroShiftConfig
 .text.RTC_ITConfig
                0x08019240       0xc8 ./STM32F4xx_StdPeriph_Driver/src/stm32f4xx_rtc.o
                0x08019240                RTC_ITConfig
 .text.RTC_GetFlagStatus
                0x08019308       0x50 ./STM32F4xx_StdPeriph_Driver/src/stm32f4xx_rtc.o
                0x08019308                RTC_GetFlagStatus
 .text.RTC_ClearFlag
                0x08019358       0x40 ./STM32F4xx_StdPeriph_Driver/src/stm32f4xx_rtc.o
                0x08019358                RTC_ClearFlag
 .text.RTC_GetITStatus
                0x08019398       0x90 ./STM32F4xx_StdPeriph_Driver/src/stm32f4xx_rtc.o
                0x08019398                RTC_GetITStatus
 .text.RTC_ClearITPendingBit
                0x08019428       0x4c ./STM32F4xx_StdPeriph_Driver/src/stm32f4xx_rtc.o
                0x08019428                RTC_ClearITPendingBit
 .text.RTC_ByteToBcd2
                0x08019474       0x44 ./STM32F4xx_StdPeriph_Driver/src/stm32f4xx_rtc.o
 .text.RTC_Bcd2ToByte
                0x080194b8       0x40 ./STM32F4xx_StdPeriph_Driver/src/stm32f4xx_rtc.o
 .text.SDIO_DeInit
                0x080194f8       0x20 ./STM32F4xx_StdPeriph_Driver/src/stm32f4xx_sdio.o
                0x080194f8                SDIO_DeInit
 .text.SDIO_Init
                0x08019518       0x68 ./STM32F4xx_StdPeriph_Driver/src/stm32f4xx_sdio.o
                0x08019518                SDIO_Init
 .text.SDIO_StructInit
                0x08019580       0x44 ./STM32F4xx_StdPeriph_Driver/src/stm32f4xx_sdio.o
                0x08019580                SDIO_StructInit
 .text.SDIO_ClockCmd
                0x080195c4       0x20 ./STM32F4xx_StdPeriph_Driver/src/stm32f4xx_sdio.o
                0x080195c4                SDIO_ClockCmd
 .text.SDIO_SetPowerState
                0x080195e4       0x20 ./STM32F4xx_StdPeriph_Driver/src/stm32f4xx_sdio.o
                0x080195e4                SDIO_SetPowerState
 .text.SDIO_GetPowerState
                0x08019604       0x1c ./STM32F4xx_StdPeriph_Driver/src/stm32f4xx_sdio.o
                0x08019604                SDIO_GetPowerState
 .text.SDIO_SendCommand
                0x08019620       0x68 ./STM32F4xx_StdPeriph_Driver/src/stm32f4xx_sdio.o
                0x08019620                SDIO_SendCommand
 .text.SDIO_CmdStructInit
                0x08019688       0x3c ./STM32F4xx_StdPeriph_Driver/src/stm32f4xx_sdio.o
                0x08019688                SDIO_CmdStructInit
 .text.SDIO_GetCommandResponse
                0x080196c4       0x18 ./STM32F4xx_StdPeriph_Driver/src/stm32f4xx_sdio.o
                0x080196c4                SDIO_GetCommandResponse
 .text.SDIO_GetResponse
                0x080196dc       0x2c ./STM32F4xx_StdPeriph_Driver/src/stm32f4xx_sdio.o
                0x080196dc                SDIO_GetResponse
 .text.SDIO_DataConfig
                0x08019708       0x70 ./STM32F4xx_StdPeriph_Driver/src/stm32f4xx_sdio.o
                0x08019708                SDIO_DataConfig
 .text.SDIO_DataStructInit
                0x08019778       0x44 ./STM32F4xx_StdPeriph_Driver/src/stm32f4xx_sdio.o
                0x08019778                SDIO_DataStructInit
 .text.SDIO_GetDataCounter
                0x080197bc       0x18 ./STM32F4xx_StdPeriph_Driver/src/stm32f4xx_sdio.o
                0x080197bc                SDIO_GetDataCounter
 .text.SDIO_ReadData
                0x080197d4       0x18 ./STM32F4xx_StdPeriph_Driver/src/stm32f4xx_sdio.o
                0x080197d4                SDIO_ReadData
 .text.SDIO_WriteData
                0x080197ec       0x20 ./STM32F4xx_StdPeriph_Driver/src/stm32f4xx_sdio.o
                0x080197ec                SDIO_WriteData
 .text.SDIO_GetFIFOCount
                0x0801980c       0x18 ./STM32F4xx_StdPeriph_Driver/src/stm32f4xx_sdio.o
                0x0801980c                SDIO_GetFIFOCount
 .text.SDIO_StartSDIOReadWait
                0x08019824       0x20 ./STM32F4xx_StdPeriph_Driver/src/stm32f4xx_sdio.o
                0x08019824                SDIO_StartSDIOReadWait
 .text.SDIO_StopSDIOReadWait
                0x08019844       0x20 ./STM32F4xx_StdPeriph_Driver/src/stm32f4xx_sdio.o
                0x08019844                SDIO_StopSDIOReadWait
 .text.SDIO_SetSDIOReadWaitMode
                0x08019864       0x20 ./STM32F4xx_StdPeriph_Driver/src/stm32f4xx_sdio.o
                0x08019864                SDIO_SetSDIOReadWaitMode
 .text.SDIO_SetSDIOOperation
                0x08019884       0x20 ./STM32F4xx_StdPeriph_Driver/src/stm32f4xx_sdio.o
                0x08019884                SDIO_SetSDIOOperation
 .text.SDIO_SendSDIOSuspendCmd
                0x080198a4       0x20 ./STM32F4xx_StdPeriph_Driver/src/stm32f4xx_sdio.o
                0x080198a4                SDIO_SendSDIOSuspendCmd
 .text.SDIO_CommandCompletionCmd
                0x080198c4       0x20 ./STM32F4xx_StdPeriph_Driver/src/stm32f4xx_sdio.o
                0x080198c4                SDIO_CommandCompletionCmd
 .text.SDIO_CEATAITCmd
                0x080198e4       0x2c ./STM32F4xx_StdPeriph_Driver/src/stm32f4xx_sdio.o
                0x080198e4                SDIO_CEATAITCmd
 .text.SDIO_SendCEATACmd
                0x08019910       0x20 ./STM32F4xx_StdPeriph_Driver/src/stm32f4xx_sdio.o
                0x08019910                SDIO_SendCEATACmd
 .text.SDIO_DMACmd
                0x08019930       0x20 ./STM32F4xx_StdPeriph_Driver/src/stm32f4xx_sdio.o
                0x08019930                SDIO_DMACmd
 .text.SDIO_ITConfig
                0x08019950       0x58 ./STM32F4xx_StdPeriph_Driver/src/stm32f4xx_sdio.o
                0x08019950                SDIO_ITConfig
 .text.SDIO_GetFlagStatus
                0x080199a8       0x40 ./STM32F4xx_StdPeriph_Driver/src/stm32f4xx_sdio.o
                0x080199a8                SDIO_GetFlagStatus
 .text.SDIO_ClearFlag
                0x080199e8       0x20 ./STM32F4xx_StdPeriph_Driver/src/stm32f4xx_sdio.o
                0x080199e8                SDIO_ClearFlag
 .text.SDIO_GetITStatus
                0x08019a08       0x40 ./STM32F4xx_StdPeriph_Driver/src/stm32f4xx_sdio.o
                0x08019a08                SDIO_GetITStatus
 .text.SDIO_ClearITPendingBit
                0x08019a48       0x20 ./STM32F4xx_StdPeriph_Driver/src/stm32f4xx_sdio.o
                0x08019a48                SDIO_ClearITPendingBit
 .text.SPI_I2S_DeInit
                0x08019a68       0x88 ./STM32F4xx_StdPeriph_Driver/src/stm32f4xx_spi.o
                0x08019a68                SPI_I2S_DeInit
 .text.SPI_Init
                0x08019af0       0x88 ./STM32F4xx_StdPeriph_Driver/src/stm32f4xx_spi.o
                0x08019af0                SPI_Init
 .text.I2S_Init
                0x08019b78      0x214 ./STM32F4xx_StdPeriph_Driver/src/stm32f4xx_spi.o
                0x08019b78                I2S_Init
 .text.SPI_StructInit
                0x08019d8c       0x5c ./STM32F4xx_StdPeriph_Driver/src/stm32f4xx_spi.o
                0x08019d8c                SPI_StructInit
 .text.I2S_StructInit
                0x08019de8       0x44 ./STM32F4xx_StdPeriph_Driver/src/stm32f4xx_spi.o
                0x08019de8                I2S_StructInit
 .text.SPI_Cmd  0x08019e2c       0x40 ./STM32F4xx_StdPeriph_Driver/src/stm32f4xx_spi.o
                0x08019e2c                SPI_Cmd
 .text.I2S_Cmd  0x08019e6c       0x40 ./STM32F4xx_StdPeriph_Driver/src/stm32f4xx_spi.o
                0x08019e6c                I2S_Cmd
 .text.SPI_DataSizeConfig
                0x08019eac       0x38 ./STM32F4xx_StdPeriph_Driver/src/stm32f4xx_spi.o
                0x08019eac                SPI_DataSizeConfig
 .text.SPI_BiDirectionalLineConfig
                0x08019ee4       0x40 ./STM32F4xx_StdPeriph_Driver/src/stm32f4xx_spi.o
                0x08019ee4                SPI_BiDirectionalLineConfig
 .text.SPI_NSSInternalSoftwareConfig
                0x08019f24       0x44 ./STM32F4xx_StdPeriph_Driver/src/stm32f4xx_spi.o
                0x08019f24                SPI_NSSInternalSoftwareConfig
 .text.SPI_SSOutputCmd
                0x08019f68       0x40 ./STM32F4xx_StdPeriph_Driver/src/stm32f4xx_spi.o
                0x08019f68                SPI_SSOutputCmd
 .text.SPI_TIModeCmd
                0x08019fa8       0x40 ./STM32F4xx_StdPeriph_Driver/src/stm32f4xx_spi.o
                0x08019fa8                SPI_TIModeCmd
 .text.I2S_FullDuplexConfig
                0x08019fe8       0xa4 ./STM32F4xx_StdPeriph_Driver/src/stm32f4xx_spi.o
                0x08019fe8                I2S_FullDuplexConfig
 .text.SPI_I2S_ReceiveData
                0x0801a08c       0x1c ./STM32F4xx_StdPeriph_Driver/src/stm32f4xx_spi.o
                0x0801a08c                SPI_I2S_ReceiveData
 .text.SPI_I2S_SendData
                0x0801a0a8       0x1c ./STM32F4xx_StdPeriph_Driver/src/stm32f4xx_spi.o
                0x0801a0a8                SPI_I2S_SendData
 .text.SPI_CalculateCRC
                0x0801a0c4       0x40 ./STM32F4xx_StdPeriph_Driver/src/stm32f4xx_spi.o
                0x0801a0c4                SPI_CalculateCRC
 .text.SPI_TransmitCRC
                0x0801a104       0x24 ./STM32F4xx_StdPeriph_Driver/src/stm32f4xx_spi.o
                0x0801a104                SPI_TransmitCRC
 .text.SPI_GetCRC
                0x0801a128       0x34 ./STM32F4xx_StdPeriph_Driver/src/stm32f4xx_spi.o
                0x0801a128                SPI_GetCRC
 .text.SPI_GetCRCPolynomial
                0x0801a15c       0x1c ./STM32F4xx_StdPeriph_Driver/src/stm32f4xx_spi.o
                0x0801a15c                SPI_GetCRCPolynomial
 .text.SPI_I2S_DMACmd
                0x0801a178       0x48 ./STM32F4xx_StdPeriph_Driver/src/stm32f4xx_spi.o
                0x0801a178                SPI_I2S_DMACmd
 .text.SPI_I2S_ITConfig
                0x0801a1c0       0x6c ./STM32F4xx_StdPeriph_Driver/src/stm32f4xx_spi.o
                0x0801a1c0                SPI_I2S_ITConfig
 .text.SPI_I2S_GetFlagStatus
                0x0801a22c       0x40 ./STM32F4xx_StdPeriph_Driver/src/stm32f4xx_spi.o
                0x0801a22c                SPI_I2S_GetFlagStatus
 .text.SPI_I2S_ClearFlag
                0x0801a26c       0x24 ./STM32F4xx_StdPeriph_Driver/src/stm32f4xx_spi.o
                0x0801a26c                SPI_I2S_ClearFlag
 .text.SPI_I2S_GetITStatus
                0x0801a290       0x88 ./STM32F4xx_StdPeriph_Driver/src/stm32f4xx_spi.o
                0x0801a290                SPI_I2S_GetITStatus
 .text.SPI_I2S_ClearITPendingBit
                0x0801a318       0x38 ./STM32F4xx_StdPeriph_Driver/src/stm32f4xx_spi.o
                0x0801a318                SPI_I2S_ClearITPendingBit
 .text.SYSCFG_DeInit
                0x0801a350       0x20 ./STM32F4xx_StdPeriph_Driver/src/stm32f4xx_syscfg.o
                0x0801a350                SYSCFG_DeInit
 .text.SYSCFG_MemoryRemapConfig
                0x0801a370       0x20 ./STM32F4xx_StdPeriph_Driver/src/stm32f4xx_syscfg.o
                0x0801a370                SYSCFG_MemoryRemapConfig
 .text.SYSCFG_EXTILineConfig
                0x0801a390       0xb4 ./STM32F4xx_StdPeriph_Driver/src/stm32f4xx_syscfg.o
                0x0801a390                SYSCFG_EXTILineConfig
 .text.SYSCFG_ETH_MediaInterfaceConfig
                0x0801a444       0x20 ./STM32F4xx_StdPeriph_Driver/src/stm32f4xx_syscfg.o
                0x0801a444                SYSCFG_ETH_MediaInterfaceConfig
 .text.SYSCFG_CompensationCellCmd
                0x0801a464       0x20 ./STM32F4xx_StdPeriph_Driver/src/stm32f4xx_syscfg.o
                0x0801a464                SYSCFG_CompensationCellCmd
 .text.SYSCFG_GetCompensationCellStatus
                0x0801a484       0x3c ./STM32F4xx_StdPeriph_Driver/src/stm32f4xx_syscfg.o
                0x0801a484                SYSCFG_GetCompensationCellStatus
 .text.TIM_DeInit
                0x0801a4c0      0x238 ./STM32F4xx_StdPeriph_Driver/src/stm32f4xx_tim.o
                0x0801a4c0                TIM_DeInit
 .text.TIM_TimeBaseInit
                0x0801a6f8       0xf4 ./STM32F4xx_StdPeriph_Driver/src/stm32f4xx_tim.o
                0x0801a6f8                TIM_TimeBaseInit
 .text.TIM_TimeBaseStructInit
                0x0801a7ec       0x3c ./STM32F4xx_StdPeriph_Driver/src/stm32f4xx_tim.o
                0x0801a7ec                TIM_TimeBaseStructInit
 .text.TIM_PrescalerConfig
                0x0801a828       0x28 ./STM32F4xx_StdPeriph_Driver/src/stm32f4xx_tim.o
                0x0801a828                TIM_PrescalerConfig
 .text.TIM_CounterModeConfig
                0x0801a850       0x38 ./STM32F4xx_StdPeriph_Driver/src/stm32f4xx_tim.o
                0x0801a850                TIM_CounterModeConfig
 .text.TIM_SetCounter
                0x0801a888       0x1c ./STM32F4xx_StdPeriph_Driver/src/stm32f4xx_tim.o
                0x0801a888                TIM_SetCounter
 .text.TIM_SetAutoreload
                0x0801a8a4       0x1c ./STM32F4xx_StdPeriph_Driver/src/stm32f4xx_tim.o
                0x0801a8a4                TIM_SetAutoreload
 .text.TIM_GetCounter
                0x0801a8c0       0x18 ./STM32F4xx_StdPeriph_Driver/src/stm32f4xx_tim.o
                0x0801a8c0                TIM_GetCounter
 .text.TIM_GetPrescaler
                0x0801a8d8       0x1c ./STM32F4xx_StdPeriph_Driver/src/stm32f4xx_tim.o
                0x0801a8d8                TIM_GetPrescaler
 .text.TIM_UpdateDisableConfig
                0x0801a8f4       0x40 ./STM32F4xx_StdPeriph_Driver/src/stm32f4xx_tim.o
                0x0801a8f4                TIM_UpdateDisableConfig
 .text.TIM_UpdateRequestConfig
                0x0801a934       0x40 ./STM32F4xx_StdPeriph_Driver/src/stm32f4xx_tim.o
                0x0801a934                TIM_UpdateRequestConfig
 .text.TIM_ARRPreloadConfig
                0x0801a974       0x40 ./STM32F4xx_StdPeriph_Driver/src/stm32f4xx_tim.o
                0x0801a974                TIM_ARRPreloadConfig
 .text.TIM_SelectOnePulseMode
                0x0801a9b4       0x38 ./STM32F4xx_StdPeriph_Driver/src/stm32f4xx_tim.o
                0x0801a9b4                TIM_SelectOnePulseMode
 .text.TIM_SetClockDivision
                0x0801a9ec       0x38 ./STM32F4xx_StdPeriph_Driver/src/stm32f4xx_tim.o
                0x0801a9ec                TIM_SetClockDivision
 .text.TIM_Cmd  0x0801aa24       0x40 ./STM32F4xx_StdPeriph_Driver/src/stm32f4xx_tim.o
                0x0801aa24                TIM_Cmd
 .text.TIM_OC1Init
                0x0801aa64       0xfc ./STM32F4xx_StdPeriph_Driver/src/stm32f4xx_tim.o
                0x0801aa64                TIM_OC1Init
 .text.TIM_OC2Init
                0x0801ab60      0x128 ./STM32F4xx_StdPeriph_Driver/src/stm32f4xx_tim.o
                0x0801ab60                TIM_OC2Init
 .text.TIM_OC3Init
                0x0801ac88      0x120 ./STM32F4xx_StdPeriph_Driver/src/stm32f4xx_tim.o
                0x0801ac88                TIM_OC3Init
 .text.TIM_OC4Init
                0x0801ada8       0xe0 ./STM32F4xx_StdPeriph_Driver/src/stm32f4xx_tim.o
                0x0801ada8                TIM_OC4Init
 .text.TIM_OCStructInit
                0x0801ae88       0x54 ./STM32F4xx_StdPeriph_Driver/src/stm32f4xx_tim.o
                0x0801ae88                TIM_OCStructInit
 .text.TIM_SelectOCxM
                0x0801aedc       0xc0 ./STM32F4xx_StdPeriph_Driver/src/stm32f4xx_tim.o
                0x0801aedc                TIM_SelectOCxM
 .text.TIM_SetCompare1
                0x0801af9c       0x1c ./STM32F4xx_StdPeriph_Driver/src/stm32f4xx_tim.o
                0x0801af9c                TIM_SetCompare1
 .text.TIM_SetCompare2
                0x0801afb8       0x1c ./STM32F4xx_StdPeriph_Driver/src/stm32f4xx_tim.o
                0x0801afb8                TIM_SetCompare2
 .text.TIM_SetCompare3
                0x0801afd4       0x1c ./STM32F4xx_StdPeriph_Driver/src/stm32f4xx_tim.o
                0x0801afd4                TIM_SetCompare3
 .text.TIM_SetCompare4
                0x0801aff0       0x1c ./STM32F4xx_StdPeriph_Driver/src/stm32f4xx_tim.o
                0x0801aff0                TIM_SetCompare4
 .text.TIM_ForcedOC1Config
                0x0801b00c       0x38 ./STM32F4xx_StdPeriph_Driver/src/stm32f4xx_tim.o
                0x0801b00c                TIM_ForcedOC1Config
 .text.TIM_ForcedOC2Config
                0x0801b044       0x40 ./STM32F4xx_StdPeriph_Driver/src/stm32f4xx_tim.o
                0x0801b044                TIM_ForcedOC2Config
 .text.TIM_ForcedOC3Config
                0x0801b084       0x38 ./STM32F4xx_StdPeriph_Driver/src/stm32f4xx_tim.o
                0x0801b084                TIM_ForcedOC3Config
 .text.TIM_ForcedOC4Config
                0x0801b0bc       0x40 ./STM32F4xx_StdPeriph_Driver/src/stm32f4xx_tim.o
                0x0801b0bc                TIM_ForcedOC4Config
 .text.TIM_OC1PreloadConfig
                0x0801b0fc       0x38 ./STM32F4xx_StdPeriph_Driver/src/stm32f4xx_tim.o
                0x0801b0fc                TIM_OC1PreloadConfig
 .text.TIM_OC2PreloadConfig
                0x0801b134       0x40 ./STM32F4xx_StdPeriph_Driver/src/stm32f4xx_tim.o
                0x0801b134                TIM_OC2PreloadConfig
 .text.TIM_OC3PreloadConfig
                0x0801b174       0x38 ./STM32F4xx_StdPeriph_Driver/src/stm32f4xx_tim.o
                0x0801b174                TIM_OC3PreloadConfig
 .text.TIM_OC4PreloadConfig
                0x0801b1ac       0x40 ./STM32F4xx_StdPeriph_Driver/src/stm32f4xx_tim.o
                0x0801b1ac                TIM_OC4PreloadConfig
 .text.TIM_OC1FastConfig
                0x0801b1ec       0x38 ./STM32F4xx_StdPeriph_Driver/src/stm32f4xx_tim.o
                0x0801b1ec                TIM_OC1FastConfig
 .text.TIM_OC2FastConfig
                0x0801b224       0x40 ./STM32F4xx_StdPeriph_Driver/src/stm32f4xx_tim.o
                0x0801b224                TIM_OC2FastConfig
 .text.TIM_OC3FastConfig
                0x0801b264       0x38 ./STM32F4xx_StdPeriph_Driver/src/stm32f4xx_tim.o
                0x0801b264                TIM_OC3FastConfig
 .text.TIM_OC4FastConfig
                0x0801b29c       0x40 ./STM32F4xx_StdPeriph_Driver/src/stm32f4xx_tim.o
                0x0801b29c                TIM_OC4FastConfig
 .text.TIM_ClearOC1Ref
                0x0801b2dc       0x38 ./STM32F4xx_StdPeriph_Driver/src/stm32f4xx_tim.o
                0x0801b2dc                TIM_ClearOC1Ref
 .text.TIM_ClearOC2Ref
                0x0801b314       0x44 ./STM32F4xx_StdPeriph_Driver/src/stm32f4xx_tim.o
                0x0801b314                TIM_ClearOC2Ref
 .text.TIM_ClearOC3Ref
                0x0801b358       0x38 ./STM32F4xx_StdPeriph_Driver/src/stm32f4xx_tim.o
                0x0801b358                TIM_ClearOC3Ref
 .text.TIM_ClearOC4Ref
                0x0801b390       0x44 ./STM32F4xx_StdPeriph_Driver/src/stm32f4xx_tim.o
                0x0801b390                TIM_ClearOC4Ref
 .text.TIM_OC1PolarityConfig
                0x0801b3d4       0x38 ./STM32F4xx_StdPeriph_Driver/src/stm32f4xx_tim.o
                0x0801b3d4                TIM_OC1PolarityConfig
 .text.TIM_OC1NPolarityConfig
                0x0801b40c       0x38 ./STM32F4xx_StdPeriph_Driver/src/stm32f4xx_tim.o
                0x0801b40c                TIM_OC1NPolarityConfig
 .text.TIM_OC2PolarityConfig
                0x0801b444       0x40 ./STM32F4xx_StdPeriph_Driver/src/stm32f4xx_tim.o
                0x0801b444                TIM_OC2PolarityConfig
 .text.TIM_OC2NPolarityConfig
                0x0801b484       0x40 ./STM32F4xx_StdPeriph_Driver/src/stm32f4xx_tim.o
                0x0801b484                TIM_OC2NPolarityConfig
 .text.TIM_OC3PolarityConfig
                0x0801b4c4       0x40 ./STM32F4xx_StdPeriph_Driver/src/stm32f4xx_tim.o
                0x0801b4c4                TIM_OC3PolarityConfig
 .text.TIM_OC3NPolarityConfig
                0x0801b504       0x40 ./STM32F4xx_StdPeriph_Driver/src/stm32f4xx_tim.o
                0x0801b504                TIM_OC3NPolarityConfig
 .text.TIM_OC4PolarityConfig
                0x0801b544       0x40 ./STM32F4xx_StdPeriph_Driver/src/stm32f4xx_tim.o
                0x0801b544                TIM_OC4PolarityConfig
 .text.TIM_CCxCmd
                0x0801b584       0x5c ./STM32F4xx_StdPeriph_Driver/src/stm32f4xx_tim.o
                0x0801b584                TIM_CCxCmd
 .text.TIM_CCxNCmd
                0x0801b5e0       0x5c ./STM32F4xx_StdPeriph_Driver/src/stm32f4xx_tim.o
                0x0801b5e0                TIM_CCxNCmd
 .text.TIM_ICInit
                0x0801b63c       0xa8 ./STM32F4xx_StdPeriph_Driver/src/stm32f4xx_tim.o
                0x0801b63c                TIM_ICInit
 .text.TIM_ICStructInit
                0x0801b6e4       0x3c ./STM32F4xx_StdPeriph_Driver/src/stm32f4xx_tim.o
                0x0801b6e4                TIM_ICStructInit
 .text.TIM_PWMIConfig
                0x0801b720       0xc4 ./STM32F4xx_StdPeriph_Driver/src/stm32f4xx_tim.o
                0x0801b720                TIM_PWMIConfig
 .text.TIM_GetCapture1
                0x0801b7e4       0x18 ./STM32F4xx_StdPeriph_Driver/src/stm32f4xx_tim.o
                0x0801b7e4                TIM_GetCapture1
 .text.TIM_GetCapture2
                0x0801b7fc       0x18 ./STM32F4xx_StdPeriph_Driver/src/stm32f4xx_tim.o
                0x0801b7fc                TIM_GetCapture2
 .text.TIM_GetCapture3
                0x0801b814       0x18 ./STM32F4xx_StdPeriph_Driver/src/stm32f4xx_tim.o
                0x0801b814                TIM_GetCapture3
 .text.TIM_GetCapture4
                0x0801b82c       0x18 ./STM32F4xx_StdPeriph_Driver/src/stm32f4xx_tim.o
                0x0801b82c                TIM_GetCapture4
 .text.TIM_SetIC1Prescaler
                0x0801b844       0x38 ./STM32F4xx_StdPeriph_Driver/src/stm32f4xx_tim.o
                0x0801b844                TIM_SetIC1Prescaler
 .text.TIM_SetIC2Prescaler
                0x0801b87c       0x3c ./STM32F4xx_StdPeriph_Driver/src/stm32f4xx_tim.o
                0x0801b87c                TIM_SetIC2Prescaler
 .text.TIM_SetIC3Prescaler
                0x0801b8b8       0x38 ./STM32F4xx_StdPeriph_Driver/src/stm32f4xx_tim.o
                0x0801b8b8                TIM_SetIC3Prescaler
 .text.TIM_SetIC4Prescaler
                0x0801b8f0       0x3c ./STM32F4xx_StdPeriph_Driver/src/stm32f4xx_tim.o
                0x0801b8f0                TIM_SetIC4Prescaler
 .text.TIM_BDTRConfig
                0x0801b92c       0x50 ./STM32F4xx_StdPeriph_Driver/src/stm32f4xx_tim.o
                0x0801b92c                TIM_BDTRConfig
 .text.TIM_BDTRStructInit
                0x0801b97c       0x4c ./STM32F4xx_StdPeriph_Driver/src/stm32f4xx_tim.o
                0x0801b97c                TIM_BDTRStructInit
 .text.TIM_CtrlPWMOutputs
                0x0801b9c8       0x50 ./STM32F4xx_StdPeriph_Driver/src/stm32f4xx_tim.o
                0x0801b9c8                TIM_CtrlPWMOutputs
 .text.TIM_SelectCOM
                0x0801ba18       0x40 ./STM32F4xx_StdPeriph_Driver/src/stm32f4xx_tim.o
                0x0801ba18                TIM_SelectCOM
 .text.TIM_CCPreloadControl
                0x0801ba58       0x40 ./STM32F4xx_StdPeriph_Driver/src/stm32f4xx_tim.o
                0x0801ba58                TIM_CCPreloadControl
 .text.TIM_ITConfig
                0x0801ba98       0x48 ./STM32F4xx_StdPeriph_Driver/src/stm32f4xx_tim.o
                0x0801ba98                TIM_ITConfig
 .text.TIM_GenerateEvent
                0x0801bae0       0x1c ./STM32F4xx_StdPeriph_Driver/src/stm32f4xx_tim.o
                0x0801bae0                TIM_GenerateEvent
 .text.TIM_GetFlagStatus
                0x0801bafc       0x40 ./STM32F4xx_StdPeriph_Driver/src/stm32f4xx_tim.o
                0x0801bafc                TIM_GetFlagStatus
 .text.TIM_ClearFlag
                0x0801bb3c       0x24 ./STM32F4xx_StdPeriph_Driver/src/stm32f4xx_tim.o
                0x0801bb3c                TIM_ClearFlag
 .text.TIM_GetITStatus
                0x0801bb60       0x60 ./STM32F4xx_StdPeriph_Driver/src/stm32f4xx_tim.o
                0x0801bb60                TIM_GetITStatus
 .text.TIM_ClearITPendingBit
                0x0801bbc0       0x24 ./STM32F4xx_StdPeriph_Driver/src/stm32f4xx_tim.o
                0x0801bbc0                TIM_ClearITPendingBit
 .text.TIM_DMAConfig
                0x0801bbe4       0x28 ./STM32F4xx_StdPeriph_Driver/src/stm32f4xx_tim.o
                0x0801bbe4                TIM_DMAConfig
 .text.TIM_DMACmd
                0x0801bc0c       0x48 ./STM32F4xx_StdPeriph_Driver/src/stm32f4xx_tim.o
                0x0801bc0c                TIM_DMACmd
 .text.TIM_SelectCCDMA
                0x0801bc54       0x40 ./STM32F4xx_StdPeriph_Driver/src/stm32f4xx_tim.o
                0x0801bc54                TIM_SelectCCDMA
 .text.TIM_InternalClockConfig
                0x0801bc94       0x24 ./STM32F4xx_StdPeriph_Driver/src/stm32f4xx_tim.o
                0x0801bc94                TIM_InternalClockConfig
 .text.TIM_ITRxExternalClockConfig
                0x0801bcb8       0x30 ./STM32F4xx_StdPeriph_Driver/src/stm32f4xx_tim.o
                0x0801bcb8                TIM_ITRxExternalClockConfig
 .text.TIM_TIxExternalClockConfig
                0x0801bce8       0x58 ./STM32F4xx_StdPeriph_Driver/src/stm32f4xx_tim.o
                0x0801bce8                TIM_TIxExternalClockConfig
 .text.TIM_ETRClockMode1Config
                0x0801bd40       0x54 ./STM32F4xx_StdPeriph_Driver/src/stm32f4xx_tim.o
                0x0801bd40                TIM_ETRClockMode1Config
 .text.TIM_ETRClockMode2Config
                0x0801bd94       0x34 ./STM32F4xx_StdPeriph_Driver/src/stm32f4xx_tim.o
                0x0801bd94                TIM_ETRClockMode2Config
 .text.TIM_SelectInputTrigger
                0x0801bdc8       0x38 ./STM32F4xx_StdPeriph_Driver/src/stm32f4xx_tim.o
                0x0801bdc8                TIM_SelectInputTrigger
 .text.TIM_SelectOutputTrigger
                0x0801be00       0x38 ./STM32F4xx_StdPeriph_Driver/src/stm32f4xx_tim.o
                0x0801be00                TIM_SelectOutputTrigger
 .text.TIM_SelectSlaveMode
                0x0801be38       0x38 ./STM32F4xx_StdPeriph_Driver/src/stm32f4xx_tim.o
                0x0801be38                TIM_SelectSlaveMode
 .text.TIM_SelectMasterSlaveMode
                0x0801be70       0x38 ./STM32F4xx_StdPeriph_Driver/src/stm32f4xx_tim.o
                0x0801be70                TIM_SelectMasterSlaveMode
 .text.TIM_ETRConfig
                0x0801bea8       0x4c ./STM32F4xx_StdPeriph_Driver/src/stm32f4xx_tim.o
                0x0801bea8                TIM_ETRConfig
 .text.TIM_EncoderInterfaceConfig
                0x0801bef4       0x94 ./STM32F4xx_StdPeriph_Driver/src/stm32f4xx_tim.o
                0x0801bef4                TIM_EncoderInterfaceConfig
 .text.TIM_SelectHallSensor
                0x0801bf88       0x40 ./STM32F4xx_StdPeriph_Driver/src/stm32f4xx_tim.o
                0x0801bf88                TIM_SelectHallSensor
 .text.TIM_RemapConfig
                0x0801bfc8       0x20 ./STM32F4xx_StdPeriph_Driver/src/stm32f4xx_tim.o
                0x0801bfc8                TIM_RemapConfig
 .text.TI1_Config
                0x0801bfe8       0x80 ./STM32F4xx_StdPeriph_Driver/src/stm32f4xx_tim.o
 .text.TI2_Config
                0x0801c068       0x9c ./STM32F4xx_StdPeriph_Driver/src/stm32f4xx_tim.o
 .text.TI3_Config
                0x0801c104       0x8c ./STM32F4xx_StdPeriph_Driver/src/stm32f4xx_tim.o
 .text.TI4_Config
                0x0801c190       0xa4 ./STM32F4xx_StdPeriph_Driver/src/stm32f4xx_tim.o
 .text.USART_DeInit
                0x0801c234      0x100 ./STM32F4xx_StdPeriph_Driver/src/stm32f4xx_usart.o
                0x0801c234                USART_DeInit
 .text.USART_Init
                0x0801c334      0x1ac ./STM32F4xx_StdPeriph_Driver/src/stm32f4xx_usart.o
                0x0801c334                USART_Init
 .text.USART_StructInit
                0x0801c4e0       0x44 ./STM32F4xx_StdPeriph_Driver/src/stm32f4xx_usart.o
                0x0801c4e0                USART_StructInit
 .text.USART_ClockInit
                0x0801c524       0x54 ./STM32F4xx_StdPeriph_Driver/src/stm32f4xx_usart.o
                0x0801c524                USART_ClockInit
 .text.USART_ClockStructInit
                0x0801c578       0x34 ./STM32F4xx_StdPeriph_Driver/src/stm32f4xx_usart.o
                0x0801c578                USART_ClockStructInit
 .text.USART_Cmd
                0x0801c5ac       0x40 ./STM32F4xx_StdPeriph_Driver/src/stm32f4xx_usart.o
                0x0801c5ac                USART_Cmd
 .text.USART_SetPrescaler
                0x0801c5ec       0x38 ./STM32F4xx_StdPeriph_Driver/src/stm32f4xx_usart.o
                0x0801c5ec                USART_SetPrescaler
 .text.USART_OverSampling8Cmd
                0x0801c624       0x48 ./STM32F4xx_StdPeriph_Driver/src/stm32f4xx_usart.o
                0x0801c624                USART_OverSampling8Cmd
 .text.USART_OneBitMethodCmd
                0x0801c66c       0x40 ./STM32F4xx_StdPeriph_Driver/src/stm32f4xx_usart.o
                0x0801c66c                USART_OneBitMethodCmd
 .text.USART_SendData
                0x0801c6ac       0x28 ./STM32F4xx_StdPeriph_Driver/src/stm32f4xx_usart.o
                0x0801c6ac                USART_SendData
 .text.USART_ReceiveData
                0x0801c6d4       0x24 ./STM32F4xx_StdPeriph_Driver/src/stm32f4xx_usart.o
                0x0801c6d4                USART_ReceiveData
 .text.USART_SetAddress
                0x0801c6f8       0x38 ./STM32F4xx_StdPeriph_Driver/src/stm32f4xx_usart.o
                0x0801c6f8                USART_SetAddress
 .text.USART_ReceiverWakeUpCmd
                0x0801c730       0x40 ./STM32F4xx_StdPeriph_Driver/src/stm32f4xx_usart.o
                0x0801c730                USART_ReceiverWakeUpCmd
 .text.USART_WakeUpConfig
                0x0801c770       0x38 ./STM32F4xx_StdPeriph_Driver/src/stm32f4xx_usart.o
                0x0801c770                USART_WakeUpConfig
 .text.USART_LINBreakDetectLengthConfig
                0x0801c7a8       0x38 ./STM32F4xx_StdPeriph_Driver/src/stm32f4xx_usart.o
                0x0801c7a8                USART_LINBreakDetectLengthConfig
 .text.USART_LINCmd
                0x0801c7e0       0x40 ./STM32F4xx_StdPeriph_Driver/src/stm32f4xx_usart.o
                0x0801c7e0                USART_LINCmd
 .text.USART_SendBreak
                0x0801c820       0x24 ./STM32F4xx_StdPeriph_Driver/src/stm32f4xx_usart.o
                0x0801c820                USART_SendBreak
 .text.USART_HalfDuplexCmd
                0x0801c844       0x40 ./STM32F4xx_StdPeriph_Driver/src/stm32f4xx_usart.o
                0x0801c844                USART_HalfDuplexCmd
 .text.USART_SetGuardTime
                0x0801c884       0x3c ./STM32F4xx_StdPeriph_Driver/src/stm32f4xx_usart.o
                0x0801c884                USART_SetGuardTime
 .text.USART_SmartCardCmd
                0x0801c8c0       0x40 ./STM32F4xx_StdPeriph_Driver/src/stm32f4xx_usart.o
                0x0801c8c0                USART_SmartCardCmd
 .text.USART_SmartCardNACKCmd
                0x0801c900       0x40 ./STM32F4xx_StdPeriph_Driver/src/stm32f4xx_usart.o
                0x0801c900                USART_SmartCardNACKCmd
 .text.USART_IrDAConfig
                0x0801c940       0x38 ./STM32F4xx_StdPeriph_Driver/src/stm32f4xx_usart.o
                0x0801c940                USART_IrDAConfig
 .text.USART_IrDACmd
                0x0801c978       0x40 ./STM32F4xx_StdPeriph_Driver/src/stm32f4xx_usart.o
                0x0801c978                USART_IrDACmd
 .text.USART_DMACmd
                0x0801c9b8       0x48 ./STM32F4xx_StdPeriph_Driver/src/stm32f4xx_usart.o
                0x0801c9b8                USART_DMACmd
 .text.USART_ITConfig
                0x0801ca00       0xa4 ./STM32F4xx_StdPeriph_Driver/src/stm32f4xx_usart.o
                0x0801ca00                USART_ITConfig
 .text.USART_GetFlagStatus
                0x0801caa4       0x40 ./STM32F4xx_StdPeriph_Driver/src/stm32f4xx_usart.o
                0x0801caa4                USART_GetFlagStatus
 .text.USART_ClearFlag
                0x0801cae4       0x24 ./STM32F4xx_StdPeriph_Driver/src/stm32f4xx_usart.o
                0x0801cae4                USART_ClearFlag
 .text.USART_GetITStatus
                0x0801cb08       0xc4 ./STM32F4xx_StdPeriph_Driver/src/stm32f4xx_usart.o
                0x0801cb08                USART_GetITStatus
 .text.USART_ClearITPendingBit
                0x0801cbcc       0x44 ./STM32F4xx_StdPeriph_Driver/src/stm32f4xx_usart.o
                0x0801cbcc                USART_ClearITPendingBit
 .text.WWDG_DeInit
                0x0801cc10       0x20 ./STM32F4xx_StdPeriph_Driver/src/stm32f4xx_wwdg.o
                0x0801cc10                WWDG_DeInit
 .text.WWDG_SetPrescaler
                0x0801cc30       0x3c ./STM32F4xx_StdPeriph_Driver/src/stm32f4xx_wwdg.o
                0x0801cc30                WWDG_SetPrescaler
 .text.WWDG_SetWindowValue
                0x0801cc6c       0x44 ./STM32F4xx_StdPeriph_Driver/src/stm32f4xx_wwdg.o
                0x0801cc6c                WWDG_SetWindowValue
 .text.WWDG_EnableIT
                0x0801ccb0       0x18 ./STM32F4xx_StdPeriph_Driver/src/stm32f4xx_wwdg.o
                0x0801ccb0                WWDG_EnableIT
 .text.WWDG_SetCounter
                0x0801ccc8       0x24 ./STM32F4xx_StdPeriph_Driver/src/stm32f4xx_wwdg.o
                0x0801ccc8                WWDG_SetCounter
 .text.WWDG_Enable
                0x0801ccec       0x28 ./STM32F4xx_StdPeriph_Driver/src/stm32f4xx_wwdg.o
                0x0801ccec                WWDG_Enable
 .text.WWDG_GetFlagStatus
                0x0801cd14       0x38 ./STM32F4xx_StdPeriph_Driver/src/stm32f4xx_wwdg.o
                0x0801cd14                WWDG_GetFlagStatus
 .text.WWDG_ClearFlag
                0x0801cd4c       0x18 ./STM32F4xx_StdPeriph_Driver/src/stm32f4xx_wwdg.o
                0x0801cd4c                WWDG_ClearFlag
 .text.STM_EVAL_LEDInit
                0x0801cd64       0x6c ./STM32F4-Discovery/stm32f4_discovery.o
                0x0801cd64                STM_EVAL_LEDInit
 .text.STM_EVAL_LEDOn
                0x0801cdd0       0x34 ./STM32F4-Discovery/stm32f4_discovery.o
                0x0801cdd0                STM_EVAL_LEDOn
 .text.STM_EVAL_LEDOff
                0x0801ce04       0x34 ./STM32F4-Discovery/stm32f4_discovery.o
                0x0801ce04                STM_EVAL_LEDOff
 .text.STM_EVAL_LEDToggle
                0x0801ce38       0x48 ./STM32F4-Discovery/stm32f4_discovery.o
                0x0801ce38                STM_EVAL_LEDToggle
 .text.STM_EVAL_PBInit
                0x0801ce80       0xec ./STM32F4-Discovery/stm32f4_discovery.o
                0x0801ce80                STM_EVAL_PBInit
 .text.STM_EVAL_PBGetState
                0x0801cf6c       0x3c ./STM32F4-Discovery/stm32f4_discovery.o
                0x0801cf6c                STM_EVAL_PBGetState
 .text.EVAL_AUDIO_SetAudioInterface
                0x0801cfa8      0x170 ./STM32F4-Discovery/stm32f4_discovery_audio_codec.o
                0x0801cfa8                EVAL_AUDIO_SetAudioInterface
 .text.EVAL_AUDIO_Init
                0x0801d118       0x68 ./STM32F4-Discovery/stm32f4_discovery_audio_codec.o
                0x0801d118                EVAL_AUDIO_Init
 .text.EVAL_AUDIO_DeInit
                0x0801d180       0x14 ./STM32F4-Discovery/stm32f4_discovery_audio_codec.o
                0x0801d180                EVAL_AUDIO_DeInit
 .text.EVAL_AUDIO_Play
                0x0801d194       0x98 ./STM32F4-Discovery/stm32f4_discovery_audio_codec.o
                0x0801d194                EVAL_AUDIO_Play
 .text.EVAL_AUDIO_PauseResume
                0x0801d22c       0x34 ./STM32F4-Discovery/stm32f4_discovery_audio_codec.o
                0x0801d22c                EVAL_AUDIO_PauseResume
 .text.EVAL_AUDIO_Stop
                0x0801d260       0x40 ./STM32F4-Discovery/stm32f4_discovery_audio_codec.o
                0x0801d260                EVAL_AUDIO_Stop
 .text.EVAL_AUDIO_VolumeCtl
                0x0801d2a0       0x4c ./STM32F4-Discovery/stm32f4_discovery_audio_codec.o
                0x0801d2a0                EVAL_AUDIO_VolumeCtl
 .text.EVAL_AUDIO_Mute
                0x0801d2ec       0x1c ./STM32F4-Discovery/stm32f4_discovery_audio_codec.o
                0x0801d2ec                EVAL_AUDIO_Mute
 .text.Audio_MAL_IRQHandler
                0x0801d308      0x180 ./STM32F4-Discovery/stm32f4_discovery_audio_codec.o
 .text.DMA1_Stream7_IRQHandler
                0x0801d488        0xc ./STM32F4-Discovery/stm32f4_discovery_audio_codec.o
                0x0801d488                DMA1_Stream7_IRQHandler
 .text.DMA1_Stream0_IRQHandler
                0x0801d494        0xc ./STM32F4-Discovery/stm32f4_discovery_audio_codec.o
                0x0801d494                DMA1_Stream0_IRQHandler
 .text.SPI3_IRQHandler
                0x0801d4a0       0x50 ./STM32F4-Discovery/stm32f4_discovery_audio_codec.o
                0x0801d4a0                SPI3_IRQHandler
 .text.Codec_Init
                0x0801d4f0      0x1a8 ./STM32F4-Discovery/stm32f4_discovery_audio_codec.o
 .text.Codec_DeInit
                0x0801d698       0x3c ./STM32F4-Discovery/stm32f4_discovery_audio_codec.o
 .text.Codec_Play
                0x0801d6d4       0x10 ./STM32F4-Discovery/stm32f4_discovery_audio_codec.o
 .text.Codec_PauseResume
                0x0801d6e4       0x88 ./STM32F4-Discovery/stm32f4_discovery_audio_codec.o
 .text.Codec_Stop
                0x0801d76c       0x70 ./STM32F4-Discovery/stm32f4_discovery_audio_codec.o
 .text.Codec_VolumeCtrl
                0x0801d7dc       0x8c ./STM32F4-Discovery/stm32f4_discovery_audio_codec.o
 .text.Codec_Mute
                0x0801d868       0x54 ./STM32F4-Discovery/stm32f4_discovery_audio_codec.o
 .text.Codec_Reset
                0x0801d8bc       0x38 ./STM32F4-Discovery/stm32f4_discovery_audio_codec.o
 .text.Codec_WriteRegister
                0x0801d8f4      0x23c ./STM32F4-Discovery/stm32f4_discovery_audio_codec.o
 .text.Codec_ReadRegister
                0x0801db30      0x388 ./STM32F4-Discovery/stm32f4_discovery_audio_codec.o
 .text.Codec_CtrlInterface_Init
                0x0801deb8       0x70 ./STM32F4-Discovery/stm32f4_discovery_audio_codec.o
 .text.Codec_CtrlInterface_DeInit
                0x0801df28        0xc ./STM32F4-Discovery/stm32f4_discovery_audio_codec.o
 .text.Codec_AudioInterface_Init
                0x0801df34       0xa4 ./STM32F4-Discovery/stm32f4_discovery_audio_codec.o
 .text.Codec_AudioInterface_DeInit
                0x0801dfd8       0x30 ./STM32F4-Discovery/stm32f4_discovery_audio_codec.o
 .text.Codec_GPIO_Init
                0x0801e008      0x1ac ./STM32F4-Discovery/stm32f4_discovery_audio_codec.o
 .text.Codec_GPIO_DeInit
                0x0801e1b4       0xb8 ./STM32F4-Discovery/stm32f4_discovery_audio_codec.o
 .text.Delay    0x0801e26c       0x24 ./STM32F4-Discovery/stm32f4_discovery_audio_codec.o
 .text.Audio_MAL_Init
                0x0801e290      0x1ec ./STM32F4-Discovery/stm32f4_discovery_audio_codec.o
 .text.Audio_MAL_DeInit
                0x0801e47c       0x5c ./STM32F4-Discovery/stm32f4_discovery_audio_codec.o
 .text.Audio_MAL_Play
                0x0801e4d8       0xd4 ./STM32F4-Discovery/stm32f4_discovery_audio_codec.o
                0x0801e4d8                Audio_MAL_Play
 .text.Audio_MAL_PauseResume
                0x0801e5ac       0x90 ./STM32F4-Discovery/stm32f4_discovery_audio_codec.o
 .text.Audio_MAL_Stop
                0x0801e63c       0x6c ./STM32F4-Discovery/stm32f4_discovery_audio_codec.o
 .text.DAC_Config
                0x0801e6a8       0x78 ./STM32F4-Discovery/stm32f4_discovery_audio_codec.o
                0x0801e6a8                DAC_Config
 .text.LIS302DL_Init
                0x0801e720       0x54 ./STM32F4-Discovery/stm32f4_discovery_lis302dl.o
                0x0801e720                LIS302DL_Init
 .text.LIS302DL_FilterConfig
                0x0801e774       0x60 ./STM32F4-Discovery/stm32f4_discovery_lis302dl.o
                0x0801e774                LIS302DL_FilterConfig
 .text.LIS302DL_InterruptConfig
                0x0801e7d4       0x50 ./STM32F4-Discovery/stm32f4_discovery_lis302dl.o
                0x0801e7d4                LIS302DL_InterruptConfig
 .text.LIS302DL_LowpowerCmd
                0x0801e824       0x4c ./STM32F4-Discovery/stm32f4_discovery_lis302dl.o
                0x0801e824                LIS302DL_LowpowerCmd
 .text.LIS302DL_DataRateCmd
                0x0801e870       0x4c ./STM32F4-Discovery/stm32f4_discovery_lis302dl.o
                0x0801e870                LIS302DL_DataRateCmd
 .text.LIS302DL_FullScaleCmd
                0x0801e8bc       0x4c ./STM32F4-Discovery/stm32f4_discovery_lis302dl.o
                0x0801e8bc                LIS302DL_FullScaleCmd
 .text.LIS302DL_RebootCmd
                0x0801e908       0x3c ./STM32F4-Discovery/stm32f4_discovery_lis302dl.o
                0x0801e908                LIS302DL_RebootCmd
 .text.LIS302DL_Write
                0x0801e944       0x70 ./STM32F4-Discovery/stm32f4_discovery_lis302dl.o
                0x0801e944                LIS302DL_Write
 .text.LIS302DL_Read
                0x0801e9b4       0x80 ./STM32F4-Discovery/stm32f4_discovery_lis302dl.o
                0x0801e9b4                LIS302DL_Read
 .text.LIS302DL_ReadACC
                0x0801ea34       0xd8 ./STM32F4-Discovery/stm32f4_discovery_lis302dl.o
                0x0801ea34                LIS302DL_ReadACC
 .text.LIS302DL_LowLevel_Init
                0x0801eb0c      0x1cc ./STM32F4-Discovery/stm32f4_discovery_lis302dl.o
 .text.LIS302DL_SendByte
                0x0801ecd8       0xe4 ./STM32F4-Discovery/stm32f4_discovery_lis302dl.o
 .text._ZNK5CTask7IsValidEv
                0x0801edbc       0x24 ./Menue/CMenue.o
                0x0801edbc                CTask::IsValid() const
 .text._ZN5CTask6DetachEv
                0x0801ede0       0x24 ./Menue/CMenue.o
                0x0801ede0                CTask::Detach()
 .text._ZN12AManagedTask8OnCreateEPKctm
                0x0801ee04       0x20 ./Menue/CMenue.o
                0x0801ee04                AManagedTask::OnCreate(char const*, unsigned short, unsigned long)
 .text._ZN6CMenueC2EP11CGraphicLCD
                0x0801ee24       0x30 ./Menue/CMenue.o
                0x0801ee24                CMenue::CMenue(CGraphicLCD*)
                0x0801ee24                CMenue::CMenue(CGraphicLCD*)
 .text._ZN6CMenueD2Ev
                0x0801ee54       0x38 ./Menue/CMenue.o
                0x0801ee54                CMenue::~CMenue()
                0x0801ee54                CMenue::~CMenue()
 .text._ZN6CMenueD0Ev
                0x0801ee8c       0x20 ./Menue/CMenue.o
                0x0801ee8c                CMenue::~CMenue()
 .text._ZN6CMenue12HardwareInitEv
                0x0801eeac       0x18 ./Menue/CMenue.o
                0x0801eeac                CMenue::HardwareInit()
 .text._ZN6CMenue3RunEv
                0x0801eec4       0xd4 ./Menue/CMenue.o
                0x0801eec4                CMenue::Run()
 .text._ZN11CGraphicLCDC2Ev
                0x0801ef98       0x28 ./GraphicLCD/CGraphicLCD.o
                0x0801ef98                CGraphicLCD::CGraphicLCD()
                0x0801ef98                CGraphicLCD::CGraphicLCD()
 .text._ZN11CGraphicLCDC2Eb
                0x0801efc0       0x2c ./GraphicLCD/CGraphicLCD.o
                0x0801efc0                CGraphicLCD::CGraphicLCD(bool)
                0x0801efc0                CGraphicLCD::CGraphicLCD(bool)
 .text._ZN11CGraphicLCDD2Ev
                0x0801efec       0x34 ./GraphicLCD/CGraphicLCD.o
                0x0801efec                CGraphicLCD::~CGraphicLCD()
                0x0801efec                CGraphicLCD::~CGraphicLCD()
 .text._ZN11CGraphicLCDD0Ev
                0x0801f020       0x20 ./GraphicLCD/CGraphicLCD.o
                0x0801f020                CGraphicLCD::~CGraphicLCD()
 .text._ZN11CGraphicLCD7InverseEv
                0x0801f040       0x18 ./GraphicLCD/CGraphicLCD.o
                0x0801f040                CGraphicLCD::Inverse()
 .text._ZN11CGraphicLCD7InverseEb
                0x0801f058       0x1c ./GraphicLCD/CGraphicLCD.o
                0x0801f058                CGraphicLCD::Inverse(bool)
 .text._ZN13CT6963CDriverC2Ev
                0x0801f074       0x28 ./GraphicLCD/CT6963CDriver.o
                0x0801f074                CT6963CDriver::CT6963CDriver()
                0x0801f074                CT6963CDriver::CT6963CDriver()
 .text._ZN13CT6963CDriverD2Ev
                0x0801f09c       0x38 ./GraphicLCD/CT6963CDriver.o
                0x0801f09c                CT6963CDriver::~CT6963CDriver()
                0x0801f09c                CT6963CDriver::~CT6963CDriver()
 .text._ZN13CT6963CDriverD0Ev
                0x0801f0d4       0x20 ./GraphicLCD/CT6963CDriver.o
                0x0801f0d4                CT6963CDriver::~CT6963CDriver()
 .text._ZN13CT6963CDriver4InitEv
                0x0801f0f4      0x160 ./GraphicLCD/CT6963CDriver.o
                0x0801f0f4                CT6963CDriver::Init()
 .text._ZN13CT6963CDriver17SetAddressPointerEj
                0x0801f254       0x50 ./GraphicLCD/CT6963CDriver.o
                0x0801f254                CT6963CDriver::SetAddressPointer(unsigned int)
 .text._ZN13CT6963CDriver8TextGoToEhh
                0x0801f2a4       0x34 ./GraphicLCD/CT6963CDriver.o
                0x0801f2a4                CT6963CDriver::TextGoTo(unsigned char, unsigned char)
 .text._ZN13CT6963CDriver11GraphicGoToEhh
                0x0801f2d8       0x40 ./GraphicLCD/CT6963CDriver.o
                0x0801f2d8                CT6963CDriver::GraphicGoTo(unsigned char, unsigned char)
 .text._ZN13CT6963CDriver5ClearEv
                0x0801f318       0x80 ./GraphicLCD/CT6963CDriver.o
                0x0801f318                CT6963CDriver::Clear()
 .text._ZN13CT6963CDriver16WriteDisplayDataEh
                0x0801f398       0x38 ./GraphicLCD/CT6963CDriver.o
                0x0801f398                CT6963CDriver::WriteDisplayData(unsigned char)
 .text._ZN13CT6963CDriver9WriteCharEc
                0x0801f3d0       0x24 ./GraphicLCD/CT6963CDriver.o
                0x0801f3d0                CT6963CDriver::WriteChar(char)
 .text._ZN13CT6963CDriver11WriteStringEPc5tFontjj
                0x0801f3f4       0x20 ./GraphicLCD/CT6963CDriver.o
                0x0801f3f4                CT6963CDriver::WriteString(char*, tFont, unsigned int, unsigned int)
 .text._ZN13CT6963CDriver8SetPixelEhh
                0x0801f414       0x90 ./GraphicLCD/CT6963CDriver.o
                0x0801f414                CT6963CDriver::SetPixel(unsigned char, unsigned char)
 .text._ZN13CT6963CDriver4LineEjjjj
                0x0801f4a4      0x150 ./GraphicLCD/CT6963CDriver.o
                0x0801f4a4                CT6963CDriver::Line(unsigned int, unsigned int, unsigned int, unsigned int)
 .text._ZN13CT6963CDriver6WindowEjjjj
                0x0801f5f4      0x3b4 ./GraphicLCD/CT6963CDriver.o
                0x0801f5f4                CT6963CDriver::Window(unsigned int, unsigned int, unsigned int, unsigned int)
 .text._ZN13CT6963CDriver9RectangleEjjjjb
                0x0801f9a8      0x144 ./GraphicLCD/CT6963CDriver.o
                0x0801f9a8                CT6963CDriver::Rectangle(unsigned int, unsigned int, unsigned int, unsigned int, bool)
 .text._ZN13CT6963CDriver11SectorClearEjjjj
                0x0801faec       0x60 ./GraphicLCD/CT6963CDriver.o
                0x0801faec                CT6963CDriver::SectorClear(unsigned int, unsigned int, unsigned int, unsigned int)
 .text._ZN13CT6963CDriver6CircleEhhh
                0x0801fb4c      0x184 ./GraphicLCD/CT6963CDriver.o
                0x0801fb4c                CT6963CDriver::Circle(unsigned char, unsigned char, unsigned char)
 .text._ZN13CT6963CDriver6BitmapEPhhhhh
                0x0801fcd0       0xd4 ./GraphicLCD/CT6963CDriver.o
                0x0801fcd0                CT6963CDriver::Bitmap(unsigned char*, unsigned char, unsigned char, unsigned char, unsigned char)
 .text._ZN21CT6963_GPIO_InterfaceC2Ev
                0x0801fda4       0x28 ./GraphicLCD/CT6963GPIOInterface.o
                0x0801fda4                CT6963_GPIO_Interface::CT6963_GPIO_Interface()
                0x0801fda4                CT6963_GPIO_Interface::CT6963_GPIO_Interface()
 .text._ZN21CT6963_GPIO_InterfaceD2Ev
                0x0801fdcc       0x38 ./GraphicLCD/CT6963GPIOInterface.o
                0x0801fdcc                CT6963_GPIO_Interface::~CT6963_GPIO_Interface()
                0x0801fdcc                CT6963_GPIO_Interface::~CT6963_GPIO_Interface()
 .text._ZN21CT6963_GPIO_InterfaceD0Ev
                0x0801fe04       0x20 ./GraphicLCD/CT6963GPIOInterface.o
                0x0801fe04                CT6963_GPIO_Interface::~CT6963_GPIO_Interface()
 .text._Z8delay_usj
                0x0801fe24       0x54 ./GraphicLCD/CT6963GPIOInterface.o
                0x0801fe24                delay_us(unsigned int)
 .text._Z11CheckStatusv
                0x0801fe78       0xbc ./GraphicLCD/CT6963GPIOInterface.o
                0x0801fe78                CheckStatus()
 .text._ZN21CT6963_GPIO_Interface12HardwareInitEv
                0x0801ff34       0xb4 ./GraphicLCD/CT6963GPIOInterface.o
                0x0801ff34                CT6963_GPIO_Interface::HardwareInit()
 .text._ZN21CT6963_GPIO_Interface5ResetEv
                0x0801ffe8       0x38 ./GraphicLCD/CT6963GPIOInterface.o
                0x0801ffe8                CT6963_GPIO_Interface::Reset()
 .text._ZN21CT6963_GPIO_Interface12WriteCommandEh
                0x08020020       0xac ./GraphicLCD/CT6963GPIOInterface.o
                0x08020020                CT6963_GPIO_Interface::WriteCommand(unsigned char)
 .text._ZN21CT6963_GPIO_Interface9WriteDataEh
                0x080200cc       0xcc ./GraphicLCD/CT6963GPIOInterface.o
                0x080200cc                CT6963_GPIO_Interface::WriteData(unsigned char)
 .text._ZN21CT6963_GPIO_Interface8ReadDataEv
                0x08020198       0xc4 ./GraphicLCD/CT6963GPIOInterface.o
                0x08020198                CT6963_GPIO_Interface::ReadData()
 .text._ZN5CTask13EnterCriticalEv
                0x0802025c        0xc ./FreeRTOS_EC/Source/AManagedTask.o
                0x0802025c                CTask::EnterCritical()
 .text._ZN5CTask12ExitCriticalEv
                0x08020268        0xc ./FreeRTOS_EC/Source/AManagedTask.o
                0x08020268                CTask::ExitCritical()
 .text._ZN12AManagedTask12HardwareInitEv
                0x08020274       0x18 ./FreeRTOS_EC/Source/AManagedTask.o
                0x08020274                AManagedTask::HardwareInit()
 .text._ZN9CFreeRTOS15SuspendAllTasksEv
                0x0802028c        0xc ./FreeRTOS_EC/Source/AManagedTask.o
                0x0802028c                CFreeRTOS::SuspendAllTasks()
 .text._ZN9CFreeRTOS14ResumeAllTasksEv
                0x08020298       0x10 ./FreeRTOS_EC/Source/AManagedTask.o
                0x08020298                CFreeRTOS::ResumeAllTasks()
 .text._ZN12AManagedTaskC2Ev
                0x080202a8       0x38 ./FreeRTOS_EC/Source/AManagedTask.o
                0x080202a8                AManagedTask::AManagedTask()
                0x080202a8                AManagedTask::AManagedTask()
 .text._ZN12AManagedTaskD2Ev
                0x080202e0       0x40 ./FreeRTOS_EC/Source/AManagedTask.o
                0x080202e0                AManagedTask::~AManagedTask()
                0x080202e0                AManagedTask::~AManagedTask()
 .text._ZN12AManagedTaskD0Ev
                0x08020320       0x20 ./FreeRTOS_EC/Source/AManagedTask.o
                0x08020320                AManagedTask::~AManagedTask()
 .text._ZN12AManagedTask6CreateEPKctm
                0x08020340       0x64 ./FreeRTOS_EC/Source/AManagedTask.o
                0x08020340                AManagedTask::Create(char const*, unsigned short, unsigned long)
 .text._ZN12AManagedTask15taskControlFuncEPv
                0x080203a4       0x20 ./FreeRTOS_EC/Source/AManagedTask.o
                0x080203a4                AManagedTask::taskControlFunc(void*)
 .text._ZN12AManagedTask16AddToManagedTaskEPS_
                0x080203c4       0x50 ./FreeRTOS_EC/Source/AManagedTask.o
                0x080203c4                AManagedTask::AddToManagedTask(AManagedTask*)
 .text._ZN12AManagedTask21RemoveFromManagedTaskEPS_
                0x08020414       0x88 ./FreeRTOS_EC/Source/AManagedTask.o
                0x08020414                AManagedTask::RemoveFromManagedTask(AManagedTask*)
 .text._ZN12AManagedTask27InitHardwareForManagedTasksEv
                0x0802049c       0x5c ./FreeRTOS_EC/Source/AManagedTask.o
                0x0802049c                AManagedTask::InitHardwareForManagedTasks()
 .text._ZNK11ASyncObject7IsValidEv
                0x080204f8       0x24 ./FreeRTOS_EC/Source/ASyncObject.o
                0x080204f8                ASyncObject::IsValid() const
 .text._ZN11ASyncObject6DetachEv
                0x0802051c       0x24 ./FreeRTOS_EC/Source/ASyncObject.o
                0x0802051c                ASyncObject::Detach()
 .text._ZN12IFreeRTOSObjC2Ev
                0x08020540       0x20 ./FreeRTOS_EC/Source/ASyncObject.o
                0x08020540                IFreeRTOSObj::IFreeRTOSObj()
                0x08020540                IFreeRTOSObj::IFreeRTOSObj()
 .text._ZN11ASyncObjectC2Ev
                0x08020560       0x30 ./FreeRTOS_EC/Source/ASyncObject.o
                0x08020560                ASyncObject::ASyncObject()
                0x08020560                ASyncObject::ASyncObject()
 .text._ZN11ASyncObjectD2Ev
                0x08020590       0x44 ./FreeRTOS_EC/Source/ASyncObject.o
                0x08020590                ASyncObject::~ASyncObject()
                0x08020590                ASyncObject::~ASyncObject()
 .text._ZN11ASyncObjectD0Ev
                0x080205d4       0x20 ./FreeRTOS_EC/Source/ASyncObject.o
                0x080205d4                ASyncObject::~ASyncObject()
 .text._ZN11ASyncObject6DeleteEv
                0x080205f4       0x2c ./FreeRTOS_EC/Source/ASyncObject.o
                0x080205f4                ASyncObject::Delete()
 .text._ZN11ASyncObject6AttachEPv
                0x08020620       0x54 ./FreeRTOS_EC/Source/ASyncObject.o
                0x08020620                ASyncObject::Attach(void*)
 .text._ZN16CBinarySemaphore4TakeEm
                0x08020674       0x5c ./FreeRTOS_EC/Source/CBinarySemaphore.o
                0x08020674                CBinarySemaphore::Take(unsigned long)
 .text._ZN16CBinarySemaphore4GiveEv
                0x080206d0       0x5c ./FreeRTOS_EC/Source/CBinarySemaphore.o
                0x080206d0                CBinarySemaphore::Give()
 .text._ZN16CBinarySemaphoreC2Ev
                0x0802072c       0x28 ./FreeRTOS_EC/Source/CBinarySemaphore.o
                0x0802072c                CBinarySemaphore::CBinarySemaphore()
                0x0802072c                CBinarySemaphore::CBinarySemaphore()
 .text._ZN16CBinarySemaphoreD2Ev
                0x08020754       0x38 ./FreeRTOS_EC/Source/CBinarySemaphore.o
                0x08020754                CBinarySemaphore::~CBinarySemaphore()
                0x08020754                CBinarySemaphore::~CBinarySemaphore()
 .text._ZN16CBinarySemaphoreD0Ev
                0x0802078c       0x20 ./FreeRTOS_EC/Source/CBinarySemaphore.o
                0x0802078c                CBinarySemaphore::~CBinarySemaphore()
 .text._ZN16CBinarySemaphoreC2EPv
                0x080207ac       0x34 ./FreeRTOS_EC/Source/CBinarySemaphore.o
                0x080207ac                CBinarySemaphore::CBinarySemaphore(void*)
                0x080207ac                CBinarySemaphore::CBinarySemaphore(void*)
 .text._ZN16CBinarySemaphore6CreateEv
                0x080207e0       0x60 ./FreeRTOS_EC/Source/CBinarySemaphore.o
                0x080207e0                CBinarySemaphore::Create()
 .text._ZN18CCountingSemaphore4TakeEm
                0x08020840       0x5c ./FreeRTOS_EC/Source/CCountingSemaphore.o
                0x08020840                CCountingSemaphore::Take(unsigned long)
 .text._ZN18CCountingSemaphore4GiveEv
                0x0802089c       0x5c ./FreeRTOS_EC/Source/CCountingSemaphore.o
                0x0802089c                CCountingSemaphore::Give()
 .text._ZN18CCountingSemaphoreC2Ev
                0x080208f8       0x28 ./FreeRTOS_EC/Source/CCountingSemaphore.o
                0x080208f8                CCountingSemaphore::CCountingSemaphore()
                0x080208f8                CCountingSemaphore::CCountingSemaphore()
 .text._ZN18CCountingSemaphoreD2Ev
                0x08020920       0x38 ./FreeRTOS_EC/Source/CCountingSemaphore.o
                0x08020920                CCountingSemaphore::~CCountingSemaphore()
                0x08020920                CCountingSemaphore::~CCountingSemaphore()
 .text._ZN18CCountingSemaphoreD0Ev
                0x08020958       0x20 ./FreeRTOS_EC/Source/CCountingSemaphore.o
                0x08020958                CCountingSemaphore::~CCountingSemaphore()
 .text._ZN18CCountingSemaphoreC2EPv
                0x08020978       0x34 ./FreeRTOS_EC/Source/CCountingSemaphore.o
                0x08020978                CCountingSemaphore::CCountingSemaphore(void*)
                0x08020978                CCountingSemaphore::CCountingSemaphore(void*)
 .text._ZN18CCountingSemaphore6CreateEmm
                0x080209ac       0x24 ./FreeRTOS_EC/Source/CCountingSemaphore.o
                0x080209ac                CCountingSemaphore::Create(unsigned long, unsigned long)
 .text._ZN9CFreeRTOSC2Ev
                0x080209d0       0x18 ./FreeRTOS_EC/Source/CFreeRTOS.o
                0x080209d0                CFreeRTOS::CFreeRTOS()
                0x080209d0                CFreeRTOS::CFreeRTOS()
 .text._ZN9CFreeRTOSD2Ev
                0x080209e8       0x18 ./FreeRTOS_EC/Source/CFreeRTOS.o
                0x080209e8                CFreeRTOS::~CFreeRTOS()
                0x080209e8                CFreeRTOS::~CFreeRTOS()
 .text._ZN9CFreeRTOS27InitHardwareForManagedTasksEv
                0x08020a00       0x10 ./FreeRTOS_EC/Source/CFreeRTOS.o
                0x08020a00                CFreeRTOS::InitHardwareForManagedTasks()
 .text._ZN6CQueue4SendEPKvm
                0x08020a10       0x2c ./FreeRTOS_EC/Source/CMessageTask.o
                0x08020a10                CQueue::Send(void const*, unsigned long)
 .text._ZN6CQueue11SendFromISREPKvPl
                0x08020a3c       0x2c ./FreeRTOS_EC/Source/CMessageTask.o
                0x08020a3c                CQueue::SendFromISR(void const*, long*)
 .text._ZN6CQueue11SendToFrontEPKvm
                0x08020a68       0x5c ./FreeRTOS_EC/Source/CMessageTask.o
                0x08020a68                CQueue::SendToFront(void const*, unsigned long)
 .text._ZN6CQueue7ReceiveEPvm
                0x08020ac4       0x5c ./FreeRTOS_EC/Source/CMessageTask.o
                0x08020ac4                CQueue::Receive(void*, unsigned long)
 .text._ZN6CQueue18SendToFrontFromISREPKvPl
                0x08020b20       0x5c ./FreeRTOS_EC/Source/CMessageTask.o
                0x08020b20                CQueue::SendToFrontFromISR(void const*, long*)
 .text._ZN12CMessageTask6OnInitEv
                0x08020b7c       0x18 ./FreeRTOS_EC/Source/CMessageTask.o
                0x08020b7c                CMessageTask::OnInit()
 .text._ZN12CMessageTask9OnTimeOutEv
                0x08020b94       0x14 ./FreeRTOS_EC/Source/CMessageTask.o
                0x08020b94                CMessageTask::OnTimeOut()
 .text._ZN12CMessageTaskC2Ev
                0x08020ba8       0x44 ./FreeRTOS_EC/Source/CMessageTask.o
                0x08020ba8                CMessageTask::CMessageTask()
                0x08020ba8                CMessageTask::CMessageTask()
 .text._ZN12CMessageTaskD2Ev
                0x08020bec       0x44 ./FreeRTOS_EC/Source/CMessageTask.o
                0x08020bec                CMessageTask::~CMessageTask()
                0x08020bec                CMessageTask::~CMessageTask()
 .text._ZN12CMessageTaskD0Ev
                0x08020c30       0x20 ./FreeRTOS_EC/Source/CMessageTask.o
                0x08020c30                CMessageTask::~CMessageTask()
 .text._ZN12CMessageTask8OnCreateEPKctm
                0x08020c50       0x40 ./FreeRTOS_EC/Source/CMessageTask.o
                0x08020c50                CMessageTask::OnCreate(char const*, unsigned short, unsigned long)
 .text._ZN12CMessageTask3RunEv
                0x08020c90       0xc4 ./FreeRTOS_EC/Source/CMessageTask.o
                0x08020c90                CMessageTask::Run()
 .text._ZN12CMessageTask15DispatchMessageERK8CMessage
                0x08020d54      0x134 ./FreeRTOS_EC/Source/CMessageTask.o
                0x08020d54                CMessageTask::DispatchMessage(CMessage const&)
 .text._ZN12CMessageTask11PostMessageEP8CMessagem
                0x08020e88       0x34 ./FreeRTOS_EC/Source/CMessageTask.o
                0x08020e88                CMessageTask::PostMessage(CMessage*, unsigned long)
 .text._ZN12CMessageTask18PostMessageFromISREP8CMessagePl
                0x08020ebc       0x34 ./FreeRTOS_EC/Source/CMessageTask.o
                0x08020ebc                CMessageTask::PostMessageFromISR(CMessage*, long*)
 .text._ZN12CMessageTask11SendMessageEP8CMessagem
                0x08020ef0       0x34 ./FreeRTOS_EC/Source/CMessageTask.o
                0x08020ef0                CMessageTask::SendMessage(CMessage*, unsigned long)
 .text._ZN12CMessageTask11SenfFromISREP8CMessagePl
                0x08020f24       0x34 ./FreeRTOS_EC/Source/CMessageTask.o
                0x08020f24                CMessageTask::SenfFromISR(CMessage*, long*)
 .text._ZN6CMutex4TakeEm
                0x08020f58       0x5c ./FreeRTOS_EC/Source/CMutex.o
                0x08020f58                CMutex::Take(unsigned long)
 .text._ZN6CMutex4GiveEv
                0x08020fb4       0x5c ./FreeRTOS_EC/Source/CMutex.o
                0x08020fb4                CMutex::Give()
 .text._ZN6CMutexC2Ev
                0x08021010       0x28 ./FreeRTOS_EC/Source/CMutex.o
                0x08021010                CMutex::CMutex()
                0x08021010                CMutex::CMutex()
 .text._ZN6CMutexD2Ev
                0x08021038       0x38 ./FreeRTOS_EC/Source/CMutex.o
                0x08021038                CMutex::~CMutex()
                0x08021038                CMutex::~CMutex()
 .text._ZN6CMutexD0Ev
                0x08021070       0x20 ./FreeRTOS_EC/Source/CMutex.o
                0x08021070                CMutex::~CMutex()
 .text._ZN6CMutexC2EPv
                0x08021090       0x34 ./FreeRTOS_EC/Source/CMutex.o
                0x08021090                CMutex::CMutex(void*)
                0x08021090                CMutex::CMutex(void*)
 .text._ZN6CMutex6CreateEv
                0x080210c4       0x40 ./FreeRTOS_EC/Source/CMutex.o
                0x080210c4                CMutex::Create()
 .text._ZNK6CQueue7IsValidEv
                0x08021104       0x24 ./FreeRTOS_EC/Source/CQueue.o
                0x08021104                CQueue::IsValid() const
 .text._ZN6CQueue6DetachEv
                0x08021128       0x24 ./FreeRTOS_EC/Source/CQueue.o
                0x08021128                CQueue::Detach()
 .text._ZN6CQueueC2Ev
                0x0802114c       0x30 ./FreeRTOS_EC/Source/CQueue.o
                0x0802114c                CQueue::CQueue()
                0x0802114c                CQueue::CQueue()
 .text._ZN6CQueueD2Ev
                0x0802117c       0x44 ./FreeRTOS_EC/Source/CQueue.o
                0x0802117c                CQueue::~CQueue()
                0x0802117c                CQueue::~CQueue()
 .text._ZN6CQueueD0Ev
                0x080211c0       0x20 ./FreeRTOS_EC/Source/CQueue.o
                0x080211c0                CQueue::~CQueue()
 .text._ZN6CQueueC2EPv
                0x080211e0       0x30 ./FreeRTOS_EC/Source/CQueue.o
                0x080211e0                CQueue::CQueue(void*)
                0x080211e0                CQueue::CQueue(void*)
 .text._ZN6CQueue6CreateEmm
                0x08021210       0x6c ./FreeRTOS_EC/Source/CQueue.o
                0x08021210                CQueue::Create(unsigned long, unsigned long)
 .text._ZN6CQueue6AttachEPv
                0x0802127c       0x54 ./FreeRTOS_EC/Source/CQueue.o
                0x0802127c                CQueue::Attach(void*)
 .text._ZN6CQueue6DeleteEv
                0x080212d0       0x2c ./FreeRTOS_EC/Source/CQueue.o
                0x080212d0                CQueue::Delete()
 .text._ZN15CRecursiveMutex4TakeEm
                0x080212fc       0x1c ./FreeRTOS_EC/Source/CRecursiveMutex.o
                0x080212fc                CRecursiveMutex::Take(unsigned long)
 .text._ZN15CRecursiveMutex4GiveEv
                0x08021318       0x18 ./FreeRTOS_EC/Source/CRecursiveMutex.o
                0x08021318                CRecursiveMutex::Give()
 .text._ZN15CRecursiveMutexC2Ev
                0x08021330       0x28 ./FreeRTOS_EC/Source/CRecursiveMutex.o
                0x08021330                CRecursiveMutex::CRecursiveMutex()
                0x08021330                CRecursiveMutex::CRecursiveMutex()
 .text._ZN15CRecursiveMutexC2EPv
                0x08021358       0x34 ./FreeRTOS_EC/Source/CRecursiveMutex.o
                0x08021358                CRecursiveMutex::CRecursiveMutex(void*)
                0x08021358                CRecursiveMutex::CRecursiveMutex(void*)
 .text._ZN15CRecursiveMutexD2Ev
                0x0802138c       0x38 ./FreeRTOS_EC/Source/CRecursiveMutex.o
                0x0802138c                CRecursiveMutex::~CRecursiveMutex()
                0x0802138c                CRecursiveMutex::~CRecursiveMutex()
 .text._ZN15CRecursiveMutexD0Ev
                0x080213c4       0x20 ./FreeRTOS_EC/Source/CRecursiveMutex.o
                0x080213c4                CRecursiveMutex::~CRecursiveMutex()
 .text._ZN15CRecursiveMutex6CreateEv
                0x080213e4       0x20 ./FreeRTOS_EC/Source/CRecursiveMutex.o
                0x080213e4                CRecursiveMutex::Create()
 .text._ZN5CTaskC2Ev
                0x08021404       0x30 ./FreeRTOS_EC/Source/CTask.o
                0x08021404                CTask::CTask()
                0x08021404                CTask::CTask()
 .text._ZN5CTaskC2EPv
                0x08021434       0x30 ./FreeRTOS_EC/Source/CTask.o
                0x08021434                CTask::CTask(void*)
                0x08021434                CTask::CTask(void*)
 .text._ZN5CTaskD2Ev
                0x08021464       0x44 ./FreeRTOS_EC/Source/CTask.o
                0x08021464                CTask::~CTask()
                0x08021464                CTask::~CTask()
 .text._ZN5CTaskD0Ev
                0x080214a8       0x20 ./FreeRTOS_EC/Source/CTask.o
                0x080214a8                CTask::~CTask()
 .text._ZN5CTask6AttachEPv
                0x080214c8       0x54 ./FreeRTOS_EC/Source/CTask.o
                0x080214c8                CTask::Attach(void*)
 .text._ZN5CTask6CreateEPFvPvEPKctS0_m
                0x0802151c       0x5c ./FreeRTOS_EC/Source/CTask.o
                0x0802151c                CTask::Create(void (*)(void*), char const*, unsigned short, void*, unsigned long)
 .text._ZN5CTask16CreateRestrictedEP15xTASK_PARAMTERS
                0x08021578       0x20 ./FreeRTOS_EC/Source/CTask.o
                0x08021578                CTask::CreateRestricted(xTASK_PARAMTERS*)
 .text._ZN5CTask6DeleteEv
                0x08021598       0x2c ./FreeRTOS_EC/Source/CTask.o
                0x08021598                CTask::Delete()
 .text.pxPortInitialiseStack
                0x080215c4       0x68 ./FreeRTOS/Source/portable/GCC/ARM_CM4F/port.o
                0x080215c4                pxPortInitialiseStack
 .text.SVC_Handler
                0x0802162c       0x20 ./FreeRTOS/Source/portable/GCC/ARM_CM4F/port.o
                0x0802162c                SVC_Handler
 .text.vPortStartFirstTask
                0x0802164c       0x14 ./FreeRTOS/Source/portable/GCC/ARM_CM4F/port.o
                0x0802164c                vPortStartFirstTask
 .text.xPortStartScheduler
                0x08021660       0x54 ./FreeRTOS/Source/portable/GCC/ARM_CM4F/port.o
                0x08021660                xPortStartScheduler
 .text.vPortEndScheduler
                0x080216b4        0xc ./FreeRTOS/Source/portable/GCC/ARM_CM4F/port.o
                0x080216b4                vPortEndScheduler
 .text.vPortYieldFromISR
                0x080216c0       0x18 ./FreeRTOS/Source/portable/GCC/ARM_CM4F/port.o
                0x080216c0                vPortYieldFromISR
 .text.vPortEnterCritical
                0x080216d8       0x2c ./FreeRTOS/Source/portable/GCC/ARM_CM4F/port.o
                0x080216d8                vPortEnterCritical
 .text.vPortExitCritical
                0x08021704       0x38 ./FreeRTOS/Source/portable/GCC/ARM_CM4F/port.o
                0x08021704                vPortExitCritical
 .text.PendSV_Handler
                0x0802173c       0x58 ./FreeRTOS/Source/portable/GCC/ARM_CM4F/port.o
                0x0802173c                PendSV_Handler
 .text.SysTick_Handler
                0x08021794       0x38 ./FreeRTOS/Source/portable/GCC/ARM_CM4F/port.o
                0x08021794                SysTick_Handler
 .text.prvSetupTimerInterrupt
                0x080217cc       0x40 ./FreeRTOS/Source/portable/GCC/ARM_CM4F/port.o
 .text.xCoRoutineCreate
                0x0802180c       0xf4 ./FreeRTOS/Source/croutine.o
                0x0802180c                xCoRoutineCreate
 .text.vCoRoutineAddToDelayedList
                0x08021900       0xb4 ./FreeRTOS/Source/croutine.o
                0x08021900                vCoRoutineAddToDelayedList
 .text.prvCheckPendingReadyList
                0x080219b4       0xa0 ./FreeRTOS/Source/croutine.o
 .text.prvCheckDelayedList
                0x08021a54      0x170 ./FreeRTOS/Source/croutine.o
 .text.vCoRoutineSchedule
                0x08021bc4       0xf0 ./FreeRTOS/Source/croutine.o
                0x08021bc4                vCoRoutineSchedule
 .text.prvInitialiseCoRoutineLists
                0x08021cb4       0x8c ./FreeRTOS/Source/croutine.o
 .text.xCoRoutineRemoveFromEventList
                0x08021d40       0x60 ./FreeRTOS/Source/croutine.o
                0x08021d40                xCoRoutineRemoveFromEventList
 .text.vListInitialise
                0x08021da0       0x40 ./FreeRTOS/Source/list.o
                0x08021da0                vListInitialise
 .text.vListInitialiseItem
                0x08021de0       0x1c ./FreeRTOS/Source/list.o
                0x08021de0                vListInitialiseItem
 .text.vListInsertEnd
                0x08021dfc       0x54 ./FreeRTOS/Source/list.o
                0x08021dfc                vListInsertEnd
 .text.vListInsert
                0x08021e50       0x78 ./FreeRTOS/Source/list.o
                0x08021e50                vListInsert
 .text.vListRemove
                0x08021ec8       0x54 ./FreeRTOS/Source/list.o
                0x08021ec8                vListRemove
 .text.xQueueCreate
                0x08021f1c       0xd0 ./FreeRTOS/Source/queue.o
                0x08021f1c                xQueueCreate
 .text.xQueueCreateMutex
                0x08021fec       0x98 ./FreeRTOS/Source/queue.o
                0x08021fec                xQueueCreateMutex
 .text.xQueueGenericSend
                0x08022084      0x124 ./FreeRTOS/Source/queue.o
                0x08022084                xQueueGenericSend
 .text.xQueueGenericSendFromISR
                0x080221a8       0x90 ./FreeRTOS/Source/queue.o
                0x080221a8                xQueueGenericSendFromISR
 .text.xQueueGenericReceive
                0x08022238      0x188 ./FreeRTOS/Source/queue.o
                0x08022238                xQueueGenericReceive
 .text.xQueueReceiveFromISR
                0x080223c0       0x94 ./FreeRTOS/Source/queue.o
                0x080223c0                xQueueReceiveFromISR
 .text.uxQueueMessagesWaiting
                0x08022454       0x24 ./FreeRTOS/Source/queue.o
                0x08022454                uxQueueMessagesWaiting
 .text.uxQueueMessagesWaitingFromISR
                0x08022478       0x1c ./FreeRTOS/Source/queue.o
                0x08022478                uxQueueMessagesWaitingFromISR
 .text.vQueueDelete
                0x08022494       0x20 ./FreeRTOS/Source/queue.o
                0x08022494                vQueueDelete
 .text.prvCopyDataToQueue
                0x080224b4       0xc8 ./FreeRTOS/Source/queue.o
 .text.prvCopyDataFromQueue
                0x0802257c       0x50 ./FreeRTOS/Source/queue.o
 .text.prvUnlockQueue
                0x080225cc       0xa0 ./FreeRTOS/Source/queue.o
 .text.prvIsQueueEmpty
                0x0802266c       0x2c ./FreeRTOS/Source/queue.o
 .text.xQueueIsQueueEmptyFromISR
                0x08022698       0x24 ./FreeRTOS/Source/queue.o
                0x08022698                xQueueIsQueueEmptyFromISR
 .text.prvIsQueueFull
                0x080226bc       0x30 ./FreeRTOS/Source/queue.o
 .text.xQueueIsQueueFullFromISR
                0x080226ec       0x2c ./FreeRTOS/Source/queue.o
                0x080226ec                xQueueIsQueueFullFromISR
 .text.xTaskGenericCreate
                0x08022718      0x1ac ./FreeRTOS/Source/tasks.o
                0x08022718                xTaskGenericCreate
 .text.vTaskDelete
                0x080228c4       0xc0 ./FreeRTOS/Source/tasks.o
                0x080228c4                vTaskDelete
 .text.vTaskDelayUntil
                0x08022984       0xb4 ./FreeRTOS/Source/tasks.o
                0x08022984                vTaskDelayUntil
 .text.vTaskDelay
                0x08022a38       0x5c ./FreeRTOS/Source/tasks.o
                0x08022a38                vTaskDelay
 .text.uxTaskPriorityGet
                0x08022a94       0x38 ./FreeRTOS/Source/tasks.o
                0x08022a94                uxTaskPriorityGet
 .text.vTaskPrioritySet
                0x08022acc      0x12c ./FreeRTOS/Source/tasks.o
                0x08022acc                vTaskPrioritySet
 .text.vTaskSuspend
                0x08022bf8       0xc0 ./FreeRTOS/Source/tasks.o
                0x08022bf8                vTaskSuspend
 .text.xTaskIsTaskSuspended
                0x08022cb8       0x50 ./FreeRTOS/Source/tasks.o
                0x08022cb8                xTaskIsTaskSuspended
 .text.vTaskResume
                0x08022d08       0xac ./FreeRTOS/Source/tasks.o
                0x08022d08                vTaskResume
 .text.xTaskResumeFromISR
                0x08022db4       0xc0 ./FreeRTOS/Source/tasks.o
                0x08022db4                xTaskResumeFromISR
 .text.vTaskStartScheduler
                0x08022e74       0x7c ./FreeRTOS/Source/tasks.o
                0x08022e74                vTaskStartScheduler
 .text.vTaskEndScheduler
                0x08022ef0       0x20 ./FreeRTOS/Source/tasks.o
                0x08022ef0                vTaskEndScheduler
 .text.vTaskSuspendAll
                0x08022f10       0x24 ./FreeRTOS/Source/tasks.o
                0x08022f10                vTaskSuspendAll
 .text.xTaskResumeAll
                0x08022f34      0x154 ./FreeRTOS/Source/tasks.o
                0x08022f34                xTaskResumeAll
 .text.xTaskGetTickCount
                0x08023088       0x28 ./FreeRTOS/Source/tasks.o
                0x08023088                xTaskGetTickCount
 .text.xTaskGetTickCountFromISR
                0x080230b0       0x38 ./FreeRTOS/Source/tasks.o
                0x080230b0                xTaskGetTickCountFromISR
 .text.uxTaskGetNumberOfTasks
                0x080230e8       0x18 ./FreeRTOS/Source/tasks.o
                0x080230e8                uxTaskGetNumberOfTasks
 .text.vTaskGetRunTimeStats
                0x08023100      0x160 ./FreeRTOS/Source/tasks.o
                0x08023100                vTaskGetRunTimeStats
 .text.xTaskGetIdleTaskHandle
                0x08023260       0x18 ./FreeRTOS/Source/tasks.o
                0x08023260                xTaskGetIdleTaskHandle
 .text.vTaskIncrementTick
                0x08023278      0x1b8 ./FreeRTOS/Source/tasks.o
                0x08023278                vTaskIncrementTick
 .text.vTaskSetApplicationTaskTag
                0x08023430       0x38 ./FreeRTOS/Source/tasks.o
                0x08023430                vTaskSetApplicationTaskTag
 .text.xTaskGetApplicationTaskTag
                0x08023468       0x3c ./FreeRTOS/Source/tasks.o
                0x08023468                xTaskGetApplicationTaskTag
 .text.xTaskCallApplicationTaskHook
                0x080234a4       0x4c ./FreeRTOS/Source/tasks.o
                0x080234a4                xTaskCallApplicationTaskHook
 .text.vTaskSwitchContext
                0x080234f0      0x140 ./FreeRTOS/Source/tasks.o
                0x080234f0                vTaskSwitchContext
 .text.vTaskPlaceOnEventList
                0x08023630       0x78 ./FreeRTOS/Source/tasks.o
                0x08023630                vTaskPlaceOnEventList
 .text.xTaskRemoveFromEventList
                0x080236a8       0xc4 ./FreeRTOS/Source/tasks.o
                0x080236a8                xTaskRemoveFromEventList
 .text.vTaskSetTimeOutState
                0x0802376c       0x30 ./FreeRTOS/Source/tasks.o
                0x0802376c                vTaskSetTimeOutState
 .text.xTaskCheckForTimeOut
                0x0802379c       0xa4 ./FreeRTOS/Source/tasks.o
                0x0802379c                xTaskCheckForTimeOut
 .text.vTaskMissedYield
                0x08023840       0x18 ./FreeRTOS/Source/tasks.o
                0x08023840                vTaskMissedYield
 .text.prvIdleTask
                0x08023858       0x24 ./FreeRTOS/Source/tasks.o
 .text.prvInitialiseTCBVariables
                0x0802387c       0x88 ./FreeRTOS/Source/tasks.o
 .text.prvInitialiseTaskLists
                0x08023904       0xa4 ./FreeRTOS/Source/tasks.o
 .text.prvCheckTasksWaitingTermination
                0x080239a8       0x98 ./FreeRTOS/Source/tasks.o
 .text.prvAddCurrentTaskToDelayedList
                0x08023a40       0x8c ./FreeRTOS/Source/tasks.o
 .text.prvAllocateTCBAndStack
                0x08023acc       0x74 ./FreeRTOS/Source/tasks.o
 .text.prvGenerateRunTimeStatsForTasksInList
                0x08023b40      0x17c ./FreeRTOS/Source/tasks.o
 .text.usTaskCheckFreeStackSpace
                0x08023cbc       0x38 ./FreeRTOS/Source/tasks.o
 .text.uxTaskGetStackHighWaterMark
                0x08023cf4       0x3c ./FreeRTOS/Source/tasks.o
                0x08023cf4                uxTaskGetStackHighWaterMark
 .text.prvDeleteTCB
                0x08023d30       0x20 ./FreeRTOS/Source/tasks.o
 .text.xTaskGetCurrentTaskHandle
                0x08023d50       0x20 ./FreeRTOS/Source/tasks.o
                0x08023d50                xTaskGetCurrentTaskHandle
 .text.vTaskPriorityInherit
                0x08023d70       0xd8 ./FreeRTOS/Source/tasks.o
                0x08023d70                vTaskPriorityInherit
 .text.vTaskPriorityDisinherit
                0x08023e48       0x90 ./FreeRTOS/Source/tasks.o
                0x08023e48                vTaskPriorityDisinherit
 .text._ZN24CLedHeartBeatSTM32F4DiscC2Em
                0x08023ed8       0x38 ./CLedHeartBeatSTM32F4Disc.o
                0x08023ed8                CLedHeartBeatSTM32F4Disc::CLedHeartBeatSTM32F4Disc(unsigned long)
                0x08023ed8                CLedHeartBeatSTM32F4Disc::CLedHeartBeatSTM32F4Disc(unsigned long)
 .text._ZN24CLedHeartBeatSTM32F4DiscD2Ev
                0x08023f10       0x38 ./CLedHeartBeatSTM32F4Disc.o
                0x08023f10                CLedHeartBeatSTM32F4Disc::~CLedHeartBeatSTM32F4Disc()
                0x08023f10                CLedHeartBeatSTM32F4Disc::~CLedHeartBeatSTM32F4Disc()
 .text._ZN24CLedHeartBeatSTM32F4DiscD0Ev
                0x08023f48       0x20 ./CLedHeartBeatSTM32F4Disc.o
                0x08023f48                CLedHeartBeatSTM32F4Disc::~CLedHeartBeatSTM32F4Disc()
 .text._ZN24CLedHeartBeatSTM32F4Disc12HardwareInitEv
                0x08023f68       0x38 ./CLedHeartBeatSTM32F4Disc.o
                0x08023f68                CLedHeartBeatSTM32F4Disc::HardwareInit()
 .text._ZN24CLedHeartBeatSTM32F4Disc3RunEv
                0x08023fa0       0xe8 ./CLedHeartBeatSTM32F4Disc.o
                0x08023fa0                CLedHeartBeatSTM32F4Disc::Run()
 .text._ZN9CFreeRTOS14StartSchedulerEv
                0x08024088        0xc ./main.o
                0x08024088                CFreeRTOS::StartScheduler()
 .text.main     0x08024094       0x50 ./main.o
                0x08024094                main
 .text.vApplicationTickHook
                0x080240e4        0xc ./main.o
                0x080240e4                vApplicationTickHook
 .text.vApplicationIdleHook
                0x080240f0        0xc ./main.o
                0x080240f0                vApplicationIdleHook
 .text.vApplicationMallocFailedHook
                0x080240fc        0xc ./main.o
                0x080240fc                vApplicationMallocFailedHook
 .text.vApplicationStackOverflowHook
                0x08024108        0xc ./main.o
                0x08024108                vApplicationStackOverflowHook
 .text.EVAL_AUDIO_GetSampleCallBack
                0x08024114       0x10 ./main.o
                0x08024114                EVAL_AUDIO_GetSampleCallBack
 .text.EVAL_AUDIO_TransferComplete_CallBack
                0x08024124       0x14 ./main.o
                0x08024124                EVAL_AUDIO_TransferComplete_CallBack
 .text.EVAL_AUDIO_HalfTransfer_CallBack
                0x08024138       0x14 ./main.o
                0x08024138                EVAL_AUDIO_HalfTransfer_CallBack
 .text.EVAL_AUDIO_Error_CallBack
                0x0802414c       0x14 ./main.o
                0x0802414c                EVAL_AUDIO_Error_CallBack
 .text.Codec_TIMEOUT_UserCallback
                0x08024160       0x10 ./main.o
                0x08024160                Codec_TIMEOUT_UserCallback
 .text.LIS302DL_TIMEOUT_UserCallback
                0x08024170       0x10 ./main.o
                0x08024170                LIS302DL_TIMEOUT_UserCallback
 .text._Z41__static_initialization_and_destruction_0ii
                0x08024180       0xac ./main.o
 .text._GLOBAL__sub_I_g_LedTast
                0x0802422c       0x14 ./main.o
 .text.Reset_Handler
                0x08024240       0x58 ./startup_stm32f4xx.o
                0x08024240                Reset_Handler
 .text.Default_Handler
                0x08024298        0x2 ./startup_stm32f4xx.o
                0x08024298                RTC_Alarm_IRQHandler
                0x08024298                HASH_RNG_IRQHandler
                0x08024298                EXTI2_IRQHandler
                0x08024298                TIM8_CC_IRQHandler
                0x08024298                TIM1_CC_IRQHandler
                0x08024298                DMA2_Stream5_IRQHandler
                0x08024298                DMA1_Stream5_IRQHandler
                0x08024298                PVD_IRQHandler
                0x08024298                SDIO_IRQHandler
                0x08024298                TAMP_STAMP_IRQHandler
                0x08024298                CAN2_RX1_IRQHandler
                0x08024298                EXTI3_IRQHandler
                0x08024298                TIM8_TRG_COM_TIM14_IRQHandler
                0x08024298                TIM1_UP_TIM10_IRQHandler
                0x08024298                TIM8_UP_TIM13_IRQHandler
                0x08024298                I2C3_ER_IRQHandler
                0x08024298                EXTI0_IRQHandler
                0x08024298                I2C2_EV_IRQHandler
                0x08024298                DMA1_Stream2_IRQHandler
                0x08024298                CAN1_RX0_IRQHandler
                0x08024298                FPU_IRQHandler
                0x08024298                OTG_HS_WKUP_IRQHandler
                0x08024298                CAN2_SCE_IRQHandler
                0x08024298                DMA2_Stream2_IRQHandler
                0x08024298                SPI1_IRQHandler
                0x08024298                TIM6_DAC_IRQHandler
                0x08024298                TIM1_BRK_TIM9_IRQHandler
                0x08024298                DCMI_IRQHandler
                0x08024298                CAN2_RX0_IRQHandler
                0x08024298                DMA2_Stream3_IRQHandler
                0x08024298                USART6_IRQHandler
                0x08024298                USART3_IRQHandler
                0x08024298                CRYP_IRQHandler
                0x08024298                CAN1_RX1_IRQHandler
                0x08024298                UART5_IRQHandler
                0x08024298                DMA2_Stream0_IRQHandler
                0x08024298                TIM4_IRQHandler
                0x08024298                I2C1_EV_IRQHandler
                0x08024298                DMA1_Stream6_IRQHandler
                0x08024298                DMA1_Stream1_IRQHandler
                0x08024298                UART4_IRQHandler
                0x08024298                TIM3_IRQHandler
                0x08024298                RCC_IRQHandler
                0x08024298                TIM8_BRK_TIM12_IRQHandler
                0x08024298                Default_Handler
                0x08024298                EXTI15_10_IRQHandler
                0x08024298                ADC_IRQHandler
                0x08024298                TIM7_IRQHandler
                0x08024298                CAN2_TX_IRQHandler
                0x08024298                TIM5_IRQHandler
                0x08024298                DMA2_Stream7_IRQHandler
                0x08024298                I2C3_EV_IRQHandler
                0x08024298                EXTI9_5_IRQHandler
                0x08024298                RTC_WKUP_IRQHandler
                0x08024298                ETH_WKUP_IRQHandler
                0x08024298                SPI2_IRQHandler
                0x08024298                OTG_HS_EP1_IN_IRQHandler
                0x08024298                CAN1_TX_IRQHandler
                0x08024298                EXTI4_IRQHandler
                0x08024298                FSMC_IRQHandler
                0x08024298                ETH_IRQHandler
                0x08024298                OTG_HS_EP1_OUT_IRQHandler
                0x08024298                WWDG_IRQHandler
                0x08024298                TIM2_IRQHandler
                0x08024298                OTG_FS_WKUP_IRQHandler
                0x08024298                TIM1_TRG_COM_TIM11_IRQHandler
                0x08024298                OTG_HS_IRQHandler
                0x08024298                EXTI1_IRQHandler
                0x08024298                USART2_IRQHandler
                0x08024298                I2C2_ER_IRQHandler
                0x08024298                DMA2_Stream1_IRQHandler
                0x08024298                CAN1_SCE_IRQHandler
                0x08024298                FLASH_IRQHandler
                0x08024298                DMA2_Stream4_IRQHandler
                0x08024298                USART1_IRQHandler
                0x08024298                OTG_FS_IRQHandler
                0x08024298                DMA1_Stream4_IRQHandler
                0x08024298                I2C1_ER_IRQHandler
                0x08024298                DMA2_Stream6_IRQHandler
                0x08024298                DMA1_Stream3_IRQHandler
 *fill*         0x0802429a        0x2 00
 .text.NMI_Handler
                0x0802429c        0xc ./stm32f4xx_it.o
                0x0802429c                NMI_Handler
 .text.HardFault_Handler
                0x080242a8        0x8 ./stm32f4xx_it.o
                0x080242a8                HardFault_Handler
 .text.MemManage_Handler
                0x080242b0        0x8 ./stm32f4xx_it.o
                0x080242b0                MemManage_Handler
 .text.BusFault_Handler
                0x080242b8        0x8 ./stm32f4xx_it.o
                0x080242b8                BusFault_Handler
 .text.UsageFault_Handler
                0x080242c0        0x8 ./stm32f4xx_it.o
                0x080242c0                UsageFault_Handler
 .text.DebugMon_Handler
                0x080242c8        0xc ./stm32f4xx_it.o
                0x080242c8                DebugMon_Handler
 .text._exit    0x080242d4        0xc ./syscalls.o
                0x080242d4                _exit
 .text._read_r  0x080242e0       0x20 ./syscalls.o
                0x080242e0                _read_r
 .text._write_r
                0x08024300       0x20 ./syscalls.o
                0x08024300                _write_r
 .text._lseek_r
                0x08024320       0x28 ./syscalls.o
                0x08024320                _lseek_r
 .text._close_r
                0x08024348       0x24 ./syscalls.o
                0x08024348                _close_r
 .text._fstat_r
                0x0802436c       0x40 ./syscalls.o
                0x0802436c                _fstat_r
 .text._isatty_r
                0x080243ac       0x1c ./syscalls.o
                0x080243ac                _isatty_r
 .text._sbrk_r  0x080243c8       0x90 ./syscalls.o
                0x080243c8                _sbrk_r
 .text._kill_r  0x08024458       0x24 ./syscalls.o
                0x08024458                _kill_r
 .text._getpid_r
                0x0802447c       0x20 ./syscalls.o
                0x0802447c                _getpid_r
 .text.__malloc_lock
                0x0802449c       0x14 ./syscalls.o
                0x0802449c                __malloc_lock
 .text.__malloc_unlock
                0x080244b0       0x14 ./syscalls.o
                0x080244b0                __malloc_unlock
 .text.SystemInit
                0x080244c4       0x94 ./system_stm32f4xx.o
                0x080244c4                SystemInit
 .text.SystemCoreClockUpdate
                0x08024558      0x174 ./system_stm32f4xx.o
                0x08024558                SystemCoreClockUpdate
 .text.SetSysClock
                0x080246cc      0x1e0 ./system_stm32f4xx.o
 .text.get_us_time
                0x080248ac       0x8c ./ustime.o
                0x080248ac                get_us_time
 .text.delay_us
                0x08024938       0x5c ./ustime.o
                0x08024938                delay_us
 .text.delay_ms
                0x08024994       0x20 ./ustime.o
                0x08024994                delay_ms
 .text.init_us_timer
                0x080249b4       0x70 ./ustime.o
                0x080249b4                init_us_timer
 .text.__aeabi_atexit
                0x08024a24        0xc e:/elektronik/toolchain/yagarto/bin/../lib/gcc/arm-none-eabi/4.6.2/../../../../arm-none-eabi/lib/thumb/v7m\libstdc++.a(atexit_arm.o)
                0x08024a24                __aeabi_atexit
 .text._ZdlPv   0x08024a30        0x8 e:/elektronik/toolchain/yagarto/bin/../lib/gcc/arm-none-eabi/4.6.2/../../../../arm-none-eabi/lib/thumb/v7m\libstdc++.a(del_op.o)
                0x08024a30                operator delete(void*)
 .text.__cxa_pure_virtual
                0x08024a38       0x18 e:/elektronik/toolchain/yagarto/bin/../lib/gcc/arm-none-eabi/4.6.2/../../../../arm-none-eabi/lib/thumb/v7m\libstdc++.a(pure.o)
                0x08024a38                __cxa_pure_virtual
 .text._ZN10__cxxabiv111__terminateEPFvvE
                0x08024a50       0x28 e:/elektronik/toolchain/yagarto/bin/../lib/gcc/arm-none-eabi/4.6.2/../../../../arm-none-eabi/lib/thumb/v7m\libstdc++.a(eh_terminate.o)
                0x08024a50                __cxxabiv1::__terminate(void (*)())
 .text._ZSt9terminatev
                0x08024a78       0x10 e:/elektronik/toolchain/yagarto/bin/../lib/gcc/arm-none-eabi/4.6.2/../../../../arm-none-eabi/lib/thumb/v7m\libstdc++.a(eh_terminate.o)
                0x08024a78                std::terminate()
 .text._ZN10__cxxabiv112__unexpectedEPFvvE
                0x08024a88        0x8 e:/elektronik/toolchain/yagarto/bin/../lib/gcc/arm-none-eabi/4.6.2/../../../../arm-none-eabi/lib/thumb/v7m\libstdc++.a(eh_terminate.o)
                0x08024a88                __cxxabiv1::__unexpected(void (*)())
 .text._ZSt10unexpectedv
                0x08024a90       0x14 e:/elektronik/toolchain/yagarto/bin/../lib/gcc/arm-none-eabi/4.6.2/../../../../arm-none-eabi/lib/thumb/v7m\libstdc++.a(eh_terminate.o)
                0x08024a90                std::unexpected()
 .text._ZSt13set_terminatePFvvE
                0x08024aa4       0x10 e:/elektronik/toolchain/yagarto/bin/../lib/gcc/arm-none-eabi/4.6.2/../../../../arm-none-eabi/lib/thumb/v7m\libstdc++.a(eh_terminate.o)
                0x08024aa4                std::set_terminate(void (*)())
 .text._ZSt14set_unexpectedPFvvE
                0x08024ab4       0x10 e:/elektronik/toolchain/yagarto/bin/../lib/gcc/arm-none-eabi/4.6.2/../../../../arm-none-eabi/lib/thumb/v7m\libstdc++.a(eh_terminate.o)
                0x08024ab4                std::set_unexpected(void (*)())
 .text._ZN9__gnu_cxx27__verbose_terminate_handlerEv
                0x08024ac4      0x118 e:/elektronik/toolchain/yagarto/bin/../lib/gcc/arm-none-eabi/4.6.2/../../../../arm-none-eabi/lib/thumb/v7m\libstdc++.a(vterminate.o)
                0x08024ac4                __gnu_cxx::__verbose_terminate_handler()
 .text.__cxa_end_cleanup
                0x08024bdc        0xc e:/elektronik/toolchain/yagarto/bin/../lib/gcc/arm-none-eabi/4.6.2/../../../../arm-none-eabi/lib/thumb/v7m\libstdc++.a(eh_arm.o)
                0x08024bdc                __cxa_end_cleanup
 .text.__cxa_type_match
                0x08024be8       0xe4 e:/elektronik/toolchain/yagarto/bin/../lib/gcc/arm-none-eabi/4.6.2/../../../../arm-none-eabi/lib/thumb/v7m\libstdc++.a(eh_arm.o)
                0x08024be8                __cxa_type_match
 .text.__cxa_begin_cleanup
                0x08024ccc       0x68 e:/elektronik/toolchain/yagarto/bin/../lib/gcc/arm-none-eabi/4.6.2/../../../../arm-none-eabi/lib/thumb/v7m\libstdc++.a(eh_arm.o)
                0x08024ccc                __cxa_begin_cleanup
 .text.__gnu_end_cleanup
                0x08024d34       0x74 e:/elektronik/toolchain/yagarto/bin/../lib/gcc/arm-none-eabi/4.6.2/../../../../arm-none-eabi/lib/thumb/v7m\libstdc++.a(eh_arm.o)
                0x08024d34                __gnu_end_cleanup
 .text.__cxa_bad_cast
                0x08024da8       0x24 e:/elektronik/toolchain/yagarto/bin/../lib/gcc/arm-none-eabi/4.6.2/../../../../arm-none-eabi/lib/thumb/v7m\libstdc++.a(eh_aux_runtime.o)
                0x08024da8                __cxa_bad_cast
 .text.__cxa_bad_typeid
                0x08024dcc       0x24 e:/elektronik/toolchain/yagarto/bin/../lib/gcc/arm-none-eabi/4.6.2/../../../../arm-none-eabi/lib/thumb/v7m\libstdc++.a(eh_aux_runtime.o)
                0x08024dcc                __cxa_bad_typeid
 .text.__cxa_call_terminate
                0x08024df0       0x48 e:/elektronik/toolchain/yagarto/bin/../lib/gcc/arm-none-eabi/4.6.2/../../../../arm-none-eabi/lib/thumb/v7m\libstdc++.a(eh_call.o)
                0x08024df0                __cxa_call_terminate
 .text.__cxa_call_unexpected
                0x08024e38      0x11c e:/elektronik/toolchain/yagarto/bin/../lib/gcc/arm-none-eabi/4.6.2/../../../../arm-none-eabi/lib/thumb/v7m\libstdc++.a(eh_call.o)
                0x08024e38                __cxa_call_unexpected
 .text.__cxa_get_exception_ptr
                0x08024f54        0x4 e:/elektronik/toolchain/yagarto/bin/../lib/gcc/arm-none-eabi/4.6.2/../../../../arm-none-eabi/lib/thumb/v7m\libstdc++.a(eh_catch.o)
                0x08024f54                __cxa_get_exception_ptr
 .text.__cxa_begin_catch
                0x08024f58       0x88 e:/elektronik/toolchain/yagarto/bin/../lib/gcc/arm-none-eabi/4.6.2/../../../../arm-none-eabi/lib/thumb/v7m\libstdc++.a(eh_catch.o)
                0x08024f58                __cxa_begin_catch
 .text.__cxa_end_catch
                0x08024fe0       0x90 e:/elektronik/toolchain/yagarto/bin/../lib/gcc/arm-none-eabi/4.6.2/../../../../arm-none-eabi/lib/thumb/v7m\libstdc++.a(eh_catch.o)
                0x08024fe0                __cxa_end_catch
 .text._ZSt18uncaught_exceptionv
                0x08025070       0x10 e:/elektronik/toolchain/yagarto/bin/../lib/gcc/arm-none-eabi/4.6.2/../../../../arm-none-eabi/lib/thumb/v7m\libstdc++.a(eh_catch.o)
                0x08025070                std::uncaught_exception()
 .text._ZNSt9exceptionD2Ev
                0x08025080        0xc e:/elektronik/toolchain/yagarto/bin/../lib/gcc/arm-none-eabi/4.6.2/../../../../arm-none-eabi/lib/thumb/v7m\libstdc++.a(eh_exception.o)
                0x08025080                std::exception::~exception()
                0x08025080                std::exception::~exception()
 .text._ZNSt13bad_exceptionD2Ev
                0x0802508c        0xc e:/elektronik/toolchain/yagarto/bin/../lib/gcc/arm-none-eabi/4.6.2/../../../../arm-none-eabi/lib/thumb/v7m\libstdc++.a(eh_exception.o)
                0x0802508c                std::bad_exception::~bad_exception()
                0x0802508c                std::bad_exception::~bad_exception()
 .text._ZN10__cxxabiv115__forced_unwindD2Ev
                0x08025098        0xc e:/elektronik/toolchain/yagarto/bin/../lib/gcc/arm-none-eabi/4.6.2/../../../../arm-none-eabi/lib/thumb/v7m\libstdc++.a(eh_exception.o)
                0x08025098                __cxxabiv1::__forced_unwind::~__forced_unwind()
                0x08025098                __cxxabiv1::__forced_unwind::~__forced_unwind()
 .text._ZN10__cxxabiv119__foreign_exceptionD2Ev
                0x080250a4        0xc e:/elektronik/toolchain/yagarto/bin/../lib/gcc/arm-none-eabi/4.6.2/../../../../arm-none-eabi/lib/thumb/v7m\libstdc++.a(eh_exception.o)
                0x080250a4                __cxxabiv1::__foreign_exception::~__foreign_exception()
                0x080250a4                __cxxabiv1::__foreign_exception::~__foreign_exception()
 .text._ZNKSt9exception4whatEv
                0x080250b0        0xc e:/elektronik/toolchain/yagarto/bin/../lib/gcc/arm-none-eabi/4.6.2/../../../../arm-none-eabi/lib/thumb/v7m\libstdc++.a(eh_exception.o)
                0x080250b0                std::exception::what() const
 .text._ZNKSt13bad_exception4whatEv
                0x080250bc        0xc e:/elektronik/toolchain/yagarto/bin/../lib/gcc/arm-none-eabi/4.6.2/../../../../arm-none-eabi/lib/thumb/v7m\libstdc++.a(eh_exception.o)
                0x080250bc                std::bad_exception::what() const
 .text._ZN10__cxxabiv119__foreign_exceptionD0Ev
                0x080250c8       0x14 e:/elektronik/toolchain/yagarto/bin/../lib/gcc/arm-none-eabi/4.6.2/../../../../arm-none-eabi/lib/thumb/v7m\libstdc++.a(eh_exception.o)
                0x080250c8                __cxxabiv1::__foreign_exception::~__foreign_exception()
 .text._ZN10__cxxabiv115__forced_unwindD0Ev
                0x080250dc       0x14 e:/elektronik/toolchain/yagarto/bin/../lib/gcc/arm-none-eabi/4.6.2/../../../../arm-none-eabi/lib/thumb/v7m\libstdc++.a(eh_exception.o)
                0x080250dc                __cxxabiv1::__forced_unwind::~__forced_unwind()
 .text._ZNSt13bad_exceptionD0Ev
                0x080250f0       0x14 e:/elektronik/toolchain/yagarto/bin/../lib/gcc/arm-none-eabi/4.6.2/../../../../arm-none-eabi/lib/thumb/v7m\libstdc++.a(eh_exception.o)
                0x080250f0                std::bad_exception::~bad_exception()
 .text._ZNSt9exceptionD0Ev
                0x08025104       0x14 e:/elektronik/toolchain/yagarto/bin/../lib/gcc/arm-none-eabi/4.6.2/../../../../arm-none-eabi/lib/thumb/v7m\libstdc++.a(eh_exception.o)
                0x08025104                std::exception::~exception()
 .text.__cxa_get_globals_fast
                0x08025118        0xc e:/elektronik/toolchain/yagarto/bin/../lib/gcc/arm-none-eabi/4.6.2/../../../../arm-none-eabi/lib/thumb/v7m\libstdc++.a(eh_globals.o)
                0x08025118                __cxa_get_globals_fast
 .text.__cxa_get_globals
                0x08025124        0xc e:/elektronik/toolchain/yagarto/bin/../lib/gcc/arm-none-eabi/4.6.2/../../../../arm-none-eabi/lib/thumb/v7m\libstdc++.a(eh_globals.o)
                0x08025124                __cxa_get_globals
 .text._ZL12read_sleb128PKhPl
                0x08025130       0x3c e:/elektronik/toolchain/yagarto/bin/../lib/gcc/arm-none-eabi/4.6.2/../../../../arm-none-eabi/lib/thumb/v7m\libstdc++.a(eh_personality.o)
 .text._ZL28read_encoded_value_with_basehjPKhPj
                0x0802516c       0xc0 e:/elektronik/toolchain/yagarto/bin/../lib/gcc/arm-none-eabi/4.6.2/../../../../arm-none-eabi/lib/thumb/v7m\libstdc++.a(eh_personality.o)
 .text._ZL21base_of_encoded_valuehP15_Unwind_Context
                0x0802522c       0x4c e:/elektronik/toolchain/yagarto/bin/../lib/gcc/arm-none-eabi/4.6.2/../../../../arm-none-eabi/lib/thumb/v7m\libstdc++.a(eh_personality.o)
 .text._ZL17parse_lsda_headerP15_Unwind_ContextPKhP16lsda_header_info.constprop.1
                0x08025278       0x8c e:/elektronik/toolchain/yagarto/bin/../lib/gcc/arm-none-eabi/4.6.2/../../../../arm-none-eabi/lib/thumb/v7m\libstdc++.a(eh_personality.o)
 .text.__gxx_personality_v0
                0x08025304      0x3a8 e:/elektronik/toolchain/yagarto/bin/../lib/gcc/arm-none-eabi/4.6.2/../../../../arm-none-eabi/lib/thumb/v7m\libstdc++.a(eh_personality.o)
                0x08025304                __gxx_personality_v0
 .text._ZL23__gxx_exception_cleanup19_Unwind_Reason_CodeP21_Unwind_Control_Block
                0x080256ac       0x4c e:/elektronik/toolchain/yagarto/bin/../lib/gcc/arm-none-eabi/4.6.2/../../../../arm-none-eabi/lib/thumb/v7m\libstdc++.a(eh_throw.o)
 .text.__cxa_throw
                0x080256f8       0x78 e:/elektronik/toolchain/yagarto/bin/../lib/gcc/arm-none-eabi/4.6.2/../../../../arm-none-eabi/lib/thumb/v7m\libstdc++.a(eh_throw.o)
                0x080256f8                __cxa_throw
 .text.__cxa_rethrow
                0x08025770       0x70 e:/elektronik/toolchain/yagarto/bin/../lib/gcc/arm-none-eabi/4.6.2/../../../../arm-none-eabi/lib/thumb/v7m\libstdc++.a(eh_throw.o)
                0x08025770                __cxa_rethrow
 .text.__cxa_current_exception_type
                0x080257e0       0x1c e:/elektronik/toolchain/yagarto/bin/../lib/gcc/arm-none-eabi/4.6.2/../../../../arm-none-eabi/lib/thumb/v7m\libstdc++.a(eh_type.o)
                0x080257e0                __cxa_current_exception_type
 .text._ZN10__cxxabiv123__fundamental_type_infoD2Ev
                0x080257fc       0x14 e:/elektronik/toolchain/yagarto/bin/../lib/gcc/arm-none-eabi/4.6.2/../../../../arm-none-eabi/lib/thumb/v7m\libstdc++.a(fundamental_type_info.o)
                0x080257fc                __cxxabiv1::__fundamental_type_info::~__fundamental_type_info()
                0x080257fc                __cxxabiv1::__fundamental_type_info::~__fundamental_type_info()
 .text._ZN10__cxxabiv123__fundamental_type_infoD0Ev
                0x08025810       0x1c e:/elektronik/toolchain/yagarto/bin/../lib/gcc/arm-none-eabi/4.6.2/../../../../arm-none-eabi/lib/thumb/v7m\libstdc++.a(fundamental_type_info.o)
                0x08025810                __cxxabiv1::__fundamental_type_info::~__fundamental_type_info()
 .text._ZNK10__cxxabiv119__pointer_type_info14__is_pointer_pEv
                0x0802582c        0x4 e:/elektronik/toolchain/yagarto/bin/../lib/gcc/arm-none-eabi/4.6.2/../../../../arm-none-eabi/lib/thumb/v7m\libstdc++.a(pointer_type_info.o)
                0x0802582c                __cxxabiv1::__pointer_type_info::__is_pointer_p() const
 .text._ZN10__cxxabiv119__pointer_type_infoD2Ev
                0x08025830       0x14 e:/elektronik/toolchain/yagarto/bin/../lib/gcc/arm-none-eabi/4.6.2/../../../../arm-none-eabi/lib/thumb/v7m\libstdc++.a(pointer_type_info.o)
                0x08025830                __cxxabiv1::__pointer_type_info::~__pointer_type_info()
                0x08025830                __cxxabiv1::__pointer_type_info::~__pointer_type_info()
 .text._ZN10__cxxabiv119__pointer_type_infoD0Ev
                0x08025844       0x1c e:/elektronik/toolchain/yagarto/bin/../lib/gcc/arm-none-eabi/4.6.2/../../../../arm-none-eabi/lib/thumb/v7m\libstdc++.a(pointer_type_info.o)
                0x08025844                __cxxabiv1::__pointer_type_info::~__pointer_type_info()
 .text._ZNK10__cxxabiv119__pointer_type_info15__pointer_catchEPKNS_17__pbase_type_infoEPPvj
                0x08025860       0x48 e:/elektronik/toolchain/yagarto/bin/../lib/gcc/arm-none-eabi/4.6.2/../../../../arm-none-eabi/lib/thumb/v7m\libstdc++.a(pointer_type_info.o)
                0x08025860                __cxxabiv1::__pointer_type_info::__pointer_catch(__cxxabiv1::__pbase_type_info const*, void**, unsigned int) const
 .text._ZN10__cxxabiv120__si_class_type_infoD2Ev
                0x080258a8       0x14 e:/elektronik/toolchain/yagarto/bin/../lib/gcc/arm-none-eabi/4.6.2/../../../../arm-none-eabi/lib/thumb/v7m\libstdc++.a(si_class_type_info.o)
                0x080258a8                __cxxabiv1::__si_class_type_info::~__si_class_type_info()
                0x080258a8                __cxxabiv1::__si_class_type_info::~__si_class_type_info()
 .text._ZN10__cxxabiv120__si_class_type_infoD0Ev
                0x080258bc       0x1c e:/elektronik/toolchain/yagarto/bin/../lib/gcc/arm-none-eabi/4.6.2/../../../../arm-none-eabi/lib/thumb/v7m\libstdc++.a(si_class_type_info.o)
                0x080258bc                __cxxabiv1::__si_class_type_info::~__si_class_type_info()
 .text._ZNK10__cxxabiv120__si_class_type_info11__do_upcastEPKNS_17__class_type_infoEPKvRNS1_15__upcast_resultE
                0x080258d8       0x28 e:/elektronik/toolchain/yagarto/bin/../lib/gcc/arm-none-eabi/4.6.2/../../../../arm-none-eabi/lib/thumb/v7m\libstdc++.a(si_class_type_info.o)
                0x080258d8                __cxxabiv1::__si_class_type_info::__do_upcast(__cxxabiv1::__class_type_info const*, void const*, __cxxabiv1::__class_type_info::__upcast_result&) const
 .text._ZNK10__cxxabiv120__si_class_type_info12__do_dyncastEiNS_17__class_type_info10__sub_kindEPKS1_PKvS4_S6_RNS1_16__dyncast_resultE
                0x08025900       0x88 e:/elektronik/toolchain/yagarto/bin/../lib/gcc/arm-none-eabi/4.6.2/../../../../arm-none-eabi/lib/thumb/v7m\libstdc++.a(si_class_type_info.o)
                0x08025900                __cxxabiv1::__si_class_type_info::__do_dyncast(int, __cxxabiv1::__class_type_info::__sub_kind, __cxxabiv1::__class_type_info const*, void const*, __cxxabiv1::__class_type_info const*, void const*, __cxxabiv1::__class_type_info::__dyncast_result&) const
 .text._ZNK10__cxxabiv120__si_class_type_info20__do_find_public_srcEiPKvPKNS_17__class_type_infoES2_
                0x08025988       0x38 e:/elektronik/toolchain/yagarto/bin/../lib/gcc/arm-none-eabi/4.6.2/../../../../arm-none-eabi/lib/thumb/v7m\libstdc++.a(si_class_type_info.o)
                0x08025988                __cxxabiv1::__si_class_type_info::__do_find_public_src(int, void const*, __cxxabiv1::__class_type_info const*, void const*) const
 .text._ZNSt9type_infoD2Ev
                0x080259c0        0xc e:/elektronik/toolchain/yagarto/bin/../lib/gcc/arm-none-eabi/4.6.2/../../../../arm-none-eabi/lib/thumb/v7m\libstdc++.a(tinfo.o)
                0x080259c0                std::type_info::~type_info()
                0x080259c0                std::type_info::~type_info()
 .text._ZNKSt9type_info14__is_pointer_pEv
                0x080259cc        0x4 e:/elektronik/toolchain/yagarto/bin/../lib/gcc/arm-none-eabi/4.6.2/../../../../arm-none-eabi/lib/thumb/v7m\libstdc++.a(tinfo.o)
                0x080259cc                std::type_info::__is_pointer_p() const
 .text._ZNKSt9type_info15__is_function_pEv
                0x080259d0        0x4 e:/elektronik/toolchain/yagarto/bin/../lib/gcc/arm-none-eabi/4.6.2/../../../../arm-none-eabi/lib/thumb/v7m\libstdc++.a(tinfo.o)
                0x080259d0                std::type_info::__is_function_p() const
 .text._ZNKSt9type_info11__do_upcastEPKN10__cxxabiv117__class_type_infoEPPv
                0x080259d4        0x4 e:/elektronik/toolchain/yagarto/bin/../lib/gcc/arm-none-eabi/4.6.2/../../../../arm-none-eabi/lib/thumb/v7m\libstdc++.a(tinfo.o)
                0x080259d4                std::type_info::__do_upcast(__cxxabiv1::__class_type_info const*, void**) const
 .text._ZNSt9type_infoD0Ev
                0x080259d8       0x14 e:/elektronik/toolchain/yagarto/bin/../lib/gcc/arm-none-eabi/4.6.2/../../../../arm-none-eabi/lib/thumb/v7m\libstdc++.a(tinfo.o)
                0x080259d8                std::type_info::~type_info()
 .text._ZNKSt9type_infoeqERKS_
                0x080259ec       0x38 e:/elektronik/toolchain/yagarto/bin/../lib/gcc/arm-none-eabi/4.6.2/../../../../arm-none-eabi/lib/thumb/v7m\libstdc++.a(tinfo.o)
                0x080259ec                std::type_info::operator==(std::type_info const&) const
 .text._ZNKSt9type_info10__do_catchEPKS_PPvj
                0x08025a24        0x4 e:/elektronik/toolchain/yagarto/bin/../lib/gcc/arm-none-eabi/4.6.2/../../../../arm-none-eabi/lib/thumb/v7m\libstdc++.a(tinfo.o)
                0x08025a24                std::type_info::__do_catch(std::type_info const*, void**, unsigned int) const
 .text._ZNKSt8bad_cast4whatEv
                0x08025a28        0xc e:/elektronik/toolchain/yagarto/bin/../lib/gcc/arm-none-eabi/4.6.2/../../../../arm-none-eabi/lib/thumb/v7m\libstdc++.a(bad_cast.o)
                0x08025a28                std::bad_cast::what() const
 .text._ZNSt8bad_castD2Ev
                0x08025a34       0x14 e:/elektronik/toolchain/yagarto/bin/../lib/gcc/arm-none-eabi/4.6.2/../../../../arm-none-eabi/lib/thumb/v7m\libstdc++.a(bad_cast.o)
                0x08025a34                std::bad_cast::~bad_cast()
                0x08025a34                std::bad_cast::~bad_cast()
 .text._ZNSt8bad_castD0Ev
                0x08025a48       0x1c e:/elektronik/toolchain/yagarto/bin/../lib/gcc/arm-none-eabi/4.6.2/../../../../arm-none-eabi/lib/thumb/v7m\libstdc++.a(bad_cast.o)
                0x08025a48                std::bad_cast::~bad_cast()
 .text._ZNKSt10bad_typeid4whatEv
                0x08025a64        0xc e:/elektronik/toolchain/yagarto/bin/../lib/gcc/arm-none-eabi/4.6.2/../../../../arm-none-eabi/lib/thumb/v7m\libstdc++.a(bad_typeid.o)
                0x08025a64                std::bad_typeid::what() const
 .text._ZNSt10bad_typeidD2Ev
                0x08025a70       0x14 e:/elektronik/toolchain/yagarto/bin/../lib/gcc/arm-none-eabi/4.6.2/../../../../arm-none-eabi/lib/thumb/v7m\libstdc++.a(bad_typeid.o)
                0x08025a70                std::bad_typeid::~bad_typeid()
                0x08025a70                std::bad_typeid::~bad_typeid()
 .text._ZNSt10bad_typeidD0Ev
                0x08025a84       0x1c e:/elektronik/toolchain/yagarto/bin/../lib/gcc/arm-none-eabi/4.6.2/../../../../arm-none-eabi/lib/thumb/v7m\libstdc++.a(bad_typeid.o)
                0x08025a84                std::bad_typeid::~bad_typeid()
 .text._ZNK10__cxxabiv117__class_type_info11__do_upcastEPKS0_PPv
                0x08025aa0       0x38 e:/elektronik/toolchain/yagarto/bin/../lib/gcc/arm-none-eabi/4.6.2/../../../../arm-none-eabi/lib/thumb/v7m\libstdc++.a(class_type_info.o)
                0x08025aa0                __cxxabiv1::__class_type_info::__do_upcast(__cxxabiv1::__class_type_info const*, void**) const
 .text._ZNK10__cxxabiv117__class_type_info20__do_find_public_srcEiPKvPKS0_S2_
                0x08025ad8        0xc e:/elektronik/toolchain/yagarto/bin/../lib/gcc/arm-none-eabi/4.6.2/../../../../arm-none-eabi/lib/thumb/v7m\libstdc++.a(class_type_info.o)
                0x08025ad8                __cxxabiv1::__class_type_info::__do_find_public_src(int, void const*, __cxxabiv1::__class_type_info const*, void const*) const
 .text._ZNK10__cxxabiv117__class_type_info11__do_upcastEPKS0_PKvRNS0_15__upcast_resultE
                0x08025ae4       0x1c e:/elektronik/toolchain/yagarto/bin/../lib/gcc/arm-none-eabi/4.6.2/../../../../arm-none-eabi/lib/thumb/v7m\libstdc++.a(class_type_info.o)
                0x08025ae4                __cxxabiv1::__class_type_info::__do_upcast(__cxxabiv1::__class_type_info const*, void const*, __cxxabiv1::__class_type_info::__upcast_result&) const
 .text._ZN10__cxxabiv117__class_type_infoD2Ev
                0x08025b00       0x14 e:/elektronik/toolchain/yagarto/bin/../lib/gcc/arm-none-eabi/4.6.2/../../../../arm-none-eabi/lib/thumb/v7m\libstdc++.a(class_type_info.o)
                0x08025b00                __cxxabiv1::__class_type_info::~__class_type_info()
                0x08025b00                __cxxabiv1::__class_type_info::~__class_type_info()
 .text._ZN10__cxxabiv117__class_type_infoD0Ev
                0x08025b14       0x1c e:/elektronik/toolchain/yagarto/bin/../lib/gcc/arm-none-eabi/4.6.2/../../../../arm-none-eabi/lib/thumb/v7m\libstdc++.a(class_type_info.o)
                0x08025b14                __cxxabiv1::__class_type_info::~__class_type_info()
 .text._ZNK10__cxxabiv117__class_type_info12__do_dyncastEiNS0_10__sub_kindEPKS0_PKvS3_S5_RNS0_16__dyncast_resultE
                0x08025b30       0x3c e:/elektronik/toolchain/yagarto/bin/../lib/gcc/arm-none-eabi/4.6.2/../../../../arm-none-eabi/lib/thumb/v7m\libstdc++.a(class_type_info.o)
                0x08025b30                __cxxabiv1::__class_type_info::__do_dyncast(int, __cxxabiv1::__class_type_info::__sub_kind, __cxxabiv1::__class_type_info const*, void const*, __cxxabiv1::__class_type_info const*, void const*, __cxxabiv1::__class_type_info::__dyncast_result&) const
 .text._ZNK10__cxxabiv117__class_type_info10__do_catchEPKSt9type_infoPPvj
                0x08025b6c       0x28 e:/elektronik/toolchain/yagarto/bin/../lib/gcc/arm-none-eabi/4.6.2/../../../../arm-none-eabi/lib/thumb/v7m\libstdc++.a(class_type_info.o)
                0x08025b6c                __cxxabiv1::__class_type_info::__do_catch(std::type_info const*, void**, unsigned int) const
 .text.__cxa_allocate_exception
                0x08025b94       0x64 e:/elektronik/toolchain/yagarto/bin/../lib/gcc/arm-none-eabi/4.6.2/../../../../arm-none-eabi/lib/thumb/v7m\libstdc++.a(eh_alloc.o)
                0x08025b94                __cxa_allocate_exception
 .text.__cxa_free_exception
                0x08025bf8       0x34 e:/elektronik/toolchain/yagarto/bin/../lib/gcc/arm-none-eabi/4.6.2/../../../../arm-none-eabi/lib/thumb/v7m\libstdc++.a(eh_alloc.o)
                0x08025bf8                __cxa_free_exception
 .text.__cxa_allocate_dependent_exception
                0x08025c2c       0x58 e:/elektronik/toolchain/yagarto/bin/../lib/gcc/arm-none-eabi/4.6.2/../../../../arm-none-eabi/lib/thumb/v7m\libstdc++.a(eh_alloc.o)
                0x08025c2c                __cxa_allocate_dependent_exception
 .text.__cxa_free_dependent_exception
                0x08025c84       0x44 e:/elektronik/toolchain/yagarto/bin/../lib/gcc/arm-none-eabi/4.6.2/../../../../arm-none-eabi/lib/thumb/v7m\libstdc++.a(eh_alloc.o)
                0x08025c84                __cxa_free_dependent_exception
 .text._ZNK10__cxxabiv117__pbase_type_info15__pointer_catchEPKS0_PPvj
                0x08025cc8       0x14 e:/elektronik/toolchain/yagarto/bin/../lib/gcc/arm-none-eabi/4.6.2/../../../../arm-none-eabi/lib/thumb/v7m\libstdc++.a(pbase_type_info.o)
                0x08025cc8                __cxxabiv1::__pbase_type_info::__pointer_catch(__cxxabiv1::__pbase_type_info const*, void**, unsigned int) const
 .text._ZN10__cxxabiv117__pbase_type_infoD2Ev
                0x08025cdc       0x14 e:/elektronik/toolchain/yagarto/bin/../lib/gcc/arm-none-eabi/4.6.2/../../../../arm-none-eabi/lib/thumb/v7m\libstdc++.a(pbase_type_info.o)
                0x08025cdc                __cxxabiv1::__pbase_type_info::~__pbase_type_info()
                0x08025cdc                __cxxabiv1::__pbase_type_info::~__pbase_type_info()
 .text._ZN10__cxxabiv117__pbase_type_infoD0Ev
                0x08025cf0       0x1c e:/elektronik/toolchain/yagarto/bin/../lib/gcc/arm-none-eabi/4.6.2/../../../../arm-none-eabi/lib/thumb/v7m\libstdc++.a(pbase_type_info.o)
                0x08025cf0                __cxxabiv1::__pbase_type_info::~__pbase_type_info()
 .text._ZNK10__cxxabiv117__pbase_type_info10__do_catchEPKSt9type_infoPPvj
                0x08025d0c       0x6c e:/elektronik/toolchain/yagarto/bin/../lib/gcc/arm-none-eabi/4.6.2/../../../../arm-none-eabi/lib/thumb/v7m\libstdc++.a(pbase_type_info.o)
                0x08025d0c                __cxxabiv1::__pbase_type_info::__do_catch(std::type_info const*, void**, unsigned int) const
 *(.rodata)
 .rodata        0x08025d78       0x38 ./FreeRTOS_EC/Source/ASyncObject.o
 .rodata        0x08025db0       0x38 ./FreeRTOS_EC/Source/CBinarySemaphore.o
 .rodata        0x08025de8       0x38 ./FreeRTOS_EC/Source/CCountingSemaphore.o
 .rodata        0x08025e20       0x2c ./FreeRTOS_EC/Source/CMessageTask.o
 .rodata        0x08025e4c       0x2c ./FreeRTOS_EC/Source/CMutex.o
 .rodata        0x08025e78       0x40 ./FreeRTOS_EC/Source/CQueue.o
 .rodata        0x08025eb8       0x30 ./FreeRTOS_EC/Source/CTask.o
 .rodata        0x08025ee8       0x74 ./FreeRTOS/Source/tasks.o
 .rodata        0x08025f5c       0x18 ./main.o
 .rodata        0x08025f74      0xdd8 e:/elektronik/toolchain/yagarto/bin/../lib/gcc/arm-none-eabi/4.6.2/../../../../arm-none-eabi/lib/thumb/v7m\libstdc++.a(cp-demangle.o)
 .rodata        0x08026d4c        0x4 e:/elektronik/toolchain/yagarto/bin/../lib/gcc/arm-none-eabi/4.6.2/../../../../arm-none-eabi/lib/thumb/v7m\libg.a(lib_a-impure.o)
                0x08026d4c                _global_impure_ptr
 .rodata        0x08026d50       0x20 e:/elektronik/toolchain/yagarto/bin/../lib/gcc/arm-none-eabi/4.6.2/../../../../arm-none-eabi/lib/thumb/v7m\libg.a(lib_a-svfprintf.o)
 .rodata        0x08026d70       0x20 e:/elektronik/toolchain/yagarto/bin/../lib/gcc/arm-none-eabi/4.6.2/../../../../arm-none-eabi/lib/thumb/v7m\libg.a(lib_a-vfiprintf.o)
 .rodata        0x08026d90      0x128 e:/elektronik/toolchain/yagarto/bin/../lib/gcc/arm-none-eabi/4.6.2/../../../../arm-none-eabi/lib/thumb/v7m\libg.a(lib_a-mprec.o)
                0x08026da0                __mprec_tens
                0x08026e68                __mprec_tinytens
                0x08026e90                __mprec_bigtens
 .rodata        0x08026eb8       0x20 e:/elektronik/toolchain/yagarto/bin/../lib/gcc/arm-none-eabi/4.6.2/../../../../arm-none-eabi/lib/thumb/v7m\libg.a(lib_a-svfiprintf.o)
 *(.rodata*)
 .rodata.GPIO_PIN
                0x08026ed8        0x8 ./STM32F4-Discovery/stm32f4_discovery.o
                0x08026ed8                GPIO_PIN
 .rodata.GPIO_CLK
                0x08026ee0       0x10 ./STM32F4-Discovery/stm32f4_discovery.o
                0x08026ee0                GPIO_CLK
 .rodata.BUTTON_PIN
                0x08026ef0        0x4 ./STM32F4-Discovery/stm32f4_discovery.o
                0x08026ef0                BUTTON_PIN
 .rodata.BUTTON_CLK
                0x08026ef4        0x4 ./STM32F4-Discovery/stm32f4_discovery.o
                0x08026ef4                BUTTON_CLK
 .rodata.BUTTON_EXTI_LINE
                0x08026ef8        0x4 ./STM32F4-Discovery/stm32f4_discovery.o
                0x08026ef8                BUTTON_EXTI_LINE
 .rodata.BUTTON_PORT_SOURCE
                0x08026efc        0x4 ./STM32F4-Discovery/stm32f4_discovery.o
                0x08026efc                BUTTON_PORT_SOURCE
 .rodata.BUTTON_PIN_SOURCE
                0x08026f00        0x4 ./STM32F4-Discovery/stm32f4_discovery.o
                0x08026f00                BUTTON_PIN_SOURCE
 .rodata.BUTTON_IRQn
                0x08026f04        0x4 ./STM32F4-Discovery/stm32f4_discovery.o
                0x08026f04                BUTTON_IRQn
 .rodata._ZTV6CMenue
                0x08026f08       0x28 ./Menue/CMenue.o
                0x08026f08                vtable for CMenue
 .rodata._ZTV11CGraphicLCD
                0x08026f30       0x38 ./GraphicLCD/CGraphicLCD.o
                0x08026f30                vtable for CGraphicLCD
 .rodata._ZTV13CT6963CDriver
                0x08026f68       0x48 ./GraphicLCD/CT6963CDriver.o
                0x08026f68                vtable for CT6963CDriver
 .rodata._ZL12c_FontNative
                0x08026fb0       0x18 ./GraphicLCD/CT6963CDriver.o
 .rodata._ZL20GLCD_NUMBER_OF_LINES
                0x08026fc8        0x1 ./GraphicLCD/CT6963CDriver.o
 .rodata._ZL20GLCD_PIXELS_PER_LINE
                0x08026fc9        0x1 ./GraphicLCD/CT6963CDriver.o
 .rodata._ZL15GLCD_FONT_WIDTH
                0x08026fca        0x1 ./GraphicLCD/CT6963CDriver.o
 .rodata._ZL17GLCD_GRAPHIC_AREA
                0x08026fcb        0x1 ./GraphicLCD/CT6963CDriver.o
 .rodata._ZL14GLCD_TEXT_AREA
                0x08026fcc        0x1 ./GraphicLCD/CT6963CDriver.o
 *fill*         0x08026fcd        0x3 00
 .rodata._ZL17GLCD_GRAPHIC_SIZE
                0x08026fd0        0x4 ./GraphicLCD/CT6963CDriver.o
 .rodata._ZL14GLCD_TEXT_SIZE
                0x08026fd4        0x4 ./GraphicLCD/CT6963CDriver.o
 .rodata._ZL14GLCD_TEXT_HOME
                0x08026fd8        0x4 ./GraphicLCD/CT6963CDriver.o
 .rodata._ZL17GLCD_GRAPHIC_HOME
                0x08026fdc        0x4 ./GraphicLCD/CT6963CDriver.o
 .rodata._ZL20GLCD_OFFSET_REGISTER
                0x08026fe0        0x1 ./GraphicLCD/CT6963CDriver.o
 *fill*         0x08026fe1        0x3 00
 .rodata._ZL21GLCD_EXTERNAL_CG_HOME
                0x08026fe4        0x4 ./GraphicLCD/CT6963CDriver.o
 .rodata._ZL24T6963_SET_CURSOR_POINTER
                0x08026fe8        0x1 ./GraphicLCD/CT6963CDriver.o
 .rodata._ZL25T6963_SET_OFFSET_REGISTER
                0x08026fe9        0x1 ./GraphicLCD/CT6963CDriver.o
 .rodata._ZL25T6963_SET_ADDRESS_POINTER
                0x08026fea        0x1 ./GraphicLCD/CT6963CDriver.o
 .rodata._ZL27T6963_SET_TEXT_HOME_ADDRESS
                0x08026feb        0x1 ./GraphicLCD/CT6963CDriver.o
 .rodata._ZL19T6963_SET_TEXT_AREA
                0x08026fec        0x1 ./GraphicLCD/CT6963CDriver.o
 .rodata._ZL30T6963_SET_GRAPHIC_HOME_ADDRESS
                0x08026fed        0x1 ./GraphicLCD/CT6963CDriver.o
 .rodata._ZL22T6963_SET_GRAPHIC_AREA
                0x08026fee        0x1 ./GraphicLCD/CT6963CDriver.o
 .rodata._ZL14T6963_MODE_SET
                0x08026fef        0x1 ./GraphicLCD/CT6963CDriver.o
 .rodata._ZL18T6963_DISPLAY_MODE
                0x08026ff0        0x1 ./GraphicLCD/CT6963CDriver.o
 .rodata._ZL21T6963_CURSOR_BLINK_ON
                0x08026ff1        0x1 ./GraphicLCD/CT6963CDriver.o
 .rodata._ZL23T6963_CURSOR_DISPLAY_ON
                0x08026ff2        0x1 ./GraphicLCD/CT6963CDriver.o
 .rodata._ZL21T6963_TEXT_DISPLAY_ON
                0x08026ff3        0x1 ./GraphicLCD/CT6963CDriver.o
 .rodata._ZL24T6963_GRAPHIC_DISPLAY_ON
                0x08026ff4        0x1 ./GraphicLCD/CT6963CDriver.o
 .rodata._ZL27T6963_CURSOR_PATTERN_SELECT
                0x08026ff5        0x1 ./GraphicLCD/CT6963CDriver.o
 .rodata._ZL19T6963_CURSOR_1_LINE
                0x08026ff6        0x1 ./GraphicLCD/CT6963CDriver.o
 .rodata._ZL19T6963_CURSOR_2_LINE
                0x08026ff7        0x1 ./GraphicLCD/CT6963CDriver.o
 .rodata._ZL19T6963_CURSOR_3_LINE
                0x08026ff8        0x1 ./GraphicLCD/CT6963CDriver.o
 .rodata._ZL19T6963_CURSOR_4_LINE
                0x08026ff9        0x1 ./GraphicLCD/CT6963CDriver.o
 .rodata._ZL19T6963_CURSOR_5_LINE
                0x08026ffa        0x1 ./GraphicLCD/CT6963CDriver.o
 .rodata._ZL19T6963_CURSOR_6_LINE
                0x08026ffb        0x1 ./GraphicLCD/CT6963CDriver.o
 .rodata._ZL19T6963_CURSOR_7_LINE
                0x08026ffc        0x1 ./GraphicLCD/CT6963CDriver.o
 .rodata._ZL19T6963_CURSOR_8_LINE
                0x08026ffd        0x1 ./GraphicLCD/CT6963CDriver.o
 .rodata._ZL25T6963_SET_DATA_AUTO_WRITE
                0x08026ffe        0x1 ./GraphicLCD/CT6963CDriver.o
 .rodata._ZL24T6963_SET_DATA_AUTO_READ
                0x08026fff        0x1 ./GraphicLCD/CT6963CDriver.o
 .rodata._ZL16T6963_AUTO_RESET
                0x08027000        0x1 ./GraphicLCD/CT6963CDriver.o
 .rodata._ZL30T6963_DATA_WRITE_AND_INCREMENT
                0x08027001        0x1 ./GraphicLCD/CT6963CDriver.o
 .rodata._ZL29T6963_DATA_READ_AND_INCREMENT
                0x08027002        0x1 ./GraphicLCD/CT6963CDriver.o
 .rodata._ZL30T6963_DATA_WRITE_AND_DECREMENT
                0x08027003        0x1 ./GraphicLCD/CT6963CDriver.o
 .rodata._ZL29T6963_DATA_READ_AND_DECREMENT
                0x08027004        0x1 ./GraphicLCD/CT6963CDriver.o
 .rodata._ZL32T6963_DATA_WRITE_AND_NONVARIALBE
                0x08027005        0x1 ./GraphicLCD/CT6963CDriver.o
 .rodata._ZL31T6963_DATA_READ_AND_NONVARIABLE
                0x08027006        0x1 ./GraphicLCD/CT6963CDriver.o
 .rodata._ZL17T6963_SCREEN_PEEK
                0x08027007        0x1 ./GraphicLCD/CT6963CDriver.o
 .rodata._ZL17T6963_SCREEN_COPY
                0x08027008        0x1 ./GraphicLCD/CT6963CDriver.o
 *fill*         0x08027009        0x7 00
 .rodata._ZTV21CT6963_GPIO_Interface
                0x08027010       0x48 ./GraphicLCD/CT6963GPIOInterface.o
                0x08027010                vtable for CT6963_GPIO_Interface
 .rodata._ZL12c_FontNative
                0x08027058       0x18 ./GraphicLCD/CT6963GPIOInterface.o
 .rodata._ZL12c_iDelayFore
                0x08027070        0x4 ./GraphicLCD/CT6963GPIOInterface.o
 .rodata._ZL13c_iDelayAfter
                0x08027074        0x4 ./GraphicLCD/CT6963GPIOInterface.o
 .rodata._ZL35Microsoft_Sans_Serif__12_char_table
                0x08027078      0xb40 ./GraphicLCD/SansSerif12.o
 .rodata._ZL38Microsoft_Sans_Serif__12_mapping_table
                0x08027bb8      0x100 ./GraphicLCD/SansSerif12.o
 .rodata._ZL36Microsoft_Sans_Serif__12_width_table
                0x08027cb8       0x5c ./GraphicLCD/SansSerif12.o
 .rodata._ZL37Microsoft_Sans_Serif__12_offset_table
                0x08027d14      0x170 ./GraphicLCD/SansSerif12.o
 .rodata._ZL17c_FontSansSerif12
                0x08027e84       0x18 ./GraphicLCD/SansSerif12.o
 *fill*         0x08027e9c        0x4 00
 .rodata._ZTV12AManagedTask
                0x08027ea0       0x28 ./FreeRTOS_EC/Source/AManagedTask.o
                0x08027ea0                vtable for AManagedTask
 .rodata._ZTV11ASyncObject
                0x08027ec8       0x28 ./FreeRTOS_EC/Source/ASyncObject.o
                0x08027ec8                vtable for ASyncObject
 .rodata._ZTV12IFreeRTOSObj
                0x08027ef0       0x18 ./FreeRTOS_EC/Source/ASyncObject.o
                0x08027ef0                vtable for IFreeRTOSObj
 .rodata._ZZN11ASyncObject6AttachEPvE19__PRETTY_FUNCTION__
                0x08027f08       0x34 ./FreeRTOS_EC/Source/ASyncObject.o
 *fill*         0x08027f3c        0x4 00
 .rodata._ZTV16CBinarySemaphore
                0x08027f40       0x28 ./FreeRTOS_EC/Source/CBinarySemaphore.o
                0x08027f40                vtable for CBinarySemaphore
 .rodata._ZZN16CBinarySemaphore4GiveEvE19__PRETTY_FUNCTION__
                0x08027f68       0x2c ./FreeRTOS_EC/Source/CBinarySemaphore.o
 .rodata._ZZN16CBinarySemaphore4TakeEmE19__PRETTY_FUNCTION__
                0x08027f94       0x38 ./FreeRTOS_EC/Source/CBinarySemaphore.o
 *fill*         0x08027fcc        0x4 00
 .rodata._ZTV18CCountingSemaphore
                0x08027fd0       0x28 ./FreeRTOS_EC/Source/CCountingSemaphore.o
                0x08027fd0                vtable for CCountingSemaphore
 .rodata._ZZN18CCountingSemaphore4GiveEvE19__PRETTY_FUNCTION__
                0x08027ff8       0x2c ./FreeRTOS_EC/Source/CCountingSemaphore.o
 .rodata._ZZN18CCountingSemaphore4TakeEmE19__PRETTY_FUNCTION__
                0x08028024       0x38 ./FreeRTOS_EC/Source/CCountingSemaphore.o
 .rodata._ZN12CMessageTask13s_message_mapE
                0x0802805c        0xc ./FreeRTOS_EC/Source/CMessageTask.o
                0x0802805c                CMessageTask::s_message_map
 .rodata._ZTV12CMessageTask
                0x08028068       0x38 ./FreeRTOS_EC/Source/CMessageTask.o
                0x08028068                vtable for CMessageTask
 .rodata._ZZN6CQueue18SendToFrontFromISREPKvPlE19__PRETTY_FUNCTION__
                0x080280a0       0x3c ./FreeRTOS_EC/Source/CMessageTask.o
 .rodata._ZZN6CQueue11SendToFrontEPKvmE19__PRETTY_FUNCTION__
                0x080280dc       0x38 ./FreeRTOS_EC/Source/CMessageTask.o
 .rodata._ZZN6CQueue7ReceiveEPvmE19__PRETTY_FUNCTION__
                0x08028114       0x30 ./FreeRTOS_EC/Source/CMessageTask.o
 *fill*         0x08028144        0x4 00
 .rodata._ZTV6CMutex
                0x08028148       0x28 ./FreeRTOS_EC/Source/CMutex.o
                0x08028148                vtable for CMutex
 .rodata._ZZN6CMutex4GiveEvE19__PRETTY_FUNCTION__
                0x08028170       0x20 ./FreeRTOS_EC/Source/CMutex.o
 .rodata._ZZN6CMutex4TakeEmE19__PRETTY_FUNCTION__
                0x08028190       0x2c ./FreeRTOS_EC/Source/CMutex.o
 *fill*         0x080281bc        0x4 00
 .rodata._ZTV6CQueue
                0x080281c0       0x20 ./FreeRTOS_EC/Source/CQueue.o
                0x080281c0                vtable for CQueue
 .rodata._ZZN6CQueue6AttachEPvE19__PRETTY_FUNCTION__
                0x080281e0       0x2c ./FreeRTOS_EC/Source/CQueue.o
 .rodata._ZZN6CQueue6CreateEmmE19__PRETTY_FUNCTION__
                0x0802820c       0x40 ./FreeRTOS_EC/Source/CQueue.o
 *fill*         0x0802824c        0x4 00
 .rodata._ZTV15CRecursiveMutex
                0x08028250       0x28 ./FreeRTOS_EC/Source/CRecursiveMutex.o
                0x08028250                vtable for CRecursiveMutex
 .rodata._ZTV5CTask
                0x08028278       0x20 ./FreeRTOS_EC/Source/CTask.o
                0x08028278                vtable for CTask
 .rodata._ZZN5CTask6AttachEPvE19__PRETTY_FUNCTION__
                0x08028298       0x2c ./FreeRTOS_EC/Source/CTask.o
 .rodata.ulKernelPriority
                0x080282c4        0x4 ./FreeRTOS/Source/portable/GCC/ARM_CM4F/port.o
                0x080282c4                ulKernelPriority
 .rodata._ZTV24CLedHeartBeatSTM32F4Disc
                0x080282c8       0x28 ./CLedHeartBeatSTM32F4Disc.o
                0x080282c8                vtable for CLedHeartBeatSTM32F4Disc
 .rodata._ZL12c_FontNative
                0x080282f0       0x18 ./main.o
 .rodata.str1.4
                0x08028308       0x1c e:/elektronik/toolchain/yagarto/bin/../lib/gcc/arm-none-eabi/4.6.2/../../../../arm-none-eabi/lib/thumb/v7m\libstdc++.a(pure.o)
 .rodata.str1.4
                0x08028324       0x94 e:/elektronik/toolchain/yagarto/bin/../lib/gcc/arm-none-eabi/4.6.2/../../../../arm-none-eabi/lib/thumb/v7m\libstdc++.a(vterminate.o)
 .rodata._ZTVN10__cxxabiv115__forced_unwindE
                0x080283b8       0x18 e:/elektronik/toolchain/yagarto/bin/../lib/gcc/arm-none-eabi/4.6.2/../../../../arm-none-eabi/lib/thumb/v7m\libstdc++.a(eh_exception.o)
                0x080283b8                vtable for __cxxabiv1::__forced_unwind
 .rodata._ZTVSt9exception
                0x080283d0       0x18 e:/elektronik/toolchain/yagarto/bin/../lib/gcc/arm-none-eabi/4.6.2/../../../../arm-none-eabi/lib/thumb/v7m\libstdc++.a(eh_exception.o)
                0x080283d0                vtable for std::exception
 .rodata._ZTIN10__cxxabiv115__forced_unwindE
                0x080283e8        0x8 e:/elektronik/toolchain/yagarto/bin/../lib/gcc/arm-none-eabi/4.6.2/../../../../arm-none-eabi/lib/thumb/v7m\libstdc++.a(eh_exception.o)
                0x080283e8                typeinfo for __cxxabiv1::__forced_unwind
 .rodata._ZTISt9exception
                0x080283f0        0x8 e:/elektronik/toolchain/yagarto/bin/../lib/gcc/arm-none-eabi/4.6.2/../../../../arm-none-eabi/lib/thumb/v7m\libstdc++.a(eh_exception.o)
                0x080283f0                typeinfo for std::exception
 .rodata._ZTSSt13bad_exception
                0x080283f8       0x14 e:/elektronik/toolchain/yagarto/bin/../lib/gcc/arm-none-eabi/4.6.2/../../../../arm-none-eabi/lib/thumb/v7m\libstdc++.a(eh_exception.o)
                0x080283f8                typeinfo name for std::bad_exception
 .rodata.str1.4
                0x0802840c       0x23 e:/elektronik/toolchain/yagarto/bin/../lib/gcc/arm-none-eabi/4.6.2/../../../../arm-none-eabi/lib/thumb/v7m\libstdc++.a(eh_exception.o)
                                 0x24 (size before relaxing)
 *fill*         0x0802842f        0x1 00
 .rodata._ZTSN10__cxxabiv119__foreign_exceptionE
                0x08028430       0x24 e:/elektronik/toolchain/yagarto/bin/../lib/gcc/arm-none-eabi/4.6.2/../../../../arm-none-eabi/lib/thumb/v7m\libstdc++.a(eh_exception.o)
                0x08028430                typeinfo name for __cxxabiv1::__foreign_exception
 .rodata._ZTIN10__cxxabiv119__foreign_exceptionE
                0x08028454        0x8 e:/elektronik/toolchain/yagarto/bin/../lib/gcc/arm-none-eabi/4.6.2/../../../../arm-none-eabi/lib/thumb/v7m\libstdc++.a(eh_exception.o)
                0x08028454                typeinfo for __cxxabiv1::__foreign_exception
 *fill*         0x0802845c        0x4 00
 .rodata._ZTVSt13bad_exception
                0x08028460       0x18 e:/elektronik/toolchain/yagarto/bin/../lib/gcc/arm-none-eabi/4.6.2/../../../../arm-none-eabi/lib/thumb/v7m\libstdc++.a(eh_exception.o)
                0x08028460                vtable for std::bad_exception
 .rodata._ZTSSt9exception
                0x08028478       0x10 e:/elektronik/toolchain/yagarto/bin/../lib/gcc/arm-none-eabi/4.6.2/../../../../arm-none-eabi/lib/thumb/v7m\libstdc++.a(eh_exception.o)
                0x08028478                typeinfo name for std::exception
 .rodata._ZTVN10__cxxabiv119__foreign_exceptionE
                0x08028488       0x18 e:/elektronik/toolchain/yagarto/bin/../lib/gcc/arm-none-eabi/4.6.2/../../../../arm-none-eabi/lib/thumb/v7m\libstdc++.a(eh_exception.o)
                0x08028488                vtable for __cxxabiv1::__foreign_exception
 .rodata._ZTSN10__cxxabiv115__forced_unwindE
                0x080284a0       0x20 e:/elektronik/toolchain/yagarto/bin/../lib/gcc/arm-none-eabi/4.6.2/../../../../arm-none-eabi/lib/thumb/v7m\libstdc++.a(eh_exception.o)
                0x080284a0                typeinfo name for __cxxabiv1::__forced_unwind
 .rodata._ZTISt13bad_exception
                0x080284c0        0xc e:/elektronik/toolchain/yagarto/bin/../lib/gcc/arm-none-eabi/4.6.2/../../../../arm-none-eabi/lib/thumb/v7m\libstdc++.a(eh_exception.o)
                0x080284c0                typeinfo for std::bad_exception
 .rodata._ZTIPKDn
                0x080284cc       0x10 e:/elektronik/toolchain/yagarto/bin/../lib/gcc/arm-none-eabi/4.6.2/../../../../arm-none-eabi/lib/thumb/v7m\libstdc++.a(fundamental_type_info.o)
                0x080284cc                typeinfo for decltype(nullptr) const*
 .rodata._ZTIPDn
                0x080284dc       0x10 e:/elektronik/toolchain/yagarto/bin/../lib/gcc/arm-none-eabi/4.6.2/../../../../arm-none-eabi/lib/thumb/v7m\libstdc++.a(fundamental_type_info.o)
                0x080284dc                typeinfo for decltype(nullptr)*
 .rodata._ZTIDn
                0x080284ec        0x8 e:/elektronik/toolchain/yagarto/bin/../lib/gcc/arm-none-eabi/4.6.2/../../../../arm-none-eabi/lib/thumb/v7m\libstdc++.a(fundamental_type_info.o)
                0x080284ec                typeinfo for decltype(nullptr)
 .rodata._ZTIPKDe
                0x080284f4       0x10 e:/elektronik/toolchain/yagarto/bin/../lib/gcc/arm-none-eabi/4.6.2/../../../../arm-none-eabi/lib/thumb/v7m\libstdc++.a(fundamental_type_info.o)
                0x080284f4                typeinfo for decimal128 const*
 .rodata._ZTIPDe
                0x08028504       0x10 e:/elektronik/toolchain/yagarto/bin/../lib/gcc/arm-none-eabi/4.6.2/../../../../arm-none-eabi/lib/thumb/v7m\libstdc++.a(fundamental_type_info.o)
                0x08028504                typeinfo for decimal128*
 .rodata._ZTIDe
                0x08028514        0x8 e:/elektronik/toolchain/yagarto/bin/../lib/gcc/arm-none-eabi/4.6.2/../../../../arm-none-eabi/lib/thumb/v7m\libstdc++.a(fundamental_type_info.o)
                0x08028514                typeinfo for decimal128
 .rodata._ZTIPKDd
                0x0802851c       0x10 e:/elektronik/toolchain/yagarto/bin/../lib/gcc/arm-none-eabi/4.6.2/../../../../arm-none-eabi/lib/thumb/v7m\libstdc++.a(fundamental_type_info.o)
                0x0802851c                typeinfo for decimal64 const*
 .rodata._ZTIPDd
                0x0802852c       0x10 e:/elektronik/toolchain/yagarto/bin/../lib/gcc/arm-none-eabi/4.6.2/../../../../arm-none-eabi/lib/thumb/v7m\libstdc++.a(fundamental_type_info.o)
                0x0802852c                typeinfo for decimal64*
 .rodata._ZTIDd
                0x0802853c        0x8 e:/elektronik/toolchain/yagarto/bin/../lib/gcc/arm-none-eabi/4.6.2/../../../../arm-none-eabi/lib/thumb/v7m\libstdc++.a(fundamental_type_info.o)
                0x0802853c                typeinfo for decimal64
 .rodata._ZTIPKDf
                0x08028544       0x10 e:/elektronik/toolchain/yagarto/bin/../lib/gcc/arm-none-eabi/4.6.2/../../../../arm-none-eabi/lib/thumb/v7m\libstdc++.a(fundamental_type_info.o)
                0x08028544                typeinfo for decimal32 const*
 .rodata._ZTIPDf
                0x08028554       0x10 e:/elektronik/toolchain/yagarto/bin/../lib/gcc/arm-none-eabi/4.6.2/../../../../arm-none-eabi/lib/thumb/v7m\libstdc++.a(fundamental_type_info.o)
                0x08028554                typeinfo for decimal32*
 .rodata._ZTIDf
                0x08028564        0x8 e:/elektronik/toolchain/yagarto/bin/../lib/gcc/arm-none-eabi/4.6.2/../../../../arm-none-eabi/lib/thumb/v7m\libstdc++.a(fundamental_type_info.o)
                0x08028564                typeinfo for decimal32
 .rodata._ZTIPKe
                0x0802856c       0x10 e:/elektronik/toolchain/yagarto/bin/../lib/gcc/arm-none-eabi/4.6.2/../../../../arm-none-eabi/lib/thumb/v7m\libstdc++.a(fundamental_type_info.o)
                0x0802856c                typeinfo for long double const*
 .rodata._ZTIPe
                0x0802857c       0x10 e:/elektronik/toolchain/yagarto/bin/../lib/gcc/arm-none-eabi/4.6.2/../../../../arm-none-eabi/lib/thumb/v7m\libstdc++.a(fundamental_type_info.o)
                0x0802857c                typeinfo for long double*
 .rodata._ZTIe  0x0802858c        0x8 e:/elektronik/toolchain/yagarto/bin/../lib/gcc/arm-none-eabi/4.6.2/../../../../arm-none-eabi/lib/thumb/v7m\libstdc++.a(fundamental_type_info.o)
                0x0802858c                typeinfo for long double
 .rodata._ZTIPKd
                0x08028594       0x10 e:/elektronik/toolchain/yagarto/bin/../lib/gcc/arm-none-eabi/4.6.2/../../../../arm-none-eabi/lib/thumb/v7m\libstdc++.a(fundamental_type_info.o)
                0x08028594                typeinfo for double const*
 .rodata._ZTIPd
                0x080285a4       0x10 e:/elektronik/toolchain/yagarto/bin/../lib/gcc/arm-none-eabi/4.6.2/../../../../arm-none-eabi/lib/thumb/v7m\libstdc++.a(fundamental_type_info.o)
                0x080285a4                typeinfo for double*
 .rodata._ZTId  0x080285b4        0x8 e:/elektronik/toolchain/yagarto/bin/../lib/gcc/arm-none-eabi/4.6.2/../../../../arm-none-eabi/lib/thumb/v7m\libstdc++.a(fundamental_type_info.o)
                0x080285b4                typeinfo for double
 .rodata._ZTIPKf
                0x080285bc       0x10 e:/elektronik/toolchain/yagarto/bin/../lib/gcc/arm-none-eabi/4.6.2/../../../../arm-none-eabi/lib/thumb/v7m\libstdc++.a(fundamental_type_info.o)
                0x080285bc                typeinfo for float const*
 .rodata._ZTIPf
                0x080285cc       0x10 e:/elektronik/toolchain/yagarto/bin/../lib/gcc/arm-none-eabi/4.6.2/../../../../arm-none-eabi/lib/thumb/v7m\libstdc++.a(fundamental_type_info.o)
                0x080285cc                typeinfo for float*
 .rodata._ZTIf  0x080285dc        0x8 e:/elektronik/toolchain/yagarto/bin/../lib/gcc/arm-none-eabi/4.6.2/../../../../arm-none-eabi/lib/thumb/v7m\libstdc++.a(fundamental_type_info.o)
                0x080285dc                typeinfo for float
 .rodata._ZTIPKy
                0x080285e4       0x10 e:/elektronik/toolchain/yagarto/bin/../lib/gcc/arm-none-eabi/4.6.2/../../../../arm-none-eabi/lib/thumb/v7m\libstdc++.a(fundamental_type_info.o)
                0x080285e4                typeinfo for unsigned long long const*
 .rodata._ZTIPy
                0x080285f4       0x10 e:/elektronik/toolchain/yagarto/bin/../lib/gcc/arm-none-eabi/4.6.2/../../../../arm-none-eabi/lib/thumb/v7m\libstdc++.a(fundamental_type_info.o)
                0x080285f4                typeinfo for unsigned long long*
 .rodata._ZTIy  0x08028604        0x8 e:/elektronik/toolchain/yagarto/bin/../lib/gcc/arm-none-eabi/4.6.2/../../../../arm-none-eabi/lib/thumb/v7m\libstdc++.a(fundamental_type_info.o)
                0x08028604                typeinfo for unsigned long long
 .rodata._ZTIPKx
                0x0802860c       0x10 e:/elektronik/toolchain/yagarto/bin/../lib/gcc/arm-none-eabi/4.6.2/../../../../arm-none-eabi/lib/thumb/v7m\libstdc++.a(fundamental_type_info.o)
                0x0802860c                typeinfo for long long const*
 .rodata._ZTIPx
                0x0802861c       0x10 e:/elektronik/toolchain/yagarto/bin/../lib/gcc/arm-none-eabi/4.6.2/../../../../arm-none-eabi/lib/thumb/v7m\libstdc++.a(fundamental_type_info.o)
                0x0802861c                typeinfo for long long*
 .rodata._ZTIx  0x0802862c        0x8 e:/elektronik/toolchain/yagarto/bin/../lib/gcc/arm-none-eabi/4.6.2/../../../../arm-none-eabi/lib/thumb/v7m\libstdc++.a(fundamental_type_info.o)
                0x0802862c                typeinfo for long long
 .rodata._ZTIPKm
                0x08028634       0x10 e:/elektronik/toolchain/yagarto/bin/../lib/gcc/arm-none-eabi/4.6.2/../../../../arm-none-eabi/lib/thumb/v7m\libstdc++.a(fundamental_type_info.o)
                0x08028634                typeinfo for unsigned long const*
 .rodata._ZTIPm
                0x08028644       0x10 e:/elektronik/toolchain/yagarto/bin/../lib/gcc/arm-none-eabi/4.6.2/../../../../arm-none-eabi/lib/thumb/v7m\libstdc++.a(fundamental_type_info.o)
                0x08028644                typeinfo for unsigned long*
 .rodata._ZTIm  0x08028654        0x8 e:/elektronik/toolchain/yagarto/bin/../lib/gcc/arm-none-eabi/4.6.2/../../../../arm-none-eabi/lib/thumb/v7m\libstdc++.a(fundamental_type_info.o)
                0x08028654                typeinfo for unsigned long
 .rodata._ZTIPKl
                0x0802865c       0x10 e:/elektronik/toolchain/yagarto/bin/../lib/gcc/arm-none-eabi/4.6.2/../../../../arm-none-eabi/lib/thumb/v7m\libstdc++.a(fundamental_type_info.o)
                0x0802865c                typeinfo for long const*
 .rodata._ZTIPl
                0x0802866c       0x10 e:/elektronik/toolchain/yagarto/bin/../lib/gcc/arm-none-eabi/4.6.2/../../../../arm-none-eabi/lib/thumb/v7m\libstdc++.a(fundamental_type_info.o)
                0x0802866c                typeinfo for long*
 .rodata._ZTIl  0x0802867c        0x8 e:/elektronik/toolchain/yagarto/bin/../lib/gcc/arm-none-eabi/4.6.2/../../../../arm-none-eabi/lib/thumb/v7m\libstdc++.a(fundamental_type_info.o)
                0x0802867c                typeinfo for long
 .rodata._ZTIPKj
                0x08028684       0x10 e:/elektronik/toolchain/yagarto/bin/../lib/gcc/arm-none-eabi/4.6.2/../../../../arm-none-eabi/lib/thumb/v7m\libstdc++.a(fundamental_type_info.o)
                0x08028684                typeinfo for unsigned int const*
 .rodata._ZTIPj
                0x08028694       0x10 e:/elektronik/toolchain/yagarto/bin/../lib/gcc/arm-none-eabi/4.6.2/../../../../arm-none-eabi/lib/thumb/v7m\libstdc++.a(fundamental_type_info.o)
                0x08028694                typeinfo for unsigned int*
 .rodata._ZTIj  0x080286a4        0x8 e:/elektronik/toolchain/yagarto/bin/../lib/gcc/arm-none-eabi/4.6.2/../../../../arm-none-eabi/lib/thumb/v7m\libstdc++.a(fundamental_type_info.o)
                0x080286a4                typeinfo for unsigned int
 .rodata._ZTIPKi
                0x080286ac       0x10 e:/elektronik/toolchain/yagarto/bin/../lib/gcc/arm-none-eabi/4.6.2/../../../../arm-none-eabi/lib/thumb/v7m\libstdc++.a(fundamental_type_info.o)
                0x080286ac                typeinfo for int const*
 .rodata._ZTIPi
                0x080286bc       0x10 e:/elektronik/toolchain/yagarto/bin/../lib/gcc/arm-none-eabi/4.6.2/../../../../arm-none-eabi/lib/thumb/v7m\libstdc++.a(fundamental_type_info.o)
                0x080286bc                typeinfo for int*
 .rodata._ZTIi  0x080286cc        0x8 e:/elektronik/toolchain/yagarto/bin/../lib/gcc/arm-none-eabi/4.6.2/../../../../arm-none-eabi/lib/thumb/v7m\libstdc++.a(fundamental_type_info.o)
                0x080286cc                typeinfo for int
 .rodata._ZTIPKt
                0x080286d4       0x10 e:/elektronik/toolchain/yagarto/bin/../lib/gcc/arm-none-eabi/4.6.2/../../../../arm-none-eabi/lib/thumb/v7m\libstdc++.a(fundamental_type_info.o)
                0x080286d4                typeinfo for unsigned short const*
 .rodata._ZTIPt
                0x080286e4       0x10 e:/elektronik/toolchain/yagarto/bin/../lib/gcc/arm-none-eabi/4.6.2/../../../../arm-none-eabi/lib/thumb/v7m\libstdc++.a(fundamental_type_info.o)
                0x080286e4                typeinfo for unsigned short*
 .rodata._ZTIt  0x080286f4        0x8 e:/elektronik/toolchain/yagarto/bin/../lib/gcc/arm-none-eabi/4.6.2/../../../../arm-none-eabi/lib/thumb/v7m\libstdc++.a(fundamental_type_info.o)
                0x080286f4                typeinfo for unsigned short
 .rodata._ZTIPKs
                0x080286fc       0x10 e:/elektronik/toolchain/yagarto/bin/../lib/gcc/arm-none-eabi/4.6.2/../../../../arm-none-eabi/lib/thumb/v7m\libstdc++.a(fundamental_type_info.o)
                0x080286fc                typeinfo for short const*
 .rodata._ZTIPs
                0x0802870c       0x10 e:/elektronik/toolchain/yagarto/bin/../lib/gcc/arm-none-eabi/4.6.2/../../../../arm-none-eabi/lib/thumb/v7m\libstdc++.a(fundamental_type_info.o)
                0x0802870c                typeinfo for short*
 .rodata._ZTIs  0x0802871c        0x8 e:/elektronik/toolchain/yagarto/bin/../lib/gcc/arm-none-eabi/4.6.2/../../../../arm-none-eabi/lib/thumb/v7m\libstdc++.a(fundamental_type_info.o)
                0x0802871c                typeinfo for short
 .rodata._ZTIPKh
                0x08028724       0x10 e:/elektronik/toolchain/yagarto/bin/../lib/gcc/arm-none-eabi/4.6.2/../../../../arm-none-eabi/lib/thumb/v7m\libstdc++.a(fundamental_type_info.o)
                0x08028724                typeinfo for unsigned char const*
 .rodata._ZTIPh
                0x08028734       0x10 e:/elektronik/toolchain/yagarto/bin/../lib/gcc/arm-none-eabi/4.6.2/../../../../arm-none-eabi/lib/thumb/v7m\libstdc++.a(fundamental_type_info.o)
                0x08028734                typeinfo for unsigned char*
 .rodata._ZTIh  0x08028744        0x8 e:/elektronik/toolchain/yagarto/bin/../lib/gcc/arm-none-eabi/4.6.2/../../../../arm-none-eabi/lib/thumb/v7m\libstdc++.a(fundamental_type_info.o)
                0x08028744                typeinfo for unsigned char
 .rodata._ZTIPKa
                0x0802874c       0x10 e:/elektronik/toolchain/yagarto/bin/../lib/gcc/arm-none-eabi/4.6.2/../../../../arm-none-eabi/lib/thumb/v7m\libstdc++.a(fundamental_type_info.o)
                0x0802874c                typeinfo for signed char const*
 .rodata._ZTIPa
                0x0802875c       0x10 e:/elektronik/toolchain/yagarto/bin/../lib/gcc/arm-none-eabi/4.6.2/../../../../arm-none-eabi/lib/thumb/v7m\libstdc++.a(fundamental_type_info.o)
                0x0802875c                typeinfo for signed char*
 .rodata._ZTIa  0x0802876c        0x8 e:/elektronik/toolchain/yagarto/bin/../lib/gcc/arm-none-eabi/4.6.2/../../../../arm-none-eabi/lib/thumb/v7m\libstdc++.a(fundamental_type_info.o)
                0x0802876c                typeinfo for signed char
 .rodata._ZTIPKc
                0x08028774       0x10 e:/elektronik/toolchain/yagarto/bin/../lib/gcc/arm-none-eabi/4.6.2/../../../../arm-none-eabi/lib/thumb/v7m\libstdc++.a(fundamental_type_info.o)
                0x08028774                typeinfo for char const*
 .rodata._ZTIPc
                0x08028784       0x10 e:/elektronik/toolchain/yagarto/bin/../lib/gcc/arm-none-eabi/4.6.2/../../../../arm-none-eabi/lib/thumb/v7m\libstdc++.a(fundamental_type_info.o)
                0x08028784                typeinfo for char*
 .rodata._ZTIc  0x08028794        0x8 e:/elektronik/toolchain/yagarto/bin/../lib/gcc/arm-none-eabi/4.6.2/../../../../arm-none-eabi/lib/thumb/v7m\libstdc++.a(fundamental_type_info.o)
                0x08028794                typeinfo for char
 .rodata._ZTIPKDi
                0x0802879c       0x10 e:/elektronik/toolchain/yagarto/bin/../lib/gcc/arm-none-eabi/4.6.2/../../../../arm-none-eabi/lib/thumb/v7m\libstdc++.a(fundamental_type_info.o)
                0x0802879c                typeinfo for char32_t const*
 .rodata._ZTIPDi
                0x080287ac       0x10 e:/elektronik/toolchain/yagarto/bin/../lib/gcc/arm-none-eabi/4.6.2/../../../../arm-none-eabi/lib/thumb/v7m\libstdc++.a(fundamental_type_info.o)
                0x080287ac                typeinfo for char32_t*
 .rodata._ZTIDi
                0x080287bc        0x8 e:/elektronik/toolchain/yagarto/bin/../lib/gcc/arm-none-eabi/4.6.2/../../../../arm-none-eabi/lib/thumb/v7m\libstdc++.a(fundamental_type_info.o)
                0x080287bc                typeinfo for char32_t
 .rodata._ZTIPKDs
                0x080287c4       0x10 e:/elektronik/toolchain/yagarto/bin/../lib/gcc/arm-none-eabi/4.6.2/../../../../arm-none-eabi/lib/thumb/v7m\libstdc++.a(fundamental_type_info.o)
                0x080287c4                typeinfo for char16_t const*
 .rodata._ZTIPDs
                0x080287d4       0x10 e:/elektronik/toolchain/yagarto/bin/../lib/gcc/arm-none-eabi/4.6.2/../../../../arm-none-eabi/lib/thumb/v7m\libstdc++.a(fundamental_type_info.o)
                0x080287d4                typeinfo for char16_t*
 .rodata._ZTIDs
                0x080287e4        0x8 e:/elektronik/toolchain/yagarto/bin/../lib/gcc/arm-none-eabi/4.6.2/../../../../arm-none-eabi/lib/thumb/v7m\libstdc++.a(fundamental_type_info.o)
                0x080287e4                typeinfo for char16_t
 .rodata._ZTIPKw
                0x080287ec       0x10 e:/elektronik/toolchain/yagarto/bin/../lib/gcc/arm-none-eabi/4.6.2/../../../../arm-none-eabi/lib/thumb/v7m\libstdc++.a(fundamental_type_info.o)
                0x080287ec                typeinfo for wchar_t const*
 .rodata._ZTIPw
                0x080287fc       0x10 e:/elektronik/toolchain/yagarto/bin/../lib/gcc/arm-none-eabi/4.6.2/../../../../arm-none-eabi/lib/thumb/v7m\libstdc++.a(fundamental_type_info.o)
                0x080287fc                typeinfo for wchar_t*
 .rodata._ZTIw  0x0802880c        0x8 e:/elektronik/toolchain/yagarto/bin/../lib/gcc/arm-none-eabi/4.6.2/../../../../arm-none-eabi/lib/thumb/v7m\libstdc++.a(fundamental_type_info.o)
                0x0802880c                typeinfo for wchar_t
 .rodata._ZTIPKb
                0x08028814       0x10 e:/elektronik/toolchain/yagarto/bin/../lib/gcc/arm-none-eabi/4.6.2/../../../../arm-none-eabi/lib/thumb/v7m\libstdc++.a(fundamental_type_info.o)
                0x08028814                typeinfo for bool const*
 .rodata._ZTIPb
                0x08028824       0x10 e:/elektronik/toolchain/yagarto/bin/../lib/gcc/arm-none-eabi/4.6.2/../../../../arm-none-eabi/lib/thumb/v7m\libstdc++.a(fundamental_type_info.o)
                0x08028824                typeinfo for bool*
 .rodata._ZTIb  0x08028834        0x8 e:/elektronik/toolchain/yagarto/bin/../lib/gcc/arm-none-eabi/4.6.2/../../../../arm-none-eabi/lib/thumb/v7m\libstdc++.a(fundamental_type_info.o)
                0x08028834                typeinfo for bool
 .rodata._ZTIPKv
                0x0802883c       0x10 e:/elektronik/toolchain/yagarto/bin/../lib/gcc/arm-none-eabi/4.6.2/../../../../arm-none-eabi/lib/thumb/v7m\libstdc++.a(fundamental_type_info.o)
                0x0802883c                typeinfo for void const*
 .rodata._ZTIPv
                0x0802884c       0x10 e:/elektronik/toolchain/yagarto/bin/../lib/gcc/arm-none-eabi/4.6.2/../../../../arm-none-eabi/lib/thumb/v7m\libstdc++.a(fundamental_type_info.o)
                0x0802884c                typeinfo for void*
 .rodata._ZTIv  0x0802885c        0x8 e:/elektronik/toolchain/yagarto/bin/../lib/gcc/arm-none-eabi/4.6.2/../../../../arm-none-eabi/lib/thumb/v7m\libstdc++.a(fundamental_type_info.o)
                0x0802885c                typeinfo for void
 .rodata._ZTSPKDn
                0x08028864        0x8 e:/elektronik/toolchain/yagarto/bin/../lib/gcc/arm-none-eabi/4.6.2/../../../../arm-none-eabi/lib/thumb/v7m\libstdc++.a(fundamental_type_info.o)
                0x08028864                typeinfo name for decltype(nullptr) const*
 .rodata._ZTSPDn
                0x0802886c        0x4 e:/elektronik/toolchain/yagarto/bin/../lib/gcc/arm-none-eabi/4.6.2/../../../../arm-none-eabi/lib/thumb/v7m\libstdc++.a(fundamental_type_info.o)
                0x0802886c                typeinfo name for decltype(nullptr)*
 .rodata._ZTSDn
                0x08028870        0x4 e:/elektronik/toolchain/yagarto/bin/../lib/gcc/arm-none-eabi/4.6.2/../../../../arm-none-eabi/lib/thumb/v7m\libstdc++.a(fundamental_type_info.o)
                0x08028870                typeinfo name for decltype(nullptr)
 .rodata._ZTSPKDe
                0x08028874        0x8 e:/elektronik/toolchain/yagarto/bin/../lib/gcc/arm-none-eabi/4.6.2/../../../../arm-none-eabi/lib/thumb/v7m\libstdc++.a(fundamental_type_info.o)
                0x08028874                typeinfo name for decimal128 const*
 .rodata._ZTSPDe
                0x0802887c        0x4 e:/elektronik/toolchain/yagarto/bin/../lib/gcc/arm-none-eabi/4.6.2/../../../../arm-none-eabi/lib/thumb/v7m\libstdc++.a(fundamental_type_info.o)
                0x0802887c                typeinfo name for decimal128*
 .rodata._ZTSDe
                0x08028880        0x4 e:/elektronik/toolchain/yagarto/bin/../lib/gcc/arm-none-eabi/4.6.2/../../../../arm-none-eabi/lib/thumb/v7m\libstdc++.a(fundamental_type_info.o)
                0x08028880                typeinfo name for decimal128
 .rodata._ZTSPKDd
                0x08028884        0x8 e:/elektronik/toolchain/yagarto/bin/../lib/gcc/arm-none-eabi/4.6.2/../../../../arm-none-eabi/lib/thumb/v7m\libstdc++.a(fundamental_type_info.o)
                0x08028884                typeinfo name for decimal64 const*
 .rodata._ZTSPDd
                0x0802888c        0x4 e:/elektronik/toolchain/yagarto/bin/../lib/gcc/arm-none-eabi/4.6.2/../../../../arm-none-eabi/lib/thumb/v7m\libstdc++.a(fundamental_type_info.o)
                0x0802888c                typeinfo name for decimal64*
 .rodata._ZTSDd
                0x08028890        0x4 e:/elektronik/toolchain/yagarto/bin/../lib/gcc/arm-none-eabi/4.6.2/../../../../arm-none-eabi/lib/thumb/v7m\libstdc++.a(fundamental_type_info.o)
                0x08028890                typeinfo name for decimal64
 .rodata._ZTSPKDf
                0x08028894        0x8 e:/elektronik/toolchain/yagarto/bin/../lib/gcc/arm-none-eabi/4.6.2/../../../../arm-none-eabi/lib/thumb/v7m\libstdc++.a(fundamental_type_info.o)
                0x08028894                typeinfo name for decimal32 const*
 .rodata._ZTSPDf
                0x0802889c        0x4 e:/elektronik/toolchain/yagarto/bin/../lib/gcc/arm-none-eabi/4.6.2/../../../../arm-none-eabi/lib/thumb/v7m\libstdc++.a(fundamental_type_info.o)
                0x0802889c                typeinfo name for decimal32*
 .rodata._ZTSDf
                0x080288a0        0x4 e:/elektronik/toolchain/yagarto/bin/../lib/gcc/arm-none-eabi/4.6.2/../../../../arm-none-eabi/lib/thumb/v7m\libstdc++.a(fundamental_type_info.o)
                0x080288a0                typeinfo name for decimal32
 .rodata._ZTSPKe
                0x080288a4        0x4 e:/elektronik/toolchain/yagarto/bin/../lib/gcc/arm-none-eabi/4.6.2/../../../../arm-none-eabi/lib/thumb/v7m\libstdc++.a(fundamental_type_info.o)
                0x080288a4                typeinfo name for long double const*
 .rodata._ZTSPe
                0x080288a8        0x4 e:/elektronik/toolchain/yagarto/bin/../lib/gcc/arm-none-eabi/4.6.2/../../../../arm-none-eabi/lib/thumb/v7m\libstdc++.a(fundamental_type_info.o)
                0x080288a8                typeinfo name for long double*
 .rodata._ZTSe  0x080288ac        0x4 e:/elektronik/toolchain/yagarto/bin/../lib/gcc/arm-none-eabi/4.6.2/../../../../arm-none-eabi/lib/thumb/v7m\libstdc++.a(fundamental_type_info.o)
                0x080288ac                typeinfo name for long double
 .rodata._ZTSPKd
                0x080288b0        0x4 e:/elektronik/toolchain/yagarto/bin/../lib/gcc/arm-none-eabi/4.6.2/../../../../arm-none-eabi/lib/thumb/v7m\libstdc++.a(fundamental_type_info.o)
                0x080288b0                typeinfo name for double const*
 .rodata._ZTSPd
                0x080288b4        0x4 e:/elektronik/toolchain/yagarto/bin/../lib/gcc/arm-none-eabi/4.6.2/../../../../arm-none-eabi/lib/thumb/v7m\libstdc++.a(fundamental_type_info.o)
                0x080288b4                typeinfo name for double*
 .rodata._ZTSd  0x080288b8        0x4 e:/elektronik/toolchain/yagarto/bin/../lib/gcc/arm-none-eabi/4.6.2/../../../../arm-none-eabi/lib/thumb/v7m\libstdc++.a(fundamental_type_info.o)
                0x080288b8                typeinfo name for double
 .rodata._ZTSPKf
                0x080288bc        0x4 e:/elektronik/toolchain/yagarto/bin/../lib/gcc/arm-none-eabi/4.6.2/../../../../arm-none-eabi/lib/thumb/v7m\libstdc++.a(fundamental_type_info.o)
                0x080288bc                typeinfo name for float const*
 .rodata._ZTSPf
                0x080288c0        0x4 e:/elektronik/toolchain/yagarto/bin/../lib/gcc/arm-none-eabi/4.6.2/../../../../arm-none-eabi/lib/thumb/v7m\libstdc++.a(fundamental_type_info.o)
                0x080288c0                typeinfo name for float*
 .rodata._ZTSf  0x080288c4        0x4 e:/elektronik/toolchain/yagarto/bin/../lib/gcc/arm-none-eabi/4.6.2/../../../../arm-none-eabi/lib/thumb/v7m\libstdc++.a(fundamental_type_info.o)
                0x080288c4                typeinfo name for float
 .rodata._ZTSPKy
                0x080288c8        0x4 e:/elektronik/toolchain/yagarto/bin/../lib/gcc/arm-none-eabi/4.6.2/../../../../arm-none-eabi/lib/thumb/v7m\libstdc++.a(fundamental_type_info.o)
                0x080288c8                typeinfo name for unsigned long long const*
 .rodata._ZTSPy
                0x080288cc        0x4 e:/elektronik/toolchain/yagarto/bin/../lib/gcc/arm-none-eabi/4.6.2/../../../../arm-none-eabi/lib/thumb/v7m\libstdc++.a(fundamental_type_info.o)
                0x080288cc                typeinfo name for unsigned long long*
 .rodata._ZTSy  0x080288d0        0x4 e:/elektronik/toolchain/yagarto/bin/../lib/gcc/arm-none-eabi/4.6.2/../../../../arm-none-eabi/lib/thumb/v7m\libstdc++.a(fundamental_type_info.o)
                0x080288d0                typeinfo name for unsigned long long
 .rodata._ZTSPKx
                0x080288d4        0x4 e:/elektronik/toolchain/yagarto/bin/../lib/gcc/arm-none-eabi/4.6.2/../../../../arm-none-eabi/lib/thumb/v7m\libstdc++.a(fundamental_type_info.o)
                0x080288d4                typeinfo name for long long const*
 .rodata._ZTSPx
                0x080288d8        0x4 e:/elektronik/toolchain/yagarto/bin/../lib/gcc/arm-none-eabi/4.6.2/../../../../arm-none-eabi/lib/thumb/v7m\libstdc++.a(fundamental_type_info.o)
                0x080288d8                typeinfo name for long long*
 .rodata._ZTSx  0x080288dc        0x4 e:/elektronik/toolchain/yagarto/bin/../lib/gcc/arm-none-eabi/4.6.2/../../../../arm-none-eabi/lib/thumb/v7m\libstdc++.a(fundamental_type_info.o)
                0x080288dc                typeinfo name for long long
 .rodata._ZTSPKm
                0x080288e0        0x4 e:/elektronik/toolchain/yagarto/bin/../lib/gcc/arm-none-eabi/4.6.2/../../../../arm-none-eabi/lib/thumb/v7m\libstdc++.a(fundamental_type_info.o)
                0x080288e0                typeinfo name for unsigned long const*
 .rodata._ZTSPm
                0x080288e4        0x4 e:/elektronik/toolchain/yagarto/bin/../lib/gcc/arm-none-eabi/4.6.2/../../../../arm-none-eabi/lib/thumb/v7m\libstdc++.a(fundamental_type_info.o)
                0x080288e4                typeinfo name for unsigned long*
 .rodata._ZTSm  0x080288e8        0x4 e:/elektronik/toolchain/yagarto/bin/../lib/gcc/arm-none-eabi/4.6.2/../../../../arm-none-eabi/lib/thumb/v7m\libstdc++.a(fundamental_type_info.o)
                0x080288e8                typeinfo name for unsigned long
 .rodata._ZTSPKl
                0x080288ec        0x4 e:/elektronik/toolchain/yagarto/bin/../lib/gcc/arm-none-eabi/4.6.2/../../../../arm-none-eabi/lib/thumb/v7m\libstdc++.a(fundamental_type_info.o)
                0x080288ec                typeinfo name for long const*
 .rodata._ZTSPl
                0x080288f0        0x4 e:/elektronik/toolchain/yagarto/bin/../lib/gcc/arm-none-eabi/4.6.2/../../../../arm-none-eabi/lib/thumb/v7m\libstdc++.a(fundamental_type_info.o)
                0x080288f0                typeinfo name for long*
 .rodata._ZTSl  0x080288f4        0x4 e:/elektronik/toolchain/yagarto/bin/../lib/gcc/arm-none-eabi/4.6.2/../../../../arm-none-eabi/lib/thumb/v7m\libstdc++.a(fundamental_type_info.o)
                0x080288f4                typeinfo name for long
 .rodata._ZTSPKj
                0x080288f8        0x4 e:/elektronik/toolchain/yagarto/bin/../lib/gcc/arm-none-eabi/4.6.2/../../../../arm-none-eabi/lib/thumb/v7m\libstdc++.a(fundamental_type_info.o)
                0x080288f8                typeinfo name for unsigned int const*
 .rodata._ZTSPj
                0x080288fc        0x4 e:/elektronik/toolchain/yagarto/bin/../lib/gcc/arm-none-eabi/4.6.2/../../../../arm-none-eabi/lib/thumb/v7m\libstdc++.a(fundamental_type_info.o)
                0x080288fc                typeinfo name for unsigned int*
 .rodata._ZTSj  0x08028900        0x4 e:/elektronik/toolchain/yagarto/bin/../lib/gcc/arm-none-eabi/4.6.2/../../../../arm-none-eabi/lib/thumb/v7m\libstdc++.a(fundamental_type_info.o)
                0x08028900                typeinfo name for unsigned int
 .rodata._ZTSPKi
                0x08028904        0x4 e:/elektronik/toolchain/yagarto/bin/../lib/gcc/arm-none-eabi/4.6.2/../../../../arm-none-eabi/lib/thumb/v7m\libstdc++.a(fundamental_type_info.o)
                0x08028904                typeinfo name for int const*
 .rodata._ZTSPi
                0x08028908        0x4 e:/elektronik/toolchain/yagarto/bin/../lib/gcc/arm-none-eabi/4.6.2/../../../../arm-none-eabi/lib/thumb/v7m\libstdc++.a(fundamental_type_info.o)
                0x08028908                typeinfo name for int*
 .rodata._ZTSi  0x0802890c        0x4 e:/elektronik/toolchain/yagarto/bin/../lib/gcc/arm-none-eabi/4.6.2/../../../../arm-none-eabi/lib/thumb/v7m\libstdc++.a(fundamental_type_info.o)
                0x0802890c                typeinfo name for int
 .rodata._ZTSPKt
                0x08028910        0x4 e:/elektronik/toolchain/yagarto/bin/../lib/gcc/arm-none-eabi/4.6.2/../../../../arm-none-eabi/lib/thumb/v7m\libstdc++.a(fundamental_type_info.o)
                0x08028910                typeinfo name for unsigned short const*
 .rodata._ZTSPt
                0x08028914        0x4 e:/elektronik/toolchain/yagarto/bin/../lib/gcc/arm-none-eabi/4.6.2/../../../../arm-none-eabi/lib/thumb/v7m\libstdc++.a(fundamental_type_info.o)
                0x08028914                typeinfo name for unsigned short*
 .rodata._ZTSt  0x08028918        0x4 e:/elektronik/toolchain/yagarto/bin/../lib/gcc/arm-none-eabi/4.6.2/../../../../arm-none-eabi/lib/thumb/v7m\libstdc++.a(fundamental_type_info.o)
                0x08028918                typeinfo name for unsigned short
 .rodata._ZTSPKs
                0x0802891c        0x4 e:/elektronik/toolchain/yagarto/bin/../lib/gcc/arm-none-eabi/4.6.2/../../../../arm-none-eabi/lib/thumb/v7m\libstdc++.a(fundamental_type_info.o)
                0x0802891c                typeinfo name for short const*
 .rodata._ZTSPs
                0x08028920        0x4 e:/elektronik/toolchain/yagarto/bin/../lib/gcc/arm-none-eabi/4.6.2/../../../../arm-none-eabi/lib/thumb/v7m\libstdc++.a(fundamental_type_info.o)
                0x08028920                typeinfo name for short*
 .rodata._ZTSs  0x08028924        0x4 e:/elektronik/toolchain/yagarto/bin/../lib/gcc/arm-none-eabi/4.6.2/../../../../arm-none-eabi/lib/thumb/v7m\libstdc++.a(fundamental_type_info.o)
                0x08028924                typeinfo name for short
 .rodata._ZTSPKh
                0x08028928        0x4 e:/elektronik/toolchain/yagarto/bin/../lib/gcc/arm-none-eabi/4.6.2/../../../../arm-none-eabi/lib/thumb/v7m\libstdc++.a(fundamental_type_info.o)
                0x08028928                typeinfo name for unsigned char const*
 .rodata._ZTSPh
                0x0802892c        0x4 e:/elektronik/toolchain/yagarto/bin/../lib/gcc/arm-none-eabi/4.6.2/../../../../arm-none-eabi/lib/thumb/v7m\libstdc++.a(fundamental_type_info.o)
                0x0802892c                typeinfo name for unsigned char*
 .rodata._ZTSh  0x08028930        0x4 e:/elektronik/toolchain/yagarto/bin/../lib/gcc/arm-none-eabi/4.6.2/../../../../arm-none-eabi/lib/thumb/v7m\libstdc++.a(fundamental_type_info.o)
                0x08028930                typeinfo name for unsigned char
 .rodata._ZTSPKa
                0x08028934        0x4 e:/elektronik/toolchain/yagarto/bin/../lib/gcc/arm-none-eabi/4.6.2/../../../../arm-none-eabi/lib/thumb/v7m\libstdc++.a(fundamental_type_info.o)
                0x08028934                typeinfo name for signed char const*
 .rodata._ZTSPa
                0x08028938        0x4 e:/elektronik/toolchain/yagarto/bin/../lib/gcc/arm-none-eabi/4.6.2/../../../../arm-none-eabi/lib/thumb/v7m\libstdc++.a(fundamental_type_info.o)
                0x08028938                typeinfo name for signed char*
 .rodata._ZTSa  0x0802893c        0x4 e:/elektronik/toolchain/yagarto/bin/../lib/gcc/arm-none-eabi/4.6.2/../../../../arm-none-eabi/lib/thumb/v7m\libstdc++.a(fundamental_type_info.o)
                0x0802893c                typeinfo name for signed char
 .rodata._ZTSPKc
                0x08028940        0x4 e:/elektronik/toolchain/yagarto/bin/../lib/gcc/arm-none-eabi/4.6.2/../../../../arm-none-eabi/lib/thumb/v7m\libstdc++.a(fundamental_type_info.o)
                0x08028940                typeinfo name for char const*
 .rodata._ZTSPc
                0x08028944        0x4 e:/elektronik/toolchain/yagarto/bin/../lib/gcc/arm-none-eabi/4.6.2/../../../../arm-none-eabi/lib/thumb/v7m\libstdc++.a(fundamental_type_info.o)
                0x08028944                typeinfo name for char*
 .rodata._ZTSc  0x08028948        0x4 e:/elektronik/toolchain/yagarto/bin/../lib/gcc/arm-none-eabi/4.6.2/../../../../arm-none-eabi/lib/thumb/v7m\libstdc++.a(fundamental_type_info.o)
                0x08028948                typeinfo name for char
 .rodata._ZTSPKDi
                0x0802894c        0x8 e:/elektronik/toolchain/yagarto/bin/../lib/gcc/arm-none-eabi/4.6.2/../../../../arm-none-eabi/lib/thumb/v7m\libstdc++.a(fundamental_type_info.o)
                0x0802894c                typeinfo name for char32_t const*
 .rodata._ZTSPDi
                0x08028954        0x4 e:/elektronik/toolchain/yagarto/bin/../lib/gcc/arm-none-eabi/4.6.2/../../../../arm-none-eabi/lib/thumb/v7m\libstdc++.a(fundamental_type_info.o)
                0x08028954                typeinfo name for char32_t*
 .rodata._ZTSDi
                0x08028958        0x4 e:/elektronik/toolchain/yagarto/bin/../lib/gcc/arm-none-eabi/4.6.2/../../../../arm-none-eabi/lib/thumb/v7m\libstdc++.a(fundamental_type_info.o)
                0x08028958                typeinfo name for char32_t
 .rodata._ZTSPKDs
                0x0802895c        0x8 e:/elektronik/toolchain/yagarto/bin/../lib/gcc/arm-none-eabi/4.6.2/../../../../arm-none-eabi/lib/thumb/v7m\libstdc++.a(fundamental_type_info.o)
                0x0802895c                typeinfo name for char16_t const*
 .rodata._ZTSPDs
                0x08028964        0x4 e:/elektronik/toolchain/yagarto/bin/../lib/gcc/arm-none-eabi/4.6.2/../../../../arm-none-eabi/lib/thumb/v7m\libstdc++.a(fundamental_type_info.o)
                0x08028964                typeinfo name for char16_t*
 .rodata._ZTSDs
                0x08028968        0x4 e:/elektronik/toolchain/yagarto/bin/../lib/gcc/arm-none-eabi/4.6.2/../../../../arm-none-eabi/lib/thumb/v7m\libstdc++.a(fundamental_type_info.o)
                0x08028968                typeinfo name for char16_t
 .rodata._ZTSPKw
                0x0802896c        0x4 e:/elektronik/toolchain/yagarto/bin/../lib/gcc/arm-none-eabi/4.6.2/../../../../arm-none-eabi/lib/thumb/v7m\libstdc++.a(fundamental_type_info.o)
                0x0802896c                typeinfo name for wchar_t const*
 .rodata._ZTSPw
                0x08028970        0x4 e:/elektronik/toolchain/yagarto/bin/../lib/gcc/arm-none-eabi/4.6.2/../../../../arm-none-eabi/lib/thumb/v7m\libstdc++.a(fundamental_type_info.o)
                0x08028970                typeinfo name for wchar_t*
 .rodata._ZTSw  0x08028974        0x4 e:/elektronik/toolchain/yagarto/bin/../lib/gcc/arm-none-eabi/4.6.2/../../../../arm-none-eabi/lib/thumb/v7m\libstdc++.a(fundamental_type_info.o)
                0x08028974                typeinfo name for wchar_t
 .rodata._ZTSPKb
                0x08028978        0x4 e:/elektronik/toolchain/yagarto/bin/../lib/gcc/arm-none-eabi/4.6.2/../../../../arm-none-eabi/lib/thumb/v7m\libstdc++.a(fundamental_type_info.o)
                0x08028978                typeinfo name for bool const*
 .rodata._ZTSPb
                0x0802897c        0x4 e:/elektronik/toolchain/yagarto/bin/../lib/gcc/arm-none-eabi/4.6.2/../../../../arm-none-eabi/lib/thumb/v7m\libstdc++.a(fundamental_type_info.o)
                0x0802897c                typeinfo name for bool*
 .rodata._ZTSb  0x08028980        0x4 e:/elektronik/toolchain/yagarto/bin/../lib/gcc/arm-none-eabi/4.6.2/../../../../arm-none-eabi/lib/thumb/v7m\libstdc++.a(fundamental_type_info.o)
                0x08028980                typeinfo name for bool
 .rodata._ZTSPKv
                0x08028984        0x4 e:/elektronik/toolchain/yagarto/bin/../lib/gcc/arm-none-eabi/4.6.2/../../../../arm-none-eabi/lib/thumb/v7m\libstdc++.a(fundamental_type_info.o)
                0x08028984                typeinfo name for void const*
 .rodata._ZTSPv
                0x08028988        0x4 e:/elektronik/toolchain/yagarto/bin/../lib/gcc/arm-none-eabi/4.6.2/../../../../arm-none-eabi/lib/thumb/v7m\libstdc++.a(fundamental_type_info.o)
                0x08028988                typeinfo name for void*
 .rodata._ZTSv  0x0802898c        0x4 e:/elektronik/toolchain/yagarto/bin/../lib/gcc/arm-none-eabi/4.6.2/../../../../arm-none-eabi/lib/thumb/v7m\libstdc++.a(fundamental_type_info.o)
                0x0802898c                typeinfo name for void
 .rodata._ZTIN10__cxxabiv123__fundamental_type_infoE
                0x08028990        0xc e:/elektronik/toolchain/yagarto/bin/../lib/gcc/arm-none-eabi/4.6.2/../../../../arm-none-eabi/lib/thumb/v7m\libstdc++.a(fundamental_type_info.o)
                0x08028990                typeinfo for __cxxabiv1::__fundamental_type_info
 .rodata._ZTSN10__cxxabiv123__fundamental_type_infoE
                0x0802899c       0x28 e:/elektronik/toolchain/yagarto/bin/../lib/gcc/arm-none-eabi/4.6.2/../../../../arm-none-eabi/lib/thumb/v7m\libstdc++.a(fundamental_type_info.o)
                0x0802899c                typeinfo name for __cxxabiv1::__fundamental_type_info
 *fill*         0x080289c4        0x4 00
 .rodata._ZTVN10__cxxabiv123__fundamental_type_infoE
                0x080289c8       0x20 e:/elektronik/toolchain/yagarto/bin/../lib/gcc/arm-none-eabi/4.6.2/../../../../arm-none-eabi/lib/thumb/v7m\libstdc++.a(fundamental_type_info.o)
                0x080289c8                vtable for __cxxabiv1::__fundamental_type_info
 .rodata._ZTSN10__cxxabiv119__pointer_type_infoE
                0x080289e8       0x24 e:/elektronik/toolchain/yagarto/bin/../lib/gcc/arm-none-eabi/4.6.2/../../../../arm-none-eabi/lib/thumb/v7m\libstdc++.a(pointer_type_info.o)
                0x080289e8                typeinfo name for __cxxabiv1::__pointer_type_info
 .rodata._ZTIN10__cxxabiv119__pointer_type_infoE
                0x08028a0c        0xc e:/elektronik/toolchain/yagarto/bin/../lib/gcc/arm-none-eabi/4.6.2/../../../../arm-none-eabi/lib/thumb/v7m\libstdc++.a(pointer_type_info.o)
                0x08028a0c                typeinfo for __cxxabiv1::__pointer_type_info
 .rodata._ZTVN10__cxxabiv119__pointer_type_infoE
                0x08028a18       0x28 e:/elektronik/toolchain/yagarto/bin/../lib/gcc/arm-none-eabi/4.6.2/../../../../arm-none-eabi/lib/thumb/v7m\libstdc++.a(pointer_type_info.o)
                0x08028a18                vtable for __cxxabiv1::__pointer_type_info
 .rodata._ZTVN10__cxxabiv120__si_class_type_infoE
                0x08028a40       0x30 e:/elektronik/toolchain/yagarto/bin/../lib/gcc/arm-none-eabi/4.6.2/../../../../arm-none-eabi/lib/thumb/v7m\libstdc++.a(si_class_type_info.o)
                0x08028a40                vtable for __cxxabiv1::__si_class_type_info
 .rodata._ZTIN10__cxxabiv120__si_class_type_infoE
                0x08028a70        0xc e:/elektronik/toolchain/yagarto/bin/../lib/gcc/arm-none-eabi/4.6.2/../../../../arm-none-eabi/lib/thumb/v7m\libstdc++.a(si_class_type_info.o)
                0x08028a70                typeinfo for __cxxabiv1::__si_class_type_info
 .rodata._ZTSN10__cxxabiv120__si_class_type_infoE
                0x08028a7c       0x28 e:/elektronik/toolchain/yagarto/bin/../lib/gcc/arm-none-eabi/4.6.2/../../../../arm-none-eabi/lib/thumb/v7m\libstdc++.a(si_class_type_info.o)
                0x08028a7c                typeinfo name for __cxxabiv1::__si_class_type_info
 .rodata._ZTISt9type_info
                0x08028aa4        0x8 e:/elektronik/toolchain/yagarto/bin/../lib/gcc/arm-none-eabi/4.6.2/../../../../arm-none-eabi/lib/thumb/v7m\libstdc++.a(tinfo.o)
                0x08028aa4                typeinfo for std::type_info
 .rodata._ZTSSt9type_info
                0x08028aac       0x10 e:/elektronik/toolchain/yagarto/bin/../lib/gcc/arm-none-eabi/4.6.2/../../../../arm-none-eabi/lib/thumb/v7m\libstdc++.a(tinfo.o)
                0x08028aac                typeinfo name for std::type_info
 *fill*         0x08028abc        0x4 00
 .rodata._ZTVSt9type_info
                0x08028ac0       0x20 e:/elektronik/toolchain/yagarto/bin/../lib/gcc/arm-none-eabi/4.6.2/../../../../arm-none-eabi/lib/thumb/v7m\libstdc++.a(tinfo.o)
                0x08028ac0                vtable for std::type_info
 .rodata._ZTISt8bad_cast
                0x08028ae0        0xc e:/elektronik/toolchain/yagarto/bin/../lib/gcc/arm-none-eabi/4.6.2/../../../../arm-none-eabi/lib/thumb/v7m\libstdc++.a(bad_cast.o)
                0x08028ae0                typeinfo for std::bad_cast
 .rodata._ZTSSt8bad_cast
                0x08028aec        0xc e:/elektronik/toolchain/yagarto/bin/../lib/gcc/arm-none-eabi/4.6.2/../../../../arm-none-eabi/lib/thumb/v7m\libstdc++.a(bad_cast.o)
                0x08028aec                typeinfo name for std::bad_cast
 .rodata._ZTVSt8bad_cast
                0x08028af8       0x18 e:/elektronik/toolchain/yagarto/bin/../lib/gcc/arm-none-eabi/4.6.2/../../../../arm-none-eabi/lib/thumb/v7m\libstdc++.a(bad_cast.o)
                0x08028af8                vtable for std::bad_cast
 .rodata.str1.4
                0x08028b10        0xe e:/elektronik/toolchain/yagarto/bin/../lib/gcc/arm-none-eabi/4.6.2/../../../../arm-none-eabi/lib/thumb/v7m\libstdc++.a(bad_cast.o)
                                 0x10 (size before relaxing)
 *fill*         0x08028b1e        0x2 00
 .rodata._ZTVSt10bad_typeid
                0x08028b20       0x18 e:/elektronik/toolchain/yagarto/bin/../lib/gcc/arm-none-eabi/4.6.2/../../../../arm-none-eabi/lib/thumb/v7m\libstdc++.a(bad_typeid.o)
                0x08028b20                vtable for std::bad_typeid
 .rodata._ZTISt10bad_typeid
                0x08028b38        0xc e:/elektronik/toolchain/yagarto/bin/../lib/gcc/arm-none-eabi/4.6.2/../../../../arm-none-eabi/lib/thumb/v7m\libstdc++.a(bad_typeid.o)
                0x08028b38                typeinfo for std::bad_typeid
 .rodata.str1.4
                0x08028b44       0x10 e:/elektronik/toolchain/yagarto/bin/../lib/gcc/arm-none-eabi/4.6.2/../../../../arm-none-eabi/lib/thumb/v7m\libstdc++.a(bad_typeid.o)
 .rodata._ZTSSt10bad_typeid
                0x08028b54       0x10 e:/elektronik/toolchain/yagarto/bin/../lib/gcc/arm-none-eabi/4.6.2/../../../../arm-none-eabi/lib/thumb/v7m\libstdc++.a(bad_typeid.o)
                0x08028b54                typeinfo name for std::bad_typeid
 *fill*         0x08028b64        0x4 00
 .rodata._ZTVN10__cxxabiv117__class_type_infoE
                0x08028b68       0x30 e:/elektronik/toolchain/yagarto/bin/../lib/gcc/arm-none-eabi/4.6.2/../../../../arm-none-eabi/lib/thumb/v7m\libstdc++.a(class_type_info.o)
                0x08028b68                vtable for __cxxabiv1::__class_type_info
 .rodata._ZTIN10__cxxabiv117__class_type_infoE
                0x08028b98        0xc e:/elektronik/toolchain/yagarto/bin/../lib/gcc/arm-none-eabi/4.6.2/../../../../arm-none-eabi/lib/thumb/v7m\libstdc++.a(class_type_info.o)
                0x08028b98                typeinfo for __cxxabiv1::__class_type_info
 .rodata._ZTSN10__cxxabiv117__class_type_infoE
                0x08028ba4       0x24 e:/elektronik/toolchain/yagarto/bin/../lib/gcc/arm-none-eabi/4.6.2/../../../../arm-none-eabi/lib/thumb/v7m\libstdc++.a(class_type_info.o)
                0x08028ba4                typeinfo name for __cxxabiv1::__class_type_info
 .rodata._ZTIN10__cxxabiv117__pbase_type_infoE
                0x08028bc8        0xc e:/elektronik/toolchain/yagarto/bin/../lib/gcc/arm-none-eabi/4.6.2/../../../../arm-none-eabi/lib/thumb/v7m\libstdc++.a(pbase_type_info.o)
                0x08028bc8                typeinfo for __cxxabiv1::__pbase_type_info
 .rodata._ZTSN10__cxxabiv117__pbase_type_infoE
                0x08028bd4       0x24 e:/elektronik/toolchain/yagarto/bin/../lib/gcc/arm-none-eabi/4.6.2/../../../../arm-none-eabi/lib/thumb/v7m\libstdc++.a(pbase_type_info.o)
                0x08028bd4                typeinfo name for __cxxabiv1::__pbase_type_info
 .rodata._ZTVN10__cxxabiv117__pbase_type_infoE
                0x08028bf8       0x28 e:/elektronik/toolchain/yagarto/bin/../lib/gcc/arm-none-eabi/4.6.2/../../../../arm-none-eabi/lib/thumb/v7m\libstdc++.a(pbase_type_info.o)
                0x08028bf8                vtable for __cxxabiv1::__pbase_type_info
 .rodata.str1.4
                0x08028c20       0x3f e:/elektronik/toolchain/yagarto/bin/../lib/gcc/arm-none-eabi/4.6.2/../../../../arm-none-eabi/lib/thumb/v7m\libg.a(lib_a-assert.o)
                                 0x44 (size before relaxing)
 *fill*         0x08028c5f        0x1 00
 .rodata.str1.4
                0x08028c60        0x2 e:/elektronik/toolchain/yagarto/bin/../lib/gcc/arm-none-eabi/4.6.2/../../../../arm-none-eabi/lib/thumb/v7m\libg.a(lib_a-impure.o)
                                  0x4 (size before relaxing)
 *fill*         0x08028c62        0x2 00
 .rodata.str1.4
                0x08028c64       0x42 e:/elektronik/toolchain/yagarto/bin/../lib/gcc/arm-none-eabi/4.6.2/../../../../arm-none-eabi/lib/thumb/v7m\libg.a(lib_a-svfprintf.o)
                                 0x44 (size before relaxing)
 .rodata.str1.4
                0x00000000       0x30 e:/elektronik/toolchain/yagarto/bin/../lib/gcc/arm-none-eabi/4.6.2/../../../../arm-none-eabi/lib/thumb/v7m\libg.a(lib_a-vfiprintf.o)
 *fill*         0x08028ca6        0x2 00
 .rodata.str1.4
                0x08028ca8       0x10 e:/elektronik/toolchain/yagarto/bin/../lib/gcc/arm-none-eabi/4.6.2/../../../../arm-none-eabi/lib/thumb/v7m\libg.a(lib_a-dtoa.o)
                                 0x14 (size before relaxing)
 .rodata.str1.4
                0x08028cb8        0xc e:/elektronik/toolchain/yagarto/bin/../lib/gcc/arm-none-eabi/4.6.2/../../../../arm-none-eabi/lib/thumb/v7m\libg.a(lib_a-locale.o)
                                 0x14 (size before relaxing)
 .rodata.str1.4
                0x00000000       0x30 e:/elektronik/toolchain/yagarto/bin/../lib/gcc/arm-none-eabi/4.6.2/../../../../arm-none-eabi/lib/thumb/v7m\libg.a(lib_a-svfiprintf.o)
 *(.glue_7)
 .glue_7        0x00000000        0x0 linker stubs
 *(.glue_7t)
 .glue_7t       0x00000000        0x0 linker stubs
 *(.eh_frame)
 .eh_frame      0x08028cc4        0x0 e:/elektronik/toolchain/yagarto/bin/../lib/gcc/arm-none-eabi/4.6.2/thumb/v7m/crtbegin.o
 .eh_frame      0x08028cc4        0x4 e:/elektronik/toolchain/yagarto/bin/../lib/gcc/arm-none-eabi/4.6.2/thumb/v7m/crtend.o
 *(.init)
 .init          0x08028cc8        0x4 e:/elektronik/toolchain/yagarto/bin/../lib/gcc/arm-none-eabi/4.6.2/thumb/v7m/crti.o
                0x08028cc8                _init
 .init          0x08028ccc        0x8 e:/elektronik/toolchain/yagarto/bin/../lib/gcc/arm-none-eabi/4.6.2/thumb/v7m/crtn.o
 *(.fini)
 .fini          0x08028cd4        0x4 e:/elektronik/toolchain/yagarto/bin/../lib/gcc/arm-none-eabi/4.6.2/thumb/v7m/crti.o
                0x08028cd4                _fini
 .fini          0x08028cd8        0x8 e:/elektronik/toolchain/yagarto/bin/../lib/gcc/arm-none-eabi/4.6.2/thumb/v7m/crtn.o
                0x08028ce0                . = ALIGN (0x4)
                0x08028ce0                _etext = .

.vfp11_veneer   0x08028ce0        0x0
 .vfp11_veneer  0x00000000        0x0 linker stubs

.v4_bx          0x08028ce0        0x0
 .v4_bx         0x00000000        0x0 linker stubs

.ARM.extab      0x08028ce0      0x144
 *(.ARM.extab* .gnu.linkonce.armextab.*)
 .ARM.extab     0x08028ce0        0x0 e:/elektronik/toolchain/yagarto/bin/../lib/gcc/arm-none-eabi/4.6.2/../../../../arm-none-eabi/lib/thumb/v7m/crt0.o
 .ARM.extab.text.__aeabi_atexit
                0x08028ce0        0x0 e:/elektronik/toolchain/yagarto/bin/../lib/gcc/arm-none-eabi/4.6.2/../../../../arm-none-eabi/lib/thumb/v7m\libstdc++.a(atexit_arm.o)
 .ARM.extab.text._ZdlPv
                0x08028ce0        0x0 e:/elektronik/toolchain/yagarto/bin/../lib/gcc/arm-none-eabi/4.6.2/../../../../arm-none-eabi/lib/thumb/v7m\libstdc++.a(del_op.o)
 .ARM.extab.text.__cxa_pure_virtual
                0x08028ce0        0xc e:/elektronik/toolchain/yagarto/bin/../lib/gcc/arm-none-eabi/4.6.2/../../../../arm-none-eabi/lib/thumb/v7m\libstdc++.a(pure.o)
 .ARM.extab.text._ZN10__cxxabiv111__terminateEPFvvE
                0x08028cec       0x2c e:/elektronik/toolchain/yagarto/bin/../lib/gcc/arm-none-eabi/4.6.2/../../../../arm-none-eabi/lib/thumb/v7m\libstdc++.a(eh_terminate.o)
 .ARM.extab.text._ZSt9terminatev
                0x08028d18        0x0 e:/elektronik/toolchain/yagarto/bin/../lib/gcc/arm-none-eabi/4.6.2/../../../../arm-none-eabi/lib/thumb/v7m\libstdc++.a(eh_terminate.o)
 .ARM.extab.text._ZN10__cxxabiv112__unexpectedEPFvvE
                0x08028d18        0xc e:/elektronik/toolchain/yagarto/bin/../lib/gcc/arm-none-eabi/4.6.2/../../../../arm-none-eabi/lib/thumb/v7m\libstdc++.a(eh_terminate.o)
 .ARM.extab.text._ZSt10unexpectedv
                0x08028d24        0xc e:/elektronik/toolchain/yagarto/bin/../lib/gcc/arm-none-eabi/4.6.2/../../../../arm-none-eabi/lib/thumb/v7m\libstdc++.a(eh_terminate.o)
 .ARM.extab.text._ZSt13set_terminatePFvvE
                0x08028d30        0x0 e:/elektronik/toolchain/yagarto/bin/../lib/gcc/arm-none-eabi/4.6.2/../../../../arm-none-eabi/lib/thumb/v7m\libstdc++.a(eh_terminate.o)
 .ARM.extab.text._ZSt14set_unexpectedPFvvE
                0x08028d30        0x0 e:/elektronik/toolchain/yagarto/bin/../lib/gcc/arm-none-eabi/4.6.2/../../../../arm-none-eabi/lib/thumb/v7m\libstdc++.a(eh_terminate.o)
 .ARM.extab.text._ZN9__gnu_cxx27__verbose_terminate_handlerEv
                0x08028d30       0x3c e:/elektronik/toolchain/yagarto/bin/../lib/gcc/arm-none-eabi/4.6.2/../../../../arm-none-eabi/lib/thumb/v7m\libstdc++.a(vterminate.o)
 .ARM.extab.text.__cxa_type_match
                0x08028d6c        0x0 e:/elektronik/toolchain/yagarto/bin/../lib/gcc/arm-none-eabi/4.6.2/../../../../arm-none-eabi/lib/thumb/v7m\libstdc++.a(eh_arm.o)
 .ARM.extab.text.__cxa_begin_cleanup
                0x08028d6c        0x0 e:/elektronik/toolchain/yagarto/bin/../lib/gcc/arm-none-eabi/4.6.2/../../../../arm-none-eabi/lib/thumb/v7m\libstdc++.a(eh_arm.o)
 .ARM.extab.text.__gnu_end_cleanup
                0x08028d6c        0x0 e:/elektronik/toolchain/yagarto/bin/../lib/gcc/arm-none-eabi/4.6.2/../../../../arm-none-eabi/lib/thumb/v7m\libstdc++.a(eh_arm.o)
 .ARM.extab.text.__cxa_bad_cast
                0x08028d6c        0xc e:/elektronik/toolchain/yagarto/bin/../lib/gcc/arm-none-eabi/4.6.2/../../../../arm-none-eabi/lib/thumb/v7m\libstdc++.a(eh_aux_runtime.o)
 .ARM.extab.text.__cxa_bad_typeid
                0x08028d78        0xc e:/elektronik/toolchain/yagarto/bin/../lib/gcc/arm-none-eabi/4.6.2/../../../../arm-none-eabi/lib/thumb/v7m\libstdc++.a(eh_aux_runtime.o)
 .ARM.extab.text.__cxa_call_terminate
                0x08028d84        0x0 e:/elektronik/toolchain/yagarto/bin/../lib/gcc/arm-none-eabi/4.6.2/../../../../arm-none-eabi/lib/thumb/v7m\libstdc++.a(eh_call.o)
 .ARM.extab.text.__cxa_call_unexpected
                0x08028d84       0x28 e:/elektronik/toolchain/yagarto/bin/../lib/gcc/arm-none-eabi/4.6.2/../../../../arm-none-eabi/lib/thumb/v7m\libstdc++.a(eh_call.o)
 .ARM.extab.text.__cxa_get_exception_ptr
                0x08028dac        0x0 e:/elektronik/toolchain/yagarto/bin/../lib/gcc/arm-none-eabi/4.6.2/../../../../arm-none-eabi/lib/thumb/v7m\libstdc++.a(eh_catch.o)
 .ARM.extab.text.__cxa_begin_catch
                0x08028dac       0x1c e:/elektronik/toolchain/yagarto/bin/../lib/gcc/arm-none-eabi/4.6.2/../../../../arm-none-eabi/lib/thumb/v7m\libstdc++.a(eh_catch.o)
 .ARM.extab.text.__cxa_end_catch
                0x08028dc8        0x0 e:/elektronik/toolchain/yagarto/bin/../lib/gcc/arm-none-eabi/4.6.2/../../../../arm-none-eabi/lib/thumb/v7m\libstdc++.a(eh_catch.o)
 .ARM.extab.text._ZSt18uncaught_exceptionv
                0x08028dc8        0x0 e:/elektronik/toolchain/yagarto/bin/../lib/gcc/arm-none-eabi/4.6.2/../../../../arm-none-eabi/lib/thumb/v7m\libstdc++.a(eh_catch.o)
 .ARM.extab.text._ZNSt9exceptionD2Ev
                0x08028dc8        0x0 e:/elektronik/toolchain/yagarto/bin/../lib/gcc/arm-none-eabi/4.6.2/../../../../arm-none-eabi/lib/thumb/v7m\libstdc++.a(eh_exception.o)
 .ARM.extab.text._ZNSt13bad_exceptionD2Ev
                0x08028dc8        0x0 e:/elektronik/toolchain/yagarto/bin/../lib/gcc/arm-none-eabi/4.6.2/../../../../arm-none-eabi/lib/thumb/v7m\libstdc++.a(eh_exception.o)
 .ARM.extab.text._ZN10__cxxabiv115__forced_unwindD2Ev
                0x08028dc8        0x0 e:/elektronik/toolchain/yagarto/bin/../lib/gcc/arm-none-eabi/4.6.2/../../../../arm-none-eabi/lib/thumb/v7m\libstdc++.a(eh_exception.o)
 .ARM.extab.text._ZN10__cxxabiv119__foreign_exceptionD2Ev
                0x08028dc8        0x0 e:/elektronik/toolchain/yagarto/bin/../lib/gcc/arm-none-eabi/4.6.2/../../../../arm-none-eabi/lib/thumb/v7m\libstdc++.a(eh_exception.o)
 .ARM.extab.text._ZNKSt9exception4whatEv
                0x08028dc8        0x0 e:/elektronik/toolchain/yagarto/bin/../lib/gcc/arm-none-eabi/4.6.2/../../../../arm-none-eabi/lib/thumb/v7m\libstdc++.a(eh_exception.o)
 .ARM.extab.text._ZNKSt13bad_exception4whatEv
                0x08028dc8        0x0 e:/elektronik/toolchain/yagarto/bin/../lib/gcc/arm-none-eabi/4.6.2/../../../../arm-none-eabi/lib/thumb/v7m\libstdc++.a(eh_exception.o)
 .ARM.extab.text._ZN10__cxxabiv119__foreign_exceptionD0Ev
                0x08028dc8        0x0 e:/elektronik/toolchain/yagarto/bin/../lib/gcc/arm-none-eabi/4.6.2/../../../../arm-none-eabi/lib/thumb/v7m\libstdc++.a(eh_exception.o)
 .ARM.extab.text._ZN10__cxxabiv115__forced_unwindD0Ev
                0x08028dc8        0x0 e:/elektronik/toolchain/yagarto/bin/../lib/gcc/arm-none-eabi/4.6.2/../../../../arm-none-eabi/lib/thumb/v7m\libstdc++.a(eh_exception.o)
 .ARM.extab.text._ZNSt13bad_exceptionD0Ev
                0x08028dc8        0x0 e:/elektronik/toolchain/yagarto/bin/../lib/gcc/arm-none-eabi/4.6.2/../../../../arm-none-eabi/lib/thumb/v7m\libstdc++.a(eh_exception.o)
 .ARM.extab.text._ZNSt9exceptionD0Ev
                0x08028dc8        0x0 e:/elektronik/toolchain/yagarto/bin/../lib/gcc/arm-none-eabi/4.6.2/../../../../arm-none-eabi/lib/thumb/v7m\libstdc++.a(eh_exception.o)
 .ARM.extab.text.__cxa_get_globals_fast
                0x08028dc8        0x0 e:/elektronik/toolchain/yagarto/bin/../lib/gcc/arm-none-eabi/4.6.2/../../../../arm-none-eabi/lib/thumb/v7m\libstdc++.a(eh_globals.o)
 .ARM.extab.text.__cxa_get_globals
                0x08028dc8        0x0 e:/elektronik/toolchain/yagarto/bin/../lib/gcc/arm-none-eabi/4.6.2/../../../../arm-none-eabi/lib/thumb/v7m\libstdc++.a(eh_globals.o)
 .ARM.extab.text._ZL12read_sleb128PKhPl
                0x08028dc8        0x0 e:/elektronik/toolchain/yagarto/bin/../lib/gcc/arm-none-eabi/4.6.2/../../../../arm-none-eabi/lib/thumb/v7m\libstdc++.a(eh_personality.o)
 .ARM.extab.text._ZL28read_encoded_value_with_basehjPKhPj
                0x08028dc8        0x0 e:/elektronik/toolchain/yagarto/bin/../lib/gcc/arm-none-eabi/4.6.2/../../../../arm-none-eabi/lib/thumb/v7m\libstdc++.a(eh_personality.o)
 .ARM.extab.text._ZL21base_of_encoded_valuehP15_Unwind_Context
                0x08028dc8        0xc e:/elektronik/toolchain/yagarto/bin/../lib/gcc/arm-none-eabi/4.6.2/../../../../arm-none-eabi/lib/thumb/v7m\libstdc++.a(eh_personality.o)
 .ARM.extab.text._ZL17parse_lsda_headerP15_Unwind_ContextPKhP16lsda_header_info.constprop.1
                0x08028dd4        0x0 e:/elektronik/toolchain/yagarto/bin/../lib/gcc/arm-none-eabi/4.6.2/../../../../arm-none-eabi/lib/thumb/v7m\libstdc++.a(eh_personality.o)
 .ARM.extab.text.__gxx_personality_v0
                0x08028dd4       0x20 e:/elektronik/toolchain/yagarto/bin/../lib/gcc/arm-none-eabi/4.6.2/../../../../arm-none-eabi/lib/thumb/v7m\libstdc++.a(eh_personality.o)
 .ARM.extab.text._ZL23__gxx_exception_cleanup19_Unwind_Reason_CodeP21_Unwind_Control_Block
                0x08028df4        0x0 e:/elektronik/toolchain/yagarto/bin/../lib/gcc/arm-none-eabi/4.6.2/../../../../arm-none-eabi/lib/thumb/v7m\libstdc++.a(eh_throw.o)
 .ARM.extab.text.__cxa_throw
                0x08028df4        0x0 e:/elektronik/toolchain/yagarto/bin/../lib/gcc/arm-none-eabi/4.6.2/../../../../arm-none-eabi/lib/thumb/v7m\libstdc++.a(eh_throw.o)
 .ARM.extab.text.__cxa_rethrow
                0x08028df4        0x0 e:/elektronik/toolchain/yagarto/bin/../lib/gcc/arm-none-eabi/4.6.2/../../../../arm-none-eabi/lib/thumb/v7m\libstdc++.a(eh_throw.o)
 .ARM.extab.text.__cxa_current_exception_type
                0x08028df4        0x0 e:/elektronik/toolchain/yagarto/bin/../lib/gcc/arm-none-eabi/4.6.2/../../../../arm-none-eabi/lib/thumb/v7m\libstdc++.a(eh_type.o)
 .ARM.extab.text._ZN10__cxxabiv123__fundamental_type_infoD2Ev
                0x08028df4        0x0 e:/elektronik/toolchain/yagarto/bin/../lib/gcc/arm-none-eabi/4.6.2/../../../../arm-none-eabi/lib/thumb/v7m\libstdc++.a(fundamental_type_info.o)
 .ARM.extab.text._ZN10__cxxabiv123__fundamental_type_infoD0Ev
                0x08028df4        0x0 e:/elektronik/toolchain/yagarto/bin/../lib/gcc/arm-none-eabi/4.6.2/../../../../arm-none-eabi/lib/thumb/v7m\libstdc++.a(fundamental_type_info.o)
 .ARM.extab.text._ZNK10__cxxabiv119__pointer_type_info14__is_pointer_pEv
                0x08028df4        0x0 e:/elektronik/toolchain/yagarto/bin/../lib/gcc/arm-none-eabi/4.6.2/../../../../arm-none-eabi/lib/thumb/v7m\libstdc++.a(pointer_type_info.o)
 .ARM.extab.text._ZN10__cxxabiv119__pointer_type_infoD2Ev
                0x08028df4        0x0 e:/elektronik/toolchain/yagarto/bin/../lib/gcc/arm-none-eabi/4.6.2/../../../../arm-none-eabi/lib/thumb/v7m\libstdc++.a(pointer_type_info.o)
 .ARM.extab.text._ZN10__cxxabiv119__pointer_type_infoD0Ev
                0x08028df4        0x0 e:/elektronik/toolchain/yagarto/bin/../lib/gcc/arm-none-eabi/4.6.2/../../../../arm-none-eabi/lib/thumb/v7m\libstdc++.a(pointer_type_info.o)
 .ARM.extab.text._ZNK10__cxxabiv119__pointer_type_info15__pointer_catchEPKNS_17__pbase_type_infoEPPvj
                0x08028df4        0x0 e:/elektronik/toolchain/yagarto/bin/../lib/gcc/arm-none-eabi/4.6.2/../../../../arm-none-eabi/lib/thumb/v7m\libstdc++.a(pointer_type_info.o)
 .ARM.extab.text._ZN10__cxxabiv120__si_class_type_infoD2Ev
                0x08028df4        0x0 e:/elektronik/toolchain/yagarto/bin/../lib/gcc/arm-none-eabi/4.6.2/../../../../arm-none-eabi/lib/thumb/v7m\libstdc++.a(si_class_type_info.o)
 .ARM.extab.text._ZN10__cxxabiv120__si_class_type_infoD0Ev
                0x08028df4        0x0 e:/elektronik/toolchain/yagarto/bin/../lib/gcc/arm-none-eabi/4.6.2/../../../../arm-none-eabi/lib/thumb/v7m\libstdc++.a(si_class_type_info.o)
 .ARM.extab.text._ZNK10__cxxabiv120__si_class_type_info11__do_upcastEPKNS_17__class_type_infoEPKvRNS1_15__upcast_resultE
                0x08028df4        0x0 e:/elektronik/toolchain/yagarto/bin/../lib/gcc/arm-none-eabi/4.6.2/../../../../arm-none-eabi/lib/thumb/v7m\libstdc++.a(si_class_type_info.o)
 .ARM.extab.text._ZNK10__cxxabiv120__si_class_type_info12__do_dyncastEiNS_17__class_type_info10__sub_kindEPKS1_PKvS4_S6_RNS1_16__dyncast_resultE
                0x08028df4        0x0 e:/elektronik/toolchain/yagarto/bin/../lib/gcc/arm-none-eabi/4.6.2/../../../../arm-none-eabi/lib/thumb/v7m\libstdc++.a(si_class_type_info.o)
 .ARM.extab.text._ZNK10__cxxabiv120__si_class_type_info20__do_find_public_srcEiPKvPKNS_17__class_type_infoES2_
                0x08028df4        0x0 e:/elektronik/toolchain/yagarto/bin/../lib/gcc/arm-none-eabi/4.6.2/../../../../arm-none-eabi/lib/thumb/v7m\libstdc++.a(si_class_type_info.o)
 .ARM.extab.text._ZNSt9type_infoD2Ev
                0x08028df4        0x0 e:/elektronik/toolchain/yagarto/bin/../lib/gcc/arm-none-eabi/4.6.2/../../../../arm-none-eabi/lib/thumb/v7m\libstdc++.a(tinfo.o)
 .ARM.extab.text._ZNKSt9type_info14__is_pointer_pEv
                0x08028df4        0x0 e:/elektronik/toolchain/yagarto/bin/../lib/gcc/arm-none-eabi/4.6.2/../../../../arm-none-eabi/lib/thumb/v7m\libstdc++.a(tinfo.o)
 .ARM.extab.text._ZNKSt9type_info15__is_function_pEv
                0x08028df4        0x0 e:/elektronik/toolchain/yagarto/bin/../lib/gcc/arm-none-eabi/4.6.2/../../../../arm-none-eabi/lib/thumb/v7m\libstdc++.a(tinfo.o)
 .ARM.extab.text._ZNKSt9type_info11__do_upcastEPKN10__cxxabiv117__class_type_infoEPPv
                0x08028df4        0x0 e:/elektronik/toolchain/yagarto/bin/../lib/gcc/arm-none-eabi/4.6.2/../../../../arm-none-eabi/lib/thumb/v7m\libstdc++.a(tinfo.o)
 .ARM.extab.text._ZNSt9type_infoD0Ev
                0x08028df4        0x0 e:/elektronik/toolchain/yagarto/bin/../lib/gcc/arm-none-eabi/4.6.2/../../../../arm-none-eabi/lib/thumb/v7m\libstdc++.a(tinfo.o)
 .ARM.extab.text._ZNKSt9type_infoeqERKS_
                0x08028df4        0x0 e:/elektronik/toolchain/yagarto/bin/../lib/gcc/arm-none-eabi/4.6.2/../../../../arm-none-eabi/lib/thumb/v7m\libstdc++.a(tinfo.o)
 .ARM.extab.text._ZNKSt9type_info10__do_catchEPKS_PPvj
                0x08028df4        0x0 e:/elektronik/toolchain/yagarto/bin/../lib/gcc/arm-none-eabi/4.6.2/../../../../arm-none-eabi/lib/thumb/v7m\libstdc++.a(tinfo.o)
 .ARM.extab.text._ZNKSt8bad_cast4whatEv
                0x08028df4        0x0 e:/elektronik/toolchain/yagarto/bin/../lib/gcc/arm-none-eabi/4.6.2/../../../../arm-none-eabi/lib/thumb/v7m\libstdc++.a(bad_cast.o)
 .ARM.extab.text._ZNSt8bad_castD2Ev
                0x08028df4        0x0 e:/elektronik/toolchain/yagarto/bin/../lib/gcc/arm-none-eabi/4.6.2/../../../../arm-none-eabi/lib/thumb/v7m\libstdc++.a(bad_cast.o)
 .ARM.extab.text._ZNSt8bad_castD0Ev
                0x08028df4        0x0 e:/elektronik/toolchain/yagarto/bin/../lib/gcc/arm-none-eabi/4.6.2/../../../../arm-none-eabi/lib/thumb/v7m\libstdc++.a(bad_cast.o)
 .ARM.extab.text._ZNKSt10bad_typeid4whatEv
                0x08028df4        0x0 e:/elektronik/toolchain/yagarto/bin/../lib/gcc/arm-none-eabi/4.6.2/../../../../arm-none-eabi/lib/thumb/v7m\libstdc++.a(bad_typeid.o)
 .ARM.extab.text._ZNSt10bad_typeidD2Ev
                0x08028df4        0x0 e:/elektronik/toolchain/yagarto/bin/../lib/gcc/arm-none-eabi/4.6.2/../../../../arm-none-eabi/lib/thumb/v7m\libstdc++.a(bad_typeid.o)
 .ARM.extab.text._ZNSt10bad_typeidD0Ev
                0x08028df4        0x0 e:/elektronik/toolchain/yagarto/bin/../lib/gcc/arm-none-eabi/4.6.2/../../../../arm-none-eabi/lib/thumb/v7m\libstdc++.a(bad_typeid.o)
 .ARM.extab.text._ZNK10__cxxabiv117__class_type_info11__do_upcastEPKS0_PPv
                0x08028df4        0x0 e:/elektronik/toolchain/yagarto/bin/../lib/gcc/arm-none-eabi/4.6.2/../../../../arm-none-eabi/lib/thumb/v7m\libstdc++.a(class_type_info.o)
 .ARM.extab.text._ZNK10__cxxabiv117__class_type_info20__do_find_public_srcEiPKvPKS0_S2_
                0x08028df4        0x0 e:/elektronik/toolchain/yagarto/bin/../lib/gcc/arm-none-eabi/4.6.2/../../../../arm-none-eabi/lib/thumb/v7m\libstdc++.a(class_type_info.o)
 .ARM.extab.text._ZNK10__cxxabiv117__class_type_info11__do_upcastEPKS0_PKvRNS0_15__upcast_resultE
                0x08028df4        0x0 e:/elektronik/toolchain/yagarto/bin/../lib/gcc/arm-none-eabi/4.6.2/../../../../arm-none-eabi/lib/thumb/v7m\libstdc++.a(class_type_info.o)
 .ARM.extab.text._ZN10__cxxabiv117__class_type_infoD2Ev
                0x08028df4        0x0 e:/elektronik/toolchain/yagarto/bin/../lib/gcc/arm-none-eabi/4.6.2/../../../../arm-none-eabi/lib/thumb/v7m\libstdc++.a(class_type_info.o)
 .ARM.extab.text._ZN10__cxxabiv117__class_type_infoD0Ev
                0x08028df4        0x0 e:/elektronik/toolchain/yagarto/bin/../lib/gcc/arm-none-eabi/4.6.2/../../../../arm-none-eabi/lib/thumb/v7m\libstdc++.a(class_type_info.o)
 .ARM.extab.text._ZNK10__cxxabiv117__class_type_info12__do_dyncastEiNS0_10__sub_kindEPKS0_PKvS3_S5_RNS0_16__dyncast_resultE
                0x08028df4        0x0 e:/elektronik/toolchain/yagarto/bin/../lib/gcc/arm-none-eabi/4.6.2/../../../../arm-none-eabi/lib/thumb/v7m\libstdc++.a(class_type_info.o)
 .ARM.extab.text._ZNK10__cxxabiv117__class_type_info10__do_catchEPKSt9type_infoPPvj
                0x08028df4        0x0 e:/elektronik/toolchain/yagarto/bin/../lib/gcc/arm-none-eabi/4.6.2/../../../../arm-none-eabi/lib/thumb/v7m\libstdc++.a(class_type_info.o)
 .ARM.extab.text.__cxa_allocate_exception
                0x08028df4        0x0 e:/elektronik/toolchain/yagarto/bin/../lib/gcc/arm-none-eabi/4.6.2/../../../../arm-none-eabi/lib/thumb/v7m\libstdc++.a(eh_alloc.o)
 .ARM.extab.text.__cxa_free_exception
                0x08028df4        0x0 e:/elektronik/toolchain/yagarto/bin/../lib/gcc/arm-none-eabi/4.6.2/../../../../arm-none-eabi/lib/thumb/v7m\libstdc++.a(eh_alloc.o)
 .ARM.extab.text.__cxa_allocate_dependent_exception
                0x08028df4        0x0 e:/elektronik/toolchain/yagarto/bin/../lib/gcc/arm-none-eabi/4.6.2/../../../../arm-none-eabi/lib/thumb/v7m\libstdc++.a(eh_alloc.o)
 .ARM.extab.text.__cxa_free_dependent_exception
                0x08028df4        0x0 e:/elektronik/toolchain/yagarto/bin/../lib/gcc/arm-none-eabi/4.6.2/../../../../arm-none-eabi/lib/thumb/v7m\libstdc++.a(eh_alloc.o)
 .ARM.extab.text._ZNK10__cxxabiv117__pbase_type_info15__pointer_catchEPKS0_PPvj
                0x08028df4        0x0 e:/elektronik/toolchain/yagarto/bin/../lib/gcc/arm-none-eabi/4.6.2/../../../../arm-none-eabi/lib/thumb/v7m\libstdc++.a(pbase_type_info.o)
 .ARM.extab.text._ZN10__cxxabiv117__pbase_type_infoD2Ev
                0x08028df4        0x0 e:/elektronik/toolchain/yagarto/bin/../lib/gcc/arm-none-eabi/4.6.2/../../../../arm-none-eabi/lib/thumb/v7m\libstdc++.a(pbase_type_info.o)
 .ARM.extab.text._ZN10__cxxabiv117__pbase_type_infoD0Ev
                0x08028df4        0x0 e:/elektronik/toolchain/yagarto/bin/../lib/gcc/arm-none-eabi/4.6.2/../../../../arm-none-eabi/lib/thumb/v7m\libstdc++.a(pbase_type_info.o)
 .ARM.extab.text._ZNK10__cxxabiv117__pbase_type_info10__do_catchEPKSt9type_infoPPvj
                0x08028df4        0x0 e:/elektronik/toolchain/yagarto/bin/../lib/gcc/arm-none-eabi/4.6.2/../../../../arm-none-eabi/lib/thumb/v7m\libstdc++.a(pbase_type_info.o)
 .ARM.extab     0x08028df4       0x18 e:/elektronik/toolchain/yagarto/bin/../lib/gcc/arm-none-eabi/4.6.2/thumb/v7m\libgcc.a(unwind-arm.o)
 .ARM.extab     0x08028e0c       0x18 e:/elektronik/toolchain/yagarto/bin/../lib/gcc/arm-none-eabi/4.6.2/thumb/v7m\libgcc.a(pr-support.o)

.ARM            0x08028e24      0x220
                0x08028e24                __exidx_start = .
 *(.ARM.exidx*)
 .ARM.exidx     0x08028e24        0x8 e:/elektronik/toolchain/yagarto/bin/../lib/gcc/arm-none-eabi/4.6.2/../../../../arm-none-eabi/lib/thumb/v7m/crt0.o
 .ARM.exidx.text.__aeabi_atexit
                0x08028ee4        0x0 e:/elektronik/toolchain/yagarto/bin/../lib/gcc/arm-none-eabi/4.6.2/../../../../arm-none-eabi/lib/thumb/v7m\libstdc++.a(atexit_arm.o)
                                  0x8 (size before relaxing)
 .ARM.exidx.text._ZdlPv
                0x08028ee4        0x0 e:/elektronik/toolchain/yagarto/bin/../lib/gcc/arm-none-eabi/4.6.2/../../../../arm-none-eabi/lib/thumb/v7m\libstdc++.a(del_op.o)
                                  0x8 (size before relaxing)
 .ARM.exidx.text.__cxa_pure_virtual
                0x08028ee4        0x8 e:/elektronik/toolchain/yagarto/bin/../lib/gcc/arm-none-eabi/4.6.2/../../../../arm-none-eabi/lib/thumb/v7m\libstdc++.a(pure.o)
 .ARM.exidx.text._ZN10__cxxabiv111__terminateEPFvvE
                0x08028eec        0x8 e:/elektronik/toolchain/yagarto/bin/../lib/gcc/arm-none-eabi/4.6.2/../../../../arm-none-eabi/lib/thumb/v7m\libstdc++.a(eh_terminate.o)
 .ARM.exidx.text._ZSt9terminatev
                0x08028ef4        0x8 e:/elektronik/toolchain/yagarto/bin/../lib/gcc/arm-none-eabi/4.6.2/../../../../arm-none-eabi/lib/thumb/v7m\libstdc++.a(eh_terminate.o)
 .ARM.exidx.text._ZN10__cxxabiv112__unexpectedEPFvvE
                0x08028efc        0x8 e:/elektronik/toolchain/yagarto/bin/../lib/gcc/arm-none-eabi/4.6.2/../../../../arm-none-eabi/lib/thumb/v7m\libstdc++.a(eh_terminate.o)
 .ARM.exidx.text._ZSt10unexpectedv
                0x08028f04        0x8 e:/elektronik/toolchain/yagarto/bin/../lib/gcc/arm-none-eabi/4.6.2/../../../../arm-none-eabi/lib/thumb/v7m\libstdc++.a(eh_terminate.o)
 .ARM.exidx.text._ZSt13set_terminatePFvvE
                0x08028f0c        0x8 e:/elektronik/toolchain/yagarto/bin/../lib/gcc/arm-none-eabi/4.6.2/../../../../arm-none-eabi/lib/thumb/v7m\libstdc++.a(eh_terminate.o)
 .ARM.exidx.text._ZSt14set_unexpectedPFvvE
                0x08028f14        0x0 e:/elektronik/toolchain/yagarto/bin/../lib/gcc/arm-none-eabi/4.6.2/../../../../arm-none-eabi/lib/thumb/v7m\libstdc++.a(eh_terminate.o)
                                  0x8 (size before relaxing)
 .ARM.exidx.text._ZN9__gnu_cxx27__verbose_terminate_handlerEv
                0x08028f14       0x10 e:/elektronik/toolchain/yagarto/bin/../lib/gcc/arm-none-eabi/4.6.2/../../../../arm-none-eabi/lib/thumb/v7m\libstdc++.a(vterminate.o)
                                  0x8 (size before relaxing)
 .ARM.exidx.text.__cxa_type_match
                0x08028f24        0x8 e:/elektronik/toolchain/yagarto/bin/../lib/gcc/arm-none-eabi/4.6.2/../../../../arm-none-eabi/lib/thumb/v7m\libstdc++.a(eh_arm.o)
 .ARM.exidx.text.__cxa_begin_cleanup
                0x08028f2c        0x8 e:/elektronik/toolchain/yagarto/bin/../lib/gcc/arm-none-eabi/4.6.2/../../../../arm-none-eabi/lib/thumb/v7m\libstdc++.a(eh_arm.o)
 .ARM.exidx.text.__gnu_end_cleanup
                0x08028f34        0x0 e:/elektronik/toolchain/yagarto/bin/../lib/gcc/arm-none-eabi/4.6.2/../../../../arm-none-eabi/lib/thumb/v7m\libstdc++.a(eh_arm.o)
                                  0x8 (size before relaxing)
 .ARM.exidx.text.__cxa_bad_cast
                0x08028f34        0x8 e:/elektronik/toolchain/yagarto/bin/../lib/gcc/arm-none-eabi/4.6.2/../../../../arm-none-eabi/lib/thumb/v7m\libstdc++.a(eh_aux_runtime.o)
 .ARM.exidx.text.__cxa_bad_typeid
                0x08028f3c        0x8 e:/elektronik/toolchain/yagarto/bin/../lib/gcc/arm-none-eabi/4.6.2/../../../../arm-none-eabi/lib/thumb/v7m\libstdc++.a(eh_aux_runtime.o)
 .ARM.exidx.text.__cxa_call_terminate
                0x08028f44        0x8 e:/elektronik/toolchain/yagarto/bin/../lib/gcc/arm-none-eabi/4.6.2/../../../../arm-none-eabi/lib/thumb/v7m\libstdc++.a(eh_call.o)
 .ARM.exidx.text.__cxa_call_unexpected
                0x08028f4c        0x8 e:/elektronik/toolchain/yagarto/bin/../lib/gcc/arm-none-eabi/4.6.2/../../../../arm-none-eabi/lib/thumb/v7m\libstdc++.a(eh_call.o)
 .ARM.exidx.text.__cxa_get_exception_ptr
                0x08028f54        0x8 e:/elektronik/toolchain/yagarto/bin/../lib/gcc/arm-none-eabi/4.6.2/../../../../arm-none-eabi/lib/thumb/v7m\libstdc++.a(eh_catch.o)
 .ARM.exidx.text.__cxa_begin_catch
                0x08028f5c        0x8 e:/elektronik/toolchain/yagarto/bin/../lib/gcc/arm-none-eabi/4.6.2/../../../../arm-none-eabi/lib/thumb/v7m\libstdc++.a(eh_catch.o)
 .ARM.exidx.text.__cxa_end_catch
                0x08028f64        0x8 e:/elektronik/toolchain/yagarto/bin/../lib/gcc/arm-none-eabi/4.6.2/../../../../arm-none-eabi/lib/thumb/v7m\libstdc++.a(eh_catch.o)
 .ARM.exidx.text._ZSt18uncaught_exceptionv
                0x08028f6c        0x0 e:/elektronik/toolchain/yagarto/bin/../lib/gcc/arm-none-eabi/4.6.2/../../../../arm-none-eabi/lib/thumb/v7m\libstdc++.a(eh_catch.o)
                                  0x8 (size before relaxing)
 .ARM.exidx.text._ZNSt9exceptionD2Ev
                0x08028f6c        0x0 e:/elektronik/toolchain/yagarto/bin/../lib/gcc/arm-none-eabi/4.6.2/../../../../arm-none-eabi/lib/thumb/v7m\libstdc++.a(eh_exception.o)
                                  0x8 (size before relaxing)
 .ARM.exidx.text._ZNSt13bad_exceptionD2Ev
                0x08028f6c        0x0 e:/elektronik/toolchain/yagarto/bin/../lib/gcc/arm-none-eabi/4.6.2/../../../../arm-none-eabi/lib/thumb/v7m\libstdc++.a(eh_exception.o)
                                  0x8 (size before relaxing)
 .ARM.exidx.text._ZN10__cxxabiv115__forced_unwindD2Ev
                0x08028f6c        0x0 e:/elektronik/toolchain/yagarto/bin/../lib/gcc/arm-none-eabi/4.6.2/../../../../arm-none-eabi/lib/thumb/v7m\libstdc++.a(eh_exception.o)
                                  0x8 (size before relaxing)
 .ARM.exidx.text._ZN10__cxxabiv119__foreign_exceptionD2Ev
                0x08028f6c        0x0 e:/elektronik/toolchain/yagarto/bin/../lib/gcc/arm-none-eabi/4.6.2/../../../../arm-none-eabi/lib/thumb/v7m\libstdc++.a(eh_exception.o)
                                  0x8 (size before relaxing)
 .ARM.exidx.text._ZNKSt9exception4whatEv
                0x08028f6c        0x0 e:/elektronik/toolchain/yagarto/bin/../lib/gcc/arm-none-eabi/4.6.2/../../../../arm-none-eabi/lib/thumb/v7m\libstdc++.a(eh_exception.o)
                                  0x8 (size before relaxing)
 .ARM.exidx.text._ZNKSt13bad_exception4whatEv
                0x08028f6c        0x0 e:/elektronik/toolchain/yagarto/bin/../lib/gcc/arm-none-eabi/4.6.2/../../../../arm-none-eabi/lib/thumb/v7m\libstdc++.a(eh_exception.o)
                                  0x8 (size before relaxing)
 .ARM.exidx.text._ZN10__cxxabiv119__foreign_exceptionD0Ev
                0x08028f6c        0x0 e:/elektronik/toolchain/yagarto/bin/../lib/gcc/arm-none-eabi/4.6.2/../../../../arm-none-eabi/lib/thumb/v7m\libstdc++.a(eh_exception.o)
                                  0x8 (size before relaxing)
 .ARM.exidx.text._ZN10__cxxabiv115__forced_unwindD0Ev
                0x08028f6c        0x0 e:/elektronik/toolchain/yagarto/bin/../lib/gcc/arm-none-eabi/4.6.2/../../../../arm-none-eabi/lib/thumb/v7m\libstdc++.a(eh_exception.o)
                                  0x8 (size before relaxing)
 .ARM.exidx.text._ZNSt13bad_exceptionD0Ev
                0x08028f6c        0x0 e:/elektronik/toolchain/yagarto/bin/../lib/gcc/arm-none-eabi/4.6.2/../../../../arm-none-eabi/lib/thumb/v7m\libstdc++.a(eh_exception.o)
                                  0x8 (size before relaxing)
 .ARM.exidx.text._ZNSt9exceptionD0Ev
                0x08028f6c        0x0 e:/elektronik/toolchain/yagarto/bin/../lib/gcc/arm-none-eabi/4.6.2/../../../../arm-none-eabi/lib/thumb/v7m\libstdc++.a(eh_exception.o)
                                  0x8 (size before relaxing)
 .ARM.exidx.text.__cxa_get_globals_fast
                0x08028f6c        0x0 e:/elektronik/toolchain/yagarto/bin/../lib/gcc/arm-none-eabi/4.6.2/../../../../arm-none-eabi/lib/thumb/v7m\libstdc++.a(eh_globals.o)
                                  0x8 (size before relaxing)
 .ARM.exidx.text.__cxa_get_globals
                0x08028f6c        0x0 e:/elektronik/toolchain/yagarto/bin/../lib/gcc/arm-none-eabi/4.6.2/../../../../arm-none-eabi/lib/thumb/v7m\libstdc++.a(eh_globals.o)
                                  0x8 (size before relaxing)
 .ARM.exidx.text._ZL12read_sleb128PKhPl
                0x08028f6c        0x0 e:/elektronik/toolchain/yagarto/bin/../lib/gcc/arm-none-eabi/4.6.2/../../../../arm-none-eabi/lib/thumb/v7m\libstdc++.a(eh_personality.o)
                                  0x8 (size before relaxing)
 .ARM.exidx.text._ZL28read_encoded_value_with_basehjPKhPj
                0x08028f6c        0x8 e:/elektronik/toolchain/yagarto/bin/../lib/gcc/arm-none-eabi/4.6.2/../../../../arm-none-eabi/lib/thumb/v7m\libstdc++.a(eh_personality.o)
 .ARM.exidx.text._ZL21base_of_encoded_valuehP15_Unwind_Context
                0x08028f74        0x8 e:/elektronik/toolchain/yagarto/bin/../lib/gcc/arm-none-eabi/4.6.2/../../../../arm-none-eabi/lib/thumb/v7m\libstdc++.a(eh_personality.o)
 .ARM.exidx.text._ZL17parse_lsda_headerP15_Unwind_ContextPKhP16lsda_header_info.constprop.1
                0x08028f7c        0x8 e:/elektronik/toolchain/yagarto/bin/../lib/gcc/arm-none-eabi/4.6.2/../../../../arm-none-eabi/lib/thumb/v7m\libstdc++.a(eh_personality.o)
 .ARM.exidx.text.__gxx_personality_v0
                0x08028f84        0x8 e:/elektronik/toolchain/yagarto/bin/../lib/gcc/arm-none-eabi/4.6.2/../../../../arm-none-eabi/lib/thumb/v7m\libstdc++.a(eh_personality.o)
 .ARM.exidx.text._ZL23__gxx_exception_cleanup19_Unwind_Reason_CodeP21_Unwind_Control_Block
                0x08028f8c        0x8 e:/elektronik/toolchain/yagarto/bin/../lib/gcc/arm-none-eabi/4.6.2/../../../../arm-none-eabi/lib/thumb/v7m\libstdc++.a(eh_throw.o)
 .ARM.exidx.text.__cxa_throw
                0x08028f94        0x8 e:/elektronik/toolchain/yagarto/bin/../lib/gcc/arm-none-eabi/4.6.2/../../../../arm-none-eabi/lib/thumb/v7m\libstdc++.a(eh_throw.o)
 .ARM.exidx.text.__cxa_rethrow
                0x08028f9c        0x8 e:/elektronik/toolchain/yagarto/bin/../lib/gcc/arm-none-eabi/4.6.2/../../../../arm-none-eabi/lib/thumb/v7m\libstdc++.a(eh_throw.o)
 .ARM.exidx.text.__cxa_current_exception_type
                0x08028fa4        0x8 e:/elektronik/toolchain/yagarto/bin/../lib/gcc/arm-none-eabi/4.6.2/../../../../arm-none-eabi/lib/thumb/v7m\libstdc++.a(eh_type.o)
 .ARM.exidx.text._ZN10__cxxabiv123__fundamental_type_infoD2Ev
                0x08028fac        0x8 e:/elektronik/toolchain/yagarto/bin/../lib/gcc/arm-none-eabi/4.6.2/../../../../arm-none-eabi/lib/thumb/v7m\libstdc++.a(fundamental_type_info.o)
 .ARM.exidx.text._ZN10__cxxabiv123__fundamental_type_infoD0Ev
                0x08028fb4        0x0 e:/elektronik/toolchain/yagarto/bin/../lib/gcc/arm-none-eabi/4.6.2/../../../../arm-none-eabi/lib/thumb/v7m\libstdc++.a(fundamental_type_info.o)
                                  0x8 (size before relaxing)
 .ARM.exidx.text._ZNK10__cxxabiv119__pointer_type_info14__is_pointer_pEv
                0x08028fb4        0x8 e:/elektronik/toolchain/yagarto/bin/../lib/gcc/arm-none-eabi/4.6.2/../../../../arm-none-eabi/lib/thumb/v7m\libstdc++.a(pointer_type_info.o)
 .ARM.exidx.text._ZN10__cxxabiv119__pointer_type_infoD2Ev
                0x08028fbc        0x8 e:/elektronik/toolchain/yagarto/bin/../lib/gcc/arm-none-eabi/4.6.2/../../../../arm-none-eabi/lib/thumb/v7m\libstdc++.a(pointer_type_info.o)
 .ARM.exidx.text._ZN10__cxxabiv119__pointer_type_infoD0Ev
                0x08028fc4        0x0 e:/elektronik/toolchain/yagarto/bin/../lib/gcc/arm-none-eabi/4.6.2/../../../../arm-none-eabi/lib/thumb/v7m\libstdc++.a(pointer_type_info.o)
                                  0x8 (size before relaxing)
 .ARM.exidx.text._ZNK10__cxxabiv119__pointer_type_info15__pointer_catchEPKNS_17__pbase_type_infoEPPvj
                0x08028fc4        0x8 e:/elektronik/toolchain/yagarto/bin/../lib/gcc/arm-none-eabi/4.6.2/../../../../arm-none-eabi/lib/thumb/v7m\libstdc++.a(pointer_type_info.o)
 .ARM.exidx.text._ZN10__cxxabiv120__si_class_type_infoD2Ev
                0x08028fcc        0x8 e:/elektronik/toolchain/yagarto/bin/../lib/gcc/arm-none-eabi/4.6.2/../../../../arm-none-eabi/lib/thumb/v7m\libstdc++.a(si_class_type_info.o)
 .ARM.exidx.text._ZN10__cxxabiv120__si_class_type_infoD0Ev
                0x08028fd4        0x0 e:/elektronik/toolchain/yagarto/bin/../lib/gcc/arm-none-eabi/4.6.2/../../../../arm-none-eabi/lib/thumb/v7m\libstdc++.a(si_class_type_info.o)
                                  0x8 (size before relaxing)
 .ARM.exidx.text._ZNK10__cxxabiv120__si_class_type_info11__do_upcastEPKNS_17__class_type_infoEPKvRNS1_15__upcast_resultE
                0x08028fd4        0x8 e:/elektronik/toolchain/yagarto/bin/../lib/gcc/arm-none-eabi/4.6.2/../../../../arm-none-eabi/lib/thumb/v7m\libstdc++.a(si_class_type_info.o)
 .ARM.exidx.text._ZNK10__cxxabiv120__si_class_type_info12__do_dyncastEiNS_17__class_type_info10__sub_kindEPKS1_PKvS4_S6_RNS1_16__dyncast_resultE
                0x08028fdc        0x8 e:/elektronik/toolchain/yagarto/bin/../lib/gcc/arm-none-eabi/4.6.2/../../../../arm-none-eabi/lib/thumb/v7m\libstdc++.a(si_class_type_info.o)
 .ARM.exidx.text._ZNK10__cxxabiv120__si_class_type_info20__do_find_public_srcEiPKvPKNS_17__class_type_infoES2_
                0x08028fe4        0x8 e:/elektronik/toolchain/yagarto/bin/../lib/gcc/arm-none-eabi/4.6.2/../../../../arm-none-eabi/lib/thumb/v7m\libstdc++.a(si_class_type_info.o)
 .ARM.exidx.text._ZNSt9type_infoD2Ev
                0x08028fec        0x8 e:/elektronik/toolchain/yagarto/bin/../lib/gcc/arm-none-eabi/4.6.2/../../../../arm-none-eabi/lib/thumb/v7m\libstdc++.a(tinfo.o)
 .ARM.exidx.text._ZNKSt9type_info14__is_pointer_pEv
                0x08028ff4        0x0 e:/elektronik/toolchain/yagarto/bin/../lib/gcc/arm-none-eabi/4.6.2/../../../../arm-none-eabi/lib/thumb/v7m\libstdc++.a(tinfo.o)
                                  0x8 (size before relaxing)
 .ARM.exidx.text._ZNKSt9type_info15__is_function_pEv
                0x08028ff4        0x0 e:/elektronik/toolchain/yagarto/bin/../lib/gcc/arm-none-eabi/4.6.2/../../../../arm-none-eabi/lib/thumb/v7m\libstdc++.a(tinfo.o)
                                  0x8 (size before relaxing)
 .ARM.exidx.text._ZNKSt9type_info11__do_upcastEPKN10__cxxabiv117__class_type_infoEPPv
                0x08028ff4        0x0 e:/elektronik/toolchain/yagarto/bin/../lib/gcc/arm-none-eabi/4.6.2/../../../../arm-none-eabi/lib/thumb/v7m\libstdc++.a(tinfo.o)
                                  0x8 (size before relaxing)
 .ARM.exidx.text._ZNSt9type_infoD0Ev
                0x08028ff4        0x0 e:/elektronik/toolchain/yagarto/bin/../lib/gcc/arm-none-eabi/4.6.2/../../../../arm-none-eabi/lib/thumb/v7m\libstdc++.a(tinfo.o)
                                  0x8 (size before relaxing)
 .ARM.exidx.text._ZNKSt9type_infoeqERKS_
                0x08028ff4        0x0 e:/elektronik/toolchain/yagarto/bin/../lib/gcc/arm-none-eabi/4.6.2/../../../../arm-none-eabi/lib/thumb/v7m\libstdc++.a(tinfo.o)
                                  0x8 (size before relaxing)
 .ARM.exidx.text._ZNKSt9type_info10__do_catchEPKS_PPvj
                0x08028ff4        0x0 e:/elektronik/toolchain/yagarto/bin/../lib/gcc/arm-none-eabi/4.6.2/../../../../arm-none-eabi/lib/thumb/v7m\libstdc++.a(tinfo.o)
                                  0x8 (size before relaxing)
 .ARM.exidx.text._ZNKSt8bad_cast4whatEv
                0x08028ff4        0x0 e:/elektronik/toolchain/yagarto/bin/../lib/gcc/arm-none-eabi/4.6.2/../../../../arm-none-eabi/lib/thumb/v7m\libstdc++.a(bad_cast.o)
                                  0x8 (size before relaxing)
 .ARM.exidx.text._ZNSt8bad_castD2Ev
                0x08028ff4        0x0 e:/elektronik/toolchain/yagarto/bin/../lib/gcc/arm-none-eabi/4.6.2/../../../../arm-none-eabi/lib/thumb/v7m\libstdc++.a(bad_cast.o)
                                  0x8 (size before relaxing)
 .ARM.exidx.text._ZNSt8bad_castD0Ev
                0x08028ff4        0x0 e:/elektronik/toolchain/yagarto/bin/../lib/gcc/arm-none-eabi/4.6.2/../../../../arm-none-eabi/lib/thumb/v7m\libstdc++.a(bad_cast.o)
                                  0x8 (size before relaxing)
 .ARM.exidx.text._ZNKSt10bad_typeid4whatEv
                0x08028ff4        0x0 e:/elektronik/toolchain/yagarto/bin/../lib/gcc/arm-none-eabi/4.6.2/../../../../arm-none-eabi/lib/thumb/v7m\libstdc++.a(bad_typeid.o)
                                  0x8 (size before relaxing)
 .ARM.exidx.text._ZNSt10bad_typeidD2Ev
                0x08028ff4        0x0 e:/elektronik/toolchain/yagarto/bin/../lib/gcc/arm-none-eabi/4.6.2/../../../../arm-none-eabi/lib/thumb/v7m\libstdc++.a(bad_typeid.o)
                                  0x8 (size before relaxing)
 .ARM.exidx.text._ZNSt10bad_typeidD0Ev
                0x08028ff4        0x0 e:/elektronik/toolchain/yagarto/bin/../lib/gcc/arm-none-eabi/4.6.2/../../../../arm-none-eabi/lib/thumb/v7m\libstdc++.a(bad_typeid.o)
                                  0x8 (size before relaxing)
 .ARM.exidx.text._ZNK10__cxxabiv117__class_type_info11__do_upcastEPKS0_PPv
                0x08028ff4        0x8 e:/elektronik/toolchain/yagarto/bin/../lib/gcc/arm-none-eabi/4.6.2/../../../../arm-none-eabi/lib/thumb/v7m\libstdc++.a(class_type_info.o)
 .ARM.exidx.text._ZNK10__cxxabiv117__class_type_info20__do_find_public_srcEiPKvPKS0_S2_
                0x08028ffc        0x8 e:/elektronik/toolchain/yagarto/bin/../lib/gcc/arm-none-eabi/4.6.2/../../../../arm-none-eabi/lib/thumb/v7m\libstdc++.a(class_type_info.o)
 .ARM.exidx.text._ZNK10__cxxabiv117__class_type_info11__do_upcastEPKS0_PKvRNS0_15__upcast_resultE
                0x08029004        0x8 e:/elektronik/toolchain/yagarto/bin/../lib/gcc/arm-none-eabi/4.6.2/../../../../arm-none-eabi/lib/thumb/v7m\libstdc++.a(class_type_info.o)
 .ARM.exidx.text._ZN10__cxxabiv117__class_type_infoD2Ev
                0x0802900c        0x8 e:/elektronik/toolchain/yagarto/bin/../lib/gcc/arm-none-eabi/4.6.2/../../../../arm-none-eabi/lib/thumb/v7m\libstdc++.a(class_type_info.o)
 .ARM.exidx.text._ZN10__cxxabiv117__class_type_infoD0Ev
                0x08029014        0x0 e:/elektronik/toolchain/yagarto/bin/../lib/gcc/arm-none-eabi/4.6.2/../../../../arm-none-eabi/lib/thumb/v7m\libstdc++.a(class_type_info.o)
                                  0x8 (size before relaxing)
 .ARM.exidx.text._ZNK10__cxxabiv117__class_type_info12__do_dyncastEiNS0_10__sub_kindEPKS0_PKvS3_S5_RNS0_16__dyncast_resultE
                0x08029014        0x8 e:/elektronik/toolchain/yagarto/bin/../lib/gcc/arm-none-eabi/4.6.2/../../../../arm-none-eabi/lib/thumb/v7m\libstdc++.a(class_type_info.o)
 .ARM.exidx.text._ZNK10__cxxabiv117__class_type_info10__do_catchEPKSt9type_infoPPvj
                0x0802901c        0x8 e:/elektronik/toolchain/yagarto/bin/../lib/gcc/arm-none-eabi/4.6.2/../../../../arm-none-eabi/lib/thumb/v7m\libstdc++.a(class_type_info.o)
 .ARM.exidx.text.__cxa_allocate_exception
                0x08029024        0x8 e:/elektronik/toolchain/yagarto/bin/../lib/gcc/arm-none-eabi/4.6.2/../../../../arm-none-eabi/lib/thumb/v7m\libstdc++.a(eh_alloc.o)
 .ARM.exidx.text.__cxa_free_exception
                0x0802902c        0x0 e:/elektronik/toolchain/yagarto/bin/../lib/gcc/arm-none-eabi/4.6.2/../../../../arm-none-eabi/lib/thumb/v7m\libstdc++.a(eh_alloc.o)
                                  0x8 (size before relaxing)
 .ARM.exidx.text.__cxa_allocate_dependent_exception
                0x0802902c        0x0 e:/elektronik/toolchain/yagarto/bin/../lib/gcc/arm-none-eabi/4.6.2/../../../../arm-none-eabi/lib/thumb/v7m\libstdc++.a(eh_alloc.o)
                                  0x8 (size before relaxing)
 .ARM.exidx.text.__cxa_free_dependent_exception
                0x0802902c        0x0 e:/elektronik/toolchain/yagarto/bin/../lib/gcc/arm-none-eabi/4.6.2/../../../../arm-none-eabi/lib/thumb/v7m\libstdc++.a(eh_alloc.o)
                                  0x8 (size before relaxing)
 .ARM.exidx.text._ZNK10__cxxabiv117__pbase_type_info15__pointer_catchEPKS0_PPvj
                0x0802902c        0x8 e:/elektronik/toolchain/yagarto/bin/../lib/gcc/arm-none-eabi/4.6.2/../../../../arm-none-eabi/lib/thumb/v7m\libstdc++.a(pbase_type_info.o)
 .ARM.exidx.text._ZN10__cxxabiv117__pbase_type_infoD2Ev
                0x08029034        0x0 e:/elektronik/toolchain/yagarto/bin/../lib/gcc/arm-none-eabi/4.6.2/../../../../arm-none-eabi/lib/thumb/v7m\libstdc++.a(pbase_type_info.o)
                                  0x8 (size before relaxing)
 .ARM.exidx.text._ZN10__cxxabiv117__pbase_type_infoD0Ev
                0x08029034        0x0 e:/elektronik/toolchain/yagarto/bin/../lib/gcc/arm-none-eabi/4.6.2/../../../../arm-none-eabi/lib/thumb/v7m\libstdc++.a(pbase_type_info.o)
                                  0x8 (size before relaxing)
 .ARM.exidx.text._ZNK10__cxxabiv117__pbase_type_info10__do_catchEPKSt9type_infoPPvj
                0x08029034       0x10 e:/elektronik/toolchain/yagarto/bin/../lib/gcc/arm-none-eabi/4.6.2/../../../../arm-none-eabi/lib/thumb/v7m\libstdc++.a(pbase_type_info.o)
                                  0x8 (size before relaxing)
 .ARM.exidx     0x08028e2c       0x80 e:/elektronik/toolchain/yagarto/bin/../lib/gcc/arm-none-eabi/4.6.2/thumb/v7m\libgcc.a(unwind-arm.o)
                                 0xc0 (size before relaxing)
 .ARM.exidx     0x08028eac       0x38 e:/elektronik/toolchain/yagarto/bin/../lib/gcc/arm-none-eabi/4.6.2/thumb/v7m\libgcc.a(pr-support.o)
                                 0x48 (size before relaxing)
                0x08029044                __exidx_end = .

.preinit_array  0x08029044        0x0
                0x08029044                PROVIDE (__preinit_array_start, .)
 *(.preinit_array*)
                0x08029044                PROVIDE (__preinit_array_end, .)

.init_array     0x08029044        0x8
                0x08029044                PROVIDE (__init_array_start, .)
 *(SORT(.init_array.*))
 *(.init_array*)
 .init_array    0x08029044        0x4 e:/elektronik/toolchain/yagarto/bin/../lib/gcc/arm-none-eabi/4.6.2/thumb/v7m/crtbegin.o
 .init_array    0x08029048        0x4 ./main.o
                0x0802904c                PROVIDE (__init_array_end, .)

.fini_array     0x0802904c        0x4
                0x0802904c                PROVIDE (__fini_array_start, .)
 *(.fini_array*)
 .fini_array    0x0802904c        0x4 e:/elektronik/toolchain/yagarto/bin/../lib/gcc/arm-none-eabi/4.6.2/thumb/v7m/crtbegin.o
 *(SORT(.fini_array.*))
                0x08029050                PROVIDE (__fini_array_end, .)
                0x08029050                _sidata = .

.data           0x20000000      0x94c load address 0x08029050
                0x20000000                . = ALIGN (0x4)
                0x20000000                _sdata = .
 *(.data)
 .data          0x20000000        0x0 e:/elektronik/toolchain/yagarto/bin/../lib/gcc/arm-none-eabi/4.6.2/thumb/v7m/crti.o
 .data          0x20000000        0x4 e:/elektronik/toolchain/yagarto/bin/../lib/gcc/arm-none-eabi/4.6.2/thumb/v7m/crtbegin.o
                0x20000000                __dso_handle
 .data          0x20000004        0x0 e:/elektronik/toolchain/yagarto/bin/../lib/gcc/arm-none-eabi/4.6.2/../../../../arm-none-eabi/lib/thumb/v7m/crt0.o
 .data          0x20000004        0x0 ./STM32F4xx_StdPeriph_Driver/src/misc.o
 .data          0x20000004        0x0 ./STM32F4xx_StdPeriph_Driver/src/stm32f4xx_adc.o
 .data          0x20000004        0x0 ./STM32F4xx_StdPeriph_Driver/src/stm32f4xx_can.o
 .data          0x20000004        0x0 ./STM32F4xx_StdPeriph_Driver/src/stm32f4xx_crc.o
 .data          0x20000004        0x0 ./STM32F4xx_StdPeriph_Driver/src/stm32f4xx_cryp.o
 .data          0x20000004        0x0 ./STM32F4xx_StdPeriph_Driver/src/stm32f4xx_cryp_aes.o
 .data          0x20000004        0x0 ./STM32F4xx_StdPeriph_Driver/src/stm32f4xx_cryp_des.o
 .data          0x20000004        0x0 ./STM32F4xx_StdPeriph_Driver/src/stm32f4xx_cryp_tdes.o
 .data          0x20000004        0x0 ./STM32F4xx_StdPeriph_Driver/src/stm32f4xx_dac.o
 .data          0x20000004        0x0 ./STM32F4xx_StdPeriph_Driver/src/stm32f4xx_dbgmcu.o
 .data          0x20000004        0x0 ./STM32F4xx_StdPeriph_Driver/src/stm32f4xx_dcmi.o
 .data          0x20000004        0x0 ./STM32F4xx_StdPeriph_Driver/src/stm32f4xx_dma.o
 .data          0x20000004        0x0 ./STM32F4xx_StdPeriph_Driver/src/stm32f4xx_exti.o
 .data          0x20000004        0x0 ./STM32F4xx_StdPeriph_Driver/src/stm32f4xx_flash.o
 .data          0x20000004        0x0 ./STM32F4xx_StdPeriph_Driver/src/stm32f4xx_fsmc.o
 .data          0x20000004        0x0 ./STM32F4xx_StdPeriph_Driver/src/stm32f4xx_gpio.o
 .data          0x20000004        0x0 ./STM32F4xx_StdPeriph_Driver/src/stm32f4xx_hash.o
 .data          0x20000004        0x0 ./STM32F4xx_StdPeriph_Driver/src/stm32f4xx_hash_md5.o
 .data          0x20000004        0x0 ./STM32F4xx_StdPeriph_Driver/src/stm32f4xx_hash_sha1.o
 .data          0x20000004        0x0 ./STM32F4xx_StdPeriph_Driver/src/stm32f4xx_i2c.o
 .data          0x20000004        0x0 ./STM32F4xx_StdPeriph_Driver/src/stm32f4xx_iwdg.o
 .data          0x20000004        0x0 ./STM32F4xx_StdPeriph_Driver/src/stm32f4xx_pwr.o
 .data          0x20000004        0x0 ./STM32F4xx_StdPeriph_Driver/src/stm32f4xx_rcc.o
 .data          0x20000004        0x0 ./STM32F4xx_StdPeriph_Driver/src/stm32f4xx_rng.o
 .data          0x20000004        0x0 ./STM32F4xx_StdPeriph_Driver/src/stm32f4xx_rtc.o
 .data          0x20000004        0x0 ./STM32F4xx_StdPeriph_Driver/src/stm32f4xx_sdio.o
 .data          0x20000004        0x0 ./STM32F4xx_StdPeriph_Driver/src/stm32f4xx_spi.o
 .data          0x20000004        0x0 ./STM32F4xx_StdPeriph_Driver/src/stm32f4xx_syscfg.o
 .data          0x20000004        0x0 ./STM32F4xx_StdPeriph_Driver/src/stm32f4xx_tim.o
 .data          0x20000004        0x0 ./STM32F4xx_StdPeriph_Driver/src/stm32f4xx_usart.o
 .data          0x20000004        0x0 ./STM32F4xx_StdPeriph_Driver/src/stm32f4xx_wwdg.o
 .data          0x20000004        0x0 ./STM32F4-Discovery/stm32f4_discovery.o
 .data          0x20000004        0x0 ./STM32F4-Discovery/stm32f4_discovery_audio_codec.o
 .data          0x20000004        0x0 ./STM32F4-Discovery/stm32f4_discovery_lis302dl.o
 .data          0x20000004        0x0 ./Menue/CMenue.o
 .data          0x20000004        0x0 ./GraphicLCD/CGraphicLCD.o
 .data          0x20000004        0x0 ./GraphicLCD/CT6963CDriver.o
 .data          0x20000004        0x0 ./GraphicLCD/CT6963GPIOInterface.o
 .data          0x20000004        0x0 ./GraphicLCD/SansSerif12.o
 .data          0x20000004        0x0 ./FreeRTOS_EC/Source/AManagedTask.o
 .data          0x20000004        0x0 ./FreeRTOS_EC/Source/ASyncObject.o
 .data          0x20000004        0x0 ./FreeRTOS_EC/Source/ATimer.o
 .data          0x20000004        0x0 ./FreeRTOS_EC/Source/CBinarySemaphore.o
 .data          0x20000004        0x0 ./FreeRTOS_EC/Source/CCountingSemaphore.o
 .data          0x20000004        0x0 ./FreeRTOS_EC/Source/CFreeRTOS.o
 .data          0x20000004        0x0 ./FreeRTOS_EC/Source/CMessageTask.o
 .data          0x20000004        0x0 ./FreeRTOS_EC/Source/CMutex.o
 .data          0x20000004        0x0 ./FreeRTOS_EC/Source/CQueue.o
 .data          0x20000004        0x0 ./FreeRTOS_EC/Source/CRecursiveMutex.o
 .data          0x20000004        0x0 ./FreeRTOS_EC/Source/CTask.o
 .data          0x20000004        0x0 ./FreeRTOS/Source/portable/GCC/ARM_CM4F/port.o
 .data          0x20000004        0x0 ./FreeRTOS/Source/croutine.o
 .data          0x20000004        0x0 ./FreeRTOS/Source/list.o
 .data          0x20000004        0x0 ./FreeRTOS/Source/queue.o
 .data          0x20000004        0x0 ./FreeRTOS/Source/tasks.o
 .data          0x20000004        0x0 ./FreeRTOS/Source/timers.o
 .data          0x20000004        0x0 ./CLedHeartBeatSTM32F4Disc.o
 .data          0x20000004        0x0 ./main.o
 .data          0x20000004        0x0 ./startup_stm32f4xx.o
 .data          0x20000004        0x0 ./stm32f4xx_it.o
 .data          0x20000004        0x0 ./syscalls.o
 .data          0x20000004        0x0 ./system_stm32f4xx.o
 .data          0x20000004        0x0 ./ustime.o
 .data          0x20000004        0x0 e:/elektronik/toolchain/yagarto/bin/../lib/gcc/arm-none-eabi/4.6.2/../../../../arm-none-eabi/lib/thumb/v7m\libstdc++.a(atexit_arm.o)
 .data          0x20000004        0x0 e:/elektronik/toolchain/yagarto/bin/../lib/gcc/arm-none-eabi/4.6.2/../../../../arm-none-eabi/lib/thumb/v7m\libstdc++.a(del_op.o)
 .data          0x20000004        0x0 e:/elektronik/toolchain/yagarto/bin/../lib/gcc/arm-none-eabi/4.6.2/../../../../arm-none-eabi/lib/thumb/v7m\libstdc++.a(pure.o)
 .data          0x20000004        0x0 e:/elektronik/toolchain/yagarto/bin/../lib/gcc/arm-none-eabi/4.6.2/../../../../arm-none-eabi/lib/thumb/v7m\libstdc++.a(eh_terminate.o)
 .data          0x20000004        0x0 e:/elektronik/toolchain/yagarto/bin/../lib/gcc/arm-none-eabi/4.6.2/../../../../arm-none-eabi/lib/thumb/v7m\libstdc++.a(eh_term_handler.o)
 .data          0x20000004        0x0 e:/elektronik/toolchain/yagarto/bin/../lib/gcc/arm-none-eabi/4.6.2/../../../../arm-none-eabi/lib/thumb/v7m\libstdc++.a(eh_unex_handler.o)
 .data          0x20000004        0x0 e:/elektronik/toolchain/yagarto/bin/../lib/gcc/arm-none-eabi/4.6.2/../../../../arm-none-eabi/lib/thumb/v7m\libstdc++.a(vterminate.o)
 .data          0x20000004        0x0 e:/elektronik/toolchain/yagarto/bin/../lib/gcc/arm-none-eabi/4.6.2/../../../../arm-none-eabi/lib/thumb/v7m\libstdc++.a(cp-demangle.o)
 .data          0x20000004        0x0 e:/elektronik/toolchain/yagarto/bin/../lib/gcc/arm-none-eabi/4.6.2/../../../../arm-none-eabi/lib/thumb/v7m\libstdc++.a(eh_arm.o)
 .data          0x20000004        0x0 e:/elektronik/toolchain/yagarto/bin/../lib/gcc/arm-none-eabi/4.6.2/../../../../arm-none-eabi/lib/thumb/v7m\libstdc++.a(eh_aux_runtime.o)
 .data          0x20000004        0x0 e:/elektronik/toolchain/yagarto/bin/../lib/gcc/arm-none-eabi/4.6.2/../../../../arm-none-eabi/lib/thumb/v7m\libstdc++.a(eh_call.o)
 .data          0x20000004        0x0 e:/elektronik/toolchain/yagarto/bin/../lib/gcc/arm-none-eabi/4.6.2/../../../../arm-none-eabi/lib/thumb/v7m\libstdc++.a(eh_catch.o)
 .data          0x20000004        0x0 e:/elektronik/toolchain/yagarto/bin/../lib/gcc/arm-none-eabi/4.6.2/../../../../arm-none-eabi/lib/thumb/v7m\libstdc++.a(eh_exception.o)
 .data          0x20000004        0x0 e:/elektronik/toolchain/yagarto/bin/../lib/gcc/arm-none-eabi/4.6.2/../../../../arm-none-eabi/lib/thumb/v7m\libstdc++.a(eh_globals.o)
 .data          0x20000004        0x0 e:/elektronik/toolchain/yagarto/bin/../lib/gcc/arm-none-eabi/4.6.2/../../../../arm-none-eabi/lib/thumb/v7m\libstdc++.a(eh_personality.o)
 .data          0x20000004        0x0 e:/elektronik/toolchain/yagarto/bin/../lib/gcc/arm-none-eabi/4.6.2/../../../../arm-none-eabi/lib/thumb/v7m\libstdc++.a(eh_throw.o)
 .data          0x20000004        0x0 e:/elektronik/toolchain/yagarto/bin/../lib/gcc/arm-none-eabi/4.6.2/../../../../arm-none-eabi/lib/thumb/v7m\libstdc++.a(eh_type.o)
 .data          0x20000004        0x0 e:/elektronik/toolchain/yagarto/bin/../lib/gcc/arm-none-eabi/4.6.2/../../../../arm-none-eabi/lib/thumb/v7m\libstdc++.a(fundamental_type_info.o)
 .data          0x20000004        0x0 e:/elektronik/toolchain/yagarto/bin/../lib/gcc/arm-none-eabi/4.6.2/../../../../arm-none-eabi/lib/thumb/v7m\libstdc++.a(pointer_type_info.o)
 .data          0x20000004        0x0 e:/elektronik/toolchain/yagarto/bin/../lib/gcc/arm-none-eabi/4.6.2/../../../../arm-none-eabi/lib/thumb/v7m\libstdc++.a(si_class_type_info.o)
 .data          0x20000004        0x0 e:/elektronik/toolchain/yagarto/bin/../lib/gcc/arm-none-eabi/4.6.2/../../../../arm-none-eabi/lib/thumb/v7m\libstdc++.a(tinfo.o)
 .data          0x20000004        0x0 e:/elektronik/toolchain/yagarto/bin/../lib/gcc/arm-none-eabi/4.6.2/../../../../arm-none-eabi/lib/thumb/v7m\libstdc++.a(bad_cast.o)
 .data          0x20000004        0x0 e:/elektronik/toolchain/yagarto/bin/../lib/gcc/arm-none-eabi/4.6.2/../../../../arm-none-eabi/lib/thumb/v7m\libstdc++.a(bad_typeid.o)
 .data          0x20000004        0x0 e:/elektronik/toolchain/yagarto/bin/../lib/gcc/arm-none-eabi/4.6.2/../../../../arm-none-eabi/lib/thumb/v7m\libstdc++.a(class_type_info.o)
 .data          0x20000004        0x0 e:/elektronik/toolchain/yagarto/bin/../lib/gcc/arm-none-eabi/4.6.2/../../../../arm-none-eabi/lib/thumb/v7m\libstdc++.a(eh_alloc.o)
 .data          0x20000004        0x0 e:/elektronik/toolchain/yagarto/bin/../lib/gcc/arm-none-eabi/4.6.2/../../../../arm-none-eabi/lib/thumb/v7m\libstdc++.a(pbase_type_info.o)
 .data          0x20000004        0x0 e:/elektronik/toolchain/yagarto/bin/../lib/gcc/arm-none-eabi/4.6.2/thumb/v7m\libgcc.a(unwind-arm.o)
 .data          0x20000004        0x0 e:/elektronik/toolchain/yagarto/bin/../lib/gcc/arm-none-eabi/4.6.2/thumb/v7m\libgcc.a(libunwind.o)
 .data          0x20000004        0x0 e:/elektronik/toolchain/yagarto/bin/../lib/gcc/arm-none-eabi/4.6.2/thumb/v7m\libgcc.a(pr-support.o)
 .data          0x20000004        0x0 e:/elektronik/toolchain/yagarto/bin/../lib/gcc/arm-none-eabi/4.6.2/../../../../arm-none-eabi/lib/thumb/v7m\libg.a(lib_a-abort.o)
 .data          0x20000004        0x0 e:/elektronik/toolchain/yagarto/bin/../lib/gcc/arm-none-eabi/4.6.2/../../../../arm-none-eabi/lib/thumb/v7m\libg.a(lib_a-assert.o)
 .data          0x20000004        0x0 e:/elektronik/toolchain/yagarto/bin/../lib/gcc/arm-none-eabi/4.6.2/../../../../arm-none-eabi/lib/thumb/v7m\libg.a(lib_a-atexit.o)
 .data          0x20000004        0x0 e:/elektronik/toolchain/yagarto/bin/../lib/gcc/arm-none-eabi/4.6.2/../../../../arm-none-eabi/lib/thumb/v7m\libg.a(lib_a-cxa_atexit.o)
 .data          0x20000004        0x0 e:/elektronik/toolchain/yagarto/bin/../lib/gcc/arm-none-eabi/4.6.2/../../../../arm-none-eabi/lib/thumb/v7m\libg.a(lib_a-exit.o)
 .data          0x20000004        0x0 e:/elektronik/toolchain/yagarto/bin/../lib/gcc/arm-none-eabi/4.6.2/../../../../arm-none-eabi/lib/thumb/v7m\libg.a(lib_a-fini.o)
 .data          0x20000004        0x0 e:/elektronik/toolchain/yagarto/bin/../lib/gcc/arm-none-eabi/4.6.2/../../../../arm-none-eabi/lib/thumb/v7m\libg.a(lib_a-fiprintf.o)
 .data          0x20000004        0x0 e:/elektronik/toolchain/yagarto/bin/../lib/gcc/arm-none-eabi/4.6.2/../../../../arm-none-eabi/lib/thumb/v7m\libg.a(lib_a-fputc.o)
 .data          0x20000004        0x0 e:/elektronik/toolchain/yagarto/bin/../lib/gcc/arm-none-eabi/4.6.2/../../../../arm-none-eabi/lib/thumb/v7m\libg.a(lib_a-fputs.o)
 .data          0x20000004        0x0 e:/elektronik/toolchain/yagarto/bin/../lib/gcc/arm-none-eabi/4.6.2/../../../../arm-none-eabi/lib/thumb/v7m\libg.a(lib_a-fvwrite.o)
 .data          0x20000004        0x0 e:/elektronik/toolchain/yagarto/bin/../lib/gcc/arm-none-eabi/4.6.2/../../../../arm-none-eabi/lib/thumb/v7m\libg.a(lib_a-fwrite.o)
 *fill*         0x20000004        0x4 00
 .data          0x20000008      0x430 e:/elektronik/toolchain/yagarto/bin/../lib/gcc/arm-none-eabi/4.6.2/../../../../arm-none-eabi/lib/thumb/v7m\libg.a(lib_a-impure.o)
                0x20000008                _impure_ptr
 .data          0x20000438        0x0 e:/elektronik/toolchain/yagarto/bin/../lib/gcc/arm-none-eabi/4.6.2/../../../../arm-none-eabi/lib/thumb/v7m\libg.a(lib_a-init.o)
 .data          0x20000438        0x0 e:/elektronik/toolchain/yagarto/bin/../lib/gcc/arm-none-eabi/4.6.2/../../../../arm-none-eabi/lib/thumb/v7m\libg.a(lib_a-malloc.o)
 .data          0x20000438      0x410 e:/elektronik/toolchain/yagarto/bin/../lib/gcc/arm-none-eabi/4.6.2/../../../../arm-none-eabi/lib/thumb/v7m\libg.a(lib_a-mallocr.o)
                0x20000438                __malloc_av_
                0x20000840                __malloc_sbrk_base
                0x20000844                __malloc_trim_threshold
 .data          0x20000848        0x0 e:/elektronik/toolchain/yagarto/bin/../lib/gcc/arm-none-eabi/4.6.2/../../../../arm-none-eabi/lib/thumb/v7m\libg.a(lib_a-memchr.o)
 .data          0x20000848        0x0 e:/elektronik/toolchain/yagarto/bin/../lib/gcc/arm-none-eabi/4.6.2/../../../../arm-none-eabi/lib/thumb/v7m\libg.a(lib_a-memcmp.o)
 .data          0x20000848        0x0 e:/elektronik/toolchain/yagarto/bin/../lib/gcc/arm-none-eabi/4.6.2/../../../../arm-none-eabi/lib/thumb/v7m\libg.a(lib_a-memcpy.o)
 .data          0x20000848        0x0 e:/elektronik/toolchain/yagarto/bin/../lib/gcc/arm-none-eabi/4.6.2/../../../../arm-none-eabi/lib/thumb/v7m\libg.a(lib_a-memmove.o)
 .data          0x20000848        0x0 e:/elektronik/toolchain/yagarto/bin/../lib/gcc/arm-none-eabi/4.6.2/../../../../arm-none-eabi/lib/thumb/v7m\libg.a(lib_a-memset.o)
 .data          0x20000848        0x0 e:/elektronik/toolchain/yagarto/bin/../lib/gcc/arm-none-eabi/4.6.2/../../../../arm-none-eabi/lib/thumb/v7m\libg.a(lib_a-putc.o)
 .data          0x20000848        0x0 e:/elektronik/toolchain/yagarto/bin/../lib/gcc/arm-none-eabi/4.6.2/../../../../arm-none-eabi/lib/thumb/v7m\libg.a(lib_a-realloc.o)
 .data          0x20000848        0x0 e:/elektronik/toolchain/yagarto/bin/../lib/gcc/arm-none-eabi/4.6.2/../../../../arm-none-eabi/lib/thumb/v7m\libg.a(lib_a-reallocr.o)
 .data          0x20000848        0x0 e:/elektronik/toolchain/yagarto/bin/../lib/gcc/arm-none-eabi/4.6.2/../../../../arm-none-eabi/lib/thumb/v7m\libg.a(lib_a-signal.o)
 .data          0x20000848        0x0 e:/elektronik/toolchain/yagarto/bin/../lib/gcc/arm-none-eabi/4.6.2/../../../../arm-none-eabi/lib/thumb/v7m\libg.a(lib_a-sprintf.o)
 .data          0x20000848        0x0 e:/elektronik/toolchain/yagarto/bin/../lib/gcc/arm-none-eabi/4.6.2/../../../../arm-none-eabi/lib/thumb/v7m\libg.a(lib_a-strcat.o)
 .data          0x20000848        0x0 e:/elektronik/toolchain/yagarto/bin/../lib/gcc/arm-none-eabi/4.6.2/../../../../arm-none-eabi/lib/thumb/v7m\libg.a(lib_a-strcmp.o)
 .data          0x20000848        0x0 e:/elektronik/toolchain/yagarto/bin/../lib/gcc/arm-none-eabi/4.6.2/../../../../arm-none-eabi/lib/thumb/v7m\libg.a(lib_a-strcpy.o)
 .data          0x20000848        0x0 e:/elektronik/toolchain/yagarto/bin/../lib/gcc/arm-none-eabi/4.6.2/../../../../arm-none-eabi/lib/thumb/v7m\libg.a(lib_a-strlen.o)
 .data          0x20000848        0x0 e:/elektronik/toolchain/yagarto/bin/../lib/gcc/arm-none-eabi/4.6.2/../../../../arm-none-eabi/lib/thumb/v7m\libg.a(lib_a-strncmp.o)
 .data          0x20000848        0x0 e:/elektronik/toolchain/yagarto/bin/../lib/gcc/arm-none-eabi/4.6.2/../../../../arm-none-eabi/lib/thumb/v7m\libg.a(lib_a-strncpy.o)
 .data          0x20000848        0x0 e:/elektronik/toolchain/yagarto/bin/../lib/gcc/arm-none-eabi/4.6.2/../../../../arm-none-eabi/lib/thumb/v7m\libg.a(lib_a-svfprintf.o)
 .data          0x20000848        0x0 e:/elektronik/toolchain/yagarto/bin/../lib/gcc/arm-none-eabi/4.6.2/../../../../arm-none-eabi/lib/thumb/v7m\libg.a(lib_a-syswrite.o)
 .data          0x20000848        0x0 e:/elektronik/toolchain/yagarto/bin/../lib/gcc/arm-none-eabi/4.6.2/../../../../arm-none-eabi/lib/thumb/v7m\libg.a(lib_a-vfiprintf.o)
 .data          0x20000848        0x0 e:/elektronik/toolchain/yagarto/bin/../lib/gcc/arm-none-eabi/4.6.2/../../../../arm-none-eabi/lib/thumb/v7m\libg.a(lib_a-wbuf.o)
 .data          0x20000848        0x0 e:/elektronik/toolchain/yagarto/bin/../lib/gcc/arm-none-eabi/4.6.2/../../../../arm-none-eabi/lib/thumb/v7m\libg.a(lib_a-wsetup.o)
 .data          0x20000848        0x0 e:/elektronik/toolchain/yagarto/bin/../lib/gcc/arm-none-eabi/4.6.2/../../../../arm-none-eabi/lib/thumb/v7m\libg.a(lib_a-__atexit.o)
 .data          0x20000848        0x0 e:/elektronik/toolchain/yagarto/bin/../lib/gcc/arm-none-eabi/4.6.2/../../../../arm-none-eabi/lib/thumb/v7m\libg.a(lib_a-__call_atexit.o)
 .data          0x20000848        0x0 e:/elektronik/toolchain/yagarto/bin/../lib/gcc/arm-none-eabi/4.6.2/../../../../arm-none-eabi/lib/thumb/v7m\libg.a(lib_a-dtoa.o)
 .data          0x20000848        0x0 e:/elektronik/toolchain/yagarto/bin/../lib/gcc/arm-none-eabi/4.6.2/../../../../arm-none-eabi/lib/thumb/v7m\libg.a(lib_a-fflush.o)
 .data          0x20000848        0x0 e:/elektronik/toolchain/yagarto/bin/../lib/gcc/arm-none-eabi/4.6.2/../../../../arm-none-eabi/lib/thumb/v7m\libg.a(lib_a-findfp.o)
 .data          0x20000848        0x0 e:/elektronik/toolchain/yagarto/bin/../lib/gcc/arm-none-eabi/4.6.2/../../../../arm-none-eabi/lib/thumb/v7m\libg.a(lib_a-fputwc.o)
 .data          0x20000848        0x0 e:/elektronik/toolchain/yagarto/bin/../lib/gcc/arm-none-eabi/4.6.2/../../../../arm-none-eabi/lib/thumb/v7m\libg.a(lib_a-freer.o)
 .data          0x20000848        0x0 e:/elektronik/toolchain/yagarto/bin/../lib/gcc/arm-none-eabi/4.6.2/../../../../arm-none-eabi/lib/thumb/v7m\libg.a(lib_a-fwalk.o)
 .data          0x20000848       0x7c e:/elektronik/toolchain/yagarto/bin/../lib/gcc/arm-none-eabi/4.6.2/../../../../arm-none-eabi/lib/thumb/v7m\libg.a(lib_a-locale.o)
                0x20000868                __mb_cur_max
 .data          0x200008c4        0x0 e:/elektronik/toolchain/yagarto/bin/../lib/gcc/arm-none-eabi/4.6.2/../../../../arm-none-eabi/lib/thumb/v7m\libg.a(lib_a-makebuf.o)
 .data          0x200008c4        0x0 e:/elektronik/toolchain/yagarto/bin/../lib/gcc/arm-none-eabi/4.6.2/../../../../arm-none-eabi/lib/thumb/v7m\libg.a(lib_a-mprec.o)
 .data          0x200008c4        0x0 e:/elektronik/toolchain/yagarto/bin/../lib/gcc/arm-none-eabi/4.6.2/../../../../arm-none-eabi/lib/thumb/v7m\libg.a(lib_a-s_fpclassify.o)
 .data          0x200008c4        0x0 e:/elektronik/toolchain/yagarto/bin/../lib/gcc/arm-none-eabi/4.6.2/../../../../arm-none-eabi/lib/thumb/v7m\libg.a(lib_a-stdio.o)
 .data          0x200008c4        0x0 e:/elektronik/toolchain/yagarto/bin/../lib/gcc/arm-none-eabi/4.6.2/../../../../arm-none-eabi/lib/thumb/v7m\libg.a(lib_a-svfiprintf.o)
 .data          0x200008c4        0x0 e:/elektronik/toolchain/yagarto/bin/../lib/gcc/arm-none-eabi/4.6.2/../../../../arm-none-eabi/lib/thumb/v7m\libg.a(lib_a-wcrtomb.o)
 .data          0x200008c4        0x4 e:/elektronik/toolchain/yagarto/bin/../lib/gcc/arm-none-eabi/4.6.2/../../../../arm-none-eabi/lib/thumb/v7m\libg.a(lib_a-wctomb_r.o)
                0x200008c4                __wctomb
 .data          0x200008c8        0x0 e:/elektronik/toolchain/yagarto/bin/../lib/gcc/arm-none-eabi/4.6.2/../../../../arm-none-eabi/lib/thumb/v7m\libg.a(lib_a-callocr.o)
 .data          0x200008c8        0x0 e:/elektronik/toolchain/yagarto/bin/../lib/gcc/arm-none-eabi/4.6.2/../../../../arm-none-eabi/lib/thumb/v7m\libg.a(lib_a-fclose.o)
 .data          0x200008c8        0x0 e:/elektronik/toolchain/yagarto/bin/../lib/gcc/arm-none-eabi/4.6.2/thumb/v7m\libgcc.a(_udivsi3.o)
 .data          0x200008c8        0x0 e:/elektronik/toolchain/yagarto/bin/../lib/gcc/arm-none-eabi/4.6.2/thumb/v7m\libgcc.a(_dvmd_tls.o)
 .data          0x200008c8        0x0 e:/elektronik/toolchain/yagarto/bin/../lib/gcc/arm-none-eabi/4.6.2/thumb/v7m\libgcc.a(_arm_addsubdf3.o)
 .data          0x200008c8        0x0 e:/elektronik/toolchain/yagarto/bin/../lib/gcc/arm-none-eabi/4.6.2/thumb/v7m\libgcc.a(_arm_muldivdf3.o)
 .data          0x200008c8        0x0 e:/elektronik/toolchain/yagarto/bin/../lib/gcc/arm-none-eabi/4.6.2/thumb/v7m\libgcc.a(_arm_cmpdf2.o)
 .data          0x200008c8        0x0 e:/elektronik/toolchain/yagarto/bin/../lib/gcc/arm-none-eabi/4.6.2/thumb/v7m\libgcc.a(_arm_fixdfsi.o)
 .data          0x200008c8        0x0 e:/elektronik/toolchain/yagarto/bin/../lib/gcc/arm-none-eabi/4.6.2/thumb/v7m/crtend.o
 .data          0x200008c8        0x0 e:/elektronik/toolchain/yagarto/bin/../lib/gcc/arm-none-eabi/4.6.2/thumb/v7m/crtn.o
 *(.data*)
 .data.APBAHBPrescTable
                0x200008c8       0x10 ./STM32F4xx_StdPeriph_Driver/src/stm32f4xx_rcc.o
 .data.GPIO_PORT
                0x200008d8       0x10 ./STM32F4-Discovery/stm32f4_discovery.o
                0x200008d8                GPIO_PORT
 .data.BUTTON_PORT
                0x200008e8        0x4 ./STM32F4-Discovery/stm32f4_discovery.o
                0x200008e8                BUTTON_PORT
 .data.AudioTotalSize
                0x200008ec        0x4 ./STM32F4-Discovery/stm32f4_discovery_audio_codec.o
                0x200008ec                AudioTotalSize
 .data.AudioRemSize
                0x200008f0        0x4 ./STM32F4-Discovery/stm32f4_discovery_audio_codec.o
                0x200008f0                AudioRemSize
 .data.CODECTimeout
                0x200008f4        0x4 ./STM32F4-Discovery/stm32f4_discovery_audio_codec.o
                0x200008f4                CODECTimeout
 .data.CurrAudioInterface
                0x200008f8        0x4 ./STM32F4-Discovery/stm32f4_discovery_audio_codec.o
                0x200008f8                CurrAudioInterface
 .data.AUDIO_MAL_DMA_CLOCK
                0x200008fc        0x4 ./STM32F4-Discovery/stm32f4_discovery_audio_codec.o
                0x200008fc                AUDIO_MAL_DMA_CLOCK
 .data.AUDIO_MAL_DMA_STREAM
                0x20000900        0x4 ./STM32F4-Discovery/stm32f4_discovery_audio_codec.o
                0x20000900                AUDIO_MAL_DMA_STREAM
 .data.AUDIO_MAL_DMA_DREG
                0x20000904        0x4 ./STM32F4-Discovery/stm32f4_discovery_audio_codec.o
                0x20000904                AUDIO_MAL_DMA_DREG
 .data.AUDIO_MAL_DMA_IRQ
                0x20000908        0x4 ./STM32F4-Discovery/stm32f4_discovery_audio_codec.o
                0x20000908                AUDIO_MAL_DMA_IRQ
 .data.AUDIO_MAL_DMA_FLAG_TC
                0x2000090c        0x4 ./STM32F4-Discovery/stm32f4_discovery_audio_codec.o
                0x2000090c                AUDIO_MAL_DMA_FLAG_TC
 .data.AUDIO_MAL_DMA_FLAG_HT
                0x20000910        0x4 ./STM32F4-Discovery/stm32f4_discovery_audio_codec.o
                0x20000910                AUDIO_MAL_DMA_FLAG_HT
 .data.AUDIO_MAL_DMA_FLAG_FE
                0x20000914        0x4 ./STM32F4-Discovery/stm32f4_discovery_audio_codec.o
                0x20000914                AUDIO_MAL_DMA_FLAG_FE
 .data.AUDIO_MAL_DMA_FLAG_TE
                0x20000918        0x4 ./STM32F4-Discovery/stm32f4_discovery_audio_codec.o
                0x20000918                AUDIO_MAL_DMA_FLAG_TE
 .data.AUDIO_MAL_DMA_FLAG_DME
                0x2000091c        0x4 ./STM32F4-Discovery/stm32f4_discovery_audio_codec.o
                0x2000091c                AUDIO_MAL_DMA_FLAG_DME
 .data.LIS302DLTimeout
                0x20000920        0x4 ./STM32F4-Discovery/stm32f4_discovery_lis302dl.o
                0x20000920                LIS302DLTimeout
 .data.uxCriticalNesting
                0x20000924        0x4 ./FreeRTOS/Source/portable/GCC/ARM_CM4F/port.o
 .data.xNextTaskUnblockTime
                0x20000928        0x4 ./FreeRTOS/Source/tasks.o
 .data.__malloc_margin
                0x2000092c        0x4 ./syscalls.o
                0x2000092c                __malloc_margin
 .data.SystemCoreClock
                0x20000930        0x4 ./system_stm32f4xx.o
                0x20000930                SystemCoreClock
 .data.AHBPrescTable
                0x20000934       0x10 ./system_stm32f4xx.o
                0x20000934                AHBPrescTable
 .data._ZN10__cxxabiv119__terminate_handlerE
                0x20000944        0x4 e:/elektronik/toolchain/yagarto/bin/../lib/gcc/arm-none-eabi/4.6.2/../../../../arm-none-eabi/lib/thumb/v7m\libstdc++.a(eh_term_handler.o)
                0x20000944                __cxxabiv1::__terminate_handler
 .data._ZN10__cxxabiv120__unexpected_handlerE
                0x20000948        0x4 e:/elektronik/toolchain/yagarto/bin/../lib/gcc/arm-none-eabi/4.6.2/../../../../arm-none-eabi/lib/thumb/v7m\libstdc++.a(eh_unex_handler.o)
                0x20000948                __cxxabiv1::__unexpected_handler
                0x2000094c                . = ALIGN (0x4)
                0x2000094c                _edata = .

.jcr            0x2000094c        0x4 load address 0x0802999c
 .jcr           0x2000094c        0x0 e:/elektronik/toolchain/yagarto/bin/../lib/gcc/arm-none-eabi/4.6.2/thumb/v7m/crtbegin.o
 .jcr           0x2000094c        0x4 e:/elektronik/toolchain/yagarto/bin/../lib/gcc/arm-none-eabi/4.6.2/thumb/v7m/crtend.o
                0x20000950                . = ALIGN (0x4)

.bss            0x20000950      0xce4 load address 0x080299a0
                0x20000950                _sbss = .
                0x20000950                __bss_start__ = _sbss
 *(.bss)
 .bss           0x20000950        0x0 e:/elektronik/toolchain/yagarto/bin/../lib/gcc/arm-none-eabi/4.6.2/thumb/v7m/crti.o
 .bss           0x20000950       0x1c e:/elektronik/toolchain/yagarto/bin/../lib/gcc/arm-none-eabi/4.6.2/thumb/v7m/crtbegin.o
 .bss           0x2000096c        0x0 e:/elektronik/toolchain/yagarto/bin/../lib/gcc/arm-none-eabi/4.6.2/../../../../arm-none-eabi/lib/thumb/v7m/crt0.o
 .bss           0x2000096c        0x0 ./STM32F4xx_StdPeriph_Driver/src/misc.o
 .bss           0x2000096c        0x0 ./STM32F4xx_StdPeriph_Driver/src/stm32f4xx_adc.o
 .bss           0x2000096c        0x0 ./STM32F4xx_StdPeriph_Driver/src/stm32f4xx_can.o
 .bss           0x2000096c        0x0 ./STM32F4xx_StdPeriph_Driver/src/stm32f4xx_crc.o
 .bss           0x2000096c        0x0 ./STM32F4xx_StdPeriph_Driver/src/stm32f4xx_cryp.o
 .bss           0x2000096c        0x0 ./STM32F4xx_StdPeriph_Driver/src/stm32f4xx_cryp_aes.o
 .bss           0x2000096c        0x0 ./STM32F4xx_StdPeriph_Driver/src/stm32f4xx_cryp_des.o
 .bss           0x2000096c        0x0 ./STM32F4xx_StdPeriph_Driver/src/stm32f4xx_cryp_tdes.o
 .bss           0x2000096c        0x0 ./STM32F4xx_StdPeriph_Driver/src/stm32f4xx_dac.o
 .bss           0x2000096c        0x0 ./STM32F4xx_StdPeriph_Driver/src/stm32f4xx_dbgmcu.o
 .bss           0x2000096c        0x0 ./STM32F4xx_StdPeriph_Driver/src/stm32f4xx_dcmi.o
 .bss           0x2000096c        0x0 ./STM32F4xx_StdPeriph_Driver/src/stm32f4xx_dma.o
 .bss           0x2000096c        0x0 ./STM32F4xx_StdPeriph_Driver/src/stm32f4xx_exti.o
 .bss           0x2000096c        0x0 ./STM32F4xx_StdPeriph_Driver/src/stm32f4xx_flash.o
 .bss           0x2000096c        0x0 ./STM32F4xx_StdPeriph_Driver/src/stm32f4xx_fsmc.o
 .bss           0x2000096c        0x0 ./STM32F4xx_StdPeriph_Driver/src/stm32f4xx_gpio.o
 .bss           0x2000096c        0x0 ./STM32F4xx_StdPeriph_Driver/src/stm32f4xx_hash.o
 .bss           0x2000096c        0x0 ./STM32F4xx_StdPeriph_Driver/src/stm32f4xx_hash_md5.o
 .bss           0x2000096c        0x0 ./STM32F4xx_StdPeriph_Driver/src/stm32f4xx_hash_sha1.o
 .bss           0x2000096c        0x0 ./STM32F4xx_StdPeriph_Driver/src/stm32f4xx_i2c.o
 .bss           0x2000096c        0x0 ./STM32F4xx_StdPeriph_Driver/src/stm32f4xx_iwdg.o
 .bss           0x2000096c        0x0 ./STM32F4xx_StdPeriph_Driver/src/stm32f4xx_pwr.o
 .bss           0x2000096c        0x0 ./STM32F4xx_StdPeriph_Driver/src/stm32f4xx_rcc.o
 .bss           0x2000096c        0x0 ./STM32F4xx_StdPeriph_Driver/src/stm32f4xx_rng.o
 .bss           0x2000096c        0x0 ./STM32F4xx_StdPeriph_Driver/src/stm32f4xx_rtc.o
 .bss           0x2000096c        0x0 ./STM32F4xx_StdPeriph_Driver/src/stm32f4xx_sdio.o
 .bss           0x2000096c        0x0 ./STM32F4xx_StdPeriph_Driver/src/stm32f4xx_spi.o
 .bss           0x2000096c        0x0 ./STM32F4xx_StdPeriph_Driver/src/stm32f4xx_syscfg.o
 .bss           0x2000096c        0x0 ./STM32F4xx_StdPeriph_Driver/src/stm32f4xx_tim.o
 .bss           0x2000096c        0x0 ./STM32F4xx_StdPeriph_Driver/src/stm32f4xx_usart.o
 .bss           0x2000096c        0x0 ./STM32F4xx_StdPeriph_Driver/src/stm32f4xx_wwdg.o
 .bss           0x2000096c        0x0 ./STM32F4-Discovery/stm32f4_discovery.o
 .bss           0x2000096c        0x0 ./STM32F4-Discovery/stm32f4_discovery_audio_codec.o
 .bss           0x2000096c        0x0 ./STM32F4-Discovery/stm32f4_discovery_lis302dl.o
 .bss           0x2000096c        0x0 ./Menue/CMenue.o
 .bss           0x2000096c        0x0 ./GraphicLCD/CGraphicLCD.o
 .bss           0x2000096c        0x0 ./GraphicLCD/CT6963CDriver.o
 .bss           0x2000096c        0x0 ./GraphicLCD/CT6963GPIOInterface.o
 .bss           0x2000096c        0x0 ./GraphicLCD/SansSerif12.o
 .bss           0x2000096c        0x0 ./FreeRTOS_EC/Source/AManagedTask.o
 .bss           0x2000096c        0x0 ./FreeRTOS_EC/Source/ASyncObject.o
 .bss           0x2000096c        0x0 ./FreeRTOS_EC/Source/ATimer.o
 .bss           0x2000096c        0x0 ./FreeRTOS_EC/Source/CBinarySemaphore.o
 .bss           0x2000096c        0x0 ./FreeRTOS_EC/Source/CCountingSemaphore.o
 .bss           0x2000096c        0x0 ./FreeRTOS_EC/Source/CFreeRTOS.o
 .bss           0x2000096c        0x0 ./FreeRTOS_EC/Source/CMessageTask.o
 .bss           0x2000096c        0x0 ./FreeRTOS_EC/Source/CMutex.o
 .bss           0x2000096c        0x0 ./FreeRTOS_EC/Source/CQueue.o
 .bss           0x2000096c        0x0 ./FreeRTOS_EC/Source/CRecursiveMutex.o
 .bss           0x2000096c        0x0 ./FreeRTOS_EC/Source/CTask.o
 .bss           0x2000096c        0x0 ./FreeRTOS/Source/portable/GCC/ARM_CM4F/port.o
 .bss           0x2000096c        0x0 ./FreeRTOS/Source/croutine.o
 .bss           0x2000096c        0x0 ./FreeRTOS/Source/list.o
 .bss           0x2000096c        0x0 ./FreeRTOS/Source/queue.o
 .bss           0x2000096c        0x0 ./FreeRTOS/Source/tasks.o
 .bss           0x2000096c        0x0 ./FreeRTOS/Source/timers.o
 .bss           0x2000096c        0x0 ./CLedHeartBeatSTM32F4Disc.o
 .bss           0x2000096c        0x0 ./main.o
 .bss           0x2000096c        0x0 ./startup_stm32f4xx.o
 .bss           0x2000096c        0x0 ./stm32f4xx_it.o
 .bss           0x2000096c        0x0 ./syscalls.o
 .bss           0x2000096c        0x0 ./system_stm32f4xx.o
 .bss           0x2000096c        0x0 ./ustime.o
 .bss           0x2000096c        0x0 e:/elektronik/toolchain/yagarto/bin/../lib/gcc/arm-none-eabi/4.6.2/../../../../arm-none-eabi/lib/thumb/v7m\libstdc++.a(atexit_arm.o)
 .bss           0x2000096c        0x0 e:/elektronik/toolchain/yagarto/bin/../lib/gcc/arm-none-eabi/4.6.2/../../../../arm-none-eabi/lib/thumb/v7m\libstdc++.a(del_op.o)
 .bss           0x2000096c        0x0 e:/elektronik/toolchain/yagarto/bin/../lib/gcc/arm-none-eabi/4.6.2/../../../../arm-none-eabi/lib/thumb/v7m\libstdc++.a(pure.o)
 .bss           0x2000096c        0x0 e:/elektronik/toolchain/yagarto/bin/../lib/gcc/arm-none-eabi/4.6.2/../../../../arm-none-eabi/lib/thumb/v7m\libstdc++.a(eh_terminate.o)
 .bss           0x2000096c        0x0 e:/elektronik/toolchain/yagarto/bin/../lib/gcc/arm-none-eabi/4.6.2/../../../../arm-none-eabi/lib/thumb/v7m\libstdc++.a(eh_term_handler.o)
 .bss           0x2000096c        0x0 e:/elektronik/toolchain/yagarto/bin/../lib/gcc/arm-none-eabi/4.6.2/../../../../arm-none-eabi/lib/thumb/v7m\libstdc++.a(eh_unex_handler.o)
 .bss           0x2000096c        0x0 e:/elektronik/toolchain/yagarto/bin/../lib/gcc/arm-none-eabi/4.6.2/../../../../arm-none-eabi/lib/thumb/v7m\libstdc++.a(vterminate.o)
 .bss           0x2000096c        0x0 e:/elektronik/toolchain/yagarto/bin/../lib/gcc/arm-none-eabi/4.6.2/../../../../arm-none-eabi/lib/thumb/v7m\libstdc++.a(cp-demangle.o)
 .bss           0x2000096c        0x0 e:/elektronik/toolchain/yagarto/bin/../lib/gcc/arm-none-eabi/4.6.2/../../../../arm-none-eabi/lib/thumb/v7m\libstdc++.a(eh_arm.o)
 .bss           0x2000096c        0x0 e:/elektronik/toolchain/yagarto/bin/../lib/gcc/arm-none-eabi/4.6.2/../../../../arm-none-eabi/lib/thumb/v7m\libstdc++.a(eh_aux_runtime.o)
 .bss           0x2000096c        0x0 e:/elektronik/toolchain/yagarto/bin/../lib/gcc/arm-none-eabi/4.6.2/../../../../arm-none-eabi/lib/thumb/v7m\libstdc++.a(eh_call.o)
 .bss           0x2000096c        0x0 e:/elektronik/toolchain/yagarto/bin/../lib/gcc/arm-none-eabi/4.6.2/../../../../arm-none-eabi/lib/thumb/v7m\libstdc++.a(eh_catch.o)
 .bss           0x2000096c        0x0 e:/elektronik/toolchain/yagarto/bin/../lib/gcc/arm-none-eabi/4.6.2/../../../../arm-none-eabi/lib/thumb/v7m\libstdc++.a(eh_exception.o)
 .bss           0x2000096c        0x0 e:/elektronik/toolchain/yagarto/bin/../lib/gcc/arm-none-eabi/4.6.2/../../../../arm-none-eabi/lib/thumb/v7m\libstdc++.a(eh_globals.o)
 .bss           0x2000096c        0x0 e:/elektronik/toolchain/yagarto/bin/../lib/gcc/arm-none-eabi/4.6.2/../../../../arm-none-eabi/lib/thumb/v7m\libstdc++.a(eh_personality.o)
 .bss           0x2000096c        0x0 e:/elektronik/toolchain/yagarto/bin/../lib/gcc/arm-none-eabi/4.6.2/../../../../arm-none-eabi/lib/thumb/v7m\libstdc++.a(eh_throw.o)
 .bss           0x2000096c        0x0 e:/elektronik/toolchain/yagarto/bin/../lib/gcc/arm-none-eabi/4.6.2/../../../../arm-none-eabi/lib/thumb/v7m\libstdc++.a(eh_type.o)
 .bss           0x2000096c        0x0 e:/elektronik/toolchain/yagarto/bin/../lib/gcc/arm-none-eabi/4.6.2/../../../../arm-none-eabi/lib/thumb/v7m\libstdc++.a(fundamental_type_info.o)
 .bss           0x2000096c        0x0 e:/elektronik/toolchain/yagarto/bin/../lib/gcc/arm-none-eabi/4.6.2/../../../../arm-none-eabi/lib/thumb/v7m\libstdc++.a(pointer_type_info.o)
 .bss           0x2000096c        0x0 e:/elektronik/toolchain/yagarto/bin/../lib/gcc/arm-none-eabi/4.6.2/../../../../arm-none-eabi/lib/thumb/v7m\libstdc++.a(si_class_type_info.o)
 .bss           0x2000096c        0x0 e:/elektronik/toolchain/yagarto/bin/../lib/gcc/arm-none-eabi/4.6.2/../../../../arm-none-eabi/lib/thumb/v7m\libstdc++.a(tinfo.o)
 .bss           0x2000096c        0x0 e:/elektronik/toolchain/yagarto/bin/../lib/gcc/arm-none-eabi/4.6.2/../../../../arm-none-eabi/lib/thumb/v7m\libstdc++.a(bad_cast.o)
 .bss           0x2000096c        0x0 e:/elektronik/toolchain/yagarto/bin/../lib/gcc/arm-none-eabi/4.6.2/../../../../arm-none-eabi/lib/thumb/v7m\libstdc++.a(bad_typeid.o)
 .bss           0x2000096c        0x0 e:/elektronik/toolchain/yagarto/bin/../lib/gcc/arm-none-eabi/4.6.2/../../../../arm-none-eabi/lib/thumb/v7m\libstdc++.a(class_type_info.o)
 .bss           0x2000096c        0x0 e:/elektronik/toolchain/yagarto/bin/../lib/gcc/arm-none-eabi/4.6.2/../../../../arm-none-eabi/lib/thumb/v7m\libstdc++.a(eh_alloc.o)
 .bss           0x2000096c        0x0 e:/elektronik/toolchain/yagarto/bin/../lib/gcc/arm-none-eabi/4.6.2/../../../../arm-none-eabi/lib/thumb/v7m\libstdc++.a(pbase_type_info.o)
 .bss           0x2000096c        0x0 e:/elektronik/toolchain/yagarto/bin/../lib/gcc/arm-none-eabi/4.6.2/thumb/v7m\libgcc.a(unwind-arm.o)
 .bss           0x2000096c        0x0 e:/elektronik/toolchain/yagarto/bin/../lib/gcc/arm-none-eabi/4.6.2/thumb/v7m\libgcc.a(libunwind.o)
 .bss           0x2000096c        0x0 e:/elektronik/toolchain/yagarto/bin/../lib/gcc/arm-none-eabi/4.6.2/thumb/v7m\libgcc.a(pr-support.o)
 .bss           0x2000096c        0x0 e:/elektronik/toolchain/yagarto/bin/../lib/gcc/arm-none-eabi/4.6.2/../../../../arm-none-eabi/lib/thumb/v7m\libg.a(lib_a-abort.o)
 .bss           0x2000096c        0x0 e:/elektronik/toolchain/yagarto/bin/../lib/gcc/arm-none-eabi/4.6.2/../../../../arm-none-eabi/lib/thumb/v7m\libg.a(lib_a-assert.o)
 .bss           0x2000096c        0x0 e:/elektronik/toolchain/yagarto/bin/../lib/gcc/arm-none-eabi/4.6.2/../../../../arm-none-eabi/lib/thumb/v7m\libg.a(lib_a-atexit.o)
 .bss           0x2000096c        0x0 e:/elektronik/toolchain/yagarto/bin/../lib/gcc/arm-none-eabi/4.6.2/../../../../arm-none-eabi/lib/thumb/v7m\libg.a(lib_a-cxa_atexit.o)
 .bss           0x2000096c        0x0 e:/elektronik/toolchain/yagarto/bin/../lib/gcc/arm-none-eabi/4.6.2/../../../../arm-none-eabi/lib/thumb/v7m\libg.a(lib_a-exit.o)
 .bss           0x2000096c        0x0 e:/elektronik/toolchain/yagarto/bin/../lib/gcc/arm-none-eabi/4.6.2/../../../../arm-none-eabi/lib/thumb/v7m\libg.a(lib_a-fini.o)
 .bss           0x2000096c        0x0 e:/elektronik/toolchain/yagarto/bin/../lib/gcc/arm-none-eabi/4.6.2/../../../../arm-none-eabi/lib/thumb/v7m\libg.a(lib_a-fiprintf.o)
 .bss           0x2000096c        0x0 e:/elektronik/toolchain/yagarto/bin/../lib/gcc/arm-none-eabi/4.6.2/../../../../arm-none-eabi/lib/thumb/v7m\libg.a(lib_a-fputc.o)
 .bss           0x2000096c        0x0 e:/elektronik/toolchain/yagarto/bin/../lib/gcc/arm-none-eabi/4.6.2/../../../../arm-none-eabi/lib/thumb/v7m\libg.a(lib_a-fputs.o)
 .bss           0x2000096c        0x0 e:/elektronik/toolchain/yagarto/bin/../lib/gcc/arm-none-eabi/4.6.2/../../../../arm-none-eabi/lib/thumb/v7m\libg.a(lib_a-fvwrite.o)
 .bss           0x2000096c        0x0 e:/elektronik/toolchain/yagarto/bin/../lib/gcc/arm-none-eabi/4.6.2/../../../../arm-none-eabi/lib/thumb/v7m\libg.a(lib_a-fwrite.o)
 .bss           0x2000096c        0x0 e:/elektronik/toolchain/yagarto/bin/../lib/gcc/arm-none-eabi/4.6.2/../../../../arm-none-eabi/lib/thumb/v7m\libg.a(lib_a-impure.o)
 .bss           0x2000096c        0x0 e:/elektronik/toolchain/yagarto/bin/../lib/gcc/arm-none-eabi/4.6.2/../../../../arm-none-eabi/lib/thumb/v7m\libg.a(lib_a-init.o)
 .bss           0x2000096c        0x0 e:/elektronik/toolchain/yagarto/bin/../lib/gcc/arm-none-eabi/4.6.2/../../../../arm-none-eabi/lib/thumb/v7m\libg.a(lib_a-malloc.o)
 .bss           0x2000096c       0x34 e:/elektronik/toolchain/yagarto/bin/../lib/gcc/arm-none-eabi/4.6.2/../../../../arm-none-eabi/lib/thumb/v7m\libg.a(lib_a-mallocr.o)
                0x2000096c                __malloc_top_pad
                0x20000970                __malloc_current_mallinfo
                0x20000998                __malloc_max_sbrked_mem
                0x2000099c                __malloc_max_total_mem
 .bss           0x200009a0        0x0 e:/elektronik/toolchain/yagarto/bin/../lib/gcc/arm-none-eabi/4.6.2/../../../../arm-none-eabi/lib/thumb/v7m\libg.a(lib_a-memchr.o)
 .bss           0x200009a0        0x0 e:/elektronik/toolchain/yagarto/bin/../lib/gcc/arm-none-eabi/4.6.2/../../../../arm-none-eabi/lib/thumb/v7m\libg.a(lib_a-memcmp.o)
 .bss           0x200009a0        0x0 e:/elektronik/toolchain/yagarto/bin/../lib/gcc/arm-none-eabi/4.6.2/../../../../arm-none-eabi/lib/thumb/v7m\libg.a(lib_a-memcpy.o)
 .bss           0x200009a0        0x0 e:/elektronik/toolchain/yagarto/bin/../lib/gcc/arm-none-eabi/4.6.2/../../../../arm-none-eabi/lib/thumb/v7m\libg.a(lib_a-memmove.o)
 .bss           0x200009a0        0x0 e:/elektronik/toolchain/yagarto/bin/../lib/gcc/arm-none-eabi/4.6.2/../../../../arm-none-eabi/lib/thumb/v7m\libg.a(lib_a-memset.o)
 .bss           0x200009a0        0x0 e:/elektronik/toolchain/yagarto/bin/../lib/gcc/arm-none-eabi/4.6.2/../../../../arm-none-eabi/lib/thumb/v7m\libg.a(lib_a-putc.o)
 .bss           0x200009a0        0x0 e:/elektronik/toolchain/yagarto/bin/../lib/gcc/arm-none-eabi/4.6.2/../../../../arm-none-eabi/lib/thumb/v7m\libg.a(lib_a-realloc.o)
 .bss           0x200009a0        0x0 e:/elektronik/toolchain/yagarto/bin/../lib/gcc/arm-none-eabi/4.6.2/../../../../arm-none-eabi/lib/thumb/v7m\libg.a(lib_a-reallocr.o)
 .bss           0x200009a0        0x0 e:/elektronik/toolchain/yagarto/bin/../lib/gcc/arm-none-eabi/4.6.2/../../../../arm-none-eabi/lib/thumb/v7m\libg.a(lib_a-signal.o)
 .bss           0x200009a0        0x0 e:/elektronik/toolchain/yagarto/bin/../lib/gcc/arm-none-eabi/4.6.2/../../../../arm-none-eabi/lib/thumb/v7m\libg.a(lib_a-sprintf.o)
 .bss           0x200009a0        0x0 e:/elektronik/toolchain/yagarto/bin/../lib/gcc/arm-none-eabi/4.6.2/../../../../arm-none-eabi/lib/thumb/v7m\libg.a(lib_a-strcat.o)
 .bss           0x200009a0        0x0 e:/elektronik/toolchain/yagarto/bin/../lib/gcc/arm-none-eabi/4.6.2/../../../../arm-none-eabi/lib/thumb/v7m\libg.a(lib_a-strcmp.o)
 .bss           0x200009a0        0x0 e:/elektronik/toolchain/yagarto/bin/../lib/gcc/arm-none-eabi/4.6.2/../../../../arm-none-eabi/lib/thumb/v7m\libg.a(lib_a-strcpy.o)
 .bss           0x200009a0        0x0 e:/elektronik/toolchain/yagarto/bin/../lib/gcc/arm-none-eabi/4.6.2/../../../../arm-none-eabi/lib/thumb/v7m\libg.a(lib_a-strlen.o)
 .bss           0x200009a0        0x0 e:/elektronik/toolchain/yagarto/bin/../lib/gcc/arm-none-eabi/4.6.2/../../../../arm-none-eabi/lib/thumb/v7m\libg.a(lib_a-strncmp.o)
 .bss           0x200009a0        0x0 e:/elektronik/toolchain/yagarto/bin/../lib/gcc/arm-none-eabi/4.6.2/../../../../arm-none-eabi/lib/thumb/v7m\libg.a(lib_a-strncpy.o)
 .bss           0x200009a0        0x0 e:/elektronik/toolchain/yagarto/bin/../lib/gcc/arm-none-eabi/4.6.2/../../../../arm-none-eabi/lib/thumb/v7m\libg.a(lib_a-svfprintf.o)
 .bss           0x200009a0        0x0 e:/elektronik/toolchain/yagarto/bin/../lib/gcc/arm-none-eabi/4.6.2/../../../../arm-none-eabi/lib/thumb/v7m\libg.a(lib_a-syswrite.o)
 .bss           0x200009a0        0x0 e:/elektronik/toolchain/yagarto/bin/../lib/gcc/arm-none-eabi/4.6.2/../../../../arm-none-eabi/lib/thumb/v7m\libg.a(lib_a-vfiprintf.o)
 .bss           0x200009a0        0x0 e:/elektronik/toolchain/yagarto/bin/../lib/gcc/arm-none-eabi/4.6.2/../../../../arm-none-eabi/lib/thumb/v7m\libg.a(lib_a-wbuf.o)
 .bss           0x200009a0        0x0 e:/elektronik/toolchain/yagarto/bin/../lib/gcc/arm-none-eabi/4.6.2/../../../../arm-none-eabi/lib/thumb/v7m\libg.a(lib_a-wsetup.o)
 .bss           0x200009a0        0x0 e:/elektronik/toolchain/yagarto/bin/../lib/gcc/arm-none-eabi/4.6.2/../../../../arm-none-eabi/lib/thumb/v7m\libg.a(lib_a-__atexit.o)
 .bss           0x200009a0        0x0 e:/elektronik/toolchain/yagarto/bin/../lib/gcc/arm-none-eabi/4.6.2/../../../../arm-none-eabi/lib/thumb/v7m\libg.a(lib_a-__call_atexit.o)
 .bss           0x200009a0        0x0 e:/elektronik/toolchain/yagarto/bin/../lib/gcc/arm-none-eabi/4.6.2/../../../../arm-none-eabi/lib/thumb/v7m\libg.a(lib_a-dtoa.o)
 .bss           0x200009a0        0x0 e:/elektronik/toolchain/yagarto/bin/../lib/gcc/arm-none-eabi/4.6.2/../../../../arm-none-eabi/lib/thumb/v7m\libg.a(lib_a-fflush.o)
 .bss           0x200009a0        0x0 e:/elektronik/toolchain/yagarto/bin/../lib/gcc/arm-none-eabi/4.6.2/../../../../arm-none-eabi/lib/thumb/v7m\libg.a(lib_a-findfp.o)
 .bss           0x200009a0        0x0 e:/elektronik/toolchain/yagarto/bin/../lib/gcc/arm-none-eabi/4.6.2/../../../../arm-none-eabi/lib/thumb/v7m\libg.a(lib_a-fputwc.o)
 .bss           0x200009a0        0x0 e:/elektronik/toolchain/yagarto/bin/../lib/gcc/arm-none-eabi/4.6.2/../../../../arm-none-eabi/lib/thumb/v7m\libg.a(lib_a-freer.o)
 .bss           0x200009a0        0x0 e:/elektronik/toolchain/yagarto/bin/../lib/gcc/arm-none-eabi/4.6.2/../../../../arm-none-eabi/lib/thumb/v7m\libg.a(lib_a-fwalk.o)
 .bss           0x200009a0        0xc e:/elektronik/toolchain/yagarto/bin/../lib/gcc/arm-none-eabi/4.6.2/../../../../arm-none-eabi/lib/thumb/v7m\libg.a(lib_a-locale.o)
                0x200009a0                _PathLocale
                0x200009a4                __mlocale_changed
                0x200009a8                __nlocale_changed
 .bss           0x200009ac        0x0 e:/elektronik/toolchain/yagarto/bin/../lib/gcc/arm-none-eabi/4.6.2/../../../../arm-none-eabi/lib/thumb/v7m\libg.a(lib_a-makebuf.o)
 .bss           0x200009ac        0x0 e:/elektronik/toolchain/yagarto/bin/../lib/gcc/arm-none-eabi/4.6.2/../../../../arm-none-eabi/lib/thumb/v7m\libg.a(lib_a-mprec.o)
 .bss           0x200009ac        0x0 e:/elektronik/toolchain/yagarto/bin/../lib/gcc/arm-none-eabi/4.6.2/../../../../arm-none-eabi/lib/thumb/v7m\libg.a(lib_a-s_fpclassify.o)
 .bss           0x200009ac        0x0 e:/elektronik/toolchain/yagarto/bin/../lib/gcc/arm-none-eabi/4.6.2/../../../../arm-none-eabi/lib/thumb/v7m\libg.a(lib_a-stdio.o)
 .bss           0x200009ac        0x0 e:/elektronik/toolchain/yagarto/bin/../lib/gcc/arm-none-eabi/4.6.2/../../../../arm-none-eabi/lib/thumb/v7m\libg.a(lib_a-svfiprintf.o)
 .bss           0x200009ac        0x0 e:/elektronik/toolchain/yagarto/bin/../lib/gcc/arm-none-eabi/4.6.2/../../../../arm-none-eabi/lib/thumb/v7m\libg.a(lib_a-wcrtomb.o)
 .bss           0x200009ac        0x0 e:/elektronik/toolchain/yagarto/bin/../lib/gcc/arm-none-eabi/4.6.2/../../../../arm-none-eabi/lib/thumb/v7m\libg.a(lib_a-wctomb_r.o)
 .bss           0x200009ac        0x0 e:/elektronik/toolchain/yagarto/bin/../lib/gcc/arm-none-eabi/4.6.2/../../../../arm-none-eabi/lib/thumb/v7m\libg.a(lib_a-callocr.o)
 .bss           0x200009ac        0x0 e:/elektronik/toolchain/yagarto/bin/../lib/gcc/arm-none-eabi/4.6.2/../../../../arm-none-eabi/lib/thumb/v7m\libg.a(lib_a-fclose.o)
 .bss           0x200009ac        0x0 e:/elektronik/toolchain/yagarto/bin/../lib/gcc/arm-none-eabi/4.6.2/thumb/v7m\libgcc.a(_udivsi3.o)
 .bss           0x200009ac        0x0 e:/elektronik/toolchain/yagarto/bin/../lib/gcc/arm-none-eabi/4.6.2/thumb/v7m\libgcc.a(_dvmd_tls.o)
 .bss           0x200009ac        0x0 e:/elektronik/toolchain/yagarto/bin/../lib/gcc/arm-none-eabi/4.6.2/thumb/v7m\libgcc.a(_arm_addsubdf3.o)
 .bss           0x200009ac        0x0 e:/elektronik/toolchain/yagarto/bin/../lib/gcc/arm-none-eabi/4.6.2/thumb/v7m\libgcc.a(_arm_muldivdf3.o)
 .bss           0x200009ac        0x0 e:/elektronik/toolchain/yagarto/bin/../lib/gcc/arm-none-eabi/4.6.2/thumb/v7m\libgcc.a(_arm_cmpdf2.o)
 .bss           0x200009ac        0x0 e:/elektronik/toolchain/yagarto/bin/../lib/gcc/arm-none-eabi/4.6.2/thumb/v7m\libgcc.a(_arm_fixdfsi.o)
 .bss           0x200009ac        0x0 e:/elektronik/toolchain/yagarto/bin/../lib/gcc/arm-none-eabi/4.6.2/thumb/v7m/crtend.o
 .bss           0x200009ac        0x0 e:/elektronik/toolchain/yagarto/bin/../lib/gcc/arm-none-eabi/4.6.2/thumb/v7m/crtn.o
 *(.bss*)
 .bss.OutputDev
                0x200009ac        0x1 ./STM32F4-Discovery/stm32f4_discovery_audio_codec.o
                0x200009ac                OutputDev
 *fill*         0x200009ad        0x3 00
 .bss.AUDIO_MAL_DMA_CHANNEL
                0x200009b0        0x4 ./STM32F4-Discovery/stm32f4_discovery_audio_codec.o
                0x200009b0                AUDIO_MAL_DMA_CHANNEL
 .bss._ZN12AManagedTask22s_pManagedTaskListHeadE
                0x200009b4        0x4 ./FreeRTOS_EC/Source/AManagedTask.o
                0x200009b4                AManagedTask::s_pManagedTaskListHead
 .bss.pxReadyCoRoutineLists
                0x200009b8       0x28 ./FreeRTOS/Source/croutine.o
 .bss.xDelayedCoRoutineList1
                0x200009e0       0x14 ./FreeRTOS/Source/croutine.o
 .bss.xDelayedCoRoutineList2
                0x200009f4       0x14 ./FreeRTOS/Source/croutine.o
 .bss.pxDelayedCoRoutineList
                0x20000a08        0x4 ./FreeRTOS/Source/croutine.o
 .bss.pxOverflowDelayedCoRoutineList
                0x20000a0c        0x4 ./FreeRTOS/Source/croutine.o
 .bss.xPendingReadyCoRoutineList
                0x20000a10       0x14 ./FreeRTOS/Source/croutine.o
 .bss.pxCurrentCoRoutine
                0x20000a24        0x4 ./FreeRTOS/Source/croutine.o
                0x20000a24                pxCurrentCoRoutine
 .bss.uxTopCoRoutineReadyPriority
                0x20000a28        0x4 ./FreeRTOS/Source/croutine.o
 .bss.xCoRoutineTickCount
                0x20000a2c        0x4 ./FreeRTOS/Source/croutine.o
 .bss.xLastTickCount
                0x20000a30        0x4 ./FreeRTOS/Source/croutine.o
 .bss.xPassedTicks
                0x20000a34        0x4 ./FreeRTOS/Source/croutine.o
 .bss.pxCurrentTCB
                0x20000a38        0x4 ./FreeRTOS/Source/tasks.o
                0x20000a38                pxCurrentTCB
 .bss.pxReadyTasksLists
                0x20000a3c       0x64 ./FreeRTOS/Source/tasks.o
 .bss.xDelayedTaskList1
                0x20000aa0       0x14 ./FreeRTOS/Source/tasks.o
 .bss.xDelayedTaskList2
                0x20000ab4       0x14 ./FreeRTOS/Source/tasks.o
 .bss.pxDelayedTaskList
                0x20000ac8        0x4 ./FreeRTOS/Source/tasks.o
 .bss.pxOverflowDelayedTaskList
                0x20000acc        0x4 ./FreeRTOS/Source/tasks.o
 .bss.xPendingReadyList
                0x20000ad0       0x14 ./FreeRTOS/Source/tasks.o
 .bss.xTasksWaitingTermination
                0x20000ae4       0x14 ./FreeRTOS/Source/tasks.o
 .bss.uxTasksDeleted
                0x20000af8        0x4 ./FreeRTOS/Source/tasks.o
 .bss.xSuspendedTaskList
                0x20000afc       0x14 ./FreeRTOS/Source/tasks.o
 .bss.xIdleTaskHandle
                0x20000b10        0x4 ./FreeRTOS/Source/tasks.o
 .bss.uxCurrentNumberOfTasks
                0x20000b14        0x4 ./FreeRTOS/Source/tasks.o
 .bss.xTickCount
                0x20000b18        0x4 ./FreeRTOS/Source/tasks.o
 .bss.uxTopUsedPriority
                0x20000b1c        0x4 ./FreeRTOS/Source/tasks.o
 .bss.uxTopReadyPriority
                0x20000b20        0x4 ./FreeRTOS/Source/tasks.o
 .bss.xSchedulerRunning
                0x20000b24        0x4 ./FreeRTOS/Source/tasks.o
 .bss.uxSchedulerSuspended
                0x20000b28        0x4 ./FreeRTOS/Source/tasks.o
 .bss.uxMissedTicks
                0x20000b2c        0x4 ./FreeRTOS/Source/tasks.o
 .bss.xMissedYield
                0x20000b30        0x4 ./FreeRTOS/Source/tasks.o
 .bss.xNumOfOverflows
                0x20000b34        0x4 ./FreeRTOS/Source/tasks.o
 .bss.uxTaskNumber
                0x20000b38        0x4 ./FreeRTOS/Source/tasks.o
 .bss.pcStatsString
                0x20000b3c       0x34 ./FreeRTOS/Source/tasks.o
 .bss.ulTaskSwitchedInTime
                0x20000b70        0x4 ./FreeRTOS/Source/tasks.o
 .bss.g_LedTast
                0x20000b74       0x14 ./main.o
                0x20000b74                g_LedTast
 .bss.g_Display
                0x20000b88        0x8 ./main.o
                0x20000b88                g_Display
 .bss.g_Menue   0x20000b90       0x10 ./main.o
                0x20000b90                g_Menue
 .bss.t0.4537   0x20000ba0        0x2 ./ustime.o
 *fill*         0x20000ba2        0x6 00
 .bss.tickcount.4538
                0x20000ba8        0x8 ./ustime.o
 .bss._ZZN9__gnu_cxx27__verbose_terminate_handlerEvE11terminating
                0x20000bb0        0x1 e:/elektronik/toolchain/yagarto/bin/../lib/gcc/arm-none-eabi/4.6.2/../../../../arm-none-eabi/lib/thumb/v7m\libstdc++.a(vterminate.o)
 *fill*         0x20000bb1        0x3 00
 .bss._ZL10eh_globals
                0x20000bb4        0xc e:/elektronik/toolchain/yagarto/bin/../lib/gcc/arm-none-eabi/4.6.2/../../../../arm-none-eabi/lib/thumb/v7m\libstdc++.a(eh_globals.o)
 .bss._ZL15dependents_used
                0x20000bc0        0x4 e:/elektronik/toolchain/yagarto/bin/../lib/gcc/arm-none-eabi/4.6.2/../../../../arm-none-eabi/lib/thumb/v7m\libstdc++.a(eh_alloc.o)
 *fill*         0x20000bc4        0x4 00
 .bss._ZL17dependents_buffer
                0x20000bc8      0x1e0 e:/elektronik/toolchain/yagarto/bin/../lib/gcc/arm-none-eabi/4.6.2/../../../../arm-none-eabi/lib/thumb/v7m\libstdc++.a(eh_alloc.o)
 .bss._ZL14emergency_used
                0x20000da8        0x4 e:/elektronik/toolchain/yagarto/bin/../lib/gcc/arm-none-eabi/4.6.2/../../../../arm-none-eabi/lib/thumb/v7m\libstdc++.a(eh_alloc.o)
 *fill*         0x20000dac        0x4 00
 .bss._ZL16emergency_buffer
                0x20000db0      0x800 e:/elektronik/toolchain/yagarto/bin/../lib/gcc/arm-none-eabi/4.6.2/../../../../arm-none-eabi/lib/thumb/v7m\libstdc++.a(eh_alloc.o)
 *(COMMON)
 COMMON         0x200015b0        0x4 ./STM32F4-Discovery/stm32f4_discovery.o
                0x200015b0                NVIC_InitStructure
 COMMON         0x200015b4       0x7c ./STM32F4-Discovery/stm32f4_discovery_audio_codec.o
                0x200015b4                CurrentPos
                0x200015b8                AUDIO_MAL_DMA_InitStructure
                0x200015f4                DMA_InitStructure
 COMMON         0x20001630        0x4 ./syscalls.o
                0x20001630                __brkval
                0x20001634                . = ALIGN (0x4)
                0x20001634                _ebss = .
                0x20001634                __bss_end__ = _ebss

._user_heap_stack
                0x20001634      0x400 load address 0x080299a0
                0x20001634                . = ALIGN (0x4)
                0x20001634                PROVIDE (end, .)
                0x20001634                PROVIDE (_end, .)
                0x20001634                . = (. + _Min_Heap_Size)
                0x20001a34                . = (. + _Min_Stack_Size)
 *fill*         0x20001634      0x400 00
                0x20001a34                . = ALIGN (0x4)

.memory_b1_text
 *(.mb1text)
 *(.mb1text*)
 *(.mb1rodata)
 *(.mb1rodata*)

/DISCARD/
 libc.a(*)
 libm.a(*)
 libgcc.a(*)

.ARM.attributes
                0x00000000       0x33
 *(.ARM.attributes)
 .ARM.attributes
                0x00000000       0x1d e:/elektronik/toolchain/yagarto/bin/../lib/gcc/arm-none-eabi/4.6.2/thumb/v7m/crti.o
 .ARM.attributes
                0x0000001d       0x2b e:/elektronik/toolchain/yagarto/bin/../lib/gcc/arm-none-eabi/4.6.2/thumb/v7m/crtbegin.o
 .ARM.attributes
                0x00000048       0x1b e:/elektronik/toolchain/yagarto/bin/../lib/gcc/arm-none-eabi/4.6.2/../../../../arm-none-eabi/lib/thumb/v7m/crt0.o
 .ARM.attributes
                0x00000063       0x37 ./STM32F4xx_StdPeriph_Driver/src/misc.o
 .ARM.attributes
                0x0000009a       0x37 ./STM32F4xx_StdPeriph_Driver/src/stm32f4xx_adc.o
 .ARM.attributes
                0x000000d1       0x37 ./STM32F4xx_StdPeriph_Driver/src/stm32f4xx_can.o
 .ARM.attributes
                0x00000108       0x37 ./STM32F4xx_StdPeriph_Driver/src/stm32f4xx_crc.o
 .ARM.attributes
                0x0000013f       0x37 ./STM32F4xx_StdPeriph_Driver/src/stm32f4xx_cryp.o
 .ARM.attributes
                0x00000176       0x37 ./STM32F4xx_StdPeriph_Driver/src/stm32f4xx_cryp_aes.o
 .ARM.attributes
                0x000001ad       0x37 ./STM32F4xx_StdPeriph_Driver/src/stm32f4xx_cryp_des.o
 .ARM.attributes
                0x000001e4       0x37 ./STM32F4xx_StdPeriph_Driver/src/stm32f4xx_cryp_tdes.o
 .ARM.attributes
                0x0000021b       0x37 ./STM32F4xx_StdPeriph_Driver/src/stm32f4xx_dac.o
 .ARM.attributes
                0x00000252       0x37 ./STM32F4xx_StdPeriph_Driver/src/stm32f4xx_dbgmcu.o
 .ARM.attributes
                0x00000289       0x37 ./STM32F4xx_StdPeriph_Driver/src/stm32f4xx_dcmi.o
 .ARM.attributes
                0x000002c0       0x37 ./STM32F4xx_StdPeriph_Driver/src/stm32f4xx_dma.o
 .ARM.attributes
                0x000002f7       0x37 ./STM32F4xx_StdPeriph_Driver/src/stm32f4xx_exti.o
 .ARM.attributes
                0x0000032e       0x37 ./STM32F4xx_StdPeriph_Driver/src/stm32f4xx_flash.o
 .ARM.attributes
                0x00000365       0x37 ./STM32F4xx_StdPeriph_Driver/src/stm32f4xx_fsmc.o
 .ARM.attributes
                0x0000039c       0x37 ./STM32F4xx_StdPeriph_Driver/src/stm32f4xx_gpio.o
 .ARM.attributes
                0x000003d3       0x37 ./STM32F4xx_StdPeriph_Driver/src/stm32f4xx_hash.o
 .ARM.attributes
                0x0000040a       0x37 ./STM32F4xx_StdPeriph_Driver/src/stm32f4xx_hash_md5.o
 .ARM.attributes
                0x00000441       0x37 ./STM32F4xx_StdPeriph_Driver/src/stm32f4xx_hash_sha1.o
 .ARM.attributes
                0x00000478       0x37 ./STM32F4xx_StdPeriph_Driver/src/stm32f4xx_i2c.o
 .ARM.attributes
                0x000004af       0x37 ./STM32F4xx_StdPeriph_Driver/src/stm32f4xx_iwdg.o
 .ARM.attributes
                0x000004e6       0x37 ./STM32F4xx_StdPeriph_Driver/src/stm32f4xx_pwr.o
 .ARM.attributes
                0x0000051d       0x37 ./STM32F4xx_StdPeriph_Driver/src/stm32f4xx_rcc.o
 .ARM.attributes
                0x00000554       0x37 ./STM32F4xx_StdPeriph_Driver/src/stm32f4xx_rng.o
 .ARM.attributes
                0x0000058b       0x37 ./STM32F4xx_StdPeriph_Driver/src/stm32f4xx_rtc.o
 .ARM.attributes
                0x000005c2       0x37 ./STM32F4xx_StdPeriph_Driver/src/stm32f4xx_sdio.o
 .ARM.attributes
                0x000005f9       0x37 ./STM32F4xx_StdPeriph_Driver/src/stm32f4xx_spi.o
 .ARM.attributes
                0x00000630       0x37 ./STM32F4xx_StdPeriph_Driver/src/stm32f4xx_syscfg.o
 .ARM.attributes
                0x00000667       0x37 ./STM32F4xx_StdPeriph_Driver/src/stm32f4xx_tim.o
 .ARM.attributes
                0x0000069e       0x37 ./STM32F4xx_StdPeriph_Driver/src/stm32f4xx_usart.o
 .ARM.attributes
                0x000006d5       0x37 ./STM32F4xx_StdPeriph_Driver/src/stm32f4xx_wwdg.o
 .ARM.attributes
                0x0000070c       0x37 ./STM32F4-Discovery/stm32f4_discovery.o
 .ARM.attributes
                0x00000743       0x37 ./STM32F4-Discovery/stm32f4_discovery_audio_codec.o
 .ARM.attributes
                0x0000077a       0x37 ./STM32F4-Discovery/stm32f4_discovery_lis302dl.o
 .ARM.attributes
                0x000007b1       0x37 ./Menue/CMenue.o
 .ARM.attributes
                0x000007e8       0x37 ./GraphicLCD/CGraphicLCD.o
 .ARM.attributes
                0x0000081f       0x37 ./GraphicLCD/CT6963CDriver.o
 .ARM.attributes
                0x00000856       0x37 ./GraphicLCD/CT6963GPIOInterface.o
 .ARM.attributes
                0x0000088d       0x37 ./GraphicLCD/SansSerif12.o
 .ARM.attributes
                0x000008c4       0x37 ./FreeRTOS_EC/Source/AManagedTask.o
 .ARM.attributes
                0x000008fb       0x37 ./FreeRTOS_EC/Source/ASyncObject.o
 .ARM.attributes
                0x00000932       0x37 ./FreeRTOS_EC/Source/ATimer.o
 .ARM.attributes
                0x00000969       0x37 ./FreeRTOS_EC/Source/CBinarySemaphore.o
 .ARM.attributes
                0x000009a0       0x37 ./FreeRTOS_EC/Source/CCountingSemaphore.o
 .ARM.attributes
                0x000009d7       0x37 ./FreeRTOS_EC/Source/CFreeRTOS.o
 .ARM.attributes
                0x00000a0e       0x37 ./FreeRTOS_EC/Source/CMessageTask.o
 .ARM.attributes
                0x00000a45       0x37 ./FreeRTOS_EC/Source/CMutex.o
 .ARM.attributes
                0x00000a7c       0x37 ./FreeRTOS_EC/Source/CQueue.o
 .ARM.attributes
                0x00000ab3       0x37 ./FreeRTOS_EC/Source/CRecursiveMutex.o
 .ARM.attributes
                0x00000aea       0x37 ./FreeRTOS_EC/Source/CTask.o
 .ARM.attributes
                0x00000b21       0x37 ./FreeRTOS/Source/portable/GCC/ARM_CM4F/port.o
 .ARM.attributes
                0x00000b58       0x37 ./FreeRTOS/Source/croutine.o
 .ARM.attributes
                0x00000b8f       0x37 ./FreeRTOS/Source/list.o
 .ARM.attributes
                0x00000bc6       0x37 ./FreeRTOS/Source/queue.o
 .ARM.attributes
                0x00000bfd       0x37 ./FreeRTOS/Source/tasks.o
 .ARM.attributes
                0x00000c34       0x37 ./FreeRTOS/Source/timers.o
 .ARM.attributes
                0x00000c6b       0x37 ./CLedHeartBeatSTM32F4Disc.o
 .ARM.attributes
                0x00000ca2       0x37 ./main.o
 .ARM.attributes
                0x00000cd9       0x27 ./startup_stm32f4xx.o
 .ARM.attributes
                0x00000d00       0x37 ./stm32f4xx_it.o
 .ARM.attributes
                0x00000d37       0x37 ./syscalls.o
 .ARM.attributes
                0x00000d6e       0x37 ./system_stm32f4xx.o
 .ARM.attributes
                0x00000da5       0x37 ./ustime.o
 .ARM.attributes
                0x00000ddc       0x2b e:/elektronik/toolchain/yagarto/bin/../lib/gcc/arm-none-eabi/4.6.2/../../../../arm-none-eabi/lib/thumb/v7m\libstdc++.a(atexit_arm.o)
 .ARM.attributes
                0x00000e07       0x2b e:/elektronik/toolchain/yagarto/bin/../lib/gcc/arm-none-eabi/4.6.2/../../../../arm-none-eabi/lib/thumb/v7m\libstdc++.a(del_op.o)
 .ARM.attributes
                0x00000e32       0x2b e:/elektronik/toolchain/yagarto/bin/../lib/gcc/arm-none-eabi/4.6.2/../../../../arm-none-eabi/lib/thumb/v7m\libstdc++.a(pure.o)
 .ARM.attributes
                0x00000e5d       0x2b e:/elektronik/toolchain/yagarto/bin/../lib/gcc/arm-none-eabi/4.6.2/../../../../arm-none-eabi/lib/thumb/v7m\libstdc++.a(eh_terminate.o)
 .ARM.attributes
                0x00000e88       0x2b e:/elektronik/toolchain/yagarto/bin/../lib/gcc/arm-none-eabi/4.6.2/../../../../arm-none-eabi/lib/thumb/v7m\libstdc++.a(eh_term_handler.o)
 .ARM.attributes
                0x00000eb3       0x2b e:/elektronik/toolchain/yagarto/bin/../lib/gcc/arm-none-eabi/4.6.2/../../../../arm-none-eabi/lib/thumb/v7m\libstdc++.a(eh_unex_handler.o)
 .ARM.attributes
                0x00000ede       0x2b e:/elektronik/toolchain/yagarto/bin/../lib/gcc/arm-none-eabi/4.6.2/../../../../arm-none-eabi/lib/thumb/v7m\libstdc++.a(vterminate.o)
 .ARM.attributes
                0x00000f09       0x2b e:/elektronik/toolchain/yagarto/bin/../lib/gcc/arm-none-eabi/4.6.2/../../../../arm-none-eabi/lib/thumb/v7m\libstdc++.a(cp-demangle.o)
 .ARM.attributes
                0x00000f34       0x2b e:/elektronik/toolchain/yagarto/bin/../lib/gcc/arm-none-eabi/4.6.2/../../../../arm-none-eabi/lib/thumb/v7m\libstdc++.a(eh_arm.o)
 .ARM.attributes
                0x00000f5f       0x2b e:/elektronik/toolchain/yagarto/bin/../lib/gcc/arm-none-eabi/4.6.2/../../../../arm-none-eabi/lib/thumb/v7m\libstdc++.a(eh_aux_runtime.o)
 .ARM.attributes
                0x00000f8a       0x2b e:/elektronik/toolchain/yagarto/bin/../lib/gcc/arm-none-eabi/4.6.2/../../../../arm-none-eabi/lib/thumb/v7m\libstdc++.a(eh_call.o)
 .ARM.attributes
                0x00000fb5       0x2b e:/elektronik/toolchain/yagarto/bin/../lib/gcc/arm-none-eabi/4.6.2/../../../../arm-none-eabi/lib/thumb/v7m\libstdc++.a(eh_catch.o)
 .ARM.attributes
                0x00000fe0       0x2b e:/elektronik/toolchain/yagarto/bin/../lib/gcc/arm-none-eabi/4.6.2/../../../../arm-none-eabi/lib/thumb/v7m\libstdc++.a(eh_exception.o)
 .ARM.attributes
                0x0000100b       0x2b e:/elektronik/toolchain/yagarto/bin/../lib/gcc/arm-none-eabi/4.6.2/../../../../arm-none-eabi/lib/thumb/v7m\libstdc++.a(eh_globals.o)
 .ARM.attributes
                0x00001036       0x2b e:/elektronik/toolchain/yagarto/bin/../lib/gcc/arm-none-eabi/4.6.2/../../../../arm-none-eabi/lib/thumb/v7m\libstdc++.a(eh_personality.o)
 .ARM.attributes
                0x00001061       0x2b e:/elektronik/toolchain/yagarto/bin/../lib/gcc/arm-none-eabi/4.6.2/../../../../arm-none-eabi/lib/thumb/v7m\libstdc++.a(eh_throw.o)
 .ARM.attributes
                0x0000108c       0x2b e:/elektronik/toolchain/yagarto/bin/../lib/gcc/arm-none-eabi/4.6.2/../../../../arm-none-eabi/lib/thumb/v7m\libstdc++.a(eh_type.o)
 .ARM.attributes
                0x000010b7       0x2b e:/elektronik/toolchain/yagarto/bin/../lib/gcc/arm-none-eabi/4.6.2/../../../../arm-none-eabi/lib/thumb/v7m\libstdc++.a(fundamental_type_info.o)
 .ARM.attributes
                0x000010e2       0x2b e:/elektronik/toolchain/yagarto/bin/../lib/gcc/arm-none-eabi/4.6.2/../../../../arm-none-eabi/lib/thumb/v7m\libstdc++.a(pointer_type_info.o)
 .ARM.attributes
                0x0000110d       0x2b e:/elektronik/toolchain/yagarto/bin/../lib/gcc/arm-none-eabi/4.6.2/../../../../arm-none-eabi/lib/thumb/v7m\libstdc++.a(si_class_type_info.o)
 .ARM.attributes
                0x00001138       0x2b e:/elektronik/toolchain/yagarto/bin/../lib/gcc/arm-none-eabi/4.6.2/../../../../arm-none-eabi/lib/thumb/v7m\libstdc++.a(tinfo.o)
 .ARM.attributes
                0x00001163       0x2b e:/elektronik/toolchain/yagarto/bin/../lib/gcc/arm-none-eabi/4.6.2/../../../../arm-none-eabi/lib/thumb/v7m\libstdc++.a(bad_cast.o)
 .ARM.attributes
                0x0000118e       0x2b e:/elektronik/toolchain/yagarto/bin/../lib/gcc/arm-none-eabi/4.6.2/../../../../arm-none-eabi/lib/thumb/v7m\libstdc++.a(bad_typeid.o)
 .ARM.attributes
                0x000011b9       0x2b e:/elektronik/toolchain/yagarto/bin/../lib/gcc/arm-none-eabi/4.6.2/../../../../arm-none-eabi/lib/thumb/v7m\libstdc++.a(class_type_info.o)
 .ARM.attributes
                0x000011e4       0x2b e:/elektronik/toolchain/yagarto/bin/../lib/gcc/arm-none-eabi/4.6.2/../../../../arm-none-eabi/lib/thumb/v7m\libstdc++.a(eh_alloc.o)
 .ARM.attributes
                0x0000120f       0x2b e:/elektronik/toolchain/yagarto/bin/../lib/gcc/arm-none-eabi/4.6.2/../../../../arm-none-eabi/lib/thumb/v7m\libstdc++.a(pbase_type_info.o)
 .ARM.attributes
                0x0000123a       0x2b e:/elektronik/toolchain/yagarto/bin/../lib/gcc/arm-none-eabi/4.6.2/thumb/v7m\libgcc.a(unwind-arm.o)
 .ARM.attributes
                0x00001265       0x1d e:/elektronik/toolchain/yagarto/bin/../lib/gcc/arm-none-eabi/4.6.2/thumb/v7m\libgcc.a(libunwind.o)
 .ARM.attributes
                0x00001282       0x2b e:/elektronik/toolchain/yagarto/bin/../lib/gcc/arm-none-eabi/4.6.2/thumb/v7m\libgcc.a(pr-support.o)
 .ARM.attributes
                0x000012ad       0x2b e:/elektronik/toolchain/yagarto/bin/../lib/gcc/arm-none-eabi/4.6.2/../../../../arm-none-eabi/lib/thumb/v7m\libg.a(lib_a-abort.o)
 .ARM.attributes
                0x000012d8       0x2b e:/elektronik/toolchain/yagarto/bin/../lib/gcc/arm-none-eabi/4.6.2/../../../../arm-none-eabi/lib/thumb/v7m\libg.a(lib_a-assert.o)
 .ARM.attributes
                0x00001303       0x2b e:/elektronik/toolchain/yagarto/bin/../lib/gcc/arm-none-eabi/4.6.2/../../../../arm-none-eabi/lib/thumb/v7m\libg.a(lib_a-atexit.o)
 .ARM.attributes
                0x0000132e       0x2b e:/elektronik/toolchain/yagarto/bin/../lib/gcc/arm-none-eabi/4.6.2/../../../../arm-none-eabi/lib/thumb/v7m\libg.a(lib_a-cxa_atexit.o)
 .ARM.attributes
                0x00001359       0x2b e:/elektronik/toolchain/yagarto/bin/../lib/gcc/arm-none-eabi/4.6.2/../../../../arm-none-eabi/lib/thumb/v7m\libg.a(lib_a-exit.o)
 .ARM.attributes
                0x00001384       0x2b e:/elektronik/toolchain/yagarto/bin/../lib/gcc/arm-none-eabi/4.6.2/../../../../arm-none-eabi/lib/thumb/v7m\libg.a(lib_a-fini.o)
 .ARM.attributes
                0x000013af       0x2b e:/elektronik/toolchain/yagarto/bin/../lib/gcc/arm-none-eabi/4.6.2/../../../../arm-none-eabi/lib/thumb/v7m\libg.a(lib_a-fiprintf.o)
 .ARM.attributes
                0x000013da       0x2b e:/elektronik/toolchain/yagarto/bin/../lib/gcc/arm-none-eabi/4.6.2/../../../../arm-none-eabi/lib/thumb/v7m\libg.a(lib_a-fputc.o)
 .ARM.attributes
                0x00001405       0x2b e:/elektronik/toolchain/yagarto/bin/../lib/gcc/arm-none-eabi/4.6.2/../../../../arm-none-eabi/lib/thumb/v7m\libg.a(lib_a-fputs.o)
 .ARM.attributes
                0x00001430       0x2b e:/elektronik/toolchain/yagarto/bin/../lib/gcc/arm-none-eabi/4.6.2/../../../../arm-none-eabi/lib/thumb/v7m\libg.a(lib_a-fvwrite.o)
 .ARM.attributes
                0x0000145b       0x2b e:/elektronik/toolchain/yagarto/bin/../lib/gcc/arm-none-eabi/4.6.2/../../../../arm-none-eabi/lib/thumb/v7m\libg.a(lib_a-fwrite.o)
 .ARM.attributes
                0x00001486       0x2b e:/elektronik/toolchain/yagarto/bin/../lib/gcc/arm-none-eabi/4.6.2/../../../../arm-none-eabi/lib/thumb/v7m\libg.a(lib_a-impure.o)
 .ARM.attributes
                0x000014b1       0x2b e:/elektronik/toolchain/yagarto/bin/../lib/gcc/arm-none-eabi/4.6.2/../../../../arm-none-eabi/lib/thumb/v7m\libg.a(lib_a-init.o)
 .ARM.attributes
                0x000014dc       0x2b e:/elektronik/toolchain/yagarto/bin/../lib/gcc/arm-none-eabi/4.6.2/../../../../arm-none-eabi/lib/thumb/v7m\libg.a(lib_a-malloc.o)
 .ARM.attributes
                0x00001507       0x2b e:/elektronik/toolchain/yagarto/bin/../lib/gcc/arm-none-eabi/4.6.2/../../../../arm-none-eabi/lib/thumb/v7m\libg.a(lib_a-mallocr.o)
 .ARM.attributes
                0x00001532       0x2b e:/elektronik/toolchain/yagarto/bin/../lib/gcc/arm-none-eabi/4.6.2/../../../../arm-none-eabi/lib/thumb/v7m\libg.a(lib_a-memchr.o)
 .ARM.attributes
                0x0000155d       0x2b e:/elektronik/toolchain/yagarto/bin/../lib/gcc/arm-none-eabi/4.6.2/../../../../arm-none-eabi/lib/thumb/v7m\libg.a(lib_a-memcmp.o)
 .ARM.attributes
                0x00001588       0x2b e:/elektronik/toolchain/yagarto/bin/../lib/gcc/arm-none-eabi/4.6.2/../../../../arm-none-eabi/lib/thumb/v7m\libg.a(lib_a-memcpy.o)
 .ARM.attributes
                0x000015b3       0x2b e:/elektronik/toolchain/yagarto/bin/../lib/gcc/arm-none-eabi/4.6.2/../../../../arm-none-eabi/lib/thumb/v7m\libg.a(lib_a-memmove.o)
 .ARM.attributes
                0x000015de       0x2b e:/elektronik/toolchain/yagarto/bin/../lib/gcc/arm-none-eabi/4.6.2/../../../../arm-none-eabi/lib/thumb/v7m\libg.a(lib_a-memset.o)
 .ARM.attributes
                0x00001609       0x2b e:/elektronik/toolchain/yagarto/bin/../lib/gcc/arm-none-eabi/4.6.2/../../../../arm-none-eabi/lib/thumb/v7m\libg.a(lib_a-putc.o)
 .ARM.attributes
                0x00001634       0x2b e:/elektronik/toolchain/yagarto/bin/../lib/gcc/arm-none-eabi/4.6.2/../../../../arm-none-eabi/lib/thumb/v7m\libg.a(lib_a-realloc.o)
 .ARM.attributes
                0x0000165f       0x2b e:/elektronik/toolchain/yagarto/bin/../lib/gcc/arm-none-eabi/4.6.2/../../../../arm-none-eabi/lib/thumb/v7m\libg.a(lib_a-reallocr.o)
 .ARM.attributes
                0x0000168a       0x2b e:/elektronik/toolchain/yagarto/bin/../lib/gcc/arm-none-eabi/4.6.2/../../../../arm-none-eabi/lib/thumb/v7m\libg.a(lib_a-signal.o)
 .ARM.attributes
                0x000016b5       0x2b e:/elektronik/toolchain/yagarto/bin/../lib/gcc/arm-none-eabi/4.6.2/../../../../arm-none-eabi/lib/thumb/v7m\libg.a(lib_a-sprintf.o)
 .ARM.attributes
                0x000016e0       0x2b e:/elektronik/toolchain/yagarto/bin/../lib/gcc/arm-none-eabi/4.6.2/../../../../arm-none-eabi/lib/thumb/v7m\libg.a(lib_a-strcat.o)
 .ARM.attributes
                0x0000170b       0x2b e:/elektronik/toolchain/yagarto/bin/../lib/gcc/arm-none-eabi/4.6.2/../../../../arm-none-eabi/lib/thumb/v7m\libg.a(lib_a-strcmp.o)
 .ARM.attributes
                0x00001736       0x2b e:/elektronik/toolchain/yagarto/bin/../lib/gcc/arm-none-eabi/4.6.2/../../../../arm-none-eabi/lib/thumb/v7m\libg.a(lib_a-strcpy.o)
 .ARM.attributes
                0x00001761       0x2b e:/elektronik/toolchain/yagarto/bin/../lib/gcc/arm-none-eabi/4.6.2/../../../../arm-none-eabi/lib/thumb/v7m\libg.a(lib_a-strlen.o)
 .ARM.attributes
                0x0000178c       0x2b e:/elektronik/toolchain/yagarto/bin/../lib/gcc/arm-none-eabi/4.6.2/../../../../arm-none-eabi/lib/thumb/v7m\libg.a(lib_a-strncmp.o)
 .ARM.attributes
                0x000017b7       0x2b e:/elektronik/toolchain/yagarto/bin/../lib/gcc/arm-none-eabi/4.6.2/../../../../arm-none-eabi/lib/thumb/v7m\libg.a(lib_a-strncpy.o)
 .ARM.attributes
                0x000017e2       0x2b e:/elektronik/toolchain/yagarto/bin/../lib/gcc/arm-none-eabi/4.6.2/../../../../arm-none-eabi/lib/thumb/v7m\libg.a(lib_a-svfprintf.o)
 .ARM.attributes
                0x0000180d       0x2b e:/elektronik/toolchain/yagarto/bin/../lib/gcc/arm-none-eabi/4.6.2/../../../../arm-none-eabi/lib/thumb/v7m\libg.a(lib_a-syswrite.o)
 .ARM.attributes
                0x00001838       0x2b e:/elektronik/toolchain/yagarto/bin/../lib/gcc/arm-none-eabi/4.6.2/../../../../arm-none-eabi/lib/thumb/v7m\libg.a(lib_a-vfiprintf.o)
 .ARM.attributes
                0x00001863       0x2b e:/elektronik/toolchain/yagarto/bin/../lib/gcc/arm-none-eabi/4.6.2/../../../../arm-none-eabi/lib/thumb/v7m\libg.a(lib_a-wbuf.o)
 .ARM.attributes
                0x0000188e       0x2b e:/elektronik/toolchain/yagarto/bin/../lib/gcc/arm-none-eabi/4.6.2/../../../../arm-none-eabi/lib/thumb/v7m\libg.a(lib_a-wsetup.o)
 .ARM.attributes
                0x000018b9       0x2b e:/elektronik/toolchain/yagarto/bin/../lib/gcc/arm-none-eabi/4.6.2/../../../../arm-none-eabi/lib/thumb/v7m\libg.a(lib_a-__atexit.o)
 .ARM.attributes
                0x000018e4       0x2b e:/elektronik/toolchain/yagarto/bin/../lib/gcc/arm-none-eabi/4.6.2/../../../../arm-none-eabi/lib/thumb/v7m\libg.a(lib_a-__call_atexit.o)
 .ARM.attributes
                0x0000190f       0x2b e:/elektronik/toolchain/yagarto/bin/../lib/gcc/arm-none-eabi/4.6.2/../../../../arm-none-eabi/lib/thumb/v7m\libg.a(lib_a-dtoa.o)
 .ARM.attributes
                0x0000193a       0x2b e:/elektronik/toolchain/yagarto/bin/../lib/gcc/arm-none-eabi/4.6.2/../../../../arm-none-eabi/lib/thumb/v7m\libg.a(lib_a-fflush.o)
 .ARM.attributes
                0x00001965       0x2b e:/elektronik/toolchain/yagarto/bin/../lib/gcc/arm-none-eabi/4.6.2/../../../../arm-none-eabi/lib/thumb/v7m\libg.a(lib_a-findfp.o)
 .ARM.attributes
                0x00001990       0x2b e:/elektronik/toolchain/yagarto/bin/../lib/gcc/arm-none-eabi/4.6.2/../../../../arm-none-eabi/lib/thumb/v7m\libg.a(lib_a-fputwc.o)
 .ARM.attributes
                0x000019bb       0x2b e:/elektronik/toolchain/yagarto/bin/../lib/gcc/arm-none-eabi/4.6.2/../../../../arm-none-eabi/lib/thumb/v7m\libg.a(lib_a-freer.o)
 .ARM.attributes
                0x000019e6       0x2b e:/elektronik/toolchain/yagarto/bin/../lib/gcc/arm-none-eabi/4.6.2/../../../../arm-none-eabi/lib/thumb/v7m\libg.a(lib_a-fwalk.o)
 .ARM.attributes
                0x00001a11       0x2b e:/elektronik/toolchain/yagarto/bin/../lib/gcc/arm-none-eabi/4.6.2/../../../../arm-none-eabi/lib/thumb/v7m\libg.a(lib_a-locale.o)
 .ARM.attributes
                0x00001a3c       0x2b e:/elektronik/toolchain/yagarto/bin/../lib/gcc/arm-none-eabi/4.6.2/../../../../arm-none-eabi/lib/thumb/v7m\libg.a(lib_a-makebuf.o)
 .ARM.attributes
                0x00001a67       0x2b e:/elektronik/toolchain/yagarto/bin/../lib/gcc/arm-none-eabi/4.6.2/../../../../arm-none-eabi/lib/thumb/v7m\libg.a(lib_a-mprec.o)
 .ARM.attributes
                0x00001a92       0x2b e:/elektronik/toolchain/yagarto/bin/../lib/gcc/arm-none-eabi/4.6.2/../../../../arm-none-eabi/lib/thumb/v7m\libg.a(lib_a-s_fpclassify.o)
 .ARM.attributes
                0x00001abd       0x2b e:/elektronik/toolchain/yagarto/bin/../lib/gcc/arm-none-eabi/4.6.2/../../../../arm-none-eabi/lib/thumb/v7m\libg.a(lib_a-stdio.o)
 .ARM.attributes
                0x00001ae8       0x2b e:/elektronik/toolchain/yagarto/bin/../lib/gcc/arm-none-eabi/4.6.2/../../../../arm-none-eabi/lib/thumb/v7m\libg.a(lib_a-svfiprintf.o)
 .ARM.attributes
                0x00001b13       0x2b e:/elektronik/toolchain/yagarto/bin/../lib/gcc/arm-none-eabi/4.6.2/../../../../arm-none-eabi/lib/thumb/v7m\libg.a(lib_a-wcrtomb.o)
 .ARM.attributes
                0x00001b3e       0x2b e:/elektronik/toolchain/yagarto/bin/../lib/gcc/arm-none-eabi/4.6.2/../../../../arm-none-eabi/lib/thumb/v7m\libg.a(lib_a-wctomb_r.o)
 .ARM.attributes
                0x00001b69       0x2b e:/elektronik/toolchain/yagarto/bin/../lib/gcc/arm-none-eabi/4.6.2/../../../../arm-none-eabi/lib/thumb/v7m\libg.a(lib_a-callocr.o)
 .ARM.attributes
                0x00001b94       0x2b e:/elektronik/toolchain/yagarto/bin/../lib/gcc/arm-none-eabi/4.6.2/../../../../arm-none-eabi/lib/thumb/v7m\libg.a(lib_a-fclose.o)
 .ARM.attributes
                0x00001bbf       0x1d e:/elektronik/toolchain/yagarto/bin/../lib/gcc/arm-none-eabi/4.6.2/thumb/v7m\libgcc.a(_udivsi3.o)
 .ARM.attributes
                0x00001bdc       0x1d e:/elektronik/toolchain/yagarto/bin/../lib/gcc/arm-none-eabi/4.6.2/thumb/v7m\libgcc.a(_dvmd_tls.o)
 .ARM.attributes
                0x00001bf9       0x1d e:/elektronik/toolchain/yagarto/bin/../lib/gcc/arm-none-eabi/4.6.2/thumb/v7m\libgcc.a(_arm_addsubdf3.o)
 .ARM.attributes
                0x00001c16       0x1d e:/elektronik/toolchain/yagarto/bin/../lib/gcc/arm-none-eabi/4.6.2/thumb/v7m\libgcc.a(_arm_muldivdf3.o)
 .ARM.attributes
                0x00001c33       0x1d e:/elektronik/toolchain/yagarto/bin/../lib/gcc/arm-none-eabi/4.6.2/thumb/v7m\libgcc.a(_arm_cmpdf2.o)
 .ARM.attributes
                0x00001c50       0x1d e:/elektronik/toolchain/yagarto/bin/../lib/gcc/arm-none-eabi/4.6.2/thumb/v7m\libgcc.a(_arm_fixdfsi.o)
 .ARM.attributes
                0x00001c6d       0x2b e:/elektronik/toolchain/yagarto/bin/../lib/gcc/arm-none-eabi/4.6.2/thumb/v7m/crtend.o
 .ARM.attributes
                0x00001c98       0x1d e:/elektronik/toolchain/yagarto/bin/../lib/gcc/arm-none-eabi/4.6.2/thumb/v7m/crtn.o
OUTPUT(ThunderCryer.elf elf32-littlearm)

.debug_line     0x00000000    0x25665
 .debug_line    0x00000000       0x68 e:/elektronik/toolchain/yagarto/bin/../lib/gcc/arm-none-eabi/4.6.2/thumb/v7m/crti.o
 .debug_line    0x00000068       0x8a e:/elektronik/toolchain/yagarto/bin/../lib/gcc/arm-none-eabi/4.6.2/../../../../arm-none-eabi/lib/thumb/v7m/crt0.o
 .debug_line    0x000000f2      0x4d9 ./STM32F4xx_StdPeriph_Driver/src/misc.o
 .debug_line    0x000005cb      0x7df ./STM32F4xx_StdPeriph_Driver/src/stm32f4xx_adc.o
 .debug_line    0x00000daa      0x7e9 ./STM32F4xx_StdPeriph_Driver/src/stm32f4xx_can.o
 .debug_line    0x00001593      0x4f4 ./STM32F4xx_StdPeriph_Driver/src/stm32f4xx_crc.o
 .debug_line    0x00001a87      0x61e ./STM32F4xx_StdPeriph_Driver/src/stm32f4xx_cryp.o
 .debug_line    0x000020a5      0x92e ./STM32F4xx_StdPeriph_Driver/src/stm32f4xx_cryp_aes.o
 .debug_line    0x000029d3      0x574 ./STM32F4xx_StdPeriph_Driver/src/stm32f4xx_cryp_des.o
 .debug_line    0x00002f47      0x5ed ./STM32F4xx_StdPeriph_Driver/src/stm32f4xx_cryp_tdes.o
 .debug_line    0x00003534      0x5ed ./STM32F4xx_StdPeriph_Driver/src/stm32f4xx_dac.o
 .debug_line    0x00003b21      0x4d7 ./STM32F4xx_StdPeriph_Driver/src/stm32f4xx_dbgmcu.o
 .debug_line    0x00003ff8      0x5c9 ./STM32F4xx_StdPeriph_Driver/src/stm32f4xx_dcmi.o
 .debug_line    0x000045c1      0x667 ./STM32F4xx_StdPeriph_Driver/src/stm32f4xx_dma.o
 .debug_line    0x00004c28      0x52f ./STM32F4xx_StdPeriph_Driver/src/stm32f4xx_exti.o
 .debug_line    0x00005157      0x715 ./STM32F4xx_StdPeriph_Driver/src/stm32f4xx_flash.o
 .debug_line    0x0000586c      0x6e3 ./STM32F4xx_StdPeriph_Driver/src/stm32f4xx_fsmc.o
 .debug_line    0x00005f4f      0x5c9 ./STM32F4xx_StdPeriph_Driver/src/stm32f4xx_gpio.o
 .debug_line    0x00006518      0x5fa ./STM32F4xx_StdPeriph_Driver/src/stm32f4xx_hash.o
 .debug_line    0x00006b12      0x5de ./STM32F4xx_StdPeriph_Driver/src/stm32f4xx_hash_md5.o
 .debug_line    0x000070f0      0x5f9 ./STM32F4xx_StdPeriph_Driver/src/stm32f4xx_hash_sha1.o
 .debug_line    0x000076e9      0x754 ./STM32F4xx_StdPeriph_Driver/src/stm32f4xx_i2c.o
 .debug_line    0x00007e3d      0x4e7 ./STM32F4xx_StdPeriph_Driver/src/stm32f4xx_iwdg.o
 .debug_line    0x00008324      0x579 ./STM32F4xx_StdPeriph_Driver/src/stm32f4xx_pwr.o
 .debug_line    0x0000889d      0x827 ./STM32F4xx_StdPeriph_Driver/src/stm32f4xx_rcc.o
 .debug_line    0x000090c4      0x513 ./STM32F4xx_StdPeriph_Driver/src/stm32f4xx_rng.o
 .debug_line    0x000095d7      0xa9e ./STM32F4xx_StdPeriph_Driver/src/stm32f4xx_rtc.o
 .debug_line    0x0000a075      0x6ce ./STM32F4xx_StdPeriph_Driver/src/stm32f4xx_sdio.o
 .debug_line    0x0000a743      0x6df ./STM32F4xx_StdPeriph_Driver/src/stm32f4xx_spi.o
 .debug_line    0x0000ae22      0x4f0 ./STM32F4xx_StdPeriph_Driver/src/stm32f4xx_syscfg.o
 .debug_line    0x0000b312      0xd04 ./STM32F4xx_StdPeriph_Driver/src/stm32f4xx_tim.o
 .debug_line    0x0000c016      0x71a ./STM32F4xx_StdPeriph_Driver/src/stm32f4xx_usart.o
 .debug_line    0x0000c730      0x512 ./STM32F4xx_StdPeriph_Driver/src/stm32f4xx_wwdg.o
 .debug_line    0x0000cc42      0x509 ./STM32F4-Discovery/stm32f4_discovery.o
 .debug_line    0x0000d14b      0x964 ./STM32F4-Discovery/stm32f4_discovery_audio_codec.o
 .debug_line    0x0000daaf      0x630 ./STM32F4-Discovery/stm32f4_discovery_lis302dl.o
 .debug_line    0x0000e0df      0x70d ./Menue/CMenue.o
 .debug_line    0x0000e7ec       0xc1 ./GraphicLCD/CGraphicLCD.o
 .debug_line    0x0000e8ad      0x2fb ./GraphicLCD/CT6963CDriver.o
 .debug_line    0x0000eba8      0x74e ./GraphicLCD/CT6963GPIOInterface.o
 .debug_line    0x0000f2f6       0x60 ./GraphicLCD/SansSerif12.o
 .debug_line    0x0000f356      0x775 ./FreeRTOS_EC/Source/AManagedTask.o
 .debug_line    0x0000facb      0x762 ./FreeRTOS_EC/Source/ASyncObject.o
 .debug_line    0x0001022d      0x6b3 ./FreeRTOS_EC/Source/ATimer.o
 .debug_line    0x000108e0      0x79f ./FreeRTOS_EC/Source/CBinarySemaphore.o
 .debug_line    0x0001107f      0x79b ./FreeRTOS_EC/Source/CCountingSemaphore.o
 .debug_line    0x0001181a      0x616 ./FreeRTOS_EC/Source/CFreeRTOS.o
 .debug_line    0x00011e30      0x99f ./FreeRTOS_EC/Source/CMessageTask.o
 .debug_line    0x000127cf      0x784 ./FreeRTOS_EC/Source/CMutex.o
 .debug_line    0x00012f53      0x780 ./FreeRTOS_EC/Source/CQueue.o
 .debug_line    0x000136d3      0x783 ./FreeRTOS_EC/Source/CRecursiveMutex.o
 .debug_line    0x00013e56      0x794 ./FreeRTOS_EC/Source/CTask.o
 .debug_line    0x000145ea      0x68a ./FreeRTOS/Source/portable/GCC/ARM_CM4F/port.o
 .debug_line    0x00014c74      0x6ea ./FreeRTOS/Source/croutine.o
 .debug_line    0x0001535e      0x74f ./FreeRTOS/Source/list.o
 .debug_line    0x00015aad      0x927 ./FreeRTOS/Source/queue.o
 .debug_line    0x000163d4      0xd87 ./FreeRTOS/Source/tasks.o
 .debug_line    0x0001715b      0x5b1 ./FreeRTOS/Source/timers.o
 .debug_line    0x0001770c      0x750 ./CLedHeartBeatSTM32F4Disc.o
 .debug_line    0x00017e5c      0x839 ./main.o
 .debug_line    0x00018695       0x70 ./startup_stm32f4xx.o
 .debug_line    0x00018705      0x4df ./stm32f4xx_it.o
 .debug_line    0x00018be4      0x84e ./syscalls.o
 .debug_line    0x00019432      0x4e6 ./system_stm32f4xx.o
 .debug_line    0x00019918      0x5df ./ustime.o
 .debug_line    0x00019ef7       0xc8 e:/elektronik/toolchain/yagarto/bin/../lib/gcc/arm-none-eabi/4.6.2/../../../../arm-none-eabi/lib/thumb/v7m\libstdc++.a(atexit_arm.o)
 .debug_line    0x00019fbf      0x156 e:/elektronik/toolchain/yagarto/bin/../lib/gcc/arm-none-eabi/4.6.2/../../../../arm-none-eabi/lib/thumb/v7m\libstdc++.a(del_op.o)
 .debug_line    0x0001a115       0xc2 e:/elektronik/toolchain/yagarto/bin/../lib/gcc/arm-none-eabi/4.6.2/../../../../arm-none-eabi/lib/thumb/v7m\libstdc++.a(pure.o)
 .debug_line    0x0001a1d7      0x213 e:/elektronik/toolchain/yagarto/bin/../lib/gcc/arm-none-eabi/4.6.2/../../../../arm-none-eabi/lib/thumb/v7m\libstdc++.a(eh_terminate.o)
 .debug_line    0x0001a3ea       0xbb e:/elektronik/toolchain/yagarto/bin/../lib/gcc/arm-none-eabi/4.6.2/../../../../arm-none-eabi/lib/thumb/v7m\libstdc++.a(eh_term_handler.o)
 .debug_line    0x0001a4a5       0xbb e:/elektronik/toolchain/yagarto/bin/../lib/gcc/arm-none-eabi/4.6.2/../../../../arm-none-eabi/lib/thumb/v7m\libstdc++.a(eh_unex_handler.o)
 .debug_line    0x0001a560      0x271 e:/elektronik/toolchain/yagarto/bin/../lib/gcc/arm-none-eabi/4.6.2/../../../../arm-none-eabi/lib/thumb/v7m\libstdc++.a(vterminate.o)
 .debug_line    0x0001a7d1      0xf98 e:/elektronik/toolchain/yagarto/bin/../lib/gcc/arm-none-eabi/4.6.2/../../../../arm-none-eabi/lib/thumb/v7m\libstdc++.a(cp-demangle.o)
 .debug_line    0x0001b769      0x224 e:/elektronik/toolchain/yagarto/bin/../lib/gcc/arm-none-eabi/4.6.2/../../../../arm-none-eabi/lib/thumb/v7m\libstdc++.a(eh_arm.o)
 .debug_line    0x0001b98d      0x1ef e:/elektronik/toolchain/yagarto/bin/../lib/gcc/arm-none-eabi/4.6.2/../../../../arm-none-eabi/lib/thumb/v7m\libstdc++.a(eh_aux_runtime.o)
 .debug_line    0x0001bb7c      0x27f e:/elektronik/toolchain/yagarto/bin/../lib/gcc/arm-none-eabi/4.6.2/../../../../arm-none-eabi/lib/thumb/v7m\libstdc++.a(eh_call.o)
 .debug_line    0x0001bdfb      0x280 e:/elektronik/toolchain/yagarto/bin/../lib/gcc/arm-none-eabi/4.6.2/../../../../arm-none-eabi/lib/thumb/v7m\libstdc++.a(eh_catch.o)
 .debug_line    0x0001c07b      0x1d3 e:/elektronik/toolchain/yagarto/bin/../lib/gcc/arm-none-eabi/4.6.2/../../../../arm-none-eabi/lib/thumb/v7m\libstdc++.a(eh_exception.o)
 .debug_line    0x0001c24e      0x1d9 e:/elektronik/toolchain/yagarto/bin/../lib/gcc/arm-none-eabi/4.6.2/../../../../arm-none-eabi/lib/thumb/v7m\libstdc++.a(eh_globals.o)
 .debug_line    0x0001c427      0x5b1 e:/elektronik/toolchain/yagarto/bin/../lib/gcc/arm-none-eabi/4.6.2/../../../../arm-none-eabi/lib/thumb/v7m\libstdc++.a(eh_personality.o)
 .debug_line    0x0001c9d8      0x226 e:/elektronik/toolchain/yagarto/bin/../lib/gcc/arm-none-eabi/4.6.2/../../../../arm-none-eabi/lib/thumb/v7m\libstdc++.a(eh_throw.o)
 .debug_line    0x0001cbfe      0x120 e:/elektronik/toolchain/yagarto/bin/../lib/gcc/arm-none-eabi/4.6.2/../../../../arm-none-eabi/lib/thumb/v7m\libstdc++.a(eh_type.o)
 .debug_line    0x0001cd1e       0xf3 e:/elektronik/toolchain/yagarto/bin/../lib/gcc/arm-none-eabi/4.6.2/../../../../arm-none-eabi/lib/thumb/v7m\libstdc++.a(fundamental_type_info.o)
 .debug_line    0x0001ce11      0x128 e:/elektronik/toolchain/yagarto/bin/../lib/gcc/arm-none-eabi/4.6.2/../../../../arm-none-eabi/lib/thumb/v7m\libstdc++.a(pointer_type_info.o)
 .debug_line    0x0001cf39      0x186 e:/elektronik/toolchain/yagarto/bin/../lib/gcc/arm-none-eabi/4.6.2/../../../../arm-none-eabi/lib/thumb/v7m\libstdc++.a(si_class_type_info.o)
 .debug_line    0x0001d0bf      0x15a e:/elektronik/toolchain/yagarto/bin/../lib/gcc/arm-none-eabi/4.6.2/../../../../arm-none-eabi/lib/thumb/v7m\libstdc++.a(tinfo.o)
 .debug_line    0x0001d219       0xe4 e:/elektronik/toolchain/yagarto/bin/../lib/gcc/arm-none-eabi/4.6.2/../../../../arm-none-eabi/lib/thumb/v7m\libstdc++.a(bad_cast.o)
 .debug_line    0x0001d2fd       0xe6 e:/elektronik/toolchain/yagarto/bin/../lib/gcc/arm-none-eabi/4.6.2/../../../../arm-none-eabi/lib/thumb/v7m\libstdc++.a(bad_typeid.o)
 .debug_line    0x0001d3e3      0x1d6 e:/elektronik/toolchain/yagarto/bin/../lib/gcc/arm-none-eabi/4.6.2/../../../../arm-none-eabi/lib/thumb/v7m\libstdc++.a(class_type_info.o)
 .debug_line    0x0001d5b9      0x34f e:/elektronik/toolchain/yagarto/bin/../lib/gcc/arm-none-eabi/4.6.2/../../../../arm-none-eabi/lib/thumb/v7m\libstdc++.a(eh_alloc.o)
 .debug_line    0x0001d908      0x14f e:/elektronik/toolchain/yagarto/bin/../lib/gcc/arm-none-eabi/4.6.2/../../../../arm-none-eabi/lib/thumb/v7m\libstdc++.a(pbase_type_info.o)
 .debug_line    0x0001da57      0x4aa e:/elektronik/toolchain/yagarto/bin/../lib/gcc/arm-none-eabi/4.6.2/thumb/v7m\libgcc.a(unwind-arm.o)
 .debug_line    0x0001df01       0xbd e:/elektronik/toolchain/yagarto/bin/../lib/gcc/arm-none-eabi/4.6.2/thumb/v7m\libgcc.a(libunwind.o)
 .debug_line    0x0001dfbe      0x1d5 e:/elektronik/toolchain/yagarto/bin/../lib/gcc/arm-none-eabi/4.6.2/thumb/v7m\libgcc.a(pr-support.o)
 .debug_line    0x0001e193       0xb6 e:/elektronik/toolchain/yagarto/bin/../lib/gcc/arm-none-eabi/4.6.2/../../../../arm-none-eabi/lib/thumb/v7m\libg.a(lib_a-abort.o)
 .debug_line    0x0001e249      0x182 e:/elektronik/toolchain/yagarto/bin/../lib/gcc/arm-none-eabi/4.6.2/../../../../arm-none-eabi/lib/thumb/v7m\libg.a(lib_a-assert.o)
 .debug_line    0x0001e3cb       0xc5 e:/elektronik/toolchain/yagarto/bin/../lib/gcc/arm-none-eabi/4.6.2/../../../../arm-none-eabi/lib/thumb/v7m\libg.a(lib_a-atexit.o)
 .debug_line    0x0001e490       0x82 e:/elektronik/toolchain/yagarto/bin/../lib/gcc/arm-none-eabi/4.6.2/../../../../arm-none-eabi/lib/thumb/v7m\libg.a(lib_a-cxa_atexit.o)
 .debug_line    0x0001e512      0x171 e:/elektronik/toolchain/yagarto/bin/../lib/gcc/arm-none-eabi/4.6.2/../../../../arm-none-eabi/lib/thumb/v7m\libg.a(lib_a-exit.o)
 .debug_line    0x0001e683       0xd3 e:/elektronik/toolchain/yagarto/bin/../lib/gcc/arm-none-eabi/4.6.2/../../../../arm-none-eabi/lib/thumb/v7m\libg.a(lib_a-fini.o)
 .debug_line    0x0001e756      0x196 e:/elektronik/toolchain/yagarto/bin/../lib/gcc/arm-none-eabi/4.6.2/../../../../arm-none-eabi/lib/thumb/v7m\libg.a(lib_a-fiprintf.o)
 .debug_line    0x0001e8ec      0x193 e:/elektronik/toolchain/yagarto/bin/../lib/gcc/arm-none-eabi/4.6.2/../../../../arm-none-eabi/lib/thumb/v7m\libg.a(lib_a-fputc.o)
 .debug_line    0x0001ea7f      0x1a2 e:/elektronik/toolchain/yagarto/bin/../lib/gcc/arm-none-eabi/4.6.2/../../../../arm-none-eabi/lib/thumb/v7m\libg.a(lib_a-fputs.o)
 .debug_line    0x0001ec21      0x29b e:/elektronik/toolchain/yagarto/bin/../lib/gcc/arm-none-eabi/4.6.2/../../../../arm-none-eabi/lib/thumb/v7m\libg.a(lib_a-fvwrite.o)
 .debug_line    0x0001eebc      0x1aa e:/elektronik/toolchain/yagarto/bin/../lib/gcc/arm-none-eabi/4.6.2/../../../../arm-none-eabi/lib/thumb/v7m\libg.a(lib_a-fwrite.o)
 .debug_line    0x0001f066      0x116 e:/elektronik/toolchain/yagarto/bin/../lib/gcc/arm-none-eabi/4.6.2/../../../../arm-none-eabi/lib/thumb/v7m\libg.a(lib_a-impure.o)
 .debug_line    0x0001f17c       0xf0 e:/elektronik/toolchain/yagarto/bin/../lib/gcc/arm-none-eabi/4.6.2/../../../../arm-none-eabi/lib/thumb/v7m\libg.a(lib_a-init.o)
 .debug_line    0x0001f26c      0x179 e:/elektronik/toolchain/yagarto/bin/../lib/gcc/arm-none-eabi/4.6.2/../../../../arm-none-eabi/lib/thumb/v7m\libg.a(lib_a-malloc.o)
 .debug_line    0x0001f3e5      0x309 e:/elektronik/toolchain/yagarto/bin/../lib/gcc/arm-none-eabi/4.6.2/../../../../arm-none-eabi/lib/thumb/v7m\libg.a(lib_a-mallocr.o)
 .debug_line    0x0001f6ee      0x151 e:/elektronik/toolchain/yagarto/bin/../lib/gcc/arm-none-eabi/4.6.2/../../../../arm-none-eabi/lib/thumb/v7m\libg.a(lib_a-memchr.o)
 .debug_line    0x0001f83f      0x147 e:/elektronik/toolchain/yagarto/bin/../lib/gcc/arm-none-eabi/4.6.2/../../../../arm-none-eabi/lib/thumb/v7m\libg.a(lib_a-memcmp.o)
 .debug_line    0x0001f986      0x175 e:/elektronik/toolchain/yagarto/bin/../lib/gcc/arm-none-eabi/4.6.2/../../../../arm-none-eabi/lib/thumb/v7m\libg.a(lib_a-memcpy.o)
 .debug_line    0x0001fafb      0x19d e:/elektronik/toolchain/yagarto/bin/../lib/gcc/arm-none-eabi/4.6.2/../../../../arm-none-eabi/lib/thumb/v7m\libg.a(lib_a-memmove.o)
 .debug_line    0x0001fc98      0x183 e:/elektronik/toolchain/yagarto/bin/../lib/gcc/arm-none-eabi/4.6.2/../../../../arm-none-eabi/lib/thumb/v7m\libg.a(lib_a-memset.o)
 .debug_line    0x0001fe1b      0x20d e:/elektronik/toolchain/yagarto/bin/../lib/gcc/arm-none-eabi/4.6.2/../../../../arm-none-eabi/lib/thumb/v7m\libg.a(lib_a-putc.o)
 .debug_line    0x00020028      0x175 e:/elektronik/toolchain/yagarto/bin/../lib/gcc/arm-none-eabi/4.6.2/../../../../arm-none-eabi/lib/thumb/v7m\libg.a(lib_a-realloc.o)
 .debug_line    0x0002019d      0x28d e:/elektronik/toolchain/yagarto/bin/../lib/gcc/arm-none-eabi/4.6.2/../../../../arm-none-eabi/lib/thumb/v7m\libg.a(lib_a-reallocr.o)
 .debug_line    0x0002042a      0x20a e:/elektronik/toolchain/yagarto/bin/../lib/gcc/arm-none-eabi/4.6.2/../../../../arm-none-eabi/lib/thumb/v7m\libg.a(lib_a-signal.o)
 .debug_line    0x00020634      0x1c9 e:/elektronik/toolchain/yagarto/bin/../lib/gcc/arm-none-eabi/4.6.2/../../../../arm-none-eabi/lib/thumb/v7m\libg.a(lib_a-sprintf.o)
 .debug_line    0x000207fd       0xf2 e:/elektronik/toolchain/yagarto/bin/../lib/gcc/arm-none-eabi/4.6.2/../../../../arm-none-eabi/lib/thumb/v7m\libg.a(lib_a-strcat.o)
 .debug_line    0x000208ef       0xca e:/elektronik/toolchain/yagarto/bin/../lib/gcc/arm-none-eabi/4.6.2/../../../../arm-none-eabi/lib/thumb/v7m\libg.a(lib_a-strcmp.o)
 .debug_line    0x000209b9       0xbe e:/elektronik/toolchain/yagarto/bin/../lib/gcc/arm-none-eabi/4.6.2/../../../../arm-none-eabi/lib/thumb/v7m\libg.a(lib_a-strcpy.o)
 .debug_line    0x00020a77      0x117 e:/elektronik/toolchain/yagarto/bin/../lib/gcc/arm-none-eabi/4.6.2/../../../../arm-none-eabi/lib/thumb/v7m\libg.a(lib_a-strlen.o)
 .debug_line    0x00020b8e      0x186 e:/elektronik/toolchain/yagarto/bin/../lib/gcc/arm-none-eabi/4.6.2/../../../../arm-none-eabi/lib/thumb/v7m\libg.a(lib_a-strncmp.o)
 .debug_line    0x00020d14      0x13d e:/elektronik/toolchain/yagarto/bin/../lib/gcc/arm-none-eabi/4.6.2/../../../../arm-none-eabi/lib/thumb/v7m\libg.a(lib_a-strncpy.o)
 .debug_line    0x00020e51      0x921 e:/elektronik/toolchain/yagarto/bin/../lib/gcc/arm-none-eabi/4.6.2/../../../../arm-none-eabi/lib/thumb/v7m\libg.a(lib_a-svfprintf.o)
 .debug_line    0x00021772      0x13b e:/elektronik/toolchain/yagarto/bin/../lib/gcc/arm-none-eabi/4.6.2/../../../../arm-none-eabi/lib/thumb/v7m\libg.a(lib_a-syswrite.o)
 .debug_line    0x000218ad      0x63d e:/elektronik/toolchain/yagarto/bin/../lib/gcc/arm-none-eabi/4.6.2/../../../../arm-none-eabi/lib/thumb/v7m\libg.a(lib_a-vfiprintf.o)
 .debug_line    0x00021eea      0x1c8 e:/elektronik/toolchain/yagarto/bin/../lib/gcc/arm-none-eabi/4.6.2/../../../../arm-none-eabi/lib/thumb/v7m\libg.a(lib_a-wbuf.o)
 .debug_line    0x000220b2      0x1ac e:/elektronik/toolchain/yagarto/bin/../lib/gcc/arm-none-eabi/4.6.2/../../../../arm-none-eabi/lib/thumb/v7m\libg.a(lib_a-wsetup.o)
 .debug_line    0x0002225e      0x166 e:/elektronik/toolchain/yagarto/bin/../lib/gcc/arm-none-eabi/4.6.2/../../../../arm-none-eabi/lib/thumb/v7m\libg.a(lib_a-__atexit.o)
 .debug_line    0x000223c4      0x19c e:/elektronik/toolchain/yagarto/bin/../lib/gcc/arm-none-eabi/4.6.2/../../../../arm-none-eabi/lib/thumb/v7m\libg.a(lib_a-__call_atexit.o)
 .debug_line    0x00022560      0x770 e:/elektronik/toolchain/yagarto/bin/../lib/gcc/arm-none-eabi/4.6.2/../../../../arm-none-eabi/lib/thumb/v7m\libg.a(lib_a-dtoa.o)
 .debug_line    0x00022cd0      0x20f e:/elektronik/toolchain/yagarto/bin/../lib/gcc/arm-none-eabi/4.6.2/../../../../arm-none-eabi/lib/thumb/v7m\libg.a(lib_a-fflush.o)
 .debug_line    0x00022edf      0x231 e:/elektronik/toolchain/yagarto/bin/../lib/gcc/arm-none-eabi/4.6.2/../../../../arm-none-eabi/lib/thumb/v7m\libg.a(lib_a-findfp.o)
 .debug_line    0x00023110      0x1b5 e:/elektronik/toolchain/yagarto/bin/../lib/gcc/arm-none-eabi/4.6.2/../../../../arm-none-eabi/lib/thumb/v7m\libg.a(lib_a-fputwc.o)
 .debug_line    0x000232c5      0x1ef e:/elektronik/toolchain/yagarto/bin/../lib/gcc/arm-none-eabi/4.6.2/../../../../arm-none-eabi/lib/thumb/v7m\libg.a(lib_a-freer.o)
 .debug_line    0x000234b4      0x196 e:/elektronik/toolchain/yagarto/bin/../lib/gcc/arm-none-eabi/4.6.2/../../../../arm-none-eabi/lib/thumb/v7m\libg.a(lib_a-fwalk.o)
 .debug_line    0x0002364a      0x1aa e:/elektronik/toolchain/yagarto/bin/../lib/gcc/arm-none-eabi/4.6.2/../../../../arm-none-eabi/lib/thumb/v7m\libg.a(lib_a-locale.o)
 .debug_line    0x000237f4      0x1ed e:/elektronik/toolchain/yagarto/bin/../lib/gcc/arm-none-eabi/4.6.2/../../../../arm-none-eabi/lib/thumb/v7m\libg.a(lib_a-makebuf.o)
 .debug_line    0x000239e1      0x61f e:/elektronik/toolchain/yagarto/bin/../lib/gcc/arm-none-eabi/4.6.2/../../../../arm-none-eabi/lib/thumb/v7m\libg.a(lib_a-mprec.o)
 .debug_line    0x00024000      0x140 e:/elektronik/toolchain/yagarto/bin/../lib/gcc/arm-none-eabi/4.6.2/../../../../arm-none-eabi/lib/thumb/v7m\libg.a(lib_a-s_fpclassify.o)
 .debug_line    0x00024140      0x19f e:/elektronik/toolchain/yagarto/bin/../lib/gcc/arm-none-eabi/4.6.2/../../../../arm-none-eabi/lib/thumb/v7m\libg.a(lib_a-stdio.o)
 .debug_line    0x000242df      0x607 e:/elektronik/toolchain/yagarto/bin/../lib/gcc/arm-none-eabi/4.6.2/../../../../arm-none-eabi/lib/thumb/v7m\libg.a(lib_a-svfiprintf.o)
 .debug_line    0x000248e6      0x19c e:/elektronik/toolchain/yagarto/bin/../lib/gcc/arm-none-eabi/4.6.2/../../../../arm-none-eabi/lib/thumb/v7m\libg.a(lib_a-wcrtomb.o)
 .debug_line    0x00024a82      0x19e e:/elektronik/toolchain/yagarto/bin/../lib/gcc/arm-none-eabi/4.6.2/../../../../arm-none-eabi/lib/thumb/v7m\libg.a(lib_a-wctomb_r.o)
 .debug_line    0x00024c20      0x154 e:/elektronik/toolchain/yagarto/bin/../lib/gcc/arm-none-eabi/4.6.2/../../../../arm-none-eabi/lib/thumb/v7m\libg.a(lib_a-callocr.o)
 .debug_line    0x00024d74      0x1b6 e:/elektronik/toolchain/yagarto/bin/../lib/gcc/arm-none-eabi/4.6.2/../../../../arm-none-eabi/lib/thumb/v7m\libg.a(lib_a-fclose.o)
 .debug_line    0x00024f2a       0x93 e:/elektronik/toolchain/yagarto/bin/../lib/gcc/arm-none-eabi/4.6.2/thumb/v7m\libgcc.a(_udivsi3.o)
 .debug_line    0x00024fbd       0x70 e:/elektronik/toolchain/yagarto/bin/../lib/gcc/arm-none-eabi/4.6.2/thumb/v7m\libgcc.a(_dvmd_tls.o)
 .debug_line    0x0002502d      0x20d e:/elektronik/toolchain/yagarto/bin/../lib/gcc/arm-none-eabi/4.6.2/thumb/v7m\libgcc.a(_arm_addsubdf3.o)
 .debug_line    0x0002523a      0x229 e:/elektronik/toolchain/yagarto/bin/../lib/gcc/arm-none-eabi/4.6.2/thumb/v7m\libgcc.a(_arm_muldivdf3.o)
 .debug_line    0x00025463      0x10f e:/elektronik/toolchain/yagarto/bin/../lib/gcc/arm-none-eabi/4.6.2/thumb/v7m\libgcc.a(_arm_cmpdf2.o)
 .debug_line    0x00025572       0x87 e:/elektronik/toolchain/yagarto/bin/../lib/gcc/arm-none-eabi/4.6.2/thumb/v7m\libgcc.a(_arm_fixdfsi.o)
 .debug_line    0x000255f9       0x6c e:/elektronik/toolchain/yagarto/bin/../lib/gcc/arm-none-eabi/4.6.2/thumb/v7m/crtn.o

.debug_info     0x00000000    0x476df
 .debug_info    0x00000000       0x71 e:/elektronik/toolchain/yagarto/bin/../lib/gcc/arm-none-eabi/4.6.2/thumb/v7m/crti.o
 .debug_info    0x00000071       0xa5 e:/elektronik/toolchain/yagarto/bin/../lib/gcc/arm-none-eabi/4.6.2/../../../../arm-none-eabi/lib/thumb/v7m/crt0.o
 .debug_info    0x00000116      0x59c ./STM32F4xx_StdPeriph_Driver/src/misc.o
 .debug_info    0x000006b2      0xcfd ./STM32F4xx_StdPeriph_Driver/src/stm32f4xx_adc.o
 .debug_info    0x000013af      0xc6a ./STM32F4xx_StdPeriph_Driver/src/stm32f4xx_can.o
 .debug_info    0x00002019      0x213 ./STM32F4xx_StdPeriph_Driver/src/stm32f4xx_crc.o
 .debug_info    0x0000222c      0x7a6 ./STM32F4xx_StdPeriph_Driver/src/stm32f4xx_cryp.o
 .debug_info    0x000029d2     0x116c ./STM32F4xx_StdPeriph_Driver/src/stm32f4xx_cryp_aes.o
 .debug_info    0x00003b3e      0x568 ./STM32F4xx_StdPeriph_Driver/src/stm32f4xx_cryp_des.o
 .debug_info    0x000040a6      0x6e7 ./STM32F4xx_StdPeriph_Driver/src/stm32f4xx_cryp_tdes.o
 .debug_info    0x0000478d      0x68b ./STM32F4xx_StdPeriph_Driver/src/stm32f4xx_dac.o
 .debug_info    0x00004e18      0x1f7 ./STM32F4xx_StdPeriph_Driver/src/stm32f4xx_dbgmcu.o
 .debug_info    0x0000500f      0x5a5 ./STM32F4xx_StdPeriph_Driver/src/stm32f4xx_dcmi.o
 .debug_info    0x000055b4      0x7ab ./STM32F4xx_StdPeriph_Driver/src/stm32f4xx_dma.o
 .debug_info    0x00005d5f      0x37a ./STM32F4xx_StdPeriph_Driver/src/stm32f4xx_exti.o
 .debug_info    0x000060d9      0x77c ./STM32F4xx_StdPeriph_Driver/src/stm32f4xx_flash.o
 .debug_info    0x00006855      0x9ad ./STM32F4xx_StdPeriph_Driver/src/stm32f4xx_fsmc.o
 .debug_info    0x00007202      0x641 ./STM32F4xx_StdPeriph_Driver/src/stm32f4xx_gpio.o
 .debug_info    0x00007843      0x58e ./STM32F4xx_StdPeriph_Driver/src/stm32f4xx_hash.o
 .debug_info    0x00007dd1      0x4f1 ./STM32F4xx_StdPeriph_Driver/src/stm32f4xx_hash_md5.o
 .debug_info    0x000082c2      0x552 ./STM32F4xx_StdPeriph_Driver/src/stm32f4xx_hash_sha1.o
 .debug_info    0x00008814      0xb99 ./STM32F4xx_StdPeriph_Driver/src/stm32f4xx_i2c.o
 .debug_info    0x000093ad      0x213 ./STM32F4xx_StdPeriph_Driver/src/stm32f4xx_iwdg.o
 .debug_info    0x000095c0      0x546 ./STM32F4xx_StdPeriph_Driver/src/stm32f4xx_pwr.o
 .debug_info    0x00009b06      0xd2c ./STM32F4xx_StdPeriph_Driver/src/stm32f4xx_rcc.o
 .debug_info    0x0000a832      0x299 ./STM32F4xx_StdPeriph_Driver/src/stm32f4xx_rng.o
 .debug_info    0x0000aacb     0x122b ./STM32F4xx_StdPeriph_Driver/src/stm32f4xx_rtc.o
 .debug_info    0x0000bcf6      0x8ac ./STM32F4xx_StdPeriph_Driver/src/stm32f4xx_sdio.o
 .debug_info    0x0000c5a2      0xbd4 ./STM32F4xx_StdPeriph_Driver/src/stm32f4xx_spi.o
 .debug_info    0x0000d176      0x282 ./STM32F4xx_StdPeriph_Driver/src/stm32f4xx_syscfg.o
 .debug_info    0x0000d3f8     0x1e30 ./STM32F4xx_StdPeriph_Driver/src/stm32f4xx_tim.o
 .debug_info    0x0000f228      0xa57 ./STM32F4xx_StdPeriph_Driver/src/stm32f4xx_usart.o
 .debug_info    0x0000fc7f      0x25e ./STM32F4xx_StdPeriph_Driver/src/stm32f4xx_wwdg.o
 .debug_info    0x0000fedd      0x96d ./STM32F4-Discovery/stm32f4_discovery.o
 .debug_info    0x0001084a     0x127e ./STM32F4-Discovery/stm32f4_discovery_audio_codec.o
 .debug_info    0x00011ac8      0x848 ./STM32F4-Discovery/stm32f4_discovery_lis302dl.o
 .debug_info    0x00012310      0x58c ./Menue/CMenue.o
 .debug_info    0x0001289c      0x548 ./GraphicLCD/CGraphicLCD.o
 .debug_info    0x00012de4      0xed5 ./GraphicLCD/CT6963CDriver.o
 .debug_info    0x00013cb9      0x730 ./GraphicLCD/CT6963GPIOInterface.o
 .debug_info    0x000143e9      0x16d ./GraphicLCD/SansSerif12.o
 .debug_info    0x00014556      0x7b8 ./FreeRTOS_EC/Source/AManagedTask.o
 .debug_info    0x00014d0e      0x5a7 ./FreeRTOS_EC/Source/ASyncObject.o
 .debug_info    0x000152b5       0x8e ./FreeRTOS_EC/Source/ATimer.o
 .debug_info    0x00015343      0x630 ./FreeRTOS_EC/Source/CBinarySemaphore.o
 .debug_info    0x00015973      0x63e ./FreeRTOS_EC/Source/CCountingSemaphore.o
 .debug_info    0x00015fb1      0x1d6 ./FreeRTOS_EC/Source/CFreeRTOS.o
 .debug_info    0x00016187      0xc9c ./FreeRTOS_EC/Source/CMessageTask.o
 .debug_info    0x00016e23      0x605 ./FreeRTOS_EC/Source/CMutex.o
 .debug_info    0x00017428      0x834 ./FreeRTOS_EC/Source/CQueue.o
 .debug_info    0x00017c5c      0x588 ./FreeRTOS_EC/Source/CRecursiveMutex.o
 .debug_info    0x000181e4      0xa30 ./FreeRTOS_EC/Source/CTask.o
 .debug_info    0x00018c14      0x24d ./FreeRTOS/Source/portable/GCC/ARM_CM4F/port.o
 .debug_info    0x00018e61      0x4ff ./FreeRTOS/Source/croutine.o
 .debug_info    0x00019360      0x2de ./FreeRTOS/Source/list.o
 .debug_info    0x0001963e      0x793 ./FreeRTOS/Source/queue.o
 .debug_info    0x00019dd1     0x10f7 ./FreeRTOS/Source/tasks.o
 .debug_info    0x0001aec8       0x9c ./FreeRTOS/Source/timers.o
 .debug_info    0x0001af64      0x661 ./CLedHeartBeatSTM32F4Disc.o
 .debug_info    0x0001b5c5      0x3ac ./main.o
 .debug_info    0x0001b971       0x6d ./startup_stm32f4xx.o
 .debug_info    0x0001b9de      0x11e ./stm32f4xx_it.o
 .debug_info    0x0001bafc      0xe9e ./syscalls.o
 .debug_info    0x0001c99a      0x625 ./system_stm32f4xx.o
 .debug_info    0x0001cfbf      0x610 ./ustime.o
 .debug_info    0x0001d5cf       0xd3 e:/elektronik/toolchain/yagarto/bin/../lib/gcc/arm-none-eabi/4.6.2/../../../../arm-none-eabi/lib/thumb/v7m\libstdc++.a(atexit_arm.o)
 .debug_info    0x0001d6a2      0x43f e:/elektronik/toolchain/yagarto/bin/../lib/gcc/arm-none-eabi/4.6.2/../../../../arm-none-eabi/lib/thumb/v7m\libstdc++.a(del_op.o)
 .debug_info    0x0001dae1       0xb7 e:/elektronik/toolchain/yagarto/bin/../lib/gcc/arm-none-eabi/4.6.2/../../../../arm-none-eabi/lib/thumb/v7m\libstdc++.a(pure.o)
 .debug_info    0x0001db98      0x5e3 e:/elektronik/toolchain/yagarto/bin/../lib/gcc/arm-none-eabi/4.6.2/../../../../arm-none-eabi/lib/thumb/v7m\libstdc++.a(eh_terminate.o)
 .debug_info    0x0001e17b       0xa4 e:/elektronik/toolchain/yagarto/bin/../lib/gcc/arm-none-eabi/4.6.2/../../../../arm-none-eabi/lib/thumb/v7m\libstdc++.a(eh_term_handler.o)
 .debug_info    0x0001e21f       0xa4 e:/elektronik/toolchain/yagarto/bin/../lib/gcc/arm-none-eabi/4.6.2/../../../../arm-none-eabi/lib/thumb/v7m\libstdc++.a(eh_unex_handler.o)
 .debug_info    0x0001e2c3     0x11ba e:/elektronik/toolchain/yagarto/bin/../lib/gcc/arm-none-eabi/4.6.2/../../../../arm-none-eabi/lib/thumb/v7m\libstdc++.a(vterminate.o)
 .debug_info    0x0001f47d     0x2b85 e:/elektronik/toolchain/yagarto/bin/../lib/gcc/arm-none-eabi/4.6.2/../../../../arm-none-eabi/lib/thumb/v7m\libstdc++.a(cp-demangle.o)
 .debug_info    0x00022002      0x7fe e:/elektronik/toolchain/yagarto/bin/../lib/gcc/arm-none-eabi/4.6.2/../../../../arm-none-eabi/lib/thumb/v7m\libstdc++.a(eh_arm.o)
 .debug_info    0x00022800      0x561 e:/elektronik/toolchain/yagarto/bin/../lib/gcc/arm-none-eabi/4.6.2/../../../../arm-none-eabi/lib/thumb/v7m\libstdc++.a(eh_aux_runtime.o)
 .debug_info    0x00022d61      0xc79 e:/elektronik/toolchain/yagarto/bin/../lib/gcc/arm-none-eabi/4.6.2/../../../../arm-none-eabi/lib/thumb/v7m\libstdc++.a(eh_call.o)
 .debug_info    0x000239da      0x983 e:/elektronik/toolchain/yagarto/bin/../lib/gcc/arm-none-eabi/4.6.2/../../../../arm-none-eabi/lib/thumb/v7m\libstdc++.a(eh_catch.o)
 .debug_info    0x0002435d      0x583 e:/elektronik/toolchain/yagarto/bin/../lib/gcc/arm-none-eabi/4.6.2/../../../../arm-none-eabi/lib/thumb/v7m\libstdc++.a(eh_exception.o)
 .debug_info    0x000248e0      0x788 e:/elektronik/toolchain/yagarto/bin/../lib/gcc/arm-none-eabi/4.6.2/../../../../arm-none-eabi/lib/thumb/v7m\libstdc++.a(eh_globals.o)
 .debug_info    0x00025068     0x16cc e:/elektronik/toolchain/yagarto/bin/../lib/gcc/arm-none-eabi/4.6.2/../../../../arm-none-eabi/lib/thumb/v7m\libstdc++.a(eh_personality.o)
 .debug_info    0x00026734      0x62c e:/elektronik/toolchain/yagarto/bin/../lib/gcc/arm-none-eabi/4.6.2/../../../../arm-none-eabi/lib/thumb/v7m\libstdc++.a(eh_throw.o)
 .debug_info    0x00026d60      0x50f e:/elektronik/toolchain/yagarto/bin/../lib/gcc/arm-none-eabi/4.6.2/../../../../arm-none-eabi/lib/thumb/v7m\libstdc++.a(eh_type.o)
 .debug_info    0x0002726f      0x1e6 e:/elektronik/toolchain/yagarto/bin/../lib/gcc/arm-none-eabi/4.6.2/../../../../arm-none-eabi/lib/thumb/v7m\libstdc++.a(fundamental_type_info.o)
 .debug_info    0x00027455      0x40f e:/elektronik/toolchain/yagarto/bin/../lib/gcc/arm-none-eabi/4.6.2/../../../../arm-none-eabi/lib/thumb/v7m\libstdc++.a(pointer_type_info.o)
 .debug_info    0x00027864      0x7f2 e:/elektronik/toolchain/yagarto/bin/../lib/gcc/arm-none-eabi/4.6.2/../../../../arm-none-eabi/lib/thumb/v7m\libstdc++.a(si_class_type_info.o)
 .debug_info    0x00028056      0x53a e:/elektronik/toolchain/yagarto/bin/../lib/gcc/arm-none-eabi/4.6.2/../../../../arm-none-eabi/lib/thumb/v7m\libstdc++.a(tinfo.o)
 .debug_info    0x00028590      0x1a3 e:/elektronik/toolchain/yagarto/bin/../lib/gcc/arm-none-eabi/4.6.2/../../../../arm-none-eabi/lib/thumb/v7m\libstdc++.a(bad_cast.o)
 .debug_info    0x00028733      0x1a3 e:/elektronik/toolchain/yagarto/bin/../lib/gcc/arm-none-eabi/4.6.2/../../../../arm-none-eabi/lib/thumb/v7m\libstdc++.a(bad_typeid.o)
 .debug_info    0x000288d6      0x8c5 e:/elektronik/toolchain/yagarto/bin/../lib/gcc/arm-none-eabi/4.6.2/../../../../arm-none-eabi/lib/thumb/v7m\libstdc++.a(class_type_info.o)
 .debug_info    0x0002919b      0xfd4 e:/elektronik/toolchain/yagarto/bin/../lib/gcc/arm-none-eabi/4.6.2/../../../../arm-none-eabi/lib/thumb/v7m\libstdc++.a(eh_alloc.o)
 .debug_info    0x0002a16f      0x4df e:/elektronik/toolchain/yagarto/bin/../lib/gcc/arm-none-eabi/4.6.2/../../../../arm-none-eabi/lib/thumb/v7m\libstdc++.a(pbase_type_info.o)
 .debug_info    0x0002a64e     0x123f e:/elektronik/toolchain/yagarto/bin/../lib/gcc/arm-none-eabi/4.6.2/thumb/v7m\libgcc.a(unwind-arm.o)
 .debug_info    0x0002b88d       0xa6 e:/elektronik/toolchain/yagarto/bin/../lib/gcc/arm-none-eabi/4.6.2/thumb/v7m\libgcc.a(libunwind.o)
 .debug_info    0x0002b933      0x5f5 e:/elektronik/toolchain/yagarto/bin/../lib/gcc/arm-none-eabi/4.6.2/thumb/v7m\libgcc.a(pr-support.o)
 .debug_info    0x0002bf28       0x88 e:/elektronik/toolchain/yagarto/bin/../lib/gcc/arm-none-eabi/4.6.2/../../../../arm-none-eabi/lib/thumb/v7m\libg.a(lib_a-abort.o)
 .debug_info    0x0002bfb0      0x9e3 e:/elektronik/toolchain/yagarto/bin/../lib/gcc/arm-none-eabi/4.6.2/../../../../arm-none-eabi/lib/thumb/v7m\libg.a(lib_a-assert.o)
 .debug_info    0x0002c993       0xc1 e:/elektronik/toolchain/yagarto/bin/../lib/gcc/arm-none-eabi/4.6.2/../../../../arm-none-eabi/lib/thumb/v7m\libg.a(lib_a-atexit.o)
 .debug_info    0x0002ca54       0xee e:/elektronik/toolchain/yagarto/bin/../lib/gcc/arm-none-eabi/4.6.2/../../../../arm-none-eabi/lib/thumb/v7m\libg.a(lib_a-cxa_atexit.o)
 .debug_info    0x0002cb42      0x974 e:/elektronik/toolchain/yagarto/bin/../lib/gcc/arm-none-eabi/4.6.2/../../../../arm-none-eabi/lib/thumb/v7m\libg.a(lib_a-exit.o)
 .debug_info    0x0002d4b6       0xfb e:/elektronik/toolchain/yagarto/bin/../lib/gcc/arm-none-eabi/4.6.2/../../../../arm-none-eabi/lib/thumb/v7m\libg.a(lib_a-fini.o)
 .debug_info    0x0002d5b1      0xa41 e:/elektronik/toolchain/yagarto/bin/../lib/gcc/arm-none-eabi/4.6.2/../../../../arm-none-eabi/lib/thumb/v7m\libg.a(lib_a-fiprintf.o)
 .debug_info    0x0002dff2      0x9f3 e:/elektronik/toolchain/yagarto/bin/../lib/gcc/arm-none-eabi/4.6.2/../../../../arm-none-eabi/lib/thumb/v7m\libg.a(lib_a-fputc.o)
 .debug_info    0x0002e9e5      0xa7b e:/elektronik/toolchain/yagarto/bin/../lib/gcc/arm-none-eabi/4.6.2/../../../../arm-none-eabi/lib/thumb/v7m\libg.a(lib_a-fputs.o)
 .debug_info    0x0002f460      0xab7 e:/elektronik/toolchain/yagarto/bin/../lib/gcc/arm-none-eabi/4.6.2/../../../../arm-none-eabi/lib/thumb/v7m\libg.a(lib_a-fvwrite.o)
 .debug_info    0x0002ff17      0xab7 e:/elektronik/toolchain/yagarto/bin/../lib/gcc/arm-none-eabi/4.6.2/../../../../arm-none-eabi/lib/thumb/v7m\libg.a(lib_a-fwrite.o)
 .debug_info    0x000309ce      0x966 e:/elektronik/toolchain/yagarto/bin/../lib/gcc/arm-none-eabi/4.6.2/../../../../arm-none-eabi/lib/thumb/v7m\libg.a(lib_a-impure.o)
 .debug_info    0x00031334      0x12f e:/elektronik/toolchain/yagarto/bin/../lib/gcc/arm-none-eabi/4.6.2/../../../../arm-none-eabi/lib/thumb/v7m\libg.a(lib_a-init.o)
 .debug_info    0x00031463      0x9a5 e:/elektronik/toolchain/yagarto/bin/../lib/gcc/arm-none-eabi/4.6.2/../../../../arm-none-eabi/lib/thumb/v7m\libg.a(lib_a-malloc.o)
 .debug_info    0x00031e08      0xd6b e:/elektronik/toolchain/yagarto/bin/../lib/gcc/arm-none-eabi/4.6.2/../../../../arm-none-eabi/lib/thumb/v7m\libg.a(lib_a-mallocr.o)
 .debug_info    0x00032b73      0x122 e:/elektronik/toolchain/yagarto/bin/../lib/gcc/arm-none-eabi/4.6.2/../../../../arm-none-eabi/lib/thumb/v7m\libg.a(lib_a-memchr.o)
 .debug_info    0x00032c95      0x110 e:/elektronik/toolchain/yagarto/bin/../lib/gcc/arm-none-eabi/4.6.2/../../../../arm-none-eabi/lib/thumb/v7m\libg.a(lib_a-memcmp.o)
 .debug_info    0x00032da5      0x130 e:/elektronik/toolchain/yagarto/bin/../lib/gcc/arm-none-eabi/4.6.2/../../../../arm-none-eabi/lib/thumb/v7m\libg.a(lib_a-memcpy.o)
 .debug_info    0x00032ed5      0x12e e:/elektronik/toolchain/yagarto/bin/../lib/gcc/arm-none-eabi/4.6.2/../../../../arm-none-eabi/lib/thumb/v7m\libg.a(lib_a-memmove.o)
 .debug_info    0x00033003      0x116 e:/elektronik/toolchain/yagarto/bin/../lib/gcc/arm-none-eabi/4.6.2/../../../../arm-none-eabi/lib/thumb/v7m\libg.a(lib_a-memset.o)
 .debug_info    0x00033119      0x9f7 e:/elektronik/toolchain/yagarto/bin/../lib/gcc/arm-none-eabi/4.6.2/../../../../arm-none-eabi/lib/thumb/v7m\libg.a(lib_a-putc.o)
 .debug_info    0x00033b10      0x98b e:/elektronik/toolchain/yagarto/bin/../lib/gcc/arm-none-eabi/4.6.2/../../../../arm-none-eabi/lib/thumb/v7m\libg.a(lib_a-realloc.o)
 .debug_info    0x0003449b      0xc0c e:/elektronik/toolchain/yagarto/bin/../lib/gcc/arm-none-eabi/4.6.2/../../../../arm-none-eabi/lib/thumb/v7m\libg.a(lib_a-reallocr.o)
 .debug_info    0x000350a7      0xb5b e:/elektronik/toolchain/yagarto/bin/../lib/gcc/arm-none-eabi/4.6.2/../../../../arm-none-eabi/lib/thumb/v7m\libg.a(lib_a-signal.o)
 .debug_info    0x00035c02      0xa62 e:/elektronik/toolchain/yagarto/bin/../lib/gcc/arm-none-eabi/4.6.2/../../../../arm-none-eabi/lib/thumb/v7m\libg.a(lib_a-sprintf.o)
 .debug_info    0x00036664       0xe6 e:/elektronik/toolchain/yagarto/bin/../lib/gcc/arm-none-eabi/4.6.2/../../../../arm-none-eabi/lib/thumb/v7m\libg.a(lib_a-strcat.o)
 .debug_info    0x0003674a       0xe7 e:/elektronik/toolchain/yagarto/bin/../lib/gcc/arm-none-eabi/4.6.2/../../../../arm-none-eabi/lib/thumb/v7m\libg.a(lib_a-strcmp.o)
 .debug_info    0x00036831       0xb9 e:/elektronik/toolchain/yagarto/bin/../lib/gcc/arm-none-eabi/4.6.2/../../../../arm-none-eabi/lib/thumb/v7m\libg.a(lib_a-strcpy.o)
 .debug_info    0x000368ea       0xb1 e:/elektronik/toolchain/yagarto/bin/../lib/gcc/arm-none-eabi/4.6.2/../../../../arm-none-eabi/lib/thumb/v7m\libg.a(lib_a-strlen.o)
 .debug_info    0x0003699b       0xf2 e:/elektronik/toolchain/yagarto/bin/../lib/gcc/arm-none-eabi/4.6.2/../../../../arm-none-eabi/lib/thumb/v7m\libg.a(lib_a-strncmp.o)
 .debug_info    0x00036a8d      0x125 e:/elektronik/toolchain/yagarto/bin/../lib/gcc/arm-none-eabi/4.6.2/../../../../arm-none-eabi/lib/thumb/v7m\libg.a(lib_a-strncpy.o)
 .debug_info    0x00036bb2     0x1015 e:/elektronik/toolchain/yagarto/bin/../lib/gcc/arm-none-eabi/4.6.2/../../../../arm-none-eabi/lib/thumb/v7m\libg.a(lib_a-svfprintf.o)
 .debug_info    0x00037bc7      0x9a2 e:/elektronik/toolchain/yagarto/bin/../lib/gcc/arm-none-eabi/4.6.2/../../../../arm-none-eabi/lib/thumb/v7m\libg.a(lib_a-syswrite.o)
 .debug_info    0x00038569      0xf50 e:/elektronik/toolchain/yagarto/bin/../lib/gcc/arm-none-eabi/4.6.2/../../../../arm-none-eabi/lib/thumb/v7m\libg.a(lib_a-vfiprintf.o)
 .debug_info    0x000394b9      0x9e5 e:/elektronik/toolchain/yagarto/bin/../lib/gcc/arm-none-eabi/4.6.2/../../../../arm-none-eabi/lib/thumb/v7m\libg.a(lib_a-wbuf.o)
 .debug_info    0x00039e9e      0x992 e:/elektronik/toolchain/yagarto/bin/../lib/gcc/arm-none-eabi/4.6.2/../../../../arm-none-eabi/lib/thumb/v7m\libg.a(lib_a-wsetup.o)
 .debug_info    0x0003a830      0x9ef e:/elektronik/toolchain/yagarto/bin/../lib/gcc/arm-none-eabi/4.6.2/../../../../arm-none-eabi/lib/thumb/v7m\libg.a(lib_a-__atexit.o)
 .debug_info    0x0003b21f      0x9fc e:/elektronik/toolchain/yagarto/bin/../lib/gcc/arm-none-eabi/4.6.2/../../../../arm-none-eabi/lib/thumb/v7m\libg.a(lib_a-__call_atexit.o)
 .debug_info    0x0003bc1b      0xdce e:/elektronik/toolchain/yagarto/bin/../lib/gcc/arm-none-eabi/4.6.2/../../../../arm-none-eabi/lib/thumb/v7m\libg.a(lib_a-dtoa.o)
 .debug_info    0x0003c9e9      0xaae e:/elektronik/toolchain/yagarto/bin/../lib/gcc/arm-none-eabi/4.6.2/../../../../arm-none-eabi/lib/thumb/v7m\libg.a(lib_a-fflush.o)
 .debug_info    0x0003d497      0xbfa e:/elektronik/toolchain/yagarto/bin/../lib/gcc/arm-none-eabi/4.6.2/../../../../arm-none-eabi/lib/thumb/v7m\libg.a(lib_a-findfp.o)
 .debug_info    0x0003e091      0xaa5 e:/elektronik/toolchain/yagarto/bin/../lib/gcc/arm-none-eabi/4.6.2/../../../../arm-none-eabi/lib/thumb/v7m\libg.a(lib_a-fputwc.o)
 .debug_info    0x0003eb36      0xc40 e:/elektronik/toolchain/yagarto/bin/../lib/gcc/arm-none-eabi/4.6.2/../../../../arm-none-eabi/lib/thumb/v7m\libg.a(lib_a-freer.o)
 .debug_info    0x0003f776      0xb36 e:/elektronik/toolchain/yagarto/bin/../lib/gcc/arm-none-eabi/4.6.2/../../../../arm-none-eabi/lib/thumb/v7m\libg.a(lib_a-fwalk.o)
 .debug_info    0x000402ac      0xc96 e:/elektronik/toolchain/yagarto/bin/../lib/gcc/arm-none-eabi/4.6.2/../../../../arm-none-eabi/lib/thumb/v7m\libg.a(lib_a-locale.o)
 .debug_info    0x00040f42      0xb45 e:/elektronik/toolchain/yagarto/bin/../lib/gcc/arm-none-eabi/4.6.2/../../../../arm-none-eabi/lib/thumb/v7m\libg.a(lib_a-makebuf.o)
 .debug_info    0x00041a87     0x14d9 e:/elektronik/toolchain/yagarto/bin/../lib/gcc/arm-none-eabi/4.6.2/../../../../arm-none-eabi/lib/thumb/v7m\libg.a(lib_a-mprec.o)
 .debug_info    0x00042f60      0x143 e:/elektronik/toolchain/yagarto/bin/../lib/gcc/arm-none-eabi/4.6.2/../../../../arm-none-eabi/lib/thumb/v7m\libg.a(lib_a-s_fpclassify.o)
 .debug_info    0x000430a3      0xb35 e:/elektronik/toolchain/yagarto/bin/../lib/gcc/arm-none-eabi/4.6.2/../../../../arm-none-eabi/lib/thumb/v7m\libg.a(lib_a-stdio.o)
 .debug_info    0x00043bd8      0xd97 e:/elektronik/toolchain/yagarto/bin/../lib/gcc/arm-none-eabi/4.6.2/../../../../arm-none-eabi/lib/thumb/v7m\libg.a(lib_a-svfiprintf.o)
 .debug_info    0x0004496f      0xa99 e:/elektronik/toolchain/yagarto/bin/../lib/gcc/arm-none-eabi/4.6.2/../../../../arm-none-eabi/lib/thumb/v7m\libg.a(lib_a-wcrtomb.o)
 .debug_info    0x00045408      0xa61 e:/elektronik/toolchain/yagarto/bin/../lib/gcc/arm-none-eabi/4.6.2/../../../../arm-none-eabi/lib/thumb/v7m\libg.a(lib_a-wctomb_r.o)
 .debug_info    0x00045e69      0xa4e e:/elektronik/toolchain/yagarto/bin/../lib/gcc/arm-none-eabi/4.6.2/../../../../arm-none-eabi/lib/thumb/v7m\libg.a(lib_a-callocr.o)
 .debug_info    0x000468b7      0x9cb e:/elektronik/toolchain/yagarto/bin/../lib/gcc/arm-none-eabi/4.6.2/../../../../arm-none-eabi/lib/thumb/v7m\libg.a(lib_a-fclose.o)
 .debug_info    0x00047282       0xa8 e:/elektronik/toolchain/yagarto/bin/../lib/gcc/arm-none-eabi/4.6.2/thumb/v7m\libgcc.a(_udivsi3.o)
 .debug_info    0x0004732a       0xa8 e:/elektronik/toolchain/yagarto/bin/../lib/gcc/arm-none-eabi/4.6.2/thumb/v7m\libgcc.a(_dvmd_tls.o)
 .debug_info    0x000473d2       0xa7 e:/elektronik/toolchain/yagarto/bin/../lib/gcc/arm-none-eabi/4.6.2/thumb/v7m\libgcc.a(_arm_addsubdf3.o)
 .debug_info    0x00047479       0xa7 e:/elektronik/toolchain/yagarto/bin/../lib/gcc/arm-none-eabi/4.6.2/thumb/v7m\libgcc.a(_arm_muldivdf3.o)
 .debug_info    0x00047520       0xa7 e:/elektronik/toolchain/yagarto/bin/../lib/gcc/arm-none-eabi/4.6.2/thumb/v7m\libgcc.a(_arm_cmpdf2.o)
 .debug_info    0x000475c7       0xa7 e:/elektronik/toolchain/yagarto/bin/../lib/gcc/arm-none-eabi/4.6.2/thumb/v7m\libgcc.a(_arm_fixdfsi.o)
 .debug_info    0x0004766e       0x71 e:/elektronik/toolchain/yagarto/bin/../lib/gcc/arm-none-eabi/4.6.2/thumb/v7m/crtn.o

.debug_abbrev   0x00000000     0xef9f
 .debug_abbrev  0x00000000       0x12 e:/elektronik/toolchain/yagarto/bin/../lib/gcc/arm-none-eabi/4.6.2/thumb/v7m/crti.o
 .debug_abbrev  0x00000012       0x14 e:/elektronik/toolchain/yagarto/bin/../lib/gcc/arm-none-eabi/4.6.2/../../../../arm-none-eabi/lib/thumb/v7m/crt0.o
 .debug_abbrev  0x00000026      0x12a ./STM32F4xx_StdPeriph_Driver/src/misc.o
 .debug_abbrev  0x00000150      0x18d ./STM32F4xx_StdPeriph_Driver/src/stm32f4xx_adc.o
 .debug_abbrev  0x000002dd      0x1b0 ./STM32F4xx_StdPeriph_Driver/src/stm32f4xx_can.o
 .debug_abbrev  0x0000048d      0x10e ./STM32F4xx_StdPeriph_Driver/src/stm32f4xx_crc.o
 .debug_abbrev  0x0000059b      0x184 ./STM32F4xx_StdPeriph_Driver/src/stm32f4xx_cryp.o
 .debug_abbrev  0x0000071f      0x1d6 ./STM32F4xx_StdPeriph_Driver/src/stm32f4xx_cryp_aes.o
 .debug_abbrev  0x000008f5      0x161 ./STM32F4xx_StdPeriph_Driver/src/stm32f4xx_cryp_des.o
 .debug_abbrev  0x00000a56      0x161 ./STM32F4xx_StdPeriph_Driver/src/stm32f4xx_cryp_tdes.o
 .debug_abbrev  0x00000bb7      0x176 ./STM32F4xx_StdPeriph_Driver/src/stm32f4xx_dac.o
 .debug_abbrev  0x00000d2d       0xde ./STM32F4xx_StdPeriph_Driver/src/stm32f4xx_dbgmcu.o
 .debug_abbrev  0x00000e0b      0x17e ./STM32F4xx_StdPeriph_Driver/src/stm32f4xx_dcmi.o
 .debug_abbrev  0x00000f89      0x152 ./STM32F4xx_StdPeriph_Driver/src/stm32f4xx_dma.o
 .debug_abbrev  0x000010db      0x19c ./STM32F4xx_StdPeriph_Driver/src/stm32f4xx_exti.o
 .debug_abbrev  0x00001277      0x16c ./STM32F4xx_StdPeriph_Driver/src/stm32f4xx_flash.o
 .debug_abbrev  0x000013e3      0x16a ./STM32F4xx_StdPeriph_Driver/src/stm32f4xx_fsmc.o
 .debug_abbrev  0x0000154d      0x186 ./STM32F4xx_StdPeriph_Driver/src/stm32f4xx_gpio.o
 .debug_abbrev  0x000016d3      0x1a5 ./STM32F4xx_StdPeriph_Driver/src/stm32f4xx_hash.o
 .debug_abbrev  0x00001878      0x193 ./STM32F4xx_StdPeriph_Driver/src/stm32f4xx_hash_md5.o
 .debug_abbrev  0x00001a0b      0x193 ./STM32F4xx_StdPeriph_Driver/src/stm32f4xx_hash_sha1.o
 .debug_abbrev  0x00001b9e      0x161 ./STM32F4xx_StdPeriph_Driver/src/stm32f4xx_i2c.o
 .debug_abbrev  0x00001cff       0xfe ./STM32F4xx_StdPeriph_Driver/src/stm32f4xx_iwdg.o
 .debug_abbrev  0x00001dfd      0x179 ./STM32F4xx_StdPeriph_Driver/src/stm32f4xx_pwr.o
 .debug_abbrev  0x00001f76      0x1bb ./STM32F4xx_StdPeriph_Driver/src/stm32f4xx_rcc.o
 .debug_abbrev  0x00002131      0x13b ./STM32F4xx_StdPeriph_Driver/src/stm32f4xx_rng.o
 .debug_abbrev  0x0000226c      0x16f ./STM32F4xx_StdPeriph_Driver/src/stm32f4xx_rtc.o
 .debug_abbrev  0x000023db      0x171 ./STM32F4xx_StdPeriph_Driver/src/stm32f4xx_sdio.o
 .debug_abbrev  0x0000254c      0x164 ./STM32F4xx_StdPeriph_Driver/src/stm32f4xx_spi.o
 .debug_abbrev  0x000026b0      0x12e ./STM32F4xx_StdPeriph_Driver/src/stm32f4xx_syscfg.o
 .debug_abbrev  0x000027de      0x167 ./STM32F4xx_StdPeriph_Driver/src/stm32f4xx_tim.o
 .debug_abbrev  0x00002945      0x152 ./STM32F4xx_StdPeriph_Driver/src/stm32f4xx_usart.o
 .debug_abbrev  0x00002a97      0x122 ./STM32F4xx_StdPeriph_Driver/src/stm32f4xx_wwdg.o
 .debug_abbrev  0x00002bb9      0x17a ./STM32F4-Discovery/stm32f4_discovery.o
 .debug_abbrev  0x00002d33      0x20d ./STM32F4-Discovery/stm32f4_discovery_audio_codec.o
 .debug_abbrev  0x00002f40      0x1c4 ./STM32F4-Discovery/stm32f4_discovery_lis302dl.o
 .debug_abbrev  0x00003104      0x259 ./Menue/CMenue.o
 .debug_abbrev  0x0000335d      0x1d6 ./GraphicLCD/CGraphicLCD.o
 .debug_abbrev  0x00003533      0x24d ./GraphicLCD/CT6963CDriver.o
 .debug_abbrev  0x00003780      0x292 ./GraphicLCD/CT6963GPIOInterface.o
 .debug_abbrev  0x00003a12       0x96 ./GraphicLCD/SansSerif12.o
 .debug_abbrev  0x00003aa8      0x31e ./FreeRTOS_EC/Source/AManagedTask.o
 .debug_abbrev  0x00003dc6      0x242 ./FreeRTOS_EC/Source/ASyncObject.o
 .debug_abbrev  0x00004008       0x51 ./FreeRTOS_EC/Source/ATimer.o
 .debug_abbrev  0x00004059      0x247 ./FreeRTOS_EC/Source/CBinarySemaphore.o
 .debug_abbrev  0x000042a0      0x238 ./FreeRTOS_EC/Source/CCountingSemaphore.o
 .debug_abbrev  0x000044d8      0x104 ./FreeRTOS_EC/Source/CFreeRTOS.o
 .debug_abbrev  0x000045dc      0x376 ./FreeRTOS_EC/Source/CMessageTask.o
 .debug_abbrev  0x00004952      0x231 ./FreeRTOS_EC/Source/CMutex.o
 .debug_abbrev  0x00004b83      0x277 ./FreeRTOS_EC/Source/CQueue.o
 .debug_abbrev  0x00004dfa      0x203 ./FreeRTOS_EC/Source/CRecursiveMutex.o
 .debug_abbrev  0x00004ffd      0x334 ./FreeRTOS_EC/Source/CTask.o
 .debug_abbrev  0x00005331      0x14d ./FreeRTOS/Source/portable/GCC/ARM_CM4F/port.o
 .debug_abbrev  0x0000547e      0x19b ./FreeRTOS/Source/croutine.o
 .debug_abbrev  0x00005619       0xb6 ./FreeRTOS/Source/list.o
 .debug_abbrev  0x000056cf      0x13e ./FreeRTOS/Source/queue.o
 .debug_abbrev  0x0000580d      0x1a0 ./FreeRTOS/Source/tasks.o
 .debug_abbrev  0x000059ad       0x51 ./FreeRTOS/Source/timers.o
 .debug_abbrev  0x000059fe      0x2af ./CLedHeartBeatSTM32F4Disc.o
 .debug_abbrev  0x00005cad      0x18a ./main.o
 .debug_abbrev  0x00005e37       0x12 ./startup_stm32f4xx.o
 .debug_abbrev  0x00005e49       0x68 ./stm32f4xx_it.o
 .debug_abbrev  0x00005eb1      0x238 ./syscalls.o
 .debug_abbrev  0x000060e9      0x144 ./system_stm32f4xx.o
 .debug_abbrev  0x0000622d      0x11d ./ustime.o
 .debug_abbrev  0x0000634a       0x9c e:/elektronik/toolchain/yagarto/bin/../lib/gcc/arm-none-eabi/4.6.2/../../../../arm-none-eabi/lib/thumb/v7m\libstdc++.a(atexit_arm.o)
 .debug_abbrev  0x000063e6      0x11d e:/elektronik/toolchain/yagarto/bin/../lib/gcc/arm-none-eabi/4.6.2/../../../../arm-none-eabi/lib/thumb/v7m\libstdc++.a(del_op.o)
 .debug_abbrev  0x00006503       0x6d e:/elektronik/toolchain/yagarto/bin/../lib/gcc/arm-none-eabi/4.6.2/../../../../arm-none-eabi/lib/thumb/v7m\libstdc++.a(pure.o)
 .debug_abbrev  0x00006570      0x219 e:/elektronik/toolchain/yagarto/bin/../lib/gcc/arm-none-eabi/4.6.2/../../../../arm-none-eabi/lib/thumb/v7m\libstdc++.a(eh_terminate.o)
 .debug_abbrev  0x00006789       0x7c e:/elektronik/toolchain/yagarto/bin/../lib/gcc/arm-none-eabi/4.6.2/../../../../arm-none-eabi/lib/thumb/v7m\libstdc++.a(eh_term_handler.o)
 .debug_abbrev  0x00006805       0x7c e:/elektronik/toolchain/yagarto/bin/../lib/gcc/arm-none-eabi/4.6.2/../../../../arm-none-eabi/lib/thumb/v7m\libstdc++.a(eh_unex_handler.o)
 .debug_abbrev  0x00006881      0x2c0 e:/elektronik/toolchain/yagarto/bin/../lib/gcc/arm-none-eabi/4.6.2/../../../../arm-none-eabi/lib/thumb/v7m\libstdc++.a(vterminate.o)
 .debug_abbrev  0x00006b41      0x1d3 e:/elektronik/toolchain/yagarto/bin/../lib/gcc/arm-none-eabi/4.6.2/../../../../arm-none-eabi/lib/thumb/v7m\libstdc++.a(cp-demangle.o)
 .debug_abbrev  0x00006d14      0x29a e:/elektronik/toolchain/yagarto/bin/../lib/gcc/arm-none-eabi/4.6.2/../../../../arm-none-eabi/lib/thumb/v7m\libstdc++.a(eh_arm.o)
 .debug_abbrev  0x00006fae      0x190 e:/elektronik/toolchain/yagarto/bin/../lib/gcc/arm-none-eabi/4.6.2/../../../../arm-none-eabi/lib/thumb/v7m\libstdc++.a(eh_aux_runtime.o)
 .debug_abbrev  0x0000713e      0x36e e:/elektronik/toolchain/yagarto/bin/../lib/gcc/arm-none-eabi/4.6.2/../../../../arm-none-eabi/lib/thumb/v7m\libstdc++.a(eh_call.o)
 .debug_abbrev  0x000074ac      0x290 e:/elektronik/toolchain/yagarto/bin/../lib/gcc/arm-none-eabi/4.6.2/../../../../arm-none-eabi/lib/thumb/v7m\libstdc++.a(eh_catch.o)
 .debug_abbrev  0x0000773c      0x226 e:/elektronik/toolchain/yagarto/bin/../lib/gcc/arm-none-eabi/4.6.2/../../../../arm-none-eabi/lib/thumb/v7m\libstdc++.a(eh_exception.o)
 .debug_abbrev  0x00007962      0x1b5 e:/elektronik/toolchain/yagarto/bin/../lib/gcc/arm-none-eabi/4.6.2/../../../../arm-none-eabi/lib/thumb/v7m\libstdc++.a(eh_globals.o)
 .debug_abbrev  0x00007b17      0x47b e:/elektronik/toolchain/yagarto/bin/../lib/gcc/arm-none-eabi/4.6.2/../../../../arm-none-eabi/lib/thumb/v7m\libstdc++.a(eh_personality.o)
 .debug_abbrev  0x00007f92      0x25f e:/elektronik/toolchain/yagarto/bin/../lib/gcc/arm-none-eabi/4.6.2/../../../../arm-none-eabi/lib/thumb/v7m\libstdc++.a(eh_throw.o)
 .debug_abbrev  0x000081f1      0x1a7 e:/elektronik/toolchain/yagarto/bin/../lib/gcc/arm-none-eabi/4.6.2/../../../../arm-none-eabi/lib/thumb/v7m\libstdc++.a(eh_type.o)
 .debug_abbrev  0x00008398      0x164 e:/elektronik/toolchain/yagarto/bin/../lib/gcc/arm-none-eabi/4.6.2/../../../../arm-none-eabi/lib/thumb/v7m\libstdc++.a(fundamental_type_info.o)
 .debug_abbrev  0x000084fc      0x208 e:/elektronik/toolchain/yagarto/bin/../lib/gcc/arm-none-eabi/4.6.2/../../../../arm-none-eabi/lib/thumb/v7m\libstdc++.a(pointer_type_info.o)
 .debug_abbrev  0x00008704      0x2f8 e:/elektronik/toolchain/yagarto/bin/../lib/gcc/arm-none-eabi/4.6.2/../../../../arm-none-eabi/lib/thumb/v7m\libstdc++.a(si_class_type_info.o)
 .debug_abbrev  0x000089fc      0x299 e:/elektronik/toolchain/yagarto/bin/../lib/gcc/arm-none-eabi/4.6.2/../../../../arm-none-eabi/lib/thumb/v7m\libstdc++.a(tinfo.o)
 .debug_abbrev  0x00008c95      0x136 e:/elektronik/toolchain/yagarto/bin/../lib/gcc/arm-none-eabi/4.6.2/../../../../arm-none-eabi/lib/thumb/v7m\libstdc++.a(bad_cast.o)
 .debug_abbrev  0x00008dcb      0x136 e:/elektronik/toolchain/yagarto/bin/../lib/gcc/arm-none-eabi/4.6.2/../../../../arm-none-eabi/lib/thumb/v7m\libstdc++.a(bad_typeid.o)
 .debug_abbrev  0x00008f01      0x3a2 e:/elektronik/toolchain/yagarto/bin/../lib/gcc/arm-none-eabi/4.6.2/../../../../arm-none-eabi/lib/thumb/v7m\libstdc++.a(class_type_info.o)
 .debug_abbrev  0x000092a3      0x44c e:/elektronik/toolchain/yagarto/bin/../lib/gcc/arm-none-eabi/4.6.2/../../../../arm-none-eabi/lib/thumb/v7m\libstdc++.a(eh_alloc.o)
 .debug_abbrev  0x000096ef      0x280 e:/elektronik/toolchain/yagarto/bin/../lib/gcc/arm-none-eabi/4.6.2/../../../../arm-none-eabi/lib/thumb/v7m\libstdc++.a(pbase_type_info.o)
 .debug_abbrev  0x0000996f      0x2fc e:/elektronik/toolchain/yagarto/bin/../lib/gcc/arm-none-eabi/4.6.2/thumb/v7m\libgcc.a(unwind-arm.o)
 .debug_abbrev  0x00009c6b       0x14 e:/elektronik/toolchain/yagarto/bin/../lib/gcc/arm-none-eabi/4.6.2/thumb/v7m\libgcc.a(libunwind.o)
 .debug_abbrev  0x00009c7f      0x226 e:/elektronik/toolchain/yagarto/bin/../lib/gcc/arm-none-eabi/4.6.2/thumb/v7m\libgcc.a(pr-support.o)
 .debug_abbrev  0x00009ea5       0x3f e:/elektronik/toolchain/yagarto/bin/../lib/gcc/arm-none-eabi/4.6.2/../../../../arm-none-eabi/lib/thumb/v7m\libg.a(lib_a-abort.o)
 .debug_abbrev  0x00009ee4      0x17d e:/elektronik/toolchain/yagarto/bin/../lib/gcc/arm-none-eabi/4.6.2/../../../../arm-none-eabi/lib/thumb/v7m\libg.a(lib_a-assert.o)
 .debug_abbrev  0x0000a061       0x78 e:/elektronik/toolchain/yagarto/bin/../lib/gcc/arm-none-eabi/4.6.2/../../../../arm-none-eabi/lib/thumb/v7m\libg.a(lib_a-atexit.o)
 .debug_abbrev  0x0000a0d9       0x8a e:/elektronik/toolchain/yagarto/bin/../lib/gcc/arm-none-eabi/4.6.2/../../../../arm-none-eabi/lib/thumb/v7m\libg.a(lib_a-cxa_atexit.o)
 .debug_abbrev  0x0000a163      0x17d e:/elektronik/toolchain/yagarto/bin/../lib/gcc/arm-none-eabi/4.6.2/../../../../arm-none-eabi/lib/thumb/v7m\libg.a(lib_a-exit.o)
 .debug_abbrev  0x0000a2e0       0x9b e:/elektronik/toolchain/yagarto/bin/../lib/gcc/arm-none-eabi/4.6.2/../../../../arm-none-eabi/lib/thumb/v7m\libg.a(lib_a-fini.o)
 .debug_abbrev  0x0000a37b      0x1c8 e:/elektronik/toolchain/yagarto/bin/../lib/gcc/arm-none-eabi/4.6.2/../../../../arm-none-eabi/lib/thumb/v7m\libg.a(lib_a-fiprintf.o)
 .debug_abbrev  0x0000a543      0x1b4 e:/elektronik/toolchain/yagarto/bin/../lib/gcc/arm-none-eabi/4.6.2/../../../../arm-none-eabi/lib/thumb/v7m\libg.a(lib_a-fputc.o)
 .debug_abbrev  0x0000a6f7      0x1bb e:/elektronik/toolchain/yagarto/bin/../lib/gcc/arm-none-eabi/4.6.2/../../../../arm-none-eabi/lib/thumb/v7m\libg.a(lib_a-fputs.o)
 .debug_abbrev  0x0000a8b2      0x1a7 e:/elektronik/toolchain/yagarto/bin/../lib/gcc/arm-none-eabi/4.6.2/../../../../arm-none-eabi/lib/thumb/v7m\libg.a(lib_a-fvwrite.o)
 .debug_abbrev  0x0000aa59      0x1ca e:/elektronik/toolchain/yagarto/bin/../lib/gcc/arm-none-eabi/4.6.2/../../../../arm-none-eabi/lib/thumb/v7m\libg.a(lib_a-fwrite.o)
 .debug_abbrev  0x0000ac23      0x166 e:/elektronik/toolchain/yagarto/bin/../lib/gcc/arm-none-eabi/4.6.2/../../../../arm-none-eabi/lib/thumb/v7m\libg.a(lib_a-impure.o)
 .debug_abbrev  0x0000ad89       0x9b e:/elektronik/toolchain/yagarto/bin/../lib/gcc/arm-none-eabi/4.6.2/../../../../arm-none-eabi/lib/thumb/v7m\libg.a(lib_a-init.o)
 .debug_abbrev  0x0000ae24      0x196 e:/elektronik/toolchain/yagarto/bin/../lib/gcc/arm-none-eabi/4.6.2/../../../../arm-none-eabi/lib/thumb/v7m\libg.a(lib_a-malloc.o)
 .debug_abbrev  0x0000afba      0x233 e:/elektronik/toolchain/yagarto/bin/../lib/gcc/arm-none-eabi/4.6.2/../../../../arm-none-eabi/lib/thumb/v7m\libg.a(lib_a-mallocr.o)
 .debug_abbrev  0x0000b1ed       0xc4 e:/elektronik/toolchain/yagarto/bin/../lib/gcc/arm-none-eabi/4.6.2/../../../../arm-none-eabi/lib/thumb/v7m\libg.a(lib_a-memchr.o)
 .debug_abbrev  0x0000b2b1       0x7c e:/elektronik/toolchain/yagarto/bin/../lib/gcc/arm-none-eabi/4.6.2/../../../../arm-none-eabi/lib/thumb/v7m\libg.a(lib_a-memcmp.o)
 .debug_abbrev  0x0000b32d       0x99 e:/elektronik/toolchain/yagarto/bin/../lib/gcc/arm-none-eabi/4.6.2/../../../../arm-none-eabi/lib/thumb/v7m\libg.a(lib_a-memcpy.o)
 .debug_abbrev  0x0000b3c6       0xa8 e:/elektronik/toolchain/yagarto/bin/../lib/gcc/arm-none-eabi/4.6.2/../../../../arm-none-eabi/lib/thumb/v7m\libg.a(lib_a-memmove.o)
 .debug_abbrev  0x0000b46e       0x8d e:/elektronik/toolchain/yagarto/bin/../lib/gcc/arm-none-eabi/4.6.2/../../../../arm-none-eabi/lib/thumb/v7m\libg.a(lib_a-memset.o)
 .debug_abbrev  0x0000b4fb      0x1a7 e:/elektronik/toolchain/yagarto/bin/../lib/gcc/arm-none-eabi/4.6.2/../../../../arm-none-eabi/lib/thumb/v7m\libg.a(lib_a-putc.o)
 .debug_abbrev  0x0000b6a2      0x18e e:/elektronik/toolchain/yagarto/bin/../lib/gcc/arm-none-eabi/4.6.2/../../../../arm-none-eabi/lib/thumb/v7m\libg.a(lib_a-realloc.o)
 .debug_abbrev  0x0000b830      0x1db e:/elektronik/toolchain/yagarto/bin/../lib/gcc/arm-none-eabi/4.6.2/../../../../arm-none-eabi/lib/thumb/v7m\libg.a(lib_a-reallocr.o)
 .debug_abbrev  0x0000ba0b      0x23a e:/elektronik/toolchain/yagarto/bin/../lib/gcc/arm-none-eabi/4.6.2/../../../../arm-none-eabi/lib/thumb/v7m\libg.a(lib_a-signal.o)
 .debug_abbrev  0x0000bc45      0x1c8 e:/elektronik/toolchain/yagarto/bin/../lib/gcc/arm-none-eabi/4.6.2/../../../../arm-none-eabi/lib/thumb/v7m\libg.a(lib_a-sprintf.o)
 .debug_abbrev  0x0000be0d       0x87 e:/elektronik/toolchain/yagarto/bin/../lib/gcc/arm-none-eabi/4.6.2/../../../../arm-none-eabi/lib/thumb/v7m\libg.a(lib_a-strcat.o)
 .debug_abbrev  0x0000be94       0x86 e:/elektronik/toolchain/yagarto/bin/../lib/gcc/arm-none-eabi/4.6.2/../../../../arm-none-eabi/lib/thumb/v7m\libg.a(lib_a-strcmp.o)
 .debug_abbrev  0x0000bf1a       0x6f e:/elektronik/toolchain/yagarto/bin/../lib/gcc/arm-none-eabi/4.6.2/../../../../arm-none-eabi/lib/thumb/v7m\libg.a(lib_a-strcpy.o)
 .debug_abbrev  0x0000bf89       0x6d e:/elektronik/toolchain/yagarto/bin/../lib/gcc/arm-none-eabi/4.6.2/../../../../arm-none-eabi/lib/thumb/v7m\libg.a(lib_a-strlen.o)
 .debug_abbrev  0x0000bff6       0x7e e:/elektronik/toolchain/yagarto/bin/../lib/gcc/arm-none-eabi/4.6.2/../../../../arm-none-eabi/lib/thumb/v7m\libg.a(lib_a-strncmp.o)
 .debug_abbrev  0x0000c074       0x9c e:/elektronik/toolchain/yagarto/bin/../lib/gcc/arm-none-eabi/4.6.2/../../../../arm-none-eabi/lib/thumb/v7m\libg.a(lib_a-strncpy.o)
 .debug_abbrev  0x0000c110      0x2ea e:/elektronik/toolchain/yagarto/bin/../lib/gcc/arm-none-eabi/4.6.2/../../../../arm-none-eabi/lib/thumb/v7m\libg.a(lib_a-svfprintf.o)
 .debug_abbrev  0x0000c3fa      0x184 e:/elektronik/toolchain/yagarto/bin/../lib/gcc/arm-none-eabi/4.6.2/../../../../arm-none-eabi/lib/thumb/v7m\libg.a(lib_a-syswrite.o)
 .debug_abbrev  0x0000c57e      0x31c e:/elektronik/toolchain/yagarto/bin/../lib/gcc/arm-none-eabi/4.6.2/../../../../arm-none-eabi/lib/thumb/v7m\libg.a(lib_a-vfiprintf.o)
 .debug_abbrev  0x0000c89a      0x1a7 e:/elektronik/toolchain/yagarto/bin/../lib/gcc/arm-none-eabi/4.6.2/../../../../arm-none-eabi/lib/thumb/v7m\libg.a(lib_a-wbuf.o)
 .debug_abbrev  0x0000ca41      0x17f e:/elektronik/toolchain/yagarto/bin/../lib/gcc/arm-none-eabi/4.6.2/../../../../arm-none-eabi/lib/thumb/v7m\libg.a(lib_a-wsetup.o)
 .debug_abbrev  0x0000cbc0      0x1d3 e:/elektronik/toolchain/yagarto/bin/../lib/gcc/arm-none-eabi/4.6.2/../../../../arm-none-eabi/lib/thumb/v7m\libg.a(lib_a-__atexit.o)
 .debug_abbrev  0x0000cd93      0x1bc e:/elektronik/toolchain/yagarto/bin/../lib/gcc/arm-none-eabi/4.6.2/../../../../arm-none-eabi/lib/thumb/v7m\libg.a(lib_a-__call_atexit.o)
 .debug_abbrev  0x0000cf4f      0x22b e:/elektronik/toolchain/yagarto/bin/../lib/gcc/arm-none-eabi/4.6.2/../../../../arm-none-eabi/lib/thumb/v7m\libg.a(lib_a-dtoa.o)
 .debug_abbrev  0x0000d17a      0x1fe e:/elektronik/toolchain/yagarto/bin/../lib/gcc/arm-none-eabi/4.6.2/../../../../arm-none-eabi/lib/thumb/v7m\libg.a(lib_a-fflush.o)
 .debug_abbrev  0x0000d378      0x289 e:/elektronik/toolchain/yagarto/bin/../lib/gcc/arm-none-eabi/4.6.2/../../../../arm-none-eabi/lib/thumb/v7m\libg.a(lib_a-findfp.o)
 .debug_abbrev  0x0000d601      0x1f5 e:/elektronik/toolchain/yagarto/bin/../lib/gcc/arm-none-eabi/4.6.2/../../../../arm-none-eabi/lib/thumb/v7m\libg.a(lib_a-fputwc.o)
 .debug_abbrev  0x0000d7f6      0x1ea e:/elektronik/toolchain/yagarto/bin/../lib/gcc/arm-none-eabi/4.6.2/../../../../arm-none-eabi/lib/thumb/v7m\libg.a(lib_a-freer.o)
 .debug_abbrev  0x0000d9e0      0x210 e:/elektronik/toolchain/yagarto/bin/../lib/gcc/arm-none-eabi/4.6.2/../../../../arm-none-eabi/lib/thumb/v7m\libg.a(lib_a-fwalk.o)
 .debug_abbrev  0x0000dbf0      0x25e e:/elektronik/toolchain/yagarto/bin/../lib/gcc/arm-none-eabi/4.6.2/../../../../arm-none-eabi/lib/thumb/v7m\libg.a(lib_a-locale.o)
 .debug_abbrev  0x0000de4e      0x199 e:/elektronik/toolchain/yagarto/bin/../lib/gcc/arm-none-eabi/4.6.2/../../../../arm-none-eabi/lib/thumb/v7m\libg.a(lib_a-makebuf.o)
 .debug_abbrev  0x0000dfe7      0x30e e:/elektronik/toolchain/yagarto/bin/../lib/gcc/arm-none-eabi/4.6.2/../../../../arm-none-eabi/lib/thumb/v7m\libg.a(lib_a-mprec.o)
 .debug_abbrev  0x0000e2f5       0xc5 e:/elektronik/toolchain/yagarto/bin/../lib/gcc/arm-none-eabi/4.6.2/../../../../arm-none-eabi/lib/thumb/v7m\libg.a(lib_a-s_fpclassify.o)
 .debug_abbrev  0x0000e3ba      0x1f6 e:/elektronik/toolchain/yagarto/bin/../lib/gcc/arm-none-eabi/4.6.2/../../../../arm-none-eabi/lib/thumb/v7m\libg.a(lib_a-stdio.o)
 .debug_abbrev  0x0000e5b0      0x262 e:/elektronik/toolchain/yagarto/bin/../lib/gcc/arm-none-eabi/4.6.2/../../../../arm-none-eabi/lib/thumb/v7m\libg.a(lib_a-svfiprintf.o)
 .debug_abbrev  0x0000e812      0x1ae e:/elektronik/toolchain/yagarto/bin/../lib/gcc/arm-none-eabi/4.6.2/../../../../arm-none-eabi/lib/thumb/v7m\libg.a(lib_a-wcrtomb.o)
 .debug_abbrev  0x0000e9c0      0x1e5 e:/elektronik/toolchain/yagarto/bin/../lib/gcc/arm-none-eabi/4.6.2/../../../../arm-none-eabi/lib/thumb/v7m\libg.a(lib_a-wctomb_r.o)
 .debug_abbrev  0x0000eba5      0x1ba e:/elektronik/toolchain/yagarto/bin/../lib/gcc/arm-none-eabi/4.6.2/../../../../arm-none-eabi/lib/thumb/v7m\libg.a(lib_a-callocr.o)
 .debug_abbrev  0x0000ed5f      0x1b6 e:/elektronik/toolchain/yagarto/bin/../lib/gcc/arm-none-eabi/4.6.2/../../../../arm-none-eabi/lib/thumb/v7m\libg.a(lib_a-fclose.o)
 .debug_abbrev  0x0000ef15       0x14 e:/elektronik/toolchain/yagarto/bin/../lib/gcc/arm-none-eabi/4.6.2/thumb/v7m\libgcc.a(_udivsi3.o)
 .debug_abbrev  0x0000ef29       0x14 e:/elektronik/toolchain/yagarto/bin/../lib/gcc/arm-none-eabi/4.6.2/thumb/v7m\libgcc.a(_dvmd_tls.o)
 .debug_abbrev  0x0000ef3d       0x14 e:/elektronik/toolchain/yagarto/bin/../lib/gcc/arm-none-eabi/4.6.2/thumb/v7m\libgcc.a(_arm_addsubdf3.o)
 .debug_abbrev  0x0000ef51       0x14 e:/elektronik/toolchain/yagarto/bin/../lib/gcc/arm-none-eabi/4.6.2/thumb/v7m\libgcc.a(_arm_muldivdf3.o)
 .debug_abbrev  0x0000ef65       0x14 e:/elektronik/toolchain/yagarto/bin/../lib/gcc/arm-none-eabi/4.6.2/thumb/v7m\libgcc.a(_arm_cmpdf2.o)
 .debug_abbrev  0x0000ef79       0x14 e:/elektronik/toolchain/yagarto/bin/../lib/gcc/arm-none-eabi/4.6.2/thumb/v7m\libgcc.a(_arm_fixdfsi.o)
 .debug_abbrev  0x0000ef8d       0x12 e:/elektronik/toolchain/yagarto/bin/../lib/gcc/arm-none-eabi/4.6.2/thumb/v7m/crtn.o

.debug_aranges  0x00000000     0x2f88
 .debug_aranges
                0x00000000       0x28 e:/elektronik/toolchain/yagarto/bin/../lib/gcc/arm-none-eabi/4.6.2/thumb/v7m/crti.o
 .debug_aranges
                0x00000028       0x20 e:/elektronik/toolchain/yagarto/bin/../lib/gcc/arm-none-eabi/4.6.2/../../../../arm-none-eabi/lib/thumb/v7m/crt0.o
 .debug_aranges
                0x00000048       0x40 ./STM32F4xx_StdPeriph_Driver/src/misc.o
 .debug_aranges
                0x00000088      0x148 ./STM32F4xx_StdPeriph_Driver/src/stm32f4xx_adc.o
 .debug_aranges
                0x000001d0       0xe0 ./STM32F4xx_StdPeriph_Driver/src/stm32f4xx_can.o
 .debug_aranges
                0x000002b0       0x48 ./STM32F4xx_StdPeriph_Driver/src/stm32f4xx_crc.o
 .debug_aranges
                0x000002f8       0xa0 ./STM32F4xx_StdPeriph_Driver/src/stm32f4xx_cryp.o
 .debug_aranges
                0x00000398       0x30 ./STM32F4xx_StdPeriph_Driver/src/stm32f4xx_cryp_aes.o
 .debug_aranges
                0x000003c8       0x28 ./STM32F4xx_StdPeriph_Driver/src/stm32f4xx_cryp_des.o
 .debug_aranges
                0x000003f0       0x28 ./STM32F4xx_StdPeriph_Driver/src/stm32f4xx_cryp_tdes.o
 .debug_aranges
                0x00000418       0xa0 ./STM32F4xx_StdPeriph_Driver/src/stm32f4xx_dac.o
 .debug_aranges
                0x000004b8       0x40 ./STM32F4xx_StdPeriph_Driver/src/stm32f4xx_dbgmcu.o
 .debug_aranges
                0x000004f8       0x90 ./STM32F4xx_StdPeriph_Driver/src/stm32f4xx_dcmi.o
 .debug_aranges
                0x00000588       0xb0 ./STM32F4xx_StdPeriph_Driver/src/stm32f4xx_dma.o
 .debug_aranges
                0x00000638       0x58 ./STM32F4xx_StdPeriph_Driver/src/stm32f4xx_exti.o
 .debug_aranges
                0x00000690      0x108 ./STM32F4xx_StdPeriph_Driver/src/stm32f4xx_flash.o
 .debug_aranges
                0x00000798       0xb0 ./STM32F4xx_StdPeriph_Driver/src/stm32f4xx_fsmc.o
 .debug_aranges
                0x00000848       0x88 ./STM32F4xx_StdPeriph_Driver/src/stm32f4xx_gpio.o
 .debug_aranges
                0x000008d0       0xa0 ./STM32F4xx_StdPeriph_Driver/src/stm32f4xx_hash.o
 .debug_aranges
                0x00000970       0x28 ./STM32F4xx_StdPeriph_Driver/src/stm32f4xx_hash_md5.o
 .debug_aranges
                0x00000998       0x28 ./STM32F4xx_StdPeriph_Driver/src/stm32f4xx_hash_sha1.o
 .debug_aranges
                0x000009c0      0x120 ./STM32F4xx_StdPeriph_Driver/src/stm32f4xx_i2c.o
 .debug_aranges
                0x00000ae0       0x48 ./STM32F4xx_StdPeriph_Driver/src/stm32f4xx_iwdg.o
 .debug_aranges
                0x00000b28       0x78 ./STM32F4xx_StdPeriph_Driver/src/stm32f4xx_pwr.o
 .debug_aranges
                0x00000ba0      0x178 ./STM32F4xx_StdPeriph_Driver/src/stm32f4xx_rcc.o
 .debug_aranges
                0x00000d18       0x58 ./STM32F4xx_StdPeriph_Driver/src/stm32f4xx_rng.o
 .debug_aranges
                0x00000d70      0x1e0 ./STM32F4xx_StdPeriph_Driver/src/stm32f4xx_rtc.o
 .debug_aranges
                0x00000f50      0x108 ./STM32F4xx_StdPeriph_Driver/src/stm32f4xx_sdio.o
 .debug_aranges
                0x00001058       0xe0 ./STM32F4xx_StdPeriph_Driver/src/stm32f4xx_spi.o
 .debug_aranges
                0x00001138       0x48 ./STM32F4xx_StdPeriph_Driver/src/stm32f4xx_syscfg.o
 .debug_aranges
                0x00001180      0x2f8 ./STM32F4xx_StdPeriph_Driver/src/stm32f4xx_tim.o
 .debug_aranges
                0x00001478      0x100 ./STM32F4xx_StdPeriph_Driver/src/stm32f4xx_usart.o
 .debug_aranges
                0x00001578       0x58 ./STM32F4xx_StdPeriph_Driver/src/stm32f4xx_wwdg.o
 .debug_aranges
                0x000015d0       0x48 ./STM32F4-Discovery/stm32f4_discovery.o
 .debug_aranges
                0x00001618      0x130 ./STM32F4-Discovery/stm32f4_discovery_audio_codec.o
 .debug_aranges
                0x00001748       0x78 ./STM32F4-Discovery/stm32f4_discovery_lis302dl.o
 .debug_aranges
                0x000017c0       0x58 ./Menue/CMenue.o
 .debug_aranges
                0x00001818       0x48 ./GraphicLCD/CGraphicLCD.o
 .debug_aranges
                0x00001860       0xa8 ./GraphicLCD/CT6963CDriver.o
 .debug_aranges
                0x00001908       0x68 ./GraphicLCD/CT6963GPIOInterface.o
 .debug_aranges
                0x00001970       0x98 ./FreeRTOS_EC/Source/AManagedTask.o
 .debug_aranges
                0x00001a08       0x58 ./FreeRTOS_EC/Source/ASyncObject.o
 .debug_aranges
                0x00001a60       0x60 ./FreeRTOS_EC/Source/CBinarySemaphore.o
 .debug_aranges
                0x00001ac0       0x60 ./FreeRTOS_EC/Source/CCountingSemaphore.o
 .debug_aranges
                0x00001b20       0x30 ./FreeRTOS_EC/Source/CFreeRTOS.o
 .debug_aranges
                0x00001b50       0xb8 ./FreeRTOS_EC/Source/CMessageTask.o
 .debug_aranges
                0x00001c08       0x60 ./FreeRTOS_EC/Source/CMutex.o
 .debug_aranges
                0x00001c68       0x68 ./FreeRTOS_EC/Source/CQueue.o
 .debug_aranges
                0x00001cd0       0x60 ./FreeRTOS_EC/Source/CRecursiveMutex.o
 .debug_aranges
                0x00001d30       0x70 ./FreeRTOS_EC/Source/CTask.o
 .debug_aranges
                0x00001da0       0x70 ./FreeRTOS/Source/portable/GCC/ARM_CM4F/port.o
 .debug_aranges
                0x00001e10       0x50 ./FreeRTOS/Source/croutine.o
 .debug_aranges
                0x00001e60       0x40 ./FreeRTOS/Source/list.o
 .debug_aranges
                0x00001ea0       0x98 ./FreeRTOS/Source/queue.o
 .debug_aranges
                0x00001f38      0x168 ./FreeRTOS/Source/tasks.o
 .debug_aranges
                0x000020a0       0x58 ./CLedHeartBeatSTM32F4Disc.o
 .debug_aranges
                0x000020f8       0x88 ./main.o
 .debug_aranges
                0x00002180       0x28 ./startup_stm32f4xx.o
 .debug_aranges
                0x000021a8       0x48 ./stm32f4xx_it.o
 .debug_aranges
                0x000021f0       0x78 ./syscalls.o
 .debug_aranges
                0x00002268       0x30 ./system_stm32f4xx.o
 .debug_aranges
                0x00002298       0x38 ./ustime.o
 .debug_aranges
                0x000022d0       0x20 e:/elektronik/toolchain/yagarto/bin/../lib/gcc/arm-none-eabi/4.6.2/../../../../arm-none-eabi/lib/thumb/v7m\libstdc++.a(atexit_arm.o)
 .debug_aranges
                0x000022f0       0x20 e:/elektronik/toolchain/yagarto/bin/../lib/gcc/arm-none-eabi/4.6.2/../../../../arm-none-eabi/lib/thumb/v7m\libstdc++.a(del_op.o)
 .debug_aranges
                0x00002310       0x20 e:/elektronik/toolchain/yagarto/bin/../lib/gcc/arm-none-eabi/4.6.2/../../../../arm-none-eabi/lib/thumb/v7m\libstdc++.a(pure.o)
 .debug_aranges
                0x00002330       0x48 e:/elektronik/toolchain/yagarto/bin/../lib/gcc/arm-none-eabi/4.6.2/../../../../arm-none-eabi/lib/thumb/v7m\libstdc++.a(eh_terminate.o)
 .debug_aranges
                0x00002378       0x20 e:/elektronik/toolchain/yagarto/bin/../lib/gcc/arm-none-eabi/4.6.2/../../../../arm-none-eabi/lib/thumb/v7m\libstdc++.a(vterminate.o)
 .debug_aranges
                0x00002398       0x20 e:/elektronik/toolchain/yagarto/bin/../lib/gcc/arm-none-eabi/4.6.2/../../../../arm-none-eabi/lib/thumb/v7m\libstdc++.a(cp-demangle.o)
 .debug_aranges
                0x000023b8       0x30 e:/elektronik/toolchain/yagarto/bin/../lib/gcc/arm-none-eabi/4.6.2/../../../../arm-none-eabi/lib/thumb/v7m\libstdc++.a(eh_arm.o)
 .debug_aranges
                0x000023e8       0x28 e:/elektronik/toolchain/yagarto/bin/../lib/gcc/arm-none-eabi/4.6.2/../../../../arm-none-eabi/lib/thumb/v7m\libstdc++.a(eh_aux_runtime.o)
 .debug_aranges
                0x00002410       0x28 e:/elektronik/toolchain/yagarto/bin/../lib/gcc/arm-none-eabi/4.6.2/../../../../arm-none-eabi/lib/thumb/v7m\libstdc++.a(eh_call.o)
 .debug_aranges
                0x00002438       0x38 e:/elektronik/toolchain/yagarto/bin/../lib/gcc/arm-none-eabi/4.6.2/../../../../arm-none-eabi/lib/thumb/v7m\libstdc++.a(eh_catch.o)
 .debug_aranges
                0x00002470       0x68 e:/elektronik/toolchain/yagarto/bin/../lib/gcc/arm-none-eabi/4.6.2/../../../../arm-none-eabi/lib/thumb/v7m\libstdc++.a(eh_exception.o)
 .debug_aranges
                0x000024d8       0x28 e:/elektronik/toolchain/yagarto/bin/../lib/gcc/arm-none-eabi/4.6.2/../../../../arm-none-eabi/lib/thumb/v7m\libstdc++.a(eh_globals.o)
 .debug_aranges
                0x00002500       0x40 e:/elektronik/toolchain/yagarto/bin/../lib/gcc/arm-none-eabi/4.6.2/../../../../arm-none-eabi/lib/thumb/v7m\libstdc++.a(eh_personality.o)
 .debug_aranges
                0x00002540       0x30 e:/elektronik/toolchain/yagarto/bin/../lib/gcc/arm-none-eabi/4.6.2/../../../../arm-none-eabi/lib/thumb/v7m\libstdc++.a(eh_throw.o)
 .debug_aranges
                0x00002570       0x20 e:/elektronik/toolchain/yagarto/bin/../lib/gcc/arm-none-eabi/4.6.2/../../../../arm-none-eabi/lib/thumb/v7m\libstdc++.a(eh_type.o)
 .debug_aranges
                0x00002590       0x28 e:/elektronik/toolchain/yagarto/bin/../lib/gcc/arm-none-eabi/4.6.2/../../../../arm-none-eabi/lib/thumb/v7m\libstdc++.a(fundamental_type_info.o)
 .debug_aranges
                0x000025b8       0x38 e:/elektronik/toolchain/yagarto/bin/../lib/gcc/arm-none-eabi/4.6.2/../../../../arm-none-eabi/lib/thumb/v7m\libstdc++.a(pointer_type_info.o)
 .debug_aranges
                0x000025f0       0x40 e:/elektronik/toolchain/yagarto/bin/../lib/gcc/arm-none-eabi/4.6.2/../../../../arm-none-eabi/lib/thumb/v7m\libstdc++.a(si_class_type_info.o)
 .debug_aranges
                0x00002630       0x50 e:/elektronik/toolchain/yagarto/bin/../lib/gcc/arm-none-eabi/4.6.2/../../../../arm-none-eabi/lib/thumb/v7m\libstdc++.a(tinfo.o)
 .debug_aranges
                0x00002680       0x30 e:/elektronik/toolchain/yagarto/bin/../lib/gcc/arm-none-eabi/4.6.2/../../../../arm-none-eabi/lib/thumb/v7m\libstdc++.a(bad_cast.o)
 .debug_aranges
                0x000026b0       0x30 e:/elektronik/toolchain/yagarto/bin/../lib/gcc/arm-none-eabi/4.6.2/../../../../arm-none-eabi/lib/thumb/v7m\libstdc++.a(bad_typeid.o)
 .debug_aranges
                0x000026e0       0x50 e:/elektronik/toolchain/yagarto/bin/../lib/gcc/arm-none-eabi/4.6.2/../../../../arm-none-eabi/lib/thumb/v7m\libstdc++.a(class_type_info.o)
 .debug_aranges
                0x00002730       0x38 e:/elektronik/toolchain/yagarto/bin/../lib/gcc/arm-none-eabi/4.6.2/../../../../arm-none-eabi/lib/thumb/v7m\libstdc++.a(eh_alloc.o)
 .debug_aranges
                0x00002768       0x38 e:/elektronik/toolchain/yagarto/bin/../lib/gcc/arm-none-eabi/4.6.2/../../../../arm-none-eabi/lib/thumb/v7m\libstdc++.a(pbase_type_info.o)
 .debug_aranges
                0x000027a0       0x20 e:/elektronik/toolchain/yagarto/bin/../lib/gcc/arm-none-eabi/4.6.2/thumb/v7m\libgcc.a(unwind-arm.o)
 .debug_aranges
                0x000027c0       0x20 e:/elektronik/toolchain/yagarto/bin/../lib/gcc/arm-none-eabi/4.6.2/thumb/v7m\libgcc.a(libunwind.o)
 .debug_aranges
                0x000027e0       0x20 e:/elektronik/toolchain/yagarto/bin/../lib/gcc/arm-none-eabi/4.6.2/thumb/v7m\libgcc.a(pr-support.o)
 .debug_aranges
                0x00002800       0x20 e:/elektronik/toolchain/yagarto/bin/../lib/gcc/arm-none-eabi/4.6.2/../../../../arm-none-eabi/lib/thumb/v7m\libg.a(lib_a-abort.o)
 .debug_aranges
                0x00002820       0x20 e:/elektronik/toolchain/yagarto/bin/../lib/gcc/arm-none-eabi/4.6.2/../../../../arm-none-eabi/lib/thumb/v7m\libg.a(lib_a-assert.o)
 .debug_aranges
                0x00002840       0x20 e:/elektronik/toolchain/yagarto/bin/../lib/gcc/arm-none-eabi/4.6.2/../../../../arm-none-eabi/lib/thumb/v7m\libg.a(lib_a-atexit.o)
 .debug_aranges
                0x00002860       0x20 e:/elektronik/toolchain/yagarto/bin/../lib/gcc/arm-none-eabi/4.6.2/../../../../arm-none-eabi/lib/thumb/v7m\libg.a(lib_a-cxa_atexit.o)
 .debug_aranges
                0x00002880       0x20 e:/elektronik/toolchain/yagarto/bin/../lib/gcc/arm-none-eabi/4.6.2/../../../../arm-none-eabi/lib/thumb/v7m\libg.a(lib_a-exit.o)
 .debug_aranges
                0x000028a0       0x20 e:/elektronik/toolchain/yagarto/bin/../lib/gcc/arm-none-eabi/4.6.2/../../../../arm-none-eabi/lib/thumb/v7m\libg.a(lib_a-fini.o)
 .debug_aranges
                0x000028c0       0x20 e:/elektronik/toolchain/yagarto/bin/../lib/gcc/arm-none-eabi/4.6.2/../../../../arm-none-eabi/lib/thumb/v7m\libg.a(lib_a-fiprintf.o)
 .debug_aranges
                0x000028e0       0x20 e:/elektronik/toolchain/yagarto/bin/../lib/gcc/arm-none-eabi/4.6.2/../../../../arm-none-eabi/lib/thumb/v7m\libg.a(lib_a-fputc.o)
 .debug_aranges
                0x00002900       0x20 e:/elektronik/toolchain/yagarto/bin/../lib/gcc/arm-none-eabi/4.6.2/../../../../arm-none-eabi/lib/thumb/v7m\libg.a(lib_a-fputs.o)
 .debug_aranges
                0x00002920       0x20 e:/elektronik/toolchain/yagarto/bin/../lib/gcc/arm-none-eabi/4.6.2/../../../../arm-none-eabi/lib/thumb/v7m\libg.a(lib_a-fvwrite.o)
 .debug_aranges
                0x00002940       0x20 e:/elektronik/toolchain/yagarto/bin/../lib/gcc/arm-none-eabi/4.6.2/../../../../arm-none-eabi/lib/thumb/v7m\libg.a(lib_a-fwrite.o)
 .debug_aranges
                0x00002960       0x20 e:/elektronik/toolchain/yagarto/bin/../lib/gcc/arm-none-eabi/4.6.2/../../../../arm-none-eabi/lib/thumb/v7m\libg.a(lib_a-init.o)
 .debug_aranges
                0x00002980       0x20 e:/elektronik/toolchain/yagarto/bin/../lib/gcc/arm-none-eabi/4.6.2/../../../../arm-none-eabi/lib/thumb/v7m\libg.a(lib_a-malloc.o)
 .debug_aranges
                0x000029a0       0x20 e:/elektronik/toolchain/yagarto/bin/../lib/gcc/arm-none-eabi/4.6.2/../../../../arm-none-eabi/lib/thumb/v7m\libg.a(lib_a-mallocr.o)
 .debug_aranges
                0x000029c0       0x20 e:/elektronik/toolchain/yagarto/bin/../lib/gcc/arm-none-eabi/4.6.2/../../../../arm-none-eabi/lib/thumb/v7m\libg.a(lib_a-memchr.o)
 .debug_aranges
                0x000029e0       0x20 e:/elektronik/toolchain/yagarto/bin/../lib/gcc/arm-none-eabi/4.6.2/../../../../arm-none-eabi/lib/thumb/v7m\libg.a(lib_a-memcmp.o)
 .debug_aranges
                0x00002a00       0x20 e:/elektronik/toolchain/yagarto/bin/../lib/gcc/arm-none-eabi/4.6.2/../../../../arm-none-eabi/lib/thumb/v7m\libg.a(lib_a-memcpy.o)
 .debug_aranges
                0x00002a20       0x20 e:/elektronik/toolchain/yagarto/bin/../lib/gcc/arm-none-eabi/4.6.2/../../../../arm-none-eabi/lib/thumb/v7m\libg.a(lib_a-memmove.o)
 .debug_aranges
                0x00002a40       0x20 e:/elektronik/toolchain/yagarto/bin/../lib/gcc/arm-none-eabi/4.6.2/../../../../arm-none-eabi/lib/thumb/v7m\libg.a(lib_a-memset.o)
 .debug_aranges
                0x00002a60       0x20 e:/elektronik/toolchain/yagarto/bin/../lib/gcc/arm-none-eabi/4.6.2/../../../../arm-none-eabi/lib/thumb/v7m\libg.a(lib_a-putc.o)
 .debug_aranges
                0x00002a80       0x20 e:/elektronik/toolchain/yagarto/bin/../lib/gcc/arm-none-eabi/4.6.2/../../../../arm-none-eabi/lib/thumb/v7m\libg.a(lib_a-realloc.o)
 .debug_aranges
                0x00002aa0       0x20 e:/elektronik/toolchain/yagarto/bin/../lib/gcc/arm-none-eabi/4.6.2/../../../../arm-none-eabi/lib/thumb/v7m\libg.a(lib_a-reallocr.o)
 .debug_aranges
                0x00002ac0       0x20 e:/elektronik/toolchain/yagarto/bin/../lib/gcc/arm-none-eabi/4.6.2/../../../../arm-none-eabi/lib/thumb/v7m\libg.a(lib_a-signal.o)
 .debug_aranges
                0x00002ae0       0x20 e:/elektronik/toolchain/yagarto/bin/../lib/gcc/arm-none-eabi/4.6.2/../../../../arm-none-eabi/lib/thumb/v7m\libg.a(lib_a-sprintf.o)
 .debug_aranges
                0x00002b00       0x20 e:/elektronik/toolchain/yagarto/bin/../lib/gcc/arm-none-eabi/4.6.2/../../../../arm-none-eabi/lib/thumb/v7m\libg.a(lib_a-strcat.o)
 .debug_aranges
                0x00002b20       0x20 e:/elektronik/toolchain/yagarto/bin/../lib/gcc/arm-none-eabi/4.6.2/../../../../arm-none-eabi/lib/thumb/v7m\libg.a(lib_a-strcmp.o)
 .debug_aranges
                0x00002b40       0x20 e:/elektronik/toolchain/yagarto/bin/../lib/gcc/arm-none-eabi/4.6.2/../../../../arm-none-eabi/lib/thumb/v7m\libg.a(lib_a-strcpy.o)
 .debug_aranges
                0x00002b60       0x20 e:/elektronik/toolchain/yagarto/bin/../lib/gcc/arm-none-eabi/4.6.2/../../../../arm-none-eabi/lib/thumb/v7m\libg.a(lib_a-strlen.o)
 .debug_aranges
                0x00002b80       0x20 e:/elektronik/toolchain/yagarto/bin/../lib/gcc/arm-none-eabi/4.6.2/../../../../arm-none-eabi/lib/thumb/v7m\libg.a(lib_a-strncmp.o)
 .debug_aranges
                0x00002ba0       0x20 e:/elektronik/toolchain/yagarto/bin/../lib/gcc/arm-none-eabi/4.6.2/../../../../arm-none-eabi/lib/thumb/v7m\libg.a(lib_a-strncpy.o)
 .debug_aranges
                0x00002bc0       0x20 e:/elektronik/toolchain/yagarto/bin/../lib/gcc/arm-none-eabi/4.6.2/../../../../arm-none-eabi/lib/thumb/v7m\libg.a(lib_a-svfprintf.o)
 .debug_aranges
                0x00002be0       0x20 e:/elektronik/toolchain/yagarto/bin/../lib/gcc/arm-none-eabi/4.6.2/../../../../arm-none-eabi/lib/thumb/v7m\libg.a(lib_a-syswrite.o)
 .debug_aranges
                0x00002c00       0x20 e:/elektronik/toolchain/yagarto/bin/../lib/gcc/arm-none-eabi/4.6.2/../../../../arm-none-eabi/lib/thumb/v7m\libg.a(lib_a-vfiprintf.o)
 .debug_aranges
                0x00002c20       0x20 e:/elektronik/toolchain/yagarto/bin/../lib/gcc/arm-none-eabi/4.6.2/../../../../arm-none-eabi/lib/thumb/v7m\libg.a(lib_a-wbuf.o)
 .debug_aranges
                0x00002c40       0x20 e:/elektronik/toolchain/yagarto/bin/../lib/gcc/arm-none-eabi/4.6.2/../../../../arm-none-eabi/lib/thumb/v7m\libg.a(lib_a-wsetup.o)
 .debug_aranges
                0x00002c60       0x20 e:/elektronik/toolchain/yagarto/bin/../lib/gcc/arm-none-eabi/4.6.2/../../../../arm-none-eabi/lib/thumb/v7m\libg.a(lib_a-__atexit.o)
 .debug_aranges
                0x00002c80       0x20 e:/elektronik/toolchain/yagarto/bin/../lib/gcc/arm-none-eabi/4.6.2/../../../../arm-none-eabi/lib/thumb/v7m\libg.a(lib_a-__call_atexit.o)
 .debug_aranges
                0x00002ca0       0x20 e:/elektronik/toolchain/yagarto/bin/../lib/gcc/arm-none-eabi/4.6.2/../../../../arm-none-eabi/lib/thumb/v7m\libg.a(lib_a-dtoa.o)
 .debug_aranges
                0x00002cc0       0x20 e:/elektronik/toolchain/yagarto/bin/../lib/gcc/arm-none-eabi/4.6.2/../../../../arm-none-eabi/lib/thumb/v7m\libg.a(lib_a-fflush.o)
 .debug_aranges
                0x00002ce0       0x20 e:/elektronik/toolchain/yagarto/bin/../lib/gcc/arm-none-eabi/4.6.2/../../../../arm-none-eabi/lib/thumb/v7m\libg.a(lib_a-findfp.o)
 .debug_aranges
                0x00002d00       0x20 e:/elektronik/toolchain/yagarto/bin/../lib/gcc/arm-none-eabi/4.6.2/../../../../arm-none-eabi/lib/thumb/v7m\libg.a(lib_a-fputwc.o)
 .debug_aranges
                0x00002d20       0x20 e:/elektronik/toolchain/yagarto/bin/../lib/gcc/arm-none-eabi/4.6.2/../../../../arm-none-eabi/lib/thumb/v7m\libg.a(lib_a-freer.o)
 .debug_aranges
                0x00002d40       0x20 e:/elektronik/toolchain/yagarto/bin/../lib/gcc/arm-none-eabi/4.6.2/../../../../arm-none-eabi/lib/thumb/v7m\libg.a(lib_a-fwalk.o)
 .debug_aranges
                0x00002d60       0x20 e:/elektronik/toolchain/yagarto/bin/../lib/gcc/arm-none-eabi/4.6.2/../../../../arm-none-eabi/lib/thumb/v7m\libg.a(lib_a-locale.o)
 .debug_aranges
                0x00002d80       0x20 e:/elektronik/toolchain/yagarto/bin/../lib/gcc/arm-none-eabi/4.6.2/../../../../arm-none-eabi/lib/thumb/v7m\libg.a(lib_a-makebuf.o)
 .debug_aranges
                0x00002da0       0x20 e:/elektronik/toolchain/yagarto/bin/../lib/gcc/arm-none-eabi/4.6.2/../../../../arm-none-eabi/lib/thumb/v7m\libg.a(lib_a-mprec.o)
 .debug_aranges
                0x00002dc0       0x20 e:/elektronik/toolchain/yagarto/bin/../lib/gcc/arm-none-eabi/4.6.2/../../../../arm-none-eabi/lib/thumb/v7m\libg.a(lib_a-s_fpclassify.o)
 .debug_aranges
                0x00002de0       0x20 e:/elektronik/toolchain/yagarto/bin/../lib/gcc/arm-none-eabi/4.6.2/../../../../arm-none-eabi/lib/thumb/v7m\libg.a(lib_a-stdio.o)
 .debug_aranges
                0x00002e00       0x20 e:/elektronik/toolchain/yagarto/bin/../lib/gcc/arm-none-eabi/4.6.2/../../../../arm-none-eabi/lib/thumb/v7m\libg.a(lib_a-svfiprintf.o)
 .debug_aranges
                0x00002e20       0x20 e:/elektronik/toolchain/yagarto/bin/../lib/gcc/arm-none-eabi/4.6.2/../../../../arm-none-eabi/lib/thumb/v7m\libg.a(lib_a-wcrtomb.o)
 .debug_aranges
                0x00002e40       0x20 e:/elektronik/toolchain/yagarto/bin/../lib/gcc/arm-none-eabi/4.6.2/../../../../arm-none-eabi/lib/thumb/v7m\libg.a(lib_a-wctomb_r.o)
 .debug_aranges
                0x00002e60       0x20 e:/elektronik/toolchain/yagarto/bin/../lib/gcc/arm-none-eabi/4.6.2/../../../../arm-none-eabi/lib/thumb/v7m\libg.a(lib_a-callocr.o)
 .debug_aranges
                0x00002e80       0x20 e:/elektronik/toolchain/yagarto/bin/../lib/gcc/arm-none-eabi/4.6.2/../../../../arm-none-eabi/lib/thumb/v7m\libg.a(lib_a-fclose.o)
 .debug_aranges
                0x00002ea0       0x20 e:/elektronik/toolchain/yagarto/bin/../lib/gcc/arm-none-eabi/4.6.2/thumb/v7m\libgcc.a(_udivsi3.o)
 .debug_aranges
                0x00002ec0       0x20 e:/elektronik/toolchain/yagarto/bin/../lib/gcc/arm-none-eabi/4.6.2/thumb/v7m\libgcc.a(_dvmd_tls.o)
 .debug_aranges
                0x00002ee0       0x20 e:/elektronik/toolchain/yagarto/bin/../lib/gcc/arm-none-eabi/4.6.2/thumb/v7m\libgcc.a(_arm_addsubdf3.o)
 .debug_aranges
                0x00002f00       0x20 e:/elektronik/toolchain/yagarto/bin/../lib/gcc/arm-none-eabi/4.6.2/thumb/v7m\libgcc.a(_arm_muldivdf3.o)
 .debug_aranges
                0x00002f20       0x20 e:/elektronik/toolchain/yagarto/bin/../lib/gcc/arm-none-eabi/4.6.2/thumb/v7m\libgcc.a(_arm_cmpdf2.o)
 .debug_aranges
                0x00002f40       0x20 e:/elektronik/toolchain/yagarto/bin/../lib/gcc/arm-none-eabi/4.6.2/thumb/v7m\libgcc.a(_arm_fixdfsi.o)
 .debug_aranges
                0x00002f60       0x28 e:/elektronik/toolchain/yagarto/bin/../lib/gcc/arm-none-eabi/4.6.2/thumb/v7m/crtn.o

.debug_ranges   0x00000000     0x3148
 .debug_ranges  0x00000000       0x20 e:/elektronik/toolchain/yagarto/bin/../lib/gcc/arm-none-eabi/4.6.2/thumb/v7m/crti.o
 .debug_ranges  0x00000020       0x30 ./STM32F4xx_StdPeriph_Driver/src/misc.o
 .debug_ranges  0x00000050      0x138 ./STM32F4xx_StdPeriph_Driver/src/stm32f4xx_adc.o
 .debug_ranges  0x00000188       0xd0 ./STM32F4xx_StdPeriph_Driver/src/stm32f4xx_can.o
 .debug_ranges  0x00000258       0x38 ./STM32F4xx_StdPeriph_Driver/src/stm32f4xx_crc.o
 .debug_ranges  0x00000290       0x90 ./STM32F4xx_StdPeriph_Driver/src/stm32f4xx_cryp.o
 .debug_ranges  0x00000320       0x20 ./STM32F4xx_StdPeriph_Driver/src/stm32f4xx_cryp_aes.o
 .debug_ranges  0x00000340       0x18 ./STM32F4xx_StdPeriph_Driver/src/stm32f4xx_cryp_des.o
 .debug_ranges  0x00000358       0x18 ./STM32F4xx_StdPeriph_Driver/src/stm32f4xx_cryp_tdes.o
 .debug_ranges  0x00000370       0x90 ./STM32F4xx_StdPeriph_Driver/src/stm32f4xx_dac.o
 .debug_ranges  0x00000400       0x30 ./STM32F4xx_StdPeriph_Driver/src/stm32f4xx_dbgmcu.o
 .debug_ranges  0x00000430       0x80 ./STM32F4xx_StdPeriph_Driver/src/stm32f4xx_dcmi.o
 .debug_ranges  0x000004b0       0xa0 ./STM32F4xx_StdPeriph_Driver/src/stm32f4xx_dma.o
 .debug_ranges  0x00000550       0x48 ./STM32F4xx_StdPeriph_Driver/src/stm32f4xx_exti.o
 .debug_ranges  0x00000598       0xf8 ./STM32F4xx_StdPeriph_Driver/src/stm32f4xx_flash.o
 .debug_ranges  0x00000690       0xa0 ./STM32F4xx_StdPeriph_Driver/src/stm32f4xx_fsmc.o
 .debug_ranges  0x00000730       0x78 ./STM32F4xx_StdPeriph_Driver/src/stm32f4xx_gpio.o
 .debug_ranges  0x000007a8       0x90 ./STM32F4xx_StdPeriph_Driver/src/stm32f4xx_hash.o
 .debug_ranges  0x00000838       0x18 ./STM32F4xx_StdPeriph_Driver/src/stm32f4xx_hash_md5.o
 .debug_ranges  0x00000850       0x18 ./STM32F4xx_StdPeriph_Driver/src/stm32f4xx_hash_sha1.o
 .debug_ranges  0x00000868      0x110 ./STM32F4xx_StdPeriph_Driver/src/stm32f4xx_i2c.o
 .debug_ranges  0x00000978       0x38 ./STM32F4xx_StdPeriph_Driver/src/stm32f4xx_iwdg.o
 .debug_ranges  0x000009b0       0x68 ./STM32F4xx_StdPeriph_Driver/src/stm32f4xx_pwr.o
 .debug_ranges  0x00000a18      0x168 ./STM32F4xx_StdPeriph_Driver/src/stm32f4xx_rcc.o
 .debug_ranges  0x00000b80       0x48 ./STM32F4xx_StdPeriph_Driver/src/stm32f4xx_rng.o
 .debug_ranges  0x00000bc8      0x1d0 ./STM32F4xx_StdPeriph_Driver/src/stm32f4xx_rtc.o
 .debug_ranges  0x00000d98       0xf8 ./STM32F4xx_StdPeriph_Driver/src/stm32f4xx_sdio.o
 .debug_ranges  0x00000e90       0xd0 ./STM32F4xx_StdPeriph_Driver/src/stm32f4xx_spi.o
 .debug_ranges  0x00000f60       0x38 ./STM32F4xx_StdPeriph_Driver/src/stm32f4xx_syscfg.o
 .debug_ranges  0x00000f98      0x2e8 ./STM32F4xx_StdPeriph_Driver/src/stm32f4xx_tim.o
 .debug_ranges  0x00001280       0xf0 ./STM32F4xx_StdPeriph_Driver/src/stm32f4xx_usart.o
 .debug_ranges  0x00001370       0x48 ./STM32F4xx_StdPeriph_Driver/src/stm32f4xx_wwdg.o
 .debug_ranges  0x000013b8       0x38 ./STM32F4-Discovery/stm32f4_discovery.o
 .debug_ranges  0x000013f0      0x120 ./STM32F4-Discovery/stm32f4_discovery_audio_codec.o
 .debug_ranges  0x00001510       0x68 ./STM32F4-Discovery/stm32f4_discovery_lis302dl.o
 .debug_ranges  0x00001578       0x48 ./Menue/CMenue.o
 .debug_ranges  0x000015c0       0x38 ./GraphicLCD/CGraphicLCD.o
 .debug_ranges  0x000015f8       0x98 ./GraphicLCD/CT6963CDriver.o
 .debug_ranges  0x00001690       0x58 ./GraphicLCD/CT6963GPIOInterface.o
 .debug_ranges  0x000016e8       0x88 ./FreeRTOS_EC/Source/AManagedTask.o
 .debug_ranges  0x00001770       0x48 ./FreeRTOS_EC/Source/ASyncObject.o
 .debug_ranges  0x000017b8       0x50 ./FreeRTOS_EC/Source/CBinarySemaphore.o
 .debug_ranges  0x00001808       0x50 ./FreeRTOS_EC/Source/CCountingSemaphore.o
 .debug_ranges  0x00001858       0x20 ./FreeRTOS_EC/Source/CFreeRTOS.o
 .debug_ranges  0x00001878       0xc0 ./FreeRTOS_EC/Source/CMessageTask.o
 .debug_ranges  0x00001938       0x50 ./FreeRTOS_EC/Source/CMutex.o
 .debug_ranges  0x00001988       0x58 ./FreeRTOS_EC/Source/CQueue.o
 .debug_ranges  0x000019e0       0x50 ./FreeRTOS_EC/Source/CRecursiveMutex.o
 .debug_ranges  0x00001a30       0x60 ./FreeRTOS_EC/Source/CTask.o
 .debug_ranges  0x00001a90       0x60 ./FreeRTOS/Source/portable/GCC/ARM_CM4F/port.o
 .debug_ranges  0x00001af0       0x40 ./FreeRTOS/Source/croutine.o
 .debug_ranges  0x00001b30       0x30 ./FreeRTOS/Source/list.o
 .debug_ranges  0x00001b60       0x88 ./FreeRTOS/Source/queue.o
 .debug_ranges  0x00001be8      0x158 ./FreeRTOS/Source/tasks.o
 .debug_ranges  0x00001d40       0x48 ./CLedHeartBeatSTM32F4Disc.o
 .debug_ranges  0x00001d88       0x78 ./main.o
 .debug_ranges  0x00001e00       0x20 ./startup_stm32f4xx.o
 .debug_ranges  0x00001e20       0x38 ./stm32f4xx_it.o
 .debug_ranges  0x00001e58       0x68 ./syscalls.o
 .debug_ranges  0x00001ec0       0x20 ./system_stm32f4xx.o
 .debug_ranges  0x00001ee0       0x40 ./ustime.o
 .debug_ranges  0x00001f20       0x10 e:/elektronik/toolchain/yagarto/bin/../lib/gcc/arm-none-eabi/4.6.2/../../../../arm-none-eabi/lib/thumb/v7m\libstdc++.a(atexit_arm.o)
 .debug_ranges  0x00001f30       0x10 e:/elektronik/toolchain/yagarto/bin/../lib/gcc/arm-none-eabi/4.6.2/../../../../arm-none-eabi/lib/thumb/v7m\libstdc++.a(del_op.o)
 .debug_ranges  0x00001f40       0x10 e:/elektronik/toolchain/yagarto/bin/../lib/gcc/arm-none-eabi/4.6.2/../../../../arm-none-eabi/lib/thumb/v7m\libstdc++.a(pure.o)
 .debug_ranges  0x00001f50       0x38 e:/elektronik/toolchain/yagarto/bin/../lib/gcc/arm-none-eabi/4.6.2/../../../../arm-none-eabi/lib/thumb/v7m\libstdc++.a(eh_terminate.o)
 .debug_ranges  0x00001f88       0xb0 e:/elektronik/toolchain/yagarto/bin/../lib/gcc/arm-none-eabi/4.6.2/../../../../arm-none-eabi/lib/thumb/v7m\libstdc++.a(vterminate.o)
 .debug_ranges  0x00002038       0x30 e:/elektronik/toolchain/yagarto/bin/../lib/gcc/arm-none-eabi/4.6.2/../../../../arm-none-eabi/lib/thumb/v7m\libstdc++.a(cp-demangle.o)
 .debug_ranges  0x00002068      0x110 e:/elektronik/toolchain/yagarto/bin/../lib/gcc/arm-none-eabi/4.6.2/../../../../arm-none-eabi/lib/thumb/v7m\libstdc++.a(eh_arm.o)
 .debug_ranges  0x00002178       0x48 e:/elektronik/toolchain/yagarto/bin/../lib/gcc/arm-none-eabi/4.6.2/../../../../arm-none-eabi/lib/thumb/v7m\libstdc++.a(eh_aux_runtime.o)
 .debug_ranges  0x000021c0       0xb8 e:/elektronik/toolchain/yagarto/bin/../lib/gcc/arm-none-eabi/4.6.2/../../../../arm-none-eabi/lib/thumb/v7m\libstdc++.a(eh_call.o)
 .debug_ranges  0x00002278       0xb8 e:/elektronik/toolchain/yagarto/bin/../lib/gcc/arm-none-eabi/4.6.2/../../../../arm-none-eabi/lib/thumb/v7m\libstdc++.a(eh_catch.o)
 .debug_ranges  0x00002330       0xd0 e:/elektronik/toolchain/yagarto/bin/../lib/gcc/arm-none-eabi/4.6.2/../../../../arm-none-eabi/lib/thumb/v7m\libstdc++.a(eh_exception.o)
 .debug_ranges  0x00002400       0x18 e:/elektronik/toolchain/yagarto/bin/../lib/gcc/arm-none-eabi/4.6.2/../../../../arm-none-eabi/lib/thumb/v7m\libstdc++.a(eh_globals.o)
 .debug_ranges  0x00002418      0x308 e:/elektronik/toolchain/yagarto/bin/../lib/gcc/arm-none-eabi/4.6.2/../../../../arm-none-eabi/lib/thumb/v7m\libstdc++.a(eh_personality.o)
 .debug_ranges  0x00002720       0xc8 e:/elektronik/toolchain/yagarto/bin/../lib/gcc/arm-none-eabi/4.6.2/../../../../arm-none-eabi/lib/thumb/v7m\libstdc++.a(eh_throw.o)
 .debug_ranges  0x000027e8       0x10 e:/elektronik/toolchain/yagarto/bin/../lib/gcc/arm-none-eabi/4.6.2/../../../../arm-none-eabi/lib/thumb/v7m\libstdc++.a(eh_type.o)
 .debug_ranges  0x000027f8       0x30 e:/elektronik/toolchain/yagarto/bin/../lib/gcc/arm-none-eabi/4.6.2/../../../../arm-none-eabi/lib/thumb/v7m\libstdc++.a(fundamental_type_info.o)
 .debug_ranges  0x00002828       0x40 e:/elektronik/toolchain/yagarto/bin/../lib/gcc/arm-none-eabi/4.6.2/../../../../arm-none-eabi/lib/thumb/v7m\libstdc++.a(pointer_type_info.o)
 .debug_ranges  0x00002868       0x60 e:/elektronik/toolchain/yagarto/bin/../lib/gcc/arm-none-eabi/4.6.2/../../../../arm-none-eabi/lib/thumb/v7m\libstdc++.a(si_class_type_info.o)
 .debug_ranges  0x000028c8       0x58 e:/elektronik/toolchain/yagarto/bin/../lib/gcc/arm-none-eabi/4.6.2/../../../../arm-none-eabi/lib/thumb/v7m\libstdc++.a(tinfo.o)
 .debug_ranges  0x00002920       0x38 e:/elektronik/toolchain/yagarto/bin/../lib/gcc/arm-none-eabi/4.6.2/../../../../arm-none-eabi/lib/thumb/v7m\libstdc++.a(bad_cast.o)
 .debug_ranges  0x00002958       0x38 e:/elektronik/toolchain/yagarto/bin/../lib/gcc/arm-none-eabi/4.6.2/../../../../arm-none-eabi/lib/thumb/v7m\libstdc++.a(bad_typeid.o)
 .debug_ranges  0x00002990       0x90 e:/elektronik/toolchain/yagarto/bin/../lib/gcc/arm-none-eabi/4.6.2/../../../../arm-none-eabi/lib/thumb/v7m\libstdc++.a(class_type_info.o)
 .debug_ranges  0x00002a20       0x98 e:/elektronik/toolchain/yagarto/bin/../lib/gcc/arm-none-eabi/4.6.2/../../../../arm-none-eabi/lib/thumb/v7m\libstdc++.a(eh_alloc.o)
 .debug_ranges  0x00002ab8       0x60 e:/elektronik/toolchain/yagarto/bin/../lib/gcc/arm-none-eabi/4.6.2/../../../../arm-none-eabi/lib/thumb/v7m\libstdc++.a(pbase_type_info.o)
 .debug_ranges  0x00002b18      0x140 e:/elektronik/toolchain/yagarto/bin/../lib/gcc/arm-none-eabi/4.6.2/thumb/v7m\libgcc.a(unwind-arm.o)
 .debug_ranges  0x00002c58       0x30 e:/elektronik/toolchain/yagarto/bin/../lib/gcc/arm-none-eabi/4.6.2/thumb/v7m\libgcc.a(pr-support.o)
 .debug_ranges  0x00002c88       0x40 e:/elektronik/toolchain/yagarto/bin/../lib/gcc/arm-none-eabi/4.6.2/../../../../arm-none-eabi/lib/thumb/v7m\libg.a(lib_a-mallocr.o)
 .debug_ranges  0x00002cc8       0xd0 e:/elektronik/toolchain/yagarto/bin/../lib/gcc/arm-none-eabi/4.6.2/../../../../arm-none-eabi/lib/thumb/v7m\libg.a(lib_a-reallocr.o)
 .debug_ranges  0x00002d98       0x20 e:/elektronik/toolchain/yagarto/bin/../lib/gcc/arm-none-eabi/4.6.2/../../../../arm-none-eabi/lib/thumb/v7m\libg.a(lib_a-strcat.o)
 .debug_ranges  0x00002db8      0x198 e:/elektronik/toolchain/yagarto/bin/../lib/gcc/arm-none-eabi/4.6.2/../../../../arm-none-eabi/lib/thumb/v7m\libg.a(lib_a-svfprintf.o)
 .debug_ranges  0x00002f50       0x80 e:/elektronik/toolchain/yagarto/bin/../lib/gcc/arm-none-eabi/4.6.2/../../../../arm-none-eabi/lib/thumb/v7m\libg.a(lib_a-vfiprintf.o)
 .debug_ranges  0x00002fd0       0x20 e:/elektronik/toolchain/yagarto/bin/../lib/gcc/arm-none-eabi/4.6.2/../../../../arm-none-eabi/lib/thumb/v7m\libg.a(lib_a-__call_atexit.o)
 .debug_ranges  0x00002ff0       0x68 e:/elektronik/toolchain/yagarto/bin/../lib/gcc/arm-none-eabi/4.6.2/../../../../arm-none-eabi/lib/thumb/v7m\libg.a(lib_a-fflush.o)
 .debug_ranges  0x00003058       0x30 e:/elektronik/toolchain/yagarto/bin/../lib/gcc/arm-none-eabi/4.6.2/../../../../arm-none-eabi/lib/thumb/v7m\libg.a(lib_a-fputwc.o)
 .debug_ranges  0x00003088       0x40 e:/elektronik/toolchain/yagarto/bin/../lib/gcc/arm-none-eabi/4.6.2/../../../../arm-none-eabi/lib/thumb/v7m\libg.a(lib_a-mprec.o)
 .debug_ranges  0x000030c8       0x48 e:/elektronik/toolchain/yagarto/bin/../lib/gcc/arm-none-eabi/4.6.2/../../../../arm-none-eabi/lib/thumb/v7m\libg.a(lib_a-svfiprintf.o)
 .debug_ranges  0x00003110       0x18 e:/elektronik/toolchain/yagarto/bin/../lib/gcc/arm-none-eabi/4.6.2/../../../../arm-none-eabi/lib/thumb/v7m\libg.a(lib_a-callocr.o)
 .debug_ranges  0x00003128       0x20 e:/elektronik/toolchain/yagarto/bin/../lib/gcc/arm-none-eabi/4.6.2/thumb/v7m/crtn.o

.comment        0x00000000       0x11
 .comment       0x00000000       0x11 e:/elektronik/toolchain/yagarto/bin/../lib/gcc/arm-none-eabi/4.6.2/thumb/v7m/crtbegin.o
                                 0x12 (size before relaxing)
 .comment       0x00000000       0x12 ./STM32F4xx_StdPeriph_Driver/src/misc.o
 .comment       0x00000000       0x12 ./STM32F4xx_StdPeriph_Driver/src/stm32f4xx_adc.o
 .comment       0x00000000       0x12 ./STM32F4xx_StdPeriph_Driver/src/stm32f4xx_can.o
 .comment       0x00000000       0x12 ./STM32F4xx_StdPeriph_Driver/src/stm32f4xx_crc.o
 .comment       0x00000000       0x12 ./STM32F4xx_StdPeriph_Driver/src/stm32f4xx_cryp.o
 .comment       0x00000000       0x12 ./STM32F4xx_StdPeriph_Driver/src/stm32f4xx_cryp_aes.o
 .comment       0x00000000       0x12 ./STM32F4xx_StdPeriph_Driver/src/stm32f4xx_cryp_des.o
 .comment       0x00000000       0x12 ./STM32F4xx_StdPeriph_Driver/src/stm32f4xx_cryp_tdes.o
 .comment       0x00000000       0x12 ./STM32F4xx_StdPeriph_Driver/src/stm32f4xx_dac.o
 .comment       0x00000000       0x12 ./STM32F4xx_StdPeriph_Driver/src/stm32f4xx_dbgmcu.o
 .comment       0x00000000       0x12 ./STM32F4xx_StdPeriph_Driver/src/stm32f4xx_dcmi.o
 .comment       0x00000000       0x12 ./STM32F4xx_StdPeriph_Driver/src/stm32f4xx_dma.o
 .comment       0x00000000       0x12 ./STM32F4xx_StdPeriph_Driver/src/stm32f4xx_exti.o
 .comment       0x00000000       0x12 ./STM32F4xx_StdPeriph_Driver/src/stm32f4xx_flash.o
 .comment       0x00000000       0x12 ./STM32F4xx_StdPeriph_Driver/src/stm32f4xx_fsmc.o
 .comment       0x00000000       0x12 ./STM32F4xx_StdPeriph_Driver/src/stm32f4xx_gpio.o
 .comment       0x00000000       0x12 ./STM32F4xx_StdPeriph_Driver/src/stm32f4xx_hash.o
 .comment       0x00000000       0x12 ./STM32F4xx_StdPeriph_Driver/src/stm32f4xx_hash_md5.o
 .comment       0x00000000       0x12 ./STM32F4xx_StdPeriph_Driver/src/stm32f4xx_hash_sha1.o
 .comment       0x00000000       0x12 ./STM32F4xx_StdPeriph_Driver/src/stm32f4xx_i2c.o
 .comment       0x00000000       0x12 ./STM32F4xx_StdPeriph_Driver/src/stm32f4xx_iwdg.o
 .comment       0x00000000       0x12 ./STM32F4xx_StdPeriph_Driver/src/stm32f4xx_pwr.o
 .comment       0x00000000       0x12 ./STM32F4xx_StdPeriph_Driver/src/stm32f4xx_rcc.o
 .comment       0x00000000       0x12 ./STM32F4xx_StdPeriph_Driver/src/stm32f4xx_rng.o
 .comment       0x00000000       0x12 ./STM32F4xx_StdPeriph_Driver/src/stm32f4xx_rtc.o
 .comment       0x00000000       0x12 ./STM32F4xx_StdPeriph_Driver/src/stm32f4xx_sdio.o
 .comment       0x00000000       0x12 ./STM32F4xx_StdPeriph_Driver/src/stm32f4xx_spi.o
 .comment       0x00000000       0x12 ./STM32F4xx_StdPeriph_Driver/src/stm32f4xx_syscfg.o
 .comment       0x00000000       0x12 ./STM32F4xx_StdPeriph_Driver/src/stm32f4xx_tim.o
 .comment       0x00000000       0x12 ./STM32F4xx_StdPeriph_Driver/src/stm32f4xx_usart.o
 .comment       0x00000000       0x12 ./STM32F4xx_StdPeriph_Driver/src/stm32f4xx_wwdg.o
 .comment       0x00000000       0x12 ./STM32F4-Discovery/stm32f4_discovery.o
 .comment       0x00000000       0x12 ./STM32F4-Discovery/stm32f4_discovery_audio_codec.o
 .comment       0x00000000       0x12 ./STM32F4-Discovery/stm32f4_discovery_lis302dl.o
 .comment       0x00000000       0x12 ./Menue/CMenue.o
 .comment       0x00000000       0x12 ./GraphicLCD/CGraphicLCD.o
 .comment       0x00000000       0x12 ./GraphicLCD/CT6963CDriver.o
 .comment       0x00000000       0x12 ./GraphicLCD/CT6963GPIOInterface.o
 .comment       0x00000000       0x12 ./GraphicLCD/SansSerif12.o
 .comment       0x00000000       0x12 ./FreeRTOS_EC/Source/AManagedTask.o
 .comment       0x00000000       0x12 ./FreeRTOS_EC/Source/ASyncObject.o
 .comment       0x00000000       0x12 ./FreeRTOS_EC/Source/ATimer.o
 .comment       0x00000000       0x12 ./FreeRTOS_EC/Source/CBinarySemaphore.o
 .comment       0x00000000       0x12 ./FreeRTOS_EC/Source/CCountingSemaphore.o
 .comment       0x00000000       0x12 ./FreeRTOS_EC/Source/CFreeRTOS.o
 .comment       0x00000000       0x12 ./FreeRTOS_EC/Source/CMessageTask.o
 .comment       0x00000000       0x12 ./FreeRTOS_EC/Source/CMutex.o
 .comment       0x00000000       0x12 ./FreeRTOS_EC/Source/CQueue.o
 .comment       0x00000000       0x12 ./FreeRTOS_EC/Source/CRecursiveMutex.o
 .comment       0x00000000       0x12 ./FreeRTOS_EC/Source/CTask.o
 .comment       0x00000000       0x12 ./FreeRTOS/Source/portable/GCC/ARM_CM4F/port.o
 .comment       0x00000000       0x12 ./FreeRTOS/Source/croutine.o
 .comment       0x00000000       0x12 ./FreeRTOS/Source/list.o
 .comment       0x00000000       0x12 ./FreeRTOS/Source/queue.o
 .comment       0x00000000       0x12 ./FreeRTOS/Source/tasks.o
 .comment       0x00000000       0x12 ./FreeRTOS/Source/timers.o
 .comment       0x00000000       0x12 ./CLedHeartBeatSTM32F4Disc.o
 .comment       0x00000000       0x12 ./main.o
 .comment       0x00000000       0x12 ./stm32f4xx_it.o
 .comment       0x00000000       0x12 ./syscalls.o
 .comment       0x00000000       0x12 ./system_stm32f4xx.o
 .comment       0x00000000       0x12 ./ustime.o
 .comment       0x00000000       0x12 e:/elektronik/toolchain/yagarto/bin/../lib/gcc/arm-none-eabi/4.6.2/../../../../arm-none-eabi/lib/thumb/v7m\libstdc++.a(atexit_arm.o)
 .comment       0x00000000       0x12 e:/elektronik/toolchain/yagarto/bin/../lib/gcc/arm-none-eabi/4.6.2/../../../../arm-none-eabi/lib/thumb/v7m\libstdc++.a(del_op.o)
 .comment       0x00000000       0x12 e:/elektronik/toolchain/yagarto/bin/../lib/gcc/arm-none-eabi/4.6.2/../../../../arm-none-eabi/lib/thumb/v7m\libstdc++.a(pure.o)
 .comment       0x00000000       0x12 e:/elektronik/toolchain/yagarto/bin/../lib/gcc/arm-none-eabi/4.6.2/../../../../arm-none-eabi/lib/thumb/v7m\libstdc++.a(eh_terminate.o)
 .comment       0x00000000       0x12 e:/elektronik/toolchain/yagarto/bin/../lib/gcc/arm-none-eabi/4.6.2/../../../../arm-none-eabi/lib/thumb/v7m\libstdc++.a(eh_term_handler.o)
 .comment       0x00000000       0x12 e:/elektronik/toolchain/yagarto/bin/../lib/gcc/arm-none-eabi/4.6.2/../../../../arm-none-eabi/lib/thumb/v7m\libstdc++.a(eh_unex_handler.o)
 .comment       0x00000000       0x12 e:/elektronik/toolchain/yagarto/bin/../lib/gcc/arm-none-eabi/4.6.2/../../../../arm-none-eabi/lib/thumb/v7m\libstdc++.a(vterminate.o)
 .comment       0x00000000       0x12 e:/elektronik/toolchain/yagarto/bin/../lib/gcc/arm-none-eabi/4.6.2/../../../../arm-none-eabi/lib/thumb/v7m\libstdc++.a(cp-demangle.o)
 .comment       0x00000000       0x12 e:/elektronik/toolchain/yagarto/bin/../lib/gcc/arm-none-eabi/4.6.2/../../../../arm-none-eabi/lib/thumb/v7m\libstdc++.a(eh_arm.o)
 .comment       0x00000000       0x12 e:/elektronik/toolchain/yagarto/bin/../lib/gcc/arm-none-eabi/4.6.2/../../../../arm-none-eabi/lib/thumb/v7m\libstdc++.a(eh_aux_runtime.o)
 .comment       0x00000000       0x12 e:/elektronik/toolchain/yagarto/bin/../lib/gcc/arm-none-eabi/4.6.2/../../../../arm-none-eabi/lib/thumb/v7m\libstdc++.a(eh_call.o)
 .comment       0x00000000       0x12 e:/elektronik/toolchain/yagarto/bin/../lib/gcc/arm-none-eabi/4.6.2/../../../../arm-none-eabi/lib/thumb/v7m\libstdc++.a(eh_catch.o)
 .comment       0x00000000       0x12 e:/elektronik/toolchain/yagarto/bin/../lib/gcc/arm-none-eabi/4.6.2/../../../../arm-none-eabi/lib/thumb/v7m\libstdc++.a(eh_exception.o)
 .comment       0x00000000       0x12 e:/elektronik/toolchain/yagarto/bin/../lib/gcc/arm-none-eabi/4.6.2/../../../../arm-none-eabi/lib/thumb/v7m\libstdc++.a(eh_globals.o)
 .comment       0x00000000       0x12 e:/elektronik/toolchain/yagarto/bin/../lib/gcc/arm-none-eabi/4.6.2/../../../../arm-none-eabi/lib/thumb/v7m\libstdc++.a(eh_personality.o)
 .comment       0x00000000       0x12 e:/elektronik/toolchain/yagarto/bin/../lib/gcc/arm-none-eabi/4.6.2/../../../../arm-none-eabi/lib/thumb/v7m\libstdc++.a(eh_throw.o)
 .comment       0x00000000       0x12 e:/elektronik/toolchain/yagarto/bin/../lib/gcc/arm-none-eabi/4.6.2/../../../../arm-none-eabi/lib/thumb/v7m\libstdc++.a(eh_type.o)
 .comment       0x00000000       0x12 e:/elektronik/toolchain/yagarto/bin/../lib/gcc/arm-none-eabi/4.6.2/../../../../arm-none-eabi/lib/thumb/v7m\libstdc++.a(fundamental_type_info.o)
 .comment       0x00000000       0x12 e:/elektronik/toolchain/yagarto/bin/../lib/gcc/arm-none-eabi/4.6.2/../../../../arm-none-eabi/lib/thumb/v7m\libstdc++.a(pointer_type_info.o)
 .comment       0x00000000       0x12 e:/elektronik/toolchain/yagarto/bin/../lib/gcc/arm-none-eabi/4.6.2/../../../../arm-none-eabi/lib/thumb/v7m\libstdc++.a(si_class_type_info.o)
 .comment       0x00000000       0x12 e:/elektronik/toolchain/yagarto/bin/../lib/gcc/arm-none-eabi/4.6.2/../../../../arm-none-eabi/lib/thumb/v7m\libstdc++.a(tinfo.o)
 .comment       0x00000000       0x12 e:/elektronik/toolchain/yagarto/bin/../lib/gcc/arm-none-eabi/4.6.2/../../../../arm-none-eabi/lib/thumb/v7m\libstdc++.a(bad_cast.o)
 .comment       0x00000000       0x12 e:/elektronik/toolchain/yagarto/bin/../lib/gcc/arm-none-eabi/4.6.2/../../../../arm-none-eabi/lib/thumb/v7m\libstdc++.a(bad_typeid.o)
 .comment       0x00000000       0x12 e:/elektronik/toolchain/yagarto/bin/../lib/gcc/arm-none-eabi/4.6.2/../../../../arm-none-eabi/lib/thumb/v7m\libstdc++.a(class_type_info.o)
 .comment       0x00000000       0x12 e:/elektronik/toolchain/yagarto/bin/../lib/gcc/arm-none-eabi/4.6.2/../../../../arm-none-eabi/lib/thumb/v7m\libstdc++.a(eh_alloc.o)
 .comment       0x00000000       0x12 e:/elektronik/toolchain/yagarto/bin/../lib/gcc/arm-none-eabi/4.6.2/../../../../arm-none-eabi/lib/thumb/v7m\libstdc++.a(pbase_type_info.o)
 .comment       0x00000000       0x12 e:/elektronik/toolchain/yagarto/bin/../lib/gcc/arm-none-eabi/4.6.2/thumb/v7m\libgcc.a(unwind-arm.o)
 .comment       0x00000000       0x12 e:/elektronik/toolchain/yagarto/bin/../lib/gcc/arm-none-eabi/4.6.2/thumb/v7m\libgcc.a(pr-support.o)
 .comment       0x00000000       0x12 e:/elektronik/toolchain/yagarto/bin/../lib/gcc/arm-none-eabi/4.6.2/../../../../arm-none-eabi/lib/thumb/v7m\libg.a(lib_a-abort.o)
 .comment       0x00000000       0x12 e:/elektronik/toolchain/yagarto/bin/../lib/gcc/arm-none-eabi/4.6.2/../../../../arm-none-eabi/lib/thumb/v7m\libg.a(lib_a-assert.o)
 .comment       0x00000000       0x12 e:/elektronik/toolchain/yagarto/bin/../lib/gcc/arm-none-eabi/4.6.2/../../../../arm-none-eabi/lib/thumb/v7m\libg.a(lib_a-atexit.o)
 .comment       0x00000000       0x12 e:/elektronik/toolchain/yagarto/bin/../lib/gcc/arm-none-eabi/4.6.2/../../../../arm-none-eabi/lib/thumb/v7m\libg.a(lib_a-cxa_atexit.o)
 .comment       0x00000000       0x12 e:/elektronik/toolchain/yagarto/bin/../lib/gcc/arm-none-eabi/4.6.2/../../../../arm-none-eabi/lib/thumb/v7m\libg.a(lib_a-exit.o)
 .comment       0x00000000       0x12 e:/elektronik/toolchain/yagarto/bin/../lib/gcc/arm-none-eabi/4.6.2/../../../../arm-none-eabi/lib/thumb/v7m\libg.a(lib_a-fini.o)
 .comment       0x00000000       0x12 e:/elektronik/toolchain/yagarto/bin/../lib/gcc/arm-none-eabi/4.6.2/../../../../arm-none-eabi/lib/thumb/v7m\libg.a(lib_a-fiprintf.o)
 .comment       0x00000000       0x12 e:/elektronik/toolchain/yagarto/bin/../lib/gcc/arm-none-eabi/4.6.2/../../../../arm-none-eabi/lib/thumb/v7m\libg.a(lib_a-fputc.o)
 .comment       0x00000000       0x12 e:/elektronik/toolchain/yagarto/bin/../lib/gcc/arm-none-eabi/4.6.2/../../../../arm-none-eabi/lib/thumb/v7m\libg.a(lib_a-fputs.o)
 .comment       0x00000000       0x12 e:/elektronik/toolchain/yagarto/bin/../lib/gcc/arm-none-eabi/4.6.2/../../../../arm-none-eabi/lib/thumb/v7m\libg.a(lib_a-fvwrite.o)
 .comment       0x00000000       0x12 e:/elektronik/toolchain/yagarto/bin/../lib/gcc/arm-none-eabi/4.6.2/../../../../arm-none-eabi/lib/thumb/v7m\libg.a(lib_a-fwrite.o)
 .comment       0x00000000       0x12 e:/elektronik/toolchain/yagarto/bin/../lib/gcc/arm-none-eabi/4.6.2/../../../../arm-none-eabi/lib/thumb/v7m\libg.a(lib_a-impure.o)
 .comment       0x00000000       0x12 e:/elektronik/toolchain/yagarto/bin/../lib/gcc/arm-none-eabi/4.6.2/../../../../arm-none-eabi/lib/thumb/v7m\libg.a(lib_a-init.o)
 .comment       0x00000000       0x12 e:/elektronik/toolchain/yagarto/bin/../lib/gcc/arm-none-eabi/4.6.2/../../../../arm-none-eabi/lib/thumb/v7m\libg.a(lib_a-malloc.o)
 .comment       0x00000000       0x12 e:/elektronik/toolchain/yagarto/bin/../lib/gcc/arm-none-eabi/4.6.2/../../../../arm-none-eabi/lib/thumb/v7m\libg.a(lib_a-mallocr.o)
 .comment       0x00000000       0x12 e:/elektronik/toolchain/yagarto/bin/../lib/gcc/arm-none-eabi/4.6.2/../../../../arm-none-eabi/lib/thumb/v7m\libg.a(lib_a-memchr.o)
 .comment       0x00000000       0x12 e:/elektronik/toolchain/yagarto/bin/../lib/gcc/arm-none-eabi/4.6.2/../../../../arm-none-eabi/lib/thumb/v7m\libg.a(lib_a-memcmp.o)
 .comment       0x00000000       0x12 e:/elektronik/toolchain/yagarto/bin/../lib/gcc/arm-none-eabi/4.6.2/../../../../arm-none-eabi/lib/thumb/v7m\libg.a(lib_a-memcpy.o)
 .comment       0x00000000       0x12 e:/elektronik/toolchain/yagarto/bin/../lib/gcc/arm-none-eabi/4.6.2/../../../../arm-none-eabi/lib/thumb/v7m\libg.a(lib_a-memmove.o)
 .comment       0x00000000       0x12 e:/elektronik/toolchain/yagarto/bin/../lib/gcc/arm-none-eabi/4.6.2/../../../../arm-none-eabi/lib/thumb/v7m\libg.a(lib_a-memset.o)
 .comment       0x00000000       0x12 e:/elektronik/toolchain/yagarto/bin/../lib/gcc/arm-none-eabi/4.6.2/../../../../arm-none-eabi/lib/thumb/v7m\libg.a(lib_a-putc.o)
 .comment       0x00000000       0x12 e:/elektronik/toolchain/yagarto/bin/../lib/gcc/arm-none-eabi/4.6.2/../../../../arm-none-eabi/lib/thumb/v7m\libg.a(lib_a-realloc.o)
 .comment       0x00000000       0x12 e:/elektronik/toolchain/yagarto/bin/../lib/gcc/arm-none-eabi/4.6.2/../../../../arm-none-eabi/lib/thumb/v7m\libg.a(lib_a-reallocr.o)
 .comment       0x00000000       0x12 e:/elektronik/toolchain/yagarto/bin/../lib/gcc/arm-none-eabi/4.6.2/../../../../arm-none-eabi/lib/thumb/v7m\libg.a(lib_a-signal.o)
 .comment       0x00000000       0x12 e:/elektronik/toolchain/yagarto/bin/../lib/gcc/arm-none-eabi/4.6.2/../../../../arm-none-eabi/lib/thumb/v7m\libg.a(lib_a-sprintf.o)
 .comment       0x00000000       0x12 e:/elektronik/toolchain/yagarto/bin/../lib/gcc/arm-none-eabi/4.6.2/../../../../arm-none-eabi/lib/thumb/v7m\libg.a(lib_a-strcat.o)
 .comment       0x00000000       0x12 e:/elektronik/toolchain/yagarto/bin/../lib/gcc/arm-none-eabi/4.6.2/../../../../arm-none-eabi/lib/thumb/v7m\libg.a(lib_a-strcmp.o)
 .comment       0x00000000       0x12 e:/elektronik/toolchain/yagarto/bin/../lib/gcc/arm-none-eabi/4.6.2/../../../../arm-none-eabi/lib/thumb/v7m\libg.a(lib_a-strcpy.o)
 .comment       0x00000000       0x12 e:/elektronik/toolchain/yagarto/bin/../lib/gcc/arm-none-eabi/4.6.2/../../../../arm-none-eabi/lib/thumb/v7m\libg.a(lib_a-strlen.o)
 .comment       0x00000000       0x12 e:/elektronik/toolchain/yagarto/bin/../lib/gcc/arm-none-eabi/4.6.2/../../../../arm-none-eabi/lib/thumb/v7m\libg.a(lib_a-strncmp.o)
 .comment       0x00000000       0x12 e:/elektronik/toolchain/yagarto/bin/../lib/gcc/arm-none-eabi/4.6.2/../../../../arm-none-eabi/lib/thumb/v7m\libg.a(lib_a-strncpy.o)
 .comment       0x00000000       0x12 e:/elektronik/toolchain/yagarto/bin/../lib/gcc/arm-none-eabi/4.6.2/../../../../arm-none-eabi/lib/thumb/v7m\libg.a(lib_a-svfprintf.o)
 .comment       0x00000000       0x12 e:/elektronik/toolchain/yagarto/bin/../lib/gcc/arm-none-eabi/4.6.2/../../../../arm-none-eabi/lib/thumb/v7m\libg.a(lib_a-syswrite.o)
 .comment       0x00000000       0x12 e:/elektronik/toolchain/yagarto/bin/../lib/gcc/arm-none-eabi/4.6.2/../../../../arm-none-eabi/lib/thumb/v7m\libg.a(lib_a-vfiprintf.o)
 .comment       0x00000000       0x12 e:/elektronik/toolchain/yagarto/bin/../lib/gcc/arm-none-eabi/4.6.2/../../../../arm-none-eabi/lib/thumb/v7m\libg.a(lib_a-wbuf.o)
 .comment       0x00000000       0x12 e:/elektronik/toolchain/yagarto/bin/../lib/gcc/arm-none-eabi/4.6.2/../../../../arm-none-eabi/lib/thumb/v7m\libg.a(lib_a-wsetup.o)
 .comment       0x00000000       0x12 e:/elektronik/toolchain/yagarto/bin/../lib/gcc/arm-none-eabi/4.6.2/../../../../arm-none-eabi/lib/thumb/v7m\libg.a(lib_a-__atexit.o)
 .comment       0x00000000       0x12 e:/elektronik/toolchain/yagarto/bin/../lib/gcc/arm-none-eabi/4.6.2/../../../../arm-none-eabi/lib/thumb/v7m\libg.a(lib_a-__call_atexit.o)
 .comment       0x00000000       0x12 e:/elektronik/toolchain/yagarto/bin/../lib/gcc/arm-none-eabi/4.6.2/../../../../arm-none-eabi/lib/thumb/v7m\libg.a(lib_a-dtoa.o)
 .comment       0x00000000       0x12 e:/elektronik/toolchain/yagarto/bin/../lib/gcc/arm-none-eabi/4.6.2/../../../../arm-none-eabi/lib/thumb/v7m\libg.a(lib_a-fflush.o)
 .comment       0x00000000       0x12 e:/elektronik/toolchain/yagarto/bin/../lib/gcc/arm-none-eabi/4.6.2/../../../../arm-none-eabi/lib/thumb/v7m\libg.a(lib_a-findfp.o)
 .comment       0x00000000       0x12 e:/elektronik/toolchain/yagarto/bin/../lib/gcc/arm-none-eabi/4.6.2/../../../../arm-none-eabi/lib/thumb/v7m\libg.a(lib_a-fputwc.o)
 .comment       0x00000000       0x12 e:/elektronik/toolchain/yagarto/bin/../lib/gcc/arm-none-eabi/4.6.2/../../../../arm-none-eabi/lib/thumb/v7m\libg.a(lib_a-freer.o)
 .comment       0x00000000       0x12 e:/elektronik/toolchain/yagarto/bin/../lib/gcc/arm-none-eabi/4.6.2/../../../../arm-none-eabi/lib/thumb/v7m\libg.a(lib_a-fwalk.o)
 .comment       0x00000000       0x12 e:/elektronik/toolchain/yagarto/bin/../lib/gcc/arm-none-eabi/4.6.2/../../../../arm-none-eabi/lib/thumb/v7m\libg.a(lib_a-locale.o)
 .comment       0x00000000       0x12 e:/elektronik/toolchain/yagarto/bin/../lib/gcc/arm-none-eabi/4.6.2/../../../../arm-none-eabi/lib/thumb/v7m\libg.a(lib_a-makebuf.o)
 .comment       0x00000000       0x12 e:/elektronik/toolchain/yagarto/bin/../lib/gcc/arm-none-eabi/4.6.2/../../../../arm-none-eabi/lib/thumb/v7m\libg.a(lib_a-mprec.o)
 .comment       0x00000000       0x12 e:/elektronik/toolchain/yagarto/bin/../lib/gcc/arm-none-eabi/4.6.2/../../../../arm-none-eabi/lib/thumb/v7m\libg.a(lib_a-s_fpclassify.o)
 .comment       0x00000000       0x12 e:/elektronik/toolchain/yagarto/bin/../lib/gcc/arm-none-eabi/4.6.2/../../../../arm-none-eabi/lib/thumb/v7m\libg.a(lib_a-stdio.o)
 .comment       0x00000000       0x12 e:/elektronik/toolchain/yagarto/bin/../lib/gcc/arm-none-eabi/4.6.2/../../../../arm-none-eabi/lib/thumb/v7m\libg.a(lib_a-svfiprintf.o)
 .comment       0x00000000       0x12 e:/elektronik/toolchain/yagarto/bin/../lib/gcc/arm-none-eabi/4.6.2/../../../../arm-none-eabi/lib/thumb/v7m\libg.a(lib_a-wcrtomb.o)
 .comment       0x00000000       0x12 e:/elektronik/toolchain/yagarto/bin/../lib/gcc/arm-none-eabi/4.6.2/../../../../arm-none-eabi/lib/thumb/v7m\libg.a(lib_a-wctomb_r.o)
 .comment       0x00000000       0x12 e:/elektronik/toolchain/yagarto/bin/../lib/gcc/arm-none-eabi/4.6.2/../../../../arm-none-eabi/lib/thumb/v7m\libg.a(lib_a-callocr.o)
 .comment       0x00000000       0x12 e:/elektronik/toolchain/yagarto/bin/../lib/gcc/arm-none-eabi/4.6.2/../../../../arm-none-eabi/lib/thumb/v7m\libg.a(lib_a-fclose.o)
 .comment       0x00000000       0x12 e:/elektronik/toolchain/yagarto/bin/../lib/gcc/arm-none-eabi/4.6.2/thumb/v7m/crtend.o

.debug_loc      0x00000000    0x1f5e9
 .debug_loc     0x00000000      0x118 ./STM32F4xx_StdPeriph_Driver/src/misc.o
 .debug_loc     0x00000118      0x838 ./STM32F4xx_StdPeriph_Driver/src/stm32f4xx_adc.o
 .debug_loc     0x00000950      0x578 ./STM32F4xx_StdPeriph_Driver/src/stm32f4xx_can.o
 .debug_loc     0x00000ec8      0x12c ./STM32F4xx_StdPeriph_Driver/src/stm32f4xx_crc.o
 .debug_loc     0x00000ff4      0x394 ./STM32F4xx_StdPeriph_Driver/src/stm32f4xx_cryp.o
 .debug_loc     0x00001388       0xae ./STM32F4xx_StdPeriph_Driver/src/stm32f4xx_cryp_aes.o
 .debug_loc     0x00001436       0x74 ./STM32F4xx_StdPeriph_Driver/src/stm32f4xx_cryp_des.o
 .debug_loc     0x000014aa       0x74 ./STM32F4xx_StdPeriph_Driver/src/stm32f4xx_cryp_tdes.o
 .debug_loc     0x0000151e      0x3ac ./STM32F4xx_StdPeriph_Driver/src/stm32f4xx_dac.o
 .debug_loc     0x000018ca      0x100 ./STM32F4xx_StdPeriph_Driver/src/stm32f4xx_dbgmcu.o
 .debug_loc     0x000019ca      0x330 ./STM32F4xx_StdPeriph_Driver/src/stm32f4xx_dcmi.o
 .debug_loc     0x00001cfa      0x428 ./STM32F4xx_StdPeriph_Driver/src/stm32f4xx_dma.o
 .debug_loc     0x00002122      0x1b4 ./STM32F4xx_StdPeriph_Driver/src/stm32f4xx_exti.o
 .debug_loc     0x000022d6      0x624 ./STM32F4xx_StdPeriph_Driver/src/stm32f4xx_flash.o
 .debug_loc     0x000028fa      0x41c ./STM32F4xx_StdPeriph_Driver/src/stm32f4xx_fsmc.o
 .debug_loc     0x00002d16      0x310 ./STM32F4xx_StdPeriph_Driver/src/stm32f4xx_gpio.o
 .debug_loc     0x00003026      0x388 ./STM32F4xx_StdPeriph_Driver/src/stm32f4xx_hash.o
 .debug_loc     0x000033ae       0x74 ./STM32F4xx_StdPeriph_Driver/src/stm32f4xx_hash_md5.o
 .debug_loc     0x00003422       0x74 ./STM32F4xx_StdPeriph_Driver/src/stm32f4xx_hash_sha1.o
 .debug_loc     0x00003496      0x738 ./STM32F4xx_StdPeriph_Driver/src/stm32f4xx_i2c.o
 .debug_loc     0x00003bce      0x138 ./STM32F4xx_StdPeriph_Driver/src/stm32f4xx_iwdg.o
 .debug_loc     0x00003d06      0x288 ./STM32F4xx_StdPeriph_Driver/src/stm32f4xx_pwr.o
 .debug_loc     0x00003f8e      0x97c ./STM32F4xx_StdPeriph_Driver/src/stm32f4xx_rcc.o
 .debug_loc     0x0000490a      0x1a8 ./STM32F4xx_StdPeriph_Driver/src/stm32f4xx_rng.o
 .debug_loc     0x00004ab2      0xc48 ./STM32F4xx_StdPeriph_Driver/src/stm32f4xx_rtc.o
 .debug_loc     0x000056fa      0x648 ./STM32F4xx_StdPeriph_Driver/src/stm32f4xx_sdio.o
 .debug_loc     0x00005d42      0x578 ./STM32F4xx_StdPeriph_Driver/src/stm32f4xx_spi.o
 .debug_loc     0x000062ba      0x144 ./STM32F4xx_StdPeriph_Driver/src/stm32f4xx_syscfg.o
 .debug_loc     0x000063fe     0x1420 ./STM32F4xx_StdPeriph_Driver/src/stm32f4xx_tim.o
 .debug_loc     0x0000781e      0x658 ./STM32F4xx_StdPeriph_Driver/src/stm32f4xx_usart.o
 .debug_loc     0x00007e76      0x19c ./STM32F4xx_StdPeriph_Driver/src/stm32f4xx_wwdg.o
 .debug_loc     0x00008012      0x150 ./STM32F4-Discovery/stm32f4_discovery.o
 .debug_loc     0x00008162      0x730 ./STM32F4-Discovery/stm32f4_discovery_audio_codec.o
 .debug_loc     0x00008892      0x2a0 ./STM32F4-Discovery/stm32f4_discovery_lis302dl.o
 .debug_loc     0x00008b32      0x1c0 ./Menue/CMenue.o
 .debug_loc     0x00008cf2      0x150 ./GraphicLCD/CGraphicLCD.o
 .debug_loc     0x00008e42      0x3fe ./GraphicLCD/CT6963CDriver.o
 .debug_loc     0x00009240      0x230 ./GraphicLCD/CT6963GPIOInterface.o
 .debug_loc     0x00009470      0x350 ./FreeRTOS_EC/Source/AManagedTask.o
 .debug_loc     0x000097c0      0x1c0 ./FreeRTOS_EC/Source/ASyncObject.o
 .debug_loc     0x00009980      0x1f8 ./FreeRTOS_EC/Source/CBinarySemaphore.o
 .debug_loc     0x00009b78      0x1f8 ./FreeRTOS_EC/Source/CCountingSemaphore.o
 .debug_loc     0x00009d70       0x9c ./FreeRTOS_EC/Source/CFreeRTOS.o
 .debug_loc     0x00009e0c      0x460 ./FreeRTOS_EC/Source/CMessageTask.o
 .debug_loc     0x0000a26c      0x1f8 ./FreeRTOS_EC/Source/CMutex.o
 .debug_loc     0x0000a464      0x230 ./FreeRTOS_EC/Source/CQueue.o
 .debug_loc     0x0000a694      0x1f8 ./FreeRTOS_EC/Source/CRecursiveMutex.o
 .debug_loc     0x0000a88c      0x268 ./FreeRTOS_EC/Source/CTask.o
 .debug_loc     0x0000aaf4      0x178 ./FreeRTOS/Source/portable/GCC/ARM_CM4F/port.o
 .debug_loc     0x0000ac6c      0x188 ./FreeRTOS/Source/croutine.o
 .debug_loc     0x0000adf4      0x118 ./FreeRTOS/Source/list.o
 .debug_loc     0x0000af0c      0x380 ./FreeRTOS/Source/queue.o
 .debug_loc     0x0000b28c      0x8f6 ./FreeRTOS/Source/tasks.o
 .debug_loc     0x0000bb82      0x1c0 ./CLedHeartBeatSTM32F4Disc.o
 .debug_loc     0x0000bd42      0x2b0 ./main.o
 .debug_loc     0x0000bff2      0x108 ./stm32f4xx_it.o
 .debug_loc     0x0000c0fa      0x2a0 ./syscalls.o
 .debug_loc     0x0000c39a       0x9c ./system_stm32f4xx.o
 .debug_loc     0x0000c436       0xe0 ./ustime.o
 .debug_loc     0x0000c516       0x4f e:/elektronik/toolchain/yagarto/bin/../lib/gcc/arm-none-eabi/4.6.2/../../../../arm-none-eabi/lib/thumb/v7m\libstdc++.a(atexit_arm.o)
 .debug_loc     0x0000c565       0x1e e:/elektronik/toolchain/yagarto/bin/../lib/gcc/arm-none-eabi/4.6.2/../../../../arm-none-eabi/lib/thumb/v7m\libstdc++.a(del_op.o)
 .debug_loc     0x0000c583       0x20 e:/elektronik/toolchain/yagarto/bin/../lib/gcc/arm-none-eabi/4.6.2/../../../../arm-none-eabi/lib/thumb/v7m\libstdc++.a(pure.o)
 .debug_loc     0x0000c5a3       0xe4 e:/elektronik/toolchain/yagarto/bin/../lib/gcc/arm-none-eabi/4.6.2/../../../../arm-none-eabi/lib/thumb/v7m\libstdc++.a(eh_terminate.o)
 .debug_loc     0x0000c687       0xfa e:/elektronik/toolchain/yagarto/bin/../lib/gcc/arm-none-eabi/4.6.2/../../../../arm-none-eabi/lib/thumb/v7m\libstdc++.a(vterminate.o)
 .debug_loc     0x0000c781     0x13f0 e:/elektronik/toolchain/yagarto/bin/../lib/gcc/arm-none-eabi/4.6.2/../../../../arm-none-eabi/lib/thumb/v7m\libstdc++.a(cp-demangle.o)
 .debug_loc     0x0000db71      0x2c0 e:/elektronik/toolchain/yagarto/bin/../lib/gcc/arm-none-eabi/4.6.2/../../../../arm-none-eabi/lib/thumb/v7m\libstdc++.a(eh_arm.o)
 .debug_loc     0x0000de31       0x66 e:/elektronik/toolchain/yagarto/bin/../lib/gcc/arm-none-eabi/4.6.2/../../../../arm-none-eabi/lib/thumb/v7m\libstdc++.a(eh_aux_runtime.o)
 .debug_loc     0x0000de97      0x3d7 e:/elektronik/toolchain/yagarto/bin/../lib/gcc/arm-none-eabi/4.6.2/../../../../arm-none-eabi/lib/thumb/v7m\libstdc++.a(eh_call.o)
 .debug_loc     0x0000e26e      0x29a e:/elektronik/toolchain/yagarto/bin/../lib/gcc/arm-none-eabi/4.6.2/../../../../arm-none-eabi/lib/thumb/v7m\libstdc++.a(eh_catch.o)
 .debug_loc     0x0000e508      0x175 e:/elektronik/toolchain/yagarto/bin/../lib/gcc/arm-none-eabi/4.6.2/../../../../arm-none-eabi/lib/thumb/v7m\libstdc++.a(eh_exception.o)
 .debug_loc     0x0000e67d     0x1643 e:/elektronik/toolchain/yagarto/bin/../lib/gcc/arm-none-eabi/4.6.2/../../../../arm-none-eabi/lib/thumb/v7m\libstdc++.a(eh_personality.o)
 .debug_loc     0x0000fcc0      0x1b0 e:/elektronik/toolchain/yagarto/bin/../lib/gcc/arm-none-eabi/4.6.2/../../../../arm-none-eabi/lib/thumb/v7m\libstdc++.a(eh_throw.o)
 .debug_loc     0x0000fe70       0x51 e:/elektronik/toolchain/yagarto/bin/../lib/gcc/arm-none-eabi/4.6.2/../../../../arm-none-eabi/lib/thumb/v7m\libstdc++.a(eh_type.o)
 .debug_loc     0x0000fec1       0x8f e:/elektronik/toolchain/yagarto/bin/../lib/gcc/arm-none-eabi/4.6.2/../../../../arm-none-eabi/lib/thumb/v7m\libstdc++.a(fundamental_type_info.o)
 .debug_loc     0x0000ff50      0x1b5 e:/elektronik/toolchain/yagarto/bin/../lib/gcc/arm-none-eabi/4.6.2/../../../../arm-none-eabi/lib/thumb/v7m\libstdc++.a(pointer_type_info.o)
 .debug_loc     0x00010105      0x441 e:/elektronik/toolchain/yagarto/bin/../lib/gcc/arm-none-eabi/4.6.2/../../../../arm-none-eabi/lib/thumb/v7m\libstdc++.a(si_class_type_info.o)
 .debug_loc     0x00010546      0x13d e:/elektronik/toolchain/yagarto/bin/../lib/gcc/arm-none-eabi/4.6.2/../../../../arm-none-eabi/lib/thumb/v7m\libstdc++.a(tinfo.o)
 .debug_loc     0x00010683       0xa2 e:/elektronik/toolchain/yagarto/bin/../lib/gcc/arm-none-eabi/4.6.2/../../../../arm-none-eabi/lib/thumb/v7m\libstdc++.a(bad_cast.o)
 .debug_loc     0x00010725       0xad e:/elektronik/toolchain/yagarto/bin/../lib/gcc/arm-none-eabi/4.6.2/../../../../arm-none-eabi/lib/thumb/v7m\libstdc++.a(bad_typeid.o)
 .debug_loc     0x000107d2      0x341 e:/elektronik/toolchain/yagarto/bin/../lib/gcc/arm-none-eabi/4.6.2/../../../../arm-none-eabi/lib/thumb/v7m\libstdc++.a(class_type_info.o)
 .debug_loc     0x00010b13      0x2f6 e:/elektronik/toolchain/yagarto/bin/../lib/gcc/arm-none-eabi/4.6.2/../../../../arm-none-eabi/lib/thumb/v7m\libstdc++.a(eh_alloc.o)
 .debug_loc     0x00010e09      0x26f e:/elektronik/toolchain/yagarto/bin/../lib/gcc/arm-none-eabi/4.6.2/../../../../arm-none-eabi/lib/thumb/v7m\libstdc++.a(pbase_type_info.o)
 .debug_loc     0x00011078     0x1377 e:/elektronik/toolchain/yagarto/bin/../lib/gcc/arm-none-eabi/4.6.2/thumb/v7m\libgcc.a(unwind-arm.o)
 .debug_loc     0x000123ef      0x58a e:/elektronik/toolchain/yagarto/bin/../lib/gcc/arm-none-eabi/4.6.2/thumb/v7m\libgcc.a(pr-support.o)
 .debug_loc     0x00012979       0x20 e:/elektronik/toolchain/yagarto/bin/../lib/gcc/arm-none-eabi/4.6.2/../../../../arm-none-eabi/lib/thumb/v7m\libg.a(lib_a-abort.o)
 .debug_loc     0x00012999      0x11f e:/elektronik/toolchain/yagarto/bin/../lib/gcc/arm-none-eabi/4.6.2/../../../../arm-none-eabi/lib/thumb/v7m\libg.a(lib_a-assert.o)
 .debug_loc     0x00012ab8       0x1e e:/elektronik/toolchain/yagarto/bin/../lib/gcc/arm-none-eabi/4.6.2/../../../../arm-none-eabi/lib/thumb/v7m\libg.a(lib_a-atexit.o)
 .debug_loc     0x00012ad6       0x7a e:/elektronik/toolchain/yagarto/bin/../lib/gcc/arm-none-eabi/4.6.2/../../../../arm-none-eabi/lib/thumb/v7m\libg.a(lib_a-cxa_atexit.o)
 .debug_loc     0x00012b50       0x3e e:/elektronik/toolchain/yagarto/bin/../lib/gcc/arm-none-eabi/4.6.2/../../../../arm-none-eabi/lib/thumb/v7m\libg.a(lib_a-exit.o)
 .debug_loc     0x00012b8e       0x71 e:/elektronik/toolchain/yagarto/bin/../lib/gcc/arm-none-eabi/4.6.2/../../../../arm-none-eabi/lib/thumb/v7m\libg.a(lib_a-fini.o)
 .debug_loc     0x00012bff       0xb4 e:/elektronik/toolchain/yagarto/bin/../lib/gcc/arm-none-eabi/4.6.2/../../../../arm-none-eabi/lib/thumb/v7m\libg.a(lib_a-fiprintf.o)
 .debug_loc     0x00012cb3       0xcc e:/elektronik/toolchain/yagarto/bin/../lib/gcc/arm-none-eabi/4.6.2/../../../../arm-none-eabi/lib/thumb/v7m\libg.a(lib_a-fputc.o)
 .debug_loc     0x00012d7f       0xca e:/elektronik/toolchain/yagarto/bin/../lib/gcc/arm-none-eabi/4.6.2/../../../../arm-none-eabi/lib/thumb/v7m\libg.a(lib_a-fputs.o)
 .debug_loc     0x00012e49      0x5a8 e:/elektronik/toolchain/yagarto/bin/../lib/gcc/arm-none-eabi/4.6.2/../../../../arm-none-eabi/lib/thumb/v7m\libg.a(lib_a-fvwrite.o)
 .debug_loc     0x000133f1      0x153 e:/elektronik/toolchain/yagarto/bin/../lib/gcc/arm-none-eabi/4.6.2/../../../../arm-none-eabi/lib/thumb/v7m\libg.a(lib_a-fwrite.o)
 .debug_loc     0x00013544       0x7c e:/elektronik/toolchain/yagarto/bin/../lib/gcc/arm-none-eabi/4.6.2/../../../../arm-none-eabi/lib/thumb/v7m\libg.a(lib_a-init.o)
 .debug_loc     0x000135c0       0x3c e:/elektronik/toolchain/yagarto/bin/../lib/gcc/arm-none-eabi/4.6.2/../../../../arm-none-eabi/lib/thumb/v7m\libg.a(lib_a-malloc.o)
 .debug_loc     0x000135fc      0x995 e:/elektronik/toolchain/yagarto/bin/../lib/gcc/arm-none-eabi/4.6.2/../../../../arm-none-eabi/lib/thumb/v7m\libg.a(lib_a-mallocr.o)
 .debug_loc     0x00013f91      0x13f e:/elektronik/toolchain/yagarto/bin/../lib/gcc/arm-none-eabi/4.6.2/../../../../arm-none-eabi/lib/thumb/v7m\libg.a(lib_a-memchr.o)
 .debug_loc     0x000140d0       0xd3 e:/elektronik/toolchain/yagarto/bin/../lib/gcc/arm-none-eabi/4.6.2/../../../../arm-none-eabi/lib/thumb/v7m\libg.a(lib_a-memcmp.o)
 .debug_loc     0x000141a3      0x1cc e:/elektronik/toolchain/yagarto/bin/../lib/gcc/arm-none-eabi/4.6.2/../../../../arm-none-eabi/lib/thumb/v7m\libg.a(lib_a-memcpy.o)
 .debug_loc     0x0001436f      0x251 e:/elektronik/toolchain/yagarto/bin/../lib/gcc/arm-none-eabi/4.6.2/../../../../arm-none-eabi/lib/thumb/v7m\libg.a(lib_a-memmove.o)
 .debug_loc     0x000145c0      0x1fb e:/elektronik/toolchain/yagarto/bin/../lib/gcc/arm-none-eabi/4.6.2/../../../../arm-none-eabi/lib/thumb/v7m\libg.a(lib_a-memset.o)
 .debug_loc     0x000147bb       0xfc e:/elektronik/toolchain/yagarto/bin/../lib/gcc/arm-none-eabi/4.6.2/../../../../arm-none-eabi/lib/thumb/v7m\libg.a(lib_a-putc.o)
 .debug_loc     0x000148b7       0x3c e:/elektronik/toolchain/yagarto/bin/../lib/gcc/arm-none-eabi/4.6.2/../../../../arm-none-eabi/lib/thumb/v7m\libg.a(lib_a-realloc.o)
 .debug_loc     0x000148f3      0xb8a e:/elektronik/toolchain/yagarto/bin/../lib/gcc/arm-none-eabi/4.6.2/../../../../arm-none-eabi/lib/thumb/v7m\libg.a(lib_a-reallocr.o)
 .debug_loc     0x0001547d      0x2ba e:/elektronik/toolchain/yagarto/bin/../lib/gcc/arm-none-eabi/4.6.2/../../../../arm-none-eabi/lib/thumb/v7m\libg.a(lib_a-signal.o)
 .debug_loc     0x00015737       0xd9 e:/elektronik/toolchain/yagarto/bin/../lib/gcc/arm-none-eabi/4.6.2/../../../../arm-none-eabi/lib/thumb/v7m\libg.a(lib_a-sprintf.o)
 .debug_loc     0x00015810       0xb9 e:/elektronik/toolchain/yagarto/bin/../lib/gcc/arm-none-eabi/4.6.2/../../../../arm-none-eabi/lib/thumb/v7m\libg.a(lib_a-strcat.o)
 .debug_loc     0x000158c9       0x26 e:/elektronik/toolchain/yagarto/bin/../lib/gcc/arm-none-eabi/4.6.2/../../../../arm-none-eabi/lib/thumb/v7m\libg.a(lib_a-strcmp.o)
 .debug_loc     0x000158ef       0x13 e:/elektronik/toolchain/yagarto/bin/../lib/gcc/arm-none-eabi/4.6.2/../../../../arm-none-eabi/lib/thumb/v7m\libg.a(lib_a-strcpy.o)
 .debug_loc     0x00015902       0x13 e:/elektronik/toolchain/yagarto/bin/../lib/gcc/arm-none-eabi/4.6.2/../../../../arm-none-eabi/lib/thumb/v7m\libg.a(lib_a-strlen.o)
 .debug_loc     0x00015915      0x16e e:/elektronik/toolchain/yagarto/bin/../lib/gcc/arm-none-eabi/4.6.2/../../../../arm-none-eabi/lib/thumb/v7m\libg.a(lib_a-strncmp.o)
 .debug_loc     0x00015a83       0xe3 e:/elektronik/toolchain/yagarto/bin/../lib/gcc/arm-none-eabi/4.6.2/../../../../arm-none-eabi/lib/thumb/v7m\libg.a(lib_a-strncpy.o)
 .debug_loc     0x00015b66     0x2325 e:/elektronik/toolchain/yagarto/bin/../lib/gcc/arm-none-eabi/4.6.2/../../../../arm-none-eabi/lib/thumb/v7m\libg.a(lib_a-svfprintf.o)
 .debug_loc     0x00017e8b       0x7a e:/elektronik/toolchain/yagarto/bin/../lib/gcc/arm-none-eabi/4.6.2/../../../../arm-none-eabi/lib/thumb/v7m\libg.a(lib_a-syswrite.o)
 .debug_loc     0x00017f05     0x14dd e:/elektronik/toolchain/yagarto/bin/../lib/gcc/arm-none-eabi/4.6.2/../../../../arm-none-eabi/lib/thumb/v7m\libg.a(lib_a-vfiprintf.o)
 .debug_loc     0x000193e2      0x128 e:/elektronik/toolchain/yagarto/bin/../lib/gcc/arm-none-eabi/4.6.2/../../../../arm-none-eabi/lib/thumb/v7m\libg.a(lib_a-wbuf.o)
 .debug_loc     0x0001950a       0x5c e:/elektronik/toolchain/yagarto/bin/../lib/gcc/arm-none-eabi/4.6.2/../../../../arm-none-eabi/lib/thumb/v7m\libg.a(lib_a-wsetup.o)
 .debug_loc     0x00019566      0x114 e:/elektronik/toolchain/yagarto/bin/../lib/gcc/arm-none-eabi/4.6.2/../../../../arm-none-eabi/lib/thumb/v7m\libg.a(lib_a-__atexit.o)
 .debug_loc     0x0001967a      0x1b5 e:/elektronik/toolchain/yagarto/bin/../lib/gcc/arm-none-eabi/4.6.2/../../../../arm-none-eabi/lib/thumb/v7m\libg.a(lib_a-__call_atexit.o)
 .debug_loc     0x0001982f     0x1ea0 e:/elektronik/toolchain/yagarto/bin/../lib/gcc/arm-none-eabi/4.6.2/../../../../arm-none-eabi/lib/thumb/v7m\libg.a(lib_a-dtoa.o)
 .debug_loc     0x0001b6cf      0x1f5 e:/elektronik/toolchain/yagarto/bin/../lib/gcc/arm-none-eabi/4.6.2/../../../../arm-none-eabi/lib/thumb/v7m\libg.a(lib_a-fflush.o)
 .debug_loc     0x0001b8c4      0x256 e:/elektronik/toolchain/yagarto/bin/../lib/gcc/arm-none-eabi/4.6.2/../../../../arm-none-eabi/lib/thumb/v7m\libg.a(lib_a-findfp.o)
 .debug_loc     0x0001bb1a      0x173 e:/elektronik/toolchain/yagarto/bin/../lib/gcc/arm-none-eabi/4.6.2/../../../../arm-none-eabi/lib/thumb/v7m\libg.a(lib_a-fputwc.o)
 .debug_loc     0x0001bc8d      0x421 e:/elektronik/toolchain/yagarto/bin/../lib/gcc/arm-none-eabi/4.6.2/../../../../arm-none-eabi/lib/thumb/v7m\libg.a(lib_a-freer.o)
 .debug_loc     0x0001c0ae      0x259 e:/elektronik/toolchain/yagarto/bin/../lib/gcc/arm-none-eabi/4.6.2/../../../../arm-none-eabi/lib/thumb/v7m\libg.a(lib_a-fwalk.o)
 .debug_loc     0x0001c307       0xb3 e:/elektronik/toolchain/yagarto/bin/../lib/gcc/arm-none-eabi/4.6.2/../../../../arm-none-eabi/lib/thumb/v7m\libg.a(lib_a-locale.o)
 .debug_loc     0x0001c3ba      0x118 e:/elektronik/toolchain/yagarto/bin/../lib/gcc/arm-none-eabi/4.6.2/../../../../arm-none-eabi/lib/thumb/v7m\libg.a(lib_a-makebuf.o)
 .debug_loc     0x0001c4d2     0x1799 e:/elektronik/toolchain/yagarto/bin/../lib/gcc/arm-none-eabi/4.6.2/../../../../arm-none-eabi/lib/thumb/v7m\libg.a(lib_a-mprec.o)
 .debug_loc     0x0001dc6b       0xa0 e:/elektronik/toolchain/yagarto/bin/../lib/gcc/arm-none-eabi/4.6.2/../../../../arm-none-eabi/lib/thumb/v7m\libg.a(lib_a-s_fpclassify.o)
 .debug_loc     0x0001dd0b      0x219 e:/elektronik/toolchain/yagarto/bin/../lib/gcc/arm-none-eabi/4.6.2/../../../../arm-none-eabi/lib/thumb/v7m\libg.a(lib_a-stdio.o)
 .debug_loc     0x0001df24     0x121a e:/elektronik/toolchain/yagarto/bin/../lib/gcc/arm-none-eabi/4.6.2/../../../../arm-none-eabi/lib/thumb/v7m\libg.a(lib_a-svfiprintf.o)
 .debug_loc     0x0001f13e      0x1a1 e:/elektronik/toolchain/yagarto/bin/../lib/gcc/arm-none-eabi/4.6.2/../../../../arm-none-eabi/lib/thumb/v7m\libg.a(lib_a-wcrtomb.o)
 .debug_loc     0x0001f2df       0xfb e:/elektronik/toolchain/yagarto/bin/../lib/gcc/arm-none-eabi/4.6.2/../../../../arm-none-eabi/lib/thumb/v7m\libg.a(lib_a-wctomb_r.o)
 .debug_loc     0x0001f3da      0x16c e:/elektronik/toolchain/yagarto/bin/../lib/gcc/arm-none-eabi/4.6.2/../../../../arm-none-eabi/lib/thumb/v7m\libg.a(lib_a-callocr.o)
 .debug_loc     0x0001f546       0xa3 e:/elektronik/toolchain/yagarto/bin/../lib/gcc/arm-none-eabi/4.6.2/../../../../arm-none-eabi/lib/thumb/v7m\libg.a(lib_a-fclose.o)

.debug_macinfo  0x00000000  0x14df27e
 .debug_macinfo
                0x00000000    0x59556 ./STM32F4xx_StdPeriph_Driver/src/misc.o
 .debug_macinfo
                0x00059556    0x59844 ./STM32F4xx_StdPeriph_Driver/src/stm32f4xx_adc.o
 .debug_macinfo
                0x000b2d9a    0x59732 ./STM32F4xx_StdPeriph_Driver/src/stm32f4xx_can.o
 .debug_macinfo
                0x0010c4cc    0x5952a ./STM32F4xx_StdPeriph_Driver/src/stm32f4xx_crc.o
 .debug_macinfo
                0x001659f6    0x5956a ./STM32F4xx_StdPeriph_Driver/src/stm32f4xx_cryp.o
 .debug_macinfo
                0x001bef60    0x59554 ./STM32F4xx_StdPeriph_Driver/src/stm32f4xx_cryp_aes.o
 .debug_macinfo
                0x002184b4    0x59554 ./STM32F4xx_StdPeriph_Driver/src/stm32f4xx_cryp_des.o
 .debug_macinfo
                0x00271a08    0x59555 ./STM32F4xx_StdPeriph_Driver/src/stm32f4xx_cryp_tdes.o
 .debug_macinfo
                0x002caf5d    0x59648 ./STM32F4xx_StdPeriph_Driver/src/stm32f4xx_dac.o
 .debug_macinfo
                0x003245a5    0x59555 ./STM32F4xx_StdPeriph_Driver/src/stm32f4xx_dbgmcu.o
 .debug_macinfo
                0x0037dafa    0x5952a ./STM32F4xx_StdPeriph_Driver/src/stm32f4xx_dcmi.o
 .debug_macinfo
                0x003d7024    0x5986a ./STM32F4xx_StdPeriph_Driver/src/stm32f4xx_dma.o
 .debug_macinfo
                0x0043088e    0x5954e ./STM32F4xx_StdPeriph_Driver/src/stm32f4xx_exti.o
 .debug_macinfo
                0x00489ddc    0x5954f ./STM32F4xx_StdPeriph_Driver/src/stm32f4xx_flash.o
 .debug_macinfo
                0x004e332b    0x5966f ./STM32F4xx_StdPeriph_Driver/src/stm32f4xx_fsmc.o
 .debug_macinfo
                0x0053c99a    0x5952a ./STM32F4xx_StdPeriph_Driver/src/stm32f4xx_gpio.o
 .debug_macinfo
                0x00595ec4    0x5952a ./STM32F4xx_StdPeriph_Driver/src/stm32f4xx_hash.o
 .debug_macinfo
                0x005ef3ee    0x59554 ./STM32F4xx_StdPeriph_Driver/src/stm32f4xx_hash_md5.o
 .debug_macinfo
                0x00648942    0x59555 ./STM32F4xx_StdPeriph_Driver/src/stm32f4xx_hash_sha1.o
 .debug_macinfo
                0x006a1e97    0x59594 ./STM32F4xx_StdPeriph_Driver/src/stm32f4xx_i2c.o
 .debug_macinfo
                0x006fb42b    0x59570 ./STM32F4xx_StdPeriph_Driver/src/stm32f4xx_iwdg.o
 .debug_macinfo
                0x0075499b    0x5980f ./STM32F4xx_StdPeriph_Driver/src/stm32f4xx_pwr.o
 .debug_macinfo
                0x007ae1aa    0x59a36 ./STM32F4xx_StdPeriph_Driver/src/stm32f4xx_rcc.o
 .debug_macinfo
                0x00807be0    0x5952a ./STM32F4xx_StdPeriph_Driver/src/stm32f4xx_rng.o
 .debug_macinfo
                0x0086110a    0x5976b ./STM32F4xx_StdPeriph_Driver/src/stm32f4xx_rtc.o
 .debug_macinfo
                0x008ba875    0x59ad3 ./STM32F4xx_StdPeriph_Driver/src/stm32f4xx_sdio.o
 .debug_macinfo
                0x00914348    0x59617 ./STM32F4xx_StdPeriph_Driver/src/stm32f4xx_spi.o
 .debug_macinfo
                0x0096d95f    0x59698 ./STM32F4xx_StdPeriph_Driver/src/stm32f4xx_syscfg.o
 .debug_macinfo
                0x009c6ff7    0x59603 ./STM32F4xx_StdPeriph_Driver/src/stm32f4xx_tim.o
 .debug_macinfo
                0x00a205fa    0x59656 ./STM32F4xx_StdPeriph_Driver/src/stm32f4xx_usart.o
 .debug_macinfo
                0x00a79c50    0x59638 ./STM32F4xx_StdPeriph_Driver/src/stm32f4xx_wwdg.o
 .debug_macinfo
                0x00ad3288    0x597b3 ./STM32F4-Discovery/stm32f4_discovery.o
 .debug_macinfo
                0x00b2ca3b    0x5a170 ./STM32F4-Discovery/stm32f4_discovery_audio_codec.o
 .debug_macinfo
                0x00b86bab    0x5a733 ./STM32F4-Discovery/stm32f4_discovery_lis302dl.o
 .debug_macinfo
                0x00be12de    0x5b54a ./Menue/CMenue.o
 .debug_macinfo
                0x00c3c828     0x1770 ./GraphicLCD/CGraphicLCD.o
 .debug_macinfo
                0x00c3df98     0x1788 ./GraphicLCD/CT6963CDriver.o
 .debug_macinfo
                0x00c3f720    0x5b97b ./GraphicLCD/CT6963GPIOInterface.o
 .debug_macinfo
                0x00c9b09b     0x1786 ./GraphicLCD/SansSerif12.o
 .debug_macinfo
                0x00c9c821    0x5b537 ./FreeRTOS_EC/Source/AManagedTask.o
 .debug_macinfo
                0x00cf7d58    0x5bee4 ./FreeRTOS_EC/Source/ASyncObject.o
 .debug_macinfo
                0x00d53c3c    0x5bea3 ./FreeRTOS_EC/Source/ATimer.o
 .debug_macinfo
                0x00dafadf    0x5bf66 ./FreeRTOS_EC/Source/CBinarySemaphore.o
 .debug_macinfo
                0x00e0ba45    0x5bf68 ./FreeRTOS_EC/Source/CCountingSemaphore.o
 .debug_macinfo
                0x00e679ad    0x5b537 ./FreeRTOS_EC/Source/CFreeRTOS.o
 .debug_macinfo
                0x00ec2ee4    0x5e67c ./FreeRTOS_EC/Source/CMessageTask.o
 .debug_macinfo
                0x00f21560    0x5bef5 ./FreeRTOS_EC/Source/CMutex.o
 .debug_macinfo
                0x00f7d455    0x5b8c3 ./FreeRTOS_EC/Source/CQueue.o
 .debug_macinfo
                0x00fd8d18    0x5befe ./FreeRTOS_EC/Source/CRecursiveMutex.o
 .debug_macinfo
                0x01034c16    0x5b902 ./FreeRTOS_EC/Source/CTask.o
 .debug_macinfo
                0x01090518    0x5b71d ./FreeRTOS/Source/portable/GCC/ARM_CM4F/port.o
 .debug_macinfo
                0x010ebc35    0x5bbc2 ./FreeRTOS/Source/croutine.o
 .debug_macinfo
                0x011477f7    0x5cc6b ./FreeRTOS/Source/list.o
 .debug_macinfo
                0x011a4462    0x5d37a ./FreeRTOS/Source/queue.o
 .debug_macinfo
                0x012017dc    0x5e8eb ./FreeRTOS/Source/tasks.o
 .debug_macinfo
                0x012600c7    0x5c1b7 ./FreeRTOS/Source/timers.o
 .debug_macinfo
                0x012bc27e    0x5b7d3 ./CLedHeartBeatSTM32F4Disc.o
 .debug_macinfo
                0x01317a51    0x5b5c7 ./main.o
 .debug_macinfo
                0x01373018    0x5953e ./stm32f4xx_it.o
 .debug_macinfo
                0x013cc556    0x5ea71 ./syscalls.o
 .debug_macinfo
                0x0142afc7    0x5958a ./system_stm32f4xx.o
 .debug_macinfo
                0x01484551    0x5ad2d ./ustime.o

.debug_str      0x00000000     0xfc93
 .debug_str     0x00000000      0x2f2 ./STM32F4xx_StdPeriph_Driver/src/misc.o
                                0x353 (size before relaxing)
 .debug_str     0x000002f2      0x633 ./STM32F4xx_StdPeriph_Driver/src/stm32f4xx_adc.o
                                0x77e (size before relaxing)
 .debug_str     0x00000925      0x517 ./STM32F4xx_StdPeriph_Driver/src/stm32f4xx_can.o
                                0x6b8 (size before relaxing)
 .debug_str     0x00000e3c       0xb3 ./STM32F4xx_StdPeriph_Driver/src/stm32f4xx_crc.o
                                0x1c5 (size before relaxing)
 .debug_str     0x00000eef      0x3a4 ./STM32F4xx_StdPeriph_Driver/src/stm32f4xx_cryp.o
                                0x537 (size before relaxing)
 .debug_str     0x00001293       0xff ./STM32F4xx_StdPeriph_Driver/src/stm32f4xx_cryp_aes.o
                                0x361 (size before relaxing)
 .debug_str     0x00001392       0x51 ./STM32F4xx_StdPeriph_Driver/src/stm32f4xx_cryp_des.o
                                0x34c (size before relaxing)
 .debug_str     0x000013e3       0xa1 ./STM32F4xx_StdPeriph_Driver/src/stm32f4xx_cryp_tdes.o
                                0x352 (size before relaxing)
 .debug_str     0x00001484      0x267 ./STM32F4xx_StdPeriph_Driver/src/stm32f4xx_dac.o
                                0x3cd (size before relaxing)
 .debug_str     0x000016eb       0xc5 ./STM32F4xx_StdPeriph_Driver/src/stm32f4xx_dbgmcu.o
                                0x1cf (size before relaxing)
 .debug_str     0x000017b0      0x2f9 ./STM32F4xx_StdPeriph_Driver/src/stm32f4xx_dcmi.o
                                0x453 (size before relaxing)
 .debug_str     0x00001aa9      0x36d ./STM32F4xx_StdPeriph_Driver/src/stm32f4xx_dma.o
                                0x4c6 (size before relaxing)
 .debug_str     0x00001e16      0x1b6 ./STM32F4xx_StdPeriph_Driver/src/stm32f4xx_exti.o
                                0x2e8 (size before relaxing)
 .debug_str     0x00001fcc      0x3b2 ./STM32F4xx_StdPeriph_Driver/src/stm32f4xx_flash.o
                                0x501 (size before relaxing)
 .debug_str     0x0000237e      0x5c4 ./STM32F4xx_StdPeriph_Driver/src/stm32f4xx_fsmc.o
                                0x70e (size before relaxing)
 .debug_str     0x00002942      0x28c ./STM32F4xx_StdPeriph_Driver/src/stm32f4xx_gpio.o
                                0x41d (size before relaxing)
 .debug_str     0x00002bce      0x259 ./STM32F4xx_StdPeriph_Driver/src/stm32f4xx_hash.o
                                0x3ac (size before relaxing)
 .debug_str     0x00002e27       0x9d ./STM32F4xx_StdPeriph_Driver/src/stm32f4xx_hash_md5.o
                                0x26c (size before relaxing)
 .debug_str     0x00002ec4       0x77 ./STM32F4xx_StdPeriph_Driver/src/stm32f4xx_hash_sha1.o
                                0x271 (size before relaxing)
 .debug_str     0x00002f3b      0x41b ./STM32F4xx_StdPeriph_Driver/src/stm32f4xx_i2c.o
                                0x5df (size before relaxing)
 .debug_str     0x00003356       0xd1 ./STM32F4xx_StdPeriph_Driver/src/stm32f4xx_iwdg.o
                                0x1e6 (size before relaxing)
 .debug_str     0x00003427      0x159 ./STM32F4xx_StdPeriph_Driver/src/stm32f4xx_pwr.o
                                0x2f4 (size before relaxing)
 .debug_str     0x00003580      0x5b2 ./STM32F4xx_StdPeriph_Driver/src/stm32f4xx_rcc.o
                                0x7ca (size before relaxing)
 .debug_str     0x00003b32       0xc8 ./STM32F4xx_StdPeriph_Driver/src/stm32f4xx_rng.o
                                0x1fe (size before relaxing)
 .debug_str     0x00003bfa      0x94d ./STM32F4xx_StdPeriph_Driver/src/stm32f4xx_rtc.o
                                0xacd (size before relaxing)
 .debug_str     0x00004547      0x46a ./STM32F4xx_StdPeriph_Driver/src/stm32f4xx_sdio.o
                                0x5c5 (size before relaxing)
 .debug_str     0x000049b1      0x382 ./STM32F4xx_StdPeriph_Driver/src/stm32f4xx_spi.o
                                0x604 (size before relaxing)
 .debug_str     0x00004d33      0x143 ./STM32F4xx_StdPeriph_Driver/src/stm32f4xx_syscfg.o
                                0x279 (size before relaxing)
 .debug_str     0x00004e76      0xb4b ./STM32F4xx_StdPeriph_Driver/src/stm32f4xx_tim.o
                                0xd4a (size before relaxing)
 .debug_str     0x000059c1      0x419 ./STM32F4xx_StdPeriph_Driver/src/stm32f4xx_usart.o
                                0x609 (size before relaxing)
 .debug_str     0x00005dda       0xcd ./STM32F4xx_StdPeriph_Driver/src/stm32f4xx_wwdg.o
                                0x1fc (size before relaxing)
 .debug_str     0x00005ea7      0x6bd ./STM32F4-Discovery/stm32f4_discovery.o
                                0xaa3 (size before relaxing)
 .debug_str     0x00006564      0x459 ./STM32F4-Discovery/stm32f4_discovery_audio_codec.o
                                0xfde (size before relaxing)
 .debug_str     0x000069bd      0x2ea ./STM32F4-Discovery/stm32f4_discovery_lis302dl.o
                                0x6c4 (size before relaxing)
 .debug_str     0x00006ca7      0x191 ./Menue/CMenue.o
                                0x2a2 (size before relaxing)
 .debug_str     0x00006e38      0x1f8 ./GraphicLCD/CGraphicLCD.o
                                0x2cf (size before relaxing)
 .debug_str     0x00007030      0x799 ./GraphicLCD/CT6963CDriver.o
                                0x904 (size before relaxing)
 .debug_str     0x000077c9      0x1eb ./GraphicLCD/CT6963GPIOInterface.o
                                0x571 (size before relaxing)
 .debug_str     0x000079b4       0xc6 ./GraphicLCD/SansSerif12.o
                                0x17c (size before relaxing)
 .debug_str     0x00007a7a      0x2a3 ./FreeRTOS_EC/Source/AManagedTask.o
                                0x509 (size before relaxing)
 .debug_str     0x00007d1d      0x13d ./FreeRTOS_EC/Source/ASyncObject.o
                                0x312 (size before relaxing)
 .debug_str     0x00007e5a       0x21 ./FreeRTOS_EC/Source/ATimer.o
                                 0xfc (size before relaxing)
 .debug_str     0x00007e7b       0xd3 ./FreeRTOS_EC/Source/CBinarySemaphore.o
                                0x32a (size before relaxing)
 .debug_str     0x00007f4e       0xe3 ./FreeRTOS_EC/Source/CCountingSemaphore.o
                                0x34c (size before relaxing)
 .debug_str     0x00008031       0x9a ./FreeRTOS_EC/Source/CFreeRTOS.o
                                0x22b (size before relaxing)
 .debug_str     0x000080cb      0x405 ./FreeRTOS_EC/Source/CMessageTask.o
                                0x6b9 (size before relaxing)
 .debug_str     0x000084d0       0x61 ./FreeRTOS_EC/Source/CMutex.o
                                0x2b9 (size before relaxing)
 .debug_str     0x00008531      0x1bf ./FreeRTOS_EC/Source/CQueue.o
                                0x495 (size before relaxing)
 .debug_str     0x000086f0       0x91 ./FreeRTOS_EC/Source/CRecursiveMutex.o
                                0x2d2 (size before relaxing)
 .debug_str     0x00008781      0x40a ./FreeRTOS_EC/Source/CTask.o
                                0x751 (size before relaxing)
 .debug_str     0x00008b8b      0x138 ./FreeRTOS/Source/portable/GCC/ARM_CM4F/port.o
                                0x250 (size before relaxing)
 .debug_str     0x00008cc3      0x336 ./FreeRTOS/Source/croutine.o
                                0x435 (size before relaxing)
 .debug_str     0x00008ff9       0xad ./FreeRTOS/Source/list.o
                                0x229 (size before relaxing)
 .debug_str     0x000090a6      0x2bb ./FreeRTOS/Source/queue.o
                                0x4b3 (size before relaxing)
 .debug_str     0x00009361      0x749 ./FreeRTOS/Source/tasks.o
                                0xa64 (size before relaxing)
 .debug_str     0x00009aaa       0x1c ./FreeRTOS/Source/timers.o
                                 0xf5 (size before relaxing)
 .debug_str     0x00009ac6      0x153 ./CLedHeartBeatSTM32F4Disc.o
                                0x3e8 (size before relaxing)
 .debug_str     0x00009c19      0x1ae ./main.o
                                0x3b7 (size before relaxing)
 .debug_str     0x00009dc7       0x77 ./stm32f4xx_it.o
                                0x150 (size before relaxing)
 .debug_str     0x00009e3e      0x4d0 ./syscalls.o
                                0x662 (size before relaxing)
 .debug_str     0x0000a30e       0x5c ./system_stm32f4xx.o
                                0x30b (size before relaxing)
 .debug_str     0x0000a36a       0x39 ./ustime.o
                                0x329 (size before relaxing)
 .debug_str     0x0000a3a3       0xc2 e:/elektronik/toolchain/yagarto/bin/../lib/gcc/arm-none-eabi/4.6.2/../../../../arm-none-eabi/lib/thumb/v7m\libstdc++.a(atexit_arm.o)
                                 0xfd (size before relaxing)
 .debug_str     0x0000a465       0xdb e:/elektronik/toolchain/yagarto/bin/../lib/gcc/arm-none-eabi/4.6.2/../../../../arm-none-eabi/lib/thumb/v7m\libstdc++.a(del_op.o)
                                0x1f2 (size before relaxing)
 .debug_str     0x0000a540       0x4e e:/elektronik/toolchain/yagarto/bin/../lib/gcc/arm-none-eabi/4.6.2/../../../../arm-none-eabi/lib/thumb/v7m\libstdc++.a(pure.o)
                                0x147 (size before relaxing)
 .debug_str     0x0000a58e      0x167 e:/elektronik/toolchain/yagarto/bin/../lib/gcc/arm-none-eabi/4.6.2/../../../../arm-none-eabi/lib/thumb/v7m\libstdc++.a(eh_terminate.o)
                                0x357 (size before relaxing)
 .debug_str     0x0000a6f5       0x46 e:/elektronik/toolchain/yagarto/bin/../lib/gcc/arm-none-eabi/4.6.2/../../../../arm-none-eabi/lib/thumb/v7m\libstdc++.a(eh_term_handler.o)
                                0x162 (size before relaxing)
 .debug_str     0x0000a73b       0x46 e:/elektronik/toolchain/yagarto/bin/../lib/gcc/arm-none-eabi/4.6.2/../../../../arm-none-eabi/lib/thumb/v7m\libstdc++.a(eh_unex_handler.o)
                                0x165 (size before relaxing)
 .debug_str     0x0000a781      0x167 e:/elektronik/toolchain/yagarto/bin/../lib/gcc/arm-none-eabi/4.6.2/../../../../arm-none-eabi/lib/thumb/v7m\libstdc++.a(vterminate.o)
                                0x711 (size before relaxing)
 .debug_str     0x0000a8e8     0x130c e:/elektronik/toolchain/yagarto/bin/../lib/gcc/arm-none-eabi/4.6.2/../../../../arm-none-eabi/lib/thumb/v7m\libstdc++.a(cp-demangle.o)
                               0x1531 (size before relaxing)
 .debug_str     0x0000bbf4      0x49a e:/elektronik/toolchain/yagarto/bin/../lib/gcc/arm-none-eabi/4.6.2/../../../../arm-none-eabi/lib/thumb/v7m\libstdc++.a(eh_arm.o)
                                0x641 (size before relaxing)
 .debug_str     0x0000c08e       0x65 e:/elektronik/toolchain/yagarto/bin/../lib/gcc/arm-none-eabi/4.6.2/../../../../arm-none-eabi/lib/thumb/v7m\libstdc++.a(eh_aux_runtime.o)
                                0x231 (size before relaxing)
 .debug_str     0x0000c0f3      0x14c e:/elektronik/toolchain/yagarto/bin/../lib/gcc/arm-none-eabi/4.6.2/../../../../arm-none-eabi/lib/thumb/v7m\libstdc++.a(eh_call.o)
                                0x6ed (size before relaxing)
 .debug_str     0x0000c23f       0xd7 e:/elektronik/toolchain/yagarto/bin/../lib/gcc/arm-none-eabi/4.6.2/../../../../arm-none-eabi/lib/thumb/v7m\libstdc++.a(eh_catch.o)
                                0x58b (size before relaxing)
 .debug_str     0x0000c316      0x170 e:/elektronik/toolchain/yagarto/bin/../lib/gcc/arm-none-eabi/4.6.2/../../../../arm-none-eabi/lib/thumb/v7m\libstdc++.a(eh_exception.o)
                                0x256 (size before relaxing)
 .debug_str     0x0000c486       0x6a e:/elektronik/toolchain/yagarto/bin/../lib/gcc/arm-none-eabi/4.6.2/../../../../arm-none-eabi/lib/thumb/v7m\libstdc++.a(eh_globals.o)
                                0x4d1 (size before relaxing)
 .debug_str     0x0000c4f0      0x4da e:/elektronik/toolchain/yagarto/bin/../lib/gcc/arm-none-eabi/4.6.2/../../../../arm-none-eabi/lib/thumb/v7m\libstdc++.a(eh_personality.o)
                                0xa77 (size before relaxing)
 .debug_str     0x0000c9ca      0x12b e:/elektronik/toolchain/yagarto/bin/../lib/gcc/arm-none-eabi/4.6.2/../../../../arm-none-eabi/lib/thumb/v7m\libstdc++.a(eh_throw.o)
                                0x551 (size before relaxing)
 .debug_str     0x0000caf5       0x5b e:/elektronik/toolchain/yagarto/bin/../lib/gcc/arm-none-eabi/4.6.2/../../../../arm-none-eabi/lib/thumb/v7m\libstdc++.a(eh_type.o)
                                0x473 (size before relaxing)
 .debug_str     0x0000cb50       0xe3 e:/elektronik/toolchain/yagarto/bin/../lib/gcc/arm-none-eabi/4.6.2/../../../../arm-none-eabi/lib/thumb/v7m\libstdc++.a(fundamental_type_info.o)
                                0x1b1 (size before relaxing)
 .debug_str     0x0000cc33      0x162 e:/elektronik/toolchain/yagarto/bin/../lib/gcc/arm-none-eabi/4.6.2/../../../../arm-none-eabi/lib/thumb/v7m\libstdc++.a(pointer_type_info.o)
                                0x2bc (size before relaxing)
 .debug_str     0x0000cd95      0x409 e:/elektronik/toolchain/yagarto/bin/../lib/gcc/arm-none-eabi/4.6.2/../../../../arm-none-eabi/lib/thumb/v7m\libstdc++.a(si_class_type_info.o)
                                0x579 (size before relaxing)
 .debug_str     0x0000d19e      0x192 e:/elektronik/toolchain/yagarto/bin/../lib/gcc/arm-none-eabi/4.6.2/../../../../arm-none-eabi/lib/thumb/v7m\libstdc++.a(tinfo.o)
                                0x33b (size before relaxing)
 .debug_str     0x0000d330       0x60 e:/elektronik/toolchain/yagarto/bin/../lib/gcc/arm-none-eabi/4.6.2/../../../../arm-none-eabi/lib/thumb/v7m\libstdc++.a(bad_cast.o)
                                 0xec (size before relaxing)
 .debug_str     0x0000d390       0x67 e:/elektronik/toolchain/yagarto/bin/../lib/gcc/arm-none-eabi/4.6.2/../../../../arm-none-eabi/lib/thumb/v7m\libstdc++.a(bad_typeid.o)
                                 0xf5 (size before relaxing)
 .debug_str     0x0000d3f7      0x26d e:/elektronik/toolchain/yagarto/bin/../lib/gcc/arm-none-eabi/4.6.2/../../../../arm-none-eabi/lib/thumb/v7m\libstdc++.a(class_type_info.o)
                                0x5eb (size before relaxing)
 .debug_str     0x0000d664      0x321 e:/elektronik/toolchain/yagarto/bin/../lib/gcc/arm-none-eabi/4.6.2/../../../../arm-none-eabi/lib/thumb/v7m\libstdc++.a(eh_alloc.o)
                                0x887 (size before relaxing)
 .debug_str     0x0000d985      0x138 e:/elektronik/toolchain/yagarto/bin/../lib/gcc/arm-none-eabi/4.6.2/../../../../arm-none-eabi/lib/thumb/v7m\libstdc++.a(pbase_type_info.o)
                                0x32e (size before relaxing)
 .debug_str     0x0000dabd      0x4de e:/elektronik/toolchain/yagarto/bin/../lib/gcc/arm-none-eabi/4.6.2/thumb/v7m\libgcc.a(unwind-arm.o)
                                0x930 (size before relaxing)
 .debug_str     0x0000df9b       0xfc e:/elektronik/toolchain/yagarto/bin/../lib/gcc/arm-none-eabi/4.6.2/thumb/v7m\libgcc.a(pr-support.o)
                                0x467 (size before relaxing)
 .debug_str     0x0000e097       0x95 e:/elektronik/toolchain/yagarto/bin/../lib/gcc/arm-none-eabi/4.6.2/../../../../arm-none-eabi/lib/thumb/v7m\libg.a(lib_a-abort.o)
                                0x12a (size before relaxing)
 .debug_str     0x0000e12c       0x66 e:/elektronik/toolchain/yagarto/bin/../lib/gcc/arm-none-eabi/4.6.2/../../../../arm-none-eabi/lib/thumb/v7m\libg.a(lib_a-assert.o)
                                0x511 (size before relaxing)
 .debug_str     0x0000e192       0x6f e:/elektronik/toolchain/yagarto/bin/../lib/gcc/arm-none-eabi/4.6.2/../../../../arm-none-eabi/lib/thumb/v7m\libg.a(lib_a-atexit.o)
                                0x15c (size before relaxing)
 .debug_str     0x0000e201       0x50 e:/elektronik/toolchain/yagarto/bin/../lib/gcc/arm-none-eabi/4.6.2/../../../../arm-none-eabi/lib/thumb/v7m\libg.a(lib_a-cxa_atexit.o)
                                0x166 (size before relaxing)
 .debug_str     0x0000e251       0x50 e:/elektronik/toolchain/yagarto/bin/../lib/gcc/arm-none-eabi/4.6.2/../../../../arm-none-eabi/lib/thumb/v7m\libg.a(lib_a-exit.o)
                                0x4ef (size before relaxing)
 .debug_str     0x0000e2a1       0xc0 e:/elektronik/toolchain/yagarto/bin/../lib/gcc/arm-none-eabi/4.6.2/../../../../arm-none-eabi/lib/thumb/v7m\libg.a(lib_a-fini.o)
                                0x162 (size before relaxing)
 .debug_str     0x0000e361       0xba e:/elektronik/toolchain/yagarto/bin/../lib/gcc/arm-none-eabi/4.6.2/../../../../arm-none-eabi/lib/thumb/v7m\libg.a(lib_a-fiprintf.o)
                                0x520 (size before relaxing)
 .debug_str     0x0000e41b       0x4c e:/elektronik/toolchain/yagarto/bin/../lib/gcc/arm-none-eabi/4.6.2/../../../../arm-none-eabi/lib/thumb/v7m\libg.a(lib_a-fputc.o)
                                0x4fd (size before relaxing)
 .debug_str     0x0000e467       0x88 e:/elektronik/toolchain/yagarto/bin/../lib/gcc/arm-none-eabi/4.6.2/../../../../arm-none-eabi/lib/thumb/v7m\libg.a(lib_a-fputs.o)
                                0x53b (size before relaxing)
 .debug_str     0x0000e4ef       0x6a e:/elektronik/toolchain/yagarto/bin/../lib/gcc/arm-none-eabi/4.6.2/../../../../arm-none-eabi/lib/thumb/v7m\libg.a(lib_a-fvwrite.o)
                                0x546 (size before relaxing)
 .debug_str     0x0000e559       0x4f e:/elektronik/toolchain/yagarto/bin/../lib/gcc/arm-none-eabi/4.6.2/../../../../arm-none-eabi/lib/thumb/v7m\libg.a(lib_a-fwrite.o)
                                0x542 (size before relaxing)
 .debug_str     0x0000e5a8       0x9a e:/elektronik/toolchain/yagarto/bin/../lib/gcc/arm-none-eabi/4.6.2/../../../../arm-none-eabi/lib/thumb/v7m\libg.a(lib_a-impure.o)
                                0x4fd (size before relaxing)
 .debug_str     0x0000e642       0x9b e:/elektronik/toolchain/yagarto/bin/../lib/gcc/arm-none-eabi/4.6.2/../../../../arm-none-eabi/lib/thumb/v7m\libg.a(lib_a-init.o)
                                0x18c (size before relaxing)
 .debug_str     0x0000e6dd       0x4b e:/elektronik/toolchain/yagarto/bin/../lib/gcc/arm-none-eabi/4.6.2/../../../../arm-none-eabi/lib/thumb/v7m\libg.a(lib_a-malloc.o)
                                0x4ff (size before relaxing)
 .debug_str     0x0000e728      0x20c e:/elektronik/toolchain/yagarto/bin/../lib/gcc/arm-none-eabi/4.6.2/../../../../arm-none-eabi/lib/thumb/v7m\libg.a(lib_a-mallocr.o)
                                0x6d4 (size before relaxing)
 .debug_str     0x0000e934       0xa5 e:/elektronik/toolchain/yagarto/bin/../lib/gcc/arm-none-eabi/4.6.2/../../../../arm-none-eabi/lib/thumb/v7m\libg.a(lib_a-memchr.o)
                                0x14d (size before relaxing)
 .debug_str     0x0000e9d9       0x46 e:/elektronik/toolchain/yagarto/bin/../lib/gcc/arm-none-eabi/4.6.2/../../../../arm-none-eabi/lib/thumb/v7m\libg.a(lib_a-memcmp.o)
                                0x133 (size before relaxing)
 .debug_str     0x0000ea1f       0x6d e:/elektronik/toolchain/yagarto/bin/../lib/gcc/arm-none-eabi/4.6.2/../../../../arm-none-eabi/lib/thumb/v7m\libg.a(lib_a-memcpy.o)
                                0x15a (size before relaxing)
 .debug_str     0x0000ea8c       0x51 e:/elektronik/toolchain/yagarto/bin/../lib/gcc/arm-none-eabi/4.6.2/../../../../arm-none-eabi/lib/thumb/v7m\libg.a(lib_a-memmove.o)
                                0x166 (size before relaxing)
 .debug_str     0x0000eadd       0x53 e:/elektronik/toolchain/yagarto/bin/../lib/gcc/arm-none-eabi/4.6.2/../../../../arm-none-eabi/lib/thumb/v7m\libg.a(lib_a-memset.o)
                                0x147 (size before relaxing)
 .debug_str     0x0000eb30       0x44 e:/elektronik/toolchain/yagarto/bin/../lib/gcc/arm-none-eabi/4.6.2/../../../../arm-none-eabi/lib/thumb/v7m\libg.a(lib_a-putc.o)
                                0x4f5 (size before relaxing)
 .debug_str     0x0000eb74       0x48 e:/elektronik/toolchain/yagarto/bin/../lib/gcc/arm-none-eabi/4.6.2/../../../../arm-none-eabi/lib/thumb/v7m\libg.a(lib_a-realloc.o)
                                0x4f7 (size before relaxing)
 .debug_str     0x0000ebbc       0x54 e:/elektronik/toolchain/yagarto/bin/../lib/gcc/arm-none-eabi/4.6.2/../../../../arm-none-eabi/lib/thumb/v7m\libg.a(lib_a-reallocr.o)
                                0x5a6 (size before relaxing)
 .debug_str     0x0000ec10       0xea e:/elektronik/toolchain/yagarto/bin/../lib/gcc/arm-none-eabi/4.6.2/../../../../arm-none-eabi/lib/thumb/v7m\libg.a(lib_a-signal.o)
                                0x550 (size before relaxing)
 .debug_str     0x0000ecfa       0x52 e:/elektronik/toolchain/yagarto/bin/../lib/gcc/arm-none-eabi/4.6.2/../../../../arm-none-eabi/lib/thumb/v7m\libg.a(lib_a-sprintf.o)
                                0x51d (size before relaxing)
 .debug_str     0x0000ed4c       0x51 e:/elektronik/toolchain/yagarto/bin/../lib/gcc/arm-none-eabi/4.6.2/../../../../arm-none-eabi/lib/thumb/v7m\libg.a(lib_a-strcat.o)
                                0x137 (size before relaxing)
 .debug_str     0x0000ed9d       0xb5 e:/elektronik/toolchain/yagarto/bin/../lib/gcc/arm-none-eabi/4.6.2/../../../../arm-none-eabi/lib/thumb/v7m\libg.a(lib_a-strcmp.o)
                                0x14a (size before relaxing)
 .debug_str     0x0000ee52       0x4e e:/elektronik/toolchain/yagarto/bin/../lib/gcc/arm-none-eabi/4.6.2/../../../../arm-none-eabi/lib/thumb/v7m\libg.a(lib_a-strcpy.o)
                                0x139 (size before relaxing)
 .debug_str     0x0000eea0       0x4e e:/elektronik/toolchain/yagarto/bin/../lib/gcc/arm-none-eabi/4.6.2/../../../../arm-none-eabi/lib/thumb/v7m\libg.a(lib_a-strlen.o)
                                0x140 (size before relaxing)
 .debug_str     0x0000eeee       0x48 e:/elektronik/toolchain/yagarto/bin/../lib/gcc/arm-none-eabi/4.6.2/../../../../arm-none-eabi/lib/thumb/v7m\libg.a(lib_a-strncmp.o)
                                0x135 (size before relaxing)
 .debug_str     0x0000ef36       0x48 e:/elektronik/toolchain/yagarto/bin/../lib/gcc/arm-none-eabi/4.6.2/../../../../arm-none-eabi/lib/thumb/v7m\libg.a(lib_a-strncpy.o)
                                0x15d (size before relaxing)
 .debug_str     0x0000ef7e      0x166 e:/elektronik/toolchain/yagarto/bin/../lib/gcc/arm-none-eabi/4.6.2/../../../../arm-none-eabi/lib/thumb/v7m\libg.a(lib_a-svfprintf.o)
                                0x6c8 (size before relaxing)
 .debug_str     0x0000f0e4       0x96 e:/elektronik/toolchain/yagarto/bin/../lib/gcc/arm-none-eabi/4.6.2/../../../../arm-none-eabi/lib/thumb/v7m\libg.a(lib_a-syswrite.o)
                                0x4f3 (size before relaxing)
 .debug_str     0x0000f17a       0x37 e:/elektronik/toolchain/yagarto/bin/../lib/gcc/arm-none-eabi/4.6.2/../../../../arm-none-eabi/lib/thumb/v7m\libg.a(lib_a-vfiprintf.o)
                                0x664 (size before relaxing)
 .debug_str     0x0000f1b1       0x4e e:/elektronik/toolchain/yagarto/bin/../lib/gcc/arm-none-eabi/4.6.2/../../../../arm-none-eabi/lib/thumb/v7m\libg.a(lib_a-wbuf.o)
                                0x4f3 (size before relaxing)
 .debug_str     0x0000f1ff       0x4a e:/elektronik/toolchain/yagarto/bin/../lib/gcc/arm-none-eabi/4.6.2/../../../../arm-none-eabi/lib/thumb/v7m\libg.a(lib_a-wsetup.o)
                                0x4ef (size before relaxing)
 .debug_str     0x0000f249       0x63 e:/elektronik/toolchain/yagarto/bin/../lib/gcc/arm-none-eabi/4.6.2/../../../../arm-none-eabi/lib/thumb/v7m\libg.a(lib_a-__atexit.o)
                                0x545 (size before relaxing)
 .debug_str     0x0000f2ac       0x65 e:/elektronik/toolchain/yagarto/bin/../lib/gcc/arm-none-eabi/4.6.2/../../../../arm-none-eabi/lib/thumb/v7m\libg.a(lib_a-__call_atexit.o)
                                0x517 (size before relaxing)
 .debug_str     0x0000f311      0x100 e:/elektronik/toolchain/yagarto/bin/../lib/gcc/arm-none-eabi/4.6.2/../../../../arm-none-eabi/lib/thumb/v7m\libg.a(lib_a-dtoa.o)
                                0x5e4 (size before relaxing)
 .debug_str     0x0000f411       0x59 e:/elektronik/toolchain/yagarto/bin/../lib/gcc/arm-none-eabi/4.6.2/../../../../arm-none-eabi/lib/thumb/v7m\libg.a(lib_a-fflush.o)
                                0x51f (size before relaxing)
 .debug_str     0x0000f46a      0x106 e:/elektronik/toolchain/yagarto/bin/../lib/gcc/arm-none-eabi/4.6.2/../../../../arm-none-eabi/lib/thumb/v7m\libg.a(lib_a-findfp.o)
                                0x5d7 (size before relaxing)
 .debug_str     0x0000f570       0x51 e:/elektronik/toolchain/yagarto/bin/../lib/gcc/arm-none-eabi/4.6.2/../../../../arm-none-eabi/lib/thumb/v7m\libg.a(lib_a-fputwc.o)
                                0x50c (size before relaxing)
 .debug_str     0x0000f5c1       0x3c e:/elektronik/toolchain/yagarto/bin/../lib/gcc/arm-none-eabi/4.6.2/../../../../arm-none-eabi/lib/thumb/v7m\libg.a(lib_a-freer.o)
                                0x626 (size before relaxing)
 .debug_str     0x0000f5fd       0x62 e:/elektronik/toolchain/yagarto/bin/../lib/gcc/arm-none-eabi/4.6.2/../../../../arm-none-eabi/lib/thumb/v7m\libg.a(lib_a-fwalk.o)
                                0x518 (size before relaxing)
 .debug_str     0x0000f65f      0x26b e:/elektronik/toolchain/yagarto/bin/../lib/gcc/arm-none-eabi/4.6.2/../../../../arm-none-eabi/lib/thumb/v7m\libg.a(lib_a-locale.o)
                                0x753 (size before relaxing)
 .debug_str     0x0000f8ca       0x57 e:/elektronik/toolchain/yagarto/bin/../lib/gcc/arm-none-eabi/4.6.2/../../../../arm-none-eabi/lib/thumb/v7m\libg.a(lib_a-makebuf.o)
                                0x5e9 (size before relaxing)
 .debug_str     0x0000f921       0xfc e:/elektronik/toolchain/yagarto/bin/../lib/gcc/arm-none-eabi/4.6.2/../../../../arm-none-eabi/lib/thumb/v7m\libg.a(lib_a-mprec.o)
                                0x5f1 (size before relaxing)
 .debug_str     0x0000fa1d       0xc6 e:/elektronik/toolchain/yagarto/bin/../lib/gcc/arm-none-eabi/4.6.2/../../../../arm-none-eabi/lib/thumb/v7m\libg.a(lib_a-s_fpclassify.o)
                                0x185 (size before relaxing)
 .debug_str     0x0000fae3       0x71 e:/elektronik/toolchain/yagarto/bin/../lib/gcc/arm-none-eabi/4.6.2/../../../../arm-none-eabi/lib/thumb/v7m\libg.a(lib_a-stdio.o)
                                0x524 (size before relaxing)
 .debug_str     0x0000fb54       0x1a e:/elektronik/toolchain/yagarto/bin/../lib/gcc/arm-none-eabi/4.6.2/../../../../arm-none-eabi/lib/thumb/v7m\libg.a(lib_a-svfiprintf.o)
                                0x63b (size before relaxing)
 .debug_str     0x0000fb6e       0x63 e:/elektronik/toolchain/yagarto/bin/../lib/gcc/arm-none-eabi/4.6.2/../../../../arm-none-eabi/lib/thumb/v7m\libg.a(lib_a-wcrtomb.o)
                                0x51d (size before relaxing)
 .debug_str     0x0000fbd1       0x61 e:/elektronik/toolchain/yagarto/bin/../lib/gcc/arm-none-eabi/4.6.2/../../../../arm-none-eabi/lib/thumb/v7m\libg.a(lib_a-wctomb_r.o)
                                0x52c (size before relaxing)
 .debug_str     0x0000fc32       0x19 e:/elektronik/toolchain/yagarto/bin/../lib/gcc/arm-none-eabi/4.6.2/../../../../arm-none-eabi/lib/thumb/v7m\libg.a(lib_a-callocr.o)
                                0x525 (size before relaxing)
 .debug_str     0x0000fc4b       0x48 e:/elektronik/toolchain/yagarto/bin/../lib/gcc/arm-none-eabi/4.6.2/../../../../arm-none-eabi/lib/thumb/v7m\libg.a(lib_a-fclose.o)
                                0x4f9 (size before relaxing)

.debug_frame    0x00000000     0x949c
 .debug_frame   0x00000000       0x9c ./STM32F4xx_StdPeriph_Driver/src/misc.o
 .debug_frame   0x0000009c      0x438 ./STM32F4xx_StdPeriph_Driver/src/stm32f4xx_adc.o
 .debug_frame   0x000004d4      0x2d4 ./STM32F4xx_StdPeriph_Driver/src/stm32f4xx_can.o
 .debug_frame   0x000007a8       0xb8 ./STM32F4xx_StdPeriph_Driver/src/stm32f4xx_crc.o
 .debug_frame   0x00000860      0x1ec ./STM32F4xx_StdPeriph_Driver/src/stm32f4xx_cryp.o
 .debug_frame   0x00000a4c       0x7c ./STM32F4xx_StdPeriph_Driver/src/stm32f4xx_cryp_aes.o
 .debug_frame   0x00000ac8       0x58 ./STM32F4xx_StdPeriph_Driver/src/stm32f4xx_cryp_des.o
 .debug_frame   0x00000b20       0x58 ./STM32F4xx_StdPeriph_Driver/src/stm32f4xx_cryp_tdes.o
 .debug_frame   0x00000b78      0x1ec ./STM32F4xx_StdPeriph_Driver/src/stm32f4xx_dac.o
 .debug_frame   0x00000d64       0x9c ./STM32F4xx_StdPeriph_Driver/src/stm32f4xx_dbgmcu.o
 .debug_frame   0x00000e00      0x1b4 ./STM32F4xx_StdPeriph_Driver/src/stm32f4xx_dcmi.o
 .debug_frame   0x00000fb4      0x224 ./STM32F4xx_StdPeriph_Driver/src/stm32f4xx_dma.o
 .debug_frame   0x000011d8       0xf0 ./STM32F4xx_StdPeriph_Driver/src/stm32f4xx_exti.o
 .debug_frame   0x000012c8      0x384 ./STM32F4xx_StdPeriph_Driver/src/stm32f4xx_flash.o
 .debug_frame   0x0000164c      0x224 ./STM32F4xx_StdPeriph_Driver/src/stm32f4xx_fsmc.o
 .debug_frame   0x00001870      0x19c ./STM32F4xx_StdPeriph_Driver/src/stm32f4xx_gpio.o
 .debug_frame   0x00001a0c      0x1ec ./STM32F4xx_StdPeriph_Driver/src/stm32f4xx_hash.o
 .debug_frame   0x00001bf8       0x58 ./STM32F4xx_StdPeriph_Driver/src/stm32f4xx_hash_md5.o
 .debug_frame   0x00001c50       0x58 ./STM32F4xx_StdPeriph_Driver/src/stm32f4xx_hash_sha1.o
 .debug_frame   0x00001ca8      0x3b4 ./STM32F4xx_StdPeriph_Driver/src/stm32f4xx_i2c.o
 .debug_frame   0x0000205c       0xb8 ./STM32F4xx_StdPeriph_Driver/src/stm32f4xx_iwdg.o
 .debug_frame   0x00002114      0x160 ./STM32F4xx_StdPeriph_Driver/src/stm32f4xx_pwr.o
 .debug_frame   0x00002274      0x4e4 ./STM32F4xx_StdPeriph_Driver/src/stm32f4xx_rcc.o
 .debug_frame   0x00002758       0xf0 ./STM32F4xx_StdPeriph_Driver/src/stm32f4xx_rng.o
 .debug_frame   0x00002848      0x68c ./STM32F4xx_StdPeriph_Driver/src/stm32f4xx_rtc.o
 .debug_frame   0x00002ed4      0x358 ./STM32F4xx_StdPeriph_Driver/src/stm32f4xx_sdio.o
 .debug_frame   0x0000322c      0x2d0 ./STM32F4xx_StdPeriph_Driver/src/stm32f4xx_spi.o
 .debug_frame   0x000034fc       0xbc ./STM32F4xx_StdPeriph_Driver/src/stm32f4xx_syscfg.o
 .debug_frame   0x000035b8      0xa3c ./STM32F4xx_StdPeriph_Driver/src/stm32f4xx_tim.o
 .debug_frame   0x00003ff4      0x344 ./STM32F4xx_StdPeriph_Driver/src/stm32f4xx_usart.o
 .debug_frame   0x00004338       0xf0 ./STM32F4xx_StdPeriph_Driver/src/stm32f4xx_wwdg.o
 .debug_frame   0x00004428       0xc4 ./STM32F4-Discovery/stm32f4_discovery.o
 .debug_frame   0x000044ec      0x440 ./STM32F4-Discovery/stm32f4_discovery_audio_codec.o
 .debug_frame   0x0000492c      0x190 ./STM32F4-Discovery/stm32f4_discovery_lis302dl.o
 .debug_frame   0x00004abc      0x104 ./Menue/CMenue.o
 .debug_frame   0x00004bc0       0xc0 ./GraphicLCD/CGraphicLCD.o
 .debug_frame   0x00004c80      0x25c ./GraphicLCD/CT6963CDriver.o
 .debug_frame   0x00004edc      0x14c ./GraphicLCD/CT6963GPIOInterface.o
 .debug_frame   0x00005028      0x1f8 ./FreeRTOS_EC/Source/AManagedTask.o
 .debug_frame   0x00005220      0x104 ./FreeRTOS_EC/Source/ASyncObject.o
 .debug_frame   0x00005324      0x128 ./FreeRTOS_EC/Source/CBinarySemaphore.o
 .debug_frame   0x0000544c      0x128 ./FreeRTOS_EC/Source/CCountingSemaphore.o
 .debug_frame   0x00005574       0x64 ./FreeRTOS_EC/Source/CFreeRTOS.o
 .debug_frame   0x000055d8      0x280 ./FreeRTOS_EC/Source/CMessageTask.o
 .debug_frame   0x00005858      0x128 ./FreeRTOS_EC/Source/CMutex.o
 .debug_frame   0x00005980      0x144 ./FreeRTOS_EC/Source/CQueue.o
 .debug_frame   0x00005ac4      0x120 ./FreeRTOS_EC/Source/CRecursiveMutex.o
 .debug_frame   0x00005be4      0x160 ./FreeRTOS_EC/Source/CTask.o
 .debug_frame   0x00005d44      0x124 ./FreeRTOS/Source/portable/GCC/ARM_CM4F/port.o
 .debug_frame   0x00005e68       0xf0 ./FreeRTOS/Source/croutine.o
 .debug_frame   0x00005f58       0x9c ./FreeRTOS/Source/list.o
 .debug_frame   0x00005ff4      0x204 ./FreeRTOS/Source/queue.o
 .debug_frame   0x000061f8      0x540 ./FreeRTOS/Source/tasks.o
 .debug_frame   0x00006738      0x104 ./CLedHeartBeatSTM32F4Disc.o
 .debug_frame   0x0000683c      0x1a0 ./main.o
 .debug_frame   0x000069dc       0xb8 ./stm32f4xx_it.o
 .debug_frame   0x00006a94      0x16c ./syscalls.o
 .debug_frame   0x00006c00       0x64 ./system_stm32f4xx.o
 .debug_frame   0x00006c64       0x8c ./ustime.o
 .debug_frame   0x00006cf0       0x20 e:/elektronik/toolchain/yagarto/bin/../lib/gcc/arm-none-eabi/4.6.2/../../../../arm-none-eabi/lib/thumb/v7m\libstdc++.a(atexit_arm.o)
 .debug_frame   0x00006d10       0x20 e:/elektronik/toolchain/yagarto/bin/../lib/gcc/arm-none-eabi/4.6.2/../../../../arm-none-eabi/lib/thumb/v7m\libstdc++.a(del_op.o)
 .debug_frame   0x00006d30       0x28 e:/elektronik/toolchain/yagarto/bin/../lib/gcc/arm-none-eabi/4.6.2/../../../../arm-none-eabi/lib/thumb/v7m\libstdc++.a(pure.o)
 .debug_frame   0x00006d58       0x90 e:/elektronik/toolchain/yagarto/bin/../lib/gcc/arm-none-eabi/4.6.2/../../../../arm-none-eabi/lib/thumb/v7m\libstdc++.a(eh_terminate.o)
 .debug_frame   0x00006de8       0x30 e:/elektronik/toolchain/yagarto/bin/../lib/gcc/arm-none-eabi/4.6.2/../../../../arm-none-eabi/lib/thumb/v7m\libstdc++.a(vterminate.o)
 .debug_frame   0x00006e18      0xb44 e:/elektronik/toolchain/yagarto/bin/../lib/gcc/arm-none-eabi/4.6.2/../../../../arm-none-eabi/lib/thumb/v7m\libstdc++.a(cp-demangle.o)
 .debug_frame   0x0000795c       0x60 e:/elektronik/toolchain/yagarto/bin/../lib/gcc/arm-none-eabi/4.6.2/../../../../arm-none-eabi/lib/thumb/v7m\libstdc++.a(eh_arm.o)
 .debug_frame   0x000079bc       0x40 e:/elektronik/toolchain/yagarto/bin/../lib/gcc/arm-none-eabi/4.6.2/../../../../arm-none-eabi/lib/thumb/v7m\libstdc++.a(eh_aux_runtime.o)
 .debug_frame   0x000079fc       0x50 e:/elektronik/toolchain/yagarto/bin/../lib/gcc/arm-none-eabi/4.6.2/../../../../arm-none-eabi/lib/thumb/v7m\libstdc++.a(eh_call.o)
 .debug_frame   0x00007a4c       0x6c e:/elektronik/toolchain/yagarto/bin/../lib/gcc/arm-none-eabi/4.6.2/../../../../arm-none-eabi/lib/thumb/v7m\libstdc++.a(eh_catch.o)
 .debug_frame   0x00007ab8       0xd0 e:/elektronik/toolchain/yagarto/bin/../lib/gcc/arm-none-eabi/4.6.2/../../../../arm-none-eabi/lib/thumb/v7m\libstdc++.a(eh_exception.o)
 .debug_frame   0x00007b88       0x30 e:/elektronik/toolchain/yagarto/bin/../lib/gcc/arm-none-eabi/4.6.2/../../../../arm-none-eabi/lib/thumb/v7m\libstdc++.a(eh_globals.o)
 .debug_frame   0x00007bb8       0xac e:/elektronik/toolchain/yagarto/bin/../lib/gcc/arm-none-eabi/4.6.2/../../../../arm-none-eabi/lib/thumb/v7m\libstdc++.a(eh_personality.o)
 .debug_frame   0x00007c64       0x60 e:/elektronik/toolchain/yagarto/bin/../lib/gcc/arm-none-eabi/4.6.2/../../../../arm-none-eabi/lib/thumb/v7m\libstdc++.a(eh_throw.o)
 .debug_frame   0x00007cc4       0x28 e:/elektronik/toolchain/yagarto/bin/../lib/gcc/arm-none-eabi/4.6.2/../../../../arm-none-eabi/lib/thumb/v7m\libstdc++.a(eh_type.o)
 .debug_frame   0x00007cec       0x40 e:/elektronik/toolchain/yagarto/bin/../lib/gcc/arm-none-eabi/4.6.2/../../../../arm-none-eabi/lib/thumb/v7m\libstdc++.a(fundamental_type_info.o)
 .debug_frame   0x00007d2c       0x6c e:/elektronik/toolchain/yagarto/bin/../lib/gcc/arm-none-eabi/4.6.2/../../../../arm-none-eabi/lib/thumb/v7m\libstdc++.a(pointer_type_info.o)
 .debug_frame   0x00007d98       0xa8 e:/elektronik/toolchain/yagarto/bin/../lib/gcc/arm-none-eabi/4.6.2/../../../../arm-none-eabi/lib/thumb/v7m\libstdc++.a(si_class_type_info.o)
 .debug_frame   0x00007e40       0x90 e:/elektronik/toolchain/yagarto/bin/../lib/gcc/arm-none-eabi/4.6.2/../../../../arm-none-eabi/lib/thumb/v7m\libstdc++.a(tinfo.o)
 .debug_frame   0x00007ed0       0x50 e:/elektronik/toolchain/yagarto/bin/../lib/gcc/arm-none-eabi/4.6.2/../../../../arm-none-eabi/lib/thumb/v7m\libstdc++.a(bad_cast.o)
 .debug_frame   0x00007f20       0x50 e:/elektronik/toolchain/yagarto/bin/../lib/gcc/arm-none-eabi/4.6.2/../../../../arm-none-eabi/lib/thumb/v7m\libstdc++.a(bad_typeid.o)
 .debug_frame   0x00007f70       0xcc e:/elektronik/toolchain/yagarto/bin/../lib/gcc/arm-none-eabi/4.6.2/../../../../arm-none-eabi/lib/thumb/v7m\libstdc++.a(class_type_info.o)
 .debug_frame   0x0000803c       0x6c e:/elektronik/toolchain/yagarto/bin/../lib/gcc/arm-none-eabi/4.6.2/../../../../arm-none-eabi/lib/thumb/v7m\libstdc++.a(eh_alloc.o)
 .debug_frame   0x000080a8       0x78 e:/elektronik/toolchain/yagarto/bin/../lib/gcc/arm-none-eabi/4.6.2/../../../../arm-none-eabi/lib/thumb/v7m\libstdc++.a(pbase_type_info.o)
 .debug_frame   0x00008120      0x268 e:/elektronik/toolchain/yagarto/bin/../lib/gcc/arm-none-eabi/4.6.2/thumb/v7m\libgcc.a(unwind-arm.o)
 .debug_frame   0x00008388       0xec e:/elektronik/toolchain/yagarto/bin/../lib/gcc/arm-none-eabi/4.6.2/thumb/v7m\libgcc.a(pr-support.o)
 .debug_frame   0x00008474       0x28 e:/elektronik/toolchain/yagarto/bin/../lib/gcc/arm-none-eabi/4.6.2/../../../../arm-none-eabi/lib/thumb/v7m\libg.a(lib_a-abort.o)
 .debug_frame   0x0000849c       0x40 e:/elektronik/toolchain/yagarto/bin/../lib/gcc/arm-none-eabi/4.6.2/../../../../arm-none-eabi/lib/thumb/v7m\libg.a(lib_a-assert.o)
 .debug_frame   0x000084dc       0x20 e:/elektronik/toolchain/yagarto/bin/../lib/gcc/arm-none-eabi/4.6.2/../../../../arm-none-eabi/lib/thumb/v7m\libg.a(lib_a-atexit.o)
 .debug_frame   0x000084fc       0x28 e:/elektronik/toolchain/yagarto/bin/../lib/gcc/arm-none-eabi/4.6.2/../../../../arm-none-eabi/lib/thumb/v7m\libg.a(lib_a-cxa_atexit.o)
 .debug_frame   0x00008524       0x28 e:/elektronik/toolchain/yagarto/bin/../lib/gcc/arm-none-eabi/4.6.2/../../../../arm-none-eabi/lib/thumb/v7m\libg.a(lib_a-exit.o)
 .debug_frame   0x0000854c       0x2c e:/elektronik/toolchain/yagarto/bin/../lib/gcc/arm-none-eabi/4.6.2/../../../../arm-none-eabi/lib/thumb/v7m\libg.a(lib_a-fini.o)
 .debug_frame   0x00008578       0x58 e:/elektronik/toolchain/yagarto/bin/../lib/gcc/arm-none-eabi/4.6.2/../../../../arm-none-eabi/lib/thumb/v7m\libg.a(lib_a-fiprintf.o)
 .debug_frame   0x000085d0       0x48 e:/elektronik/toolchain/yagarto/bin/../lib/gcc/arm-none-eabi/4.6.2/../../../../arm-none-eabi/lib/thumb/v7m\libg.a(lib_a-fputc.o)
 .debug_frame   0x00008618       0x3c e:/elektronik/toolchain/yagarto/bin/../lib/gcc/arm-none-eabi/4.6.2/../../../../arm-none-eabi/lib/thumb/v7m\libg.a(lib_a-fputs.o)
 .debug_frame   0x00008654       0x38 e:/elektronik/toolchain/yagarto/bin/../lib/gcc/arm-none-eabi/4.6.2/../../../../arm-none-eabi/lib/thumb/v7m\libg.a(lib_a-fvwrite.o)
 .debug_frame   0x0000868c       0x54 e:/elektronik/toolchain/yagarto/bin/../lib/gcc/arm-none-eabi/4.6.2/../../../../arm-none-eabi/lib/thumb/v7m\libg.a(lib_a-fwrite.o)
 .debug_frame   0x000086e0       0x2c e:/elektronik/toolchain/yagarto/bin/../lib/gcc/arm-none-eabi/4.6.2/../../../../arm-none-eabi/lib/thumb/v7m\libg.a(lib_a-init.o)
 .debug_frame   0x0000870c       0x30 e:/elektronik/toolchain/yagarto/bin/../lib/gcc/arm-none-eabi/4.6.2/../../../../arm-none-eabi/lib/thumb/v7m\libg.a(lib_a-malloc.o)
 .debug_frame   0x0000873c       0x38 e:/elektronik/toolchain/yagarto/bin/../lib/gcc/arm-none-eabi/4.6.2/../../../../arm-none-eabi/lib/thumb/v7m\libg.a(lib_a-mallocr.o)
 .debug_frame   0x00008774       0x2c e:/elektronik/toolchain/yagarto/bin/../lib/gcc/arm-none-eabi/4.6.2/../../../../arm-none-eabi/lib/thumb/v7m\libg.a(lib_a-memchr.o)
 .debug_frame   0x000087a0       0x2c e:/elektronik/toolchain/yagarto/bin/../lib/gcc/arm-none-eabi/4.6.2/../../../../arm-none-eabi/lib/thumb/v7m\libg.a(lib_a-memcmp.o)
 .debug_frame   0x000087cc       0x2c e:/elektronik/toolchain/yagarto/bin/../lib/gcc/arm-none-eabi/4.6.2/../../../../arm-none-eabi/lib/thumb/v7m\libg.a(lib_a-memcpy.o)
 .debug_frame   0x000087f8       0x2c e:/elektronik/toolchain/yagarto/bin/../lib/gcc/arm-none-eabi/4.6.2/../../../../arm-none-eabi/lib/thumb/v7m\libg.a(lib_a-memmove.o)
 .debug_frame   0x00008824       0x2c e:/elektronik/toolchain/yagarto/bin/../lib/gcc/arm-none-eabi/4.6.2/../../../../arm-none-eabi/lib/thumb/v7m\libg.a(lib_a-memset.o)
 .debug_frame   0x00008850       0x48 e:/elektronik/toolchain/yagarto/bin/../lib/gcc/arm-none-eabi/4.6.2/../../../../arm-none-eabi/lib/thumb/v7m\libg.a(lib_a-putc.o)
 .debug_frame   0x00008898       0x20 e:/elektronik/toolchain/yagarto/bin/../lib/gcc/arm-none-eabi/4.6.2/../../../../arm-none-eabi/lib/thumb/v7m\libg.a(lib_a-realloc.o)
 .debug_frame   0x000088b8       0x38 e:/elektronik/toolchain/yagarto/bin/../lib/gcc/arm-none-eabi/4.6.2/../../../../arm-none-eabi/lib/thumb/v7m\libg.a(lib_a-reallocr.o)
 .debug_frame   0x000088f0       0xc0 e:/elektronik/toolchain/yagarto/bin/../lib/gcc/arm-none-eabi/4.6.2/../../../../arm-none-eabi/lib/thumb/v7m\libg.a(lib_a-signal.o)
 .debug_frame   0x000089b0       0x64 e:/elektronik/toolchain/yagarto/bin/../lib/gcc/arm-none-eabi/4.6.2/../../../../arm-none-eabi/lib/thumb/v7m\libg.a(lib_a-sprintf.o)
 .debug_frame   0x00008a14       0x2c e:/elektronik/toolchain/yagarto/bin/../lib/gcc/arm-none-eabi/4.6.2/../../../../arm-none-eabi/lib/thumb/v7m\libg.a(lib_a-strcat.o)
 .debug_frame   0x00008a40       0x30 e:/elektronik/toolchain/yagarto/bin/../lib/gcc/arm-none-eabi/4.6.2/../../../../arm-none-eabi/lib/thumb/v7m\libg.a(lib_a-strcmp.o)
 .debug_frame   0x00008a70       0x20 e:/elektronik/toolchain/yagarto/bin/../lib/gcc/arm-none-eabi/4.6.2/../../../../arm-none-eabi/lib/thumb/v7m\libg.a(lib_a-strcpy.o)
 .debug_frame   0x00008a90       0x20 e:/elektronik/toolchain/yagarto/bin/../lib/gcc/arm-none-eabi/4.6.2/../../../../arm-none-eabi/lib/thumb/v7m\libg.a(lib_a-strlen.o)
 .debug_frame   0x00008ab0       0x30 e:/elektronik/toolchain/yagarto/bin/../lib/gcc/arm-none-eabi/4.6.2/../../../../arm-none-eabi/lib/thumb/v7m\libg.a(lib_a-strncmp.o)
 .debug_frame   0x00008ae0       0x2c e:/elektronik/toolchain/yagarto/bin/../lib/gcc/arm-none-eabi/4.6.2/../../../../arm-none-eabi/lib/thumb/v7m\libg.a(lib_a-strncpy.o)
 .debug_frame   0x00008b0c       0x3c e:/elektronik/toolchain/yagarto/bin/../lib/gcc/arm-none-eabi/4.6.2/../../../../arm-none-eabi/lib/thumb/v7m\libg.a(lib_a-svfprintf.o)
 .debug_frame   0x00008b48       0x28 e:/elektronik/toolchain/yagarto/bin/../lib/gcc/arm-none-eabi/4.6.2/../../../../arm-none-eabi/lib/thumb/v7m\libg.a(lib_a-syswrite.o)
 .debug_frame   0x00008b70       0x7c e:/elektronik/toolchain/yagarto/bin/../lib/gcc/arm-none-eabi/4.6.2/../../../../arm-none-eabi/lib/thumb/v7m\libg.a(lib_a-vfiprintf.o)
 .debug_frame   0x00008bec       0x3c e:/elektronik/toolchain/yagarto/bin/../lib/gcc/arm-none-eabi/4.6.2/../../../../arm-none-eabi/lib/thumb/v7m\libg.a(lib_a-wbuf.o)
 .debug_frame   0x00008c28       0x2c e:/elektronik/toolchain/yagarto/bin/../lib/gcc/arm-none-eabi/4.6.2/../../../../arm-none-eabi/lib/thumb/v7m\libg.a(lib_a-wsetup.o)
 .debug_frame   0x00008c54       0x34 e:/elektronik/toolchain/yagarto/bin/../lib/gcc/arm-none-eabi/4.6.2/../../../../arm-none-eabi/lib/thumb/v7m\libg.a(lib_a-__atexit.o)
 .debug_frame   0x00008c88       0x38 e:/elektronik/toolchain/yagarto/bin/../lib/gcc/arm-none-eabi/4.6.2/../../../../arm-none-eabi/lib/thumb/v7m\libg.a(lib_a-__call_atexit.o)
 .debug_frame   0x00008cc0       0x64 e:/elektronik/toolchain/yagarto/bin/../lib/gcc/arm-none-eabi/4.6.2/../../../../arm-none-eabi/lib/thumb/v7m\libg.a(lib_a-dtoa.o)
 .debug_frame   0x00008d24       0x40 e:/elektronik/toolchain/yagarto/bin/../lib/gcc/arm-none-eabi/4.6.2/../../../../arm-none-eabi/lib/thumb/v7m\libg.a(lib_a-fflush.o)
 .debug_frame   0x00008d64      0x120 e:/elektronik/toolchain/yagarto/bin/../lib/gcc/arm-none-eabi/4.6.2/../../../../arm-none-eabi/lib/thumb/v7m\libg.a(lib_a-findfp.o)
 .debug_frame   0x00008e84       0x50 e:/elektronik/toolchain/yagarto/bin/../lib/gcc/arm-none-eabi/4.6.2/../../../../arm-none-eabi/lib/thumb/v7m\libg.a(lib_a-fputwc.o)
 .debug_frame   0x00008ed4       0x50 e:/elektronik/toolchain/yagarto/bin/../lib/gcc/arm-none-eabi/4.6.2/../../../../arm-none-eabi/lib/thumb/v7m\libg.a(lib_a-freer.o)
 .debug_frame   0x00008f24       0x54 e:/elektronik/toolchain/yagarto/bin/../lib/gcc/arm-none-eabi/4.6.2/../../../../arm-none-eabi/lib/thumb/v7m\libg.a(lib_a-fwalk.o)
 .debug_frame   0x00008f78       0x98 e:/elektronik/toolchain/yagarto/bin/../lib/gcc/arm-none-eabi/4.6.2/../../../../arm-none-eabi/lib/thumb/v7m\libg.a(lib_a-locale.o)
 .debug_frame   0x00009010       0x30 e:/elektronik/toolchain/yagarto/bin/../lib/gcc/arm-none-eabi/4.6.2/../../../../arm-none-eabi/lib/thumb/v7m\libg.a(lib_a-makebuf.o)
 .debug_frame   0x00009040      0x230 e:/elektronik/toolchain/yagarto/bin/../lib/gcc/arm-none-eabi/4.6.2/../../../../arm-none-eabi/lib/thumb/v7m\libg.a(lib_a-mprec.o)
 .debug_frame   0x00009270       0x28 e:/elektronik/toolchain/yagarto/bin/../lib/gcc/arm-none-eabi/4.6.2/../../../../arm-none-eabi/lib/thumb/v7m\libg.a(lib_a-s_fpclassify.o)
 .debug_frame   0x00009298       0x80 e:/elektronik/toolchain/yagarto/bin/../lib/gcc/arm-none-eabi/4.6.2/../../../../arm-none-eabi/lib/thumb/v7m\libg.a(lib_a-stdio.o)
 .debug_frame   0x00009318       0x64 e:/elektronik/toolchain/yagarto/bin/../lib/gcc/arm-none-eabi/4.6.2/../../../../arm-none-eabi/lib/thumb/v7m\libg.a(lib_a-svfiprintf.o)
 .debug_frame   0x0000937c       0x58 e:/elektronik/toolchain/yagarto/bin/../lib/gcc/arm-none-eabi/4.6.2/../../../../arm-none-eabi/lib/thumb/v7m\libg.a(lib_a-wcrtomb.o)
 .debug_frame   0x000093d4       0x44 e:/elektronik/toolchain/yagarto/bin/../lib/gcc/arm-none-eabi/4.6.2/../../../../arm-none-eabi/lib/thumb/v7m\libg.a(lib_a-wctomb_r.o)
 .debug_frame   0x00009418       0x28 e:/elektronik/toolchain/yagarto/bin/../lib/gcc/arm-none-eabi/4.6.2/../../../../arm-none-eabi/lib/thumb/v7m\libg.a(lib_a-callocr.o)
 .debug_frame   0x00009440       0x3c e:/elektronik/toolchain/yagarto/bin/../lib/gcc/arm-none-eabi/4.6.2/../../../../arm-none-eabi/lib/thumb/v7m\libg.a(lib_a-fclose.o)
 .debug_frame   0x0000947c       0x20 e:/elektronik/toolchain/yagarto/bin/../lib/gcc/arm-none-eabi/4.6.2/thumb/v7m\libgcc.a(_udivsi3.o)
