   1              		.syntax unified
   2              		.cpu cortex-m4
   3              		.eabi_attribute 27, 3
   4              		.fpu fpv4-sp-d16
   5              		.eabi_attribute 20, 1
   6              		.eabi_attribute 21, 1
   7              		.eabi_attribute 23, 3
   8              		.eabi_attribute 24, 1
   9              		.eabi_attribute 25, 1
  10              		.eabi_attribute 26, 1
  11              		.eabi_attribute 30, 6
  12              		.eabi_attribute 18, 4
  13              		.thumb
  14              		.file	"AManagedTask.cpp"
  15              		.text
  16              	.Ltext0:
  17              		.cfi_sections	.debug_frame
  18              		.section	.text._ZN5CTask13EnterCriticalEv,"axG",%progbits,_ZN5CTask13EnterCriticalEv,comdat
  19              		.align	2
  20              		.weak	_ZN5CTask13EnterCriticalEv
  21              		.thumb
  22              		.thumb_func
  24              	_ZN5CTask13EnterCriticalEv:
  25              	.LFB112:
  26              		.file 1 "../FreeRTOS_EC/Source/CTask.h"
   1:../FreeRTOS_EC/Source/CTask.h **** /**
   2:../FreeRTOS_EC/Source/CTask.h ****  * @file CTask.h
   3:../FreeRTOS_EC/Source/CTask.h ****  * @class CTask
   4:../FreeRTOS_EC/Source/CTask.h ****  * @ingroup FreeRTOS_Wrapper
   5:../FreeRTOS_EC/Source/CTask.h ****  *
   6:../FreeRTOS_EC/Source/CTask.h ****  * The CTask class wraps a native FreeRTOS task handle (xTaskHandle). To create a task instance
   7:../FreeRTOS_EC/Source/CTask.h ****  * an object of this class and then call its CTask::Create method like showed in the following samp
   8:../FreeRTOS_EC/Source/CTask.h ****  * \code
   9:../FreeRTOS_EC/Source/CTask.h ****  * CTask g_aTask // global task declaration.
  10:../FreeRTOS_EC/Source/CTask.h ****  *
  11:../FreeRTOS_EC/Source/CTask.h ****  * void main()
  12:../FreeRTOS_EC/Source/CTask.h ****  * {
  13:../FreeRTOS_EC/Source/CTask.h ****  * 	g_aTask.Create(task_control_func, "Led2", configMINIMAL_STACK_SIZE, mainFLASH_TASK_PRIORITY);
  14:../FreeRTOS_EC/Source/CTask.h ****  *
  15:../FreeRTOS_EC/Source/CTask.h ****  * 	CFreeRTOS::StartScheduler();
  16:../FreeRTOS_EC/Source/CTask.h ****  * }
  17:../FreeRTOS_EC/Source/CTask.h ****  * \endcode
  18:../FreeRTOS_EC/Source/CTask.h ****  *
  19:../FreeRTOS_EC/Source/CTask.h ****  * Usually the application subclass this class to create an application specific task object.
  20:../FreeRTOS_EC/Source/CTask.h ****  * See the CHelloWorld class for an example.
  21:../FreeRTOS_EC/Source/CTask.h ****  *
  22:../FreeRTOS_EC/Source/CTask.h ****  * \sa <a href="http://www.freertos.org/taskandcr.html">task documentation</a> in the FreeRTOS web 
  23:../FreeRTOS_EC/Source/CTask.h ****  *
  24:../FreeRTOS_EC/Source/CTask.h ****  * @date Jul 5, 2010
  25:../FreeRTOS_EC/Source/CTask.h ****  * @author Stefano Oliveri (STF12.net)
  26:../FreeRTOS_EC/Source/CTask.h ****  *         E-Mail: software@stf12.net
  27:../FreeRTOS_EC/Source/CTask.h ****  */
  28:../FreeRTOS_EC/Source/CTask.h **** 
  29:../FreeRTOS_EC/Source/CTask.h **** #ifndef CTASK_H_
  30:../FreeRTOS_EC/Source/CTask.h **** #define CTASK_H_
  31:../FreeRTOS_EC/Source/CTask.h **** 
  32:../FreeRTOS_EC/Source/CTask.h **** #include "FreeRTOS.h"
  33:../FreeRTOS_EC/Source/CTask.h **** #include "task.h"
  34:../FreeRTOS_EC/Source/CTask.h **** #include "IFreeRTOSProtocol.h"
  35:../FreeRTOS_EC/Source/CTask.h **** 
  36:../FreeRTOS_EC/Source/CTask.h **** class CTask: public IFreeRTOSObj {
  37:../FreeRTOS_EC/Source/CTask.h **** 
  38:../FreeRTOS_EC/Source/CTask.h **** 	/**
  39:../FreeRTOS_EC/Source/CTask.h **** 	 * Specifies the native FreeRTOS handle managed by an instance of this class.
  40:../FreeRTOS_EC/Source/CTask.h **** 	 */
  41:../FreeRTOS_EC/Source/CTask.h **** 	xTaskHandle m_handleTask;
  42:../FreeRTOS_EC/Source/CTask.h **** 
  43:../FreeRTOS_EC/Source/CTask.h **** public:
  44:../FreeRTOS_EC/Source/CTask.h **** 	/**
  45:../FreeRTOS_EC/Source/CTask.h **** 	 * The default constructor. It initializes the object without attaching it to a native FreeRTOS ha
  46:../FreeRTOS_EC/Source/CTask.h **** 	 * Call the Create method to allocate a task handle and attach it to the object.
  47:../FreeRTOS_EC/Source/CTask.h **** 	 */
  48:../FreeRTOS_EC/Source/CTask.h **** 	CTask();
  49:../FreeRTOS_EC/Source/CTask.h **** 
  50:../FreeRTOS_EC/Source/CTask.h **** 	/**
  51:../FreeRTOS_EC/Source/CTask.h **** 	 * Create a CTask instance and attach it to a valid handle.
  52:../FreeRTOS_EC/Source/CTask.h **** 	 *
  53:../FreeRTOS_EC/Source/CTask.h **** 	 * @param handleTask a valid task handle.
  54:../FreeRTOS_EC/Source/CTask.h **** 	 */
  55:../FreeRTOS_EC/Source/CTask.h **** 	CTask(xTaskHandle handleTask);
  56:../FreeRTOS_EC/Source/CTask.h **** 
  57:../FreeRTOS_EC/Source/CTask.h **** 	/**
  58:../FreeRTOS_EC/Source/CTask.h **** 	 * Delete the native FreeRTOS task.
  59:../FreeRTOS_EC/Source/CTask.h **** 	 */
  60:../FreeRTOS_EC/Source/CTask.h **** 	virtual ~CTask();
  61:../FreeRTOS_EC/Source/CTask.h **** 
  62:../FreeRTOS_EC/Source/CTask.h **** 	/**
  63:../FreeRTOS_EC/Source/CTask.h **** 	 * Retrieve the native FreeRTOS task handle attached to this object.
  64:../FreeRTOS_EC/Source/CTask.h **** 	 *
  65:../FreeRTOS_EC/Source/CTask.h **** 	 * @return the native FreeRTOS task handle attached to this object.
  66:../FreeRTOS_EC/Source/CTask.h **** 	 */
  67:../FreeRTOS_EC/Source/CTask.h **** 	inline operator xTaskHandle() const { return m_handleTask; }
  68:../FreeRTOS_EC/Source/CTask.h **** 
  69:../FreeRTOS_EC/Source/CTask.h **** 	// FreeRTOS API Wrappers
  70:../FreeRTOS_EC/Source/CTask.h **** 
  71:../FreeRTOS_EC/Source/CTask.h **** 	/**
  72:../FreeRTOS_EC/Source/CTask.h **** 	 * Create a FreeRTOS task and attach its handle to the receiver object.
  73:../FreeRTOS_EC/Source/CTask.h **** 	 *
  74:../FreeRTOS_EC/Source/CTask.h **** 	 * \sa <a href="http://www.freertos.org/a00125.html">xTaskCreate</a> FreeRTOS API function.
  75:../FreeRTOS_EC/Source/CTask.h **** 	 */
  76:../FreeRTOS_EC/Source/CTask.h **** 	portBASE_TYPE Create(pdTASK_CODE pvTaskCode, const portCHAR * const pcName, unsigned portSHORT usS
  77:../FreeRTOS_EC/Source/CTask.h **** 
  78:../FreeRTOS_EC/Source/CTask.h **** 	/**
  79:../FreeRTOS_EC/Source/CTask.h **** 	 * Create a Memory Protection Unit (MPU) restricted task and attach its handle to the receiver obj
  80:../FreeRTOS_EC/Source/CTask.h **** 	 *
  81:../FreeRTOS_EC/Source/CTask.h **** 	 * \sa <a href="http://www.freertos.org/xTaskCreateRestricted.html">xTaskCreateRestricted</a> Free
  82:../FreeRTOS_EC/Source/CTask.h **** 	 */
  83:../FreeRTOS_EC/Source/CTask.h **** 	portBASE_TYPE CreateRestricted(xTaskParameters *pxTaskDefinition);
  84:../FreeRTOS_EC/Source/CTask.h **** 
  85:../FreeRTOS_EC/Source/CTask.h **** 	/**
  86:../FreeRTOS_EC/Source/CTask.h **** 	 * \sa <a href="http://www.freertos.org/a00126.html">vTaskDelete</a>  FreeRTOS API function.
  87:../FreeRTOS_EC/Source/CTask.h **** 	 */
  88:../FreeRTOS_EC/Source/CTask.h **** 	void Delete();
  89:../FreeRTOS_EC/Source/CTask.h **** 
  90:../FreeRTOS_EC/Source/CTask.h **** 	/**
  91:../FreeRTOS_EC/Source/CTask.h **** 	 * \sa <a href="http://www.freertos.org/a00127.html">vTaskDelay</a>  FreeRTOS API function.
  92:../FreeRTOS_EC/Source/CTask.h **** 	 */
  93:../FreeRTOS_EC/Source/CTask.h **** 	inline static void Delay(portTickType xTicksToDelay);
  94:../FreeRTOS_EC/Source/CTask.h **** 
  95:../FreeRTOS_EC/Source/CTask.h **** 	/**
  96:../FreeRTOS_EC/Source/CTask.h **** 	 * \sa <a href="http://www.freertos.org/vtaskdelayuntil.html">vTaskDelayUntil</a>  FreeRTOS API fu
  97:../FreeRTOS_EC/Source/CTask.h **** 	 */
  98:../FreeRTOS_EC/Source/CTask.h ****     inline static void DelayUntil(portTickType *pxPreviousWakeTime, portTickType xTimeIncrement);
  99:../FreeRTOS_EC/Source/CTask.h **** 
 100:../FreeRTOS_EC/Source/CTask.h ****     /**
 101:../FreeRTOS_EC/Source/CTask.h ****      * \sa <a href="http://www.freertos.org/a00020.html#taskYIELD">taskYIELD</a>  FreeRTOS API func
 102:../FreeRTOS_EC/Source/CTask.h ****      */
 103:../FreeRTOS_EC/Source/CTask.h ****     inline static void Yeld() { taskYIELD(); }
 104:../FreeRTOS_EC/Source/CTask.h **** 
 105:../FreeRTOS_EC/Source/CTask.h ****     /**
 106:../FreeRTOS_EC/Source/CTask.h ****      * \sa <a href="http://www.freertos.org/a00020.html#taskENTER_CRITICAL">taskENTER_CRITICAL</a> 
 107:../FreeRTOS_EC/Source/CTask.h ****      */
 108:../FreeRTOS_EC/Source/CTask.h ****     inline static void EnterCritical() { taskENTER_CRITICAL(); }
  27              		.loc 1 108 0
  28              		.cfi_startproc
  29              		@ args = 0, pretend = 0, frame = 0
  30              		@ frame_needed = 1, uses_anonymous_args = 0
  31 0000 80B5     		push	{r7, lr}
  32              	.LCFI0:
  33              		.cfi_def_cfa_offset 8
  34              		.cfi_offset 14, -4
  35              		.cfi_offset 7, -8
  36 0002 00AF     		add	r7, sp, #0
  37              	.LCFI1:
  38              		.cfi_def_cfa_register 7
  39              		.loc 1 108 0
  40 0004 FFF7FEFF 		bl	vPortEnterCritical
  41 0008 80BD     		pop	{r7, pc}
  42              		.cfi_endproc
  43              	.LFE112:
  45 000a 00BF     		.section	.text._ZN5CTask12ExitCriticalEv,"axG",%progbits,_ZN5CTask12ExitCriticalEv,comdat
  46              		.align	2
  47              		.weak	_ZN5CTask12ExitCriticalEv
  48              		.thumb
  49              		.thumb_func
  51              	_ZN5CTask12ExitCriticalEv:
  52              	.LFB113:
 109:../FreeRTOS_EC/Source/CTask.h **** 
 110:../FreeRTOS_EC/Source/CTask.h ****     /**
 111:../FreeRTOS_EC/Source/CTask.h ****      * \sa <a href="http://www.freertos.org/a00020.html#taskEXIT_CRITICAL">taskEXIT_CRITICAL</a>  F
 112:../FreeRTOS_EC/Source/CTask.h ****      */
 113:../FreeRTOS_EC/Source/CTask.h ****     inline static void ExitCritical() { taskEXIT_CRITICAL(); }
  53              		.loc 1 113 0
  54              		.cfi_startproc
  55              		@ args = 0, pretend = 0, frame = 0
  56              		@ frame_needed = 1, uses_anonymous_args = 0
  57 0000 80B5     		push	{r7, lr}
  58              	.LCFI2:
  59              		.cfi_def_cfa_offset 8
  60              		.cfi_offset 14, -4
  61              		.cfi_offset 7, -8
  62 0002 00AF     		add	r7, sp, #0
  63              	.LCFI3:
  64              		.cfi_def_cfa_register 7
  65              		.loc 1 113 0
  66 0004 FFF7FEFF 		bl	vPortExitCritical
  67 0008 80BD     		pop	{r7, pc}
  68              		.cfi_endproc
  69              	.LFE113:
  71 000a 00BF     		.section	.text._ZNK5CTask7IsValidEv,"axG",%progbits,_ZNK5CTask7IsValidEv,comdat
  72              		.align	2
  73              		.weak	_ZNK5CTask7IsValidEv
  74              		.thumb
  75              		.thumb_func
  77              	_ZNK5CTask7IsValidEv:
  78              	.LFB132:
 114:../FreeRTOS_EC/Source/CTask.h **** 
 115:../FreeRTOS_EC/Source/CTask.h ****     /**
 116:../FreeRTOS_EC/Source/CTask.h ****      * \sa <a href="http://www.freertos.org/a00020.html#taskDISABLE_INTERRUPTS">taskDISABLE_INTERRU
 117:../FreeRTOS_EC/Source/CTask.h ****      */
 118:../FreeRTOS_EC/Source/CTask.h ****     inline static void DisableInterrupt() { taskDISABLE_INTERRUPTS(); }
 119:../FreeRTOS_EC/Source/CTask.h **** 
 120:../FreeRTOS_EC/Source/CTask.h ****     /**
 121:../FreeRTOS_EC/Source/CTask.h ****      * \sa <a href="http://www.freertos.org/a00020.html#taskENABLE_INTERRUPTS">taskENABLE_INTERRUPT
 122:../FreeRTOS_EC/Source/CTask.h ****      */
 123:../FreeRTOS_EC/Source/CTask.h ****     inline static void EnableInterrupt() { taskENABLE_INTERRUPTS(); }
 124:../FreeRTOS_EC/Source/CTask.h **** 
 125:../FreeRTOS_EC/Source/CTask.h ****     /**
 126:../FreeRTOS_EC/Source/CTask.h ****      * \sa <a href="http://www.freertos.org/a00021.html#xTaskGetCurrentTaskHandle">xTaskGetCurrentT
 127:../FreeRTOS_EC/Source/CTask.h ****      */
 128:../FreeRTOS_EC/Source/CTask.h ****     inline static xTaskHandle GetCurrentTaskHandle();
 129:../FreeRTOS_EC/Source/CTask.h **** 
 130:../FreeRTOS_EC/Source/CTask.h ****     /**
 131:../FreeRTOS_EC/Source/CTask.h ****      * \sa <a href="http://www.freertos.org/a00021.html#xTaskGetTickCount">xTaskGetTickCount</a>  F
 132:../FreeRTOS_EC/Source/CTask.h ****      */
 133:../FreeRTOS_EC/Source/CTask.h ****     inline static portTickType GetTickCount();
 134:../FreeRTOS_EC/Source/CTask.h **** 
 135:../FreeRTOS_EC/Source/CTask.h ****     /**
 136:../FreeRTOS_EC/Source/CTask.h ****      * \sa <a href="http://www.freertos.org/a00021.html#xTaskGetSchedulerState">xTaskGetSchedulerSt
 137:../FreeRTOS_EC/Source/CTask.h ****      */
 138:../FreeRTOS_EC/Source/CTask.h ****     inline static portBASE_TYPE GetSchedulerState();
 139:../FreeRTOS_EC/Source/CTask.h **** 
 140:../FreeRTOS_EC/Source/CTask.h ****     /**
 141:../FreeRTOS_EC/Source/CTask.h ****      * \sa <a href="http://www.freertos.org/a00021.html#usTaskGetNumberOfTasks">uxTaskGetNumberOfTa
 142:../FreeRTOS_EC/Source/CTask.h ****      */
 143:../FreeRTOS_EC/Source/CTask.h ****     inline static unsigned portBASE_TYPE GetNumberOfTasks();
 144:../FreeRTOS_EC/Source/CTask.h **** 
 145:../FreeRTOS_EC/Source/CTask.h ****     /**
 146:../FreeRTOS_EC/Source/CTask.h ****      * \sa <a href="http://www.freertos.org/a00021.html#vTaskList">vTaskList</a>  FreeRTOS API func
 147:../FreeRTOS_EC/Source/CTask.h ****      */
 148:../FreeRTOS_EC/Source/CTask.h ****     inline static void GetTaskList(portCHAR *pcWriteBuffer);
 149:../FreeRTOS_EC/Source/CTask.h **** 
 150:../FreeRTOS_EC/Source/CTask.h ****     /**
 151:../FreeRTOS_EC/Source/CTask.h ****      * \sa <a href="http://www.freertos.org/a00021.html#vTaskGetRunTimeStats">vTaskGetRunTimeStats<
 152:../FreeRTOS_EC/Source/CTask.h ****      */
 153:../FreeRTOS_EC/Source/CTask.h ****     inline static void GetRunTimeStats(portCHAR *pcWriteBuffer);
 154:../FreeRTOS_EC/Source/CTask.h **** 
 155:../FreeRTOS_EC/Source/CTask.h ****     /**
 156:../FreeRTOS_EC/Source/CTask.h ****      * \sa <a href="http://www.freertos.org/a00128.html">uxTaskPriorityGet</a>  FreeRTOS API functi
 157:../FreeRTOS_EC/Source/CTask.h ****      */
 158:../FreeRTOS_EC/Source/CTask.h ****     inline unsigned portBASE_TYPE PriorityGet() const;
 159:../FreeRTOS_EC/Source/CTask.h **** 
 160:../FreeRTOS_EC/Source/CTask.h ****     /**
 161:../FreeRTOS_EC/Source/CTask.h ****      * \sa <a href="http://www.freertos.org/a00129.html">vTaskPrioritySet</a>  FreeRTOS API functio
 162:../FreeRTOS_EC/Source/CTask.h ****      */
 163:../FreeRTOS_EC/Source/CTask.h ****     inline void PrioritySet(unsigned portBASE_TYPE uxNewPriority);
 164:../FreeRTOS_EC/Source/CTask.h **** 
 165:../FreeRTOS_EC/Source/CTask.h ****     /**
 166:../FreeRTOS_EC/Source/CTask.h ****      * \sa <a href="http://www.freertos.org/a00130.html">vTaskSuspend</a>  FreeRTOS API function.
 167:../FreeRTOS_EC/Source/CTask.h ****      */
 168:../FreeRTOS_EC/Source/CTask.h ****     inline void Suspend();
 169:../FreeRTOS_EC/Source/CTask.h **** 
 170:../FreeRTOS_EC/Source/CTask.h ****     /**
 171:../FreeRTOS_EC/Source/CTask.h ****      * \sa <a href="http://www.freertos.org/a00131.html">vTaskResume</a>  FreeRTOS API function.
 172:../FreeRTOS_EC/Source/CTask.h ****      */
 173:../FreeRTOS_EC/Source/CTask.h ****     inline void Resume();
 174:../FreeRTOS_EC/Source/CTask.h **** 
 175:../FreeRTOS_EC/Source/CTask.h ****     /**
 176:../FreeRTOS_EC/Source/CTask.h ****      * \sa <a href="http://www.freertos.org/taskresumefromisr.html">xTaskResumeFromISR</a>  FreeRTO
 177:../FreeRTOS_EC/Source/CTask.h ****      */
 178:../FreeRTOS_EC/Source/CTask.h ****     inline portBASE_TYPE ResumeFromISR();
 179:../FreeRTOS_EC/Source/CTask.h **** 
 180:../FreeRTOS_EC/Source/CTask.h ****     /**
 181:../FreeRTOS_EC/Source/CTask.h ****      * \sa <a href="http://www.freertos.org/vTaskSetApplicationTag.html">vTaskSetApplicationTaskTag
 182:../FreeRTOS_EC/Source/CTask.h ****      */
 183:../FreeRTOS_EC/Source/CTask.h ****     inline void SetApplicationTag(pdTASK_HOOK_CODE pxTagValue);
 184:../FreeRTOS_EC/Source/CTask.h **** 
 185:../FreeRTOS_EC/Source/CTask.h ****     /**
 186:../FreeRTOS_EC/Source/CTask.h ****      * \sa <a href="http://www.freertos.org/xTaskCallApplicationTaskHook.html">xTaskCallApplication
 187:../FreeRTOS_EC/Source/CTask.h ****      */
 188:../FreeRTOS_EC/Source/CTask.h ****     inline portBASE_TYPE CallApplicationTaskHook(void *pvParameter);
 189:../FreeRTOS_EC/Source/CTask.h **** 
 190:../FreeRTOS_EC/Source/CTask.h ****     /**
 191:../FreeRTOS_EC/Source/CTask.h ****      * \sa <a href="http://www.freertos.org/vTaskAllocateMPURegions.html">vTaskAllocateMPURegions</
 192:../FreeRTOS_EC/Source/CTask.h ****      */
 193:../FreeRTOS_EC/Source/CTask.h ****     inline void AllocateMPURegions(const xMemoryRegion * const xRegions);
 194:../FreeRTOS_EC/Source/CTask.h **** 
 195:../FreeRTOS_EC/Source/CTask.h ****     // FreeRTOS class extension.
 196:../FreeRTOS_EC/Source/CTask.h **** 	inline bool IsValid() const;
 197:../FreeRTOS_EC/Source/CTask.h **** 	void Attach(xGenericHandle handle);
 198:../FreeRTOS_EC/Source/CTask.h **** 	inline xGenericHandle Detach();
 199:../FreeRTOS_EC/Source/CTask.h **** };
 200:../FreeRTOS_EC/Source/CTask.h **** 
 201:../FreeRTOS_EC/Source/CTask.h **** // inline method
 202:../FreeRTOS_EC/Source/CTask.h **** ////////////////
 203:../FreeRTOS_EC/Source/CTask.h **** 
 204:../FreeRTOS_EC/Source/CTask.h **** inline
 205:../FreeRTOS_EC/Source/CTask.h **** void CTask::Delay(portTickType xTicksToDelay) {
 206:../FreeRTOS_EC/Source/CTask.h **** #if ( INCLUDE_vTaskDelay == 1 )
 207:../FreeRTOS_EC/Source/CTask.h **** 	vTaskDelay(xTicksToDelay);
 208:../FreeRTOS_EC/Source/CTask.h **** #endif
 209:../FreeRTOS_EC/Source/CTask.h **** }
 210:../FreeRTOS_EC/Source/CTask.h **** 
 211:../FreeRTOS_EC/Source/CTask.h **** inline
 212:../FreeRTOS_EC/Source/CTask.h **** void CTask::DelayUntil(portTickType *pxPreviousWakeTime, portTickType xTimeIncrement) {
 213:../FreeRTOS_EC/Source/CTask.h **** #if ( INCLUDE_vTaskDelayUntil == 1 )
 214:../FreeRTOS_EC/Source/CTask.h **** 	vTaskDelayUntil(pxPreviousWakeTime, xTimeIncrement);
 215:../FreeRTOS_EC/Source/CTask.h **** #endif
 216:../FreeRTOS_EC/Source/CTask.h **** }
 217:../FreeRTOS_EC/Source/CTask.h **** 
 218:../FreeRTOS_EC/Source/CTask.h **** inline
 219:../FreeRTOS_EC/Source/CTask.h **** xTaskHandle CTask::GetCurrentTaskHandle() {
 220:../FreeRTOS_EC/Source/CTask.h **** 	return xTaskGetCurrentTaskHandle();
 221:../FreeRTOS_EC/Source/CTask.h **** }
 222:../FreeRTOS_EC/Source/CTask.h **** 
 223:../FreeRTOS_EC/Source/CTask.h **** inline
 224:../FreeRTOS_EC/Source/CTask.h **** portTickType CTask::GetTickCount() {
 225:../FreeRTOS_EC/Source/CTask.h **** 	return xTaskGetTickCount();
 226:../FreeRTOS_EC/Source/CTask.h **** }
 227:../FreeRTOS_EC/Source/CTask.h **** 
 228:../FreeRTOS_EC/Source/CTask.h **** inline
 229:../FreeRTOS_EC/Source/CTask.h **** portBASE_TYPE CTask::GetSchedulerState() {
 230:../FreeRTOS_EC/Source/CTask.h **** #if ( INCLUDE_xTaskGetSchedulerState == 1 )
 231:../FreeRTOS_EC/Source/CTask.h **** 	return xTaskGetSchedulerState();
 232:../FreeRTOS_EC/Source/CTask.h **** #else
 233:../FreeRTOS_EC/Source/CTask.h **** 	return 0;
 234:../FreeRTOS_EC/Source/CTask.h **** #endif
 235:../FreeRTOS_EC/Source/CTask.h **** }
 236:../FreeRTOS_EC/Source/CTask.h **** 
 237:../FreeRTOS_EC/Source/CTask.h **** inline
 238:../FreeRTOS_EC/Source/CTask.h **** unsigned portBASE_TYPE CTask::GetNumberOfTasks() {
 239:../FreeRTOS_EC/Source/CTask.h **** 	return uxTaskGetNumberOfTasks();
 240:../FreeRTOS_EC/Source/CTask.h **** }
 241:../FreeRTOS_EC/Source/CTask.h **** 
 242:../FreeRTOS_EC/Source/CTask.h **** inline
 243:../FreeRTOS_EC/Source/CTask.h **** void CTask::GetTaskList(portCHAR *pcWriteBuffer) {
 244:../FreeRTOS_EC/Source/CTask.h **** #if ( configUSE_TRACE_FACILITY == 1 )
 245:../FreeRTOS_EC/Source/CTask.h **** 	vTaskList((signed portCHAR*)pcWriteBuffer);
 246:../FreeRTOS_EC/Source/CTask.h **** #endif
 247:../FreeRTOS_EC/Source/CTask.h **** }
 248:../FreeRTOS_EC/Source/CTask.h **** 
 249:../FreeRTOS_EC/Source/CTask.h **** inline
 250:../FreeRTOS_EC/Source/CTask.h **** void CTask::GetRunTimeStats(portCHAR *pcWriteBuffer) {
 251:../FreeRTOS_EC/Source/CTask.h **** #if (configGENERATE_RUN_TIME_STATS == 1)
 252:../FreeRTOS_EC/Source/CTask.h **** 	vTaskGetRunTimeStats((signed portCHAR*)pcWriteBuffer);
 253:../FreeRTOS_EC/Source/CTask.h **** #endif
 254:../FreeRTOS_EC/Source/CTask.h **** }
 255:../FreeRTOS_EC/Source/CTask.h **** 
 256:../FreeRTOS_EC/Source/CTask.h **** inline
 257:../FreeRTOS_EC/Source/CTask.h **** unsigned portBASE_TYPE CTask::PriorityGet() const {
 258:../FreeRTOS_EC/Source/CTask.h **** #if ( INCLUDE_uxTaskPriorityGet == 1 )
 259:../FreeRTOS_EC/Source/CTask.h **** 	return uxTaskPriorityGet(m_handleTask);
 260:../FreeRTOS_EC/Source/CTask.h **** #else
 261:../FreeRTOS_EC/Source/CTask.h **** 	return -1;
 262:../FreeRTOS_EC/Source/CTask.h **** #endif
 263:../FreeRTOS_EC/Source/CTask.h **** }
 264:../FreeRTOS_EC/Source/CTask.h **** 
 265:../FreeRTOS_EC/Source/CTask.h **** inline
 266:../FreeRTOS_EC/Source/CTask.h **** void CTask::PrioritySet(unsigned portBASE_TYPE uxNewPriority) {
 267:../FreeRTOS_EC/Source/CTask.h **** #if ( INCLUDE_vTaskPrioritySet == 1 )
 268:../FreeRTOS_EC/Source/CTask.h **** 	vTaskPrioritySet(m_handleTask, uxNewPriority);
 269:../FreeRTOS_EC/Source/CTask.h **** #endif
 270:../FreeRTOS_EC/Source/CTask.h **** }
 271:../FreeRTOS_EC/Source/CTask.h **** 
 272:../FreeRTOS_EC/Source/CTask.h **** inline
 273:../FreeRTOS_EC/Source/CTask.h **** void CTask::Suspend() {
 274:../FreeRTOS_EC/Source/CTask.h **** #if ( INCLUDE_vTaskSuspend == 1 )
 275:../FreeRTOS_EC/Source/CTask.h **** 	vTaskSuspend(m_handleTask);
 276:../FreeRTOS_EC/Source/CTask.h **** #endif
 277:../FreeRTOS_EC/Source/CTask.h **** }
 278:../FreeRTOS_EC/Source/CTask.h **** 
 279:../FreeRTOS_EC/Source/CTask.h **** inline
 280:../FreeRTOS_EC/Source/CTask.h **** void CTask::Resume() {
 281:../FreeRTOS_EC/Source/CTask.h **** #if ( INCLUDE_vTaskSuspend == 1 )
 282:../FreeRTOS_EC/Source/CTask.h **** 	vTaskResume(m_handleTask);
 283:../FreeRTOS_EC/Source/CTask.h **** #endif
 284:../FreeRTOS_EC/Source/CTask.h **** }
 285:../FreeRTOS_EC/Source/CTask.h **** 
 286:../FreeRTOS_EC/Source/CTask.h **** inline
 287:../FreeRTOS_EC/Source/CTask.h **** portBASE_TYPE CTask::ResumeFromISR() {
 288:../FreeRTOS_EC/Source/CTask.h **** #if ( ( INCLUDE_xTaskResumeFromISR == 1 ) && ( INCLUDE_vTaskSuspend == 1 ) )
 289:../FreeRTOS_EC/Source/CTask.h **** 	return xTaskResumeFromISR(m_handleTask);
 290:../FreeRTOS_EC/Source/CTask.h **** #else
 291:../FreeRTOS_EC/Source/CTask.h **** 	return pdFALSE;
 292:../FreeRTOS_EC/Source/CTask.h **** #endif
 293:../FreeRTOS_EC/Source/CTask.h **** }
 294:../FreeRTOS_EC/Source/CTask.h **** 
 295:../FreeRTOS_EC/Source/CTask.h **** inline
 296:../FreeRTOS_EC/Source/CTask.h **** void CTask::SetApplicationTag(pdTASK_HOOK_CODE pxTagValue) {
 297:../FreeRTOS_EC/Source/CTask.h **** #if ( configUSE_APPLICATION_TASK_TAG == 1 )
 298:../FreeRTOS_EC/Source/CTask.h **** 	vTaskSetApplicationTaskTag(m_handleTask, pxTagValue);
 299:../FreeRTOS_EC/Source/CTask.h **** #endif
 300:../FreeRTOS_EC/Source/CTask.h **** }
 301:../FreeRTOS_EC/Source/CTask.h **** 
 302:../FreeRTOS_EC/Source/CTask.h **** inline
 303:../FreeRTOS_EC/Source/CTask.h **** portBASE_TYPE CTask::CallApplicationTaskHook(void *pvParameter) {
 304:../FreeRTOS_EC/Source/CTask.h **** #if ( configUSE_APPLICATION_TASK_TAG == 1 )
 305:../FreeRTOS_EC/Source/CTask.h **** 	return xTaskCallApplicationTaskHook(m_handleTask, pvParameter);
 306:../FreeRTOS_EC/Source/CTask.h **** #else
 307:../FreeRTOS_EC/Source/CTask.h **** 	return 0;
 308:../FreeRTOS_EC/Source/CTask.h **** #endif
 309:../FreeRTOS_EC/Source/CTask.h **** }
 310:../FreeRTOS_EC/Source/CTask.h **** 
 311:../FreeRTOS_EC/Source/CTask.h **** inline
 312:../FreeRTOS_EC/Source/CTask.h **** void CTask::AllocateMPURegions(const xMemoryRegion * const xRegions) {
 313:../FreeRTOS_EC/Source/CTask.h **** #if ( portUSING_MPU_WRAPPERS == 1 )
 314:../FreeRTOS_EC/Source/CTask.h **** 	vTaskAllocateMPURegions(m_handleTask, xRegions);
 315:../FreeRTOS_EC/Source/CTask.h **** #endif
 316:../FreeRTOS_EC/Source/CTask.h **** }
 317:../FreeRTOS_EC/Source/CTask.h **** 
 318:../FreeRTOS_EC/Source/CTask.h **** inline
 319:../FreeRTOS_EC/Source/CTask.h **** bool CTask::IsValid() const{
  79              		.loc 1 319 0
  80              		.cfi_startproc
  81              		@ args = 0, pretend = 0, frame = 8
  82              		@ frame_needed = 1, uses_anonymous_args = 0
  83              		@ link register save eliminated.
  84 0000 80B4     		push	{r7}
  85              	.LCFI4:
  86              		.cfi_def_cfa_offset 4
  87              		.cfi_offset 7, -4
  88 0002 83B0     		sub	sp, sp, #12
  89              	.LCFI5:
  90              		.cfi_def_cfa_offset 16
  91 0004 00AF     		add	r7, sp, #0
  92              	.LCFI6:
  93              		.cfi_def_cfa_register 7
  94 0006 7860     		str	r0, [r7, #4]
 320:../FreeRTOS_EC/Source/CTask.h **** 	return m_handleTask != NULL;
  95              		.loc 1 320 0
  96 0008 7B68     		ldr	r3, [r7, #4]
  97 000a 5B68     		ldr	r3, [r3, #4]
  98 000c 002B     		cmp	r3, #0
  99 000e 0CBF     		ite	eq
 100 0010 0023     		moveq	r3, #0
 101 0012 0123     		movne	r3, #1
 102 0014 DBB2     		uxtb	r3, r3
 321:../FreeRTOS_EC/Source/CTask.h **** }
 103              		.loc 1 321 0
 104 0016 1846     		mov	r0, r3
 105 0018 07F10C07 		add	r7, r7, #12
 106 001c BD46     		mov	sp, r7
 107 001e 80BC     		pop	{r7}
 108 0020 7047     		bx	lr
 109              		.cfi_endproc
 110              	.LFE132:
 112 0022 00BF     		.section	.text._ZN5CTask6DetachEv,"axG",%progbits,_ZN5CTask6DetachEv,comdat
 113              		.align	2
 114              		.weak	_ZN5CTask6DetachEv
 115              		.thumb
 116              		.thumb_func
 118              	_ZN5CTask6DetachEv:
 119              	.LFB133:
 322:../FreeRTOS_EC/Source/CTask.h **** 
 323:../FreeRTOS_EC/Source/CTask.h **** inline
 324:../FreeRTOS_EC/Source/CTask.h **** xGenericHandle CTask::Detach() {
 120              		.loc 1 324 0
 121              		.cfi_startproc
 122              		@ args = 0, pretend = 0, frame = 16
 123              		@ frame_needed = 1, uses_anonymous_args = 0
 124              		@ link register save eliminated.
 125 0000 80B4     		push	{r7}
 126              	.LCFI7:
 127              		.cfi_def_cfa_offset 4
 128              		.cfi_offset 7, -4
 129 0002 85B0     		sub	sp, sp, #20
 130              	.LCFI8:
 131              		.cfi_def_cfa_offset 24
 132 0004 00AF     		add	r7, sp, #0
 133              	.LCFI9:
 134              		.cfi_def_cfa_register 7
 135 0006 7860     		str	r0, [r7, #4]
 136              	.LBB2:
 325:../FreeRTOS_EC/Source/CTask.h **** 	xTaskHandle res = m_handleTask;
 137              		.loc 1 325 0
 138 0008 7B68     		ldr	r3, [r7, #4]
 139 000a 5B68     		ldr	r3, [r3, #4]
 140 000c FB60     		str	r3, [r7, #12]
 326:../FreeRTOS_EC/Source/CTask.h **** 	m_handleTask = NULL;
 141              		.loc 1 326 0
 142 000e 7B68     		ldr	r3, [r7, #4]
 143 0010 4FF00002 		mov	r2, #0
 144 0014 5A60     		str	r2, [r3, #4]
 327:../FreeRTOS_EC/Source/CTask.h **** 	return res;
 145              		.loc 1 327 0
 146 0016 FB68     		ldr	r3, [r7, #12]
 147              	.LBE2:
 328:../FreeRTOS_EC/Source/CTask.h **** }
 148              		.loc 1 328 0
 149 0018 1846     		mov	r0, r3
 150 001a 07F11407 		add	r7, r7, #20
 151 001e BD46     		mov	sp, r7
 152 0020 80BC     		pop	{r7}
 153 0022 7047     		bx	lr
 154              		.cfi_endproc
 155              	.LFE133:
 157              		.section	.text._ZN12AManagedTask12HardwareInitEv,"axG",%progbits,_ZN12AManagedTask12HardwareInitEv
 158              		.align	2
 159              		.weak	_ZN12AManagedTask12HardwareInitEv
 160              		.thumb
 161              		.thumb_func
 163              	_ZN12AManagedTask12HardwareInitEv:
 164              	.LFB134:
 165              		.file 2 "../FreeRTOS_EC/Source/AManagedTask.h"
   1:../FreeRTOS_EC/Source/AManagedTask.h **** /**
   2:../FreeRTOS_EC/Source/AManagedTask.h ****  * @file AManagedTask.h
   3:../FreeRTOS_EC/Source/AManagedTask.h ****  * @class AManagedTask
   4:../FreeRTOS_EC/Source/AManagedTask.h ****  *
   5:../FreeRTOS_EC/Source/AManagedTask.h ****  * This class extend the CTask in order to provide a more structured and simple to use framework fo
   6:../FreeRTOS_EC/Source/AManagedTask.h ****  * FreeRTOS programming. All AManagedTask derived objects are grouped in linked list. Please note t
   7:../FreeRTOS_EC/Source/AManagedTask.h ****  * this data structure can be modified in a next release. The framework manage these task objects
   8:../FreeRTOS_EC/Source/AManagedTask.h ****  * by calling their methods during the application life cycle.
   9:../FreeRTOS_EC/Source/AManagedTask.h ****  *
  10:../FreeRTOS_EC/Source/AManagedTask.h ****  * The application extend this abstract class to create a managed task and provide its control loop
  11:../FreeRTOS_EC/Source/AManagedTask.h ****  * \code
  12:../FreeRTOS_EC/Source/AManagedTask.h ****  * class CMyPipe: public AManagedTask
  13:../FreeRTOS_EC/Source/AManagedTask.h ****  * {
  14:../FreeRTOS_EC/Source/AManagedTask.h ****  *   // Task private variables.
  15:../FreeRTOS_EC/Source/AManagedTask.h ****  *
  16:../FreeRTOS_EC/Source/AManagedTask.h ****  * public:
  17:../FreeRTOS_EC/Source/AManagedTask.h ****  *   void Run() {  task control loop  };
  18:../FreeRTOS_EC/Source/AManagedTask.h ****  * }
  19:../FreeRTOS_EC/Source/AManagedTask.h ****  * \endcode
  20:../FreeRTOS_EC/Source/AManagedTask.h ****  *
  21:../FreeRTOS_EC/Source/AManagedTask.h ****  * @date Aug 3, 2010
  22:../FreeRTOS_EC/Source/AManagedTask.h ****  * @author Stefano Oliveri
  23:../FreeRTOS_EC/Source/AManagedTask.h ****  *         E-Mail: software@stf12.net
  24:../FreeRTOS_EC/Source/AManagedTask.h ****  */
  25:../FreeRTOS_EC/Source/AManagedTask.h **** 
  26:../FreeRTOS_EC/Source/AManagedTask.h **** /**
  27:../FreeRTOS_EC/Source/AManagedTask.h ****  * @defgroup FreeRTOS_Managed FreeRTOS Managed Class Extension
  28:../FreeRTOS_EC/Source/AManagedTask.h ****  * @ingroup FreeRTOS_CPP_EXT
  29:../FreeRTOS_EC/Source/AManagedTask.h ****  * The FreeRTOS Managed Class Extension are a set of class that provide a structured and
  30:../FreeRTOS_EC/Source/AManagedTask.h ****  * managed framework to develop a FreeRTOS application.
  31:../FreeRTOS_EC/Source/AManagedTask.h ****  * @{
  32:../FreeRTOS_EC/Source/AManagedTask.h ****  */
  33:../FreeRTOS_EC/Source/AManagedTask.h **** 
  34:../FreeRTOS_EC/Source/AManagedTask.h **** #ifndef AMANAGEDTASK_H_
  35:../FreeRTOS_EC/Source/AManagedTask.h **** #define AMANAGEDTASK_H_
  36:../FreeRTOS_EC/Source/AManagedTask.h **** 
  37:../FreeRTOS_EC/Source/AManagedTask.h **** #include "CTask.h"
  38:../FreeRTOS_EC/Source/AManagedTask.h **** 
  39:../FreeRTOS_EC/Source/AManagedTask.h **** class AManagedTask: public CTask {
  40:../FreeRTOS_EC/Source/AManagedTask.h **** 	friend class CFreeRTOS;
  41:../FreeRTOS_EC/Source/AManagedTask.h **** 
  42:../FreeRTOS_EC/Source/AManagedTask.h **** 	/**
  43:../FreeRTOS_EC/Source/AManagedTask.h **** 	 * Specifies the head of the linked list used to group all application managed task.
  44:../FreeRTOS_EC/Source/AManagedTask.h **** 	 */
  45:../FreeRTOS_EC/Source/AManagedTask.h **** 	static AManagedTask *s_pManagedTaskListHead;
  46:../FreeRTOS_EC/Source/AManagedTask.h **** 
  47:../FreeRTOS_EC/Source/AManagedTask.h **** 	/**
  48:../FreeRTOS_EC/Source/AManagedTask.h **** 	 * Specifies the next managed task in the list or NULL if this is the last managed task.
  49:../FreeRTOS_EC/Source/AManagedTask.h **** 	 */
  50:../FreeRTOS_EC/Source/AManagedTask.h **** 	AManagedTask *m_pNextManagedTask;
  51:../FreeRTOS_EC/Source/AManagedTask.h **** 
  52:../FreeRTOS_EC/Source/AManagedTask.h **** public:
  53:../FreeRTOS_EC/Source/AManagedTask.h **** 
  54:../FreeRTOS_EC/Source/AManagedTask.h **** 	/**
  55:../FreeRTOS_EC/Source/AManagedTask.h **** 	 * Default constructor.
  56:../FreeRTOS_EC/Source/AManagedTask.h **** 	 */
  57:../FreeRTOS_EC/Source/AManagedTask.h **** 	AManagedTask();
  58:../FreeRTOS_EC/Source/AManagedTask.h **** 
  59:../FreeRTOS_EC/Source/AManagedTask.h **** 	/**
  60:../FreeRTOS_EC/Source/AManagedTask.h **** 	 * Destructor.
  61:../FreeRTOS_EC/Source/AManagedTask.h **** 	 */
  62:../FreeRTOS_EC/Source/AManagedTask.h **** 	virtual ~AManagedTask();
  63:../FreeRTOS_EC/Source/AManagedTask.h **** 
  64:../FreeRTOS_EC/Source/AManagedTask.h **** 	/**
  65:../FreeRTOS_EC/Source/AManagedTask.h **** 	 * Create the FreeRTOS task attached to this object.
  66:../FreeRTOS_EC/Source/AManagedTask.h **** 	 *
  67:../FreeRTOS_EC/Source/AManagedTask.h **** 	 * @param pcName name of the task. Need only for debug purpose.
  68:../FreeRTOS_EC/Source/AManagedTask.h **** 	 * @param usStackDepth size in word of the task stack.
  69:../FreeRTOS_EC/Source/AManagedTask.h **** 	 * @param uxPriority task priority. Valid value ar between taskIDLE_PRIORITY and configMAX_PRIORIT
  70:../FreeRTOS_EC/Source/AManagedTask.h **** 	 *
  71:../FreeRTOS_EC/Source/AManagedTask.h **** 	 * @sa CTask::Create
  72:../FreeRTOS_EC/Source/AManagedTask.h **** 	 */
  73:../FreeRTOS_EC/Source/AManagedTask.h **** 	portBASE_TYPE Create(const portCHAR * const pcName, unsigned portSHORT usStackDepth, unsigned port
  74:../FreeRTOS_EC/Source/AManagedTask.h **** 
  75:../FreeRTOS_EC/Source/AManagedTask.h **** 	/**
  76:../FreeRTOS_EC/Source/AManagedTask.h **** 	 * The framework calls this function before the scheduler start. The default implementation simply
  77:../FreeRTOS_EC/Source/AManagedTask.h **** 	 * Override this method to perform task specific hardware initialization that does not use FreeRTO
  78:../FreeRTOS_EC/Source/AManagedTask.h **** 	 *
  79:../FreeRTOS_EC/Source/AManagedTask.h **** 	 * @return true if success, false otherwise.
  80:../FreeRTOS_EC/Source/AManagedTask.h **** 	 */
  81:../FreeRTOS_EC/Source/AManagedTask.h **** 	virtual bool HardwareInit() { return true; }
 166              		.loc 2 81 0
 167              		.cfi_startproc
 168              		@ args = 0, pretend = 0, frame = 8
 169              		@ frame_needed = 1, uses_anonymous_args = 0
 170              		@ link register save eliminated.
 171 0000 80B4     		push	{r7}
 172              	.LCFI10:
 173              		.cfi_def_cfa_offset 4
 174              		.cfi_offset 7, -4
 175 0002 83B0     		sub	sp, sp, #12
 176              	.LCFI11:
 177              		.cfi_def_cfa_offset 16
 178 0004 00AF     		add	r7, sp, #0
 179              	.LCFI12:
 180              		.cfi_def_cfa_register 7
 181 0006 7860     		str	r0, [r7, #4]
 182              		.loc 2 81 0
 183 0008 4FF00103 		mov	r3, #1
 184 000c 1846     		mov	r0, r3
 185 000e 07F10C07 		add	r7, r7, #12
 186 0012 BD46     		mov	sp, r7
 187 0014 80BC     		pop	{r7}
 188 0016 7047     		bx	lr
 189              		.cfi_endproc
 190              	.LFE134:
 192              		.section	.text._ZN12AManagedTask8OnCreateEPKctm,"axG",%progbits,_ZN12AManagedTask8OnCreateEPKctm,c
 193              		.align	2
 194              		.weak	_ZN12AManagedTask8OnCreateEPKctm
 195              		.thumb
 196              		.thumb_func
 198              	_ZN12AManagedTask8OnCreateEPKctm:
 199              	.LFB135:
  82:../FreeRTOS_EC/Source/AManagedTask.h **** 
  83:../FreeRTOS_EC/Source/AManagedTask.h **** 	/**
  84:../FreeRTOS_EC/Source/AManagedTask.h **** 	 * Task control loop.
  85:../FreeRTOS_EC/Source/AManagedTask.h **** 	 */
  86:../FreeRTOS_EC/Source/AManagedTask.h **** 	virtual void Run() =0;
  87:../FreeRTOS_EC/Source/AManagedTask.h **** 
  88:../FreeRTOS_EC/Source/AManagedTask.h **** 	/**
  89:../FreeRTOS_EC/Source/AManagedTask.h **** 	 * The framework calls this function before the task is created to give a chance to a managed task
  90:../FreeRTOS_EC/Source/AManagedTask.h **** 	 * own initialization code and stop the task creation process if needed.
  91:../FreeRTOS_EC/Source/AManagedTask.h **** 	 *
  92:../FreeRTOS_EC/Source/AManagedTask.h **** 	 * @param pcName specifies the task name.
  93:../FreeRTOS_EC/Source/AManagedTask.h **** 	 * @param usStackDepth specifies the task stack depth.
  94:../FreeRTOS_EC/Source/AManagedTask.h **** 	 * @param uxPriority specifies the task priority.
  95:../FreeRTOS_EC/Source/AManagedTask.h **** 	 *
  96:../FreeRTOS_EC/Source/AManagedTask.h **** 	 * @return pdTRUE if success, pdFALSE otherwise. If the method return pdFALSE the task creation pr
  97:../FreeRTOS_EC/Source/AManagedTask.h **** 	 * is stopped and no FreeRTOS resource are allocated.
  98:../FreeRTOS_EC/Source/AManagedTask.h **** 	 */
  99:../FreeRTOS_EC/Source/AManagedTask.h **** 	virtual portBASE_TYPE OnCreate(const portCHAR * const pcName, unsigned portSHORT usStackDepth, uns
 200              		.loc 2 99 0
 201              		.cfi_startproc
 202              		@ args = 0, pretend = 0, frame = 16
 203              		@ frame_needed = 1, uses_anonymous_args = 0
 204              		@ link register save eliminated.
 205 0000 80B4     		push	{r7}
 206              	.LCFI13:
 207              		.cfi_def_cfa_offset 4
 208              		.cfi_offset 7, -4
 209 0002 85B0     		sub	sp, sp, #20
 210              	.LCFI14:
 211              		.cfi_def_cfa_offset 24
 212 0004 00AF     		add	r7, sp, #0
 213              	.LCFI15:
 214              		.cfi_def_cfa_register 7
 215 0006 F860     		str	r0, [r7, #12]
 216 0008 B960     		str	r1, [r7, #8]
 217 000a 3B60     		str	r3, [r7, #0]
 218 000c 1346     		mov	r3, r2	@ movhi
 219 000e FB80     		strh	r3, [r7, #6]	@ movhi
 220              		.loc 2 99 0
 221 0010 4FF00103 		mov	r3, #1
 222 0014 1846     		mov	r0, r3
 223 0016 07F11407 		add	r7, r7, #20
 224 001a BD46     		mov	sp, r7
 225 001c 80BC     		pop	{r7}
 226 001e 7047     		bx	lr
 227              		.cfi_endproc
 228              	.LFE135:
 230              		.section	.text._ZN9CFreeRTOS15SuspendAllTasksEv,"axG",%progbits,_ZN9CFreeRTOS15SuspendAllTasksEv,c
 231              		.align	2
 232              		.weak	_ZN9CFreeRTOS15SuspendAllTasksEv
 233              		.thumb
 234              		.thumb_func
 236              	_ZN9CFreeRTOS15SuspendAllTasksEv:
 237              	.LFB138:
 238              		.file 3 "../FreeRTOS_EC/Source/CFreeRTOS.h"
   1:../FreeRTOS_EC/Source/CFreeRTOS.h **** /**
   2:../FreeRTOS_EC/Source/CFreeRTOS.h ****  * @file CFreeRTOS.h
   3:../FreeRTOS_EC/Source/CFreeRTOS.h ****  * @class CFreeRTOS
   4:../FreeRTOS_EC/Source/CFreeRTOS.h ****  *
   5:../FreeRTOS_EC/Source/CFreeRTOS.h ****  * This class provide an interface for the <a href="http://www.freertos.org/a00020.html">Kernek Con
   6:../FreeRTOS_EC/Source/CFreeRTOS.h ****  * Moreover provide a method used by the FreeRTOS Extension Layer to initialize the hardware resour
   7:../FreeRTOS_EC/Source/CFreeRTOS.h ****  * All methods are static and inline.
   8:../FreeRTOS_EC/Source/CFreeRTOS.h ****  *
   9:../FreeRTOS_EC/Source/CFreeRTOS.h ****  * @date Jul 14, 2010
  10:../FreeRTOS_EC/Source/CFreeRTOS.h ****  * @author Stefano Oliveri (STF12.net)
  11:../FreeRTOS_EC/Source/CFreeRTOS.h ****  *         E-Mail: software@stf12.net
  12:../FreeRTOS_EC/Source/CFreeRTOS.h ****  */
  13:../FreeRTOS_EC/Source/CFreeRTOS.h **** 
  14:../FreeRTOS_EC/Source/CFreeRTOS.h **** /**
  15:../FreeRTOS_EC/Source/CFreeRTOS.h ****  * @defgroup FreeRTOS_CPP_EXT FreeRTOS Class Extension
  16:../FreeRTOS_EC/Source/CFreeRTOS.h ****  * This set of C++ class aim to provide an Object Oriented framework to program a FreeRTOS applicat
  17:../FreeRTOS_EC/Source/CFreeRTOS.h ****  * @{
  18:../FreeRTOS_EC/Source/CFreeRTOS.h ****  */
  19:../FreeRTOS_EC/Source/CFreeRTOS.h **** 
  20:../FreeRTOS_EC/Source/CFreeRTOS.h **** /**
  21:../FreeRTOS_EC/Source/CFreeRTOS.h ****  * @defgroup FreeRTOS_Wrapper FreeRTOS Wrapper Class
  22:../FreeRTOS_EC/Source/CFreeRTOS.h ****  * @ingroup FreeRTOS_CPP_EXT
  23:../FreeRTOS_EC/Source/CFreeRTOS.h ****  * The FreeRTOS Wrapper Layer provides a set of class that are able to attach to and manage a FreeR
  24:../FreeRTOS_EC/Source/CFreeRTOS.h ****  * native handle.
  25:../FreeRTOS_EC/Source/CFreeRTOS.h ****  * @{
  26:../FreeRTOS_EC/Source/CFreeRTOS.h ****  */
  27:../FreeRTOS_EC/Source/CFreeRTOS.h **** 
  28:../FreeRTOS_EC/Source/CFreeRTOS.h **** #ifndef CFREERTOS_H_
  29:../FreeRTOS_EC/Source/CFreeRTOS.h **** #define CFREERTOS_H_
  30:../FreeRTOS_EC/Source/CFreeRTOS.h **** 
  31:../FreeRTOS_EC/Source/CFreeRTOS.h **** #include "FreeRTOS.h"
  32:../FreeRTOS_EC/Source/CFreeRTOS.h **** #include "task.h"
  33:../FreeRTOS_EC/Source/CFreeRTOS.h **** 
  34:../FreeRTOS_EC/Source/CFreeRTOS.h **** class CFreeRTOS {
  35:../FreeRTOS_EC/Source/CFreeRTOS.h **** public:
  36:../FreeRTOS_EC/Source/CFreeRTOS.h **** 	/**
  37:../FreeRTOS_EC/Source/CFreeRTOS.h **** 	 * Default constructor. Not used.
  38:../FreeRTOS_EC/Source/CFreeRTOS.h **** 	 */
  39:../FreeRTOS_EC/Source/CFreeRTOS.h **** 	CFreeRTOS();
  40:../FreeRTOS_EC/Source/CFreeRTOS.h **** 
  41:../FreeRTOS_EC/Source/CFreeRTOS.h **** 	/**
  42:../FreeRTOS_EC/Source/CFreeRTOS.h **** 	 * Destructor. Not used.
  43:../FreeRTOS_EC/Source/CFreeRTOS.h **** 	 */
  44:../FreeRTOS_EC/Source/CFreeRTOS.h **** 	~CFreeRTOS();
  45:../FreeRTOS_EC/Source/CFreeRTOS.h **** 
  46:../FreeRTOS_EC/Source/CFreeRTOS.h **** 	/**
  47:../FreeRTOS_EC/Source/CFreeRTOS.h **** 	 * \sa <a href="http://www.freertos.org/a00132.html">vTaskStartScheduler</a> FreeRTOS API function
  48:../FreeRTOS_EC/Source/CFreeRTOS.h **** 	 */
  49:../FreeRTOS_EC/Source/CFreeRTOS.h **** 	static void StartScheduler() { vTaskStartScheduler(); }
  50:../FreeRTOS_EC/Source/CFreeRTOS.h **** 
  51:../FreeRTOS_EC/Source/CFreeRTOS.h **** 	/**
  52:../FreeRTOS_EC/Source/CFreeRTOS.h **** 	 * \sa <a href="http://www.freertos.org/a00133.html">vTaskEndScheduler</a> FreeRTOS API function.
  53:../FreeRTOS_EC/Source/CFreeRTOS.h **** 	 */
  54:../FreeRTOS_EC/Source/CFreeRTOS.h **** 	static void EndScheduler() { vTaskEndScheduler(); }
  55:../FreeRTOS_EC/Source/CFreeRTOS.h **** 
  56:../FreeRTOS_EC/Source/CFreeRTOS.h **** 	/**
  57:../FreeRTOS_EC/Source/CFreeRTOS.h **** 	 * \sa <a href="http://www.freertos.org/a00134.html">vTaskSuspendAll</a> FreeRTOS API function.
  58:../FreeRTOS_EC/Source/CFreeRTOS.h **** 	 */
  59:../FreeRTOS_EC/Source/CFreeRTOS.h **** 	static void SuspendAllTasks() { vTaskSuspendAll(); }
 239              		.loc 3 59 0
 240              		.cfi_startproc
 241              		@ args = 0, pretend = 0, frame = 0
 242              		@ frame_needed = 1, uses_anonymous_args = 0
 243 0000 80B5     		push	{r7, lr}
 244              	.LCFI16:
 245              		.cfi_def_cfa_offset 8
 246              		.cfi_offset 14, -4
 247              		.cfi_offset 7, -8
 248 0002 00AF     		add	r7, sp, #0
 249              	.LCFI17:
 250              		.cfi_def_cfa_register 7
 251              		.loc 3 59 0
 252 0004 FFF7FEFF 		bl	vTaskSuspendAll
 253 0008 80BD     		pop	{r7, pc}
 254              		.cfi_endproc
 255              	.LFE138:
 257 000a 00BF     		.section	.text._ZN9CFreeRTOS14ResumeAllTasksEv,"axG",%progbits,_ZN9CFreeRTOS14ResumeAllTasksEv,com
 258              		.align	2
 259              		.weak	_ZN9CFreeRTOS14ResumeAllTasksEv
 260              		.thumb
 261              		.thumb_func
 263              	_ZN9CFreeRTOS14ResumeAllTasksEv:
 264              	.LFB139:
  60:../FreeRTOS_EC/Source/CFreeRTOS.h **** 
  61:../FreeRTOS_EC/Source/CFreeRTOS.h **** 	/**
  62:../FreeRTOS_EC/Source/CFreeRTOS.h **** 	 * \sa <a href="http://www.freertos.org/a00135.html">xTaskResumeAll</a> FreeRTOS API function.
  63:../FreeRTOS_EC/Source/CFreeRTOS.h **** 	 */
  64:../FreeRTOS_EC/Source/CFreeRTOS.h **** 	static signed portBASE_TYPE ResumeAllTasks() { return xTaskResumeAll(); }
 265              		.loc 3 64 0
 266              		.cfi_startproc
 267              		@ args = 0, pretend = 0, frame = 0
 268              		@ frame_needed = 1, uses_anonymous_args = 0
 269 0000 80B5     		push	{r7, lr}
 270              	.LCFI18:
 271              		.cfi_def_cfa_offset 8
 272              		.cfi_offset 14, -4
 273              		.cfi_offset 7, -8
 274 0002 00AF     		add	r7, sp, #0
 275              	.LCFI19:
 276              		.cfi_def_cfa_register 7
 277              		.loc 3 64 0
 278 0004 FFF7FEFF 		bl	xTaskResumeAll
 279 0008 0346     		mov	r3, r0
 280 000a 1846     		mov	r0, r3
 281 000c 80BD     		pop	{r7, pc}
 282              		.cfi_endproc
 283              	.LFE139:
 285              		.global	_ZN12AManagedTask22s_pManagedTaskListHeadE
 286 000e 00BF     		.section	.bss._ZN12AManagedTask22s_pManagedTaskListHeadE,"aw",%nobits
 287              		.align	2
 290              	_ZN12AManagedTask22s_pManagedTaskListHeadE:
 291 0000 00000000 		.space	4
 292              		.section	.text._ZN12AManagedTaskC2Ev,"ax",%progbits
 293              		.align	2
 294              		.global	_ZN12AManagedTaskC2Ev
 295              		.thumb
 296              		.thumb_func
 298              	_ZN12AManagedTaskC2Ev:
 299              	.LFB141:
 300              		.file 4 "../FreeRTOS_EC/Source/AManagedTask.cpp"
   1:../FreeRTOS_EC/Source/AManagedTask.cpp **** /**
   2:../FreeRTOS_EC/Source/AManagedTask.cpp ****  * AManagedTask.cpp
   3:../FreeRTOS_EC/Source/AManagedTask.cpp ****  *
   4:../FreeRTOS_EC/Source/AManagedTask.cpp ****  *  Created on: Aug 3, 2010
   5:../FreeRTOS_EC/Source/AManagedTask.cpp ****  *      Author: Stefano Oliveri
   6:../FreeRTOS_EC/Source/AManagedTask.cpp ****  */
   7:../FreeRTOS_EC/Source/AManagedTask.cpp **** 
   8:../FreeRTOS_EC/Source/AManagedTask.cpp **** #include "AManagedTask.h"
   9:../FreeRTOS_EC/Source/AManagedTask.cpp **** #include "CFreeRTOS.h"
  10:../FreeRTOS_EC/Source/AManagedTask.cpp **** 
  11:../FreeRTOS_EC/Source/AManagedTask.cpp **** AManagedTask* AManagedTask::s_pManagedTaskListHead = NULL;
  12:../FreeRTOS_EC/Source/AManagedTask.cpp **** 
  13:../FreeRTOS_EC/Source/AManagedTask.cpp **** AManagedTask::AManagedTask() {
 301              		.loc 4 13 0
 302              		.cfi_startproc
 303              		@ args = 0, pretend = 0, frame = 8
 304              		@ frame_needed = 1, uses_anonymous_args = 0
 305 0000 80B5     		push	{r7, lr}
 306              	.LCFI20:
 307              		.cfi_def_cfa_offset 8
 308              		.cfi_offset 14, -4
 309              		.cfi_offset 7, -8
 310 0002 82B0     		sub	sp, sp, #8
 311              	.LCFI21:
 312              		.cfi_def_cfa_offset 16
 313 0004 00AF     		add	r7, sp, #0
 314              	.LCFI22:
 315              		.cfi_def_cfa_register 7
 316 0006 7860     		str	r0, [r7, #4]
 317              	.LBB3:
 318              		.loc 4 13 0
 319 0008 7B68     		ldr	r3, [r7, #4]
 320 000a 1846     		mov	r0, r3
 321 000c FFF7FEFF 		bl	_ZN5CTaskC2Ev
 322 0010 7B68     		ldr	r3, [r7, #4]
 323 0012 084A     		ldr	r2, .L11
 324 0014 1A60     		str	r2, [r3, #0]
  14:../FreeRTOS_EC/Source/AManagedTask.cpp **** 	m_pNextManagedTask = NULL;
 325              		.loc 4 14 0
 326 0016 7B68     		ldr	r3, [r7, #4]
 327 0018 4FF00002 		mov	r2, #0
 328 001c 9A60     		str	r2, [r3, #8]
  15:../FreeRTOS_EC/Source/AManagedTask.cpp **** 	AddToManagedTask(this);
 329              		.loc 4 15 0
 330 001e 7868     		ldr	r0, [r7, #4]
 331 0020 7968     		ldr	r1, [r7, #4]
 332 0022 FFF7FEFF 		bl	_ZN12AManagedTask16AddToManagedTaskEPS_
 333              	.LBE3:
  16:../FreeRTOS_EC/Source/AManagedTask.cpp **** }
 334              		.loc 4 16 0
 335 0026 7B68     		ldr	r3, [r7, #4]
 336 0028 1846     		mov	r0, r3
 337 002a 07F10807 		add	r7, r7, #8
 338 002e BD46     		mov	sp, r7
 339 0030 80BD     		pop	{r7, pc}
 340              	.L12:
 341 0032 00BF     		.align	2
 342              	.L11:
 343 0034 08000000 		.word	_ZTV12AManagedTask+8
 344              		.cfi_endproc
 345              	.LFE141:
 347              		.section	.text._ZN12AManagedTaskD2Ev,"ax",%progbits
 348              		.align	2
 349              		.global	_ZN12AManagedTaskD2Ev
 350              		.thumb
 351              		.thumb_func
 353              	_ZN12AManagedTaskD2Ev:
 354              	.LFB144:
  17:../FreeRTOS_EC/Source/AManagedTask.cpp **** 
  18:../FreeRTOS_EC/Source/AManagedTask.cpp **** AManagedTask::~AManagedTask() {
 355              		.loc 4 18 0
 356              		.cfi_startproc
 357              		@ args = 0, pretend = 0, frame = 8
 358              		@ frame_needed = 1, uses_anonymous_args = 0
 359 0000 80B5     		push	{r7, lr}
 360              	.LCFI23:
 361              		.cfi_def_cfa_offset 8
 362              		.cfi_offset 14, -4
 363              		.cfi_offset 7, -8
 364 0002 82B0     		sub	sp, sp, #8
 365              	.LCFI24:
 366              		.cfi_def_cfa_offset 16
 367 0004 00AF     		add	r7, sp, #0
 368              	.LCFI25:
 369              		.cfi_def_cfa_register 7
 370 0006 7860     		str	r0, [r7, #4]
 371              	.LBB4:
 372              		.loc 4 18 0
 373 0008 7B68     		ldr	r3, [r7, #4]
 374 000a 0C4A     		ldr	r2, .L16
 375 000c 1A60     		str	r2, [r3, #0]
  19:../FreeRTOS_EC/Source/AManagedTask.cpp **** 	RemoveFromManagedTask(this);
 376              		.loc 4 19 0
 377 000e 7868     		ldr	r0, [r7, #4]
 378 0010 7968     		ldr	r1, [r7, #4]
 379 0012 FFF7FEFF 		bl	_ZN12AManagedTask21RemoveFromManagedTaskEPS_
  20:../FreeRTOS_EC/Source/AManagedTask.cpp **** }
 380              		.loc 4 20 0
 381 0016 7868     		ldr	r0, [r7, #4]
 382 0018 FFF7FEFF 		bl	_ZN5CTaskD2Ev
 383              	.LBE4:
 384 001c 4FF00003 		mov	r3, #0
 385 0020 03F00103 		and	r3, r3, #1
 386 0024 DBB2     		uxtb	r3, r3
 387 0026 002B     		cmp	r3, #0
 388 0028 02D0     		beq	.L15
 389              		.loc 4 20 0 is_stmt 0 discriminator 2
 390 002a 7868     		ldr	r0, [r7, #4]
 391 002c FFF7FEFF 		bl	_ZdlPv
 392              	.L15:
 393              		.loc 4 20 0 discriminator 3
 394 0030 7B68     		ldr	r3, [r7, #4]
 395 0032 1846     		mov	r0, r3
 396 0034 07F10807 		add	r7, r7, #8
 397 0038 BD46     		mov	sp, r7
 398 003a 80BD     		pop	{r7, pc}
 399              	.L17:
 400              		.align	2
 401              	.L16:
 402 003c 08000000 		.word	_ZTV12AManagedTask+8
 403              		.cfi_endproc
 404              	.LFE144:
 406              		.section	.text._ZN12AManagedTaskD0Ev,"ax",%progbits
 407              		.align	2
 408              		.global	_ZN12AManagedTaskD0Ev
 409              		.thumb
 410              		.thumb_func
 412              	_ZN12AManagedTaskD0Ev:
 413              	.LFB146:
  18:../FreeRTOS_EC/Source/AManagedTask.cpp **** AManagedTask::~AManagedTask() {
 414              		.loc 4 18 0 is_stmt 1
 415              		.cfi_startproc
 416              		@ args = 0, pretend = 0, frame = 8
 417              		@ frame_needed = 1, uses_anonymous_args = 0
 418 0000 80B5     		push	{r7, lr}
 419              	.LCFI26:
 420              		.cfi_def_cfa_offset 8
 421              		.cfi_offset 14, -4
 422              		.cfi_offset 7, -8
 423 0002 82B0     		sub	sp, sp, #8
 424              	.LCFI27:
 425              		.cfi_def_cfa_offset 16
 426 0004 00AF     		add	r7, sp, #0
 427              	.LCFI28:
 428              		.cfi_def_cfa_register 7
 429 0006 7860     		str	r0, [r7, #4]
 430              		.loc 4 20 0
 431 0008 7868     		ldr	r0, [r7, #4]
 432 000a FFF7FEFF 		bl	_ZN12AManagedTaskD1Ev
 433 000e 7868     		ldr	r0, [r7, #4]
 434 0010 FFF7FEFF 		bl	_ZdlPv
 435 0014 7B68     		ldr	r3, [r7, #4]
 436 0016 1846     		mov	r0, r3
 437 0018 07F10807 		add	r7, r7, #8
 438 001c BD46     		mov	sp, r7
 439 001e 80BD     		pop	{r7, pc}
 440              		.cfi_endproc
 441              	.LFE146:
 443              		.section	.text._ZN12AManagedTask6CreateEPKctm,"ax",%progbits
 444              		.align	2
 445              		.global	_ZN12AManagedTask6CreateEPKctm
 446              		.thumb
 447              		.thumb_func
 449              	_ZN12AManagedTask6CreateEPKctm:
 450              	.LFB147:
  21:../FreeRTOS_EC/Source/AManagedTask.cpp **** 
  22:../FreeRTOS_EC/Source/AManagedTask.cpp **** portBASE_TYPE AManagedTask::Create(const portCHAR * const pcName, unsigned portSHORT usStackDepth, 
 451              		.loc 4 22 0
 452              		.cfi_startproc
 453              		@ args = 0, pretend = 0, frame = 16
 454              		@ frame_needed = 1, uses_anonymous_args = 0
 455 0000 90B5     		push	{r4, r7, lr}
 456              	.LCFI29:
 457              		.cfi_def_cfa_offset 12
 458              		.cfi_offset 14, -4
 459              		.cfi_offset 7, -8
 460              		.cfi_offset 4, -12
 461 0002 87B0     		sub	sp, sp, #28
 462              	.LCFI30:
 463              		.cfi_def_cfa_offset 40
 464 0004 02AF     		add	r7, sp, #8
 465              	.LCFI31:
 466              		.cfi_def_cfa 7, 32
 467 0006 F860     		str	r0, [r7, #12]
 468 0008 B960     		str	r1, [r7, #8]
 469 000a 3B60     		str	r3, [r7, #0]
 470 000c 1346     		mov	r3, r2	@ movhi
 471 000e FB80     		strh	r3, [r7, #6]	@ movhi
  23:../FreeRTOS_EC/Source/AManagedTask.cpp **** 	return OnCreate(pcName, usStackDepth, uxPriority) &&
 472              		.loc 4 23 0
 473 0010 FB68     		ldr	r3, [r7, #12]
 474 0012 1B68     		ldr	r3, [r3, #0]
 475 0014 03F11C03 		add	r3, r3, #28
 476 0018 1C68     		ldr	r4, [r3, #0]
 477 001a FB88     		ldrh	r3, [r7, #6]
 478 001c F868     		ldr	r0, [r7, #12]
 479 001e B968     		ldr	r1, [r7, #8]
 480 0020 1A46     		mov	r2, r3
 481 0022 3B68     		ldr	r3, [r7, #0]
 482 0024 A047     		blx	r4
 483 0026 0346     		mov	r3, r0
  24:../FreeRTOS_EC/Source/AManagedTask.cpp **** 			CTask::Create(AManagedTask::taskControlFunc, pcName, usStackDepth, this, uxPriority);
 484              		.loc 4 24 0
 485 0028 002B     		cmp	r3, #0
 486 002a 13D0     		beq	.L21
 487              		.loc 4 24 0 is_stmt 0 discriminator 1
 488 002c FA68     		ldr	r2, [r7, #12]
 489 002e FB88     		ldrh	r3, [r7, #6]
 490 0030 F968     		ldr	r1, [r7, #12]
 491 0032 0091     		str	r1, [sp, #0]
 492 0034 3968     		ldr	r1, [r7, #0]
 493 0036 0191     		str	r1, [sp, #4]
 494 0038 1046     		mov	r0, r2
 495 003a 40F20001 		movw	r1, #:lower16:_ZN12AManagedTask15taskControlFuncEPv
 496 003e C0F20001 		movt	r1, #:upper16:_ZN12AManagedTask15taskControlFuncEPv
 497 0042 BA68     		ldr	r2, [r7, #8]
 498 0044 FFF7FEFF 		bl	_ZN5CTask6CreateEPFvPvEPKctS0_m
 499 0048 0346     		mov	r3, r0
 500 004a 002B     		cmp	r3, #0
 501 004c 02D0     		beq	.L21
 502              		.loc 4 24 0 discriminator 3
 503 004e 4FF00103 		mov	r3, #1
 504 0052 01E0     		b	.L22
 505              	.L21:
 506              		.loc 4 24 0 discriminator 2
 507 0054 4FF00003 		mov	r3, #0
 508              	.L22:
  25:../FreeRTOS_EC/Source/AManagedTask.cpp **** }
 509              		.loc 4 25 0 is_stmt 1 discriminator 4
 510 0058 1846     		mov	r0, r3
 511 005a 07F11407 		add	r7, r7, #20
 512 005e BD46     		mov	sp, r7
 513 0060 90BD     		pop	{r4, r7, pc}
 514              		.cfi_endproc
 515              	.LFE147:
 517 0062 00BF     		.section	.text._ZN12AManagedTask15taskControlFuncEPv,"ax",%progbits
 518              		.align	2
 519              		.global	_ZN12AManagedTask15taskControlFuncEPv
 520              		.thumb
 521              		.thumb_func
 523              	_ZN12AManagedTask15taskControlFuncEPv:
 524              	.LFB148:
  26:../FreeRTOS_EC/Source/AManagedTask.cpp **** 
  27:../FreeRTOS_EC/Source/AManagedTask.cpp **** void AManagedTask::taskControlFunc(void *pParams) {
 525              		.loc 4 27 0
 526              		.cfi_startproc
 527              		@ args = 0, pretend = 0, frame = 8
 528              		@ frame_needed = 1, uses_anonymous_args = 0
 529 0000 80B5     		push	{r7, lr}
 530              	.LCFI32:
 531              		.cfi_def_cfa_offset 8
 532              		.cfi_offset 14, -4
 533              		.cfi_offset 7, -8
 534 0002 82B0     		sub	sp, sp, #8
 535              	.LCFI33:
 536              		.cfi_def_cfa_offset 16
 537 0004 00AF     		add	r7, sp, #0
 538              	.LCFI34:
 539              		.cfi_def_cfa_register 7
 540 0006 7860     		str	r0, [r7, #4]
  28:../FreeRTOS_EC/Source/AManagedTask.cpp **** 	static_cast<AManagedTask *>(pParams)->Run();
 541              		.loc 4 28 0
 542 0008 7B68     		ldr	r3, [r7, #4]
 543 000a 1B68     		ldr	r3, [r3, #0]
 544 000c 03F11803 		add	r3, r3, #24
 545 0010 1B68     		ldr	r3, [r3, #0]
 546 0012 7868     		ldr	r0, [r7, #4]
 547 0014 9847     		blx	r3
  29:../FreeRTOS_EC/Source/AManagedTask.cpp **** }
 548              		.loc 4 29 0
 549 0016 07F10807 		add	r7, r7, #8
 550 001a BD46     		mov	sp, r7
 551 001c 80BD     		pop	{r7, pc}
 552              		.cfi_endproc
 553              	.LFE148:
 555 001e 00BF     		.section	.text._ZN12AManagedTask16AddToManagedTaskEPS_,"ax",%progbits
 556              		.align	2
 557              		.global	_ZN12AManagedTask16AddToManagedTaskEPS_
 558              		.thumb
 559              		.thumb_func
 561              	_ZN12AManagedTask16AddToManagedTaskEPS_:
 562              	.LFB149:
  30:../FreeRTOS_EC/Source/AManagedTask.cpp **** 
  31:../FreeRTOS_EC/Source/AManagedTask.cpp **** void AManagedTask::AddToManagedTask(AManagedTask *pTaskToAdd) {
 563              		.loc 4 31 0
 564              		.cfi_startproc
 565              		@ args = 0, pretend = 0, frame = 8
 566              		@ frame_needed = 1, uses_anonymous_args = 0
 567 0000 80B5     		push	{r7, lr}
 568              	.LCFI35:
 569              		.cfi_def_cfa_offset 8
 570              		.cfi_offset 14, -4
 571              		.cfi_offset 7, -8
 572 0002 82B0     		sub	sp, sp, #8
 573              	.LCFI36:
 574              		.cfi_def_cfa_offset 16
 575 0004 00AF     		add	r7, sp, #0
 576              	.LCFI37:
 577              		.cfi_def_cfa_register 7
 578 0006 7860     		str	r0, [r7, #4]
 579 0008 3960     		str	r1, [r7, #0]
  32:../FreeRTOS_EC/Source/AManagedTask.cpp **** 	EnterCritical();
 580              		.loc 4 32 0
 581 000a FFF7FEFF 		bl	_ZN5CTask13EnterCriticalEv
  33:../FreeRTOS_EC/Source/AManagedTask.cpp **** 	// is the first element?
  34:../FreeRTOS_EC/Source/AManagedTask.cpp **** 	if (s_pManagedTaskListHead == NULL) {
 582              		.loc 4 34 0
 583 000e 40F20003 		movw	r3, #:lower16:_ZN12AManagedTask22s_pManagedTaskListHeadE
 584 0012 C0F20003 		movt	r3, #:upper16:_ZN12AManagedTask22s_pManagedTaskListHeadE
 585 0016 1B68     		ldr	r3, [r3, #0]
 586 0018 002B     		cmp	r3, #0
 587 001a 06D1     		bne	.L25
  35:../FreeRTOS_EC/Source/AManagedTask.cpp **** 		s_pManagedTaskListHead = this;
 588              		.loc 4 35 0
 589 001c 40F20003 		movw	r3, #:lower16:_ZN12AManagedTask22s_pManagedTaskListHeadE
 590 0020 C0F20003 		movt	r3, #:upper16:_ZN12AManagedTask22s_pManagedTaskListHeadE
 591 0024 7A68     		ldr	r2, [r7, #4]
 592 0026 1A60     		str	r2, [r3, #0]
 593 0028 0CE0     		b	.L26
 594              	.L25:
  36:../FreeRTOS_EC/Source/AManagedTask.cpp **** 	}
  37:../FreeRTOS_EC/Source/AManagedTask.cpp **** 	else {
  38:../FreeRTOS_EC/Source/AManagedTask.cpp **** 		// add the task to the head of the managed task list.
  39:../FreeRTOS_EC/Source/AManagedTask.cpp **** 		m_pNextManagedTask = s_pManagedTaskListHead;
 595              		.loc 4 39 0
 596 002a 40F20003 		movw	r3, #:lower16:_ZN12AManagedTask22s_pManagedTaskListHeadE
 597 002e C0F20003 		movt	r3, #:upper16:_ZN12AManagedTask22s_pManagedTaskListHeadE
 598 0032 1A68     		ldr	r2, [r3, #0]
 599 0034 7B68     		ldr	r3, [r7, #4]
 600 0036 9A60     		str	r2, [r3, #8]
  40:../FreeRTOS_EC/Source/AManagedTask.cpp **** 		s_pManagedTaskListHead = this;
 601              		.loc 4 40 0
 602 0038 40F20003 		movw	r3, #:lower16:_ZN12AManagedTask22s_pManagedTaskListHeadE
 603 003c C0F20003 		movt	r3, #:upper16:_ZN12AManagedTask22s_pManagedTaskListHeadE
 604 0040 7A68     		ldr	r2, [r7, #4]
 605 0042 1A60     		str	r2, [r3, #0]
 606              	.L26:
  41:../FreeRTOS_EC/Source/AManagedTask.cpp **** 	}
  42:../FreeRTOS_EC/Source/AManagedTask.cpp **** 	ExitCritical();
 607              		.loc 4 42 0
 608 0044 FFF7FEFF 		bl	_ZN5CTask12ExitCriticalEv
  43:../FreeRTOS_EC/Source/AManagedTask.cpp **** }
 609              		.loc 4 43 0
 610 0048 07F10807 		add	r7, r7, #8
 611 004c BD46     		mov	sp, r7
 612 004e 80BD     		pop	{r7, pc}
 613              		.cfi_endproc
 614              	.LFE149:
 616              		.section	.text._ZN12AManagedTask21RemoveFromManagedTaskEPS_,"ax",%progbits
 617              		.align	2
 618              		.global	_ZN12AManagedTask21RemoveFromManagedTaskEPS_
 619              		.thumb
 620              		.thumb_func
 622              	_ZN12AManagedTask21RemoveFromManagedTaskEPS_:
 623              	.LFB150:
  44:../FreeRTOS_EC/Source/AManagedTask.cpp **** 
  45:../FreeRTOS_EC/Source/AManagedTask.cpp **** void AManagedTask::RemoveFromManagedTask(AManagedTask *pTaskToRemove) {
 624              		.loc 4 45 0
 625              		.cfi_startproc
 626              		@ args = 0, pretend = 0, frame = 16
 627              		@ frame_needed = 1, uses_anonymous_args = 0
 628 0000 80B5     		push	{r7, lr}
 629              	.LCFI38:
 630              		.cfi_def_cfa_offset 8
 631              		.cfi_offset 14, -4
 632              		.cfi_offset 7, -8
 633 0002 84B0     		sub	sp, sp, #16
 634              	.LCFI39:
 635              		.cfi_def_cfa_offset 24
 636 0004 00AF     		add	r7, sp, #0
 637              	.LCFI40:
 638              		.cfi_def_cfa_register 7
 639 0006 7860     		str	r0, [r7, #4]
 640 0008 3960     		str	r1, [r7, #0]
 641              	.LBB5:
  46:../FreeRTOS_EC/Source/AManagedTask.cpp **** 	// search for the task to remove in the managed task list
  47:../FreeRTOS_EC/Source/AManagedTask.cpp **** 	// is it the first element?
  48:../FreeRTOS_EC/Source/AManagedTask.cpp **** 	EnterCritical();
 642              		.loc 4 48 0
 643 000a FFF7FEFF 		bl	_ZN5CTask13EnterCriticalEv
 644              	.LBB6:
  49:../FreeRTOS_EC/Source/AManagedTask.cpp **** 	if (pTaskToRemove == s_pManagedTaskListHead) {
 645              		.loc 4 49 0
 646 000e 40F20003 		movw	r3, #:lower16:_ZN12AManagedTask22s_pManagedTaskListHeadE
 647 0012 C0F20003 		movt	r3, #:upper16:_ZN12AManagedTask22s_pManagedTaskListHeadE
 648 0016 1B68     		ldr	r3, [r3, #0]
 649 0018 3A68     		ldr	r2, [r7, #0]
 650 001a 9A42     		cmp	r2, r3
 651 001c 09D1     		bne	.L28
  50:../FreeRTOS_EC/Source/AManagedTask.cpp **** 		s_pManagedTaskListHead = pTaskToRemove->m_pNextManagedTask;
 652              		.loc 4 50 0
 653 001e 3B68     		ldr	r3, [r7, #0]
 654 0020 9A68     		ldr	r2, [r3, #8]
 655 0022 40F20003 		movw	r3, #:lower16:_ZN12AManagedTask22s_pManagedTaskListHeadE
 656 0026 C0F20003 		movt	r3, #:upper16:_ZN12AManagedTask22s_pManagedTaskListHeadE
 657 002a 1A60     		str	r2, [r3, #0]
  51:../FreeRTOS_EC/Source/AManagedTask.cpp **** 		ExitCritical();
 658              		.loc 4 51 0
 659 002c FFF7FEFF 		bl	_ZN5CTask12ExitCriticalEv
 660 0030 25E0     		b	.L27
 661              	.L28:
 662              	.LBB7:
  52:../FreeRTOS_EC/Source/AManagedTask.cpp **** 	}
  53:../FreeRTOS_EC/Source/AManagedTask.cpp **** 	else {
  54:../FreeRTOS_EC/Source/AManagedTask.cpp **** 		ExitCritical();
 663              		.loc 4 54 0
 664 0032 FFF7FEFF 		bl	_ZN5CTask12ExitCriticalEv
  55:../FreeRTOS_EC/Source/AManagedTask.cpp **** 		CFreeRTOS::SuspendAllTasks();
 665              		.loc 4 55 0
 666 0036 FFF7FEFF 		bl	_ZN9CFreeRTOS15SuspendAllTasksEv
  56:../FreeRTOS_EC/Source/AManagedTask.cpp **** 		AManagedTask *pTask = s_pManagedTaskListHead;
 667              		.loc 4 56 0
 668 003a 40F20003 		movw	r3, #:lower16:_ZN12AManagedTask22s_pManagedTaskListHeadE
 669 003e C0F20003 		movt	r3, #:upper16:_ZN12AManagedTask22s_pManagedTaskListHeadE
 670 0042 1B68     		ldr	r3, [r3, #0]
 671 0044 FB60     		str	r3, [r7, #12]
  57:../FreeRTOS_EC/Source/AManagedTask.cpp **** 		while (pTask != NULL && pTask->m_pNextManagedTask != pTaskToRemove) {
 672              		.loc 4 57 0
 673 0046 02E0     		b	.L30
 674              	.L33:
  58:../FreeRTOS_EC/Source/AManagedTask.cpp **** 			pTask = pTask->m_pNextManagedTask;
 675              		.loc 4 58 0
 676 0048 FB68     		ldr	r3, [r7, #12]
 677 004a 9B68     		ldr	r3, [r3, #8]
 678 004c FB60     		str	r3, [r7, #12]
 679              	.L30:
  57:../FreeRTOS_EC/Source/AManagedTask.cpp **** 		while (pTask != NULL && pTask->m_pNextManagedTask != pTaskToRemove) {
 680              		.loc 4 57 0 discriminator 1
 681 004e FB68     		ldr	r3, [r7, #12]
 682 0050 002B     		cmp	r3, #0
 683 0052 07D0     		beq	.L31
  57:../FreeRTOS_EC/Source/AManagedTask.cpp **** 		while (pTask != NULL && pTask->m_pNextManagedTask != pTaskToRemove) {
 684              		.loc 4 57 0 is_stmt 0 discriminator 2
 685 0054 FB68     		ldr	r3, [r7, #12]
 686 0056 9A68     		ldr	r2, [r3, #8]
 687 0058 3B68     		ldr	r3, [r7, #0]
 688 005a 9A42     		cmp	r2, r3
 689 005c 02D0     		beq	.L31
  57:../FreeRTOS_EC/Source/AManagedTask.cpp **** 		while (pTask != NULL && pTask->m_pNextManagedTask != pTaskToRemove) {
 690              		.loc 4 57 0 discriminator 4
 691 005e 4FF00103 		mov	r3, #1
 692 0062 01E0     		b	.L32
 693              	.L31:
  57:../FreeRTOS_EC/Source/AManagedTask.cpp **** 		while (pTask != NULL && pTask->m_pNextManagedTask != pTaskToRemove) {
 694              		.loc 4 57 0 discriminator 3
 695 0064 4FF00003 		mov	r3, #0
 696              	.L32:
  57:../FreeRTOS_EC/Source/AManagedTask.cpp **** 		while (pTask != NULL && pTask->m_pNextManagedTask != pTaskToRemove) {
 697              		.loc 4 57 0 discriminator 5
 698 0068 002B     		cmp	r3, #0
 699 006a EDD1     		bne	.L33
  59:../FreeRTOS_EC/Source/AManagedTask.cpp **** 		}
  60:../FreeRTOS_EC/Source/AManagedTask.cpp **** 		if (pTask != NULL) { // Check to be sure that the task is in the list
 700              		.loc 4 60 0 is_stmt 1
 701 006c FB68     		ldr	r3, [r7, #12]
 702 006e 002B     		cmp	r3, #0
 703 0070 03D0     		beq	.L34
  61:../FreeRTOS_EC/Source/AManagedTask.cpp **** 			// remove the thask from the list
  62:../FreeRTOS_EC/Source/AManagedTask.cpp **** 			pTask->m_pNextManagedTask = pTaskToRemove->m_pNextManagedTask;
 704              		.loc 4 62 0
 705 0072 3B68     		ldr	r3, [r7, #0]
 706 0074 9A68     		ldr	r2, [r3, #8]
 707 0076 FB68     		ldr	r3, [r7, #12]
 708 0078 9A60     		str	r2, [r3, #8]
 709              	.L34:
  63:../FreeRTOS_EC/Source/AManagedTask.cpp **** 		}
  64:../FreeRTOS_EC/Source/AManagedTask.cpp **** 		CFreeRTOS::ResumeAllTasks();
 710              		.loc 4 64 0
 711 007a FFF7FEFF 		bl	_ZN9CFreeRTOS14ResumeAllTasksEv
 712              	.L27:
 713              	.LBE7:
 714              	.LBE6:
 715              	.LBE5:
  65:../FreeRTOS_EC/Source/AManagedTask.cpp **** 	}
  66:../FreeRTOS_EC/Source/AManagedTask.cpp **** }
 716              		.loc 4 66 0
 717 007e 07F11007 		add	r7, r7, #16
 718 0082 BD46     		mov	sp, r7
 719 0084 80BD     		pop	{r7, pc}
 720              		.cfi_endproc
 721              	.LFE150:
 723 0086 00BF     		.section	.text._ZN12AManagedTask27InitHardwareForManagedTasksEv,"ax",%progbits
 724              		.align	2
 725              		.global	_ZN12AManagedTask27InitHardwareForManagedTasksEv
 726              		.thumb
 727              		.thumb_func
 729              	_ZN12AManagedTask27InitHardwareForManagedTasksEv:
 730              	.LFB151:
  67:../FreeRTOS_EC/Source/AManagedTask.cpp **** 
  68:../FreeRTOS_EC/Source/AManagedTask.cpp **** bool AManagedTask::InitHardwareForManagedTasks() {
 731              		.loc 4 68 0
 732              		.cfi_startproc
 733              		@ args = 0, pretend = 0, frame = 8
 734              		@ frame_needed = 1, uses_anonymous_args = 0
 735 0000 90B5     		push	{r4, r7, lr}
 736              	.LCFI41:
 737              		.cfi_def_cfa_offset 12
 738              		.cfi_offset 14, -4
 739              		.cfi_offset 7, -8
 740              		.cfi_offset 4, -12
 741 0002 83B0     		sub	sp, sp, #12
 742              	.LCFI42:
 743              		.cfi_def_cfa_offset 24
 744 0004 00AF     		add	r7, sp, #0
 745              	.LCFI43:
 746              		.cfi_def_cfa_register 7
 747              	.LBB8:
  69:../FreeRTOS_EC/Source/AManagedTask.cpp **** 	bool bRes = true;
 748              		.loc 4 69 0
 749 0006 4FF00103 		mov	r3, #1
 750 000a FB71     		strb	r3, [r7, #7]
 751              	.LBB9:
  70:../FreeRTOS_EC/Source/AManagedTask.cpp **** 	for (AManagedTask *pTask=s_pManagedTaskListHead; pTask!=NULL; pTask=pTask->m_pNextManagedTask)
 752              		.loc 4 70 0
 753 000c 40F20003 		movw	r3, #:lower16:_ZN12AManagedTask22s_pManagedTaskListHeadE
 754 0010 C0F20003 		movt	r3, #:upper16:_ZN12AManagedTask22s_pManagedTaskListHeadE
 755 0014 1B68     		ldr	r3, [r3, #0]
 756 0016 3B60     		str	r3, [r7, #0]
 757 0018 11E0     		b	.L36
 758              	.L37:
  71:../FreeRTOS_EC/Source/AManagedTask.cpp **** 		bRes &= pTask->HardwareInit();
 759              		.loc 4 71 0 discriminator 2
 760 001a FC79     		ldrb	r4, [r7, #7]	@ zero_extendqisi2
 761 001c 3B68     		ldr	r3, [r7, #0]
 762 001e 1B68     		ldr	r3, [r3, #0]
 763 0020 03F11403 		add	r3, r3, #20
 764 0024 1B68     		ldr	r3, [r3, #0]
 765 0026 3868     		ldr	r0, [r7, #0]
 766 0028 9847     		blx	r3
 767 002a 0346     		mov	r3, r0
 768 002c 2340     		ands	r3, r3, r4
 769 002e 002B     		cmp	r3, #0
 770 0030 0CBF     		ite	eq
 771 0032 0023     		moveq	r3, #0
 772 0034 0123     		movne	r3, #1
 773 0036 FB71     		strb	r3, [r7, #7]
  70:../FreeRTOS_EC/Source/AManagedTask.cpp **** 	for (AManagedTask *pTask=s_pManagedTaskListHead; pTask!=NULL; pTask=pTask->m_pNextManagedTask)
 774              		.loc 4 70 0 discriminator 2
 775 0038 3B68     		ldr	r3, [r7, #0]
 776 003a 9B68     		ldr	r3, [r3, #8]
 777 003c 3B60     		str	r3, [r7, #0]
 778              	.L36:
  70:../FreeRTOS_EC/Source/AManagedTask.cpp **** 	for (AManagedTask *pTask=s_pManagedTaskListHead; pTask!=NULL; pTask=pTask->m_pNextManagedTask)
 779              		.loc 4 70 0 is_stmt 0 discriminator 1
 780 003e 3B68     		ldr	r3, [r7, #0]
 781 0040 002B     		cmp	r3, #0
 782 0042 0CBF     		ite	eq
 783 0044 0023     		moveq	r3, #0
 784 0046 0123     		movne	r3, #1
 785 0048 DBB2     		uxtb	r3, r3
 786 004a 002B     		cmp	r3, #0
 787 004c E5D1     		bne	.L37
 788              	.LBE9:
  72:../FreeRTOS_EC/Source/AManagedTask.cpp **** 
  73:../FreeRTOS_EC/Source/AManagedTask.cpp **** 	return bRes;
 789              		.loc 4 73 0 is_stmt 1
 790 004e FB79     		ldrb	r3, [r7, #7]	@ zero_extendqisi2
 791              	.LBE8:
  74:../FreeRTOS_EC/Source/AManagedTask.cpp **** }
 792              		.loc 4 74 0
 793 0050 1846     		mov	r0, r3
 794 0052 07F10C07 		add	r7, r7, #12
 795 0056 BD46     		mov	sp, r7
 796 0058 90BD     		pop	{r4, r7, pc}
 797              		.cfi_endproc
 798              	.LFE151:
 800              		.global	_ZTV12AManagedTask
 801 005a 00BF     		.section	.rodata._ZTV12AManagedTask,"a",%progbits
 802              		.align	3
 805              	_ZTV12AManagedTask:
 806 0000 00000000 		.word	0
 807 0004 00000000 		.word	0
 808 0008 00000000 		.word	_ZNK5CTask7IsValidEv
 809 000c 00000000 		.word	_ZN5CTask6AttachEPv
 810 0010 00000000 		.word	_ZN5CTask6DetachEv
 811 0014 00000000 		.word	_ZN12AManagedTaskD1Ev
 812 0018 00000000 		.word	_ZN12AManagedTaskD0Ev
 813 001c 00000000 		.word	_ZN12AManagedTask12HardwareInitEv
 814 0020 00000000 		.word	__cxa_pure_virtual
 815 0024 00000000 		.word	_ZN12AManagedTask8OnCreateEPKctm
 816              		.global	_ZN12AManagedTaskC1Ev
 817              		.thumb_set _ZN12AManagedTaskC1Ev,_ZN12AManagedTaskC2Ev
 818              		.global	_ZN12AManagedTaskD1Ev
 819              		.thumb_set _ZN12AManagedTaskD1Ev,_ZN12AManagedTaskD2Ev
 820              		.text
 821              	.Letext0:
 822              		.file 5 "d:/elektronik/ides/eclipse/yagarto/lib/gcc/../../arm-none-eabi/sys-include/stdint.h"
 823              		.file 6 "C:\\Dokumente und Einstellungen\\brand\\Desktop\\thundercyer-the-alarm-clock\\FreeRTOS\\S
 824              		.file 7 "../FreeRTOS_EC/Source/IFreeRTOSProtocol.h"
 825              		.file 8 "C:\\Dokumente und Einstellungen\\brand\\Desktop\\thundercyer-the-alarm-clock\\CMSIS\\Incl
DEFINED SYMBOLS
                            *ABS*:00000000 AManagedTask.cpp
  C:\Temp\ccXdSxZN.s:19     .text._ZN5CTask13EnterCriticalEv:00000000 $t
  C:\Temp\ccXdSxZN.s:24     .text._ZN5CTask13EnterCriticalEv:00000000 _ZN5CTask13EnterCriticalEv
  C:\Temp\ccXdSxZN.s:46     .text._ZN5CTask12ExitCriticalEv:00000000 $t
  C:\Temp\ccXdSxZN.s:51     .text._ZN5CTask12ExitCriticalEv:00000000 _ZN5CTask12ExitCriticalEv
  C:\Temp\ccXdSxZN.s:72     .text._ZNK5CTask7IsValidEv:00000000 $t
  C:\Temp\ccXdSxZN.s:77     .text._ZNK5CTask7IsValidEv:00000000 _ZNK5CTask7IsValidEv
  C:\Temp\ccXdSxZN.s:113    .text._ZN5CTask6DetachEv:00000000 $t
  C:\Temp\ccXdSxZN.s:118    .text._ZN5CTask6DetachEv:00000000 _ZN5CTask6DetachEv
  C:\Temp\ccXdSxZN.s:158    .text._ZN12AManagedTask12HardwareInitEv:00000000 $t
  C:\Temp\ccXdSxZN.s:163    .text._ZN12AManagedTask12HardwareInitEv:00000000 _ZN12AManagedTask12HardwareInitEv
  C:\Temp\ccXdSxZN.s:193    .text._ZN12AManagedTask8OnCreateEPKctm:00000000 $t
  C:\Temp\ccXdSxZN.s:198    .text._ZN12AManagedTask8OnCreateEPKctm:00000000 _ZN12AManagedTask8OnCreateEPKctm
  C:\Temp\ccXdSxZN.s:231    .text._ZN9CFreeRTOS15SuspendAllTasksEv:00000000 $t
  C:\Temp\ccXdSxZN.s:236    .text._ZN9CFreeRTOS15SuspendAllTasksEv:00000000 _ZN9CFreeRTOS15SuspendAllTasksEv
  C:\Temp\ccXdSxZN.s:258    .text._ZN9CFreeRTOS14ResumeAllTasksEv:00000000 $t
  C:\Temp\ccXdSxZN.s:263    .text._ZN9CFreeRTOS14ResumeAllTasksEv:00000000 _ZN9CFreeRTOS14ResumeAllTasksEv
  C:\Temp\ccXdSxZN.s:290    .bss._ZN12AManagedTask22s_pManagedTaskListHeadE:00000000 _ZN12AManagedTask22s_pManagedTaskListHeadE
  C:\Temp\ccXdSxZN.s:287    .bss._ZN12AManagedTask22s_pManagedTaskListHeadE:00000000 $d
  C:\Temp\ccXdSxZN.s:293    .text._ZN12AManagedTaskC2Ev:00000000 $t
  C:\Temp\ccXdSxZN.s:298    .text._ZN12AManagedTaskC2Ev:00000000 _ZN12AManagedTaskC2Ev
  C:\Temp\ccXdSxZN.s:561    .text._ZN12AManagedTask16AddToManagedTaskEPS_:00000000 _ZN12AManagedTask16AddToManagedTaskEPS_
  C:\Temp\ccXdSxZN.s:343    .text._ZN12AManagedTaskC2Ev:00000034 $d
  C:\Temp\ccXdSxZN.s:805    .rodata._ZTV12AManagedTask:00000000 _ZTV12AManagedTask
  C:\Temp\ccXdSxZN.s:348    .text._ZN12AManagedTaskD2Ev:00000000 $t
  C:\Temp\ccXdSxZN.s:353    .text._ZN12AManagedTaskD2Ev:00000000 _ZN12AManagedTaskD2Ev
  C:\Temp\ccXdSxZN.s:622    .text._ZN12AManagedTask21RemoveFromManagedTaskEPS_:00000000 _ZN12AManagedTask21RemoveFromManagedTaskEPS_
  C:\Temp\ccXdSxZN.s:402    .text._ZN12AManagedTaskD2Ev:0000003c $d
  C:\Temp\ccXdSxZN.s:407    .text._ZN12AManagedTaskD0Ev:00000000 $t
  C:\Temp\ccXdSxZN.s:412    .text._ZN12AManagedTaskD0Ev:00000000 _ZN12AManagedTaskD0Ev
  C:\Temp\ccXdSxZN.s:353    .text._ZN12AManagedTaskD2Ev:00000000 _ZN12AManagedTaskD1Ev
  C:\Temp\ccXdSxZN.s:444    .text._ZN12AManagedTask6CreateEPKctm:00000000 $t
  C:\Temp\ccXdSxZN.s:449    .text._ZN12AManagedTask6CreateEPKctm:00000000 _ZN12AManagedTask6CreateEPKctm
  C:\Temp\ccXdSxZN.s:523    .text._ZN12AManagedTask15taskControlFuncEPv:00000000 _ZN12AManagedTask15taskControlFuncEPv
  C:\Temp\ccXdSxZN.s:518    .text._ZN12AManagedTask15taskControlFuncEPv:00000000 $t
  C:\Temp\ccXdSxZN.s:556    .text._ZN12AManagedTask16AddToManagedTaskEPS_:00000000 $t
  C:\Temp\ccXdSxZN.s:617    .text._ZN12AManagedTask21RemoveFromManagedTaskEPS_:00000000 $t
  C:\Temp\ccXdSxZN.s:724    .text._ZN12AManagedTask27InitHardwareForManagedTasksEv:00000000 $t
  C:\Temp\ccXdSxZN.s:729    .text._ZN12AManagedTask27InitHardwareForManagedTasksEv:00000000 _ZN12AManagedTask27InitHardwareForManagedTasksEv
  C:\Temp\ccXdSxZN.s:802    .rodata._ZTV12AManagedTask:00000000 $d
  C:\Temp\ccXdSxZN.s:298    .text._ZN12AManagedTaskC2Ev:00000000 _ZN12AManagedTaskC1Ev
                     .debug_frame:00000010 $d

UNDEFINED SYMBOLS
vPortEnterCritical
vPortExitCritical
vTaskSuspendAll
xTaskResumeAll
_ZN5CTaskC2Ev
_ZN5CTaskD2Ev
_ZdlPv
_ZN5CTask6CreateEPFvPvEPKctS0_m
_ZN5CTask6AttachEPv
__cxa_pure_virtual
