   1              		.syntax unified
   2              		.cpu cortex-m4
   3              		.eabi_attribute 27, 3
   4              		.fpu fpv4-sp-d16
   5              		.eabi_attribute 20, 1
   6              		.eabi_attribute 21, 1
   7              		.eabi_attribute 23, 3
   8              		.eabi_attribute 24, 1
   9              		.eabi_attribute 25, 1
  10              		.eabi_attribute 26, 1
  11              		.eabi_attribute 30, 6
  12              		.eabi_attribute 18, 4
  13              		.thumb
  14              		.file	"ASyncObject.cpp"
  15              		.text
  16              	.Ltext0:
  17              		.cfi_sections	.debug_frame
  18              		.section	.text._ZNK11ASyncObject7IsValidEv,"axG",%progbits,_ZNK11ASyncObject7IsValidEv,comdat
  19              		.align	2
  20              		.weak	_ZNK11ASyncObject7IsValidEv
  21              		.thumb
  22              		.thumb_func
  24              	_ZNK11ASyncObject7IsValidEv:
  25              	.LFB111:
  26              		.file 1 "../FreeRTOS_EC/Source/ASyncObject.h"
   1:../FreeRTOS_EC/Source/ASyncObject.h **** /**
   2:../FreeRTOS_EC/Source/ASyncObject.h ****  * @file   ASyncObject.h
   3:../FreeRTOS_EC/Source/ASyncObject.h ****  * @class  ASyncObject
   4:../FreeRTOS_EC/Source/ASyncObject.h ****  * @ingroup FreeRTOS_Wrapper
   5:../FreeRTOS_EC/Source/ASyncObject.h ****  *
   6:../FreeRTOS_EC/Source/ASyncObject.h ****  * Abstract base class for all task synchronization object.
   7:../FreeRTOS_EC/Source/ASyncObject.h ****  *
   8:../FreeRTOS_EC/Source/ASyncObject.h ****  * @date   Jul 13, 2010
   9:../FreeRTOS_EC/Source/ASyncObject.h ****  * @author Stefano Oliveri (STF12.net)
  10:../FreeRTOS_EC/Source/ASyncObject.h ****  *         E-Mail: software@stf12.net
  11:../FreeRTOS_EC/Source/ASyncObject.h ****  */
  12:../FreeRTOS_EC/Source/ASyncObject.h **** 
  13:../FreeRTOS_EC/Source/ASyncObject.h **** #ifndef ASEMAPHORE_H_
  14:../FreeRTOS_EC/Source/ASyncObject.h **** #define ASEMAPHORE_H_
  15:../FreeRTOS_EC/Source/ASyncObject.h **** 
  16:../FreeRTOS_EC/Source/ASyncObject.h **** #include "FreeRTOS.h"
  17:../FreeRTOS_EC/Source/ASyncObject.h **** #include "semphr.h"
  18:../FreeRTOS_EC/Source/ASyncObject.h **** #include "IFreeRTOSProtocol.h"
  19:../FreeRTOS_EC/Source/ASyncObject.h **** 
  20:../FreeRTOS_EC/Source/ASyncObject.h **** class ASyncObject: public IFreeRTOSObj {
  21:../FreeRTOS_EC/Source/ASyncObject.h **** protected:
  22:../FreeRTOS_EC/Source/ASyncObject.h ****     xSemaphoreHandle m_handleSemaphore;
  23:../FreeRTOS_EC/Source/ASyncObject.h **** 
  24:../FreeRTOS_EC/Source/ASyncObject.h **** public:
  25:../FreeRTOS_EC/Source/ASyncObject.h **** 	ASyncObject();
  26:../FreeRTOS_EC/Source/ASyncObject.h **** 	virtual ~ASyncObject();
  27:../FreeRTOS_EC/Source/ASyncObject.h **** 
  28:../FreeRTOS_EC/Source/ASyncObject.h **** 	inline operator xSemaphoreHandle() const { return m_handleSemaphore; }
  29:../FreeRTOS_EC/Source/ASyncObject.h **** 
  30:../FreeRTOS_EC/Source/ASyncObject.h **** 	void Delete();
  31:../FreeRTOS_EC/Source/ASyncObject.h **** 	inline bool IsValid()const;
  32:../FreeRTOS_EC/Source/ASyncObject.h **** 	void Attach(xGenericHandle handle);
  33:../FreeRTOS_EC/Source/ASyncObject.h **** 	inline xGenericHandle Detach();
  34:../FreeRTOS_EC/Source/ASyncObject.h **** 
  35:../FreeRTOS_EC/Source/ASyncObject.h **** 	virtual portBASE_TYPE Take(portTickType xBlockTime) =0;
  36:../FreeRTOS_EC/Source/ASyncObject.h **** 	virtual portBASE_TYPE Give() =0;
  37:../FreeRTOS_EC/Source/ASyncObject.h **** };
  38:../FreeRTOS_EC/Source/ASyncObject.h **** 
  39:../FreeRTOS_EC/Source/ASyncObject.h **** // inline method
  40:../FreeRTOS_EC/Source/ASyncObject.h **** 
  41:../FreeRTOS_EC/Source/ASyncObject.h **** inline
  42:../FreeRTOS_EC/Source/ASyncObject.h **** bool ASyncObject::IsValid() const {
  27              		.loc 1 42 0
  28              		.cfi_startproc
  29              		@ args = 0, pretend = 0, frame = 8
  30              		@ frame_needed = 1, uses_anonymous_args = 0
  31              		@ link register save eliminated.
  32 0000 80B4     		push	{r7}
  33              	.LCFI0:
  34              		.cfi_def_cfa_offset 4
  35              		.cfi_offset 7, -4
  36 0002 83B0     		sub	sp, sp, #12
  37              	.LCFI1:
  38              		.cfi_def_cfa_offset 16
  39 0004 00AF     		add	r7, sp, #0
  40              	.LCFI2:
  41              		.cfi_def_cfa_register 7
  42 0006 7860     		str	r0, [r7, #4]
  43:../FreeRTOS_EC/Source/ASyncObject.h **** 	return m_handleSemaphore != NULL;
  43              		.loc 1 43 0
  44 0008 7B68     		ldr	r3, [r7, #4]
  45 000a 5B68     		ldr	r3, [r3, #4]
  46 000c 002B     		cmp	r3, #0
  47 000e 0CBF     		ite	eq
  48 0010 0023     		moveq	r3, #0
  49 0012 0123     		movne	r3, #1
  50 0014 DBB2     		uxtb	r3, r3
  44:../FreeRTOS_EC/Source/ASyncObject.h **** }
  51              		.loc 1 44 0
  52 0016 1846     		mov	r0, r3
  53 0018 07F10C07 		add	r7, r7, #12
  54 001c BD46     		mov	sp, r7
  55 001e 80BC     		pop	{r7}
  56 0020 7047     		bx	lr
  57              		.cfi_endproc
  58              	.LFE111:
  60 0022 00BF     		.section	.text._ZN11ASyncObject6DetachEv,"axG",%progbits,_ZN11ASyncObject6DetachEv,comdat
  61              		.align	2
  62              		.weak	_ZN11ASyncObject6DetachEv
  63              		.thumb
  64              		.thumb_func
  66              	_ZN11ASyncObject6DetachEv:
  67              	.LFB112:
  45:../FreeRTOS_EC/Source/ASyncObject.h **** 
  46:../FreeRTOS_EC/Source/ASyncObject.h **** inline
  47:../FreeRTOS_EC/Source/ASyncObject.h **** xGenericHandle ASyncObject::Detach() {
  68              		.loc 1 47 0
  69              		.cfi_startproc
  70              		@ args = 0, pretend = 0, frame = 16
  71              		@ frame_needed = 1, uses_anonymous_args = 0
  72              		@ link register save eliminated.
  73 0000 80B4     		push	{r7}
  74              	.LCFI3:
  75              		.cfi_def_cfa_offset 4
  76              		.cfi_offset 7, -4
  77 0002 85B0     		sub	sp, sp, #20
  78              	.LCFI4:
  79              		.cfi_def_cfa_offset 24
  80 0004 00AF     		add	r7, sp, #0
  81              	.LCFI5:
  82              		.cfi_def_cfa_register 7
  83 0006 7860     		str	r0, [r7, #4]
  84              	.LBB2:
  48:../FreeRTOS_EC/Source/ASyncObject.h **** 	xSemaphoreHandle res = m_handleSemaphore;
  85              		.loc 1 48 0
  86 0008 7B68     		ldr	r3, [r7, #4]
  87 000a 5B68     		ldr	r3, [r3, #4]
  88 000c FB60     		str	r3, [r7, #12]
  49:../FreeRTOS_EC/Source/ASyncObject.h **** 	m_handleSemaphore = NULL;
  89              		.loc 1 49 0
  90 000e 7B68     		ldr	r3, [r7, #4]
  91 0010 4FF00002 		mov	r2, #0
  92 0014 5A60     		str	r2, [r3, #4]
  50:../FreeRTOS_EC/Source/ASyncObject.h **** 	return res;
  93              		.loc 1 50 0
  94 0016 FB68     		ldr	r3, [r7, #12]
  95              	.LBE2:
  51:../FreeRTOS_EC/Source/ASyncObject.h **** }
  96              		.loc 1 51 0
  97 0018 1846     		mov	r0, r3
  98 001a 07F11407 		add	r7, r7, #20
  99 001e BD46     		mov	sp, r7
 100 0020 80BC     		pop	{r7}
 101 0022 7047     		bx	lr
 102              		.cfi_endproc
 103              	.LFE112:
 105              		.section	.text._ZN12IFreeRTOSObjC2Ev,"axG",%progbits,_ZN12IFreeRTOSObjC5Ev,comdat
 106              		.align	2
 107              		.weak	_ZN12IFreeRTOSObjC2Ev
 108              		.thumb
 109              		.thumb_func
 111              	_ZN12IFreeRTOSObjC2Ev:
 112              	.LFB115:
 113              		.file 2 "../FreeRTOS_EC/Source/IFreeRTOSProtocol.h"
   1:../FreeRTOS_EC/Source/IFreeRTOSProtocol.h **** /**
   2:../FreeRTOS_EC/Source/IFreeRTOSProtocol.h ****  * @file IFreeRTOSProtocol.h
   3:../FreeRTOS_EC/Source/IFreeRTOSProtocol.h ****  * @class IFreeRTOSObj
   4:../FreeRTOS_EC/Source/IFreeRTOSProtocol.h ****  * @ingroup FreeRTOS_Wrapper
   5:../FreeRTOS_EC/Source/IFreeRTOSProtocol.h ****  *
   6:../FreeRTOS_EC/Source/IFreeRTOSProtocol.h ****  * This interface provide the basic behavior for all class in the FreeRTOS Wrapper layer. All objec
   7:../FreeRTOS_EC/Source/IFreeRTOSProtocol.h ****  * must be able to manage the owned native FreeRTOS handle. When the handle is created  it is attac
   8:../FreeRTOS_EC/Source/IFreeRTOSProtocol.h ****  * From this moment the object owns the handle. When the object is disposed the handle is deleted a
   9:../FreeRTOS_EC/Source/IFreeRTOSProtocol.h ****  * are freed. It is possible to keep the underling native FreeRTOS handle alive by detaching it bef
  10:../FreeRTOS_EC/Source/IFreeRTOSProtocol.h ****  * object is disposed.
  11:../FreeRTOS_EC/Source/IFreeRTOSProtocol.h ****  *
  12:../FreeRTOS_EC/Source/IFreeRTOSProtocol.h ****  *
  13:../FreeRTOS_EC/Source/IFreeRTOSProtocol.h ****  * @date Aug 5, 2010
  14:../FreeRTOS_EC/Source/IFreeRTOSProtocol.h ****  * @author Stefano Oliveri (STF12.net)
  15:../FreeRTOS_EC/Source/IFreeRTOSProtocol.h ****  *         E-Mail: software@stf12.net
  16:../FreeRTOS_EC/Source/IFreeRTOSProtocol.h ****  */
  17:../FreeRTOS_EC/Source/IFreeRTOSProtocol.h **** 
  18:../FreeRTOS_EC/Source/IFreeRTOSProtocol.h **** 
  19:../FreeRTOS_EC/Source/IFreeRTOSProtocol.h **** #ifndef IFREERTOSPROTOCOL_H_
  20:../FreeRTOS_EC/Source/IFreeRTOSProtocol.h **** #define IFREERTOSPROTOCOL_H_
  21:../FreeRTOS_EC/Source/IFreeRTOSProtocol.h **** 
  22:../FreeRTOS_EC/Source/IFreeRTOSProtocol.h **** typedef void *xGenericHandle;
  23:../FreeRTOS_EC/Source/IFreeRTOSProtocol.h **** 
  24:../FreeRTOS_EC/Source/IFreeRTOSProtocol.h **** class IFreeRTOSObj {
 114              		.loc 2 24 0
 115              		.cfi_startproc
 116              		@ args = 0, pretend = 0, frame = 8
 117              		@ frame_needed = 1, uses_anonymous_args = 0
 118              		@ link register save eliminated.
 119 0000 80B4     		push	{r7}
 120              	.LCFI6:
 121              		.cfi_def_cfa_offset 4
 122              		.cfi_offset 7, -4
 123 0002 83B0     		sub	sp, sp, #12
 124              	.LCFI7:
 125              		.cfi_def_cfa_offset 16
 126 0004 00AF     		add	r7, sp, #0
 127              	.LCFI8:
 128              		.cfi_def_cfa_register 7
 129 0006 7860     		str	r0, [r7, #4]
 130              	.LBB3:
 131              		.loc 2 24 0
 132 0008 7B68     		ldr	r3, [r7, #4]
 133 000a 044A     		ldr	r2, .L5
 134 000c 1A60     		str	r2, [r3, #0]
 135              	.LBE3:
 136 000e 7B68     		ldr	r3, [r7, #4]
 137 0010 1846     		mov	r0, r3
 138 0012 07F10C07 		add	r7, r7, #12
 139 0016 BD46     		mov	sp, r7
 140 0018 80BC     		pop	{r7}
 141 001a 7047     		bx	lr
 142              	.L6:
 143              		.align	2
 144              	.L5:
 145 001c 08000000 		.word	_ZTV12IFreeRTOSObj+8
 146              		.cfi_endproc
 147              	.LFE115:
 149              		.text
 150              		.align	2
 151              		.global	_ZN11ASyncObjectC2Ev
 152              		.thumb
 153              		.thumb_func
 155              	_ZN11ASyncObjectC2Ev:
 156              	.LFB117:
 157              		.file 3 "../FreeRTOS_EC/Source/ASyncObject.cpp"
   1:../FreeRTOS_EC/Source/ASyncObject.cpp **** /**
   2:../FreeRTOS_EC/Source/ASyncObject.cpp ****  * ASyncObject.cpp
   3:../FreeRTOS_EC/Source/ASyncObject.cpp ****  *
   4:../FreeRTOS_EC/Source/ASyncObject.cpp ****  *  Created on: Jul 13, 2010
   5:../FreeRTOS_EC/Source/ASyncObject.cpp ****  *      Author: Stefano Oliveri (STF12.net)
   6:../FreeRTOS_EC/Source/ASyncObject.cpp ****  *      E-Mail: software@stf12.net
   7:../FreeRTOS_EC/Source/ASyncObject.cpp ****  */
   8:../FreeRTOS_EC/Source/ASyncObject.cpp **** 
   9:../FreeRTOS_EC/Source/ASyncObject.cpp **** #include "ASyncObject.h"
  10:../FreeRTOS_EC/Source/ASyncObject.cpp **** #include <assert.h>
  11:../FreeRTOS_EC/Source/ASyncObject.cpp **** 
  12:../FreeRTOS_EC/Source/ASyncObject.cpp **** ASyncObject::ASyncObject() {
 158              		.loc 3 12 0
 159              		.cfi_startproc
 160              		@ args = 0, pretend = 0, frame = 8
 161              		@ frame_needed = 1, uses_anonymous_args = 0
 162 0000 80B5     		push	{r7, lr}
 163              	.LCFI9:
 164              		.cfi_def_cfa_offset 8
 165              		.cfi_offset 14, -4
 166              		.cfi_offset 7, -8
 167 0002 82B0     		sub	sp, sp, #8
 168              	.LCFI10:
 169              		.cfi_def_cfa_offset 16
 170 0004 00AF     		add	r7, sp, #0
 171              	.LCFI11:
 172              		.cfi_def_cfa_register 7
 173 0006 7860     		str	r0, [r7, #4]
 174              	.LBB4:
 175              		.loc 3 12 0
 176 0008 7B68     		ldr	r3, [r7, #4]
 177 000a 1846     		mov	r0, r3
 178 000c FFF7FEFF 		bl	_ZN12IFreeRTOSObjC2Ev
 179 0010 7B68     		ldr	r3, [r7, #4]
 180 0012 064A     		ldr	r2, .L9
 181 0014 1A60     		str	r2, [r3, #0]
  13:../FreeRTOS_EC/Source/ASyncObject.cpp **** 	m_handleSemaphore = NULL;
 182              		.loc 3 13 0
 183 0016 7B68     		ldr	r3, [r7, #4]
 184 0018 4FF00002 		mov	r2, #0
 185 001c 5A60     		str	r2, [r3, #4]
 186              	.LBE4:
  14:../FreeRTOS_EC/Source/ASyncObject.cpp **** }
 187              		.loc 3 14 0
 188 001e 7B68     		ldr	r3, [r7, #4]
 189 0020 1846     		mov	r0, r3
 190 0022 07F10807 		add	r7, r7, #8
 191 0026 BD46     		mov	sp, r7
 192 0028 80BD     		pop	{r7, pc}
 193              	.L10:
 194 002a 00BF     		.align	2
 195              	.L9:
 196 002c 08000000 		.word	_ZTV11ASyncObject+8
 197              		.cfi_endproc
 198              	.LFE117:
 200              		.align	2
 201              		.global	_ZN11ASyncObjectD2Ev
 202              		.thumb
 203              		.thumb_func
 205              	_ZN11ASyncObjectD2Ev:
 206              	.LFB120:
  15:../FreeRTOS_EC/Source/ASyncObject.cpp **** 
  16:../FreeRTOS_EC/Source/ASyncObject.cpp **** ASyncObject::~ASyncObject() {
 207              		.loc 3 16 0
 208              		.cfi_startproc
 209              		@ args = 0, pretend = 0, frame = 8
 210              		@ frame_needed = 1, uses_anonymous_args = 0
 211 0030 80B5     		push	{r7, lr}
 212              	.LCFI12:
 213              		.cfi_def_cfa_offset 8
 214              		.cfi_offset 14, -4
 215              		.cfi_offset 7, -8
 216 0032 82B0     		sub	sp, sp, #8
 217              	.LCFI13:
 218              		.cfi_def_cfa_offset 16
 219 0034 00AF     		add	r7, sp, #0
 220              	.LCFI14:
 221              		.cfi_def_cfa_register 7
 222 0036 7860     		str	r0, [r7, #4]
 223              	.LBB5:
 224              		.loc 3 16 0
 225 0038 7B68     		ldr	r3, [r7, #4]
 226 003a 0D4A     		ldr	r2, .L14
 227 003c 1A60     		str	r2, [r3, #0]
  17:../FreeRTOS_EC/Source/ASyncObject.cpp **** 	if (IsValid())
 228              		.loc 3 17 0
 229 003e 7868     		ldr	r0, [r7, #4]
 230 0040 FFF7FEFF 		bl	_ZNK11ASyncObject7IsValidEv
 231 0044 0346     		mov	r3, r0
 232 0046 002B     		cmp	r3, #0
 233 0048 02D0     		beq	.L12
  18:../FreeRTOS_EC/Source/ASyncObject.cpp **** 		Delete();
 234              		.loc 3 18 0
 235 004a 7868     		ldr	r0, [r7, #4]
 236 004c FFF7FEFF 		bl	_ZN11ASyncObject6DeleteEv
 237              	.L12:
 238              	.LBE5:
  19:../FreeRTOS_EC/Source/ASyncObject.cpp **** }
 239              		.loc 3 19 0
 240 0050 4FF00003 		mov	r3, #0
 241 0054 03F00103 		and	r3, r3, #1
 242 0058 DBB2     		uxtb	r3, r3
 243 005a 002B     		cmp	r3, #0
 244 005c 02D0     		beq	.L13
 245              		.loc 3 19 0 is_stmt 0 discriminator 1
 246 005e 7868     		ldr	r0, [r7, #4]
 247 0060 FFF7FEFF 		bl	_ZdlPv
 248              	.L13:
 249              		.loc 3 19 0 discriminator 2
 250 0064 7B68     		ldr	r3, [r7, #4]
 251 0066 1846     		mov	r0, r3
 252 0068 07F10807 		add	r7, r7, #8
 253 006c BD46     		mov	sp, r7
 254 006e 80BD     		pop	{r7, pc}
 255              	.L15:
 256              		.align	2
 257              	.L14:
 258 0070 08000000 		.word	_ZTV11ASyncObject+8
 259              		.cfi_endproc
 260              	.LFE120:
 262              		.align	2
 263              		.global	_ZN11ASyncObjectD0Ev
 264              		.thumb
 265              		.thumb_func
 267              	_ZN11ASyncObjectD0Ev:
 268              	.LFB122:
  16:../FreeRTOS_EC/Source/ASyncObject.cpp **** ASyncObject::~ASyncObject() {
 269              		.loc 3 16 0 is_stmt 1
 270              		.cfi_startproc
 271              		@ args = 0, pretend = 0, frame = 8
 272              		@ frame_needed = 1, uses_anonymous_args = 0
 273 0074 80B5     		push	{r7, lr}
 274              	.LCFI15:
 275              		.cfi_def_cfa_offset 8
 276              		.cfi_offset 14, -4
 277              		.cfi_offset 7, -8
 278 0076 82B0     		sub	sp, sp, #8
 279              	.LCFI16:
 280              		.cfi_def_cfa_offset 16
 281 0078 00AF     		add	r7, sp, #0
 282              	.LCFI17:
 283              		.cfi_def_cfa_register 7
 284 007a 7860     		str	r0, [r7, #4]
 285              		.loc 3 19 0
 286 007c 7868     		ldr	r0, [r7, #4]
 287 007e FFF7FEFF 		bl	_ZN11ASyncObjectD1Ev
 288 0082 7868     		ldr	r0, [r7, #4]
 289 0084 FFF7FEFF 		bl	_ZdlPv
 290 0088 7B68     		ldr	r3, [r7, #4]
 291 008a 1846     		mov	r0, r3
 292 008c 07F10807 		add	r7, r7, #8
 293 0090 BD46     		mov	sp, r7
 294 0092 80BD     		pop	{r7, pc}
 295              		.cfi_endproc
 296              	.LFE122:
 298              		.align	2
 299              		.global	_ZN11ASyncObject6DeleteEv
 300              		.thumb
 301              		.thumb_func
 303              	_ZN11ASyncObject6DeleteEv:
 304              	.LFB123:
  20:../FreeRTOS_EC/Source/ASyncObject.cpp **** 
  21:../FreeRTOS_EC/Source/ASyncObject.cpp **** void ASyncObject::Delete() {
 305              		.loc 3 21 0
 306              		.cfi_startproc
 307              		@ args = 0, pretend = 0, frame = 8
 308              		@ frame_needed = 1, uses_anonymous_args = 0
 309 0094 80B5     		push	{r7, lr}
 310              	.LCFI18:
 311              		.cfi_def_cfa_offset 8
 312              		.cfi_offset 14, -4
 313              		.cfi_offset 7, -8
 314 0096 82B0     		sub	sp, sp, #8
 315              	.LCFI19:
 316              		.cfi_def_cfa_offset 16
 317 0098 00AF     		add	r7, sp, #0
 318              	.LCFI20:
 319              		.cfi_def_cfa_register 7
 320 009a 7860     		str	r0, [r7, #4]
  22:../FreeRTOS_EC/Source/ASyncObject.cpp **** 	if (m_handleSemaphore != NULL) {
 321              		.loc 3 22 0
 322 009c 7B68     		ldr	r3, [r7, #4]
 323 009e 5B68     		ldr	r3, [r3, #4]
 324 00a0 002B     		cmp	r3, #0
 325 00a2 08D0     		beq	.L18
  23:../FreeRTOS_EC/Source/ASyncObject.cpp **** 		vQueueDelete(m_handleSemaphore);
 326              		.loc 3 23 0
 327 00a4 7B68     		ldr	r3, [r7, #4]
 328 00a6 5B68     		ldr	r3, [r3, #4]
 329 00a8 1846     		mov	r0, r3
 330 00aa FFF7FEFF 		bl	vQueueDelete
  24:../FreeRTOS_EC/Source/ASyncObject.cpp **** 		m_handleSemaphore = NULL;
 331              		.loc 3 24 0
 332 00ae 7B68     		ldr	r3, [r7, #4]
 333 00b0 4FF00002 		mov	r2, #0
 334 00b4 5A60     		str	r2, [r3, #4]
 335              	.L18:
  25:../FreeRTOS_EC/Source/ASyncObject.cpp **** 	}
  26:../FreeRTOS_EC/Source/ASyncObject.cpp **** }
 336              		.loc 3 26 0
 337 00b6 07F10807 		add	r7, r7, #8
 338 00ba BD46     		mov	sp, r7
 339 00bc 80BD     		pop	{r7, pc}
 340              		.cfi_endproc
 341              	.LFE123:
 343              		.section	.rodata
 344              		.align	2
 345              	.LC0:
 346 0000 2E2E2F46 		.ascii	"../FreeRTOS_EC/Source/ASyncObject.cpp\000"
 346      72656552 
 346      544F535F 
 346      45432F53 
 346      6F757263 
 347 0026 0000     		.align	2
 348              	.LC1:
 349 0028 68616E64 		.ascii	"handle != NULL\000"
 349      6C652021 
 349      3D204E55 
 349      4C4C00
 350 0037 00       		.text
 351 00be 00BF     		.align	2
 352              		.global	_ZN11ASyncObject6AttachEPv
 353              		.thumb
 354              		.thumb_func
 356              	_ZN11ASyncObject6AttachEPv:
 357              	.LFB124:
  27:../FreeRTOS_EC/Source/ASyncObject.cpp **** 
  28:../FreeRTOS_EC/Source/ASyncObject.cpp **** void ASyncObject::Attach(xGenericHandle handle) {
 358              		.loc 3 28 0
 359              		.cfi_startproc
 360              		@ args = 0, pretend = 0, frame = 8
 361              		@ frame_needed = 1, uses_anonymous_args = 0
 362 00c0 80B5     		push	{r7, lr}
 363              	.LCFI21:
 364              		.cfi_def_cfa_offset 8
 365              		.cfi_offset 14, -4
 366              		.cfi_offset 7, -8
 367 00c2 82B0     		sub	sp, sp, #8
 368              	.LCFI22:
 369              		.cfi_def_cfa_offset 16
 370 00c4 00AF     		add	r7, sp, #0
 371              	.LCFI23:
 372              		.cfi_def_cfa_register 7
 373 00c6 7860     		str	r0, [r7, #4]
 374 00c8 3960     		str	r1, [r7, #0]
 375              	.LBB6:
  29:../FreeRTOS_EC/Source/ASyncObject.cpp **** 	assert(handle != NULL);
 376              		.loc 3 29 0
 377 00ca 3B68     		ldr	r3, [r7, #0]
 378 00cc 002B     		cmp	r3, #0
 379 00ce 0FD1     		bne	.L21
 380              		.loc 3 29 0 is_stmt 0 discriminator 1
 381 00d0 40F20000 		movw	r0, #:lower16:.LC0
 382 00d4 C0F20000 		movt	r0, #:upper16:.LC0
 383 00d8 4FF01D01 		mov	r1, #29
 384 00dc 40F20002 		movw	r2, #:lower16:_ZZN11ASyncObject6AttachEPvE19__PRETTY_FUNCTION__
 385 00e0 C0F20002 		movt	r2, #:upper16:_ZZN11ASyncObject6AttachEPvE19__PRETTY_FUNCTION__
 386 00e4 40F20003 		movw	r3, #:lower16:.LC1
 387 00e8 C0F20003 		movt	r3, #:upper16:.LC1
 388 00ec FFF7FEFF 		bl	__assert_func
 389              	.L21:
  30:../FreeRTOS_EC/Source/ASyncObject.cpp **** 
  31:../FreeRTOS_EC/Source/ASyncObject.cpp **** 	if (IsValid()) {
 390              		.loc 3 31 0 is_stmt 1
 391 00f0 7B68     		ldr	r3, [r7, #4]
 392 00f2 1B68     		ldr	r3, [r3, #0]
 393 00f4 1B68     		ldr	r3, [r3, #0]
 394 00f6 7868     		ldr	r0, [r7, #4]
 395 00f8 9847     		blx	r3
 396 00fa 0346     		mov	r3, r0
 397 00fc 002B     		cmp	r3, #0
 398 00fe 02D0     		beq	.L22
  32:../FreeRTOS_EC/Source/ASyncObject.cpp **** 		Delete();
 399              		.loc 3 32 0
 400 0100 7868     		ldr	r0, [r7, #4]
 401 0102 FFF7FEFF 		bl	_ZN11ASyncObject6DeleteEv
 402              	.L22:
  33:../FreeRTOS_EC/Source/ASyncObject.cpp **** 	}
  34:../FreeRTOS_EC/Source/ASyncObject.cpp **** 	m_handleSemaphore = handle;
 403              		.loc 3 34 0
 404 0106 7B68     		ldr	r3, [r7, #4]
 405 0108 3A68     		ldr	r2, [r7, #0]
 406 010a 5A60     		str	r2, [r3, #4]
 407              	.LBE6:
  35:../FreeRTOS_EC/Source/ASyncObject.cpp **** }
 408              		.loc 3 35 0
 409 010c 07F10807 		add	r7, r7, #8
 410 0110 BD46     		mov	sp, r7
 411 0112 80BD     		pop	{r7, pc}
 412              		.cfi_endproc
 413              	.LFE124:
 415              		.global	_ZTV11ASyncObject
 416              		.section	.rodata._ZTV11ASyncObject,"a",%progbits
 417              		.align	3
 420              	_ZTV11ASyncObject:
 421 0000 00000000 		.word	0
 422 0004 00000000 		.word	0
 423 0008 00000000 		.word	_ZNK11ASyncObject7IsValidEv
 424 000c 00000000 		.word	_ZN11ASyncObject6AttachEPv
 425 0010 00000000 		.word	_ZN11ASyncObject6DetachEv
 426 0014 00000000 		.word	_ZN11ASyncObjectD1Ev
 427 0018 00000000 		.word	_ZN11ASyncObjectD0Ev
 428 001c 00000000 		.word	__cxa_pure_virtual
 429 0020 00000000 		.word	__cxa_pure_virtual
 430              		.weak	_ZTV12IFreeRTOSObj
 431 0024 00000000 		.section	.rodata._ZTV12IFreeRTOSObj,"aG",%progbits,_ZTV12IFreeRTOSObj,comdat
 432              		.align	3
 435              	_ZTV12IFreeRTOSObj:
 436 0000 00000000 		.word	0
 437 0004 00000000 		.word	0
 438 0008 00000000 		.word	__cxa_pure_virtual
 439 000c 00000000 		.word	__cxa_pure_virtual
 440 0010 00000000 		.word	__cxa_pure_virtual
 441 0014 00000000 		.section	.rodata._ZZN11ASyncObject6AttachEPvE19__PRETTY_FUNCTION__,"a",%progbits
 442              		.align	2
 445              	_ZZN11ASyncObject6AttachEPvE19__PRETTY_FUNCTION__:
 446 0000 76697274 		.ascii	"virtual void ASyncObject::Attach(xGenericHandle)\000"
 446      75616C20 
 446      766F6964 
 446      20415379 
 446      6E634F62 
 447              		.weak	_ZN12IFreeRTOSObjC1Ev
 448              		.thumb_set _ZN12IFreeRTOSObjC1Ev,_ZN12IFreeRTOSObjC2Ev
 449              		.global	_ZN11ASyncObjectC1Ev
 450              		.thumb_set _ZN11ASyncObjectC1Ev,_ZN11ASyncObjectC2Ev
 451              		.global	_ZN11ASyncObjectD1Ev
 452              		.thumb_set _ZN11ASyncObjectD1Ev,_ZN11ASyncObjectD2Ev
 453 0031 000000   		.text
 454              	.Letext0:
 455              		.file 4 "d:/elektronik/ides/eclipse/yagarto/lib/gcc/../../arm-none-eabi/sys-include/stdint.h"
 456              		.file 5 "C:\\Dokumente und Einstellungen\\brand\\Desktop\\thundercyer-the-alarm-clock\\FreeRTOS\\S
 457              		.file 6 "C:\\Dokumente und Einstellungen\\brand\\Desktop\\thundercyer-the-alarm-clock\\FreeRTOS\\S
 458              		.file 7 "C:\\Dokumente und Einstellungen\\brand\\Desktop\\thundercyer-the-alarm-clock\\FreeRTOS\\S
 459              		.file 8 "C:\\Dokumente und Einstellungen\\brand\\Desktop\\thundercyer-the-alarm-clock\\CMSIS\\Incl