   1              		.syntax unified
   2              		.cpu cortex-m4
   3              		.eabi_attribute 27, 3
   4              		.fpu fpv4-sp-d16
   5              		.eabi_attribute 20, 1
   6              		.eabi_attribute 21, 1
   7              		.eabi_attribute 23, 3
   8              		.eabi_attribute 24, 1
   9              		.eabi_attribute 25, 1
  10              		.eabi_attribute 26, 1
  11              		.eabi_attribute 30, 6
  12              		.eabi_attribute 18, 4
  13              		.thumb
  14              		.file	"CBinarySemaphore.cpp"
  15              		.text
  16              	.Ltext0:
  17              		.cfi_sections	.debug_frame
  18              		.section	.text._ZNK11ASyncObject7IsValidEv,"axG",%progbits,_ZNK11ASyncObject7IsValidEv,comdat
  19              		.align	2
  20              		.weak	_ZNK11ASyncObject7IsValidEv
  21              		.thumb
  22              		.thumb_func
  24              	_ZNK11ASyncObject7IsValidEv:
  25              	.LFB111:
  26              		.file 1 "../FreeRTOS_EC/Source/ASyncObject.h"
   1:../FreeRTOS_EC/Source/ASyncObject.h **** /**
   2:../FreeRTOS_EC/Source/ASyncObject.h ****  * @file   ASyncObject.h
   3:../FreeRTOS_EC/Source/ASyncObject.h ****  * @class  ASyncObject
   4:../FreeRTOS_EC/Source/ASyncObject.h ****  * @ingroup FreeRTOS_Wrapper
   5:../FreeRTOS_EC/Source/ASyncObject.h ****  *
   6:../FreeRTOS_EC/Source/ASyncObject.h ****  * Abstract base class for all task synchronization object.
   7:../FreeRTOS_EC/Source/ASyncObject.h ****  *
   8:../FreeRTOS_EC/Source/ASyncObject.h ****  * @date   Jul 13, 2010
   9:../FreeRTOS_EC/Source/ASyncObject.h ****  * @author Stefano Oliveri (STF12.net)
  10:../FreeRTOS_EC/Source/ASyncObject.h ****  *         E-Mail: software@stf12.net
  11:../FreeRTOS_EC/Source/ASyncObject.h ****  */
  12:../FreeRTOS_EC/Source/ASyncObject.h **** 
  13:../FreeRTOS_EC/Source/ASyncObject.h **** #ifndef ASEMAPHORE_H_
  14:../FreeRTOS_EC/Source/ASyncObject.h **** #define ASEMAPHORE_H_
  15:../FreeRTOS_EC/Source/ASyncObject.h **** 
  16:../FreeRTOS_EC/Source/ASyncObject.h **** #include "FreeRTOS.h"
  17:../FreeRTOS_EC/Source/ASyncObject.h **** #include "semphr.h"
  18:../FreeRTOS_EC/Source/ASyncObject.h **** #include "IFreeRTOSProtocol.h"
  19:../FreeRTOS_EC/Source/ASyncObject.h **** 
  20:../FreeRTOS_EC/Source/ASyncObject.h **** class ASyncObject: public IFreeRTOSObj {
  21:../FreeRTOS_EC/Source/ASyncObject.h **** protected:
  22:../FreeRTOS_EC/Source/ASyncObject.h ****     xSemaphoreHandle m_handleSemaphore;
  23:../FreeRTOS_EC/Source/ASyncObject.h **** 
  24:../FreeRTOS_EC/Source/ASyncObject.h **** public:
  25:../FreeRTOS_EC/Source/ASyncObject.h **** 	ASyncObject();
  26:../FreeRTOS_EC/Source/ASyncObject.h **** 	virtual ~ASyncObject();
  27:../FreeRTOS_EC/Source/ASyncObject.h **** 
  28:../FreeRTOS_EC/Source/ASyncObject.h **** 	inline operator xSemaphoreHandle() const { return m_handleSemaphore; }
  29:../FreeRTOS_EC/Source/ASyncObject.h **** 
  30:../FreeRTOS_EC/Source/ASyncObject.h **** 	void Delete();
  31:../FreeRTOS_EC/Source/ASyncObject.h **** 	inline bool IsValid()const;
  32:../FreeRTOS_EC/Source/ASyncObject.h **** 	void Attach(xGenericHandle handle);
  33:../FreeRTOS_EC/Source/ASyncObject.h **** 	inline xGenericHandle Detach();
  34:../FreeRTOS_EC/Source/ASyncObject.h **** 
  35:../FreeRTOS_EC/Source/ASyncObject.h **** 	virtual portBASE_TYPE Take(portTickType xBlockTime) =0;
  36:../FreeRTOS_EC/Source/ASyncObject.h **** 	virtual portBASE_TYPE Give() =0;
  37:../FreeRTOS_EC/Source/ASyncObject.h **** };
  38:../FreeRTOS_EC/Source/ASyncObject.h **** 
  39:../FreeRTOS_EC/Source/ASyncObject.h **** // inline method
  40:../FreeRTOS_EC/Source/ASyncObject.h **** 
  41:../FreeRTOS_EC/Source/ASyncObject.h **** inline
  42:../FreeRTOS_EC/Source/ASyncObject.h **** bool ASyncObject::IsValid() const {
  27              		.loc 1 42 0
  28              		.cfi_startproc
  29              		@ args = 0, pretend = 0, frame = 8
  30              		@ frame_needed = 1, uses_anonymous_args = 0
  31              		@ link register save eliminated.
  32 0000 80B4     		push	{r7}
  33              	.LCFI0:
  34              		.cfi_def_cfa_offset 4
  35              		.cfi_offset 7, -4
  36 0002 83B0     		sub	sp, sp, #12
  37              	.LCFI1:
  38              		.cfi_def_cfa_offset 16
  39 0004 00AF     		add	r7, sp, #0
  40              	.LCFI2:
  41              		.cfi_def_cfa_register 7
  42 0006 7860     		str	r0, [r7, #4]
  43:../FreeRTOS_EC/Source/ASyncObject.h **** 	return m_handleSemaphore != NULL;
  43              		.loc 1 43 0
  44 0008 7B68     		ldr	r3, [r7, #4]
  45 000a 5B68     		ldr	r3, [r3, #4]
  46 000c 002B     		cmp	r3, #0
  47 000e 0CBF     		ite	eq
  48 0010 0023     		moveq	r3, #0
  49 0012 0123     		movne	r3, #1
  50 0014 DBB2     		uxtb	r3, r3
  44:../FreeRTOS_EC/Source/ASyncObject.h **** }
  51              		.loc 1 44 0
  52 0016 1846     		mov	r0, r3
  53 0018 07F10C07 		add	r7, r7, #12
  54 001c BD46     		mov	sp, r7
  55 001e 80BC     		pop	{r7}
  56 0020 7047     		bx	lr
  57              		.cfi_endproc
  58              	.LFE111:
  60 0022 00BF     		.section	.text._ZN11ASyncObject6DetachEv,"axG",%progbits,_ZN11ASyncObject6DetachEv,comdat
  61              		.align	2
  62              		.weak	_ZN11ASyncObject6DetachEv
  63              		.thumb
  64              		.thumb_func
  66              	_ZN11ASyncObject6DetachEv:
  67              	.LFB112:
  45:../FreeRTOS_EC/Source/ASyncObject.h **** 
  46:../FreeRTOS_EC/Source/ASyncObject.h **** inline
  47:../FreeRTOS_EC/Source/ASyncObject.h **** xGenericHandle ASyncObject::Detach() {
  68              		.loc 1 47 0
  69              		.cfi_startproc
  70              		@ args = 0, pretend = 0, frame = 16
  71              		@ frame_needed = 1, uses_anonymous_args = 0
  72              		@ link register save eliminated.
  73 0000 80B4     		push	{r7}
  74              	.LCFI3:
  75              		.cfi_def_cfa_offset 4
  76              		.cfi_offset 7, -4
  77 0002 85B0     		sub	sp, sp, #20
  78              	.LCFI4:
  79              		.cfi_def_cfa_offset 24
  80 0004 00AF     		add	r7, sp, #0
  81              	.LCFI5:
  82              		.cfi_def_cfa_register 7
  83 0006 7860     		str	r0, [r7, #4]
  84              	.LBB2:
  48:../FreeRTOS_EC/Source/ASyncObject.h **** 	xSemaphoreHandle res = m_handleSemaphore;
  85              		.loc 1 48 0
  86 0008 7B68     		ldr	r3, [r7, #4]
  87 000a 5B68     		ldr	r3, [r3, #4]
  88 000c FB60     		str	r3, [r7, #12]
  49:../FreeRTOS_EC/Source/ASyncObject.h **** 	m_handleSemaphore = NULL;
  89              		.loc 1 49 0
  90 000e 7B68     		ldr	r3, [r7, #4]
  91 0010 4FF00002 		mov	r2, #0
  92 0014 5A60     		str	r2, [r3, #4]
  50:../FreeRTOS_EC/Source/ASyncObject.h **** 	return res;
  93              		.loc 1 50 0
  94 0016 FB68     		ldr	r3, [r7, #12]
  95              	.LBE2:
  51:../FreeRTOS_EC/Source/ASyncObject.h **** }
  96              		.loc 1 51 0
  97 0018 1846     		mov	r0, r3
  98 001a 07F11407 		add	r7, r7, #20
  99 001e BD46     		mov	sp, r7
 100 0020 80BC     		pop	{r7}
 101 0022 7047     		bx	lr
 102              		.cfi_endproc
 103              	.LFE112:
 105              		.section	.rodata
 106              		.align	2
 107              	.LC0:
 108 0000 2E2E2F46 		.ascii	"../FreeRTOS_EC/Source/CBinarySemaphore.h\000"
 108      72656552 
 108      544F535F 
 108      45432F53 
 108      6F757263 
 109 0029 000000   		.align	2
 110              	.LC1:
 111 002c 49735661 		.ascii	"IsValid()\000"
 111      6C696428 
 111      2900
 112 0036 0000     		.section	.text._ZN16CBinarySemaphore4TakeEm,"axG",%progbits,_ZN16CBinarySemaphore4TakeEm,comdat
 113              		.align	2
 114              		.weak	_ZN16CBinarySemaphore4TakeEm
 115              		.thumb
 116              		.thumb_func
 118              	_ZN16CBinarySemaphore4TakeEm:
 119              	.LFB113:
 120              		.file 2 "../FreeRTOS_EC/Source/CBinarySemaphore.h"
   1:../FreeRTOS_EC/Source/CBinarySemaphore.h **** /**
   2:../FreeRTOS_EC/Source/CBinarySemaphore.h ****  * @file CBinarySemaphore.h
   3:../FreeRTOS_EC/Source/CBinarySemaphore.h ****  * @class CBinarySemaphore
   4:../FreeRTOS_EC/Source/CBinarySemaphore.h ****  * @ingroup FreeRTOS_Wrapper
   5:../FreeRTOS_EC/Source/CBinarySemaphore.h ****  *
   6:../FreeRTOS_EC/Source/CBinarySemaphore.h ****  * The CBinarySemaphore class wraps a native FreeRTOS binary semaphore handle (xSemaphoreHandle).
   7:../FreeRTOS_EC/Source/CBinarySemaphore.h ****  * To create a binary semaphore instance an object of this class and then call its CBinarySemaphore
   8:../FreeRTOS_EC/Source/CBinarySemaphore.h ****  * like showed in the following sample:
   9:../FreeRTOS_EC/Source/CBinarySemaphore.h ****  * \code
  10:../FreeRTOS_EC/Source/CBinarySemaphore.h ****  * CBinarySemaphore g_aSemaphore // global semaphore declaration.
  11:../FreeRTOS_EC/Source/CBinarySemaphore.h ****  *
  12:../FreeRTOS_EC/Source/CBinarySemaphore.h ****  * void taskControlFunc(void *pParams) // a task control loop
  13:../FreeRTOS_EC/Source/CBinarySemaphore.h ****  * {
  14:../FreeRTOS_EC/Source/CBinarySemaphore.h ****  * 	g_aSemaphore.Create();
  15:../FreeRTOS_EC/Source/CBinarySemaphore.h ****  *
  16:../FreeRTOS_EC/Source/CBinarySemaphore.h ****  * 	for (;;) {
  17:../FreeRTOS_EC/Source/CBinarySemaphore.h ****  * 		while (g_aSemaphore.Take(portMAX_DELAY) != pdTRUE) {
  18:../FreeRTOS_EC/Source/CBinarySemaphore.h ****  * 		// do something
  19:../FreeRTOS_EC/Source/CBinarySemaphore.h ****  * 		}
  20:../FreeRTOS_EC/Source/CBinarySemaphore.h ****  * }
  21:../FreeRTOS_EC/Source/CBinarySemaphore.h ****  * \endcode
  22:../FreeRTOS_EC/Source/CBinarySemaphore.h ****  *
  23:../FreeRTOS_EC/Source/CBinarySemaphore.h ****  * \sa <a href="http://www.freertos.org/Inter-Task-Communication.html#Binary">binary semaphore docu
  24:../FreeRTOS_EC/Source/CBinarySemaphore.h **** 
  25:../FreeRTOS_EC/Source/CBinarySemaphore.h ****  *
  26:../FreeRTOS_EC/Source/CBinarySemaphore.h ****  * @date   Jul 13, 2010
  27:../FreeRTOS_EC/Source/CBinarySemaphore.h ****  * @author Stefano Oliveri (STF12.net)
  28:../FreeRTOS_EC/Source/CBinarySemaphore.h ****  *         E-Mail: software@stf12.net
  29:../FreeRTOS_EC/Source/CBinarySemaphore.h ****  */
  30:../FreeRTOS_EC/Source/CBinarySemaphore.h **** 
  31:../FreeRTOS_EC/Source/CBinarySemaphore.h **** 
  32:../FreeRTOS_EC/Source/CBinarySemaphore.h **** #ifndef CBINARYSEMAPHORE_H_
  33:../FreeRTOS_EC/Source/CBinarySemaphore.h **** #define CBINARYSEMAPHORE_H_
  34:../FreeRTOS_EC/Source/CBinarySemaphore.h **** 
  35:../FreeRTOS_EC/Source/CBinarySemaphore.h **** #include <assert.h>
  36:../FreeRTOS_EC/Source/CBinarySemaphore.h **** #include "ASyncObject.h"
  37:../FreeRTOS_EC/Source/CBinarySemaphore.h **** 
  38:../FreeRTOS_EC/Source/CBinarySemaphore.h **** class CBinarySemaphore: public ASyncObject {
  39:../FreeRTOS_EC/Source/CBinarySemaphore.h **** public:
  40:../FreeRTOS_EC/Source/CBinarySemaphore.h **** 
  41:../FreeRTOS_EC/Source/CBinarySemaphore.h **** 	/**
  42:../FreeRTOS_EC/Source/CBinarySemaphore.h **** 	 * Default constructor. It initializes the object without attaching it to a native FreeRTOS handle
  43:../FreeRTOS_EC/Source/CBinarySemaphore.h **** 	 * Call the Create method to allocate a binary semaphore handle and attach it to the object.
  44:../FreeRTOS_EC/Source/CBinarySemaphore.h **** 	 */
  45:../FreeRTOS_EC/Source/CBinarySemaphore.h **** 	CBinarySemaphore();
  46:../FreeRTOS_EC/Source/CBinarySemaphore.h **** 
  47:../FreeRTOS_EC/Source/CBinarySemaphore.h **** 	/**
  48:../FreeRTOS_EC/Source/CBinarySemaphore.h **** 	 * Create a binary semaphore instance and attach it to a valid handle.
  49:../FreeRTOS_EC/Source/CBinarySemaphore.h **** 	 *
  50:../FreeRTOS_EC/Source/CBinarySemaphore.h **** 	 * @param handleSemaphore a valid binary semaphore handle.
  51:../FreeRTOS_EC/Source/CBinarySemaphore.h **** 	 */
  52:../FreeRTOS_EC/Source/CBinarySemaphore.h **** 	CBinarySemaphore(xSemaphoreHandle handleSemaphore);
  53:../FreeRTOS_EC/Source/CBinarySemaphore.h **** 
  54:../FreeRTOS_EC/Source/CBinarySemaphore.h **** 	/**
  55:../FreeRTOS_EC/Source/CBinarySemaphore.h **** 	 * Destructor. It deletes the native FreeRTOS counting semaphore.
  56:../FreeRTOS_EC/Source/CBinarySemaphore.h **** 	 */
  57:../FreeRTOS_EC/Source/CBinarySemaphore.h **** 	virtual ~CBinarySemaphore();
  58:../FreeRTOS_EC/Source/CBinarySemaphore.h **** 
  59:../FreeRTOS_EC/Source/CBinarySemaphore.h **** 	/**
  60:../FreeRTOS_EC/Source/CBinarySemaphore.h **** 	 * Create a FreeRTOS binary semaphore and attach its handle to the receiver object.
  61:../FreeRTOS_EC/Source/CBinarySemaphore.h **** 	 *
  62:../FreeRTOS_EC/Source/CBinarySemaphore.h **** 	 * @return true if the counting semaphore is created with success, false otherwise.
  63:../FreeRTOS_EC/Source/CBinarySemaphore.h **** 	 *
  64:../FreeRTOS_EC/Source/CBinarySemaphore.h **** 	 * \sa <a href="http://www.freertos.org/a00121.html">vSemaphoreCreateBinary</a> FreeRTOS API funct
  65:../FreeRTOS_EC/Source/CBinarySemaphore.h **** 	 */
  66:../FreeRTOS_EC/Source/CBinarySemaphore.h **** 	bool Create();
  67:../FreeRTOS_EC/Source/CBinarySemaphore.h **** 
  68:../FreeRTOS_EC/Source/CBinarySemaphore.h **** 	/**
  69:../FreeRTOS_EC/Source/CBinarySemaphore.h **** 	 * \sa <a href="http://www.freertos.org/a00122.html">xSemaphoreTake</a> FreeRTOS API function.
  70:../FreeRTOS_EC/Source/CBinarySemaphore.h **** 	 */
  71:../FreeRTOS_EC/Source/CBinarySemaphore.h **** 	inline portBASE_TYPE Take(portTickType xBlockTime);
  72:../FreeRTOS_EC/Source/CBinarySemaphore.h **** 
  73:../FreeRTOS_EC/Source/CBinarySemaphore.h **** 	/**
  74:../FreeRTOS_EC/Source/CBinarySemaphore.h **** 	 * \sa <a href="http://www.freertos.org/a00123.html">xSemaphoreGive</a> FreeRTOS API function.
  75:../FreeRTOS_EC/Source/CBinarySemaphore.h **** 	 */
  76:../FreeRTOS_EC/Source/CBinarySemaphore.h **** 	inline portBASE_TYPE Give();
  77:../FreeRTOS_EC/Source/CBinarySemaphore.h **** 
  78:../FreeRTOS_EC/Source/CBinarySemaphore.h **** 	/**
  79:../FreeRTOS_EC/Source/CBinarySemaphore.h **** 	 * \sa <a href="http://www.freertos.org/a00124.html">xSemaphoreGiveFromISR</a> FreeRTOS API functi
  80:../FreeRTOS_EC/Source/CBinarySemaphore.h **** 	 */
  81:../FreeRTOS_EC/Source/CBinarySemaphore.h **** 	inline portBASE_TYPE GiveFromISR(signed portBASE_TYPE *pxHigherPriorityTaskWoken);
  82:../FreeRTOS_EC/Source/CBinarySemaphore.h **** };
  83:../FreeRTOS_EC/Source/CBinarySemaphore.h **** 
  84:../FreeRTOS_EC/Source/CBinarySemaphore.h **** 
  85:../FreeRTOS_EC/Source/CBinarySemaphore.h **** // inline methods implementation
  86:../FreeRTOS_EC/Source/CBinarySemaphore.h **** 
  87:../FreeRTOS_EC/Source/CBinarySemaphore.h **** inline
  88:../FreeRTOS_EC/Source/CBinarySemaphore.h **** portBASE_TYPE CBinarySemaphore::Take(portTickType xBlockTime) {
 121              		.loc 2 88 0
 122              		.cfi_startproc
 123              		@ args = 0, pretend = 0, frame = 8
 124              		@ frame_needed = 1, uses_anonymous_args = 0
 125 0000 80B5     		push	{r7, lr}
 126              	.LCFI6:
 127              		.cfi_def_cfa_offset 8
 128              		.cfi_offset 14, -4
 129              		.cfi_offset 7, -8
 130 0002 82B0     		sub	sp, sp, #8
 131              	.LCFI7:
 132              		.cfi_def_cfa_offset 16
 133 0004 00AF     		add	r7, sp, #0
 134              	.LCFI8:
 135              		.cfi_def_cfa_register 7
 136 0006 7860     		str	r0, [r7, #4]
 137 0008 3960     		str	r1, [r7, #0]
 138              	.LBB3:
  89:../FreeRTOS_EC/Source/CBinarySemaphore.h **** 	assert(IsValid());
 139              		.loc 2 89 0
 140 000a 7B68     		ldr	r3, [r7, #4]
 141 000c 1B68     		ldr	r3, [r3, #0]
 142 000e 1B68     		ldr	r3, [r3, #0]
 143 0010 7A68     		ldr	r2, [r7, #4]
 144 0012 1046     		mov	r0, r2
 145 0014 9847     		blx	r3
 146 0016 0346     		mov	r3, r0
 147 0018 002B     		cmp	r3, #0
 148 001a 0FD1     		bne	.L4
 149              		.loc 2 89 0 is_stmt 0 discriminator 1
 150 001c 40F20000 		movw	r0, #:lower16:.LC0
 151 0020 C0F20000 		movt	r0, #:upper16:.LC0
 152 0024 4FF05901 		mov	r1, #89
 153 0028 40F20002 		movw	r2, #:lower16:_ZZN16CBinarySemaphore4TakeEmE19__PRETTY_FUNCTION__
 154 002c C0F20002 		movt	r2, #:upper16:_ZZN16CBinarySemaphore4TakeEmE19__PRETTY_FUNCTION__
 155 0030 40F20003 		movw	r3, #:lower16:.LC1
 156 0034 C0F20003 		movt	r3, #:upper16:.LC1
 157 0038 FFF7FEFF 		bl	__assert_func
 158              	.L4:
  90:../FreeRTOS_EC/Source/CBinarySemaphore.h **** 
  91:../FreeRTOS_EC/Source/CBinarySemaphore.h **** 	return xSemaphoreTake(m_handleSemaphore, xBlockTime);
 159              		.loc 2 91 0 is_stmt 1
 160 003c 7B68     		ldr	r3, [r7, #4]
 161 003e 5B68     		ldr	r3, [r3, #4]
 162 0040 1846     		mov	r0, r3
 163 0042 4FF00001 		mov	r1, #0
 164 0046 3A68     		ldr	r2, [r7, #0]
 165 0048 4FF00003 		mov	r3, #0
 166 004c FFF7FEFF 		bl	xQueueGenericReceive
 167 0050 0346     		mov	r3, r0
 168              	.LBE3:
  92:../FreeRTOS_EC/Source/CBinarySemaphore.h **** }
 169              		.loc 2 92 0
 170 0052 1846     		mov	r0, r3
 171 0054 07F10807 		add	r7, r7, #8
 172 0058 BD46     		mov	sp, r7
 173 005a 80BD     		pop	{r7, pc}
 174              		.cfi_endproc
 175              	.LFE113:
 177              		.section	.text._ZN16CBinarySemaphore4GiveEv,"axG",%progbits,_ZN16CBinarySemaphore4GiveEv,comdat
 178              		.align	2
 179              		.weak	_ZN16CBinarySemaphore4GiveEv
 180              		.thumb
 181              		.thumb_func
 183              	_ZN16CBinarySemaphore4GiveEv:
 184              	.LFB114:
  93:../FreeRTOS_EC/Source/CBinarySemaphore.h **** 
  94:../FreeRTOS_EC/Source/CBinarySemaphore.h **** inline
  95:../FreeRTOS_EC/Source/CBinarySemaphore.h **** portBASE_TYPE CBinarySemaphore::Give() {
 185              		.loc 2 95 0
 186              		.cfi_startproc
 187              		@ args = 0, pretend = 0, frame = 8
 188              		@ frame_needed = 1, uses_anonymous_args = 0
 189 0000 80B5     		push	{r7, lr}
 190              	.LCFI9:
 191              		.cfi_def_cfa_offset 8
 192              		.cfi_offset 14, -4
 193              		.cfi_offset 7, -8
 194 0002 82B0     		sub	sp, sp, #8
 195              	.LCFI10:
 196              		.cfi_def_cfa_offset 16
 197 0004 00AF     		add	r7, sp, #0
 198              	.LCFI11:
 199              		.cfi_def_cfa_register 7
 200 0006 7860     		str	r0, [r7, #4]
 201              	.LBB4:
  96:../FreeRTOS_EC/Source/CBinarySemaphore.h **** 	assert(IsValid());
 202              		.loc 2 96 0
 203 0008 7B68     		ldr	r3, [r7, #4]
 204 000a 1B68     		ldr	r3, [r3, #0]
 205 000c 1B68     		ldr	r3, [r3, #0]
 206 000e 7A68     		ldr	r2, [r7, #4]
 207 0010 1046     		mov	r0, r2
 208 0012 9847     		blx	r3
 209 0014 0346     		mov	r3, r0
 210 0016 002B     		cmp	r3, #0
 211 0018 0FD1     		bne	.L6
 212              		.loc 2 96 0 is_stmt 0 discriminator 1
 213 001a 40F20000 		movw	r0, #:lower16:.LC0
 214 001e C0F20000 		movt	r0, #:upper16:.LC0
 215 0022 4FF06001 		mov	r1, #96
 216 0026 40F20002 		movw	r2, #:lower16:_ZZN16CBinarySemaphore4GiveEvE19__PRETTY_FUNCTION__
 217 002a C0F20002 		movt	r2, #:upper16:_ZZN16CBinarySemaphore4GiveEvE19__PRETTY_FUNCTION__
 218 002e 40F20003 		movw	r3, #:lower16:.LC1
 219 0032 C0F20003 		movt	r3, #:upper16:.LC1
 220 0036 FFF7FEFF 		bl	__assert_func
 221              	.L6:
  97:../FreeRTOS_EC/Source/CBinarySemaphore.h **** 
  98:../FreeRTOS_EC/Source/CBinarySemaphore.h **** 	return xSemaphoreGive(m_handleSemaphore);
 222              		.loc 2 98 0 is_stmt 1
 223 003a 7B68     		ldr	r3, [r7, #4]
 224 003c 5B68     		ldr	r3, [r3, #4]
 225 003e 1846     		mov	r0, r3
 226 0040 4FF00001 		mov	r1, #0
 227 0044 4FF00002 		mov	r2, #0
 228 0048 4FF00003 		mov	r3, #0
 229 004c FFF7FEFF 		bl	xQueueGenericSend
 230 0050 0346     		mov	r3, r0
 231              	.LBE4:
  99:../FreeRTOS_EC/Source/CBinarySemaphore.h **** }
 232              		.loc 2 99 0
 233 0052 1846     		mov	r0, r3
 234 0054 07F10807 		add	r7, r7, #8
 235 0058 BD46     		mov	sp, r7
 236 005a 80BD     		pop	{r7, pc}
 237              		.cfi_endproc
 238              	.LFE114:
 240              		.section	.text._ZN16CBinarySemaphoreC2Ev,"ax",%progbits
 241              		.align	2
 242              		.global	_ZN16CBinarySemaphoreC2Ev
 243              		.thumb
 244              		.thumb_func
 246              	_ZN16CBinarySemaphoreC2Ev:
 247              	.LFB117:
 248              		.file 3 "../FreeRTOS_EC/Source/CBinarySemaphore.cpp"
   1:../FreeRTOS_EC/Source/CBinarySemaphore.cpp **** /**
   2:../FreeRTOS_EC/Source/CBinarySemaphore.cpp ****  * CBinarySemaphore.cpp
   3:../FreeRTOS_EC/Source/CBinarySemaphore.cpp ****  *
   4:../FreeRTOS_EC/Source/CBinarySemaphore.cpp ****  *  Created on: Jul 13, 2010
   5:../FreeRTOS_EC/Source/CBinarySemaphore.cpp ****  *      Author: Stefano Oliveri (STF12.net)
   6:../FreeRTOS_EC/Source/CBinarySemaphore.cpp ****  *      E-Mail: software@stf12.net
   7:../FreeRTOS_EC/Source/CBinarySemaphore.cpp ****  */
   8:../FreeRTOS_EC/Source/CBinarySemaphore.cpp **** 
   9:../FreeRTOS_EC/Source/CBinarySemaphore.cpp **** #include "CBinarySemaphore.h"
  10:../FreeRTOS_EC/Source/CBinarySemaphore.cpp **** #include <assert.h>
  11:../FreeRTOS_EC/Source/CBinarySemaphore.cpp **** 
  12:../FreeRTOS_EC/Source/CBinarySemaphore.cpp **** CBinarySemaphore::CBinarySemaphore() {
 249              		.loc 3 12 0
 250              		.cfi_startproc
 251              		@ args = 0, pretend = 0, frame = 8
 252              		@ frame_needed = 1, uses_anonymous_args = 0
 253 0000 80B5     		push	{r7, lr}
 254              	.LCFI12:
 255              		.cfi_def_cfa_offset 8
 256              		.cfi_offset 14, -4
 257              		.cfi_offset 7, -8
 258 0002 82B0     		sub	sp, sp, #8
 259              	.LCFI13:
 260              		.cfi_def_cfa_offset 16
 261 0004 00AF     		add	r7, sp, #0
 262              	.LCFI14:
 263              		.cfi_def_cfa_register 7
 264 0006 7860     		str	r0, [r7, #4]
 265              	.LBB5:
 266              		.loc 3 12 0
 267 0008 7B68     		ldr	r3, [r7, #4]
 268 000a 1846     		mov	r0, r3
 269 000c FFF7FEFF 		bl	_ZN11ASyncObjectC2Ev
 270 0010 7B68     		ldr	r3, [r7, #4]
 271 0012 044A     		ldr	r2, .L9
 272 0014 1A60     		str	r2, [r3, #0]
 273              	.LBE5:
  13:../FreeRTOS_EC/Source/CBinarySemaphore.cpp **** 	// TODO Auto-generated constructor stub
  14:../FreeRTOS_EC/Source/CBinarySemaphore.cpp **** 
  15:../FreeRTOS_EC/Source/CBinarySemaphore.cpp **** }
 274              		.loc 3 15 0
 275 0016 7B68     		ldr	r3, [r7, #4]
 276 0018 1846     		mov	r0, r3
 277 001a 07F10807 		add	r7, r7, #8
 278 001e BD46     		mov	sp, r7
 279 0020 80BD     		pop	{r7, pc}
 280              	.L10:
 281 0022 00BF     		.align	2
 282              	.L9:
 283 0024 08000000 		.word	_ZTV16CBinarySemaphore+8
 284              		.cfi_endproc
 285              	.LFE117:
 287              		.section	.text._ZN16CBinarySemaphoreD2Ev,"ax",%progbits
 288              		.align	2
 289              		.global	_ZN16CBinarySemaphoreD2Ev
 290              		.thumb
 291              		.thumb_func
 293              	_ZN16CBinarySemaphoreD2Ev:
 294              	.LFB120:
  16:../FreeRTOS_EC/Source/CBinarySemaphore.cpp **** 
  17:../FreeRTOS_EC/Source/CBinarySemaphore.cpp **** CBinarySemaphore::~CBinarySemaphore() {
 295              		.loc 3 17 0
 296              		.cfi_startproc
 297              		@ args = 0, pretend = 0, frame = 8
 298              		@ frame_needed = 1, uses_anonymous_args = 0
 299 0000 80B5     		push	{r7, lr}
 300              	.LCFI15:
 301              		.cfi_def_cfa_offset 8
 302              		.cfi_offset 14, -4
 303              		.cfi_offset 7, -8
 304 0002 82B0     		sub	sp, sp, #8
 305              	.LCFI16:
 306              		.cfi_def_cfa_offset 16
 307 0004 00AF     		add	r7, sp, #0
 308              	.LCFI17:
 309              		.cfi_def_cfa_register 7
 310 0006 7860     		str	r0, [r7, #4]
 311              	.LBB6:
 312              		.loc 3 17 0
 313 0008 7B68     		ldr	r3, [r7, #4]
 314 000a 0A4A     		ldr	r2, .L14
 315 000c 1A60     		str	r2, [r3, #0]
  18:../FreeRTOS_EC/Source/CBinarySemaphore.cpp **** 	// TODO Auto-generated destructor stub
  19:../FreeRTOS_EC/Source/CBinarySemaphore.cpp **** }
 316              		.loc 3 19 0
 317 000e 7868     		ldr	r0, [r7, #4]
 318 0010 FFF7FEFF 		bl	_ZN11ASyncObjectD2Ev
 319              	.LBE6:
 320 0014 4FF00003 		mov	r3, #0
 321 0018 03F00103 		and	r3, r3, #1
 322 001c DBB2     		uxtb	r3, r3
 323 001e 002B     		cmp	r3, #0
 324 0020 02D0     		beq	.L13
 325              		.loc 3 19 0 is_stmt 0 discriminator 2
 326 0022 7868     		ldr	r0, [r7, #4]
 327 0024 FFF7FEFF 		bl	_ZdlPv
 328              	.L13:
 329              		.loc 3 19 0 discriminator 3
 330 0028 7B68     		ldr	r3, [r7, #4]
 331 002a 1846     		mov	r0, r3
 332 002c 07F10807 		add	r7, r7, #8
 333 0030 BD46     		mov	sp, r7
 334 0032 80BD     		pop	{r7, pc}
 335              	.L15:
 336              		.align	2
 337              	.L14:
 338 0034 08000000 		.word	_ZTV16CBinarySemaphore+8
 339              		.cfi_endproc
 340              	.LFE120:
 342              		.section	.text._ZN16CBinarySemaphoreD0Ev,"ax",%progbits
 343              		.align	2
 344              		.global	_ZN16CBinarySemaphoreD0Ev
 345              		.thumb
 346              		.thumb_func
 348              	_ZN16CBinarySemaphoreD0Ev:
 349              	.LFB122:
  17:../FreeRTOS_EC/Source/CBinarySemaphore.cpp **** CBinarySemaphore::~CBinarySemaphore() {
 350              		.loc 3 17 0 is_stmt 1
 351              		.cfi_startproc
 352              		@ args = 0, pretend = 0, frame = 8
 353              		@ frame_needed = 1, uses_anonymous_args = 0
 354 0000 80B5     		push	{r7, lr}
 355              	.LCFI18:
 356              		.cfi_def_cfa_offset 8
 357              		.cfi_offset 14, -4
 358              		.cfi_offset 7, -8
 359 0002 82B0     		sub	sp, sp, #8
 360              	.LCFI19:
 361              		.cfi_def_cfa_offset 16
 362 0004 00AF     		add	r7, sp, #0
 363              	.LCFI20:
 364              		.cfi_def_cfa_register 7
 365 0006 7860     		str	r0, [r7, #4]
 366              		.loc 3 19 0
 367 0008 7868     		ldr	r0, [r7, #4]
 368 000a FFF7FEFF 		bl	_ZN16CBinarySemaphoreD1Ev
 369 000e 7868     		ldr	r0, [r7, #4]
 370 0010 FFF7FEFF 		bl	_ZdlPv
 371 0014 7B68     		ldr	r3, [r7, #4]
 372 0016 1846     		mov	r0, r3
 373 0018 07F10807 		add	r7, r7, #8
 374 001c BD46     		mov	sp, r7
 375 001e 80BD     		pop	{r7, pc}
 376              		.cfi_endproc
 377              	.LFE122:
 379              		.section	.text._ZN16CBinarySemaphoreC2EPv,"ax",%progbits
 380              		.align	2
 381              		.global	_ZN16CBinarySemaphoreC2EPv
 382              		.thumb
 383              		.thumb_func
 385              	_ZN16CBinarySemaphoreC2EPv:
 386              	.LFB124:
  20:../FreeRTOS_EC/Source/CBinarySemaphore.cpp **** 
  21:../FreeRTOS_EC/Source/CBinarySemaphore.cpp **** CBinarySemaphore::CBinarySemaphore(xSemaphoreHandle handleSemaphore) {
 387              		.loc 3 21 0
 388              		.cfi_startproc
 389              		@ args = 0, pretend = 0, frame = 8
 390              		@ frame_needed = 1, uses_anonymous_args = 0
 391 0000 80B5     		push	{r7, lr}
 392              	.LCFI21:
 393              		.cfi_def_cfa_offset 8
 394              		.cfi_offset 14, -4
 395              		.cfi_offset 7, -8
 396 0002 82B0     		sub	sp, sp, #8
 397              	.LCFI22:
 398              		.cfi_def_cfa_offset 16
 399 0004 00AF     		add	r7, sp, #0
 400              	.LCFI23:
 401              		.cfi_def_cfa_register 7
 402 0006 7860     		str	r0, [r7, #4]
 403 0008 3960     		str	r1, [r7, #0]
 404              	.LBB7:
 405              		.loc 3 21 0
 406 000a 7B68     		ldr	r3, [r7, #4]
 407 000c 1846     		mov	r0, r3
 408 000e FFF7FEFF 		bl	_ZN11ASyncObjectC2Ev
 409 0012 7B68     		ldr	r3, [r7, #4]
 410 0014 064A     		ldr	r2, .L20
 411 0016 1A60     		str	r2, [r3, #0]
  22:../FreeRTOS_EC/Source/CBinarySemaphore.cpp **** 	Attach(handleSemaphore);
 412              		.loc 3 22 0
 413 0018 7B68     		ldr	r3, [r7, #4]
 414 001a 1846     		mov	r0, r3
 415 001c 3968     		ldr	r1, [r7, #0]
 416 001e FFF7FEFF 		bl	_ZN11ASyncObject6AttachEPv
 417              	.LBE7:
  23:../FreeRTOS_EC/Source/CBinarySemaphore.cpp **** }
 418              		.loc 3 23 0
 419 0022 7B68     		ldr	r3, [r7, #4]
 420 0024 1846     		mov	r0, r3
 421 0026 07F10807 		add	r7, r7, #8
 422 002a BD46     		mov	sp, r7
 423 002c 80BD     		pop	{r7, pc}
 424              	.L21:
 425 002e 00BF     		.align	2
 426              	.L20:
 427 0030 08000000 		.word	_ZTV16CBinarySemaphore+8
 428              		.cfi_endproc
 429              	.LFE124:
 431              		.section	.text._ZN16CBinarySemaphore6CreateEv,"ax",%progbits
 432              		.align	2
 433              		.global	_ZN16CBinarySemaphore6CreateEv
 434              		.thumb
 435              		.thumb_func
 437              	_ZN16CBinarySemaphore6CreateEv:
 438              	.LFB126:
  24:../FreeRTOS_EC/Source/CBinarySemaphore.cpp **** 
  25:../FreeRTOS_EC/Source/CBinarySemaphore.cpp **** bool CBinarySemaphore::Create() {
 439              		.loc 3 25 0
 440              		.cfi_startproc
 441              		@ args = 0, pretend = 0, frame = 16
 442              		@ frame_needed = 1, uses_anonymous_args = 0
 443 0000 80B5     		push	{r7, lr}
 444              	.LCFI24:
 445              		.cfi_def_cfa_offset 8
 446              		.cfi_offset 14, -4
 447              		.cfi_offset 7, -8
 448 0002 84B0     		sub	sp, sp, #16
 449              	.LCFI25:
 450              		.cfi_def_cfa_offset 24
 451 0004 00AF     		add	r7, sp, #0
 452              	.LCFI26:
 453              		.cfi_def_cfa_register 7
 454 0006 7860     		str	r0, [r7, #4]
 455              	.LBB8:
  26:../FreeRTOS_EC/Source/CBinarySemaphore.cpp **** 	xSemaphoreHandle handle;
  27:../FreeRTOS_EC/Source/CBinarySemaphore.cpp **** 
  28:../FreeRTOS_EC/Source/CBinarySemaphore.cpp **** 	vSemaphoreCreateBinary(handle);
 456              		.loc 3 28 0
 457 0008 4FF00100 		mov	r0, #1
 458 000c 4FF00001 		mov	r1, #0
 459 0010 FFF7FEFF 		bl	xQueueCreate
 460 0014 0346     		mov	r3, r0
 461 0016 FB60     		str	r3, [r7, #12]
 462 0018 FB68     		ldr	r3, [r7, #12]
 463 001a 002B     		cmp	r3, #0
 464 001c 08D0     		beq	.L23
 465              		.loc 3 28 0 is_stmt 0 discriminator 1
 466 001e F868     		ldr	r0, [r7, #12]
 467 0020 4FF00001 		mov	r1, #0
 468 0024 4FF00002 		mov	r2, #0
 469 0028 4FF00003 		mov	r3, #0
 470 002c FFF7FEFF 		bl	xQueueGenericSend
 471              	.L23:
  29:../FreeRTOS_EC/Source/CBinarySemaphore.cpp **** 
  30:../FreeRTOS_EC/Source/CBinarySemaphore.cpp **** 	if (handle != NULL)
 472              		.loc 3 30 0 is_stmt 1
 473 0030 FB68     		ldr	r3, [r7, #12]
 474 0032 002B     		cmp	r3, #0
 475 0034 08D0     		beq	.L24
  31:../FreeRTOS_EC/Source/CBinarySemaphore.cpp **** 		Attach(handle);
 476              		.loc 3 31 0
 477 0036 7B68     		ldr	r3, [r7, #4]
 478 0038 1B68     		ldr	r3, [r3, #0]
 479 003a 03F10403 		add	r3, r3, #4
 480 003e 1B68     		ldr	r3, [r3, #0]
 481 0040 7A68     		ldr	r2, [r7, #4]
 482 0042 1046     		mov	r0, r2
 483 0044 F968     		ldr	r1, [r7, #12]
 484 0046 9847     		blx	r3
 485              	.L24:
  32:../FreeRTOS_EC/Source/CBinarySemaphore.cpp **** 
  33:../FreeRTOS_EC/Source/CBinarySemaphore.cpp **** 	return IsValid();
 486              		.loc 3 33 0
 487 0048 7B68     		ldr	r3, [r7, #4]
 488 004a 1B68     		ldr	r3, [r3, #0]
 489 004c 1B68     		ldr	r3, [r3, #0]
 490 004e 7A68     		ldr	r2, [r7, #4]
 491 0050 1046     		mov	r0, r2
 492 0052 9847     		blx	r3
 493 0054 0346     		mov	r3, r0
 494              	.LBE8:
  34:../FreeRTOS_EC/Source/CBinarySemaphore.cpp **** }
 495              		.loc 3 34 0
 496 0056 1846     		mov	r0, r3
 497 0058 07F11007 		add	r7, r7, #16
 498 005c BD46     		mov	sp, r7
 499 005e 80BD     		pop	{r7, pc}
 500              		.cfi_endproc
 501              	.LFE126:
 503              		.global	_ZTV16CBinarySemaphore
 504              		.section	.rodata._ZTV16CBinarySemaphore,"a",%progbits
 505              		.align	3
 508              	_ZTV16CBinarySemaphore:
 509 0000 00000000 		.word	0
 510 0004 00000000 		.word	0
 511 0008 00000000 		.word	_ZNK11ASyncObject7IsValidEv
 512 000c 00000000 		.word	_ZN11ASyncObject6AttachEPv
 513 0010 00000000 		.word	_ZN11ASyncObject6DetachEv
 514 0014 00000000 		.word	_ZN16CBinarySemaphoreD1Ev
 515 0018 00000000 		.word	_ZN16CBinarySemaphoreD0Ev
 516 001c 00000000 		.word	_ZN16CBinarySemaphore4TakeEm
 517 0020 00000000 		.word	_ZN16CBinarySemaphore4GiveEv
 518 0024 00000000 		.section	.rodata._ZZN16CBinarySemaphore4GiveEvE19__PRETTY_FUNCTION__,"a",%progbits
 519              		.align	2
 522              	_ZZN16CBinarySemaphore4GiveEvE19__PRETTY_FUNCTION__:
 523 0000 76697274 		.ascii	"virtual long int CBinarySemaphore::Give()\000"
 523      75616C20 
 523      6C6F6E67 
 523      20696E74 
 523      20434269 
 524 002a 0000     		.section	.rodata._ZZN16CBinarySemaphore4TakeEmE19__PRETTY_FUNCTION__,"a",%progbits
 525              		.align	2
 528              	_ZZN16CBinarySemaphore4TakeEmE19__PRETTY_FUNCTION__:
 529 0000 76697274 		.ascii	"virtual long int CBinarySemaphore::Take(portTickTyp"
 529      75616C20 
 529      6C6F6E67 
 529      20696E74 
 529      20434269 
 530 0033 652900   		.ascii	"e)\000"
 531              		.global	_ZN16CBinarySemaphoreC1Ev
 532              		.thumb_set _ZN16CBinarySemaphoreC1Ev,_ZN16CBinarySemaphoreC2Ev
 533              		.global	_ZN16CBinarySemaphoreD1Ev
 534              		.thumb_set _ZN16CBinarySemaphoreD1Ev,_ZN16CBinarySemaphoreD2Ev
 535              		.global	_ZN16CBinarySemaphoreC1EPv
 536              		.thumb_set _ZN16CBinarySemaphoreC1EPv,_ZN16CBinarySemaphoreC2EPv
 537 0036 0000     		.text
 538              	.Letext0:
 539              		.file 4 "e:/elektronik/toolchain/yagarto/lib/gcc/../../arm-none-eabi/sys-include/stdint.h"
 540              		.file 5 "E:\\Desktop\\thundercyer-the-alarm-clock\\FreeRTOS\\Source\\include/../../Source/portable
 541              		.file 6 "E:\\Desktop\\thundercyer-the-alarm-clock\\FreeRTOS\\Source\\include/queue.h"
 542              		.file 7 "E:\\Desktop\\thundercyer-the-alarm-clock\\FreeRTOS\\Source\\include/semphr.h"
 543              		.file 8 "../FreeRTOS_EC/Source/IFreeRTOSProtocol.h"
 544              		.file 9 "E:\\Desktop\\thundercyer-the-alarm-clock\\CMSIS\\Include/core_cm4.h"
DEFINED SYMBOLS
                            *ABS*:00000000 CBinarySemaphore.cpp
C:\Users\Alex\AppData\Local\Temp\ccFoDrls.s:19     .text._ZNK11ASyncObject7IsValidEv:00000000 $t
C:\Users\Alex\AppData\Local\Temp\ccFoDrls.s:24     .text._ZNK11ASyncObject7IsValidEv:00000000 _ZNK11ASyncObject7IsValidEv
C:\Users\Alex\AppData\Local\Temp\ccFoDrls.s:61     .text._ZN11ASyncObject6DetachEv:00000000 $t
C:\Users\Alex\AppData\Local\Temp\ccFoDrls.s:66     .text._ZN11ASyncObject6DetachEv:00000000 _ZN11ASyncObject6DetachEv
C:\Users\Alex\AppData\Local\Temp\ccFoDrls.s:106    .rodata:00000000 $d
C:\Users\Alex\AppData\Local\Temp\ccFoDrls.s:107    .rodata:00000000 .LC0
C:\Users\Alex\AppData\Local\Temp\ccFoDrls.s:110    .rodata:0000002c .LC1
C:\Users\Alex\AppData\Local\Temp\ccFoDrls.s:113    .text._ZN16CBinarySemaphore4TakeEm:00000000 $t
C:\Users\Alex\AppData\Local\Temp\ccFoDrls.s:118    .text._ZN16CBinarySemaphore4TakeEm:00000000 _ZN16CBinarySemaphore4TakeEm
C:\Users\Alex\AppData\Local\Temp\ccFoDrls.s:528    .rodata._ZZN16CBinarySemaphore4TakeEmE19__PRETTY_FUNCTION__:00000000 _ZZN16CBinarySemaphore4TakeEmE19__PRETTY_FUNCTION__
C:\Users\Alex\AppData\Local\Temp\ccFoDrls.s:178    .text._ZN16CBinarySemaphore4GiveEv:00000000 $t
C:\Users\Alex\AppData\Local\Temp\ccFoDrls.s:183    .text._ZN16CBinarySemaphore4GiveEv:00000000 _ZN16CBinarySemaphore4GiveEv
C:\Users\Alex\AppData\Local\Temp\ccFoDrls.s:522    .rodata._ZZN16CBinarySemaphore4GiveEvE19__PRETTY_FUNCTION__:00000000 _ZZN16CBinarySemaphore4GiveEvE19__PRETTY_FUNCTION__
C:\Users\Alex\AppData\Local\Temp\ccFoDrls.s:241    .text._ZN16CBinarySemaphoreC2Ev:00000000 $t
C:\Users\Alex\AppData\Local\Temp\ccFoDrls.s:246    .text._ZN16CBinarySemaphoreC2Ev:00000000 _ZN16CBinarySemaphoreC2Ev
C:\Users\Alex\AppData\Local\Temp\ccFoDrls.s:283    .text._ZN16CBinarySemaphoreC2Ev:00000024 $d
C:\Users\Alex\AppData\Local\Temp\ccFoDrls.s:508    .rodata._ZTV16CBinarySemaphore:00000000 _ZTV16CBinarySemaphore
C:\Users\Alex\AppData\Local\Temp\ccFoDrls.s:288    .text._ZN16CBinarySemaphoreD2Ev:00000000 $t
C:\Users\Alex\AppData\Local\Temp\ccFoDrls.s:293    .text._ZN16CBinarySemaphoreD2Ev:00000000 _ZN16CBinarySemaphoreD2Ev
C:\Users\Alex\AppData\Local\Temp\ccFoDrls.s:338    .text._ZN16CBinarySemaphoreD2Ev:00000034 $d
C:\Users\Alex\AppData\Local\Temp\ccFoDrls.s:343    .text._ZN16CBinarySemaphoreD0Ev:00000000 $t
C:\Users\Alex\AppData\Local\Temp\ccFoDrls.s:348    .text._ZN16CBinarySemaphoreD0Ev:00000000 _ZN16CBinarySemaphoreD0Ev
C:\Users\Alex\AppData\Local\Temp\ccFoDrls.s:293    .text._ZN16CBinarySemaphoreD2Ev:00000000 _ZN16CBinarySemaphoreD1Ev
C:\Users\Alex\AppData\Local\Temp\ccFoDrls.s:380    .text._ZN16CBinarySemaphoreC2EPv:00000000 $t
C:\Users\Alex\AppData\Local\Temp\ccFoDrls.s:385    .text._ZN16CBinarySemaphoreC2EPv:00000000 _ZN16CBinarySemaphoreC2EPv
C:\Users\Alex\AppData\Local\Temp\ccFoDrls.s:427    .text._ZN16CBinarySemaphoreC2EPv:00000030 $d
C:\Users\Alex\AppData\Local\Temp\ccFoDrls.s:432    .text._ZN16CBinarySemaphore6CreateEv:00000000 $t
C:\Users\Alex\AppData\Local\Temp\ccFoDrls.s:437    .text._ZN16CBinarySemaphore6CreateEv:00000000 _ZN16CBinarySemaphore6CreateEv
C:\Users\Alex\AppData\Local\Temp\ccFoDrls.s:505    .rodata._ZTV16CBinarySemaphore:00000000 $d
C:\Users\Alex\AppData\Local\Temp\ccFoDrls.s:519    .rodata._ZZN16CBinarySemaphore4GiveEvE19__PRETTY_FUNCTION__:00000000 $d
C:\Users\Alex\AppData\Local\Temp\ccFoDrls.s:525    .rodata._ZZN16CBinarySemaphore4TakeEmE19__PRETTY_FUNCTION__:00000000 $d
C:\Users\Alex\AppData\Local\Temp\ccFoDrls.s:246    .text._ZN16CBinarySemaphoreC2Ev:00000000 _ZN16CBinarySemaphoreC1Ev
C:\Users\Alex\AppData\Local\Temp\ccFoDrls.s:385    .text._ZN16CBinarySemaphoreC2EPv:00000000 _ZN16CBinarySemaphoreC1EPv
                     .debug_frame:00000010 $d

UNDEFINED SYMBOLS
__assert_func
xQueueGenericReceive
xQueueGenericSend
_ZN11ASyncObjectC2Ev
_ZN11ASyncObjectD2Ev
_ZdlPv
_ZN11ASyncObject6AttachEPv
xQueueCreate
