   1              		.syntax unified
   2              		.cpu cortex-m4
   3              		.eabi_attribute 27, 3
   4              		.fpu fpv4-sp-d16
   5              		.eabi_attribute 20, 1
   6              		.eabi_attribute 21, 1
   7              		.eabi_attribute 23, 3
   8              		.eabi_attribute 24, 1
   9              		.eabi_attribute 25, 1
  10              		.eabi_attribute 26, 1
  11              		.eabi_attribute 30, 6
  12              		.eabi_attribute 18, 4
  13              		.thumb
  14              		.file	"CCountingSemaphore.cpp"
  15              		.text
  16              	.Ltext0:
  17              		.cfi_sections	.debug_frame
  18              		.section	.text._ZNK11ASyncObject7IsValidEv,"axG",%progbits,_ZNK11ASyncObject7IsValidEv,comdat
  19              		.align	2
  20              		.weak	_ZNK11ASyncObject7IsValidEv
  21              		.thumb
  22              		.thumb_func
  24              	_ZNK11ASyncObject7IsValidEv:
  25              	.LFB111:
  26              		.file 1 "../FreeRTOS_EC/Source/ASyncObject.h"
   1:../FreeRTOS_EC/Source/ASyncObject.h **** /**
   2:../FreeRTOS_EC/Source/ASyncObject.h ****  * @file   ASyncObject.h
   3:../FreeRTOS_EC/Source/ASyncObject.h ****  * @class  ASyncObject
   4:../FreeRTOS_EC/Source/ASyncObject.h ****  * @ingroup FreeRTOS_Wrapper
   5:../FreeRTOS_EC/Source/ASyncObject.h ****  *
   6:../FreeRTOS_EC/Source/ASyncObject.h ****  * Abstract base class for all task synchronization object.
   7:../FreeRTOS_EC/Source/ASyncObject.h ****  *
   8:../FreeRTOS_EC/Source/ASyncObject.h ****  * @date   Jul 13, 2010
   9:../FreeRTOS_EC/Source/ASyncObject.h ****  * @author Stefano Oliveri (STF12.net)
  10:../FreeRTOS_EC/Source/ASyncObject.h ****  *         E-Mail: software@stf12.net
  11:../FreeRTOS_EC/Source/ASyncObject.h ****  */
  12:../FreeRTOS_EC/Source/ASyncObject.h **** 
  13:../FreeRTOS_EC/Source/ASyncObject.h **** #ifndef ASEMAPHORE_H_
  14:../FreeRTOS_EC/Source/ASyncObject.h **** #define ASEMAPHORE_H_
  15:../FreeRTOS_EC/Source/ASyncObject.h **** 
  16:../FreeRTOS_EC/Source/ASyncObject.h **** #include "FreeRTOS.h"
  17:../FreeRTOS_EC/Source/ASyncObject.h **** #include "semphr.h"
  18:../FreeRTOS_EC/Source/ASyncObject.h **** #include "IFreeRTOSProtocol.h"
  19:../FreeRTOS_EC/Source/ASyncObject.h **** 
  20:../FreeRTOS_EC/Source/ASyncObject.h **** class ASyncObject: public IFreeRTOSObj {
  21:../FreeRTOS_EC/Source/ASyncObject.h **** protected:
  22:../FreeRTOS_EC/Source/ASyncObject.h ****     xSemaphoreHandle m_handleSemaphore;
  23:../FreeRTOS_EC/Source/ASyncObject.h **** 
  24:../FreeRTOS_EC/Source/ASyncObject.h **** public:
  25:../FreeRTOS_EC/Source/ASyncObject.h **** 	ASyncObject();
  26:../FreeRTOS_EC/Source/ASyncObject.h **** 	virtual ~ASyncObject();
  27:../FreeRTOS_EC/Source/ASyncObject.h **** 
  28:../FreeRTOS_EC/Source/ASyncObject.h **** 	inline operator xSemaphoreHandle() const { return m_handleSemaphore; }
  29:../FreeRTOS_EC/Source/ASyncObject.h **** 
  30:../FreeRTOS_EC/Source/ASyncObject.h **** 	void Delete();
  31:../FreeRTOS_EC/Source/ASyncObject.h **** 	inline bool IsValid()const;
  32:../FreeRTOS_EC/Source/ASyncObject.h **** 	void Attach(xGenericHandle handle);
  33:../FreeRTOS_EC/Source/ASyncObject.h **** 	inline xGenericHandle Detach();
  34:../FreeRTOS_EC/Source/ASyncObject.h **** 
  35:../FreeRTOS_EC/Source/ASyncObject.h **** 	virtual portBASE_TYPE Take(portTickType xBlockTime) =0;
  36:../FreeRTOS_EC/Source/ASyncObject.h **** 	virtual portBASE_TYPE Give() =0;
  37:../FreeRTOS_EC/Source/ASyncObject.h **** };
  38:../FreeRTOS_EC/Source/ASyncObject.h **** 
  39:../FreeRTOS_EC/Source/ASyncObject.h **** // inline method
  40:../FreeRTOS_EC/Source/ASyncObject.h **** 
  41:../FreeRTOS_EC/Source/ASyncObject.h **** inline
  42:../FreeRTOS_EC/Source/ASyncObject.h **** bool ASyncObject::IsValid() const {
  27              		.loc 1 42 0
  28              		.cfi_startproc
  29              		@ args = 0, pretend = 0, frame = 8
  30              		@ frame_needed = 1, uses_anonymous_args = 0
  31              		@ link register save eliminated.
  32 0000 80B4     		push	{r7}
  33              	.LCFI0:
  34              		.cfi_def_cfa_offset 4
  35              		.cfi_offset 7, -4
  36 0002 83B0     		sub	sp, sp, #12
  37              	.LCFI1:
  38              		.cfi_def_cfa_offset 16
  39 0004 00AF     		add	r7, sp, #0
  40              	.LCFI2:
  41              		.cfi_def_cfa_register 7
  42 0006 7860     		str	r0, [r7, #4]
  43:../FreeRTOS_EC/Source/ASyncObject.h **** 	return m_handleSemaphore != NULL;
  43              		.loc 1 43 0
  44 0008 7B68     		ldr	r3, [r7, #4]
  45 000a 5B68     		ldr	r3, [r3, #4]
  46 000c 002B     		cmp	r3, #0
  47 000e 0CBF     		ite	eq
  48 0010 0023     		moveq	r3, #0
  49 0012 0123     		movne	r3, #1
  50 0014 DBB2     		uxtb	r3, r3
  44:../FreeRTOS_EC/Source/ASyncObject.h **** }
  51              		.loc 1 44 0
  52 0016 1846     		mov	r0, r3
  53 0018 07F10C07 		add	r7, r7, #12
  54 001c BD46     		mov	sp, r7
  55 001e 80BC     		pop	{r7}
  56 0020 7047     		bx	lr
  57              		.cfi_endproc
  58              	.LFE111:
  60 0022 00BF     		.section	.text._ZN11ASyncObject6DetachEv,"axG",%progbits,_ZN11ASyncObject6DetachEv,comdat
  61              		.align	2
  62              		.weak	_ZN11ASyncObject6DetachEv
  63              		.thumb
  64              		.thumb_func
  66              	_ZN11ASyncObject6DetachEv:
  67              	.LFB112:
  45:../FreeRTOS_EC/Source/ASyncObject.h **** 
  46:../FreeRTOS_EC/Source/ASyncObject.h **** inline
  47:../FreeRTOS_EC/Source/ASyncObject.h **** xGenericHandle ASyncObject::Detach() {
  68              		.loc 1 47 0
  69              		.cfi_startproc
  70              		@ args = 0, pretend = 0, frame = 16
  71              		@ frame_needed = 1, uses_anonymous_args = 0
  72              		@ link register save eliminated.
  73 0000 80B4     		push	{r7}
  74              	.LCFI3:
  75              		.cfi_def_cfa_offset 4
  76              		.cfi_offset 7, -4
  77 0002 85B0     		sub	sp, sp, #20
  78              	.LCFI4:
  79              		.cfi_def_cfa_offset 24
  80 0004 00AF     		add	r7, sp, #0
  81              	.LCFI5:
  82              		.cfi_def_cfa_register 7
  83 0006 7860     		str	r0, [r7, #4]
  84              	.LBB2:
  48:../FreeRTOS_EC/Source/ASyncObject.h **** 	xSemaphoreHandle res = m_handleSemaphore;
  85              		.loc 1 48 0
  86 0008 7B68     		ldr	r3, [r7, #4]
  87 000a 5B68     		ldr	r3, [r3, #4]
  88 000c FB60     		str	r3, [r7, #12]
  49:../FreeRTOS_EC/Source/ASyncObject.h **** 	m_handleSemaphore = NULL;
  89              		.loc 1 49 0
  90 000e 7B68     		ldr	r3, [r7, #4]
  91 0010 4FF00002 		mov	r2, #0
  92 0014 5A60     		str	r2, [r3, #4]
  50:../FreeRTOS_EC/Source/ASyncObject.h **** 	return res;
  93              		.loc 1 50 0
  94 0016 FB68     		ldr	r3, [r7, #12]
  95              	.LBE2:
  51:../FreeRTOS_EC/Source/ASyncObject.h **** }
  96              		.loc 1 51 0
  97 0018 1846     		mov	r0, r3
  98 001a 07F11407 		add	r7, r7, #20
  99 001e BD46     		mov	sp, r7
 100 0020 80BC     		pop	{r7}
 101 0022 7047     		bx	lr
 102              		.cfi_endproc
 103              	.LFE112:
 105              		.section	.rodata
 106              		.align	2
 107              	.LC0:
 108 0000 2E2E2F46 		.ascii	"../FreeRTOS_EC/Source/CCountingSemaphore.h\000"
 108      72656552 
 108      544F535F 
 108      45432F53 
 108      6F757263 
 109 002b 00       		.align	2
 110              	.LC1:
 111 002c 49735661 		.ascii	"IsValid()\000"
 111      6C696428 
 111      2900
 112 0036 0000     		.section	.text._ZN18CCountingSemaphore4TakeEm,"axG",%progbits,_ZN18CCountingSemaphore4TakeEm,comda
 113              		.align	2
 114              		.weak	_ZN18CCountingSemaphore4TakeEm
 115              		.thumb
 116              		.thumb_func
 118              	_ZN18CCountingSemaphore4TakeEm:
 119              	.LFB113:
 120              		.file 2 "../FreeRTOS_EC/Source/CCountingSemaphore.h"
   1:../FreeRTOS_EC/Source/CCountingSemaphore.h **** /**
   2:../FreeRTOS_EC/Source/CCountingSemaphore.h ****  * @file CCountingSemaphore.h
   3:../FreeRTOS_EC/Source/CCountingSemaphore.h ****  * @class CCountingSemaphore
   4:../FreeRTOS_EC/Source/CCountingSemaphore.h ****  * @ingroup FreeRTOS_Wrapper
   5:../FreeRTOS_EC/Source/CCountingSemaphore.h ****  *
   6:../FreeRTOS_EC/Source/CCountingSemaphore.h ****  * The CCountingSemaphore class wraps a native FreeRTOS counting semaphore handle (xSemaphoreHandle
   7:../FreeRTOS_EC/Source/CCountingSemaphore.h ****  * To create a counting semaphore instance an object of this class and then call its CCountingSemap
   8:../FreeRTOS_EC/Source/CCountingSemaphore.h ****  * like showed in the following sample:
   9:../FreeRTOS_EC/Source/CCountingSemaphore.h ****  * \code
  10:../FreeRTOS_EC/Source/CCountingSemaphore.h ****  * CCountingSemaphore g_aSemaphore // global semaphore declaration.
  11:../FreeRTOS_EC/Source/CCountingSemaphore.h ****  *
  12:../FreeRTOS_EC/Source/CCountingSemaphore.h ****  * void taskControlFunc(void *pParams) // a task control loop
  13:../FreeRTOS_EC/Source/CCountingSemaphore.h ****  * {
  14:../FreeRTOS_EC/Source/CCountingSemaphore.h ****  * 	g_aSemaphore.Create(10, 0);
  15:../FreeRTOS_EC/Source/CCountingSemaphore.h ****  *
  16:../FreeRTOS_EC/Source/CCountingSemaphore.h ****  * 	for (;;) {
  17:../FreeRTOS_EC/Source/CCountingSemaphore.h ****  * 		while (g_aSemaphore.Take(portMAX_DELAY) != pdTRUE) {
  18:../FreeRTOS_EC/Source/CCountingSemaphore.h ****  * 		// do something
  19:../FreeRTOS_EC/Source/CCountingSemaphore.h ****  * 		}
  20:../FreeRTOS_EC/Source/CCountingSemaphore.h ****  * }
  21:../FreeRTOS_EC/Source/CCountingSemaphore.h ****  * \endcode
  22:../FreeRTOS_EC/Source/CCountingSemaphore.h ****  *
  23:../FreeRTOS_EC/Source/CCountingSemaphore.h ****  * \sa <a href="http://www.freertos.org/Inter-Task-Communication.html#Counting">counting semaphore 
  24:../FreeRTOS_EC/Source/CCountingSemaphore.h ****  *
  25:../FreeRTOS_EC/Source/CCountingSemaphore.h ****  * @date Jul 13, 2010
  26:../FreeRTOS_EC/Source/CCountingSemaphore.h ****  * @date Stefano Oliveri (STF12.net)
  27:../FreeRTOS_EC/Source/CCountingSemaphore.h ****  *       E-Mail: software@stf12.net
  28:../FreeRTOS_EC/Source/CCountingSemaphore.h ****  */
  29:../FreeRTOS_EC/Source/CCountingSemaphore.h **** 
  30:../FreeRTOS_EC/Source/CCountingSemaphore.h **** 
  31:../FreeRTOS_EC/Source/CCountingSemaphore.h **** #ifndef CCOUNTINGSEMAPHORE_H_
  32:../FreeRTOS_EC/Source/CCountingSemaphore.h **** #define CCOUNTINGSEMAPHORE_H_
  33:../FreeRTOS_EC/Source/CCountingSemaphore.h **** 
  34:../FreeRTOS_EC/Source/CCountingSemaphore.h **** #include <assert.h>
  35:../FreeRTOS_EC/Source/CCountingSemaphore.h **** #include "ASyncObject.h"
  36:../FreeRTOS_EC/Source/CCountingSemaphore.h **** 
  37:../FreeRTOS_EC/Source/CCountingSemaphore.h **** class CCountingSemaphore: public ASyncObject {
  38:../FreeRTOS_EC/Source/CCountingSemaphore.h **** public:
  39:../FreeRTOS_EC/Source/CCountingSemaphore.h **** 
  40:../FreeRTOS_EC/Source/CCountingSemaphore.h **** 	/**
  41:../FreeRTOS_EC/Source/CCountingSemaphore.h **** 	 * Default constructor. It initializes the object without attaching it to a native FreeRTOS handle
  42:../FreeRTOS_EC/Source/CCountingSemaphore.h **** 	 * Call the Create method to allocate a counting semaphore handle and attach it to the object.
  43:../FreeRTOS_EC/Source/CCountingSemaphore.h **** 	 */
  44:../FreeRTOS_EC/Source/CCountingSemaphore.h **** 	CCountingSemaphore();
  45:../FreeRTOS_EC/Source/CCountingSemaphore.h **** 
  46:../FreeRTOS_EC/Source/CCountingSemaphore.h **** 	/**
  47:../FreeRTOS_EC/Source/CCountingSemaphore.h **** 	 * Create a counting semaphore instance and attach it to a valid handle.
  48:../FreeRTOS_EC/Source/CCountingSemaphore.h **** 	 *
  49:../FreeRTOS_EC/Source/CCountingSemaphore.h **** 	 * @param handleSemaphore a valid counting semaphore handle.
  50:../FreeRTOS_EC/Source/CCountingSemaphore.h **** 	 */
  51:../FreeRTOS_EC/Source/CCountingSemaphore.h **** 	CCountingSemaphore(xSemaphoreHandle handleSemaphore);
  52:../FreeRTOS_EC/Source/CCountingSemaphore.h **** 
  53:../FreeRTOS_EC/Source/CCountingSemaphore.h **** 	/**
  54:../FreeRTOS_EC/Source/CCountingSemaphore.h **** 	 * Destructor. It deletes the native FreeRTOS counting semaphore.
  55:../FreeRTOS_EC/Source/CCountingSemaphore.h **** 	 */
  56:../FreeRTOS_EC/Source/CCountingSemaphore.h **** 	virtual ~CCountingSemaphore();
  57:../FreeRTOS_EC/Source/CCountingSemaphore.h **** 
  58:../FreeRTOS_EC/Source/CCountingSemaphore.h **** 	/**
  59:../FreeRTOS_EC/Source/CCountingSemaphore.h **** 	 * Create a FreeRTOS counting semaphore and attach its handle to the receiver object.
  60:../FreeRTOS_EC/Source/CCountingSemaphore.h **** 	 *
  61:../FreeRTOS_EC/Source/CCountingSemaphore.h **** 	 * @return true if the mutex is created with success, false otherwise.
  62:../FreeRTOS_EC/Source/CCountingSemaphore.h **** 	 *
  63:../FreeRTOS_EC/Source/CCountingSemaphore.h **** 	 * \sa <a href="http://www.freertos.org/CreateCounting.html">xSemaphoreCreateCounting</a> FreeRTOS
  64:../FreeRTOS_EC/Source/CCountingSemaphore.h **** 	 */
  65:../FreeRTOS_EC/Source/CCountingSemaphore.h **** 	bool Create(unsigned portBASE_TYPE uxMaxCount, unsigned portBASE_TYPE uxInitialCount);
  66:../FreeRTOS_EC/Source/CCountingSemaphore.h **** 
  67:../FreeRTOS_EC/Source/CCountingSemaphore.h **** 	/**
  68:../FreeRTOS_EC/Source/CCountingSemaphore.h **** 	 *  \sa <a href="http://www.freertos.org/a00122.html">xSemaphoreTake</a> FreeRTOS API function.
  69:../FreeRTOS_EC/Source/CCountingSemaphore.h **** 	 */
  70:../FreeRTOS_EC/Source/CCountingSemaphore.h **** 	inline portBASE_TYPE Take(portTickType xBlockTime);
  71:../FreeRTOS_EC/Source/CCountingSemaphore.h **** 
  72:../FreeRTOS_EC/Source/CCountingSemaphore.h **** 	/**
  73:../FreeRTOS_EC/Source/CCountingSemaphore.h **** 	 * \sa <a href="http://www.freertos.org/a00123.html">xSemaphoreGive</a> FreeRTOS API function.
  74:../FreeRTOS_EC/Source/CCountingSemaphore.h **** 	 */
  75:../FreeRTOS_EC/Source/CCountingSemaphore.h **** 	inline portBASE_TYPE Give();
  76:../FreeRTOS_EC/Source/CCountingSemaphore.h **** 
  77:../FreeRTOS_EC/Source/CCountingSemaphore.h **** 	/**
  78:../FreeRTOS_EC/Source/CCountingSemaphore.h **** 	 * \sa <a href="http://www.freertos.org/a00124.html">xSemaphoreGiveFromISR</a> FreeRTOS API functi
  79:../FreeRTOS_EC/Source/CCountingSemaphore.h **** 	 */
  80:../FreeRTOS_EC/Source/CCountingSemaphore.h **** 	inline portBASE_TYPE GiveFromISR(signed portBASE_TYPE *pxHigherPriorityTaskWoken);
  81:../FreeRTOS_EC/Source/CCountingSemaphore.h **** };
  82:../FreeRTOS_EC/Source/CCountingSemaphore.h **** 
  83:../FreeRTOS_EC/Source/CCountingSemaphore.h **** 
  84:../FreeRTOS_EC/Source/CCountingSemaphore.h **** // inline methods implementation
  85:../FreeRTOS_EC/Source/CCountingSemaphore.h **** 
  86:../FreeRTOS_EC/Source/CCountingSemaphore.h **** inline
  87:../FreeRTOS_EC/Source/CCountingSemaphore.h **** portBASE_TYPE CCountingSemaphore::Take(portTickType xBlockTime) {
 121              		.loc 2 87 0
 122              		.cfi_startproc
 123              		@ args = 0, pretend = 0, frame = 8
 124              		@ frame_needed = 1, uses_anonymous_args = 0
 125 0000 80B5     		push	{r7, lr}
 126              	.LCFI6:
 127              		.cfi_def_cfa_offset 8
 128              		.cfi_offset 14, -4
 129              		.cfi_offset 7, -8
 130 0002 82B0     		sub	sp, sp, #8
 131              	.LCFI7:
 132              		.cfi_def_cfa_offset 16
 133 0004 00AF     		add	r7, sp, #0
 134              	.LCFI8:
 135              		.cfi_def_cfa_register 7
 136 0006 7860     		str	r0, [r7, #4]
 137 0008 3960     		str	r1, [r7, #0]
 138              	.LBB3:
  88:../FreeRTOS_EC/Source/CCountingSemaphore.h **** 	assert(IsValid());
 139              		.loc 2 88 0
 140 000a 7B68     		ldr	r3, [r7, #4]
 141 000c 1B68     		ldr	r3, [r3, #0]
 142 000e 1B68     		ldr	r3, [r3, #0]
 143 0010 7A68     		ldr	r2, [r7, #4]
 144 0012 1046     		mov	r0, r2
 145 0014 9847     		blx	r3
 146 0016 0346     		mov	r3, r0
 147 0018 002B     		cmp	r3, #0
 148 001a 0FD1     		bne	.L4
 149              		.loc 2 88 0 is_stmt 0 discriminator 1
 150 001c 40F20000 		movw	r0, #:lower16:.LC0
 151 0020 C0F20000 		movt	r0, #:upper16:.LC0
 152 0024 4FF05801 		mov	r1, #88
 153 0028 40F20002 		movw	r2, #:lower16:_ZZN18CCountingSemaphore4TakeEmE19__PRETTY_FUNCTION__
 154 002c C0F20002 		movt	r2, #:upper16:_ZZN18CCountingSemaphore4TakeEmE19__PRETTY_FUNCTION__
 155 0030 40F20003 		movw	r3, #:lower16:.LC1
 156 0034 C0F20003 		movt	r3, #:upper16:.LC1
 157 0038 FFF7FEFF 		bl	__assert_func
 158              	.L4:
  89:../FreeRTOS_EC/Source/CCountingSemaphore.h **** 
  90:../FreeRTOS_EC/Source/CCountingSemaphore.h **** 	return xSemaphoreTake(m_handleSemaphore, xBlockTime);
 159              		.loc 2 90 0 is_stmt 1
 160 003c 7B68     		ldr	r3, [r7, #4]
 161 003e 5B68     		ldr	r3, [r3, #4]
 162 0040 1846     		mov	r0, r3
 163 0042 4FF00001 		mov	r1, #0
 164 0046 3A68     		ldr	r2, [r7, #0]
 165 0048 4FF00003 		mov	r3, #0
 166 004c FFF7FEFF 		bl	xQueueGenericReceive
 167 0050 0346     		mov	r3, r0
 168              	.LBE3:
  91:../FreeRTOS_EC/Source/CCountingSemaphore.h **** }
 169              		.loc 2 91 0
 170 0052 1846     		mov	r0, r3
 171 0054 07F10807 		add	r7, r7, #8
 172 0058 BD46     		mov	sp, r7
 173 005a 80BD     		pop	{r7, pc}
 174              		.cfi_endproc
 175              	.LFE113:
 177              		.section	.text._ZN18CCountingSemaphore4GiveEv,"axG",%progbits,_ZN18CCountingSemaphore4GiveEv,comda
 178              		.align	2
 179              		.weak	_ZN18CCountingSemaphore4GiveEv
 180              		.thumb
 181              		.thumb_func
 183              	_ZN18CCountingSemaphore4GiveEv:
 184              	.LFB114:
  92:../FreeRTOS_EC/Source/CCountingSemaphore.h **** 
  93:../FreeRTOS_EC/Source/CCountingSemaphore.h **** inline
  94:../FreeRTOS_EC/Source/CCountingSemaphore.h **** portBASE_TYPE CCountingSemaphore::Give() {
 185              		.loc 2 94 0
 186              		.cfi_startproc
 187              		@ args = 0, pretend = 0, frame = 8
 188              		@ frame_needed = 1, uses_anonymous_args = 0
 189 0000 80B5     		push	{r7, lr}
 190              	.LCFI9:
 191              		.cfi_def_cfa_offset 8
 192              		.cfi_offset 14, -4
 193              		.cfi_offset 7, -8
 194 0002 82B0     		sub	sp, sp, #8
 195              	.LCFI10:
 196              		.cfi_def_cfa_offset 16
 197 0004 00AF     		add	r7, sp, #0
 198              	.LCFI11:
 199              		.cfi_def_cfa_register 7
 200 0006 7860     		str	r0, [r7, #4]
 201              	.LBB4:
  95:../FreeRTOS_EC/Source/CCountingSemaphore.h **** 	assert(IsValid());
 202              		.loc 2 95 0
 203 0008 7B68     		ldr	r3, [r7, #4]
 204 000a 1B68     		ldr	r3, [r3, #0]
 205 000c 1B68     		ldr	r3, [r3, #0]
 206 000e 7A68     		ldr	r2, [r7, #4]
 207 0010 1046     		mov	r0, r2
 208 0012 9847     		blx	r3
 209 0014 0346     		mov	r3, r0
 210 0016 002B     		cmp	r3, #0
 211 0018 0FD1     		bne	.L6
 212              		.loc 2 95 0 is_stmt 0 discriminator 1
 213 001a 40F20000 		movw	r0, #:lower16:.LC0
 214 001e C0F20000 		movt	r0, #:upper16:.LC0
 215 0022 4FF05F01 		mov	r1, #95
 216 0026 40F20002 		movw	r2, #:lower16:_ZZN18CCountingSemaphore4GiveEvE19__PRETTY_FUNCTION__
 217 002a C0F20002 		movt	r2, #:upper16:_ZZN18CCountingSemaphore4GiveEvE19__PRETTY_FUNCTION__
 218 002e 40F20003 		movw	r3, #:lower16:.LC1
 219 0032 C0F20003 		movt	r3, #:upper16:.LC1
 220 0036 FFF7FEFF 		bl	__assert_func
 221              	.L6:
  96:../FreeRTOS_EC/Source/CCountingSemaphore.h **** 
  97:../FreeRTOS_EC/Source/CCountingSemaphore.h **** 	return xSemaphoreGive(m_handleSemaphore);
 222              		.loc 2 97 0 is_stmt 1
 223 003a 7B68     		ldr	r3, [r7, #4]
 224 003c 5B68     		ldr	r3, [r3, #4]
 225 003e 1846     		mov	r0, r3
 226 0040 4FF00001 		mov	r1, #0
 227 0044 4FF00002 		mov	r2, #0
 228 0048 4FF00003 		mov	r3, #0
 229 004c FFF7FEFF 		bl	xQueueGenericSend
 230 0050 0346     		mov	r3, r0
 231              	.LBE4:
  98:../FreeRTOS_EC/Source/CCountingSemaphore.h **** }
 232              		.loc 2 98 0
 233 0052 1846     		mov	r0, r3
 234 0054 07F10807 		add	r7, r7, #8
 235 0058 BD46     		mov	sp, r7
 236 005a 80BD     		pop	{r7, pc}
 237              		.cfi_endproc
 238              	.LFE114:
 240              		.section	.text._ZN18CCountingSemaphoreC2Ev,"ax",%progbits
 241              		.align	2
 242              		.global	_ZN18CCountingSemaphoreC2Ev
 243              		.thumb
 244              		.thumb_func
 246              	_ZN18CCountingSemaphoreC2Ev:
 247              	.LFB117:
 248              		.file 3 "../FreeRTOS_EC/Source/CCountingSemaphore.cpp"
   1:../FreeRTOS_EC/Source/CCountingSemaphore.cpp **** /**
   2:../FreeRTOS_EC/Source/CCountingSemaphore.cpp ****  * CCountingSemaphore.cpp
   3:../FreeRTOS_EC/Source/CCountingSemaphore.cpp ****  *
   4:../FreeRTOS_EC/Source/CCountingSemaphore.cpp ****  *  Created on: Jul 13, 2010
   5:../FreeRTOS_EC/Source/CCountingSemaphore.cpp ****  *      Author: Stefano Oliveri (STF12.net)
   6:../FreeRTOS_EC/Source/CCountingSemaphore.cpp ****  *      E-Mail: software@stf12.net
   7:../FreeRTOS_EC/Source/CCountingSemaphore.cpp ****  */
   8:../FreeRTOS_EC/Source/CCountingSemaphore.cpp **** 
   9:../FreeRTOS_EC/Source/CCountingSemaphore.cpp **** #include "CCountingSemaphore.h"
  10:../FreeRTOS_EC/Source/CCountingSemaphore.cpp **** #include <assert.h>
  11:../FreeRTOS_EC/Source/CCountingSemaphore.cpp **** 
  12:../FreeRTOS_EC/Source/CCountingSemaphore.cpp **** CCountingSemaphore::CCountingSemaphore() {
 249              		.loc 3 12 0
 250              		.cfi_startproc
 251              		@ args = 0, pretend = 0, frame = 8
 252              		@ frame_needed = 1, uses_anonymous_args = 0
 253 0000 80B5     		push	{r7, lr}
 254              	.LCFI12:
 255              		.cfi_def_cfa_offset 8
 256              		.cfi_offset 14, -4
 257              		.cfi_offset 7, -8
 258 0002 82B0     		sub	sp, sp, #8
 259              	.LCFI13:
 260              		.cfi_def_cfa_offset 16
 261 0004 00AF     		add	r7, sp, #0
 262              	.LCFI14:
 263              		.cfi_def_cfa_register 7
 264 0006 7860     		str	r0, [r7, #4]
 265              	.LBB5:
 266              		.loc 3 12 0
 267 0008 7B68     		ldr	r3, [r7, #4]
 268 000a 1846     		mov	r0, r3
 269 000c FFF7FEFF 		bl	_ZN11ASyncObjectC2Ev
 270 0010 7B68     		ldr	r3, [r7, #4]
 271 0012 044A     		ldr	r2, .L9
 272 0014 1A60     		str	r2, [r3, #0]
 273              	.LBE5:
  13:../FreeRTOS_EC/Source/CCountingSemaphore.cpp **** 	// TODO Auto-generated constructor stub
  14:../FreeRTOS_EC/Source/CCountingSemaphore.cpp **** 
  15:../FreeRTOS_EC/Source/CCountingSemaphore.cpp **** }
 274              		.loc 3 15 0
 275 0016 7B68     		ldr	r3, [r7, #4]
 276 0018 1846     		mov	r0, r3
 277 001a 07F10807 		add	r7, r7, #8
 278 001e BD46     		mov	sp, r7
 279 0020 80BD     		pop	{r7, pc}
 280              	.L10:
 281 0022 00BF     		.align	2
 282              	.L9:
 283 0024 08000000 		.word	_ZTV18CCountingSemaphore+8
 284              		.cfi_endproc
 285              	.LFE117:
 287              		.section	.text._ZN18CCountingSemaphoreD2Ev,"ax",%progbits
 288              		.align	2
 289              		.global	_ZN18CCountingSemaphoreD2Ev
 290              		.thumb
 291              		.thumb_func
 293              	_ZN18CCountingSemaphoreD2Ev:
 294              	.LFB120:
  16:../FreeRTOS_EC/Source/CCountingSemaphore.cpp **** 
  17:../FreeRTOS_EC/Source/CCountingSemaphore.cpp **** CCountingSemaphore::~CCountingSemaphore() {
 295              		.loc 3 17 0
 296              		.cfi_startproc
 297              		@ args = 0, pretend = 0, frame = 8
 298              		@ frame_needed = 1, uses_anonymous_args = 0
 299 0000 80B5     		push	{r7, lr}
 300              	.LCFI15:
 301              		.cfi_def_cfa_offset 8
 302              		.cfi_offset 14, -4
 303              		.cfi_offset 7, -8
 304 0002 82B0     		sub	sp, sp, #8
 305              	.LCFI16:
 306              		.cfi_def_cfa_offset 16
 307 0004 00AF     		add	r7, sp, #0
 308              	.LCFI17:
 309              		.cfi_def_cfa_register 7
 310 0006 7860     		str	r0, [r7, #4]
 311              	.LBB6:
 312              		.loc 3 17 0
 313 0008 7B68     		ldr	r3, [r7, #4]
 314 000a 0A4A     		ldr	r2, .L14
 315 000c 1A60     		str	r2, [r3, #0]
  18:../FreeRTOS_EC/Source/CCountingSemaphore.cpp **** 	// TODO Auto-generated destructor stub
  19:../FreeRTOS_EC/Source/CCountingSemaphore.cpp **** }
 316              		.loc 3 19 0
 317 000e 7868     		ldr	r0, [r7, #4]
 318 0010 FFF7FEFF 		bl	_ZN11ASyncObjectD2Ev
 319              	.LBE6:
 320 0014 4FF00003 		mov	r3, #0
 321 0018 03F00103 		and	r3, r3, #1
 322 001c DBB2     		uxtb	r3, r3
 323 001e 002B     		cmp	r3, #0
 324 0020 02D0     		beq	.L13
 325              		.loc 3 19 0 is_stmt 0 discriminator 2
 326 0022 7868     		ldr	r0, [r7, #4]
 327 0024 FFF7FEFF 		bl	_ZdlPv
 328              	.L13:
 329              		.loc 3 19 0 discriminator 3
 330 0028 7B68     		ldr	r3, [r7, #4]
 331 002a 1846     		mov	r0, r3
 332 002c 07F10807 		add	r7, r7, #8
 333 0030 BD46     		mov	sp, r7
 334 0032 80BD     		pop	{r7, pc}
 335              	.L15:
 336              		.align	2
 337              	.L14:
 338 0034 08000000 		.word	_ZTV18CCountingSemaphore+8
 339              		.cfi_endproc
 340              	.LFE120:
 342              		.section	.text._ZN18CCountingSemaphoreD0Ev,"ax",%progbits
 343              		.align	2
 344              		.global	_ZN18CCountingSemaphoreD0Ev
 345              		.thumb
 346              		.thumb_func
 348              	_ZN18CCountingSemaphoreD0Ev:
 349              	.LFB122:
  17:../FreeRTOS_EC/Source/CCountingSemaphore.cpp **** CCountingSemaphore::~CCountingSemaphore() {
 350              		.loc 3 17 0 is_stmt 1
 351              		.cfi_startproc
 352              		@ args = 0, pretend = 0, frame = 8
 353              		@ frame_needed = 1, uses_anonymous_args = 0
 354 0000 80B5     		push	{r7, lr}
 355              	.LCFI18:
 356              		.cfi_def_cfa_offset 8
 357              		.cfi_offset 14, -4
 358              		.cfi_offset 7, -8
 359 0002 82B0     		sub	sp, sp, #8
 360              	.LCFI19:
 361              		.cfi_def_cfa_offset 16
 362 0004 00AF     		add	r7, sp, #0
 363              	.LCFI20:
 364              		.cfi_def_cfa_register 7
 365 0006 7860     		str	r0, [r7, #4]
 366              		.loc 3 19 0
 367 0008 7868     		ldr	r0, [r7, #4]
 368 000a FFF7FEFF 		bl	_ZN18CCountingSemaphoreD1Ev
 369 000e 7868     		ldr	r0, [r7, #4]
 370 0010 FFF7FEFF 		bl	_ZdlPv
 371 0014 7B68     		ldr	r3, [r7, #4]
 372 0016 1846     		mov	r0, r3
 373 0018 07F10807 		add	r7, r7, #8
 374 001c BD46     		mov	sp, r7
 375 001e 80BD     		pop	{r7, pc}
 376              		.cfi_endproc
 377              	.LFE122:
 379              		.section	.text._ZN18CCountingSemaphoreC2EPv,"ax",%progbits
 380              		.align	2
 381              		.global	_ZN18CCountingSemaphoreC2EPv
 382              		.thumb
 383              		.thumb_func
 385              	_ZN18CCountingSemaphoreC2EPv:
 386              	.LFB124:
  20:../FreeRTOS_EC/Source/CCountingSemaphore.cpp **** 
  21:../FreeRTOS_EC/Source/CCountingSemaphore.cpp **** CCountingSemaphore::CCountingSemaphore(xSemaphoreHandle handleSemaphore) {
 387              		.loc 3 21 0
 388              		.cfi_startproc
 389              		@ args = 0, pretend = 0, frame = 8
 390              		@ frame_needed = 1, uses_anonymous_args = 0
 391 0000 80B5     		push	{r7, lr}
 392              	.LCFI21:
 393              		.cfi_def_cfa_offset 8
 394              		.cfi_offset 14, -4
 395              		.cfi_offset 7, -8
 396 0002 82B0     		sub	sp, sp, #8
 397              	.LCFI22:
 398              		.cfi_def_cfa_offset 16
 399 0004 00AF     		add	r7, sp, #0
 400              	.LCFI23:
 401              		.cfi_def_cfa_register 7
 402 0006 7860     		str	r0, [r7, #4]
 403 0008 3960     		str	r1, [r7, #0]
 404              	.LBB7:
 405              		.loc 3 21 0
 406 000a 7B68     		ldr	r3, [r7, #4]
 407 000c 1846     		mov	r0, r3
 408 000e FFF7FEFF 		bl	_ZN11ASyncObjectC2Ev
 409 0012 7B68     		ldr	r3, [r7, #4]
 410 0014 064A     		ldr	r2, .L20
 411 0016 1A60     		str	r2, [r3, #0]
  22:../FreeRTOS_EC/Source/CCountingSemaphore.cpp **** 	Attach(handleSemaphore);
 412              		.loc 3 22 0
 413 0018 7B68     		ldr	r3, [r7, #4]
 414 001a 1846     		mov	r0, r3
 415 001c 3968     		ldr	r1, [r7, #0]
 416 001e FFF7FEFF 		bl	_ZN11ASyncObject6AttachEPv
 417              	.LBE7:
  23:../FreeRTOS_EC/Source/CCountingSemaphore.cpp **** }
 418              		.loc 3 23 0
 419 0022 7B68     		ldr	r3, [r7, #4]
 420 0024 1846     		mov	r0, r3
 421 0026 07F10807 		add	r7, r7, #8
 422 002a BD46     		mov	sp, r7
 423 002c 80BD     		pop	{r7, pc}
 424              	.L21:
 425 002e 00BF     		.align	2
 426              	.L20:
 427 0030 08000000 		.word	_ZTV18CCountingSemaphore+8
 428              		.cfi_endproc
 429              	.LFE124:
 431              		.section	.text._ZN18CCountingSemaphore6CreateEmm,"ax",%progbits
 432              		.align	2
 433              		.global	_ZN18CCountingSemaphore6CreateEmm
 434              		.thumb
 435              		.thumb_func
 437              	_ZN18CCountingSemaphore6CreateEmm:
 438              	.LFB126:
  24:../FreeRTOS_EC/Source/CCountingSemaphore.cpp **** 
  25:../FreeRTOS_EC/Source/CCountingSemaphore.cpp **** bool CCountingSemaphore::Create(unsigned portBASE_TYPE uxMaxCount, unsigned portBASE_TYPE uxInitial
 439              		.loc 3 25 0
 440              		.cfi_startproc
 441              		@ args = 0, pretend = 0, frame = 16
 442              		@ frame_needed = 1, uses_anonymous_args = 0
 443 0000 80B5     		push	{r7, lr}
 444              	.LCFI24:
 445              		.cfi_def_cfa_offset 8
 446              		.cfi_offset 14, -4
 447              		.cfi_offset 7, -8
 448 0002 84B0     		sub	sp, sp, #16
 449              	.LCFI25:
 450              		.cfi_def_cfa_offset 24
 451 0004 00AF     		add	r7, sp, #0
 452              	.LCFI26:
 453              		.cfi_def_cfa_register 7
 454 0006 F860     		str	r0, [r7, #12]
 455 0008 B960     		str	r1, [r7, #8]
 456 000a 7A60     		str	r2, [r7, #4]
  26:../FreeRTOS_EC/Source/CCountingSemaphore.cpp **** 
  27:../FreeRTOS_EC/Source/CCountingSemaphore.cpp **** #if (configUSE_COUNTING_SEMAPHORES == 1)
  28:../FreeRTOS_EC/Source/CCountingSemaphore.cpp **** 	xSemaphoreHandle handle = NULL;
  29:../FreeRTOS_EC/Source/CCountingSemaphore.cpp **** 	handle = xSemaphoreCreateCounting(uxMaxCount, uxInitialCount);
  30:../FreeRTOS_EC/Source/CCountingSemaphore.cpp **** 
  31:../FreeRTOS_EC/Source/CCountingSemaphore.cpp **** 	if (handle != NULL)
  32:../FreeRTOS_EC/Source/CCountingSemaphore.cpp **** 		Attach(handle);
  33:../FreeRTOS_EC/Source/CCountingSemaphore.cpp **** #endif
  34:../FreeRTOS_EC/Source/CCountingSemaphore.cpp **** 
  35:../FreeRTOS_EC/Source/CCountingSemaphore.cpp **** 	return IsValid();
 457              		.loc 3 35 0
 458 000c FB68     		ldr	r3, [r7, #12]
 459 000e 1B68     		ldr	r3, [r3, #0]
 460 0010 1B68     		ldr	r3, [r3, #0]
 461 0012 FA68     		ldr	r2, [r7, #12]
 462 0014 1046     		mov	r0, r2
 463 0016 9847     		blx	r3
 464 0018 0346     		mov	r3, r0
  36:../FreeRTOS_EC/Source/CCountingSemaphore.cpp **** }
 465              		.loc 3 36 0
 466 001a 1846     		mov	r0, r3
 467 001c 07F11007 		add	r7, r7, #16
 468 0020 BD46     		mov	sp, r7
 469 0022 80BD     		pop	{r7, pc}
 470              		.cfi_endproc
 471              	.LFE126:
 473              		.global	_ZTV18CCountingSemaphore
 474              		.section	.rodata._ZTV18CCountingSemaphore,"a",%progbits
 475              		.align	3
 478              	_ZTV18CCountingSemaphore:
 479 0000 00000000 		.word	0
 480 0004 00000000 		.word	0
 481 0008 00000000 		.word	_ZNK11ASyncObject7IsValidEv
 482 000c 00000000 		.word	_ZN11ASyncObject6AttachEPv
 483 0010 00000000 		.word	_ZN11ASyncObject6DetachEv
 484 0014 00000000 		.word	_ZN18CCountingSemaphoreD1Ev
 485 0018 00000000 		.word	_ZN18CCountingSemaphoreD0Ev
 486 001c 00000000 		.word	_ZN18CCountingSemaphore4TakeEm
 487 0020 00000000 		.word	_ZN18CCountingSemaphore4GiveEv
 488 0024 00000000 		.section	.rodata._ZZN18CCountingSemaphore4GiveEvE19__PRETTY_FUNCTION__,"a",%progbits
 489              		.align	2
 492              	_ZZN18CCountingSemaphore4GiveEvE19__PRETTY_FUNCTION__:
 493 0000 76697274 		.ascii	"virtual long int CCountingSemaphore::Give()\000"
 493      75616C20 
 493      6C6F6E67 
 493      20696E74 
 493      2043436F 
 494              		.section	.rodata._ZZN18CCountingSemaphore4TakeEmE19__PRETTY_FUNCTION__,"a",%progbits
 495              		.align	2
 498              	_ZZN18CCountingSemaphore4TakeEmE19__PRETTY_FUNCTION__:
 499 0000 76697274 		.ascii	"virtual long int CCountingSemaphore::Take(portTickT"
 499      75616C20 
 499      6C6F6E67 
 499      20696E74 
 499      2043436F 
 500 0033 79706529 		.ascii	"ype)\000"
 500      00
 501              		.global	_ZN18CCountingSemaphoreC1Ev
 502              		.thumb_set _ZN18CCountingSemaphoreC1Ev,_ZN18CCountingSemaphoreC2Ev
 503              		.global	_ZN18CCountingSemaphoreD1Ev
 504              		.thumb_set _ZN18CCountingSemaphoreD1Ev,_ZN18CCountingSemaphoreD2Ev
 505              		.global	_ZN18CCountingSemaphoreC1EPv
 506              		.thumb_set _ZN18CCountingSemaphoreC1EPv,_ZN18CCountingSemaphoreC2EPv
 507              		.text
 508              	.Letext0:
 509              		.file 4 "e:/elektronik/toolchain/yagarto/lib/gcc/../../arm-none-eabi/sys-include/stdint.h"
 510              		.file 5 "E:\\Desktop\\thundercyer-the-alarm-clock\\FreeRTOS\\Source\\include/../../Source/portable
 511              		.file 6 "E:\\Desktop\\thundercyer-the-alarm-clock\\FreeRTOS\\Source\\include/queue.h"
 512              		.file 7 "E:\\Desktop\\thundercyer-the-alarm-clock\\FreeRTOS\\Source\\include/semphr.h"
 513              		.file 8 "../FreeRTOS_EC/Source/IFreeRTOSProtocol.h"
 514              		.file 9 "E:\\Desktop\\thundercyer-the-alarm-clock\\CMSIS\\Include/core_cm4.h"