   1              		.syntax unified
   2              		.cpu cortex-m4
   3              		.eabi_attribute 27, 3
   4              		.fpu fpv4-sp-d16
   5              		.eabi_attribute 20, 1
   6              		.eabi_attribute 21, 1
   7              		.eabi_attribute 23, 3
   8              		.eabi_attribute 24, 1
   9              		.eabi_attribute 25, 1
  10              		.eabi_attribute 26, 1
  11              		.eabi_attribute 30, 6
  12              		.eabi_attribute 18, 4
  13              		.thumb
  14              		.file	"CFreeRTOS.cpp"
  15              		.text
  16              	.Ltext0:
  17              		.cfi_sections	.debug_frame
  18              		.align	2
  19              		.global	_ZN9CFreeRTOSC2Ev
  20              		.thumb
  21              		.thumb_func
  23              	_ZN9CFreeRTOSC2Ev:
  24              	.LFB141:
  25              		.file 1 "../FreeRTOS_EC/Source/CFreeRTOS.cpp"
   1:../FreeRTOS_EC/Source/CFreeRTOS.cpp **** /**
   2:../FreeRTOS_EC/Source/CFreeRTOS.cpp ****  * CFreeRTOS.cpp
   3:../FreeRTOS_EC/Source/CFreeRTOS.cpp ****  *
   4:../FreeRTOS_EC/Source/CFreeRTOS.cpp ****  *  Created on: Jul 14, 2010
   5:../FreeRTOS_EC/Source/CFreeRTOS.cpp ****  *      Author: Stefano Oliveri (STF12.net)
   6:../FreeRTOS_EC/Source/CFreeRTOS.cpp ****  *      E-Mail: software@stf12.net
   7:../FreeRTOS_EC/Source/CFreeRTOS.cpp ****  */
   8:../FreeRTOS_EC/Source/CFreeRTOS.cpp **** 
   9:../FreeRTOS_EC/Source/CFreeRTOS.cpp **** #include "CFreeRTOS.h"
  10:../FreeRTOS_EC/Source/CFreeRTOS.cpp **** #include "AManagedTask.h"
  11:../FreeRTOS_EC/Source/CFreeRTOS.cpp **** 
  12:../FreeRTOS_EC/Source/CFreeRTOS.cpp **** CFreeRTOS::CFreeRTOS() {
  26              		.loc 1 12 0
  27              		.cfi_startproc
  28              		@ args = 0, pretend = 0, frame = 8
  29              		@ frame_needed = 1, uses_anonymous_args = 0
  30              		@ link register save eliminated.
  31 0000 80B4     		push	{r7}
  32              	.LCFI0:
  33              		.cfi_def_cfa_offset 4
  34              		.cfi_offset 7, -4
  35 0002 83B0     		sub	sp, sp, #12
  36              	.LCFI1:
  37              		.cfi_def_cfa_offset 16
  38 0004 00AF     		add	r7, sp, #0
  39              	.LCFI2:
  40              		.cfi_def_cfa_register 7
  41 0006 7860     		str	r0, [r7, #4]
  13:../FreeRTOS_EC/Source/CFreeRTOS.cpp **** 	// TODO Auto-generated constructor stub
  14:../FreeRTOS_EC/Source/CFreeRTOS.cpp **** 
  15:../FreeRTOS_EC/Source/CFreeRTOS.cpp **** }
  42              		.loc 1 15 0
  43 0008 7B68     		ldr	r3, [r7, #4]
  44 000a 1846     		mov	r0, r3
  45 000c 07F10C07 		add	r7, r7, #12
  46 0010 BD46     		mov	sp, r7
  47 0012 80BC     		pop	{r7}
  48 0014 7047     		bx	lr
  49              		.cfi_endproc
  50              	.LFE141:
  52 0016 00BF     		.align	2
  53              		.global	_ZN9CFreeRTOSD2Ev
  54              		.thumb
  55              		.thumb_func
  57              	_ZN9CFreeRTOSD2Ev:
  58              	.LFB144:
  16:../FreeRTOS_EC/Source/CFreeRTOS.cpp **** 
  17:../FreeRTOS_EC/Source/CFreeRTOS.cpp **** CFreeRTOS::~CFreeRTOS() {
  59              		.loc 1 17 0
  60              		.cfi_startproc
  61              		@ args = 0, pretend = 0, frame = 8
  62              		@ frame_needed = 1, uses_anonymous_args = 0
  63              		@ link register save eliminated.
  64 0018 80B4     		push	{r7}
  65              	.LCFI3:
  66              		.cfi_def_cfa_offset 4
  67              		.cfi_offset 7, -4
  68 001a 83B0     		sub	sp, sp, #12
  69              	.LCFI4:
  70              		.cfi_def_cfa_offset 16
  71 001c 00AF     		add	r7, sp, #0
  72              	.LCFI5:
  73              		.cfi_def_cfa_register 7
  74 001e 7860     		str	r0, [r7, #4]
  18:../FreeRTOS_EC/Source/CFreeRTOS.cpp **** 	// TODO Auto-generated destructor stub
  19:../FreeRTOS_EC/Source/CFreeRTOS.cpp **** }
  75              		.loc 1 19 0
  76 0020 7B68     		ldr	r3, [r7, #4]
  77 0022 1846     		mov	r0, r3
  78 0024 07F10C07 		add	r7, r7, #12
  79 0028 BD46     		mov	sp, r7
  80 002a 80BC     		pop	{r7}
  81 002c 7047     		bx	lr
  82              		.cfi_endproc
  83              	.LFE144:
  85 002e 00BF     		.align	2
  86              		.global	_ZN9CFreeRTOS27InitHardwareForManagedTasksEv
  87              		.thumb
  88              		.thumb_func
  90              	_ZN9CFreeRTOS27InitHardwareForManagedTasksEv:
  91              	.LFB146:
  20:../FreeRTOS_EC/Source/CFreeRTOS.cpp **** 
  21:../FreeRTOS_EC/Source/CFreeRTOS.cpp **** bool CFreeRTOS::InitHardwareForManagedTasks() {
  92              		.loc 1 21 0
  93              		.cfi_startproc
  94              		@ args = 0, pretend = 0, frame = 0
  95              		@ frame_needed = 1, uses_anonymous_args = 0
  96 0030 80B5     		push	{r7, lr}
  97              	.LCFI6:
  98              		.cfi_def_cfa_offset 8
  99              		.cfi_offset 14, -4
 100              		.cfi_offset 7, -8
 101 0032 00AF     		add	r7, sp, #0
 102              	.LCFI7:
 103              		.cfi_def_cfa_register 7
  22:../FreeRTOS_EC/Source/CFreeRTOS.cpp **** 	return AManagedTask::InitHardwareForManagedTasks();
 104              		.loc 1 22 0
 105 0034 FFF7FEFF 		bl	_ZN12AManagedTask27InitHardwareForManagedTasksEv
 106 0038 0346     		mov	r3, r0
  23:../FreeRTOS_EC/Source/CFreeRTOS.cpp **** }
 107              		.loc 1 23 0
 108 003a 1846     		mov	r0, r3
 109 003c 80BD     		pop	{r7, pc}
 110              		.cfi_endproc
 111              	.LFE146:
 113              		.global	_ZN9CFreeRTOSC1Ev
 114              		.thumb_set _ZN9CFreeRTOSC1Ev,_ZN9CFreeRTOSC2Ev
 115              		.global	_ZN9CFreeRTOSD1Ev
 116              		.thumb_set _ZN9CFreeRTOSD1Ev,_ZN9CFreeRTOSD2Ev
 117              	.Letext0:
 118              		.file 2 "../FreeRTOS_EC/Source/CFreeRTOS.h"
 119              		.file 3 "d:/elektronik/ides/eclipse/yagarto/lib/gcc/../../arm-none-eabi/sys-include/stdint.h"
 120              		.file 4 "C:\\Dokumente und Einstellungen\\brand\\Desktop\\thundercyer-the-alarm-clock\\CMSIS\\Incl