   1              		.syntax unified
   2              		.cpu cortex-m4
   3              		.eabi_attribute 27, 3
   4              		.fpu fpv4-sp-d16
   5              		.eabi_attribute 20, 1
   6              		.eabi_attribute 21, 1
   7              		.eabi_attribute 23, 3
   8              		.eabi_attribute 24, 1
   9              		.eabi_attribute 25, 1
  10              		.eabi_attribute 26, 1
  11              		.eabi_attribute 30, 6
  12              		.eabi_attribute 18, 4
  13              		.thumb
  14              		.file	"CMutex.cpp"
  15              		.text
  16              	.Ltext0:
  17              		.cfi_sections	.debug_frame
  18              		.section	.text._ZNK11ASyncObject7IsValidEv,"axG",%progbits,_ZNK11ASyncObject7IsValidEv,comdat
  19              		.align	2
  20              		.weak	_ZNK11ASyncObject7IsValidEv
  21              		.thumb
  22              		.thumb_func
  24              	_ZNK11ASyncObject7IsValidEv:
  25              	.LFB111:
  26              		.file 1 "../FreeRTOS_EC/Source/ASyncObject.h"
   1:../FreeRTOS_EC/Source/ASyncObject.h **** /**
   2:../FreeRTOS_EC/Source/ASyncObject.h ****  * @file   ASyncObject.h
   3:../FreeRTOS_EC/Source/ASyncObject.h ****  * @class  ASyncObject
   4:../FreeRTOS_EC/Source/ASyncObject.h ****  * @ingroup FreeRTOS_Wrapper
   5:../FreeRTOS_EC/Source/ASyncObject.h ****  *
   6:../FreeRTOS_EC/Source/ASyncObject.h ****  * Abstract base class for all task synchronization object.
   7:../FreeRTOS_EC/Source/ASyncObject.h ****  *
   8:../FreeRTOS_EC/Source/ASyncObject.h ****  * @date   Jul 13, 2010
   9:../FreeRTOS_EC/Source/ASyncObject.h ****  * @author Stefano Oliveri (STF12.net)
  10:../FreeRTOS_EC/Source/ASyncObject.h ****  *         E-Mail: software@stf12.net
  11:../FreeRTOS_EC/Source/ASyncObject.h ****  */
  12:../FreeRTOS_EC/Source/ASyncObject.h **** 
  13:../FreeRTOS_EC/Source/ASyncObject.h **** #ifndef ASEMAPHORE_H_
  14:../FreeRTOS_EC/Source/ASyncObject.h **** #define ASEMAPHORE_H_
  15:../FreeRTOS_EC/Source/ASyncObject.h **** 
  16:../FreeRTOS_EC/Source/ASyncObject.h **** #include "FreeRTOS.h"
  17:../FreeRTOS_EC/Source/ASyncObject.h **** #include "semphr.h"
  18:../FreeRTOS_EC/Source/ASyncObject.h **** #include "IFreeRTOSProtocol.h"
  19:../FreeRTOS_EC/Source/ASyncObject.h **** 
  20:../FreeRTOS_EC/Source/ASyncObject.h **** class ASyncObject: public IFreeRTOSObj {
  21:../FreeRTOS_EC/Source/ASyncObject.h **** protected:
  22:../FreeRTOS_EC/Source/ASyncObject.h ****     xSemaphoreHandle m_handleSemaphore;
  23:../FreeRTOS_EC/Source/ASyncObject.h **** 
  24:../FreeRTOS_EC/Source/ASyncObject.h **** public:
  25:../FreeRTOS_EC/Source/ASyncObject.h **** 	ASyncObject();
  26:../FreeRTOS_EC/Source/ASyncObject.h **** 	virtual ~ASyncObject();
  27:../FreeRTOS_EC/Source/ASyncObject.h **** 
  28:../FreeRTOS_EC/Source/ASyncObject.h **** 	inline operator xSemaphoreHandle() const { return m_handleSemaphore; }
  29:../FreeRTOS_EC/Source/ASyncObject.h **** 
  30:../FreeRTOS_EC/Source/ASyncObject.h **** 	void Delete();
  31:../FreeRTOS_EC/Source/ASyncObject.h **** 	inline bool IsValid()const;
  32:../FreeRTOS_EC/Source/ASyncObject.h **** 	void Attach(xGenericHandle handle);
  33:../FreeRTOS_EC/Source/ASyncObject.h **** 	inline xGenericHandle Detach();
  34:../FreeRTOS_EC/Source/ASyncObject.h **** 
  35:../FreeRTOS_EC/Source/ASyncObject.h **** 	virtual portBASE_TYPE Take(portTickType xBlockTime) =0;
  36:../FreeRTOS_EC/Source/ASyncObject.h **** 	virtual portBASE_TYPE Give() =0;
  37:../FreeRTOS_EC/Source/ASyncObject.h **** };
  38:../FreeRTOS_EC/Source/ASyncObject.h **** 
  39:../FreeRTOS_EC/Source/ASyncObject.h **** // inline method
  40:../FreeRTOS_EC/Source/ASyncObject.h **** 
  41:../FreeRTOS_EC/Source/ASyncObject.h **** inline
  42:../FreeRTOS_EC/Source/ASyncObject.h **** bool ASyncObject::IsValid() const {
  27              		.loc 1 42 0
  28              		.cfi_startproc
  29              		@ args = 0, pretend = 0, frame = 8
  30              		@ frame_needed = 1, uses_anonymous_args = 0
  31              		@ link register save eliminated.
  32 0000 80B4     		push	{r7}
  33              	.LCFI0:
  34              		.cfi_def_cfa_offset 4
  35              		.cfi_offset 7, -4
  36 0002 83B0     		sub	sp, sp, #12
  37              	.LCFI1:
  38              		.cfi_def_cfa_offset 16
  39 0004 00AF     		add	r7, sp, #0
  40              	.LCFI2:
  41              		.cfi_def_cfa_register 7
  42 0006 7860     		str	r0, [r7, #4]
  43:../FreeRTOS_EC/Source/ASyncObject.h **** 	return m_handleSemaphore != NULL;
  43              		.loc 1 43 0
  44 0008 7B68     		ldr	r3, [r7, #4]
  45 000a 5B68     		ldr	r3, [r3, #4]
  46 000c 002B     		cmp	r3, #0
  47 000e 0CBF     		ite	eq
  48 0010 0023     		moveq	r3, #0
  49 0012 0123     		movne	r3, #1
  50 0014 DBB2     		uxtb	r3, r3
  44:../FreeRTOS_EC/Source/ASyncObject.h **** }
  51              		.loc 1 44 0
  52 0016 1846     		mov	r0, r3
  53 0018 07F10C07 		add	r7, r7, #12
  54 001c BD46     		mov	sp, r7
  55 001e 80BC     		pop	{r7}
  56 0020 7047     		bx	lr
  57              		.cfi_endproc
  58              	.LFE111:
  60 0022 00BF     		.section	.text._ZN11ASyncObject6DetachEv,"axG",%progbits,_ZN11ASyncObject6DetachEv,comdat
  61              		.align	2
  62              		.weak	_ZN11ASyncObject6DetachEv
  63              		.thumb
  64              		.thumb_func
  66              	_ZN11ASyncObject6DetachEv:
  67              	.LFB112:
  45:../FreeRTOS_EC/Source/ASyncObject.h **** 
  46:../FreeRTOS_EC/Source/ASyncObject.h **** inline
  47:../FreeRTOS_EC/Source/ASyncObject.h **** xGenericHandle ASyncObject::Detach() {
  68              		.loc 1 47 0
  69              		.cfi_startproc
  70              		@ args = 0, pretend = 0, frame = 16
  71              		@ frame_needed = 1, uses_anonymous_args = 0
  72              		@ link register save eliminated.
  73 0000 80B4     		push	{r7}
  74              	.LCFI3:
  75              		.cfi_def_cfa_offset 4
  76              		.cfi_offset 7, -4
  77 0002 85B0     		sub	sp, sp, #20
  78              	.LCFI4:
  79              		.cfi_def_cfa_offset 24
  80 0004 00AF     		add	r7, sp, #0
  81              	.LCFI5:
  82              		.cfi_def_cfa_register 7
  83 0006 7860     		str	r0, [r7, #4]
  84              	.LBB2:
  48:../FreeRTOS_EC/Source/ASyncObject.h **** 	xSemaphoreHandle res = m_handleSemaphore;
  85              		.loc 1 48 0
  86 0008 7B68     		ldr	r3, [r7, #4]
  87 000a 5B68     		ldr	r3, [r3, #4]
  88 000c FB60     		str	r3, [r7, #12]
  49:../FreeRTOS_EC/Source/ASyncObject.h **** 	m_handleSemaphore = NULL;
  89              		.loc 1 49 0
  90 000e 7B68     		ldr	r3, [r7, #4]
  91 0010 4FF00002 		mov	r2, #0
  92 0014 5A60     		str	r2, [r3, #4]
  50:../FreeRTOS_EC/Source/ASyncObject.h **** 	return res;
  93              		.loc 1 50 0
  94 0016 FB68     		ldr	r3, [r7, #12]
  95              	.LBE2:
  51:../FreeRTOS_EC/Source/ASyncObject.h **** }
  96              		.loc 1 51 0
  97 0018 1846     		mov	r0, r3
  98 001a 07F11407 		add	r7, r7, #20
  99 001e BD46     		mov	sp, r7
 100 0020 80BC     		pop	{r7}
 101 0022 7047     		bx	lr
 102              		.cfi_endproc
 103              	.LFE112:
 105              		.section	.rodata
 106              		.align	2
 107              	.LC0:
 108 0000 2E2E2F46 		.ascii	"../FreeRTOS_EC/Source/CMutex.h\000"
 108      72656552 
 108      544F535F 
 108      45432F53 
 108      6F757263 
 109 001f 00       		.align	2
 110              	.LC1:
 111 0020 49735661 		.ascii	"IsValid()\000"
 111      6C696428 
 111      2900
 112 002a 0000     		.section	.text._ZN6CMutex4TakeEm,"axG",%progbits,_ZN6CMutex4TakeEm,comdat
 113              		.align	2
 114              		.weak	_ZN6CMutex4TakeEm
 115              		.thumb
 116              		.thumb_func
 118              	_ZN6CMutex4TakeEm:
 119              	.LFB113:
 120              		.file 2 "../FreeRTOS_EC/Source/CMutex.h"
   1:../FreeRTOS_EC/Source/CMutex.h **** /**
   2:../FreeRTOS_EC/Source/CMutex.h ****  * @file CMutex.h
   3:../FreeRTOS_EC/Source/CMutex.h ****  * @class CMutex
   4:../FreeRTOS_EC/Source/CMutex.h ****  * @ingroup FreeRTOS_Wrapper
   5:../FreeRTOS_EC/Source/CMutex.h ****  *
   6:../FreeRTOS_EC/Source/CMutex.h ****  * The CMutex class wraps a native FreeRTOS mutex handle (xSemaphoreHandle).
   7:../FreeRTOS_EC/Source/CMutex.h ****  * To create a mutex instance an object of this class and then call its CMutex::Create method
   8:../FreeRTOS_EC/Source/CMutex.h ****  * like showed in the following sample:
   9:../FreeRTOS_EC/Source/CMutex.h ****  * \code
  10:../FreeRTOS_EC/Source/CMutex.h ****  * CMutex g_aMutex // global mutex declaration.
  11:../FreeRTOS_EC/Source/CMutex.h ****  *
  12:../FreeRTOS_EC/Source/CMutex.h ****  * void taskControlFunc(void *pParams) // a task control loop
  13:../FreeRTOS_EC/Source/CMutex.h ****  * {
  14:../FreeRTOS_EC/Source/CMutex.h ****  * 	g_aMutex.Create();
  15:../FreeRTOS_EC/Source/CMutex.h ****  *
  16:../FreeRTOS_EC/Source/CMutex.h ****  * 	for (;;) {
  17:../FreeRTOS_EC/Source/CMutex.h ****  * 		while (g_aMutex.Take(portMAX_DELAY) != pdTRUE) {
  18:../FreeRTOS_EC/Source/CMutex.h ****  * 		// do something
  19:../FreeRTOS_EC/Source/CMutex.h ****  * 		}
  20:../FreeRTOS_EC/Source/CMutex.h ****  * }
  21:../FreeRTOS_EC/Source/CMutex.h ****  * \endcode
  22:../FreeRTOS_EC/Source/CMutex.h ****  *
  23:../FreeRTOS_EC/Source/CMutex.h ****  * \sa <a href="http://www.freertos.org/Inter-Task-Communication.html#Mutexes">mutex documentation<
  24:../FreeRTOS_EC/Source/CMutex.h ****  *
  25:../FreeRTOS_EC/Source/CMutex.h ****  * @date Jul 14, 2010
  26:../FreeRTOS_EC/Source/CMutex.h ****  * @author Stefano Oliveri (STF12.net)
  27:../FreeRTOS_EC/Source/CMutex.h ****  *         E-Mail: software@stf12.net
  28:../FreeRTOS_EC/Source/CMutex.h ****  */
  29:../FreeRTOS_EC/Source/CMutex.h **** 
  30:../FreeRTOS_EC/Source/CMutex.h **** 
  31:../FreeRTOS_EC/Source/CMutex.h **** #ifndef CMUTEX_H_
  32:../FreeRTOS_EC/Source/CMutex.h **** #define CMUTEX_H_
  33:../FreeRTOS_EC/Source/CMutex.h **** 
  34:../FreeRTOS_EC/Source/CMutex.h **** #include <assert.h>
  35:../FreeRTOS_EC/Source/CMutex.h **** #include "ASyncObject.h"
  36:../FreeRTOS_EC/Source/CMutex.h **** 
  37:../FreeRTOS_EC/Source/CMutex.h **** class CMutex: public ASyncObject {
  38:../FreeRTOS_EC/Source/CMutex.h **** public:
  39:../FreeRTOS_EC/Source/CMutex.h **** 	/**
  40:../FreeRTOS_EC/Source/CMutex.h **** 	 * Default constructor. It initializes the object without attaching it to a native FreeRTOS handle
  41:../FreeRTOS_EC/Source/CMutex.h **** 	 * Call the Create method to allocate a mutex handle and attach it to the object.
  42:../FreeRTOS_EC/Source/CMutex.h **** 	 */
  43:../FreeRTOS_EC/Source/CMutex.h **** 	CMutex();
  44:../FreeRTOS_EC/Source/CMutex.h **** 
  45:../FreeRTOS_EC/Source/CMutex.h **** 	/**
  46:../FreeRTOS_EC/Source/CMutex.h **** 	 * Create a mutex instance and attach it to a valid handle.
  47:../FreeRTOS_EC/Source/CMutex.h **** 	 *
  48:../FreeRTOS_EC/Source/CMutex.h **** 	 * @param handleSemaphore a valid mutex handle.
  49:../FreeRTOS_EC/Source/CMutex.h **** 	 */
  50:../FreeRTOS_EC/Source/CMutex.h **** 	CMutex(xSemaphoreHandle handleSemaphore);
  51:../FreeRTOS_EC/Source/CMutex.h **** 
  52:../FreeRTOS_EC/Source/CMutex.h **** 	/**
  53:../FreeRTOS_EC/Source/CMutex.h **** 	 * Destructor. It deletes the native FreeRTOS recursive mutex.
  54:../FreeRTOS_EC/Source/CMutex.h **** 	 */
  55:../FreeRTOS_EC/Source/CMutex.h **** 	virtual ~CMutex();
  56:../FreeRTOS_EC/Source/CMutex.h **** 
  57:../FreeRTOS_EC/Source/CMutex.h **** 	/**
  58:../FreeRTOS_EC/Source/CMutex.h **** 	 * Create a FreeRTOS mutex and attach its handle to the receiver object.
  59:../FreeRTOS_EC/Source/CMutex.h **** 	 *
  60:../FreeRTOS_EC/Source/CMutex.h **** 	 * \sa <a href="http://www.freertos.org/CreateMutex.html">xSemaphoreCreateMutex</a> FreeRTOS API f
  61:../FreeRTOS_EC/Source/CMutex.h **** 	 *
  62:../FreeRTOS_EC/Source/CMutex.h **** 	 * @return true if the mutex is created with success, false otherwise.
  63:../FreeRTOS_EC/Source/CMutex.h **** 	 */
  64:../FreeRTOS_EC/Source/CMutex.h **** 	bool Create();
  65:../FreeRTOS_EC/Source/CMutex.h **** 
  66:../FreeRTOS_EC/Source/CMutex.h **** 	/**
  67:../FreeRTOS_EC/Source/CMutex.h **** 	 *  \sa <a href="http://www.freertos.org/a00122.html">xSemaphoreTake</a> FreeRTOS API function.
  68:../FreeRTOS_EC/Source/CMutex.h **** 	 */
  69:../FreeRTOS_EC/Source/CMutex.h **** 	inline portBASE_TYPE Take(portTickType xBlockTime);
  70:../FreeRTOS_EC/Source/CMutex.h **** 
  71:../FreeRTOS_EC/Source/CMutex.h **** 	/**
  72:../FreeRTOS_EC/Source/CMutex.h **** 	 * \sa <a href="http://www.freertos.org/a00123.html">xSemaphoreGive</a> FreeRTOS API function.
  73:../FreeRTOS_EC/Source/CMutex.h **** 	 */
  74:../FreeRTOS_EC/Source/CMutex.h **** 	inline portBASE_TYPE Give();
  75:../FreeRTOS_EC/Source/CMutex.h **** };
  76:../FreeRTOS_EC/Source/CMutex.h **** 
  77:../FreeRTOS_EC/Source/CMutex.h **** 
  78:../FreeRTOS_EC/Source/CMutex.h **** // inline methods implementation
  79:../FreeRTOS_EC/Source/CMutex.h **** 
  80:../FreeRTOS_EC/Source/CMutex.h **** inline
  81:../FreeRTOS_EC/Source/CMutex.h **** portBASE_TYPE CMutex::Take(portTickType xBlockTime) {
 121              		.loc 2 81 0
 122              		.cfi_startproc
 123              		@ args = 0, pretend = 0, frame = 8
 124              		@ frame_needed = 1, uses_anonymous_args = 0
 125 0000 80B5     		push	{r7, lr}
 126              	.LCFI6:
 127              		.cfi_def_cfa_offset 8
 128              		.cfi_offset 14, -4
 129              		.cfi_offset 7, -8
 130 0002 82B0     		sub	sp, sp, #8
 131              	.LCFI7:
 132              		.cfi_def_cfa_offset 16
 133 0004 00AF     		add	r7, sp, #0
 134              	.LCFI8:
 135              		.cfi_def_cfa_register 7
 136 0006 7860     		str	r0, [r7, #4]
 137 0008 3960     		str	r1, [r7, #0]
 138              	.LBB3:
  82:../FreeRTOS_EC/Source/CMutex.h **** 	assert(IsValid());
 139              		.loc 2 82 0
 140 000a 7B68     		ldr	r3, [r7, #4]
 141 000c 1B68     		ldr	r3, [r3, #0]
 142 000e 1B68     		ldr	r3, [r3, #0]
 143 0010 7A68     		ldr	r2, [r7, #4]
 144 0012 1046     		mov	r0, r2
 145 0014 9847     		blx	r3
 146 0016 0346     		mov	r3, r0
 147 0018 002B     		cmp	r3, #0
 148 001a 0FD1     		bne	.L4
 149              		.loc 2 82 0 is_stmt 0 discriminator 1
 150 001c 40F20000 		movw	r0, #:lower16:.LC0
 151 0020 C0F20000 		movt	r0, #:upper16:.LC0
 152 0024 4FF05201 		mov	r1, #82
 153 0028 40F20002 		movw	r2, #:lower16:_ZZN6CMutex4TakeEmE19__PRETTY_FUNCTION__
 154 002c C0F20002 		movt	r2, #:upper16:_ZZN6CMutex4TakeEmE19__PRETTY_FUNCTION__
 155 0030 40F20003 		movw	r3, #:lower16:.LC1
 156 0034 C0F20003 		movt	r3, #:upper16:.LC1
 157 0038 FFF7FEFF 		bl	__assert_func
 158              	.L4:
  83:../FreeRTOS_EC/Source/CMutex.h **** 
  84:../FreeRTOS_EC/Source/CMutex.h **** 	return xSemaphoreTake(m_handleSemaphore, xBlockTime);
 159              		.loc 2 84 0 is_stmt 1
 160 003c 7B68     		ldr	r3, [r7, #4]
 161 003e 5B68     		ldr	r3, [r3, #4]
 162 0040 1846     		mov	r0, r3
 163 0042 4FF00001 		mov	r1, #0
 164 0046 3A68     		ldr	r2, [r7, #0]
 165 0048 4FF00003 		mov	r3, #0
 166 004c FFF7FEFF 		bl	xQueueGenericReceive
 167 0050 0346     		mov	r3, r0
 168              	.LBE3:
  85:../FreeRTOS_EC/Source/CMutex.h **** }
 169              		.loc 2 85 0
 170 0052 1846     		mov	r0, r3
 171 0054 07F10807 		add	r7, r7, #8
 172 0058 BD46     		mov	sp, r7
 173 005a 80BD     		pop	{r7, pc}
 174              		.cfi_endproc
 175              	.LFE113:
 177              		.section	.text._ZN6CMutex4GiveEv,"axG",%progbits,_ZN6CMutex4GiveEv,comdat
 178              		.align	2
 179              		.weak	_ZN6CMutex4GiveEv
 180              		.thumb
 181              		.thumb_func
 183              	_ZN6CMutex4GiveEv:
 184              	.LFB114:
  86:../FreeRTOS_EC/Source/CMutex.h **** 
  87:../FreeRTOS_EC/Source/CMutex.h **** inline
  88:../FreeRTOS_EC/Source/CMutex.h **** portBASE_TYPE CMutex::Give() {
 185              		.loc 2 88 0
 186              		.cfi_startproc
 187              		@ args = 0, pretend = 0, frame = 8
 188              		@ frame_needed = 1, uses_anonymous_args = 0
 189 0000 80B5     		push	{r7, lr}
 190              	.LCFI9:
 191              		.cfi_def_cfa_offset 8
 192              		.cfi_offset 14, -4
 193              		.cfi_offset 7, -8
 194 0002 82B0     		sub	sp, sp, #8
 195              	.LCFI10:
 196              		.cfi_def_cfa_offset 16
 197 0004 00AF     		add	r7, sp, #0
 198              	.LCFI11:
 199              		.cfi_def_cfa_register 7
 200 0006 7860     		str	r0, [r7, #4]
 201              	.LBB4:
  89:../FreeRTOS_EC/Source/CMutex.h **** 	assert(IsValid());
 202              		.loc 2 89 0
 203 0008 7B68     		ldr	r3, [r7, #4]
 204 000a 1B68     		ldr	r3, [r3, #0]
 205 000c 1B68     		ldr	r3, [r3, #0]
 206 000e 7A68     		ldr	r2, [r7, #4]
 207 0010 1046     		mov	r0, r2
 208 0012 9847     		blx	r3
 209 0014 0346     		mov	r3, r0
 210 0016 002B     		cmp	r3, #0
 211 0018 0FD1     		bne	.L6
 212              		.loc 2 89 0 is_stmt 0 discriminator 1
 213 001a 40F20000 		movw	r0, #:lower16:.LC0
 214 001e C0F20000 		movt	r0, #:upper16:.LC0
 215 0022 4FF05901 		mov	r1, #89
 216 0026 40F20002 		movw	r2, #:lower16:_ZZN6CMutex4GiveEvE19__PRETTY_FUNCTION__
 217 002a C0F20002 		movt	r2, #:upper16:_ZZN6CMutex4GiveEvE19__PRETTY_FUNCTION__
 218 002e 40F20003 		movw	r3, #:lower16:.LC1
 219 0032 C0F20003 		movt	r3, #:upper16:.LC1
 220 0036 FFF7FEFF 		bl	__assert_func
 221              	.L6:
  90:../FreeRTOS_EC/Source/CMutex.h **** 
  91:../FreeRTOS_EC/Source/CMutex.h **** 	return xSemaphoreGive(m_handleSemaphore);
 222              		.loc 2 91 0 is_stmt 1
 223 003a 7B68     		ldr	r3, [r7, #4]
 224 003c 5B68     		ldr	r3, [r3, #4]
 225 003e 1846     		mov	r0, r3
 226 0040 4FF00001 		mov	r1, #0
 227 0044 4FF00002 		mov	r2, #0
 228 0048 4FF00003 		mov	r3, #0
 229 004c FFF7FEFF 		bl	xQueueGenericSend
 230 0050 0346     		mov	r3, r0
 231              	.LBE4:
  92:../FreeRTOS_EC/Source/CMutex.h **** }
 232              		.loc 2 92 0
 233 0052 1846     		mov	r0, r3
 234 0054 07F10807 		add	r7, r7, #8
 235 0058 BD46     		mov	sp, r7
 236 005a 80BD     		pop	{r7, pc}
 237              		.cfi_endproc
 238              	.LFE114:
 240              		.section	.text._ZN6CMutexC2Ev,"ax",%progbits
 241              		.align	2
 242              		.global	_ZN6CMutexC2Ev
 243              		.thumb
 244              		.thumb_func
 246              	_ZN6CMutexC2Ev:
 247              	.LFB116:
 248              		.file 3 "../FreeRTOS_EC/Source/CMutex.cpp"
   1:../FreeRTOS_EC/Source/CMutex.cpp **** /**
   2:../FreeRTOS_EC/Source/CMutex.cpp ****  * CMutex.cpp
   3:../FreeRTOS_EC/Source/CMutex.cpp ****  *
   4:../FreeRTOS_EC/Source/CMutex.cpp ****  *  Created on: Jul 14, 2010
   5:../FreeRTOS_EC/Source/CMutex.cpp ****  *      Author: Stefano Oliveri (STF12.net)
   6:../FreeRTOS_EC/Source/CMutex.cpp ****  *      E-Mail: software@stf12.net
   7:../FreeRTOS_EC/Source/CMutex.cpp ****  */
   8:../FreeRTOS_EC/Source/CMutex.cpp **** 
   9:../FreeRTOS_EC/Source/CMutex.cpp **** #include "CMutex.h"
  10:../FreeRTOS_EC/Source/CMutex.cpp **** 
  11:../FreeRTOS_EC/Source/CMutex.cpp **** CMutex::CMutex() {
 249              		.loc 3 11 0
 250              		.cfi_startproc
 251              		@ args = 0, pretend = 0, frame = 8
 252              		@ frame_needed = 1, uses_anonymous_args = 0
 253 0000 80B5     		push	{r7, lr}
 254              	.LCFI12:
 255              		.cfi_def_cfa_offset 8
 256              		.cfi_offset 14, -4
 257              		.cfi_offset 7, -8
 258 0002 82B0     		sub	sp, sp, #8
 259              	.LCFI13:
 260              		.cfi_def_cfa_offset 16
 261 0004 00AF     		add	r7, sp, #0
 262              	.LCFI14:
 263              		.cfi_def_cfa_register 7
 264 0006 7860     		str	r0, [r7, #4]
 265              	.LBB5:
 266              		.loc 3 11 0
 267 0008 7B68     		ldr	r3, [r7, #4]
 268 000a 1846     		mov	r0, r3
 269 000c FFF7FEFF 		bl	_ZN11ASyncObjectC2Ev
 270 0010 7B68     		ldr	r3, [r7, #4]
 271 0012 044A     		ldr	r2, .L9
 272 0014 1A60     		str	r2, [r3, #0]
 273              	.LBE5:
  12:../FreeRTOS_EC/Source/CMutex.cpp **** 	// TODO Auto-generated constructor stub
  13:../FreeRTOS_EC/Source/CMutex.cpp **** 
  14:../FreeRTOS_EC/Source/CMutex.cpp **** }
 274              		.loc 3 14 0
 275 0016 7B68     		ldr	r3, [r7, #4]
 276 0018 1846     		mov	r0, r3
 277 001a 07F10807 		add	r7, r7, #8
 278 001e BD46     		mov	sp, r7
 279 0020 80BD     		pop	{r7, pc}
 280              	.L10:
 281 0022 00BF     		.align	2
 282              	.L9:
 283 0024 08000000 		.word	_ZTV6CMutex+8
 284              		.cfi_endproc
 285              	.LFE116:
 287              		.section	.text._ZN6CMutexD2Ev,"ax",%progbits
 288              		.align	2
 289              		.global	_ZN6CMutexD2Ev
 290              		.thumb
 291              		.thumb_func
 293              	_ZN6CMutexD2Ev:
 294              	.LFB119:
  15:../FreeRTOS_EC/Source/CMutex.cpp **** 
  16:../FreeRTOS_EC/Source/CMutex.cpp **** CMutex::~CMutex() {
 295              		.loc 3 16 0
 296              		.cfi_startproc
 297              		@ args = 0, pretend = 0, frame = 8
 298              		@ frame_needed = 1, uses_anonymous_args = 0
 299 0000 80B5     		push	{r7, lr}
 300              	.LCFI15:
 301              		.cfi_def_cfa_offset 8
 302              		.cfi_offset 14, -4
 303              		.cfi_offset 7, -8
 304 0002 82B0     		sub	sp, sp, #8
 305              	.LCFI16:
 306              		.cfi_def_cfa_offset 16
 307 0004 00AF     		add	r7, sp, #0
 308              	.LCFI17:
 309              		.cfi_def_cfa_register 7
 310 0006 7860     		str	r0, [r7, #4]
 311              	.LBB6:
 312              		.loc 3 16 0
 313 0008 7B68     		ldr	r3, [r7, #4]
 314 000a 0A4A     		ldr	r2, .L14
 315 000c 1A60     		str	r2, [r3, #0]
  17:../FreeRTOS_EC/Source/CMutex.cpp **** 	// TODO Auto-generated destructor stub
  18:../FreeRTOS_EC/Source/CMutex.cpp **** }
 316              		.loc 3 18 0
 317 000e 7868     		ldr	r0, [r7, #4]
 318 0010 FFF7FEFF 		bl	_ZN11ASyncObjectD2Ev
 319              	.LBE6:
 320 0014 4FF00003 		mov	r3, #0
 321 0018 03F00103 		and	r3, r3, #1
 322 001c DBB2     		uxtb	r3, r3
 323 001e 002B     		cmp	r3, #0
 324 0020 02D0     		beq	.L13
 325              		.loc 3 18 0 is_stmt 0 discriminator 2
 326 0022 7868     		ldr	r0, [r7, #4]
 327 0024 FFF7FEFF 		bl	_ZdlPv
 328              	.L13:
 329              		.loc 3 18 0 discriminator 3
 330 0028 7B68     		ldr	r3, [r7, #4]
 331 002a 1846     		mov	r0, r3
 332 002c 07F10807 		add	r7, r7, #8
 333 0030 BD46     		mov	sp, r7
 334 0032 80BD     		pop	{r7, pc}
 335              	.L15:
 336              		.align	2
 337              	.L14:
 338 0034 08000000 		.word	_ZTV6CMutex+8
 339              		.cfi_endproc
 340              	.LFE119:
 342              		.section	.text._ZN6CMutexD0Ev,"ax",%progbits
 343              		.align	2
 344              		.global	_ZN6CMutexD0Ev
 345              		.thumb
 346              		.thumb_func
 348              	_ZN6CMutexD0Ev:
 349              	.LFB121:
  16:../FreeRTOS_EC/Source/CMutex.cpp **** CMutex::~CMutex() {
 350              		.loc 3 16 0 is_stmt 1
 351              		.cfi_startproc
 352              		@ args = 0, pretend = 0, frame = 8
 353              		@ frame_needed = 1, uses_anonymous_args = 0
 354 0000 80B5     		push	{r7, lr}
 355              	.LCFI18:
 356              		.cfi_def_cfa_offset 8
 357              		.cfi_offset 14, -4
 358              		.cfi_offset 7, -8
 359 0002 82B0     		sub	sp, sp, #8
 360              	.LCFI19:
 361              		.cfi_def_cfa_offset 16
 362 0004 00AF     		add	r7, sp, #0
 363              	.LCFI20:
 364              		.cfi_def_cfa_register 7
 365 0006 7860     		str	r0, [r7, #4]
 366              		.loc 3 18 0
 367 0008 7868     		ldr	r0, [r7, #4]
 368 000a FFF7FEFF 		bl	_ZN6CMutexD1Ev
 369 000e 7868     		ldr	r0, [r7, #4]
 370 0010 FFF7FEFF 		bl	_ZdlPv
 371 0014 7B68     		ldr	r3, [r7, #4]
 372 0016 1846     		mov	r0, r3
 373 0018 07F10807 		add	r7, r7, #8
 374 001c BD46     		mov	sp, r7
 375 001e 80BD     		pop	{r7, pc}
 376              		.cfi_endproc
 377              	.LFE121:
 379              		.section	.text._ZN6CMutexC2EPv,"ax",%progbits
 380              		.align	2
 381              		.global	_ZN6CMutexC2EPv
 382              		.thumb
 383              		.thumb_func
 385              	_ZN6CMutexC2EPv:
 386              	.LFB123:
  19:../FreeRTOS_EC/Source/CMutex.cpp **** 
  20:../FreeRTOS_EC/Source/CMutex.cpp **** CMutex::CMutex(xSemaphoreHandle handleSemaphore) {
 387              		.loc 3 20 0
 388              		.cfi_startproc
 389              		@ args = 0, pretend = 0, frame = 8
 390              		@ frame_needed = 1, uses_anonymous_args = 0
 391 0000 80B5     		push	{r7, lr}
 392              	.LCFI21:
 393              		.cfi_def_cfa_offset 8
 394              		.cfi_offset 14, -4
 395              		.cfi_offset 7, -8
 396 0002 82B0     		sub	sp, sp, #8
 397              	.LCFI22:
 398              		.cfi_def_cfa_offset 16
 399 0004 00AF     		add	r7, sp, #0
 400              	.LCFI23:
 401              		.cfi_def_cfa_register 7
 402 0006 7860     		str	r0, [r7, #4]
 403 0008 3960     		str	r1, [r7, #0]
 404              	.LBB7:
 405              		.loc 3 20 0
 406 000a 7B68     		ldr	r3, [r7, #4]
 407 000c 1846     		mov	r0, r3
 408 000e FFF7FEFF 		bl	_ZN11ASyncObjectC2Ev
 409 0012 7B68     		ldr	r3, [r7, #4]
 410 0014 064A     		ldr	r2, .L20
 411 0016 1A60     		str	r2, [r3, #0]
  21:../FreeRTOS_EC/Source/CMutex.cpp **** 	Attach(handleSemaphore);
 412              		.loc 3 21 0
 413 0018 7B68     		ldr	r3, [r7, #4]
 414 001a 1846     		mov	r0, r3
 415 001c 3968     		ldr	r1, [r7, #0]
 416 001e FFF7FEFF 		bl	_ZN11ASyncObject6AttachEPv
 417              	.LBE7:
  22:../FreeRTOS_EC/Source/CMutex.cpp **** }
 418              		.loc 3 22 0
 419 0022 7B68     		ldr	r3, [r7, #4]
 420 0024 1846     		mov	r0, r3
 421 0026 07F10807 		add	r7, r7, #8
 422 002a BD46     		mov	sp, r7
 423 002c 80BD     		pop	{r7, pc}
 424              	.L21:
 425 002e 00BF     		.align	2
 426              	.L20:
 427 0030 08000000 		.word	_ZTV6CMutex+8
 428              		.cfi_endproc
 429              	.LFE123:
 431              		.section	.text._ZN6CMutex6CreateEv,"ax",%progbits
 432              		.align	2
 433              		.global	_ZN6CMutex6CreateEv
 434              		.thumb
 435              		.thumb_func
 437              	_ZN6CMutex6CreateEv:
 438              	.LFB125:
  23:../FreeRTOS_EC/Source/CMutex.cpp **** 
  24:../FreeRTOS_EC/Source/CMutex.cpp **** bool CMutex::Create() {
 439              		.loc 3 24 0
 440              		.cfi_startproc
 441              		@ args = 0, pretend = 0, frame = 16
 442              		@ frame_needed = 1, uses_anonymous_args = 0
 443 0000 80B5     		push	{r7, lr}
 444              	.LCFI24:
 445              		.cfi_def_cfa_offset 8
 446              		.cfi_offset 14, -4
 447              		.cfi_offset 7, -8
 448 0002 84B0     		sub	sp, sp, #16
 449              	.LCFI25:
 450              		.cfi_def_cfa_offset 24
 451 0004 00AF     		add	r7, sp, #0
 452              	.LCFI26:
 453              		.cfi_def_cfa_register 7
 454 0006 7860     		str	r0, [r7, #4]
 455              	.LBB8:
  25:../FreeRTOS_EC/Source/CMutex.cpp **** 
  26:../FreeRTOS_EC/Source/CMutex.cpp **** #if ( configUSE_MUTEXES == 1 )
  27:../FreeRTOS_EC/Source/CMutex.cpp **** 
  28:../FreeRTOS_EC/Source/CMutex.cpp **** 	xSemaphoreHandle handle;
  29:../FreeRTOS_EC/Source/CMutex.cpp **** 
  30:../FreeRTOS_EC/Source/CMutex.cpp **** 	handle = xSemaphoreCreateMutex();
 456              		.loc 3 30 0
 457 0008 FFF7FEFF 		bl	xQueueCreateMutex
 458 000c 0346     		mov	r3, r0
 459 000e FB60     		str	r3, [r7, #12]
  31:../FreeRTOS_EC/Source/CMutex.cpp **** 
  32:../FreeRTOS_EC/Source/CMutex.cpp **** 	if (handle != NULL)
 460              		.loc 3 32 0
 461 0010 FB68     		ldr	r3, [r7, #12]
 462 0012 002B     		cmp	r3, #0
 463 0014 08D0     		beq	.L23
  33:../FreeRTOS_EC/Source/CMutex.cpp **** 		Attach(handle);
 464              		.loc 3 33 0
 465 0016 7B68     		ldr	r3, [r7, #4]
 466 0018 1B68     		ldr	r3, [r3, #0]
 467 001a 03F10403 		add	r3, r3, #4
 468 001e 1B68     		ldr	r3, [r3, #0]
 469 0020 7A68     		ldr	r2, [r7, #4]
 470 0022 1046     		mov	r0, r2
 471 0024 F968     		ldr	r1, [r7, #12]
 472 0026 9847     		blx	r3
 473              	.L23:
  34:../FreeRTOS_EC/Source/CMutex.cpp **** #endif
  35:../FreeRTOS_EC/Source/CMutex.cpp **** 
  36:../FreeRTOS_EC/Source/CMutex.cpp **** 	return IsValid();
 474              		.loc 3 36 0
 475 0028 7B68     		ldr	r3, [r7, #4]
 476 002a 1B68     		ldr	r3, [r3, #0]
 477 002c 1B68     		ldr	r3, [r3, #0]
 478 002e 7A68     		ldr	r2, [r7, #4]
 479 0030 1046     		mov	r0, r2
 480 0032 9847     		blx	r3
 481 0034 0346     		mov	r3, r0
 482              	.LBE8:
  37:../FreeRTOS_EC/Source/CMutex.cpp **** }
 483              		.loc 3 37 0
 484 0036 1846     		mov	r0, r3
 485 0038 07F11007 		add	r7, r7, #16
 486 003c BD46     		mov	sp, r7
 487 003e 80BD     		pop	{r7, pc}
 488              		.cfi_endproc
 489              	.LFE125:
 491              		.global	_ZTV6CMutex
 492              		.section	.rodata._ZTV6CMutex,"a",%progbits
 493              		.align	3
 496              	_ZTV6CMutex:
 497 0000 00000000 		.word	0
 498 0004 00000000 		.word	0
 499 0008 00000000 		.word	_ZNK11ASyncObject7IsValidEv
 500 000c 00000000 		.word	_ZN11ASyncObject6AttachEPv
 501 0010 00000000 		.word	_ZN11ASyncObject6DetachEv
 502 0014 00000000 		.word	_ZN6CMutexD1Ev
 503 0018 00000000 		.word	_ZN6CMutexD0Ev
 504 001c 00000000 		.word	_ZN6CMutex4TakeEm
 505 0020 00000000 		.word	_ZN6CMutex4GiveEv
 506 0024 00000000 		.section	.rodata._ZZN6CMutex4GiveEvE19__PRETTY_FUNCTION__,"a",%progbits
 507              		.align	2
 510              	_ZZN6CMutex4GiveEvE19__PRETTY_FUNCTION__:
 511 0000 76697274 		.ascii	"virtual long int CMutex::Give()\000"
 511      75616C20 
 511      6C6F6E67 
 511      20696E74 
 511      20434D75 
 512              		.section	.rodata._ZZN6CMutex4TakeEmE19__PRETTY_FUNCTION__,"a",%progbits
 513              		.align	2
 516              	_ZZN6CMutex4TakeEmE19__PRETTY_FUNCTION__:
 517 0000 76697274 		.ascii	"virtual long int CMutex::Take(portTickType)\000"
 517      75616C20 
 517      6C6F6E67 
 517      20696E74 
 517      20434D75 
 518              		.global	_ZN6CMutexC1Ev
 519              		.thumb_set _ZN6CMutexC1Ev,_ZN6CMutexC2Ev
 520              		.global	_ZN6CMutexD1Ev
 521              		.thumb_set _ZN6CMutexD1Ev,_ZN6CMutexD2Ev
 522              		.global	_ZN6CMutexC1EPv
 523              		.thumb_set _ZN6CMutexC1EPv,_ZN6CMutexC2EPv
 524              		.text
 525              	.Letext0:
 526              		.file 4 "e:/elektronik/toolchain/yagarto/lib/gcc/../../arm-none-eabi/sys-include/stdint.h"
 527              		.file 5 "E:\\Desktop\\thundercyer-the-alarm-clock\\FreeRTOS\\Source\\include/../../Source/portable
 528              		.file 6 "E:\\Desktop\\thundercyer-the-alarm-clock\\FreeRTOS\\Source\\include/queue.h"
 529              		.file 7 "E:\\Desktop\\thundercyer-the-alarm-clock\\FreeRTOS\\Source\\include/semphr.h"
 530              		.file 8 "../FreeRTOS_EC/Source/IFreeRTOSProtocol.h"
 531              		.file 9 "E:\\Desktop\\thundercyer-the-alarm-clock\\CMSIS\\Include/core_cm4.h"
DEFINED SYMBOLS
                            *ABS*:00000000 CMutex.cpp
C:\Users\Alex\AppData\Local\Temp\ccZ9R79B.s:19     .text._ZNK11ASyncObject7IsValidEv:00000000 $t
C:\Users\Alex\AppData\Local\Temp\ccZ9R79B.s:24     .text._ZNK11ASyncObject7IsValidEv:00000000 _ZNK11ASyncObject7IsValidEv
C:\Users\Alex\AppData\Local\Temp\ccZ9R79B.s:61     .text._ZN11ASyncObject6DetachEv:00000000 $t
C:\Users\Alex\AppData\Local\Temp\ccZ9R79B.s:66     .text._ZN11ASyncObject6DetachEv:00000000 _ZN11ASyncObject6DetachEv
C:\Users\Alex\AppData\Local\Temp\ccZ9R79B.s:106    .rodata:00000000 $d
C:\Users\Alex\AppData\Local\Temp\ccZ9R79B.s:107    .rodata:00000000 .LC0
C:\Users\Alex\AppData\Local\Temp\ccZ9R79B.s:110    .rodata:00000020 .LC1
C:\Users\Alex\AppData\Local\Temp\ccZ9R79B.s:113    .text._ZN6CMutex4TakeEm:00000000 $t
C:\Users\Alex\AppData\Local\Temp\ccZ9R79B.s:118    .text._ZN6CMutex4TakeEm:00000000 _ZN6CMutex4TakeEm
C:\Users\Alex\AppData\Local\Temp\ccZ9R79B.s:516    .rodata._ZZN6CMutex4TakeEmE19__PRETTY_FUNCTION__:00000000 _ZZN6CMutex4TakeEmE19__PRETTY_FUNCTION__
C:\Users\Alex\AppData\Local\Temp\ccZ9R79B.s:178    .text._ZN6CMutex4GiveEv:00000000 $t
C:\Users\Alex\AppData\Local\Temp\ccZ9R79B.s:183    .text._ZN6CMutex4GiveEv:00000000 _ZN6CMutex4GiveEv
C:\Users\Alex\AppData\Local\Temp\ccZ9R79B.s:510    .rodata._ZZN6CMutex4GiveEvE19__PRETTY_FUNCTION__:00000000 _ZZN6CMutex4GiveEvE19__PRETTY_FUNCTION__
C:\Users\Alex\AppData\Local\Temp\ccZ9R79B.s:241    .text._ZN6CMutexC2Ev:00000000 $t
C:\Users\Alex\AppData\Local\Temp\ccZ9R79B.s:246    .text._ZN6CMutexC2Ev:00000000 _ZN6CMutexC2Ev
C:\Users\Alex\AppData\Local\Temp\ccZ9R79B.s:283    .text._ZN6CMutexC2Ev:00000024 $d
C:\Users\Alex\AppData\Local\Temp\ccZ9R79B.s:496    .rodata._ZTV6CMutex:00000000 _ZTV6CMutex
C:\Users\Alex\AppData\Local\Temp\ccZ9R79B.s:288    .text._ZN6CMutexD2Ev:00000000 $t
C:\Users\Alex\AppData\Local\Temp\ccZ9R79B.s:293    .text._ZN6CMutexD2Ev:00000000 _ZN6CMutexD2Ev
C:\Users\Alex\AppData\Local\Temp\ccZ9R79B.s:338    .text._ZN6CMutexD2Ev:00000034 $d
C:\Users\Alex\AppData\Local\Temp\ccZ9R79B.s:343    .text._ZN6CMutexD0Ev:00000000 $t
C:\Users\Alex\AppData\Local\Temp\ccZ9R79B.s:348    .text._ZN6CMutexD0Ev:00000000 _ZN6CMutexD0Ev
C:\Users\Alex\AppData\Local\Temp\ccZ9R79B.s:293    .text._ZN6CMutexD2Ev:00000000 _ZN6CMutexD1Ev
C:\Users\Alex\AppData\Local\Temp\ccZ9R79B.s:380    .text._ZN6CMutexC2EPv:00000000 $t
C:\Users\Alex\AppData\Local\Temp\ccZ9R79B.s:385    .text._ZN6CMutexC2EPv:00000000 _ZN6CMutexC2EPv
C:\Users\Alex\AppData\Local\Temp\ccZ9R79B.s:427    .text._ZN6CMutexC2EPv:00000030 $d
C:\Users\Alex\AppData\Local\Temp\ccZ9R79B.s:432    .text._ZN6CMutex6CreateEv:00000000 $t
C:\Users\Alex\AppData\Local\Temp\ccZ9R79B.s:437    .text._ZN6CMutex6CreateEv:00000000 _ZN6CMutex6CreateEv
C:\Users\Alex\AppData\Local\Temp\ccZ9R79B.s:493    .rodata._ZTV6CMutex:00000000 $d
C:\Users\Alex\AppData\Local\Temp\ccZ9R79B.s:507    .rodata._ZZN6CMutex4GiveEvE19__PRETTY_FUNCTION__:00000000 $d
C:\Users\Alex\AppData\Local\Temp\ccZ9R79B.s:513    .rodata._ZZN6CMutex4TakeEmE19__PRETTY_FUNCTION__:00000000 $d
C:\Users\Alex\AppData\Local\Temp\ccZ9R79B.s:246    .text._ZN6CMutexC2Ev:00000000 _ZN6CMutexC1Ev
C:\Users\Alex\AppData\Local\Temp\ccZ9R79B.s:385    .text._ZN6CMutexC2EPv:00000000 _ZN6CMutexC1EPv
                     .debug_frame:00000010 $d

UNDEFINED SYMBOLS
__assert_func
xQueueGenericReceive
xQueueGenericSend
_ZN11ASyncObjectC2Ev
_ZN11ASyncObjectD2Ev
_ZdlPv
_ZN11ASyncObject6AttachEPv
xQueueCreateMutex
