   1              		.syntax unified
   2              		.cpu cortex-m4
   3              		.eabi_attribute 27, 3
   4              		.fpu fpv4-sp-d16
   5              		.eabi_attribute 20, 1
   6              		.eabi_attribute 21, 1
   7              		.eabi_attribute 23, 3
   8              		.eabi_attribute 24, 1
   9              		.eabi_attribute 25, 1
  10              		.eabi_attribute 26, 1
  11              		.eabi_attribute 30, 6
  12              		.eabi_attribute 34, 1
  13              		.eabi_attribute 18, 4
  14              		.thumb
  15              		.file	"CMutex.cpp"
  16              		.text
  17              	.Ltext0:
  18              		.cfi_sections	.debug_frame
  19              		.section	.text._ZNK11ASyncObject7IsValidEv,"axG",%progbits,_ZNK11ASyncObject7IsValidEv,comdat
  20              		.align	2
  21              		.weak	_ZNK11ASyncObject7IsValidEv
  22              		.thumb
  23              		.thumb_func
  25              	_ZNK11ASyncObject7IsValidEv:
  26              	.LFB111:
  27              		.file 1 "../FreeRTOS_EC/Source/ASyncObject.h"
   1:../FreeRTOS_EC/Source/ASyncObject.h **** /**
   2:../FreeRTOS_EC/Source/ASyncObject.h ****  * @file   ASyncObject.h
   3:../FreeRTOS_EC/Source/ASyncObject.h ****  * @class  ASyncObject
   4:../FreeRTOS_EC/Source/ASyncObject.h ****  * @ingroup FreeRTOS_Wrapper
   5:../FreeRTOS_EC/Source/ASyncObject.h ****  *
   6:../FreeRTOS_EC/Source/ASyncObject.h ****  * Abstract base class for all task synchronization object.
   7:../FreeRTOS_EC/Source/ASyncObject.h ****  *
   8:../FreeRTOS_EC/Source/ASyncObject.h ****  * @date   Jul 13, 2010
   9:../FreeRTOS_EC/Source/ASyncObject.h ****  * @author Stefano Oliveri (STF12.net)
  10:../FreeRTOS_EC/Source/ASyncObject.h ****  *         E-Mail: software@stf12.net
  11:../FreeRTOS_EC/Source/ASyncObject.h ****  */
  12:../FreeRTOS_EC/Source/ASyncObject.h **** 
  13:../FreeRTOS_EC/Source/ASyncObject.h **** #ifndef ASEMAPHORE_H_
  14:../FreeRTOS_EC/Source/ASyncObject.h **** #define ASEMAPHORE_H_
  15:../FreeRTOS_EC/Source/ASyncObject.h **** 
  16:../FreeRTOS_EC/Source/ASyncObject.h **** #include "FreeRTOS.h"
  17:../FreeRTOS_EC/Source/ASyncObject.h **** #include "semphr.h"
  18:../FreeRTOS_EC/Source/ASyncObject.h **** #include "IFreeRTOSProtocol.h"
  19:../FreeRTOS_EC/Source/ASyncObject.h **** 
  20:../FreeRTOS_EC/Source/ASyncObject.h **** class ASyncObject: public IFreeRTOSObj {
  21:../FreeRTOS_EC/Source/ASyncObject.h **** protected:
  22:../FreeRTOS_EC/Source/ASyncObject.h ****     xSemaphoreHandle m_handleSemaphore;
  23:../FreeRTOS_EC/Source/ASyncObject.h **** 
  24:../FreeRTOS_EC/Source/ASyncObject.h **** public:
  25:../FreeRTOS_EC/Source/ASyncObject.h **** 	ASyncObject();
  26:../FreeRTOS_EC/Source/ASyncObject.h **** 	virtual ~ASyncObject();
  27:../FreeRTOS_EC/Source/ASyncObject.h **** 
  28:../FreeRTOS_EC/Source/ASyncObject.h **** 	inline operator xSemaphoreHandle() const { return m_handleSemaphore; }
  29:../FreeRTOS_EC/Source/ASyncObject.h **** 
  30:../FreeRTOS_EC/Source/ASyncObject.h **** 	void Delete();
  31:../FreeRTOS_EC/Source/ASyncObject.h **** 	inline bool IsValid()const;
  32:../FreeRTOS_EC/Source/ASyncObject.h **** 	void Attach(xGenericHandle handle);
  33:../FreeRTOS_EC/Source/ASyncObject.h **** 	inline xGenericHandle Detach();
  34:../FreeRTOS_EC/Source/ASyncObject.h **** 
  35:../FreeRTOS_EC/Source/ASyncObject.h **** 	virtual portBASE_TYPE Take(portTickType xBlockTime) =0;
  36:../FreeRTOS_EC/Source/ASyncObject.h **** 	virtual portBASE_TYPE Give() =0;
  37:../FreeRTOS_EC/Source/ASyncObject.h **** };
  38:../FreeRTOS_EC/Source/ASyncObject.h **** 
  39:../FreeRTOS_EC/Source/ASyncObject.h **** // inline method
  40:../FreeRTOS_EC/Source/ASyncObject.h **** 
  41:../FreeRTOS_EC/Source/ASyncObject.h **** inline
  42:../FreeRTOS_EC/Source/ASyncObject.h **** bool ASyncObject::IsValid() const {
  28              		.loc 1 42 0
  29              		.cfi_startproc
  30              		@ args = 0, pretend = 0, frame = 8
  31              		@ frame_needed = 1, uses_anonymous_args = 0
  32              		@ link register save eliminated.
  33 0000 80B4     		push	{r7}
  34              	.LCFI0:
  35              		.cfi_def_cfa_offset 4
  36              		.cfi_offset 7, -4
  37 0002 83B0     		sub	sp, sp, #12
  38              	.LCFI1:
  39              		.cfi_def_cfa_offset 16
  40 0004 00AF     		add	r7, sp, #0
  41              	.LCFI2:
  42              		.cfi_def_cfa_register 7
  43 0006 7860     		str	r0, [r7, #4]
  43:../FreeRTOS_EC/Source/ASyncObject.h **** 	return m_handleSemaphore != NULL;
  44              		.loc 1 43 0
  45 0008 7B68     		ldr	r3, [r7, #4]
  46 000a 5B68     		ldr	r3, [r3, #4]
  47 000c 002B     		cmp	r3, #0
  48 000e 0CBF     		ite	eq
  49 0010 0023     		moveq	r3, #0
  50 0012 0123     		movne	r3, #1
  51 0014 DBB2     		uxtb	r3, r3
  44:../FreeRTOS_EC/Source/ASyncObject.h **** }
  52              		.loc 1 44 0
  53 0016 1846     		mov	r0, r3
  54 0018 07F10C07 		add	r7, r7, #12
  55 001c BD46     		mov	sp, r7
  56 001e 80BC     		pop	{r7}
  57 0020 7047     		bx	lr
  58              		.cfi_endproc
  59              	.LFE111:
  61 0022 00BF     		.section	.text._ZN11ASyncObject6DetachEv,"axG",%progbits,_ZN11ASyncObject6DetachEv,comdat
  62              		.align	2
  63              		.weak	_ZN11ASyncObject6DetachEv
  64              		.thumb
  65              		.thumb_func
  67              	_ZN11ASyncObject6DetachEv:
  68              	.LFB112:
  45:../FreeRTOS_EC/Source/ASyncObject.h **** 
  46:../FreeRTOS_EC/Source/ASyncObject.h **** inline
  47:../FreeRTOS_EC/Source/ASyncObject.h **** xGenericHandle ASyncObject::Detach() {
  69              		.loc 1 47 0
  70              		.cfi_startproc
  71              		@ args = 0, pretend = 0, frame = 16
  72              		@ frame_needed = 1, uses_anonymous_args = 0
  73              		@ link register save eliminated.
  74 0000 80B4     		push	{r7}
  75              	.LCFI3:
  76              		.cfi_def_cfa_offset 4
  77              		.cfi_offset 7, -4
  78 0002 85B0     		sub	sp, sp, #20
  79              	.LCFI4:
  80              		.cfi_def_cfa_offset 24
  81 0004 00AF     		add	r7, sp, #0
  82              	.LCFI5:
  83              		.cfi_def_cfa_register 7
  84 0006 7860     		str	r0, [r7, #4]
  85              	.LBB2:
  48:../FreeRTOS_EC/Source/ASyncObject.h **** 	xSemaphoreHandle res = m_handleSemaphore;
  86              		.loc 1 48 0
  87 0008 7B68     		ldr	r3, [r7, #4]
  88 000a 5B68     		ldr	r3, [r3, #4]
  89 000c FB60     		str	r3, [r7, #12]
  49:../FreeRTOS_EC/Source/ASyncObject.h **** 	m_handleSemaphore = NULL;
  90              		.loc 1 49 0
  91 000e 7B68     		ldr	r3, [r7, #4]
  92 0010 4FF00002 		mov	r2, #0
  93 0014 5A60     		str	r2, [r3, #4]
  50:../FreeRTOS_EC/Source/ASyncObject.h **** 	return res;
  94              		.loc 1 50 0
  95 0016 FB68     		ldr	r3, [r7, #12]
  96              	.LBE2:
  51:../FreeRTOS_EC/Source/ASyncObject.h **** }
  97              		.loc 1 51 0
  98 0018 1846     		mov	r0, r3
  99 001a 07F11407 		add	r7, r7, #20
 100 001e BD46     		mov	sp, r7
 101 0020 80BC     		pop	{r7}
 102 0022 7047     		bx	lr
 103              		.cfi_endproc
 104              	.LFE112:
 106              		.section	.rodata
 107              		.align	2
 108              	.LC0:
 109 0000 2E2E2F46 		.ascii	"../FreeRTOS_EC/Source/CMutex.h\000"
 109      72656552 
 109      544F535F 
 109      45432F53 
 109      6F757263 
 110 001f 00       		.align	2
 111              	.LC1:
 112 0020 49735661 		.ascii	"IsValid()\000"
 112      6C696428 
 112      2900
 113 002a 0000     		.section	.text._ZN6CMutex4TakeEm,"axG",%progbits,_ZN6CMutex4TakeEm,comdat
 114              		.align	2
 115              		.weak	_ZN6CMutex4TakeEm
 116              		.thumb
 117              		.thumb_func
 119              	_ZN6CMutex4TakeEm:
 120              	.LFB113:
 121              		.file 2 "../FreeRTOS_EC/Source/CMutex.h"
   1:../FreeRTOS_EC/Source/CMutex.h **** /**
   2:../FreeRTOS_EC/Source/CMutex.h ****  * @file CMutex.h
   3:../FreeRTOS_EC/Source/CMutex.h ****  * @class CMutex
   4:../FreeRTOS_EC/Source/CMutex.h ****  * @ingroup FreeRTOS_Wrapper
   5:../FreeRTOS_EC/Source/CMutex.h ****  *
   6:../FreeRTOS_EC/Source/CMutex.h ****  * The CMutex class wraps a native FreeRTOS mutex handle (xSemaphoreHandle).
   7:../FreeRTOS_EC/Source/CMutex.h ****  * To create a mutex instance an object of this class and then call its CMutex::Create method
   8:../FreeRTOS_EC/Source/CMutex.h ****  * like showed in the following sample:
   9:../FreeRTOS_EC/Source/CMutex.h ****  * \code
  10:../FreeRTOS_EC/Source/CMutex.h ****  * CMutex g_aMutex // global mutex declaration.
  11:../FreeRTOS_EC/Source/CMutex.h ****  *
  12:../FreeRTOS_EC/Source/CMutex.h ****  * void taskControlFunc(void *pParams) // a task control loop
  13:../FreeRTOS_EC/Source/CMutex.h ****  * {
  14:../FreeRTOS_EC/Source/CMutex.h ****  * 	g_aMutex.Create();
  15:../FreeRTOS_EC/Source/CMutex.h ****  *
  16:../FreeRTOS_EC/Source/CMutex.h ****  * 	for (;;) {
  17:../FreeRTOS_EC/Source/CMutex.h ****  * 		while (g_aMutex.Take(portMAX_DELAY) != pdTRUE) {
  18:../FreeRTOS_EC/Source/CMutex.h ****  * 		// do something
  19:../FreeRTOS_EC/Source/CMutex.h ****  * 		}
  20:../FreeRTOS_EC/Source/CMutex.h ****  * }
  21:../FreeRTOS_EC/Source/CMutex.h ****  * \endcode
  22:../FreeRTOS_EC/Source/CMutex.h ****  *
  23:../FreeRTOS_EC/Source/CMutex.h ****  * \sa <a href="http://www.freertos.org/Inter-Task-Communication.html#Mutexes">mutex documentation<
  24:../FreeRTOS_EC/Source/CMutex.h ****  *
  25:../FreeRTOS_EC/Source/CMutex.h ****  * @date Jul 14, 2010
  26:../FreeRTOS_EC/Source/CMutex.h ****  * @author Stefano Oliveri (STF12.net)
  27:../FreeRTOS_EC/Source/CMutex.h ****  *         E-Mail: software@stf12.net
  28:../FreeRTOS_EC/Source/CMutex.h ****  */
  29:../FreeRTOS_EC/Source/CMutex.h **** 
  30:../FreeRTOS_EC/Source/CMutex.h **** 
  31:../FreeRTOS_EC/Source/CMutex.h **** #ifndef CMUTEX_H_
  32:../FreeRTOS_EC/Source/CMutex.h **** #define CMUTEX_H_
  33:../FreeRTOS_EC/Source/CMutex.h **** 
  34:../FreeRTOS_EC/Source/CMutex.h **** #include <assert.h>
  35:../FreeRTOS_EC/Source/CMutex.h **** #include "ASyncObject.h"
  36:../FreeRTOS_EC/Source/CMutex.h **** 
  37:../FreeRTOS_EC/Source/CMutex.h **** class CMutex: public ASyncObject {
  38:../FreeRTOS_EC/Source/CMutex.h **** public:
  39:../FreeRTOS_EC/Source/CMutex.h **** 	/**
  40:../FreeRTOS_EC/Source/CMutex.h **** 	 * Default constructor. It initializes the object without attaching it to a native FreeRTOS handle
  41:../FreeRTOS_EC/Source/CMutex.h **** 	 * Call the Create method to allocate a mutex handle and attach it to the object.
  42:../FreeRTOS_EC/Source/CMutex.h **** 	 */
  43:../FreeRTOS_EC/Source/CMutex.h **** 	CMutex();
  44:../FreeRTOS_EC/Source/CMutex.h **** 
  45:../FreeRTOS_EC/Source/CMutex.h **** 	/**
  46:../FreeRTOS_EC/Source/CMutex.h **** 	 * Create a mutex instance and attach it to a valid handle.
  47:../FreeRTOS_EC/Source/CMutex.h **** 	 *
  48:../FreeRTOS_EC/Source/CMutex.h **** 	 * @param handleSemaphore a valid mutex handle.
  49:../FreeRTOS_EC/Source/CMutex.h **** 	 */
  50:../FreeRTOS_EC/Source/CMutex.h **** 	CMutex(xSemaphoreHandle handleSemaphore);
  51:../FreeRTOS_EC/Source/CMutex.h **** 
  52:../FreeRTOS_EC/Source/CMutex.h **** 	/**
  53:../FreeRTOS_EC/Source/CMutex.h **** 	 * Destructor. It deletes the native FreeRTOS recursive mutex.
  54:../FreeRTOS_EC/Source/CMutex.h **** 	 */
  55:../FreeRTOS_EC/Source/CMutex.h **** 	virtual ~CMutex();
  56:../FreeRTOS_EC/Source/CMutex.h **** 
  57:../FreeRTOS_EC/Source/CMutex.h **** 	/**
  58:../FreeRTOS_EC/Source/CMutex.h **** 	 * Create a FreeRTOS mutex and attach its handle to the receiver object.
  59:../FreeRTOS_EC/Source/CMutex.h **** 	 *
  60:../FreeRTOS_EC/Source/CMutex.h **** 	 * \sa <a href="http://www.freertos.org/CreateMutex.html">xSemaphoreCreateMutex</a> FreeRTOS API f
  61:../FreeRTOS_EC/Source/CMutex.h **** 	 *
  62:../FreeRTOS_EC/Source/CMutex.h **** 	 * @return true if the mutex is created with success, false otherwise.
  63:../FreeRTOS_EC/Source/CMutex.h **** 	 */
  64:../FreeRTOS_EC/Source/CMutex.h **** 	bool Create();
  65:../FreeRTOS_EC/Source/CMutex.h **** 
  66:../FreeRTOS_EC/Source/CMutex.h **** 	/**
  67:../FreeRTOS_EC/Source/CMutex.h **** 	 *  \sa <a href="http://www.freertos.org/a00122.html">xSemaphoreTake</a> FreeRTOS API function.
  68:../FreeRTOS_EC/Source/CMutex.h **** 	 */
  69:../FreeRTOS_EC/Source/CMutex.h **** 	inline portBASE_TYPE Take(portTickType xBlockTime);
  70:../FreeRTOS_EC/Source/CMutex.h **** 
  71:../FreeRTOS_EC/Source/CMutex.h **** 	/**
  72:../FreeRTOS_EC/Source/CMutex.h **** 	 * \sa <a href="http://www.freertos.org/a00123.html">xSemaphoreGive</a> FreeRTOS API function.
  73:../FreeRTOS_EC/Source/CMutex.h **** 	 */
  74:../FreeRTOS_EC/Source/CMutex.h **** 	inline portBASE_TYPE Give();
  75:../FreeRTOS_EC/Source/CMutex.h **** };
  76:../FreeRTOS_EC/Source/CMutex.h **** 
  77:../FreeRTOS_EC/Source/CMutex.h **** 
  78:../FreeRTOS_EC/Source/CMutex.h **** // inline methods implementation
  79:../FreeRTOS_EC/Source/CMutex.h **** 
  80:../FreeRTOS_EC/Source/CMutex.h **** inline
  81:../FreeRTOS_EC/Source/CMutex.h **** portBASE_TYPE CMutex::Take(portTickType xBlockTime) {
 122              		.loc 2 81 0
 123              		.cfi_startproc
 124              		@ args = 0, pretend = 0, frame = 8
 125              		@ frame_needed = 1, uses_anonymous_args = 0
 126 0000 80B5     		push	{r7, lr}
 127              	.LCFI6:
 128              		.cfi_def_cfa_offset 8
 129              		.cfi_offset 14, -4
 130              		.cfi_offset 7, -8
 131 0002 82B0     		sub	sp, sp, #8
 132              	.LCFI7:
 133              		.cfi_def_cfa_offset 16
 134 0004 00AF     		add	r7, sp, #0
 135              	.LCFI8:
 136              		.cfi_def_cfa_register 7
 137 0006 7860     		str	r0, [r7, #4]
 138 0008 3960     		str	r1, [r7, #0]
 139              	.LBB3:
  82:../FreeRTOS_EC/Source/CMutex.h **** 	assert(IsValid());
 140              		.loc 2 82 0
 141 000a 7B68     		ldr	r3, [r7, #4]
 142 000c 1B68     		ldr	r3, [r3, #0]
 143 000e 1B68     		ldr	r3, [r3, #0]
 144 0010 7A68     		ldr	r2, [r7, #4]
 145 0012 1046     		mov	r0, r2
 146 0014 9847     		blx	r3
 147 0016 0346     		mov	r3, r0
 148 0018 002B     		cmp	r3, #0
 149 001a 0FD1     		bne	.L4
 150              		.loc 2 82 0 is_stmt 0 discriminator 1
 151 001c 40F20000 		movw	r0, #:lower16:.LC0
 152 0020 C0F20000 		movt	r0, #:upper16:.LC0
 153 0024 4FF05201 		mov	r1, #82
 154 0028 40F20002 		movw	r2, #:lower16:_ZZN6CMutex4TakeEmE19__PRETTY_FUNCTION__
 155 002c C0F20002 		movt	r2, #:upper16:_ZZN6CMutex4TakeEmE19__PRETTY_FUNCTION__
 156 0030 40F20003 		movw	r3, #:lower16:.LC1
 157 0034 C0F20003 		movt	r3, #:upper16:.LC1
 158 0038 FFF7FEFF 		bl	__assert_func
 159              	.L4:
  83:../FreeRTOS_EC/Source/CMutex.h **** 
  84:../FreeRTOS_EC/Source/CMutex.h **** 	return xSemaphoreTake(m_handleSemaphore, xBlockTime);
 160              		.loc 2 84 0 is_stmt 1
 161 003c 7B68     		ldr	r3, [r7, #4]
 162 003e 5B68     		ldr	r3, [r3, #4]
 163 0040 1846     		mov	r0, r3
 164 0042 4FF00001 		mov	r1, #0
 165 0046 3A68     		ldr	r2, [r7, #0]
 166 0048 4FF00003 		mov	r3, #0
 167 004c FFF7FEFF 		bl	xQueueGenericReceive
 168 0050 0346     		mov	r3, r0
 169              	.LBE3:
  85:../FreeRTOS_EC/Source/CMutex.h **** }
 170              		.loc 2 85 0
 171 0052 1846     		mov	r0, r3
 172 0054 07F10807 		add	r7, r7, #8
 173 0058 BD46     		mov	sp, r7
 174 005a 80BD     		pop	{r7, pc}
 175              		.cfi_endproc
 176              	.LFE113:
 178              		.section	.text._ZN6CMutex4GiveEv,"axG",%progbits,_ZN6CMutex4GiveEv,comdat
 179              		.align	2
 180              		.weak	_ZN6CMutex4GiveEv
 181              		.thumb
 182              		.thumb_func
 184              	_ZN6CMutex4GiveEv:
 185              	.LFB114:
  86:../FreeRTOS_EC/Source/CMutex.h **** 
  87:../FreeRTOS_EC/Source/CMutex.h **** inline
  88:../FreeRTOS_EC/Source/CMutex.h **** portBASE_TYPE CMutex::Give() {
 186              		.loc 2 88 0
 187              		.cfi_startproc
 188              		@ args = 0, pretend = 0, frame = 8
 189              		@ frame_needed = 1, uses_anonymous_args = 0
 190 0000 80B5     		push	{r7, lr}
 191              	.LCFI9:
 192              		.cfi_def_cfa_offset 8
 193              		.cfi_offset 14, -4
 194              		.cfi_offset 7, -8
 195 0002 82B0     		sub	sp, sp, #8
 196              	.LCFI10:
 197              		.cfi_def_cfa_offset 16
 198 0004 00AF     		add	r7, sp, #0
 199              	.LCFI11:
 200              		.cfi_def_cfa_register 7
 201 0006 7860     		str	r0, [r7, #4]
 202              	.LBB4:
  89:../FreeRTOS_EC/Source/CMutex.h **** 	assert(IsValid());
 203              		.loc 2 89 0
 204 0008 7B68     		ldr	r3, [r7, #4]
 205 000a 1B68     		ldr	r3, [r3, #0]
 206 000c 1B68     		ldr	r3, [r3, #0]
 207 000e 7A68     		ldr	r2, [r7, #4]
 208 0010 1046     		mov	r0, r2
 209 0012 9847     		blx	r3
 210 0014 0346     		mov	r3, r0
 211 0016 002B     		cmp	r3, #0
 212 0018 0FD1     		bne	.L6
 213              		.loc 2 89 0 is_stmt 0 discriminator 1
 214 001a 40F20000 		movw	r0, #:lower16:.LC0
 215 001e C0F20000 		movt	r0, #:upper16:.LC0
 216 0022 4FF05901 		mov	r1, #89
 217 0026 40F20002 		movw	r2, #:lower16:_ZZN6CMutex4GiveEvE19__PRETTY_FUNCTION__
 218 002a C0F20002 		movt	r2, #:upper16:_ZZN6CMutex4GiveEvE19__PRETTY_FUNCTION__
 219 002e 40F20003 		movw	r3, #:lower16:.LC1
 220 0032 C0F20003 		movt	r3, #:upper16:.LC1
 221 0036 FFF7FEFF 		bl	__assert_func
 222              	.L6:
  90:../FreeRTOS_EC/Source/CMutex.h **** 
  91:../FreeRTOS_EC/Source/CMutex.h **** 	return xSemaphoreGive(m_handleSemaphore);
 223              		.loc 2 91 0 is_stmt 1
 224 003a 7B68     		ldr	r3, [r7, #4]
 225 003c 5B68     		ldr	r3, [r3, #4]
 226 003e 1846     		mov	r0, r3
 227 0040 4FF00001 		mov	r1, #0
 228 0044 4FF00002 		mov	r2, #0
 229 0048 4FF00003 		mov	r3, #0
 230 004c FFF7FEFF 		bl	xQueueGenericSend
 231 0050 0346     		mov	r3, r0
 232              	.LBE4:
  92:../FreeRTOS_EC/Source/CMutex.h **** }
 233              		.loc 2 92 0
 234 0052 1846     		mov	r0, r3
 235 0054 07F10807 		add	r7, r7, #8
 236 0058 BD46     		mov	sp, r7
 237 005a 80BD     		pop	{r7, pc}
 238              		.cfi_endproc
 239              	.LFE114:
 241              		.text
 242              		.align	2
 243              		.global	_ZN6CMutexC2Ev
 244              		.thumb
 245              		.thumb_func
 247              	_ZN6CMutexC2Ev:
 248              	.LFB116:
 249              		.file 3 "../FreeRTOS_EC/Source/CMutex.cpp"
   1:../FreeRTOS_EC/Source/CMutex.cpp **** /**
   2:../FreeRTOS_EC/Source/CMutex.cpp ****  * CMutex.cpp
   3:../FreeRTOS_EC/Source/CMutex.cpp ****  *
   4:../FreeRTOS_EC/Source/CMutex.cpp ****  *  Created on: Jul 14, 2010
   5:../FreeRTOS_EC/Source/CMutex.cpp ****  *      Author: Stefano Oliveri (STF12.net)
   6:../FreeRTOS_EC/Source/CMutex.cpp ****  *      E-Mail: software@stf12.net
   7:../FreeRTOS_EC/Source/CMutex.cpp ****  */
   8:../FreeRTOS_EC/Source/CMutex.cpp **** 
   9:../FreeRTOS_EC/Source/CMutex.cpp **** #include "CMutex.h"
  10:../FreeRTOS_EC/Source/CMutex.cpp **** 
  11:../FreeRTOS_EC/Source/CMutex.cpp **** CMutex::CMutex() {
 250              		.loc 3 11 0
 251              		.cfi_startproc
 252              		@ args = 0, pretend = 0, frame = 8
 253              		@ frame_needed = 1, uses_anonymous_args = 0
 254 0000 80B5     		push	{r7, lr}
 255              	.LCFI12:
 256              		.cfi_def_cfa_offset 8
 257              		.cfi_offset 14, -4
 258              		.cfi_offset 7, -8
 259 0002 82B0     		sub	sp, sp, #8
 260              	.LCFI13:
 261              		.cfi_def_cfa_offset 16
 262 0004 00AF     		add	r7, sp, #0
 263              	.LCFI14:
 264              		.cfi_def_cfa_register 7
 265 0006 7860     		str	r0, [r7, #4]
 266              	.LBB5:
 267              		.loc 3 11 0
 268 0008 7B68     		ldr	r3, [r7, #4]
 269 000a 1846     		mov	r0, r3
 270 000c FFF7FEFF 		bl	_ZN11ASyncObjectC2Ev
 271 0010 7B68     		ldr	r3, [r7, #4]
 272 0012 044A     		ldr	r2, .L9
 273 0014 1A60     		str	r2, [r3, #0]
 274              	.LBE5:
  12:../FreeRTOS_EC/Source/CMutex.cpp **** 	// TODO Auto-generated constructor stub
  13:../FreeRTOS_EC/Source/CMutex.cpp **** 
  14:../FreeRTOS_EC/Source/CMutex.cpp **** }
 275              		.loc 3 14 0
 276 0016 7B68     		ldr	r3, [r7, #4]
 277 0018 1846     		mov	r0, r3
 278 001a 07F10807 		add	r7, r7, #8
 279 001e BD46     		mov	sp, r7
 280 0020 80BD     		pop	{r7, pc}
 281              	.L10:
 282 0022 00BF     		.align	2
 283              	.L9:
 284 0024 08000000 		.word	_ZTV6CMutex+8
 285              		.cfi_endproc
 286              	.LFE116:
 288              		.align	2
 289              		.global	_ZN6CMutexD2Ev
 290              		.thumb
 291              		.thumb_func
 293              	_ZN6CMutexD2Ev:
 294              	.LFB119:
  15:../FreeRTOS_EC/Source/CMutex.cpp **** 
  16:../FreeRTOS_EC/Source/CMutex.cpp **** CMutex::~CMutex() {
 295              		.loc 3 16 0
 296              		.cfi_startproc
 297              		@ args = 0, pretend = 0, frame = 8
 298              		@ frame_needed = 1, uses_anonymous_args = 0
 299 0028 80B5     		push	{r7, lr}
 300              	.LCFI15:
 301              		.cfi_def_cfa_offset 8
 302              		.cfi_offset 14, -4
 303              		.cfi_offset 7, -8
 304 002a 82B0     		sub	sp, sp, #8
 305              	.LCFI16:
 306              		.cfi_def_cfa_offset 16
 307 002c 00AF     		add	r7, sp, #0
 308              	.LCFI17:
 309              		.cfi_def_cfa_register 7
 310 002e 7860     		str	r0, [r7, #4]
 311              	.LBB6:
 312              		.loc 3 16 0
 313 0030 7B68     		ldr	r3, [r7, #4]
 314 0032 0A4A     		ldr	r2, .L14
 315 0034 1A60     		str	r2, [r3, #0]
  17:../FreeRTOS_EC/Source/CMutex.cpp **** 	// TODO Auto-generated destructor stub
  18:../FreeRTOS_EC/Source/CMutex.cpp **** }
 316              		.loc 3 18 0
 317 0036 7868     		ldr	r0, [r7, #4]
 318 0038 FFF7FEFF 		bl	_ZN11ASyncObjectD2Ev
 319              	.LBE6:
 320 003c 4FF00003 		mov	r3, #0
 321 0040 03F00103 		and	r3, r3, #1
 322 0044 DBB2     		uxtb	r3, r3
 323 0046 002B     		cmp	r3, #0
 324 0048 02D0     		beq	.L13
 325              		.loc 3 18 0 is_stmt 0 discriminator 2
 326 004a 7868     		ldr	r0, [r7, #4]
 327 004c FFF7FEFF 		bl	_ZdlPv
 328              	.L13:
 329              		.loc 3 18 0 discriminator 3
 330 0050 7B68     		ldr	r3, [r7, #4]
 331 0052 1846     		mov	r0, r3
 332 0054 07F10807 		add	r7, r7, #8
 333 0058 BD46     		mov	sp, r7
 334 005a 80BD     		pop	{r7, pc}
 335              	.L15:
 336              		.align	2
 337              	.L14:
 338 005c 08000000 		.word	_ZTV6CMutex+8
 339              		.cfi_endproc
 340              	.LFE119:
 342              		.align	2
 343              		.global	_ZN6CMutexD0Ev
 344              		.thumb
 345              		.thumb_func
 347              	_ZN6CMutexD0Ev:
 348              	.LFB121:
  16:../FreeRTOS_EC/Source/CMutex.cpp **** CMutex::~CMutex() {
 349              		.loc 3 16 0 is_stmt 1
 350              		.cfi_startproc
 351              		@ args = 0, pretend = 0, frame = 8
 352              		@ frame_needed = 1, uses_anonymous_args = 0
 353 0060 80B5     		push	{r7, lr}
 354              	.LCFI18:
 355              		.cfi_def_cfa_offset 8
 356              		.cfi_offset 14, -4
 357              		.cfi_offset 7, -8
 358 0062 82B0     		sub	sp, sp, #8
 359              	.LCFI19:
 360              		.cfi_def_cfa_offset 16
 361 0064 00AF     		add	r7, sp, #0
 362              	.LCFI20:
 363              		.cfi_def_cfa_register 7
 364 0066 7860     		str	r0, [r7, #4]
 365              		.loc 3 18 0
 366 0068 7868     		ldr	r0, [r7, #4]
 367 006a FFF7FEFF 		bl	_ZN6CMutexD1Ev
 368 006e 7868     		ldr	r0, [r7, #4]
 369 0070 FFF7FEFF 		bl	_ZdlPv
 370 0074 7B68     		ldr	r3, [r7, #4]
 371 0076 1846     		mov	r0, r3
 372 0078 07F10807 		add	r7, r7, #8
 373 007c BD46     		mov	sp, r7
 374 007e 80BD     		pop	{r7, pc}
 375              		.cfi_endproc
 376              	.LFE121:
 378              		.align	2
 379              		.global	_ZN6CMutexC2EPv
 380              		.thumb
 381              		.thumb_func
 383              	_ZN6CMutexC2EPv:
 384              	.LFB123:
  19:../FreeRTOS_EC/Source/CMutex.cpp **** 
  20:../FreeRTOS_EC/Source/CMutex.cpp **** CMutex::CMutex(xSemaphoreHandle handleSemaphore) {
 385              		.loc 3 20 0
 386              		.cfi_startproc
 387              		@ args = 0, pretend = 0, frame = 8
 388              		@ frame_needed = 1, uses_anonymous_args = 0
 389 0080 80B5     		push	{r7, lr}
 390              	.LCFI21:
 391              		.cfi_def_cfa_offset 8
 392              		.cfi_offset 14, -4
 393              		.cfi_offset 7, -8
 394 0082 82B0     		sub	sp, sp, #8
 395              	.LCFI22:
 396              		.cfi_def_cfa_offset 16
 397 0084 00AF     		add	r7, sp, #0
 398              	.LCFI23:
 399              		.cfi_def_cfa_register 7
 400 0086 7860     		str	r0, [r7, #4]
 401 0088 3960     		str	r1, [r7, #0]
 402              	.LBB7:
 403              		.loc 3 20 0
 404 008a 7B68     		ldr	r3, [r7, #4]
 405 008c 1846     		mov	r0, r3
 406 008e FFF7FEFF 		bl	_ZN11ASyncObjectC2Ev
 407 0092 7B68     		ldr	r3, [r7, #4]
 408 0094 064A     		ldr	r2, .L20
 409 0096 1A60     		str	r2, [r3, #0]
  21:../FreeRTOS_EC/Source/CMutex.cpp **** 	Attach(handleSemaphore);
 410              		.loc 3 21 0
 411 0098 7B68     		ldr	r3, [r7, #4]
 412 009a 1846     		mov	r0, r3
 413 009c 3968     		ldr	r1, [r7, #0]
 414 009e FFF7FEFF 		bl	_ZN11ASyncObject6AttachEPv
 415              	.LBE7:
  22:../FreeRTOS_EC/Source/CMutex.cpp **** }
 416              		.loc 3 22 0
 417 00a2 7B68     		ldr	r3, [r7, #4]
 418 00a4 1846     		mov	r0, r3
 419 00a6 07F10807 		add	r7, r7, #8
 420 00aa BD46     		mov	sp, r7
 421 00ac 80BD     		pop	{r7, pc}
 422              	.L21:
 423 00ae 00BF     		.align	2
 424              	.L20:
 425 00b0 08000000 		.word	_ZTV6CMutex+8
 426              		.cfi_endproc
 427              	.LFE123:
 429              		.align	2
 430              		.global	_ZN6CMutex6CreateEv
 431              		.thumb
 432              		.thumb_func
 434              	_ZN6CMutex6CreateEv:
 435              	.LFB125:
  23:../FreeRTOS_EC/Source/CMutex.cpp **** 
  24:../FreeRTOS_EC/Source/CMutex.cpp **** bool CMutex::Create() {
 436              		.loc 3 24 0
 437              		.cfi_startproc
 438              		@ args = 0, pretend = 0, frame = 16
 439              		@ frame_needed = 1, uses_anonymous_args = 0
 440 00b4 80B5     		push	{r7, lr}
 441              	.LCFI24:
 442              		.cfi_def_cfa_offset 8
 443              		.cfi_offset 14, -4
 444              		.cfi_offset 7, -8
 445 00b6 84B0     		sub	sp, sp, #16
 446              	.LCFI25:
 447              		.cfi_def_cfa_offset 24
 448 00b8 00AF     		add	r7, sp, #0
 449              	.LCFI26:
 450              		.cfi_def_cfa_register 7
 451 00ba 7860     		str	r0, [r7, #4]
 452              	.LBB8:
  25:../FreeRTOS_EC/Source/CMutex.cpp **** 
  26:../FreeRTOS_EC/Source/CMutex.cpp **** #if ( configUSE_MUTEXES == 1 )
  27:../FreeRTOS_EC/Source/CMutex.cpp **** 
  28:../FreeRTOS_EC/Source/CMutex.cpp **** 	xSemaphoreHandle handle;
  29:../FreeRTOS_EC/Source/CMutex.cpp **** 
  30:../FreeRTOS_EC/Source/CMutex.cpp **** 	handle = xSemaphoreCreateMutex();
 453              		.loc 3 30 0
 454 00bc FFF7FEFF 		bl	xQueueCreateMutex
 455 00c0 0346     		mov	r3, r0
 456 00c2 FB60     		str	r3, [r7, #12]
  31:../FreeRTOS_EC/Source/CMutex.cpp **** 
  32:../FreeRTOS_EC/Source/CMutex.cpp **** 	if (handle != NULL)
 457              		.loc 3 32 0
 458 00c4 FB68     		ldr	r3, [r7, #12]
 459 00c6 002B     		cmp	r3, #0
 460 00c8 08D0     		beq	.L23
  33:../FreeRTOS_EC/Source/CMutex.cpp **** 		Attach(handle);
 461              		.loc 3 33 0
 462 00ca 7B68     		ldr	r3, [r7, #4]
 463 00cc 1B68     		ldr	r3, [r3, #0]
 464 00ce 03F10403 		add	r3, r3, #4
 465 00d2 1B68     		ldr	r3, [r3, #0]
 466 00d4 7A68     		ldr	r2, [r7, #4]
 467 00d6 1046     		mov	r0, r2
 468 00d8 F968     		ldr	r1, [r7, #12]
 469 00da 9847     		blx	r3
 470              	.L23:
  34:../FreeRTOS_EC/Source/CMutex.cpp **** #endif
  35:../FreeRTOS_EC/Source/CMutex.cpp **** 
  36:../FreeRTOS_EC/Source/CMutex.cpp **** 	return IsValid();
 471              		.loc 3 36 0
 472 00dc 7B68     		ldr	r3, [r7, #4]
 473 00de 1B68     		ldr	r3, [r3, #0]
 474 00e0 1B68     		ldr	r3, [r3, #0]
 475 00e2 7A68     		ldr	r2, [r7, #4]
 476 00e4 1046     		mov	r0, r2
 477 00e6 9847     		blx	r3
 478 00e8 0346     		mov	r3, r0
 479              	.LBE8:
  37:../FreeRTOS_EC/Source/CMutex.cpp **** }
 480              		.loc 3 37 0
 481 00ea 1846     		mov	r0, r3
 482 00ec 07F11007 		add	r7, r7, #16
 483 00f0 BD46     		mov	sp, r7
 484 00f2 80BD     		pop	{r7, pc}
 485              		.cfi_endproc
 486              	.LFE125:
 488              		.global	_ZTV6CMutex
 489              		.section	.rodata._ZTV6CMutex,"a",%progbits
 490              		.align	3
 493              	_ZTV6CMutex:
 494 0000 00000000 		.word	0
 495 0004 00000000 		.word	0
 496 0008 00000000 		.word	_ZNK11ASyncObject7IsValidEv
 497 000c 00000000 		.word	_ZN11ASyncObject6AttachEPv
 498 0010 00000000 		.word	_ZN11ASyncObject6DetachEv
 499 0014 00000000 		.word	_ZN6CMutexD1Ev
 500 0018 00000000 		.word	_ZN6CMutexD0Ev
 501 001c 00000000 		.word	_ZN6CMutex4TakeEm
 502 0020 00000000 		.word	_ZN6CMutex4GiveEv
 503 0024 00000000 		.section	.rodata._ZZN6CMutex4GiveEvE19__PRETTY_FUNCTION__,"a",%progbits
 504              		.align	2
 507              	_ZZN6CMutex4GiveEvE19__PRETTY_FUNCTION__:
 508 0000 76697274 		.ascii	"virtual long int CMutex::Give()\000"
 508      75616C20 
 508      6C6F6E67 
 508      20696E74 
 508      20434D75 
 509              		.section	.rodata._ZZN6CMutex4TakeEmE19__PRETTY_FUNCTION__,"a",%progbits
 510              		.align	2
 513              	_ZZN6CMutex4TakeEmE19__PRETTY_FUNCTION__:
 514 0000 76697274 		.ascii	"virtual long int CMutex::Take(portTickType)\000"
 514      75616C20 
 514      6C6F6E67 
 514      20696E74 
 514      20434D75 
 515              		.global	_ZN6CMutexC1Ev
 516              		.thumb_set _ZN6CMutexC1Ev,_ZN6CMutexC2Ev
 517              		.global	_ZN6CMutexD1Ev
 518              		.thumb_set _ZN6CMutexD1Ev,_ZN6CMutexD2Ev
 519              		.global	_ZN6CMutexC1EPv
 520              		.thumb_set _ZN6CMutexC1EPv,_ZN6CMutexC2EPv
 521              		.text
 522              	.Letext0:
 523              		.file 4 "c:\\chibistudio\\tools\\gnu tools arm embedded\\4.6 2012q2\\bin\\../lib/gcc/arm-none-eabi
 524              		.file 5 "E:\\Desktop\\thundercyer-the-alarm-clock\\FreeRTOS\\Source\\include/../../Source/portable
 525              		.file 6 "E:\\Desktop\\thundercyer-the-alarm-clock\\FreeRTOS\\Source\\include/queue.h"
 526              		.file 7 "E:\\Desktop\\thundercyer-the-alarm-clock\\FreeRTOS\\Source\\include/semphr.h"
 527              		.file 8 "../FreeRTOS_EC/Source/IFreeRTOSProtocol.h"
 528              		.file 9 "E:\\Desktop\\thundercyer-the-alarm-clock\\CMSIS\\Include/core_cm4.h"