   1              		.syntax unified
   2              		.cpu cortex-m4
   3              		.eabi_attribute 27, 3
   4              		.fpu fpv4-sp-d16
   5              		.eabi_attribute 20, 1
   6              		.eabi_attribute 21, 1
   7              		.eabi_attribute 23, 3
   8              		.eabi_attribute 24, 1
   9              		.eabi_attribute 25, 1
  10              		.eabi_attribute 26, 1
  11              		.eabi_attribute 30, 6
  12              		.eabi_attribute 18, 4
  13              		.thumb
  14              		.file	"CQueue.cpp"
  15              		.text
  16              	.Ltext0:
  17              		.cfi_sections	.debug_frame
  18              		.section	.text._ZNK6CQueue7IsValidEv,"axG",%progbits,_ZNK6CQueue7IsValidEv,comdat
  19              		.align	2
  20              		.weak	_ZNK6CQueue7IsValidEv
  21              		.thumb
  22              		.thumb_func
  24              	_ZNK6CQueue7IsValidEv:
  25              	.LFB122:
  26              		.file 1 "../FreeRTOS_EC/Source/CQueue.h"
   1:../FreeRTOS_EC/Source/CQueue.h **** /**
   2:../FreeRTOS_EC/Source/CQueue.h ****  * @file CQueue.h
   3:../FreeRTOS_EC/Source/CQueue.h ****  * @class CQueue
   4:../FreeRTOS_EC/Source/CQueue.h ****  * @ingroup FreeRTOS_Wrapper
   5:../FreeRTOS_EC/Source/CQueue.h ****  *
   6:../FreeRTOS_EC/Source/CQueue.h ****  * The CQueue class wraps a native FreeRTOS queue handle (xQueueHandle).
   7:../FreeRTOS_EC/Source/CQueue.h ****  * To create a queue instance an object of this class and then call its CQueue::Create method
   8:../FreeRTOS_EC/Source/CQueue.h ****  * like showed in the following sample:
   9:../FreeRTOS_EC/Source/CQueue.h ****  * \code
  10:../FreeRTOS_EC/Source/CQueue.h ****  * CQueue g_aQueue // global task declaration.
  11:../FreeRTOS_EC/Source/CQueue.h ****  *
  12:../FreeRTOS_EC/Source/CQueue.h ****  * void taskControlFunc(void *pParams)
  13:../FreeRTOS_EC/Source/CQueue.h ****  * {
  14:../FreeRTOS_EC/Source/CQueue.h ****  * 	unsigned char *Message;
  15:../FreeRTOS_EC/Source/CQueue.h ****  * 	g_aQueue.Create(nQueueSize, sizeof(queueItemT));
  16:../FreeRTOS_EC/Source/CQueue.h ****  *
  17:../FreeRTOS_EC/Source/CQueue.h ****  * 	for (;;) {
  18:../FreeRTOS_EC/Source/CQueue.h ****  * 		g_aQueue.Receive(&Message, portMAX_DELAY ) != pdTRUE)
  19:../FreeRTOS_EC/Source/CQueue.h ****  * 		// do something
  20:../FreeRTOS_EC/Source/CQueue.h ****  * }
  21:../FreeRTOS_EC/Source/CQueue.h ****  * \endcode
  22:../FreeRTOS_EC/Source/CQueue.h ****  *
  23:../FreeRTOS_EC/Source/CQueue.h ****  * See the CLcdTask for an example.
  24:../FreeRTOS_EC/Source/CQueue.h ****  *
  25:../FreeRTOS_EC/Source/CQueue.h ****  * \sa <a href="http://www.freertos.org/Inter-Task-Communication.html">queue documentation</a> in t
  26:../FreeRTOS_EC/Source/CQueue.h ****  *
  27:../FreeRTOS_EC/Source/CQueue.h ****  * @date Jul 12, 2010
  28:../FreeRTOS_EC/Source/CQueue.h ****  * @author Stefano Oliveri (STF12.net)
  29:../FreeRTOS_EC/Source/CQueue.h ****  *         E-Mail: software@stf12.net
  30:../FreeRTOS_EC/Source/CQueue.h ****  */
  31:../FreeRTOS_EC/Source/CQueue.h **** 
  32:../FreeRTOS_EC/Source/CQueue.h **** 
  33:../FreeRTOS_EC/Source/CQueue.h **** #ifndef CQUEUE_H_
  34:../FreeRTOS_EC/Source/CQueue.h **** #define CQUEUE_H_
  35:../FreeRTOS_EC/Source/CQueue.h **** 
  36:../FreeRTOS_EC/Source/CQueue.h **** #include <assert.h>
  37:../FreeRTOS_EC/Source/CQueue.h **** 
  38:../FreeRTOS_EC/Source/CQueue.h **** #include "FreeRTOS.h"
  39:../FreeRTOS_EC/Source/CQueue.h **** #include "queue.h"
  40:../FreeRTOS_EC/Source/CQueue.h **** #include "IFreeRTOSProtocol.h"
  41:../FreeRTOS_EC/Source/CQueue.h **** 
  42:../FreeRTOS_EC/Source/CQueue.h **** 
  43:../FreeRTOS_EC/Source/CQueue.h **** class CQueue: public IFreeRTOSObj {
  44:../FreeRTOS_EC/Source/CQueue.h **** 	/**
  45:../FreeRTOS_EC/Source/CQueue.h **** 	 * Specifies the native FreeRTOS handle managed by an instance of this class.
  46:../FreeRTOS_EC/Source/CQueue.h **** 	 */
  47:../FreeRTOS_EC/Source/CQueue.h **** 	xQueueHandle m_handleQueue;
  48:../FreeRTOS_EC/Source/CQueue.h **** 
  49:../FreeRTOS_EC/Source/CQueue.h **** public:
  50:../FreeRTOS_EC/Source/CQueue.h **** 	/**
  51:../FreeRTOS_EC/Source/CQueue.h **** 	 * The default constructor. It initializes the object without attaching it to a native FreeRTOS ha
  52:../FreeRTOS_EC/Source/CQueue.h **** 	 * Call the Create method to allocate a queue handle and attach it to the object.
  53:../FreeRTOS_EC/Source/CQueue.h **** 	 */
  54:../FreeRTOS_EC/Source/CQueue.h **** 	CQueue();
  55:../FreeRTOS_EC/Source/CQueue.h **** 
  56:../FreeRTOS_EC/Source/CQueue.h **** 	/**
  57:../FreeRTOS_EC/Source/CQueue.h **** 	 * Create a CQueue instance and attach it to a valid handle.
  58:../FreeRTOS_EC/Source/CQueue.h **** 	 *
  59:../FreeRTOS_EC/Source/CQueue.h **** 	 * @param handleQueue a valid queue handle.
  60:../FreeRTOS_EC/Source/CQueue.h **** 	 */
  61:../FreeRTOS_EC/Source/CQueue.h **** 	CQueue(xQueueHandle handleQueue);
  62:../FreeRTOS_EC/Source/CQueue.h **** 
  63:../FreeRTOS_EC/Source/CQueue.h **** 	/**
  64:../FreeRTOS_EC/Source/CQueue.h **** 	 * Delete the native FreeRTOS queue.
  65:../FreeRTOS_EC/Source/CQueue.h **** 	 */
  66:../FreeRTOS_EC/Source/CQueue.h **** 	virtual ~CQueue();
  67:../FreeRTOS_EC/Source/CQueue.h **** 
  68:../FreeRTOS_EC/Source/CQueue.h **** 	/**
  69:../FreeRTOS_EC/Source/CQueue.h **** 	 * Retrieve the native FreeRTOS queue handle attached to this object.
  70:../FreeRTOS_EC/Source/CQueue.h **** 	 *
  71:../FreeRTOS_EC/Source/CQueue.h **** 	 * @return the native FreeRTOS queue handle attached to this object.
  72:../FreeRTOS_EC/Source/CQueue.h **** 	 */
  73:../FreeRTOS_EC/Source/CQueue.h **** 	inline operator xQueueHandle() const { return m_handleQueue; }
  74:../FreeRTOS_EC/Source/CQueue.h **** 
  75:../FreeRTOS_EC/Source/CQueue.h **** 	inline bool IsValid() const;
  76:../FreeRTOS_EC/Source/CQueue.h **** 	void Attach(xGenericHandle handle);
  77:../FreeRTOS_EC/Source/CQueue.h **** 	inline xGenericHandle Detach();
  78:../FreeRTOS_EC/Source/CQueue.h **** 
  79:../FreeRTOS_EC/Source/CQueue.h **** 	// FreeRTOS API Wrappers
  80:../FreeRTOS_EC/Source/CQueue.h **** 
  81:../FreeRTOS_EC/Source/CQueue.h **** 	/**
  82:../FreeRTOS_EC/Source/CQueue.h **** 	 * \sa <a href="http://www.freertos.org/a00116.html">xQueueCreate</a> FreeRTOS API function.
  83:../FreeRTOS_EC/Source/CQueue.h **** 	 */
  84:../FreeRTOS_EC/Source/CQueue.h **** 	CQueue &Create(unsigned portBASE_TYPE uxQueueLength, unsigned portBASE_TYPE uxItemSize);
  85:../FreeRTOS_EC/Source/CQueue.h **** 
  86:../FreeRTOS_EC/Source/CQueue.h **** 	/**
  87:../FreeRTOS_EC/Source/CQueue.h **** 	 * \sa <a href="http://www.freertos.org/a00018.html#vQueueDelete">vQueueDelete</a> FreeRTOS API fu
  88:../FreeRTOS_EC/Source/CQueue.h **** 	 */
  89:../FreeRTOS_EC/Source/CQueue.h **** 	void Delete();
  90:../FreeRTOS_EC/Source/CQueue.h **** 
  91:../FreeRTOS_EC/Source/CQueue.h **** 	/**
  92:../FreeRTOS_EC/Source/CQueue.h **** 	 * \sa <a href="http://www.freertos.org/a00018.html#ucQueueMessagesWaiting">uxQueueMessagesWaiting
  93:../FreeRTOS_EC/Source/CQueue.h **** 	 */
  94:../FreeRTOS_EC/Source/CQueue.h **** 	inline unsigned portBASE_TYPE MessagesWaiting();
  95:../FreeRTOS_EC/Source/CQueue.h **** 
  96:../FreeRTOS_EC/Source/CQueue.h **** 	/**
  97:../FreeRTOS_EC/Source/CQueue.h **** 	 * \sa <a href="http://www.freertos.org/a00117.html">xQueueSend</a> FreeRTOS API function.
  98:../FreeRTOS_EC/Source/CQueue.h **** 	 */
  99:../FreeRTOS_EC/Source/CQueue.h **** 	inline portBASE_TYPE Send(const void * pvItemToQueue, portTickType xTicksToWait);
 100:../FreeRTOS_EC/Source/CQueue.h **** 
 101:../FreeRTOS_EC/Source/CQueue.h **** 	/**
 102:../FreeRTOS_EC/Source/CQueue.h **** 	 * \sa <a href="http://www.freertos.org/xQueueSendToBack.html">SendToBack</a> FreeRTOS API functio
 103:../FreeRTOS_EC/Source/CQueue.h **** 	 */
 104:../FreeRTOS_EC/Source/CQueue.h **** 	inline portBASE_TYPE SendToBack(const void * pvItemToQueue, portTickType xTicksToWait);
 105:../FreeRTOS_EC/Source/CQueue.h **** 
 106:../FreeRTOS_EC/Source/CQueue.h **** 	/**
 107:../FreeRTOS_EC/Source/CQueue.h **** 	 * \sa <a href="http://www.freertos.org/xQueueSendToFront.html">xQueueSendToFront</a> FreeRTOS API
 108:../FreeRTOS_EC/Source/CQueue.h **** 	 */
 109:../FreeRTOS_EC/Source/CQueue.h **** 	inline portBASE_TYPE SendToFront(const void * pvItemToQueue, portTickType xTicksToWait);
 110:../FreeRTOS_EC/Source/CQueue.h **** 
 111:../FreeRTOS_EC/Source/CQueue.h **** 	/**
 112:../FreeRTOS_EC/Source/CQueue.h **** 	 * \sa <a href="http://www.freertos.org/a00118.html">xQueueReceive</a> FreeRTOS API function.
 113:../FreeRTOS_EC/Source/CQueue.h **** 	 */
 114:../FreeRTOS_EC/Source/CQueue.h **** 	inline portBASE_TYPE Receive(void *pvBuffer, portTickType xTicksToWait);
 115:../FreeRTOS_EC/Source/CQueue.h **** 
 116:../FreeRTOS_EC/Source/CQueue.h **** 	/**
 117:../FreeRTOS_EC/Source/CQueue.h **** 	 * \sa <a href="http://www.freertos.org/xQueuePeek.html">xQueuePeek</a> FreeRTOS API function.
 118:../FreeRTOS_EC/Source/CQueue.h **** 	 */
 119:../FreeRTOS_EC/Source/CQueue.h **** 	inline portBASE_TYPE Peek(void *pvBuffer, portTickType xTicksToWait);
 120:../FreeRTOS_EC/Source/CQueue.h **** 
 121:../FreeRTOS_EC/Source/CQueue.h **** 	/**
 122:../FreeRTOS_EC/Source/CQueue.h **** 	 * \sa <a href="http://www.freertos.org/a00119.html">xQueueSendFromISR</a> FreeRTOS API function.
 123:../FreeRTOS_EC/Source/CQueue.h **** 	 */
 124:../FreeRTOS_EC/Source/CQueue.h **** 	inline portBASE_TYPE SendFromISR(const void * pvItemToQueue, portBASE_TYPE *pxHigherPriorityTaskWo
 125:../FreeRTOS_EC/Source/CQueue.h **** 
 126:../FreeRTOS_EC/Source/CQueue.h **** 	/**
 127:../FreeRTOS_EC/Source/CQueue.h **** 	 * \sa <a href="http://www.freertos.org/xQueueSendToBackFromISR.html">xQueueSendToBackFromISR</a> 
 128:../FreeRTOS_EC/Source/CQueue.h **** 	 */
 129:../FreeRTOS_EC/Source/CQueue.h **** 	inline portBASE_TYPE SendToBackFromISR(const void * pvItemToQueue, portBASE_TYPE *pxHigherPriority
 130:../FreeRTOS_EC/Source/CQueue.h **** 
 131:../FreeRTOS_EC/Source/CQueue.h **** 	/**
 132:../FreeRTOS_EC/Source/CQueue.h **** 	 * \sa <a href="http://www.freertos.org/xQueueSendToFrontFromISR.html">xQueueSendToFrontFromISR</a
 133:../FreeRTOS_EC/Source/CQueue.h **** 	 */
 134:../FreeRTOS_EC/Source/CQueue.h **** 	inline portBASE_TYPE SendToFrontFromISR(const void * pvItemToQueue, portBASE_TYPE *pxHigherPriorit
 135:../FreeRTOS_EC/Source/CQueue.h **** 
 136:../FreeRTOS_EC/Source/CQueue.h **** 	/**
 137:../FreeRTOS_EC/Source/CQueue.h **** 	 * \sa <a href="http://www.freertos.org/a00120.html">xQueueReceiveFromISR</a> FreeRTOS API functio
 138:../FreeRTOS_EC/Source/CQueue.h **** 	 */
 139:../FreeRTOS_EC/Source/CQueue.h **** 	inline portBASE_TYPE ReceiveFromISR(void *pvBuffer, portBASE_TYPE *pxTaskWoken);
 140:../FreeRTOS_EC/Source/CQueue.h **** 
 141:../FreeRTOS_EC/Source/CQueue.h **** 	/**
 142:../FreeRTOS_EC/Source/CQueue.h **** 	 * \sa <a href="http://www.freertos.org/vQueueAddToRegistry.html">vQueueAddToRegistry</a> FreeRTOS
 143:../FreeRTOS_EC/Source/CQueue.h **** 	 */
 144:../FreeRTOS_EC/Source/CQueue.h **** 	inline void AddToRegistry(signed portCHAR *pcQueueName);
 145:../FreeRTOS_EC/Source/CQueue.h **** 
 146:../FreeRTOS_EC/Source/CQueue.h **** };
 147:../FreeRTOS_EC/Source/CQueue.h **** 
 148:../FreeRTOS_EC/Source/CQueue.h **** // inline method implementation
 149:../FreeRTOS_EC/Source/CQueue.h **** 
 150:../FreeRTOS_EC/Source/CQueue.h **** inline
 151:../FreeRTOS_EC/Source/CQueue.h **** portBASE_TYPE CQueue::Send(const void * pvItemToQueue, portTickType xTicksToWait) {
 152:../FreeRTOS_EC/Source/CQueue.h **** 	return xQueueSend(m_handleQueue, pvItemToQueue, xTicksToWait);
 153:../FreeRTOS_EC/Source/CQueue.h **** }
 154:../FreeRTOS_EC/Source/CQueue.h **** 
 155:../FreeRTOS_EC/Source/CQueue.h **** inline
 156:../FreeRTOS_EC/Source/CQueue.h **** portBASE_TYPE CQueue::SendFromISR(const void * pvItemToQueue, portBASE_TYPE *pxHigherPriorityTaskWo
 157:../FreeRTOS_EC/Source/CQueue.h **** 	return xQueueSendFromISR(m_handleQueue, pvItemToQueue, pxHigherPriorityTaskWoken);
 158:../FreeRTOS_EC/Source/CQueue.h **** }
 159:../FreeRTOS_EC/Source/CQueue.h **** 
 160:../FreeRTOS_EC/Source/CQueue.h **** inline
 161:../FreeRTOS_EC/Source/CQueue.h **** unsigned portBASE_TYPE CQueue::MessagesWaiting() {
 162:../FreeRTOS_EC/Source/CQueue.h **** 	assert(IsValid());
 163:../FreeRTOS_EC/Source/CQueue.h **** 
 164:../FreeRTOS_EC/Source/CQueue.h **** 	return uxQueueMessagesWaiting(m_handleQueue);
 165:../FreeRTOS_EC/Source/CQueue.h **** }
 166:../FreeRTOS_EC/Source/CQueue.h **** 
 167:../FreeRTOS_EC/Source/CQueue.h **** inline
 168:../FreeRTOS_EC/Source/CQueue.h **** portBASE_TYPE CQueue::SendToBack(const void * pvItemToQueue, portTickType xTicksToWait) {
 169:../FreeRTOS_EC/Source/CQueue.h **** 	assert(IsValid());
 170:../FreeRTOS_EC/Source/CQueue.h **** 
 171:../FreeRTOS_EC/Source/CQueue.h **** 	return xQueueSendToBack(m_handleQueue, pvItemToQueue, xTicksToWait);
 172:../FreeRTOS_EC/Source/CQueue.h **** }
 173:../FreeRTOS_EC/Source/CQueue.h **** 
 174:../FreeRTOS_EC/Source/CQueue.h **** inline
 175:../FreeRTOS_EC/Source/CQueue.h **** portBASE_TYPE CQueue::SendToFront(const void * pvItemToQueue, portTickType xTicksToWait) {
 176:../FreeRTOS_EC/Source/CQueue.h **** 	assert(IsValid());
 177:../FreeRTOS_EC/Source/CQueue.h **** 
 178:../FreeRTOS_EC/Source/CQueue.h **** 	return xQueueSendToFront(m_handleQueue, pvItemToQueue, xTicksToWait);
 179:../FreeRTOS_EC/Source/CQueue.h **** }
 180:../FreeRTOS_EC/Source/CQueue.h **** 
 181:../FreeRTOS_EC/Source/CQueue.h **** inline
 182:../FreeRTOS_EC/Source/CQueue.h **** portBASE_TYPE CQueue::Receive(void *pvBuffer, portTickType xTicksToWait) {
 183:../FreeRTOS_EC/Source/CQueue.h **** 	assert(IsValid());
 184:../FreeRTOS_EC/Source/CQueue.h **** 
 185:../FreeRTOS_EC/Source/CQueue.h **** 	return xQueueReceive(m_handleQueue, pvBuffer, xTicksToWait);
 186:../FreeRTOS_EC/Source/CQueue.h **** }
 187:../FreeRTOS_EC/Source/CQueue.h **** 
 188:../FreeRTOS_EC/Source/CQueue.h **** inline
 189:../FreeRTOS_EC/Source/CQueue.h **** portBASE_TYPE CQueue::Peek(void *pvBuffer, portTickType xTicksToWait) {
 190:../FreeRTOS_EC/Source/CQueue.h **** 	assert(IsValid());
 191:../FreeRTOS_EC/Source/CQueue.h **** 
 192:../FreeRTOS_EC/Source/CQueue.h **** 	return xQueuePeek(m_handleQueue, pvBuffer, xTicksToWait);
 193:../FreeRTOS_EC/Source/CQueue.h **** }
 194:../FreeRTOS_EC/Source/CQueue.h **** 
 195:../FreeRTOS_EC/Source/CQueue.h **** inline
 196:../FreeRTOS_EC/Source/CQueue.h **** portBASE_TYPE CQueue::SendToBackFromISR(const void * pvItemToQueue, portBASE_TYPE *pxHigherPriority
 197:../FreeRTOS_EC/Source/CQueue.h **** 	assert(IsValid());
 198:../FreeRTOS_EC/Source/CQueue.h **** 
 199:../FreeRTOS_EC/Source/CQueue.h **** 	return xQueueSendToBackFromISR(m_handleQueue, pvItemToQueue, pxHigherPriorityTaskWoken);
 200:../FreeRTOS_EC/Source/CQueue.h **** }
 201:../FreeRTOS_EC/Source/CQueue.h **** 
 202:../FreeRTOS_EC/Source/CQueue.h **** inline
 203:../FreeRTOS_EC/Source/CQueue.h **** portBASE_TYPE CQueue::SendToFrontFromISR(const void * pvItemToQueue, portBASE_TYPE *pxHigherPriorit
 204:../FreeRTOS_EC/Source/CQueue.h **** 	assert(IsValid());
 205:../FreeRTOS_EC/Source/CQueue.h **** 
 206:../FreeRTOS_EC/Source/CQueue.h **** 	return xQueueSendToFrontFromISR(m_handleQueue, pvItemToQueue, pxHigherPriorityTaskWoken);
 207:../FreeRTOS_EC/Source/CQueue.h **** }
 208:../FreeRTOS_EC/Source/CQueue.h **** 
 209:../FreeRTOS_EC/Source/CQueue.h **** inline
 210:../FreeRTOS_EC/Source/CQueue.h **** portBASE_TYPE CQueue::ReceiveFromISR(void *pvBuffer, portBASE_TYPE *pxTaskWoken) {
 211:../FreeRTOS_EC/Source/CQueue.h **** 	assert(IsValid());
 212:../FreeRTOS_EC/Source/CQueue.h **** 
 213:../FreeRTOS_EC/Source/CQueue.h **** 	return xQueueReceiveFromISR(m_handleQueue, pvBuffer, pxTaskWoken);
 214:../FreeRTOS_EC/Source/CQueue.h **** }
 215:../FreeRTOS_EC/Source/CQueue.h **** 
 216:../FreeRTOS_EC/Source/CQueue.h **** inline
 217:../FreeRTOS_EC/Source/CQueue.h **** void CQueue::AddToRegistry(signed portCHAR *pcQueueName) {
 218:../FreeRTOS_EC/Source/CQueue.h **** #if (configQUEUE_REGISTRY_SIZE > 0)
 219:../FreeRTOS_EC/Source/CQueue.h **** 	assert(IsValid());
 220:../FreeRTOS_EC/Source/CQueue.h **** 
 221:../FreeRTOS_EC/Source/CQueue.h **** 	vQueueAddToRegistry(m_handleQueue, pcQueueName);
 222:../FreeRTOS_EC/Source/CQueue.h **** #endif
 223:../FreeRTOS_EC/Source/CQueue.h **** }
 224:../FreeRTOS_EC/Source/CQueue.h **** 
 225:../FreeRTOS_EC/Source/CQueue.h **** inline
 226:../FreeRTOS_EC/Source/CQueue.h **** bool CQueue::IsValid() const{
  27              		.loc 1 226 0
  28              		.cfi_startproc
  29              		@ args = 0, pretend = 0, frame = 8
  30              		@ frame_needed = 1, uses_anonymous_args = 0
  31              		@ link register save eliminated.
  32 0000 80B4     		push	{r7}
  33              	.LCFI0:
  34              		.cfi_def_cfa_offset 4
  35              		.cfi_offset 7, -4
  36 0002 83B0     		sub	sp, sp, #12
  37              	.LCFI1:
  38              		.cfi_def_cfa_offset 16
  39 0004 00AF     		add	r7, sp, #0
  40              	.LCFI2:
  41              		.cfi_def_cfa_register 7
  42 0006 7860     		str	r0, [r7, #4]
 227:../FreeRTOS_EC/Source/CQueue.h **** 	return m_handleQueue != NULL;
  43              		.loc 1 227 0
  44 0008 7B68     		ldr	r3, [r7, #4]
  45 000a 5B68     		ldr	r3, [r3, #4]
  46 000c 002B     		cmp	r3, #0
  47 000e 0CBF     		ite	eq
  48 0010 0023     		moveq	r3, #0
  49 0012 0123     		movne	r3, #1
  50 0014 DBB2     		uxtb	r3, r3
 228:../FreeRTOS_EC/Source/CQueue.h **** }
  51              		.loc 1 228 0
  52 0016 1846     		mov	r0, r3
  53 0018 07F10C07 		add	r7, r7, #12
  54 001c BD46     		mov	sp, r7
  55 001e 80BC     		pop	{r7}
  56 0020 7047     		bx	lr
  57              		.cfi_endproc
  58              	.LFE122:
  60 0022 00BF     		.section	.text._ZN6CQueue6DetachEv,"axG",%progbits,_ZN6CQueue6DetachEv,comdat
  61              		.align	2
  62              		.weak	_ZN6CQueue6DetachEv
  63              		.thumb
  64              		.thumb_func
  66              	_ZN6CQueue6DetachEv:
  67              	.LFB123:
 229:../FreeRTOS_EC/Source/CQueue.h **** 
 230:../FreeRTOS_EC/Source/CQueue.h **** inline
 231:../FreeRTOS_EC/Source/CQueue.h **** xGenericHandle CQueue::Detach() {
  68              		.loc 1 231 0
  69              		.cfi_startproc
  70              		@ args = 0, pretend = 0, frame = 16
  71              		@ frame_needed = 1, uses_anonymous_args = 0
  72              		@ link register save eliminated.
  73 0000 80B4     		push	{r7}
  74              	.LCFI3:
  75              		.cfi_def_cfa_offset 4
  76              		.cfi_offset 7, -4
  77 0002 85B0     		sub	sp, sp, #20
  78              	.LCFI4:
  79              		.cfi_def_cfa_offset 24
  80 0004 00AF     		add	r7, sp, #0
  81              	.LCFI5:
  82              		.cfi_def_cfa_register 7
  83 0006 7860     		str	r0, [r7, #4]
  84              	.LBB2:
 232:../FreeRTOS_EC/Source/CQueue.h **** 	xQueueHandle res = m_handleQueue;
  85              		.loc 1 232 0
  86 0008 7B68     		ldr	r3, [r7, #4]
  87 000a 5B68     		ldr	r3, [r3, #4]
  88 000c FB60     		str	r3, [r7, #12]
 233:../FreeRTOS_EC/Source/CQueue.h **** 	m_handleQueue = NULL;
  89              		.loc 1 233 0
  90 000e 7B68     		ldr	r3, [r7, #4]
  91 0010 4FF00002 		mov	r2, #0
  92 0014 5A60     		str	r2, [r3, #4]
 234:../FreeRTOS_EC/Source/CQueue.h **** 	return res;
  93              		.loc 1 234 0
  94 0016 FB68     		ldr	r3, [r7, #12]
  95              	.LBE2:
 235:../FreeRTOS_EC/Source/CQueue.h **** }
  96              		.loc 1 235 0
  97 0018 1846     		mov	r0, r3
  98 001a 07F11407 		add	r7, r7, #20
  99 001e BD46     		mov	sp, r7
 100 0020 80BC     		pop	{r7}
 101 0022 7047     		bx	lr
 102              		.cfi_endproc
 103              	.LFE123:
 105              		.section	.text._ZN12IFreeRTOSObjC2Ev,"axG",%progbits,_ZN12IFreeRTOSObjC5Ev,comdat
 106              		.align	2
 107              		.weak	_ZN12IFreeRTOSObjC2Ev
 108              		.thumb
 109              		.thumb_func
 111              	_ZN12IFreeRTOSObjC2Ev:
 112              	.LFB126:
 113              		.file 2 "../FreeRTOS_EC/Source/IFreeRTOSProtocol.h"
   1:../FreeRTOS_EC/Source/IFreeRTOSProtocol.h **** /**
   2:../FreeRTOS_EC/Source/IFreeRTOSProtocol.h ****  * @file IFreeRTOSProtocol.h
   3:../FreeRTOS_EC/Source/IFreeRTOSProtocol.h ****  * @class IFreeRTOSObj
   4:../FreeRTOS_EC/Source/IFreeRTOSProtocol.h ****  * @ingroup FreeRTOS_Wrapper
   5:../FreeRTOS_EC/Source/IFreeRTOSProtocol.h ****  *
   6:../FreeRTOS_EC/Source/IFreeRTOSProtocol.h ****  * This interface provide the basic behavior for all class in the FreeRTOS Wrapper layer. All objec
   7:../FreeRTOS_EC/Source/IFreeRTOSProtocol.h ****  * must be able to manage the owned native FreeRTOS handle. When the handle is created  it is attac
   8:../FreeRTOS_EC/Source/IFreeRTOSProtocol.h ****  * From this moment the object owns the handle. When the object is disposed the handle is deleted a
   9:../FreeRTOS_EC/Source/IFreeRTOSProtocol.h ****  * are freed. It is possible to keep the underling native FreeRTOS handle alive by detaching it bef
  10:../FreeRTOS_EC/Source/IFreeRTOSProtocol.h ****  * object is disposed.
  11:../FreeRTOS_EC/Source/IFreeRTOSProtocol.h ****  *
  12:../FreeRTOS_EC/Source/IFreeRTOSProtocol.h ****  *
  13:../FreeRTOS_EC/Source/IFreeRTOSProtocol.h ****  * @date Aug 5, 2010
  14:../FreeRTOS_EC/Source/IFreeRTOSProtocol.h ****  * @author Stefano Oliveri (STF12.net)
  15:../FreeRTOS_EC/Source/IFreeRTOSProtocol.h ****  *         E-Mail: software@stf12.net
  16:../FreeRTOS_EC/Source/IFreeRTOSProtocol.h ****  */
  17:../FreeRTOS_EC/Source/IFreeRTOSProtocol.h **** 
  18:../FreeRTOS_EC/Source/IFreeRTOSProtocol.h **** 
  19:../FreeRTOS_EC/Source/IFreeRTOSProtocol.h **** #ifndef IFREERTOSPROTOCOL_H_
  20:../FreeRTOS_EC/Source/IFreeRTOSProtocol.h **** #define IFREERTOSPROTOCOL_H_
  21:../FreeRTOS_EC/Source/IFreeRTOSProtocol.h **** 
  22:../FreeRTOS_EC/Source/IFreeRTOSProtocol.h **** typedef void *xGenericHandle;
  23:../FreeRTOS_EC/Source/IFreeRTOSProtocol.h **** 
  24:../FreeRTOS_EC/Source/IFreeRTOSProtocol.h **** class IFreeRTOSObj {
 114              		.loc 2 24 0
 115              		.cfi_startproc
 116              		@ args = 0, pretend = 0, frame = 8
 117              		@ frame_needed = 1, uses_anonymous_args = 0
 118              		@ link register save eliminated.
 119 0000 80B4     		push	{r7}
 120              	.LCFI6:
 121              		.cfi_def_cfa_offset 4
 122              		.cfi_offset 7, -4
 123 0002 83B0     		sub	sp, sp, #12
 124              	.LCFI7:
 125              		.cfi_def_cfa_offset 16
 126 0004 00AF     		add	r7, sp, #0
 127              	.LCFI8:
 128              		.cfi_def_cfa_register 7
 129 0006 7860     		str	r0, [r7, #4]
 130              	.LBB3:
 131              		.loc 2 24 0
 132 0008 7B68     		ldr	r3, [r7, #4]
 133 000a 044A     		ldr	r2, .L5
 134 000c 1A60     		str	r2, [r3, #0]
 135              	.LBE3:
 136 000e 7B68     		ldr	r3, [r7, #4]
 137 0010 1846     		mov	r0, r3
 138 0012 07F10C07 		add	r7, r7, #12
 139 0016 BD46     		mov	sp, r7
 140 0018 80BC     		pop	{r7}
 141 001a 7047     		bx	lr
 142              	.L6:
 143              		.align	2
 144              	.L5:
 145 001c 08000000 		.word	_ZTV12IFreeRTOSObj+8
 146              		.cfi_endproc
 147              	.LFE126:
 149              		.text
 150              		.align	2
 151              		.global	_ZN6CQueueC2Ev
 152              		.thumb
 153              		.thumb_func
 155              	_ZN6CQueueC2Ev:
 156              	.LFB128:
 157              		.file 3 "../FreeRTOS_EC/Source/CQueue.cpp"
   1:../FreeRTOS_EC/Source/CQueue.cpp **** /**
   2:../FreeRTOS_EC/Source/CQueue.cpp ****  * CQueue.cpp
   3:../FreeRTOS_EC/Source/CQueue.cpp ****  *
   4:../FreeRTOS_EC/Source/CQueue.cpp ****  *  Created on: Jul 12, 2010
   5:../FreeRTOS_EC/Source/CQueue.cpp ****  *      Author: Stefano Oliveri (STF12.net)
   6:../FreeRTOS_EC/Source/CQueue.cpp ****  *      E-Mail: software@stf12.net
   7:../FreeRTOS_EC/Source/CQueue.cpp ****  */
   8:../FreeRTOS_EC/Source/CQueue.cpp **** 
   9:../FreeRTOS_EC/Source/CQueue.cpp **** #include "CQueue.h"
  10:../FreeRTOS_EC/Source/CQueue.cpp **** 
  11:../FreeRTOS_EC/Source/CQueue.cpp **** 
  12:../FreeRTOS_EC/Source/CQueue.cpp **** CQueue::CQueue() {
 158              		.loc 3 12 0
 159              		.cfi_startproc
 160              		@ args = 0, pretend = 0, frame = 8
 161              		@ frame_needed = 1, uses_anonymous_args = 0
 162 0000 80B5     		push	{r7, lr}
 163              	.LCFI9:
 164              		.cfi_def_cfa_offset 8
 165              		.cfi_offset 14, -4
 166              		.cfi_offset 7, -8
 167 0002 82B0     		sub	sp, sp, #8
 168              	.LCFI10:
 169              		.cfi_def_cfa_offset 16
 170 0004 00AF     		add	r7, sp, #0
 171              	.LCFI11:
 172              		.cfi_def_cfa_register 7
 173 0006 7860     		str	r0, [r7, #4]
 174              	.LBB4:
 175              		.loc 3 12 0
 176 0008 7B68     		ldr	r3, [r7, #4]
 177 000a 1846     		mov	r0, r3
 178 000c FFF7FEFF 		bl	_ZN12IFreeRTOSObjC2Ev
 179 0010 7B68     		ldr	r3, [r7, #4]
 180 0012 064A     		ldr	r2, .L9
 181 0014 1A60     		str	r2, [r3, #0]
  13:../FreeRTOS_EC/Source/CQueue.cpp **** 	m_handleQueue = NULL;
 182              		.loc 3 13 0
 183 0016 7B68     		ldr	r3, [r7, #4]
 184 0018 4FF00002 		mov	r2, #0
 185 001c 5A60     		str	r2, [r3, #4]
 186              	.LBE4:
  14:../FreeRTOS_EC/Source/CQueue.cpp **** }
 187              		.loc 3 14 0
 188 001e 7B68     		ldr	r3, [r7, #4]
 189 0020 1846     		mov	r0, r3
 190 0022 07F10807 		add	r7, r7, #8
 191 0026 BD46     		mov	sp, r7
 192 0028 80BD     		pop	{r7, pc}
 193              	.L10:
 194 002a 00BF     		.align	2
 195              	.L9:
 196 002c 08000000 		.word	_ZTV6CQueue+8
 197              		.cfi_endproc
 198              	.LFE128:
 200              		.align	2
 201              		.global	_ZN6CQueueD2Ev
 202              		.thumb
 203              		.thumb_func
 205              	_ZN6CQueueD2Ev:
 206              	.LFB131:
  15:../FreeRTOS_EC/Source/CQueue.cpp **** 
  16:../FreeRTOS_EC/Source/CQueue.cpp **** CQueue::~CQueue() {
 207              		.loc 3 16 0
 208              		.cfi_startproc
 209              		@ args = 0, pretend = 0, frame = 8
 210              		@ frame_needed = 1, uses_anonymous_args = 0
 211 0030 80B5     		push	{r7, lr}
 212              	.LCFI12:
 213              		.cfi_def_cfa_offset 8
 214              		.cfi_offset 14, -4
 215              		.cfi_offset 7, -8
 216 0032 82B0     		sub	sp, sp, #8
 217              	.LCFI13:
 218              		.cfi_def_cfa_offset 16
 219 0034 00AF     		add	r7, sp, #0
 220              	.LCFI14:
 221              		.cfi_def_cfa_register 7
 222 0036 7860     		str	r0, [r7, #4]
 223              	.LBB5:
 224              		.loc 3 16 0
 225 0038 7B68     		ldr	r3, [r7, #4]
 226 003a 0D4A     		ldr	r2, .L14
 227 003c 1A60     		str	r2, [r3, #0]
  17:../FreeRTOS_EC/Source/CQueue.cpp **** 	if (IsValid())
 228              		.loc 3 17 0
 229 003e 7868     		ldr	r0, [r7, #4]
 230 0040 FFF7FEFF 		bl	_ZNK6CQueue7IsValidEv
 231 0044 0346     		mov	r3, r0
 232 0046 002B     		cmp	r3, #0
 233 0048 02D0     		beq	.L12
  18:../FreeRTOS_EC/Source/CQueue.cpp **** 		Delete();
 234              		.loc 3 18 0
 235 004a 7868     		ldr	r0, [r7, #4]
 236 004c FFF7FEFF 		bl	_ZN6CQueue6DeleteEv
 237              	.L12:
 238              	.LBE5:
  19:../FreeRTOS_EC/Source/CQueue.cpp **** }
 239              		.loc 3 19 0
 240 0050 4FF00003 		mov	r3, #0
 241 0054 03F00103 		and	r3, r3, #1
 242 0058 DBB2     		uxtb	r3, r3
 243 005a 002B     		cmp	r3, #0
 244 005c 02D0     		beq	.L13
 245              		.loc 3 19 0 is_stmt 0 discriminator 1
 246 005e 7868     		ldr	r0, [r7, #4]
 247 0060 FFF7FEFF 		bl	_ZdlPv
 248              	.L13:
 249              		.loc 3 19 0 discriminator 2
 250 0064 7B68     		ldr	r3, [r7, #4]
 251 0066 1846     		mov	r0, r3
 252 0068 07F10807 		add	r7, r7, #8
 253 006c BD46     		mov	sp, r7
 254 006e 80BD     		pop	{r7, pc}
 255              	.L15:
 256              		.align	2
 257              	.L14:
 258 0070 08000000 		.word	_ZTV6CQueue+8
 259              		.cfi_endproc
 260              	.LFE131:
 262              		.align	2
 263              		.global	_ZN6CQueueD0Ev
 264              		.thumb
 265              		.thumb_func
 267              	_ZN6CQueueD0Ev:
 268              	.LFB133:
  16:../FreeRTOS_EC/Source/CQueue.cpp **** CQueue::~CQueue() {
 269              		.loc 3 16 0 is_stmt 1
 270              		.cfi_startproc
 271              		@ args = 0, pretend = 0, frame = 8
 272              		@ frame_needed = 1, uses_anonymous_args = 0
 273 0074 80B5     		push	{r7, lr}
 274              	.LCFI15:
 275              		.cfi_def_cfa_offset 8
 276              		.cfi_offset 14, -4
 277              		.cfi_offset 7, -8
 278 0076 82B0     		sub	sp, sp, #8
 279              	.LCFI16:
 280              		.cfi_def_cfa_offset 16
 281 0078 00AF     		add	r7, sp, #0
 282              	.LCFI17:
 283              		.cfi_def_cfa_register 7
 284 007a 7860     		str	r0, [r7, #4]
 285              		.loc 3 19 0
 286 007c 7868     		ldr	r0, [r7, #4]
 287 007e FFF7FEFF 		bl	_ZN6CQueueD1Ev
 288 0082 7868     		ldr	r0, [r7, #4]
 289 0084 FFF7FEFF 		bl	_ZdlPv
 290 0088 7B68     		ldr	r3, [r7, #4]
 291 008a 1846     		mov	r0, r3
 292 008c 07F10807 		add	r7, r7, #8
 293 0090 BD46     		mov	sp, r7
 294 0092 80BD     		pop	{r7, pc}
 295              		.cfi_endproc
 296              	.LFE133:
 298              		.align	2
 299              		.global	_ZN6CQueueC2EPv
 300              		.thumb
 301              		.thumb_func
 303              	_ZN6CQueueC2EPv:
 304              	.LFB135:
  20:../FreeRTOS_EC/Source/CQueue.cpp **** 
  21:../FreeRTOS_EC/Source/CQueue.cpp **** CQueue::CQueue(xQueueHandle handleQueue) {
 305              		.loc 3 21 0
 306              		.cfi_startproc
 307              		@ args = 0, pretend = 0, frame = 8
 308              		@ frame_needed = 1, uses_anonymous_args = 0
 309 0094 80B5     		push	{r7, lr}
 310              	.LCFI18:
 311              		.cfi_def_cfa_offset 8
 312              		.cfi_offset 14, -4
 313              		.cfi_offset 7, -8
 314 0096 82B0     		sub	sp, sp, #8
 315              	.LCFI19:
 316              		.cfi_def_cfa_offset 16
 317 0098 00AF     		add	r7, sp, #0
 318              	.LCFI20:
 319              		.cfi_def_cfa_register 7
 320 009a 7860     		str	r0, [r7, #4]
 321 009c 3960     		str	r1, [r7, #0]
 322              	.LBB6:
 323              		.loc 3 21 0
 324 009e 7B68     		ldr	r3, [r7, #4]
 325 00a0 1846     		mov	r0, r3
 326 00a2 FFF7FEFF 		bl	_ZN12IFreeRTOSObjC2Ev
 327 00a6 7B68     		ldr	r3, [r7, #4]
 328 00a8 054A     		ldr	r2, .L20
 329 00aa 1A60     		str	r2, [r3, #0]
  22:../FreeRTOS_EC/Source/CQueue.cpp **** 	Attach(handleQueue);
 330              		.loc 3 22 0
 331 00ac 7868     		ldr	r0, [r7, #4]
 332 00ae 3968     		ldr	r1, [r7, #0]
 333 00b0 FFF7FEFF 		bl	_ZN6CQueue6AttachEPv
 334              	.LBE6:
  23:../FreeRTOS_EC/Source/CQueue.cpp **** }
 335              		.loc 3 23 0
 336 00b4 7B68     		ldr	r3, [r7, #4]
 337 00b6 1846     		mov	r0, r3
 338 00b8 07F10807 		add	r7, r7, #8
 339 00bc BD46     		mov	sp, r7
 340 00be 80BD     		pop	{r7, pc}
 341              	.L21:
 342              		.align	2
 343              	.L20:
 344 00c0 08000000 		.word	_ZTV6CQueue+8
 345              		.cfi_endproc
 346              	.LFE135:
 348              		.section	.rodata
 349              		.align	2
 350              	.LC0:
 351 0000 2E2E2F46 		.ascii	"../FreeRTOS_EC/Source/CQueue.cpp\000"
 351      72656552 
 351      544F535F 
 351      45432F53 
 351      6F757263 
 352 0021 000000   		.align	2
 353              	.LC1:
 354 0024 21497356 		.ascii	"!IsValid()\000"
 354      616C6964 
 354      282900
 355              		.text
 356              		.align	2
 357              		.global	_ZN6CQueue6CreateEmm
 358              		.thumb
 359              		.thumb_func
 361              	_ZN6CQueue6CreateEmm:
 362              	.LFB137:
  24:../FreeRTOS_EC/Source/CQueue.cpp **** 
  25:../FreeRTOS_EC/Source/CQueue.cpp **** CQueue &CQueue::Create(unsigned portBASE_TYPE uxQueueLength, unsigned portBASE_TYPE uxItemSize) {
 363              		.loc 3 25 0
 364              		.cfi_startproc
 365              		@ args = 0, pretend = 0, frame = 24
 366              		@ frame_needed = 1, uses_anonymous_args = 0
 367 00c4 80B5     		push	{r7, lr}
 368              	.LCFI21:
 369              		.cfi_def_cfa_offset 8
 370              		.cfi_offset 14, -4
 371              		.cfi_offset 7, -8
 372 00c6 86B0     		sub	sp, sp, #24
 373              	.LCFI22:
 374              		.cfi_def_cfa_offset 32
 375 00c8 00AF     		add	r7, sp, #0
 376              	.LCFI23:
 377              		.cfi_def_cfa_register 7
 378 00ca F860     		str	r0, [r7, #12]
 379 00cc B960     		str	r1, [r7, #8]
 380 00ce 7A60     		str	r2, [r7, #4]
 381              	.LBB7:
  26:../FreeRTOS_EC/Source/CQueue.cpp **** 	assert(!IsValid());
 382              		.loc 3 26 0
 383 00d0 FB68     		ldr	r3, [r7, #12]
 384 00d2 1B68     		ldr	r3, [r3, #0]
 385 00d4 1B68     		ldr	r3, [r3, #0]
 386 00d6 F868     		ldr	r0, [r7, #12]
 387 00d8 9847     		blx	r3
 388 00da 0346     		mov	r3, r0
 389 00dc 002B     		cmp	r3, #0
 390 00de 0FD0     		beq	.L23
 391              		.loc 3 26 0 is_stmt 0 discriminator 1
 392 00e0 40F20000 		movw	r0, #:lower16:.LC0
 393 00e4 C0F20000 		movt	r0, #:upper16:.LC0
 394 00e8 4FF01A01 		mov	r1, #26
 395 00ec 40F20002 		movw	r2, #:lower16:_ZZN6CQueue6CreateEmmE19__PRETTY_FUNCTION__
 396 00f0 C0F20002 		movt	r2, #:upper16:_ZZN6CQueue6CreateEmmE19__PRETTY_FUNCTION__
 397 00f4 40F20003 		movw	r3, #:lower16:.LC1
 398 00f8 C0F20003 		movt	r3, #:upper16:.LC1
 399 00fc FFF7FEFF 		bl	__assert_func
 400              	.L23:
  27:../FreeRTOS_EC/Source/CQueue.cpp **** 
  28:../FreeRTOS_EC/Source/CQueue.cpp **** 	xQueueHandle handle;
  29:../FreeRTOS_EC/Source/CQueue.cpp **** 
  30:../FreeRTOS_EC/Source/CQueue.cpp **** 	handle = xQueueCreate(uxQueueLength, uxItemSize);
 401              		.loc 3 30 0 is_stmt 1
 402 0100 B868     		ldr	r0, [r7, #8]
 403 0102 7968     		ldr	r1, [r7, #4]
 404 0104 FFF7FEFF 		bl	xQueueCreate
 405 0108 0346     		mov	r3, r0
 406 010a 7B61     		str	r3, [r7, #20]
  31:../FreeRTOS_EC/Source/CQueue.cpp **** 	if (handle != NULL)
 407              		.loc 3 31 0
 408 010c 7B69     		ldr	r3, [r7, #20]
 409 010e 002B     		cmp	r3, #0
 410 0110 07D0     		beq	.L24
  32:../FreeRTOS_EC/Source/CQueue.cpp **** 		Attach(handle);
 411              		.loc 3 32 0
 412 0112 FB68     		ldr	r3, [r7, #12]
 413 0114 1B68     		ldr	r3, [r3, #0]
 414 0116 03F10403 		add	r3, r3, #4
 415 011a 1B68     		ldr	r3, [r3, #0]
 416 011c F868     		ldr	r0, [r7, #12]
 417 011e 7969     		ldr	r1, [r7, #20]
 418 0120 9847     		blx	r3
 419              	.L24:
  33:../FreeRTOS_EC/Source/CQueue.cpp **** 
  34:../FreeRTOS_EC/Source/CQueue.cpp **** 	return *this;
 420              		.loc 3 34 0
 421 0122 FB68     		ldr	r3, [r7, #12]
 422              	.LBE7:
  35:../FreeRTOS_EC/Source/CQueue.cpp **** }
 423              		.loc 3 35 0
 424 0124 1846     		mov	r0, r3
 425 0126 07F11807 		add	r7, r7, #24
 426 012a BD46     		mov	sp, r7
 427 012c 80BD     		pop	{r7, pc}
 428              		.cfi_endproc
 429              	.LFE137:
 431              		.section	.rodata
 432 002f 00       		.align	2
 433              	.LC2:
 434 0030 68616E64 		.ascii	"handle != NULL\000"
 434      6C652021 
 434      3D204E55 
 434      4C4C00
 435 003f 00       		.text
 436 012e 00BF     		.align	2
 437              		.global	_ZN6CQueue6AttachEPv
 438              		.thumb
 439              		.thumb_func
 441              	_ZN6CQueue6AttachEPv:
 442              	.LFB138:
  36:../FreeRTOS_EC/Source/CQueue.cpp **** 
  37:../FreeRTOS_EC/Source/CQueue.cpp **** void CQueue::Attach(xGenericHandle handle) {
 443              		.loc 3 37 0
 444              		.cfi_startproc
 445              		@ args = 0, pretend = 0, frame = 8
 446              		@ frame_needed = 1, uses_anonymous_args = 0
 447 0130 80B5     		push	{r7, lr}
 448              	.LCFI24:
 449              		.cfi_def_cfa_offset 8
 450              		.cfi_offset 14, -4
 451              		.cfi_offset 7, -8
 452 0132 82B0     		sub	sp, sp, #8
 453              	.LCFI25:
 454              		.cfi_def_cfa_offset 16
 455 0134 00AF     		add	r7, sp, #0
 456              	.LCFI26:
 457              		.cfi_def_cfa_register 7
 458 0136 7860     		str	r0, [r7, #4]
 459 0138 3960     		str	r1, [r7, #0]
 460              	.LBB8:
  38:../FreeRTOS_EC/Source/CQueue.cpp **** 	assert(handle != NULL);
 461              		.loc 3 38 0
 462 013a 3B68     		ldr	r3, [r7, #0]
 463 013c 002B     		cmp	r3, #0
 464 013e 0FD1     		bne	.L26
 465              		.loc 3 38 0 is_stmt 0 discriminator 1
 466 0140 40F20000 		movw	r0, #:lower16:.LC0
 467 0144 C0F20000 		movt	r0, #:upper16:.LC0
 468 0148 4FF02601 		mov	r1, #38
 469 014c 40F20002 		movw	r2, #:lower16:_ZZN6CQueue6AttachEPvE19__PRETTY_FUNCTION__
 470 0150 C0F20002 		movt	r2, #:upper16:_ZZN6CQueue6AttachEPvE19__PRETTY_FUNCTION__
 471 0154 40F20003 		movw	r3, #:lower16:.LC2
 472 0158 C0F20003 		movt	r3, #:upper16:.LC2
 473 015c FFF7FEFF 		bl	__assert_func
 474              	.L26:
  39:../FreeRTOS_EC/Source/CQueue.cpp **** 
  40:../FreeRTOS_EC/Source/CQueue.cpp **** 	if (IsValid())
 475              		.loc 3 40 0 is_stmt 1
 476 0160 7B68     		ldr	r3, [r7, #4]
 477 0162 1B68     		ldr	r3, [r3, #0]
 478 0164 1B68     		ldr	r3, [r3, #0]
 479 0166 7868     		ldr	r0, [r7, #4]
 480 0168 9847     		blx	r3
 481 016a 0346     		mov	r3, r0
 482 016c 002B     		cmp	r3, #0
 483 016e 02D0     		beq	.L27
  41:../FreeRTOS_EC/Source/CQueue.cpp **** 		Delete();
 484              		.loc 3 41 0
 485 0170 7868     		ldr	r0, [r7, #4]
 486 0172 FFF7FEFF 		bl	_ZN6CQueue6DeleteEv
 487              	.L27:
  42:../FreeRTOS_EC/Source/CQueue.cpp **** 
  43:../FreeRTOS_EC/Source/CQueue.cpp **** 	m_handleQueue = handle;
 488              		.loc 3 43 0
 489 0176 7B68     		ldr	r3, [r7, #4]
 490 0178 3A68     		ldr	r2, [r7, #0]
 491 017a 5A60     		str	r2, [r3, #4]
 492              	.LBE8:
  44:../FreeRTOS_EC/Source/CQueue.cpp **** }
 493              		.loc 3 44 0
 494 017c 07F10807 		add	r7, r7, #8
 495 0180 BD46     		mov	sp, r7
 496 0182 80BD     		pop	{r7, pc}
 497              		.cfi_endproc
 498              	.LFE138:
 500              		.align	2
 501              		.global	_ZN6CQueue6DeleteEv
 502              		.thumb
 503              		.thumb_func
 505              	_ZN6CQueue6DeleteEv:
 506              	.LFB139:
  45:../FreeRTOS_EC/Source/CQueue.cpp **** 
  46:../FreeRTOS_EC/Source/CQueue.cpp **** void CQueue::Delete() {
 507              		.loc 3 46 0
 508              		.cfi_startproc
 509              		@ args = 0, pretend = 0, frame = 8
 510              		@ frame_needed = 1, uses_anonymous_args = 0
 511 0184 80B5     		push	{r7, lr}
 512              	.LCFI27:
 513              		.cfi_def_cfa_offset 8
 514              		.cfi_offset 14, -4
 515              		.cfi_offset 7, -8
 516 0186 82B0     		sub	sp, sp, #8
 517              	.LCFI28:
 518              		.cfi_def_cfa_offset 16
 519 0188 00AF     		add	r7, sp, #0
 520              	.LCFI29:
 521              		.cfi_def_cfa_register 7
 522 018a 7860     		str	r0, [r7, #4]
  47:../FreeRTOS_EC/Source/CQueue.cpp **** 	if (m_handleQueue != NULL) {
 523              		.loc 3 47 0
 524 018c 7B68     		ldr	r3, [r7, #4]
 525 018e 5B68     		ldr	r3, [r3, #4]
 526 0190 002B     		cmp	r3, #0
 527 0192 08D0     		beq	.L28
  48:../FreeRTOS_EC/Source/CQueue.cpp **** 		vQueueDelete(m_handleQueue);
 528              		.loc 3 48 0
 529 0194 7B68     		ldr	r3, [r7, #4]
 530 0196 5B68     		ldr	r3, [r3, #4]
 531 0198 1846     		mov	r0, r3
 532 019a FFF7FEFF 		bl	vQueueDelete
  49:../FreeRTOS_EC/Source/CQueue.cpp **** 		m_handleQueue = NULL;
 533              		.loc 3 49 0
 534 019e 7B68     		ldr	r3, [r7, #4]
 535 01a0 4FF00002 		mov	r2, #0
 536 01a4 5A60     		str	r2, [r3, #4]
 537              	.L28:
  50:../FreeRTOS_EC/Source/CQueue.cpp **** 	}
  51:../FreeRTOS_EC/Source/CQueue.cpp **** }
 538              		.loc 3 51 0
 539 01a6 07F10807 		add	r7, r7, #8
 540 01aa BD46     		mov	sp, r7
 541 01ac 80BD     		pop	{r7, pc}
 542              		.cfi_endproc
 543              	.LFE139:
 545              		.global	_ZTV6CQueue
 546              		.section	.rodata._ZTV6CQueue,"a",%progbits
 547              		.align	3
 550              	_ZTV6CQueue:
 551 0000 00000000 		.word	0
 552 0004 00000000 		.word	0
 553 0008 00000000 		.word	_ZNK6CQueue7IsValidEv
 554 000c 00000000 		.word	_ZN6CQueue6AttachEPv
 555 0010 00000000 		.word	_ZN6CQueue6DetachEv
 556 0014 00000000 		.word	_ZN6CQueueD1Ev
 557 0018 00000000 		.word	_ZN6CQueueD0Ev
 558              		.weak	_ZTV12IFreeRTOSObj
 559 001c 00000000 		.section	.rodata._ZTV12IFreeRTOSObj,"aG",%progbits,_ZTV12IFreeRTOSObj,comdat
 560              		.align	3
 563              	_ZTV12IFreeRTOSObj:
 564 0000 00000000 		.word	0
 565 0004 00000000 		.word	0
 566 0008 00000000 		.word	__cxa_pure_virtual
 567 000c 00000000 		.word	__cxa_pure_virtual
 568 0010 00000000 		.word	__cxa_pure_virtual
 569 0014 00000000 		.section	.rodata._ZZN6CQueue6AttachEPvE19__PRETTY_FUNCTION__,"a",%progbits
 570              		.align	2
 573              	_ZZN6CQueue6AttachEPvE19__PRETTY_FUNCTION__:
 574 0000 76697274 		.ascii	"virtual void CQueue::Attach(xGenericHandle)\000"
 574      75616C20 
 574      766F6964 
 574      20435175 
 574      6575653A 
 575              		.section	.rodata._ZZN6CQueue6CreateEmmE19__PRETTY_FUNCTION__,"a",%progbits
 576              		.align	2
 579              	_ZZN6CQueue6CreateEmmE19__PRETTY_FUNCTION__:
 580 0000 43517565 		.ascii	"CQueue& CQueue::Create(long unsigned int, long unsi"
 580      75652620 
 580      43517565 
 580      75653A3A 
 580      43726561 
 581 0033 676E6564 		.ascii	"gned int)\000"
 581      20696E74 
 581      2900
 582              		.weak	_ZN12IFreeRTOSObjC1Ev
 583              		.thumb_set _ZN12IFreeRTOSObjC1Ev,_ZN12IFreeRTOSObjC2Ev
 584              		.global	_ZN6CQueueC1Ev
 585              		.thumb_set _ZN6CQueueC1Ev,_ZN6CQueueC2Ev
 586              		.global	_ZN6CQueueD1Ev
 587              		.thumb_set _ZN6CQueueD1Ev,_ZN6CQueueD2Ev
 588              		.global	_ZN6CQueueC1EPv
 589              		.thumb_set _ZN6CQueueC1EPv,_ZN6CQueueC2EPv
 590 003d 000000   		.text
 591              	.Letext0:
 592              		.file 4 "d:/elektronik/ides/eclipse/yagarto/lib/gcc/../../arm-none-eabi/sys-include/stdint.h"
 593              		.file 5 "C:\\Dokumente und Einstellungen\\brand\\Desktop\\thundercyer-the-alarm-clock\\FreeRTOS\\S
 594              		.file 6 "C:\\Dokumente und Einstellungen\\brand\\Desktop\\thundercyer-the-alarm-clock\\FreeRTOS\\S
 595              		.file 7 "C:\\Dokumente und Einstellungen\\brand\\Desktop\\thundercyer-the-alarm-clock\\CMSIS\\Incl