   1              		.syntax unified
   2              		.cpu cortex-m4
   3              		.eabi_attribute 27, 3
   4              		.fpu fpv4-sp-d16
   5              		.eabi_attribute 20, 1
   6              		.eabi_attribute 21, 1
   7              		.eabi_attribute 23, 3
   8              		.eabi_attribute 24, 1
   9              		.eabi_attribute 25, 1
  10              		.eabi_attribute 26, 1
  11              		.eabi_attribute 30, 6
  12              		.eabi_attribute 18, 4
  13              		.thumb
  14              		.file	"CT6963GPIOInterface.cpp"
  15              		.text
  16              	.Ltext0:
  17              		.cfi_sections	.debug_frame
  18              		.section	.text._ZN21CT6963_GPIO_InterfaceC2Ev,"ax",%progbits
  19              		.align	2
  20              		.global	_ZN21CT6963_GPIO_InterfaceC2Ev
  21              		.thumb
  22              		.thumb_func
  24              	_ZN21CT6963_GPIO_InterfaceC2Ev:
  25              	.LFB111:
  26              		.file 1 "../GraphicLCD/CT6963GPIOInterface.cpp"
   1:../GraphicLCD/CT6963GPIOInterface.cpp **** /**
   2:../GraphicLCD/CT6963GPIOInterface.cpp ****   ******************************************************************************
   3:../GraphicLCD/CT6963GPIOInterface.cpp ****   * @file      	CT6963GPIOInterface.cpp
   4:../GraphicLCD/CT6963GPIOInterface.cpp ****   * @author    	Tecnologic86
   5:../GraphicLCD/CT6963GPIOInterface.cpp ****   * @version   	V0.0.0
   6:../GraphicLCD/CT6963GPIOInterface.cpp ****   * @date      	17.02.12
   7:../GraphicLCD/CT6963GPIOInterface.cpp ****   * @brief		implementation of T6963C Gpio Interface
   8:../GraphicLCD/CT6963GPIOInterface.cpp ****   ******************************************************************************
   9:../GraphicLCD/CT6963GPIOInterface.cpp ****   */
  10:../GraphicLCD/CT6963GPIOInterface.cpp **** 
  11:../GraphicLCD/CT6963GPIOInterface.cpp **** /* Includes ------------------------------------------------------------------*/
  12:../GraphicLCD/CT6963GPIOInterface.cpp **** #include "CT6963GPIOInterface.h"
  13:../GraphicLCD/CT6963GPIOInterface.cpp **** #include "FreeRTOS.h"
  14:../GraphicLCD/CT6963GPIOInterface.cpp **** #include "task.h"
  15:../GraphicLCD/CT6963GPIOInterface.cpp **** #include "ustime.h"
  16:../GraphicLCD/CT6963GPIOInterface.cpp **** #include "stm32f4xx.h"
  17:../GraphicLCD/CT6963GPIOInterface.cpp **** #include "stm32f4_discovery.h"
  18:../GraphicLCD/CT6963GPIOInterface.cpp **** /* Private typedef -----------------------------------------------------------*/
  19:../GraphicLCD/CT6963GPIOInterface.cpp **** /* Private define ------------------------------------------------------------*/
  20:../GraphicLCD/CT6963GPIOInterface.cpp **** 
  21:../GraphicLCD/CT6963GPIOInterface.cpp **** // data port
  22:../GraphicLCD/CT6963GPIOInterface.cpp **** #define GLCD_DATA_PORT 			GPIOE
  23:../GraphicLCD/CT6963GPIOInterface.cpp **** #define GLCD_DATA_PORT_MASK 	0xff00
  24:../GraphicLCD/CT6963GPIOInterface.cpp **** #define GLCD_DATA_MODE_MASK_IN 	0xffff0000
  25:../GraphicLCD/CT6963GPIOInterface.cpp **** #define GLCD_DATA_MODE_MASK_OUT	0x55550000
  26:../GraphicLCD/CT6963GPIOInterface.cpp **** #define GLCD_DATA_OFFSET		8
  27:../GraphicLCD/CT6963GPIOInterface.cpp **** #define GLCD_DATA_INPUT 		GLCD_DATA_PORT->MODER &= ~GLCD_DATA_MODE_MASK_IN;
  28:../GraphicLCD/CT6963GPIOInterface.cpp **** #define GLCD_DATA_OUTPUT		GLCD_DATA_PORT->MODER |= GLCD_DATA_MODE_MASK_OUT;
  29:../GraphicLCD/CT6963GPIOInterface.cpp **** 
  30:../GraphicLCD/CT6963GPIOInterface.cpp **** // control port
  31:../GraphicLCD/CT6963GPIOInterface.cpp **** #define GLCD_CTRL_PORT_CD_RD	GPIOC
  32:../GraphicLCD/CT6963GPIOInterface.cpp **** #define GLCD_CTRL_PORT_WR_CE	GPIOB
  33:../GraphicLCD/CT6963GPIOInterface.cpp **** 
  34:../GraphicLCD/CT6963GPIOInterface.cpp **** // control signals
  35:../GraphicLCD/CT6963GPIOInterface.cpp **** #define GLCD_WR			GPIO_Pin_0
  36:../GraphicLCD/CT6963GPIOInterface.cpp **** #define GLCD_RD			GPIO_Pin_5
  37:../GraphicLCD/CT6963GPIOInterface.cpp **** #define GLCD_CE			GPIO_Pin_1
  38:../GraphicLCD/CT6963GPIOInterface.cpp **** #define GLCD_CD			GPIO_Pin_4
  39:../GraphicLCD/CT6963GPIOInterface.cpp **** #define GLCD_RESET		GPIO_Pin_11
  40:../GraphicLCD/CT6963GPIOInterface.cpp **** 
  41:../GraphicLCD/CT6963GPIOInterface.cpp **** const unsigned long c_iDelayFore = 2;
  42:../GraphicLCD/CT6963GPIOInterface.cpp **** const unsigned long c_iDelayAfter = 2;
  43:../GraphicLCD/CT6963GPIOInterface.cpp **** 
  44:../GraphicLCD/CT6963GPIOInterface.cpp **** /* Private macro -------------------------------------------------------------*/
  45:../GraphicLCD/CT6963GPIOInterface.cpp **** /* Private variables ---------------------------------------------------------*/
  46:../GraphicLCD/CT6963GPIOInterface.cpp **** /* Private function prototypes -----------------------------------------------*/
  47:../GraphicLCD/CT6963GPIOInterface.cpp **** /* Private functions ---------------------------------------------------------*/
  48:../GraphicLCD/CT6963GPIOInterface.cpp **** 
  49:../GraphicLCD/CT6963GPIOInterface.cpp **** 
  50:../GraphicLCD/CT6963GPIOInterface.cpp **** 
  51:../GraphicLCD/CT6963GPIOInterface.cpp **** CT6963_GPIO_Interface::CT6963_GPIO_Interface() {
  27              		.loc 1 51 0
  28              		.cfi_startproc
  29              		@ args = 0, pretend = 0, frame = 8
  30              		@ frame_needed = 1, uses_anonymous_args = 0
  31 0000 80B5     		push	{r7, lr}
  32              	.LCFI0:
  33              		.cfi_def_cfa_offset 8
  34              		.cfi_offset 14, -4
  35              		.cfi_offset 7, -8
  36 0002 82B0     		sub	sp, sp, #8
  37              	.LCFI1:
  38              		.cfi_def_cfa_offset 16
  39 0004 00AF     		add	r7, sp, #0
  40              	.LCFI2:
  41              		.cfi_def_cfa_register 7
  42 0006 7860     		str	r0, [r7, #4]
  43              	.LBB2:
  44              		.loc 1 51 0
  45 0008 7B68     		ldr	r3, [r7, #4]
  46 000a 1846     		mov	r0, r3
  47 000c FFF7FEFF 		bl	_ZN13CT6963CDriverC2Ev
  48 0010 7B68     		ldr	r3, [r7, #4]
  49 0012 044A     		ldr	r2, .L3
  50 0014 1A60     		str	r2, [r3, #0]
  51              	.LBE2:
  52:../GraphicLCD/CT6963GPIOInterface.cpp **** 	// TODO Auto-generated constructor stub
  53:../GraphicLCD/CT6963GPIOInterface.cpp **** 
  54:../GraphicLCD/CT6963GPIOInterface.cpp **** }
  52              		.loc 1 54 0
  53 0016 7B68     		ldr	r3, [r7, #4]
  54 0018 1846     		mov	r0, r3
  55 001a 07F10807 		add	r7, r7, #8
  56 001e BD46     		mov	sp, r7
  57 0020 80BD     		pop	{r7, pc}
  58              	.L4:
  59 0022 00BF     		.align	2
  60              	.L3:
  61 0024 08000000 		.word	_ZTV21CT6963_GPIO_Interface+8
  62              		.cfi_endproc
  63              	.LFE111:
  65              		.section	.text._ZN21CT6963_GPIO_InterfaceD2Ev,"ax",%progbits
  66              		.align	2
  67              		.global	_ZN21CT6963_GPIO_InterfaceD2Ev
  68              		.thumb
  69              		.thumb_func
  71              	_ZN21CT6963_GPIO_InterfaceD2Ev:
  72              	.LFB114:
  55:../GraphicLCD/CT6963GPIOInterface.cpp **** 
  56:../GraphicLCD/CT6963GPIOInterface.cpp **** CT6963_GPIO_Interface::~CT6963_GPIO_Interface() {
  73              		.loc 1 56 0
  74              		.cfi_startproc
  75              		@ args = 0, pretend = 0, frame = 8
  76              		@ frame_needed = 1, uses_anonymous_args = 0
  77 0000 80B5     		push	{r7, lr}
  78              	.LCFI3:
  79              		.cfi_def_cfa_offset 8
  80              		.cfi_offset 14, -4
  81              		.cfi_offset 7, -8
  82 0002 82B0     		sub	sp, sp, #8
  83              	.LCFI4:
  84              		.cfi_def_cfa_offset 16
  85 0004 00AF     		add	r7, sp, #0
  86              	.LCFI5:
  87              		.cfi_def_cfa_register 7
  88 0006 7860     		str	r0, [r7, #4]
  89              	.LBB3:
  90              		.loc 1 56 0
  91 0008 7B68     		ldr	r3, [r7, #4]
  92 000a 0A4A     		ldr	r2, .L8
  93 000c 1A60     		str	r2, [r3, #0]
  57:../GraphicLCD/CT6963GPIOInterface.cpp **** 	// TODO Auto-generated destructor stub
  58:../GraphicLCD/CT6963GPIOInterface.cpp **** }
  94              		.loc 1 58 0
  95 000e 7868     		ldr	r0, [r7, #4]
  96 0010 FFF7FEFF 		bl	_ZN13CT6963CDriverD2Ev
  97              	.LBE3:
  98 0014 4FF00003 		mov	r3, #0
  99 0018 03F00103 		and	r3, r3, #1
 100 001c DBB2     		uxtb	r3, r3
 101 001e 002B     		cmp	r3, #0
 102 0020 02D0     		beq	.L7
 103              		.loc 1 58 0 is_stmt 0 discriminator 2
 104 0022 7868     		ldr	r0, [r7, #4]
 105 0024 FFF7FEFF 		bl	_ZdlPv
 106              	.L7:
 107              		.loc 1 58 0 discriminator 3
 108 0028 7B68     		ldr	r3, [r7, #4]
 109 002a 1846     		mov	r0, r3
 110 002c 07F10807 		add	r7, r7, #8
 111 0030 BD46     		mov	sp, r7
 112 0032 80BD     		pop	{r7, pc}
 113              	.L9:
 114              		.align	2
 115              	.L8:
 116 0034 08000000 		.word	_ZTV21CT6963_GPIO_Interface+8
 117              		.cfi_endproc
 118              	.LFE114:
 120              		.section	.text._ZN21CT6963_GPIO_InterfaceD0Ev,"ax",%progbits
 121              		.align	2
 122              		.global	_ZN21CT6963_GPIO_InterfaceD0Ev
 123              		.thumb
 124              		.thumb_func
 126              	_ZN21CT6963_GPIO_InterfaceD0Ev:
 127              	.LFB116:
  56:../GraphicLCD/CT6963GPIOInterface.cpp **** CT6963_GPIO_Interface::~CT6963_GPIO_Interface() {
 128              		.loc 1 56 0 is_stmt 1
 129              		.cfi_startproc
 130              		@ args = 0, pretend = 0, frame = 8
 131              		@ frame_needed = 1, uses_anonymous_args = 0
 132 0000 80B5     		push	{r7, lr}
 133              	.LCFI6:
 134              		.cfi_def_cfa_offset 8
 135              		.cfi_offset 14, -4
 136              		.cfi_offset 7, -8
 137 0002 82B0     		sub	sp, sp, #8
 138              	.LCFI7:
 139              		.cfi_def_cfa_offset 16
 140 0004 00AF     		add	r7, sp, #0
 141              	.LCFI8:
 142              		.cfi_def_cfa_register 7
 143 0006 7860     		str	r0, [r7, #4]
 144              		.loc 1 58 0
 145 0008 7868     		ldr	r0, [r7, #4]
 146 000a FFF7FEFF 		bl	_ZN21CT6963_GPIO_InterfaceD1Ev
 147 000e 7868     		ldr	r0, [r7, #4]
 148 0010 FFF7FEFF 		bl	_ZdlPv
 149 0014 7B68     		ldr	r3, [r7, #4]
 150 0016 1846     		mov	r0, r3
 151 0018 07F10807 		add	r7, r7, #8
 152 001c BD46     		mov	sp, r7
 153 001e 80BD     		pop	{r7, pc}
 154              		.cfi_endproc
 155              	.LFE116:
 157              		.section	.text._Z11CheckStatusv,"ax",%progbits
 158              		.align	2
 159              		.global	_Z11CheckStatusv
 160              		.thumb
 161              		.thumb_func
 163              	_Z11CheckStatusv:
 164              	.LFB117:
  59:../GraphicLCD/CT6963GPIOInterface.cpp **** 
  60:../GraphicLCD/CT6963GPIOInterface.cpp **** /**
  61:../GraphicLCD/CT6963GPIOInterface.cpp ****   * @brief  reads T6963C status byte
  62:../GraphicLCD/CT6963GPIOInterface.cpp ****   * @param  None
  63:../GraphicLCD/CT6963GPIOInterface.cpp ****   * @retval true for display ready
  64:../GraphicLCD/CT6963GPIOInterface.cpp ****   */
  65:../GraphicLCD/CT6963GPIOInterface.cpp **** bool CheckStatus(void)
  66:../GraphicLCD/CT6963GPIOInterface.cpp **** {
 165              		.loc 1 66 0
 166              		.cfi_startproc
 167              		@ args = 0, pretend = 0, frame = 8
 168              		@ frame_needed = 1, uses_anonymous_args = 0
 169 0000 80B5     		push	{r7, lr}
 170              	.LCFI9:
 171              		.cfi_def_cfa_offset 8
 172              		.cfi_offset 14, -4
 173              		.cfi_offset 7, -8
 174 0002 82B0     		sub	sp, sp, #8
 175              	.LCFI10:
 176              		.cfi_def_cfa_offset 16
 177 0004 00AF     		add	r7, sp, #0
 178              	.LCFI11:
 179              		.cfi_def_cfa_register 7
 180              	.LBB4:
  67:../GraphicLCD/CT6963GPIOInterface.cpp **** 
  68:../GraphicLCD/CT6963GPIOInterface.cpp **** 	uint16_t tmp;
  69:../GraphicLCD/CT6963GPIOInterface.cpp **** 	GLCD_DATA_INPUT;
 181              		.loc 1 69 0
 182 0006 4FF48053 		mov	r3, #4096
 183 000a C4F20203 		movt	r3, 16386
 184 000e 4FF48052 		mov	r2, #4096
 185 0012 C4F20202 		movt	r2, 16386
 186 0016 1268     		ldr	r2, [r2, #0]
 187 0018 4FEA0242 		lsl	r2, r2, #16
 188 001c 4FEA1242 		lsr	r2, r2, #16
 189 0020 1A60     		str	r2, [r3, #0]
  70:../GraphicLCD/CT6963GPIOInterface.cpp **** 
  71:../GraphicLCD/CT6963GPIOInterface.cpp **** 	GPIO_ResetBits(GLCD_CTRL_PORT_CD_RD , GLCD_RD);
 190              		.loc 1 71 0
 191 0022 4FF40060 		mov	r0, #2048
 192 0026 C4F20200 		movt	r0, 16386
 193 002a 4FF02001 		mov	r1, #32
 194 002e FFF7FEFF 		bl	GPIO_ResetBits
  72:../GraphicLCD/CT6963GPIOInterface.cpp **** 	GPIO_ResetBits(GLCD_CTRL_PORT_WR_CE , GLCD_CE);
 195              		.loc 1 72 0
 196 0032 4FF48060 		mov	r0, #1024
 197 0036 C4F20200 		movt	r0, 16386
 198 003a 4FF00201 		mov	r1, #2
 199 003e FFF7FEFF 		bl	GPIO_ResetBits
  73:../GraphicLCD/CT6963GPIOInterface.cpp **** 
  74:../GraphicLCD/CT6963GPIOInterface.cpp **** 	delay_us(c_iDelayFore);
 200              		.loc 1 74 0
 201 0042 4FF00200 		mov	r0, #2
 202 0046 FFF7FEFF 		bl	delay_us
  75:../GraphicLCD/CT6963GPIOInterface.cpp **** 
  76:../GraphicLCD/CT6963GPIOInterface.cpp **** 	tmp = ((GPIO_ReadInputData(GLCD_DATA_PORT) & GLCD_DATA_PORT_MASK) >> GLCD_DATA_OFFSET);
 203              		.loc 1 76 0
 204 004a 4FF48050 		mov	r0, #4096
 205 004e C4F20200 		movt	r0, 16386
 206 0052 FFF7FEFF 		bl	GPIO_ReadInputData
 207 0056 0346     		mov	r3, r0
 208 0058 4FEA1323 		lsr	r3, r3, #8
 209 005c FB80     		strh	r3, [r7, #6]	@ movhi
  77:../GraphicLCD/CT6963GPIOInterface.cpp **** 
  78:../GraphicLCD/CT6963GPIOInterface.cpp **** 	GPIO_SetBits(GLCD_CTRL_PORT_WR_CE , GLCD_CE);
 210              		.loc 1 78 0
 211 005e 4FF48060 		mov	r0, #1024
 212 0062 C4F20200 		movt	r0, 16386
 213 0066 4FF00201 		mov	r1, #2
 214 006a FFF7FEFF 		bl	GPIO_SetBits
  79:../GraphicLCD/CT6963GPIOInterface.cpp **** 	GPIO_SetBits(GLCD_CTRL_PORT_CD_RD , GLCD_RD);
 215              		.loc 1 79 0
 216 006e 4FF40060 		mov	r0, #2048
 217 0072 C4F20200 		movt	r0, 16386
 218 0076 4FF02001 		mov	r1, #32
 219 007a FFF7FEFF 		bl	GPIO_SetBits
  80:../GraphicLCD/CT6963GPIOInterface.cpp **** 
  81:../GraphicLCD/CT6963GPIOInterface.cpp **** 	delay_us(c_iDelayAfter);
 220              		.loc 1 81 0
 221 007e 4FF00200 		mov	r0, #2
 222 0082 FFF7FEFF 		bl	delay_us
  82:../GraphicLCD/CT6963GPIOInterface.cpp **** 
  83:../GraphicLCD/CT6963GPIOInterface.cpp **** 	GLCD_DATA_OUTPUT;
 223              		.loc 1 83 0
 224 0086 4FF48053 		mov	r3, #4096
 225 008a C4F20203 		movt	r3, 16386
 226 008e 4FF48052 		mov	r2, #4096
 227 0092 C4F20202 		movt	r2, 16386
 228 0096 1268     		ldr	r2, [r2, #0]
 229 0098 42F0AA42 		orr	r2, r2, #1426063360
 230 009c 42F4AA02 		orr	r2, r2, #5570560
 231 00a0 1A60     		str	r2, [r3, #0]
  84:../GraphicLCD/CT6963GPIOInterface.cpp **** 
  85:../GraphicLCD/CT6963GPIOInterface.cpp **** 	return ((tmp&0x03)==0x03);
 232              		.loc 1 85 0
 233 00a2 FB88     		ldrh	r3, [r7, #6]
 234 00a4 03F00303 		and	r3, r3, #3
 235 00a8 032B     		cmp	r3, #3
 236 00aa 14BF     		ite	ne
 237 00ac 0023     		movne	r3, #0
 238 00ae 0123     		moveq	r3, #1
 239 00b0 DBB2     		uxtb	r3, r3
 240              	.LBE4:
  86:../GraphicLCD/CT6963GPIOInterface.cpp **** }
 241              		.loc 1 86 0
 242 00b2 1846     		mov	r0, r3
 243 00b4 07F10807 		add	r7, r7, #8
 244 00b8 BD46     		mov	sp, r7
 245 00ba 80BD     		pop	{r7, pc}
 246              		.cfi_endproc
 247              	.LFE117:
 249              		.section	.text._ZN21CT6963_GPIO_Interface12HardwareInitEv,"ax",%progbits
 250              		.align	2
 251              		.global	_ZN21CT6963_GPIO_Interface12HardwareInitEv
 252              		.thumb
 253              		.thumb_func
 255              	_ZN21CT6963_GPIO_Interface12HardwareInitEv:
 256              	.LFB118:
  87:../GraphicLCD/CT6963GPIOInterface.cpp **** 
  88:../GraphicLCD/CT6963GPIOInterface.cpp **** 
  89:../GraphicLCD/CT6963GPIOInterface.cpp **** 
  90:../GraphicLCD/CT6963GPIOInterface.cpp **** /**
  91:../GraphicLCD/CT6963GPIOInterface.cpp ****   * @brief  initialize Hardware to drive the display
  92:../GraphicLCD/CT6963GPIOInterface.cpp ****   * @param  None
  93:../GraphicLCD/CT6963GPIOInterface.cpp ****   * @retval None
  94:../GraphicLCD/CT6963GPIOInterface.cpp ****   */
  95:../GraphicLCD/CT6963GPIOInterface.cpp **** void CT6963_GPIO_Interface::HardwareInit(void){
 257              		.loc 1 95 0
 258              		.cfi_startproc
 259              		@ args = 0, pretend = 0, frame = 16
 260              		@ frame_needed = 1, uses_anonymous_args = 0
 261 0000 80B5     		push	{r7, lr}
 262              	.LCFI12:
 263              		.cfi_def_cfa_offset 8
 264              		.cfi_offset 14, -4
 265              		.cfi_offset 7, -8
 266 0002 84B0     		sub	sp, sp, #16
 267              	.LCFI13:
 268              		.cfi_def_cfa_offset 24
 269 0004 00AF     		add	r7, sp, #0
 270              	.LCFI14:
 271              		.cfi_def_cfa_register 7
 272 0006 7860     		str	r0, [r7, #4]
 273              	.LBB5:
  96:../GraphicLCD/CT6963GPIOInterface.cpp **** 
  97:../GraphicLCD/CT6963GPIOInterface.cpp **** 
  98:../GraphicLCD/CT6963GPIOInterface.cpp **** 	GPIO_InitTypeDef GPIO_InitStructure;
  99:../GraphicLCD/CT6963GPIOInterface.cpp **** 	// activate Clock for Io Ports used
 100:../GraphicLCD/CT6963GPIOInterface.cpp **** 	RCC_AHB1PeriphClockCmd(RCC_AHB1Periph_GPIOB , ENABLE);
 274              		.loc 1 100 0
 275 0008 4FF00200 		mov	r0, #2
 276 000c 4FF00101 		mov	r1, #1
 277 0010 FFF7FEFF 		bl	RCC_AHB1PeriphClockCmd
 101:../GraphicLCD/CT6963GPIOInterface.cpp **** 	RCC_AHB1PeriphClockCmd(RCC_AHB1Periph_GPIOC , ENABLE);
 278              		.loc 1 101 0
 279 0014 4FF00400 		mov	r0, #4
 280 0018 4FF00101 		mov	r1, #1
 281 001c FFF7FEFF 		bl	RCC_AHB1PeriphClockCmd
 102:../GraphicLCD/CT6963GPIOInterface.cpp **** 	RCC_AHB1PeriphClockCmd(RCC_AHB1Periph_GPIOE , ENABLE);
 282              		.loc 1 102 0
 283 0020 4FF01000 		mov	r0, #16
 284 0024 4FF00101 		mov	r1, #1
 285 0028 FFF7FEFF 		bl	RCC_AHB1PeriphClockCmd
 103:../GraphicLCD/CT6963GPIOInterface.cpp **** 
 104:../GraphicLCD/CT6963GPIOInterface.cpp **** 	// all pins as pp outputs with no pull
 105:../GraphicLCD/CT6963GPIOInterface.cpp **** 	GPIO_InitStructure.GPIO_Mode = GPIO_Mode_OUT;
 286              		.loc 1 105 0
 287 002c 4FF00103 		mov	r3, #1
 288 0030 3B73     		strb	r3, [r7, #12]
 106:../GraphicLCD/CT6963GPIOInterface.cpp **** 	GPIO_InitStructure.GPIO_OType = GPIO_OType_PP;
 289              		.loc 1 106 0
 290 0032 4FF00003 		mov	r3, #0
 291 0036 BB73     		strb	r3, [r7, #14]
 107:../GraphicLCD/CT6963GPIOInterface.cpp **** 	GPIO_InitStructure.GPIO_PuPd = GPIO_PuPd_NOPULL;
 292              		.loc 1 107 0
 293 0038 4FF00003 		mov	r3, #0
 294 003c FB73     		strb	r3, [r7, #15]
 108:../GraphicLCD/CT6963GPIOInterface.cpp **** 	GPIO_InitStructure.GPIO_Speed = GPIO_Speed_25MHz;
 295              		.loc 1 108 0
 296 003e 4FF00103 		mov	r3, #1
 297 0042 7B73     		strb	r3, [r7, #13]
 109:../GraphicLCD/CT6963GPIOInterface.cpp **** 
 110:../GraphicLCD/CT6963GPIOInterface.cpp **** 	//Control pins CD and RD
 111:../GraphicLCD/CT6963GPIOInterface.cpp **** 	GPIO_InitStructure.GPIO_Pin = GLCD_CD | GLCD_RD;
 298              		.loc 1 111 0
 299 0044 4FF03003 		mov	r3, #48
 300 0048 BB60     		str	r3, [r7, #8]
 112:../GraphicLCD/CT6963GPIOInterface.cpp **** 	GPIO_Init(GLCD_CTRL_PORT_CD_RD,&GPIO_InitStructure);
 301              		.loc 1 112 0
 302 004a 07F10803 		add	r3, r7, #8
 303 004e 4FF40060 		mov	r0, #2048
 304 0052 C4F20200 		movt	r0, 16386
 305 0056 1946     		mov	r1, r3
 306 0058 FFF7FEFF 		bl	GPIO_Init
 113:../GraphicLCD/CT6963GPIOInterface.cpp **** 	//Control pins WR, CE and RST
 114:../GraphicLCD/CT6963GPIOInterface.cpp **** 	GPIO_InitStructure.GPIO_Pin = GLCD_WR | GLCD_CE | GLCD_RESET;
 307              		.loc 1 114 0
 308 005c 40F60303 		movw	r3, #2051
 309 0060 BB60     		str	r3, [r7, #8]
 115:../GraphicLCD/CT6963GPIOInterface.cpp **** 	GPIO_Init(GLCD_CTRL_PORT_WR_CE,&GPIO_InitStructure);
 310              		.loc 1 115 0
 311 0062 07F10803 		add	r3, r7, #8
 312 0066 4FF48060 		mov	r0, #1024
 313 006a C4F20200 		movt	r0, 16386
 314 006e 1946     		mov	r1, r3
 315 0070 FFF7FEFF 		bl	GPIO_Init
 116:../GraphicLCD/CT6963GPIOInterface.cpp **** 
 117:../GraphicLCD/CT6963GPIOInterface.cpp **** 	// data pins are high byte
 118:../GraphicLCD/CT6963GPIOInterface.cpp **** 	GPIO_InitStructure.GPIO_PuPd = GPIO_PuPd_DOWN;
 316              		.loc 1 118 0
 317 0074 4FF00203 		mov	r3, #2
 318 0078 FB73     		strb	r3, [r7, #15]
 119:../GraphicLCD/CT6963GPIOInterface.cpp **** 	GPIO_InitStructure.GPIO_Pin = GLCD_DATA_PORT_MASK;
 319              		.loc 1 119 0
 320 007a 4FF47F43 		mov	r3, #65280
 321 007e BB60     		str	r3, [r7, #8]
 120:../GraphicLCD/CT6963GPIOInterface.cpp **** 	GPIO_Init(GLCD_DATA_PORT,&GPIO_InitStructure);
 322              		.loc 1 120 0
 323 0080 07F10803 		add	r3, r7, #8
 324 0084 4FF48050 		mov	r0, #4096
 325 0088 C4F20200 		movt	r0, 16386
 326 008c 1946     		mov	r1, r3
 327 008e FFF7FEFF 		bl	GPIO_Init
 121:../GraphicLCD/CT6963GPIOInterface.cpp **** 
 122:../GraphicLCD/CT6963GPIOInterface.cpp **** 	//Set all Control pins to high level
 123:../GraphicLCD/CT6963GPIOInterface.cpp **** 	GPIO_SetBits(GLCD_CTRL_PORT_CD_RD , GLCD_CD | GLCD_RD);	GPIO_SetBits(GLCD_CTRL_PORT_WR_CE , GLCD_W
 328              		.loc 1 123 0
 329 0092 4FF40060 		mov	r0, #2048
 330 0096 C4F20200 		movt	r0, 16386
 331 009a 4FF03001 		mov	r1, #48
 332 009e FFF7FEFF 		bl	GPIO_SetBits
 333 00a2 4FF48060 		mov	r0, #1024
 334 00a6 C4F20200 		movt	r0, 16386
 335 00aa 4FF00301 		mov	r1, #3
 336 00ae FFF7FEFF 		bl	GPIO_SetBits
 124:../GraphicLCD/CT6963GPIOInterface.cpp **** 
 125:../GraphicLCD/CT6963GPIOInterface.cpp **** 	init_us_timer(); //delay timer init
 337              		.loc 1 125 0
 338 00b2 FFF7FEFF 		bl	init_us_timer
 339              	.LBE5:
 126:../GraphicLCD/CT6963GPIOInterface.cpp **** 
 127:../GraphicLCD/CT6963GPIOInterface.cpp **** }
 340              		.loc 1 127 0
 341 00b6 07F11007 		add	r7, r7, #16
 342 00ba BD46     		mov	sp, r7
 343 00bc 80BD     		pop	{r7, pc}
 344              		.cfi_endproc
 345              	.LFE118:
 347 00be 00BF     		.section	.text._ZN21CT6963_GPIO_Interface5ResetEv,"ax",%progbits
 348              		.align	2
 349              		.global	_ZN21CT6963_GPIO_Interface5ResetEv
 350              		.thumb
 351              		.thumb_func
 353              	_ZN21CT6963_GPIO_Interface5ResetEv:
 354              	.LFB119:
 128:../GraphicLCD/CT6963GPIOInterface.cpp **** 
 129:../GraphicLCD/CT6963GPIOInterface.cpp **** /**
 130:../GraphicLCD/CT6963GPIOInterface.cpp ****   * @brief  Reset the Display
 131:../GraphicLCD/CT6963GPIOInterface.cpp ****   * @param  None
 132:../GraphicLCD/CT6963GPIOInterface.cpp ****   * @retval None
 133:../GraphicLCD/CT6963GPIOInterface.cpp ****   */
 134:../GraphicLCD/CT6963GPIOInterface.cpp **** void CT6963_GPIO_Interface::Reset(void){
 355              		.loc 1 134 0
 356              		.cfi_startproc
 357              		@ args = 0, pretend = 0, frame = 8
 358              		@ frame_needed = 1, uses_anonymous_args = 0
 359 0000 80B5     		push	{r7, lr}
 360              	.LCFI15:
 361              		.cfi_def_cfa_offset 8
 362              		.cfi_offset 14, -4
 363              		.cfi_offset 7, -8
 364 0002 82B0     		sub	sp, sp, #8
 365              	.LCFI16:
 366              		.cfi_def_cfa_offset 16
 367 0004 00AF     		add	r7, sp, #0
 368              	.LCFI17:
 369              		.cfi_def_cfa_register 7
 370 0006 7860     		str	r0, [r7, #4]
 135:../GraphicLCD/CT6963GPIOInterface.cpp **** 
 136:../GraphicLCD/CT6963GPIOInterface.cpp **** 	GPIO_ResetBits(GLCD_CTRL_PORT_WR_CE , GLCD_RESET | GLCD_CE );
 371              		.loc 1 136 0
 372 0008 4FF48060 		mov	r0, #1024
 373 000c C4F20200 		movt	r0, 16386
 374 0010 40F60201 		movw	r1, #2050
 375 0014 FFF7FEFF 		bl	GPIO_ResetBits
 137:../GraphicLCD/CT6963GPIOInterface.cpp **** 
 138:../GraphicLCD/CT6963GPIOInterface.cpp **** 	vTaskDelay(20);  // sleep 20 ms
 376              		.loc 1 138 0
 377 0018 4FF01400 		mov	r0, #20
 378 001c FFF7FEFF 		bl	vTaskDelay
 139:../GraphicLCD/CT6963GPIOInterface.cpp **** 
 140:../GraphicLCD/CT6963GPIOInterface.cpp **** 	GPIO_SetBits(GLCD_CTRL_PORT_WR_CE , GLCD_RESET | GLCD_CE );
 379              		.loc 1 140 0
 380 0020 4FF48060 		mov	r0, #1024
 381 0024 C4F20200 		movt	r0, 16386
 382 0028 40F60201 		movw	r1, #2050
 383 002c FFF7FEFF 		bl	GPIO_SetBits
 141:../GraphicLCD/CT6963GPIOInterface.cpp **** 
 142:../GraphicLCD/CT6963GPIOInterface.cpp **** }
 384              		.loc 1 142 0
 385 0030 07F10807 		add	r7, r7, #8
 386 0034 BD46     		mov	sp, r7
 387 0036 80BD     		pop	{r7, pc}
 388              		.cfi_endproc
 389              	.LFE119:
 391              		.section	.text._ZN21CT6963_GPIO_Interface12WriteCommandEh,"ax",%progbits
 392              		.align	2
 393              		.global	_ZN21CT6963_GPIO_Interface12WriteCommandEh
 394              		.thumb
 395              		.thumb_func
 397              	_ZN21CT6963_GPIO_Interface12WriteCommandEh:
 398              	.LFB120:
 143:../GraphicLCD/CT6963GPIOInterface.cpp **** 
 144:../GraphicLCD/CT6963GPIOInterface.cpp **** /**
 145:../GraphicLCD/CT6963GPIOInterface.cpp ****   * @brief  writes a command
 146:../GraphicLCD/CT6963GPIOInterface.cpp ****   * @param  command
 147:../GraphicLCD/CT6963GPIOInterface.cpp ****   * @retval None
 148:../GraphicLCD/CT6963GPIOInterface.cpp ****   */
 149:../GraphicLCD/CT6963GPIOInterface.cpp **** void CT6963_GPIO_Interface::WriteCommand(const unsigned char command){
 399              		.loc 1 149 0
 400              		.cfi_startproc
 401              		@ args = 0, pretend = 0, frame = 8
 402              		@ frame_needed = 1, uses_anonymous_args = 0
 403 0000 80B5     		push	{r7, lr}
 404              	.LCFI18:
 405              		.cfi_def_cfa_offset 8
 406              		.cfi_offset 14, -4
 407              		.cfi_offset 7, -8
 408 0002 82B0     		sub	sp, sp, #8
 409              	.LCFI19:
 410              		.cfi_def_cfa_offset 16
 411 0004 00AF     		add	r7, sp, #0
 412              	.LCFI20:
 413              		.cfi_def_cfa_register 7
 414 0006 7860     		str	r0, [r7, #4]
 415 0008 0B46     		mov	r3, r1
 416 000a FB70     		strb	r3, [r7, #3]
 150:../GraphicLCD/CT6963GPIOInterface.cpp **** 
 151:../GraphicLCD/CT6963GPIOInterface.cpp **** 	while(!CheckStatus());
 417              		.loc 1 151 0
 418 000c 00BF     		nop
 419              	.L16:
 420              		.loc 1 151 0 is_stmt 0 discriminator 1
 421 000e FFF7FEFF 		bl	_Z11CheckStatusv
 422 0012 0346     		mov	r3, r0
 423 0014 83F00103 		eor	r3, r3, #1
 424 0018 DBB2     		uxtb	r3, r3
 425 001a 002B     		cmp	r3, #0
 426 001c F7D1     		bne	.L16
 152:../GraphicLCD/CT6963GPIOInterface.cpp **** 
 153:../GraphicLCD/CT6963GPIOInterface.cpp **** 	GLCD_DATA_PORT->ODR &= ~GLCD_DATA_PORT_MASK;  //Clear Data pins
 427              		.loc 1 153 0 is_stmt 1
 428 001e 4FF48053 		mov	r3, #4096
 429 0022 C4F20203 		movt	r3, 16386
 430 0026 4FF48052 		mov	r2, #4096
 431 002a C4F20202 		movt	r2, 16386
 432 002e 5269     		ldr	r2, [r2, #20]
 433 0030 22F47F42 		bic	r2, r2, #65280
 434 0034 5A61     		str	r2, [r3, #20]
 154:../GraphicLCD/CT6963GPIOInterface.cpp **** 	GLCD_DATA_PORT->ODR |= (command << (GLCD_DATA_OFFSET)); // lowbyte will stay as is in this write
 435              		.loc 1 154 0
 436 0036 4FF48053 		mov	r3, #4096
 437 003a C4F20203 		movt	r3, 16386
 438 003e 4FF48052 		mov	r2, #4096
 439 0042 C4F20202 		movt	r2, 16386
 440 0046 5269     		ldr	r2, [r2, #20]
 441 0048 1146     		mov	r1, r2
 442 004a FA78     		ldrb	r2, [r7, #3]	@ zero_extendqisi2
 443 004c 4FEA0222 		lsl	r2, r2, #8
 444 0050 0A43     		orrs	r2, r2, r1
 445 0052 5A61     		str	r2, [r3, #20]
 155:../GraphicLCD/CT6963GPIOInterface.cpp **** 
 156:../GraphicLCD/CT6963GPIOInterface.cpp **** 	GPIO_ResetBits(GLCD_CTRL_PORT_WR_CE , GLCD_WR);
 446              		.loc 1 156 0
 447 0054 4FF48060 		mov	r0, #1024
 448 0058 C4F20200 		movt	r0, 16386
 449 005c 4FF00101 		mov	r1, #1
 450 0060 FFF7FEFF 		bl	GPIO_ResetBits
 157:../GraphicLCD/CT6963GPIOInterface.cpp **** 	GPIO_ResetBits(GLCD_CTRL_PORT_WR_CE , GLCD_CE);
 451              		.loc 1 157 0
 452 0064 4FF48060 		mov	r0, #1024
 453 0068 C4F20200 		movt	r0, 16386
 454 006c 4FF00201 		mov	r1, #2
 455 0070 FFF7FEFF 		bl	GPIO_ResetBits
 158:../GraphicLCD/CT6963GPIOInterface.cpp **** 
 159:../GraphicLCD/CT6963GPIOInterface.cpp **** 	delay_us(c_iDelayFore);   // time for display to read the data
 456              		.loc 1 159 0
 457 0074 4FF00200 		mov	r0, #2
 458 0078 FFF7FEFF 		bl	delay_us
 160:../GraphicLCD/CT6963GPIOInterface.cpp **** 
 161:../GraphicLCD/CT6963GPIOInterface.cpp **** 	GPIO_SetBits(GLCD_CTRL_PORT_WR_CE , GLCD_CE);
 459              		.loc 1 161 0
 460 007c 4FF48060 		mov	r0, #1024
 461 0080 C4F20200 		movt	r0, 16386
 462 0084 4FF00201 		mov	r1, #2
 463 0088 FFF7FEFF 		bl	GPIO_SetBits
 162:../GraphicLCD/CT6963GPIOInterface.cpp **** 	GPIO_SetBits(GLCD_CTRL_PORT_WR_CE , GLCD_WR);
 464              		.loc 1 162 0
 465 008c 4FF48060 		mov	r0, #1024
 466 0090 C4F20200 		movt	r0, 16386
 467 0094 4FF00101 		mov	r1, #1
 468 0098 FFF7FEFF 		bl	GPIO_SetBits
 163:../GraphicLCD/CT6963GPIOInterface.cpp **** 
 164:../GraphicLCD/CT6963GPIOInterface.cpp **** 
 165:../GraphicLCD/CT6963GPIOInterface.cpp **** 	delay_us(c_iDelayAfter);
 469              		.loc 1 165 0
 470 009c 4FF00200 		mov	r0, #2
 471 00a0 FFF7FEFF 		bl	delay_us
 166:../GraphicLCD/CT6963GPIOInterface.cpp **** }
 472              		.loc 1 166 0
 473 00a4 07F10807 		add	r7, r7, #8
 474 00a8 BD46     		mov	sp, r7
 475 00aa 80BD     		pop	{r7, pc}
 476              		.cfi_endproc
 477              	.LFE120:
 479              		.section	.text._ZN21CT6963_GPIO_Interface9WriteDataEh,"ax",%progbits
 480              		.align	2
 481              		.global	_ZN21CT6963_GPIO_Interface9WriteDataEh
 482              		.thumb
 483              		.thumb_func
 485              	_ZN21CT6963_GPIO_Interface9WriteDataEh:
 486              	.LFB121:
 167:../GraphicLCD/CT6963GPIOInterface.cpp **** 
 168:../GraphicLCD/CT6963GPIOInterface.cpp **** /**
 169:../GraphicLCD/CT6963GPIOInterface.cpp ****   * @brief  writes a data
 170:../GraphicLCD/CT6963GPIOInterface.cpp ****   * @param  data
 171:../GraphicLCD/CT6963GPIOInterface.cpp ****   * @retval None
 172:../GraphicLCD/CT6963GPIOInterface.cpp ****   */
 173:../GraphicLCD/CT6963GPIOInterface.cpp **** void CT6963_GPIO_Interface::WriteData(const unsigned char data){
 487              		.loc 1 173 0
 488              		.cfi_startproc
 489              		@ args = 0, pretend = 0, frame = 8
 490              		@ frame_needed = 1, uses_anonymous_args = 0
 491 0000 80B5     		push	{r7, lr}
 492              	.LCFI21:
 493              		.cfi_def_cfa_offset 8
 494              		.cfi_offset 14, -4
 495              		.cfi_offset 7, -8
 496 0002 82B0     		sub	sp, sp, #8
 497              	.LCFI22:
 498              		.cfi_def_cfa_offset 16
 499 0004 00AF     		add	r7, sp, #0
 500              	.LCFI23:
 501              		.cfi_def_cfa_register 7
 502 0006 7860     		str	r0, [r7, #4]
 503 0008 0B46     		mov	r3, r1
 504 000a FB70     		strb	r3, [r7, #3]
 174:../GraphicLCD/CT6963GPIOInterface.cpp **** 	while(!CheckStatus());
 505              		.loc 1 174 0
 506 000c 00BF     		nop
 507              	.L18:
 508              		.loc 1 174 0 is_stmt 0 discriminator 1
 509 000e FFF7FEFF 		bl	_Z11CheckStatusv
 510 0012 0346     		mov	r3, r0
 511 0014 83F00103 		eor	r3, r3, #1
 512 0018 DBB2     		uxtb	r3, r3
 513 001a 002B     		cmp	r3, #0
 514 001c F7D1     		bne	.L18
 175:../GraphicLCD/CT6963GPIOInterface.cpp **** 
 176:../GraphicLCD/CT6963GPIOInterface.cpp **** 	GLCD_DATA_PORT->ODR &= ~GLCD_DATA_PORT_MASK;  //Clear Data pins
 515              		.loc 1 176 0 is_stmt 1
 516 001e 4FF48053 		mov	r3, #4096
 517 0022 C4F20203 		movt	r3, 16386
 518 0026 4FF48052 		mov	r2, #4096
 519 002a C4F20202 		movt	r2, 16386
 520 002e 5269     		ldr	r2, [r2, #20]
 521 0030 22F47F42 		bic	r2, r2, #65280
 522 0034 5A61     		str	r2, [r3, #20]
 177:../GraphicLCD/CT6963GPIOInterface.cpp **** 	GLCD_DATA_PORT->ODR |= ((uint16_t)data << GLCD_DATA_OFFSET); // lowbyte will stay as is in this wr
 523              		.loc 1 177 0
 524 0036 4FF48053 		mov	r3, #4096
 525 003a C4F20203 		movt	r3, 16386
 526 003e 4FF48052 		mov	r2, #4096
 527 0042 C4F20202 		movt	r2, 16386
 528 0046 5269     		ldr	r2, [r2, #20]
 529 0048 1146     		mov	r1, r2
 530 004a FA78     		ldrb	r2, [r7, #3]	@ zero_extendqisi2
 531 004c 4FEA0222 		lsl	r2, r2, #8
 532 0050 0A43     		orrs	r2, r2, r1
 533 0052 5A61     		str	r2, [r3, #20]
 178:../GraphicLCD/CT6963GPIOInterface.cpp **** 
 179:../GraphicLCD/CT6963GPIOInterface.cpp **** 	GPIO_ResetBits(GLCD_CTRL_PORT_CD_RD , GLCD_CD);
 534              		.loc 1 179 0
 535 0054 4FF40060 		mov	r0, #2048
 536 0058 C4F20200 		movt	r0, 16386
 537 005c 4FF01001 		mov	r1, #16
 538 0060 FFF7FEFF 		bl	GPIO_ResetBits
 180:../GraphicLCD/CT6963GPIOInterface.cpp **** 	GPIO_ResetBits(GLCD_CTRL_PORT_WR_CE , GLCD_WR);
 539              		.loc 1 180 0
 540 0064 4FF48060 		mov	r0, #1024
 541 0068 C4F20200 		movt	r0, 16386
 542 006c 4FF00101 		mov	r1, #1
 543 0070 FFF7FEFF 		bl	GPIO_ResetBits
 181:../GraphicLCD/CT6963GPIOInterface.cpp **** 	GPIO_ResetBits(GLCD_CTRL_PORT_WR_CE , GLCD_CE);
 544              		.loc 1 181 0
 545 0074 4FF48060 		mov	r0, #1024
 546 0078 C4F20200 		movt	r0, 16386
 547 007c 4FF00201 		mov	r1, #2
 548 0080 FFF7FEFF 		bl	GPIO_ResetBits
 182:../GraphicLCD/CT6963GPIOInterface.cpp **** 
 183:../GraphicLCD/CT6963GPIOInterface.cpp **** 	delay_us(c_iDelayFore);
 549              		.loc 1 183 0
 550 0084 4FF00200 		mov	r0, #2
 551 0088 FFF7FEFF 		bl	delay_us
 184:../GraphicLCD/CT6963GPIOInterface.cpp **** 
 185:../GraphicLCD/CT6963GPIOInterface.cpp **** 	GPIO_SetBits(GLCD_CTRL_PORT_WR_CE , GLCD_CE);
 552              		.loc 1 185 0
 553 008c 4FF48060 		mov	r0, #1024
 554 0090 C4F20200 		movt	r0, 16386
 555 0094 4FF00201 		mov	r1, #2
 556 0098 FFF7FEFF 		bl	GPIO_SetBits
 186:../GraphicLCD/CT6963GPIOInterface.cpp **** 	GPIO_SetBits(GLCD_CTRL_PORT_CD_RD , GLCD_CD);
 557              		.loc 1 186 0
 558 009c 4FF40060 		mov	r0, #2048
 559 00a0 C4F20200 		movt	r0, 16386
 560 00a4 4FF01001 		mov	r1, #16
 561 00a8 FFF7FEFF 		bl	GPIO_SetBits
 187:../GraphicLCD/CT6963GPIOInterface.cpp **** 	GPIO_SetBits(GLCD_CTRL_PORT_WR_CE , GLCD_WR);
 562              		.loc 1 187 0
 563 00ac 4FF48060 		mov	r0, #1024
 564 00b0 C4F20200 		movt	r0, 16386
 565 00b4 4FF00101 		mov	r1, #1
 566 00b8 FFF7FEFF 		bl	GPIO_SetBits
 188:../GraphicLCD/CT6963GPIOInterface.cpp **** 
 189:../GraphicLCD/CT6963GPIOInterface.cpp **** 	delay_us(c_iDelayAfter);
 567              		.loc 1 189 0
 568 00bc 4FF00200 		mov	r0, #2
 569 00c0 FFF7FEFF 		bl	delay_us
 190:../GraphicLCD/CT6963GPIOInterface.cpp **** }
 570              		.loc 1 190 0
 571 00c4 07F10807 		add	r7, r7, #8
 572 00c8 BD46     		mov	sp, r7
 573 00ca 80BD     		pop	{r7, pc}
 574              		.cfi_endproc
 575              	.LFE121:
 577              		.section	.text._ZN21CT6963_GPIO_Interface8ReadDataEv,"ax",%progbits
 578              		.align	2
 579              		.global	_ZN21CT6963_GPIO_Interface8ReadDataEv
 580              		.thumb
 581              		.thumb_func
 583              	_ZN21CT6963_GPIO_Interface8ReadDataEv:
 584              	.LFB122:
 191:../GraphicLCD/CT6963GPIOInterface.cpp **** 
 192:../GraphicLCD/CT6963GPIOInterface.cpp **** /**
 193:../GraphicLCD/CT6963GPIOInterface.cpp ****   * @brief  reads data from display
 194:../GraphicLCD/CT6963GPIOInterface.cpp ****   * @param  None
 195:../GraphicLCD/CT6963GPIOInterface.cpp ****   * @retval data from display
 196:../GraphicLCD/CT6963GPIOInterface.cpp ****   */
 197:../GraphicLCD/CT6963GPIOInterface.cpp **** unsigned char CT6963_GPIO_Interface::ReadData(){
 585              		.loc 1 197 0
 586              		.cfi_startproc
 587              		@ args = 0, pretend = 0, frame = 16
 588              		@ frame_needed = 1, uses_anonymous_args = 0
 589 0000 80B5     		push	{r7, lr}
 590              	.LCFI24:
 591              		.cfi_def_cfa_offset 8
 592              		.cfi_offset 14, -4
 593              		.cfi_offset 7, -8
 594 0002 84B0     		sub	sp, sp, #16
 595              	.LCFI25:
 596              		.cfi_def_cfa_offset 24
 597 0004 00AF     		add	r7, sp, #0
 598              	.LCFI26:
 599              		.cfi_def_cfa_register 7
 600 0006 7860     		str	r0, [r7, #4]
 601              	.LBB6:
 198:../GraphicLCD/CT6963GPIOInterface.cpp **** 	uint16_t tmp;
 199:../GraphicLCD/CT6963GPIOInterface.cpp **** 	while(!CheckStatus());
 602              		.loc 1 199 0
 603 0008 00BF     		nop
 604              	.L20:
 605              		.loc 1 199 0 is_stmt 0 discriminator 1
 606 000a FFF7FEFF 		bl	_Z11CheckStatusv
 607 000e 0346     		mov	r3, r0
 608 0010 83F00103 		eor	r3, r3, #1
 609 0014 DBB2     		uxtb	r3, r3
 610 0016 002B     		cmp	r3, #0
 611 0018 F7D1     		bne	.L20
 200:../GraphicLCD/CT6963GPIOInterface.cpp **** 
 201:../GraphicLCD/CT6963GPIOInterface.cpp **** 	GLCD_DATA_INPUT;
 612              		.loc 1 201 0 is_stmt 1
 613 001a 4FF48053 		mov	r3, #4096
 614 001e C4F20203 		movt	r3, 16386
 615 0022 4FF48052 		mov	r2, #4096
 616 0026 C4F20202 		movt	r2, 16386
 617 002a 1268     		ldr	r2, [r2, #0]
 618 002c 4FEA0242 		lsl	r2, r2, #16
 619 0030 4FEA1242 		lsr	r2, r2, #16
 620 0034 1A60     		str	r2, [r3, #0]
 202:../GraphicLCD/CT6963GPIOInterface.cpp **** 
 203:../GraphicLCD/CT6963GPIOInterface.cpp **** 	GPIO_ResetBits(GLCD_CTRL_PORT_CD_RD , GLCD_RD );
 621              		.loc 1 203 0
 622 0036 4FF40060 		mov	r0, #2048
 623 003a C4F20200 		movt	r0, 16386
 624 003e 4FF02001 		mov	r1, #32
 625 0042 FFF7FEFF 		bl	GPIO_ResetBits
 204:../GraphicLCD/CT6963GPIOInterface.cpp **** 	GPIO_ResetBits(GLCD_CTRL_PORT_CD_RD , GLCD_CD );
 626              		.loc 1 204 0
 627 0046 4FF40060 		mov	r0, #2048
 628 004a C4F20200 		movt	r0, 16386
 629 004e 4FF01001 		mov	r1, #16
 630 0052 FFF7FEFF 		bl	GPIO_ResetBits
 205:../GraphicLCD/CT6963GPIOInterface.cpp **** 	GPIO_ResetBits(GLCD_CTRL_PORT_WR_CE , GLCD_CE );
 631              		.loc 1 205 0
 632 0056 4FF48060 		mov	r0, #1024
 633 005a C4F20200 		movt	r0, 16386
 634 005e 4FF00201 		mov	r1, #2
 635 0062 FFF7FEFF 		bl	GPIO_ResetBits
 206:../GraphicLCD/CT6963GPIOInterface.cpp **** 
 207:../GraphicLCD/CT6963GPIOInterface.cpp **** 	delay_us(c_iDelayFore);
 636              		.loc 1 207 0
 637 0066 4FF00200 		mov	r0, #2
 638 006a FFF7FEFF 		bl	delay_us
 208:../GraphicLCD/CT6963GPIOInterface.cpp **** 
 209:../GraphicLCD/CT6963GPIOInterface.cpp **** 	tmp = ((GPIO_ReadInputData(GLCD_DATA_PORT) & GLCD_DATA_PORT_MASK) >> GLCD_DATA_OFFSET);
 639              		.loc 1 209 0
 640 006e 4FF48050 		mov	r0, #4096
 641 0072 C4F20200 		movt	r0, 16386
 642 0076 FFF7FEFF 		bl	GPIO_ReadInputData
 643 007a 0346     		mov	r3, r0
 644 007c 4FEA1323 		lsr	r3, r3, #8
 645 0080 FB81     		strh	r3, [r7, #14]	@ movhi
 210:../GraphicLCD/CT6963GPIOInterface.cpp **** 
 211:../GraphicLCD/CT6963GPIOInterface.cpp **** 	GPIO_SetBits(GLCD_CTRL_PORT_WR_CE , GLCD_CE );
 646              		.loc 1 211 0
 647 0082 4FF48060 		mov	r0, #1024
 648 0086 C4F20200 		movt	r0, 16386
 649 008a 4FF00201 		mov	r1, #2
 650 008e FFF7FEFF 		bl	GPIO_SetBits
 212:../GraphicLCD/CT6963GPIOInterface.cpp **** 	GPIO_SetBits(GLCD_CTRL_PORT_CD_RD , GLCD_CD );
 651              		.loc 1 212 0
 652 0092 4FF40060 		mov	r0, #2048
 653 0096 C4F20200 		movt	r0, 16386
 654 009a 4FF01001 		mov	r1, #16
 655 009e FFF7FEFF 		bl	GPIO_SetBits
 213:../GraphicLCD/CT6963GPIOInterface.cpp **** 	GPIO_SetBits(GLCD_CTRL_PORT_CD_RD , GLCD_RD );
 656              		.loc 1 213 0
 657 00a2 4FF40060 		mov	r0, #2048
 658 00a6 C4F20200 		movt	r0, 16386
 659 00aa 4FF02001 		mov	r1, #32
 660 00ae FFF7FEFF 		bl	GPIO_SetBits
 214:../GraphicLCD/CT6963GPIOInterface.cpp **** 
 215:../GraphicLCD/CT6963GPIOInterface.cpp **** 	delay_us(c_iDelayAfter);
 661              		.loc 1 215 0
 662 00b2 4FF00200 		mov	r0, #2
 663 00b6 FFF7FEFF 		bl	delay_us
 216:../GraphicLCD/CT6963GPIOInterface.cpp **** 
 217:../GraphicLCD/CT6963GPIOInterface.cpp **** 	GLCD_DATA_OUTPUT;
 664              		.loc 1 217 0
 665 00ba 4FF48053 		mov	r3, #4096
 666 00be C4F20203 		movt	r3, 16386
 667 00c2 4FF48052 		mov	r2, #4096
 668 00c6 C4F20202 		movt	r2, 16386
 669 00ca 1268     		ldr	r2, [r2, #0]
 670 00cc 42F0AA42 		orr	r2, r2, #1426063360
 671 00d0 42F4AA02 		orr	r2, r2, #5570560
 672 00d4 1A60     		str	r2, [r3, #0]
 218:../GraphicLCD/CT6963GPIOInterface.cpp **** 	return (unsigned char)tmp;
 673              		.loc 1 218 0
 674 00d6 FB89     		ldrh	r3, [r7, #14]	@ movhi
 675 00d8 DBB2     		uxtb	r3, r3
 676              	.LBE6:
 219:../GraphicLCD/CT6963GPIOInterface.cpp **** }
 677              		.loc 1 219 0
 678 00da 1846     		mov	r0, r3
 679 00dc 07F11007 		add	r7, r7, #16
 680 00e0 BD46     		mov	sp, r7
 681 00e2 80BD     		pop	{r7, pc}
 682              		.cfi_endproc
 683              	.LFE122:
 685              		.global	_ZTV21CT6963_GPIO_Interface
 686              		.section	.rodata._ZTV21CT6963_GPIO_Interface,"a",%progbits
 687              		.align	3
 690              	_ZTV21CT6963_GPIO_Interface:
 691 0000 00000000 		.word	0
 692 0004 00000000 		.word	0
 693 0008 00000000 		.word	_ZN13CT6963CDriver5ClearEv
 694 000c 00000000 		.word	_ZN13CT6963CDriver4LineEjjjj
 695 0010 00000000 		.word	_ZN13CT6963CDriver6WindowEjjjj
 696 0014 00000000 		.word	_ZN13CT6963CDriver9RectangleEjjjjb
 697 0018 00000000 		.word	_ZN13CT6963CDriver11SectorClearEjjjj
 698 001c 00000000 		.word	_ZN13CT6963CDriver6CircleEhhh
 699 0020 00000000 		.word	_ZN13CT6963CDriver11WriteStringEPKcRK5tFontjj
 700 0024 00000000 		.word	_ZN13CT6963CDriver6BitmapEPhhhhh
 701 0028 00000000 		.word	_ZN13CT6963CDriver4InitEv
 702 002c 00000000 		.word	_ZN21CT6963_GPIO_InterfaceD1Ev
 703 0030 00000000 		.word	_ZN21CT6963_GPIO_InterfaceD0Ev
 704 0034 00000000 		.word	_ZN21CT6963_GPIO_Interface12HardwareInitEv
 705 0038 00000000 		.word	_ZN21CT6963_GPIO_Interface5ResetEv
 706 003c 00000000 		.word	_ZN21CT6963_GPIO_Interface12WriteCommandEh
 707 0040 00000000 		.word	_ZN21CT6963_GPIO_Interface9WriteDataEh
 708 0044 00000000 		.word	_ZN21CT6963_GPIO_Interface8ReadDataEv
 709              		.section	.rodata._ZL12c_FontNative,"a",%progbits
 710              		.align	2
 713              	_ZL12c_FontNative:
 714 0000 00000000 		.space	24
 714      00000000 
 714      00000000 
 714      00000000 
 714      00000000 
 715              		.section	.rodata._ZL12c_iDelayFore,"a",%progbits
 716              		.align	2
 719              	_ZL12c_iDelayFore:
 720 0000 02000000 		.word	2
 721              		.section	.rodata._ZL13c_iDelayAfter,"a",%progbits
 722              		.align	2
 725              	_ZL13c_iDelayAfter:
 726 0000 02000000 		.word	2
 727              		.global	_ZN21CT6963_GPIO_InterfaceC1Ev
 728              		.thumb_set _ZN21CT6963_GPIO_InterfaceC1Ev,_ZN21CT6963_GPIO_InterfaceC2Ev
 729              		.global	_ZN21CT6963_GPIO_InterfaceD1Ev
 730              		.thumb_set _ZN21CT6963_GPIO_InterfaceD1Ev,_ZN21CT6963_GPIO_InterfaceD2Ev
 731              		.text
 732              	.Letext0:
 733              		.file 2 "../GraphicLCD/CGraphicLCD.h"
 734              		.file 3 "d:/elektronik/ides/eclipse/yagarto/lib/gcc/../../arm-none-eabi/sys-include/stdint.h"
 735              		.file 4 "C:\\Dokumente und Einstellungen\\brand\\Desktop\\thundercyer-the-alarm-clock\\CMSIS\\Devi
 736              		.file 5 "C:\\Dokumente und Einstellungen\\brand\\Desktop\\thundercyer-the-alarm-clock\\STM32F4xx_S
 737              		.file 6 "../GraphicLCD/CT6963CDriver.h"
 738              		.file 7 "../GraphicLCD/CT6963GPIOInterface.h"
 739              		.file 8 "C:\\Dokumente und Einstellungen\\brand\\Desktop\\thundercyer-the-alarm-clock\\CMSIS\\Incl
DEFINED SYMBOLS
                            *ABS*:00000000 CT6963GPIOInterface.cpp
  C:\Temp\cccurSTe.s:19     .text._ZN21CT6963_GPIO_InterfaceC2Ev:00000000 $t
  C:\Temp\cccurSTe.s:24     .text._ZN21CT6963_GPIO_InterfaceC2Ev:00000000 _ZN21CT6963_GPIO_InterfaceC2Ev
  C:\Temp\cccurSTe.s:61     .text._ZN21CT6963_GPIO_InterfaceC2Ev:00000024 $d
  C:\Temp\cccurSTe.s:690    .rodata._ZTV21CT6963_GPIO_Interface:00000000 _ZTV21CT6963_GPIO_Interface
  C:\Temp\cccurSTe.s:66     .text._ZN21CT6963_GPIO_InterfaceD2Ev:00000000 $t
  C:\Temp\cccurSTe.s:71     .text._ZN21CT6963_GPIO_InterfaceD2Ev:00000000 _ZN21CT6963_GPIO_InterfaceD2Ev
  C:\Temp\cccurSTe.s:116    .text._ZN21CT6963_GPIO_InterfaceD2Ev:00000034 $d
  C:\Temp\cccurSTe.s:121    .text._ZN21CT6963_GPIO_InterfaceD0Ev:00000000 $t
  C:\Temp\cccurSTe.s:126    .text._ZN21CT6963_GPIO_InterfaceD0Ev:00000000 _ZN21CT6963_GPIO_InterfaceD0Ev
  C:\Temp\cccurSTe.s:71     .text._ZN21CT6963_GPIO_InterfaceD2Ev:00000000 _ZN21CT6963_GPIO_InterfaceD1Ev
  C:\Temp\cccurSTe.s:158    .text._Z11CheckStatusv:00000000 $t
  C:\Temp\cccurSTe.s:163    .text._Z11CheckStatusv:00000000 _Z11CheckStatusv
  C:\Temp\cccurSTe.s:250    .text._ZN21CT6963_GPIO_Interface12HardwareInitEv:00000000 $t
  C:\Temp\cccurSTe.s:255    .text._ZN21CT6963_GPIO_Interface12HardwareInitEv:00000000 _ZN21CT6963_GPIO_Interface12HardwareInitEv
  C:\Temp\cccurSTe.s:348    .text._ZN21CT6963_GPIO_Interface5ResetEv:00000000 $t
  C:\Temp\cccurSTe.s:353    .text._ZN21CT6963_GPIO_Interface5ResetEv:00000000 _ZN21CT6963_GPIO_Interface5ResetEv
  C:\Temp\cccurSTe.s:392    .text._ZN21CT6963_GPIO_Interface12WriteCommandEh:00000000 $t
  C:\Temp\cccurSTe.s:397    .text._ZN21CT6963_GPIO_Interface12WriteCommandEh:00000000 _ZN21CT6963_GPIO_Interface12WriteCommandEh
  C:\Temp\cccurSTe.s:480    .text._ZN21CT6963_GPIO_Interface9WriteDataEh:00000000 $t
  C:\Temp\cccurSTe.s:485    .text._ZN21CT6963_GPIO_Interface9WriteDataEh:00000000 _ZN21CT6963_GPIO_Interface9WriteDataEh
  C:\Temp\cccurSTe.s:578    .text._ZN21CT6963_GPIO_Interface8ReadDataEv:00000000 $t
  C:\Temp\cccurSTe.s:583    .text._ZN21CT6963_GPIO_Interface8ReadDataEv:00000000 _ZN21CT6963_GPIO_Interface8ReadDataEv
  C:\Temp\cccurSTe.s:687    .rodata._ZTV21CT6963_GPIO_Interface:00000000 $d
  C:\Temp\cccurSTe.s:710    .rodata._ZL12c_FontNative:00000000 $d
  C:\Temp\cccurSTe.s:713    .rodata._ZL12c_FontNative:00000000 _ZL12c_FontNative
  C:\Temp\cccurSTe.s:716    .rodata._ZL12c_iDelayFore:00000000 $d
  C:\Temp\cccurSTe.s:719    .rodata._ZL12c_iDelayFore:00000000 _ZL12c_iDelayFore
  C:\Temp\cccurSTe.s:722    .rodata._ZL13c_iDelayAfter:00000000 $d
  C:\Temp\cccurSTe.s:725    .rodata._ZL13c_iDelayAfter:00000000 _ZL13c_iDelayAfter
  C:\Temp\cccurSTe.s:24     .text._ZN21CT6963_GPIO_InterfaceC2Ev:00000000 _ZN21CT6963_GPIO_InterfaceC1Ev
                     .debug_frame:00000010 $d

UNDEFINED SYMBOLS
_ZN13CT6963CDriverC2Ev
_ZN13CT6963CDriverD2Ev
_ZdlPv
GPIO_ResetBits
delay_us
GPIO_ReadInputData
GPIO_SetBits
RCC_AHB1PeriphClockCmd
GPIO_Init
init_us_timer
vTaskDelay
_ZN13CT6963CDriver5ClearEv
_ZN13CT6963CDriver4LineEjjjj
_ZN13CT6963CDriver6WindowEjjjj
_ZN13CT6963CDriver9RectangleEjjjjb
_ZN13CT6963CDriver11SectorClearEjjjj
_ZN13CT6963CDriver6CircleEhhh
_ZN13CT6963CDriver11WriteStringEPKcRK5tFontjj
_ZN13CT6963CDriver6BitmapEPhhhhh
_ZN13CT6963CDriver4InitEv
