   1              		.syntax unified
   2              		.cpu cortex-m4
   3              		.eabi_attribute 27, 3
   4              		.fpu fpv4-sp-d16
   5              		.eabi_attribute 20, 1
   6              		.eabi_attribute 21, 1
   7              		.eabi_attribute 23, 3
   8              		.eabi_attribute 24, 1
   9              		.eabi_attribute 25, 1
  10              		.eabi_attribute 26, 1
  11              		.eabi_attribute 30, 6
  12              		.eabi_attribute 18, 4
  13              		.thumb
  14              		.file	"CT6963CDriver.cpp"
  15              		.text
  16              	.Ltext0:
  17              		.cfi_sections	.debug_frame
  18              		.section	.text._ZN13CT6963CDriverC2Ev,"ax",%progbits
  19              		.align	2
  20              		.global	_ZN13CT6963CDriverC2Ev
  21              		.thumb
  22              		.thumb_func
  24              	_ZN13CT6963CDriverC2Ev:
  25              	.LFB1:
  26              		.file 1 "../GraphicLCD/CT6963CDriver.cpp"
   1:../GraphicLCD/CT6963CDriver.cpp **** /**
   2:../GraphicLCD/CT6963CDriver.cpp ****   ******************************************************************************
   3:../GraphicLCD/CT6963CDriver.cpp ****   * @file      	CT6963CDriver.cpp
   4:../GraphicLCD/CT6963CDriver.cpp ****   * @author    	Tecnologic86
   5:../GraphicLCD/CT6963CDriver.cpp ****   * @version   	V0.0.0
   6:../GraphicLCD/CT6963CDriver.cpp ****   * @date      	17.02.12
   7:../GraphicLCD/CT6963CDriver.cpp ****   * @brief		implementation of T6963C Driver
   8:../GraphicLCD/CT6963CDriver.cpp ****   ******************************************************************************
   9:../GraphicLCD/CT6963CDriver.cpp ****   */
  10:../GraphicLCD/CT6963CDriver.cpp **** 
  11:../GraphicLCD/CT6963CDriver.cpp **** /* Includes ------------------------------------------------------------------*/
  12:../GraphicLCD/CT6963CDriver.cpp **** #include "CT6963CDriver.h"
  13:../GraphicLCD/CT6963CDriver.cpp **** /* Private typedef -----------------------------------------------------------*/
  14:../GraphicLCD/CT6963CDriver.cpp **** /* Private constants ---------------------------------------------------------*/
  15:../GraphicLCD/CT6963CDriver.cpp **** const unsigned char GLCD_NUMBER_OF_LINES = 128;
  16:../GraphicLCD/CT6963CDriver.cpp **** const unsigned char GLCD_PIXELS_PER_LINE = 240;
  17:../GraphicLCD/CT6963CDriver.cpp **** const unsigned char GLCD_FONT_WIDTH	= 8;
  18:../GraphicLCD/CT6963CDriver.cpp **** 
  19:../GraphicLCD/CT6963CDriver.cpp **** const unsigned char GLCD_GRAPHIC_AREA	=				(GLCD_PIXELS_PER_LINE / GLCD_FONT_WIDTH);
  20:../GraphicLCD/CT6963CDriver.cpp **** const unsigned char GLCD_TEXT_AREA		=				(GLCD_PIXELS_PER_LINE / GLCD_FONT_WIDTH);
  21:../GraphicLCD/CT6963CDriver.cpp **** const unsigned int GLCD_GRAPHIC_SIZE	=				(GLCD_GRAPHIC_AREA * GLCD_NUMBER_OF_LINES);
  22:../GraphicLCD/CT6963CDriver.cpp **** const unsigned int GLCD_TEXT_SIZE		=				(GLCD_TEXT_AREA * (GLCD_NUMBER_OF_LINES/8));
  23:../GraphicLCD/CT6963CDriver.cpp **** 
  24:../GraphicLCD/CT6963CDriver.cpp **** const unsigned int GLCD_TEXT_HOME			=			0;
  25:../GraphicLCD/CT6963CDriver.cpp **** const unsigned int GLCD_GRAPHIC_HOME		=			(GLCD_TEXT_HOME + GLCD_TEXT_SIZE);
  26:../GraphicLCD/CT6963CDriver.cpp **** const unsigned char GLCD_OFFSET_REGISTER	=			2;
  27:../GraphicLCD/CT6963CDriver.cpp **** const unsigned int  GLCD_EXTERNAL_CG_HOME	=			(GLCD_OFFSET_REGISTER << 11);
  28:../GraphicLCD/CT6963CDriver.cpp **** 
  29:../GraphicLCD/CT6963CDriver.cpp **** 
  30:../GraphicLCD/CT6963CDriver.cpp **** const unsigned char T6963_SET_CURSOR_POINTER	=		0x21;
  31:../GraphicLCD/CT6963CDriver.cpp **** const unsigned char T6963_SET_OFFSET_REGISTER	=		0x22;
  32:../GraphicLCD/CT6963CDriver.cpp **** const unsigned char T6963_SET_ADDRESS_POINTER	=		0x24;
  33:../GraphicLCD/CT6963CDriver.cpp **** 
  34:../GraphicLCD/CT6963CDriver.cpp **** const unsigned char T6963_SET_TEXT_HOME_ADDRESS		=	0x40;
  35:../GraphicLCD/CT6963CDriver.cpp **** const unsigned char T6963_SET_TEXT_AREA				=	0x41;
  36:../GraphicLCD/CT6963CDriver.cpp **** const unsigned char T6963_SET_GRAPHIC_HOME_ADDRESS	=	0x42;
  37:../GraphicLCD/CT6963CDriver.cpp **** const unsigned char T6963_SET_GRAPHIC_AREA			=	0x43;
  38:../GraphicLCD/CT6963CDriver.cpp **** 
  39:../GraphicLCD/CT6963CDriver.cpp **** const unsigned char T6963_MODE_SET					=	0x80;
  40:../GraphicLCD/CT6963CDriver.cpp **** 
  41:../GraphicLCD/CT6963CDriver.cpp **** const unsigned char T6963_DISPLAY_MODE				=	0x90;
  42:../GraphicLCD/CT6963CDriver.cpp **** 	const unsigned char T6963_CURSOR_BLINK_ON		=	0x01;
  43:../GraphicLCD/CT6963CDriver.cpp **** 	const unsigned char T6963_CURSOR_DISPLAY_ON		=	0x02;
  44:../GraphicLCD/CT6963CDriver.cpp **** 	const unsigned char T6963_TEXT_DISPLAY_ON		=	0x04;
  45:../GraphicLCD/CT6963CDriver.cpp **** 	const unsigned char T6963_GRAPHIC_DISPLAY_ON	=	0x08;
  46:../GraphicLCD/CT6963CDriver.cpp **** 
  47:../GraphicLCD/CT6963CDriver.cpp **** 
  48:../GraphicLCD/CT6963CDriver.cpp **** const unsigned char T6963_CURSOR_PATTERN_SELECT		=	0xA0;
  49:../GraphicLCD/CT6963CDriver.cpp **** 	const unsigned char T6963_CURSOR_1_LINE			=	0x00;
  50:../GraphicLCD/CT6963CDriver.cpp **** 	const unsigned char T6963_CURSOR_2_LINE			=	0x01;
  51:../GraphicLCD/CT6963CDriver.cpp **** 	const unsigned char T6963_CURSOR_3_LINE			=	0x02;
  52:../GraphicLCD/CT6963CDriver.cpp **** 	const unsigned char T6963_CURSOR_4_LINE			=	0x03;
  53:../GraphicLCD/CT6963CDriver.cpp **** 	const unsigned char T6963_CURSOR_5_LINE			=	0x04;
  54:../GraphicLCD/CT6963CDriver.cpp **** 	const unsigned char T6963_CURSOR_6_LINE			=	0x05;
  55:../GraphicLCD/CT6963CDriver.cpp **** 	const unsigned char T6963_CURSOR_7_LINE			=	0x06;
  56:../GraphicLCD/CT6963CDriver.cpp **** 	const unsigned char T6963_CURSOR_8_LINE			=	0x07;
  57:../GraphicLCD/CT6963CDriver.cpp **** 
  58:../GraphicLCD/CT6963CDriver.cpp **** const unsigned char T6963_SET_DATA_AUTO_WRITE		=	0xB0;
  59:../GraphicLCD/CT6963CDriver.cpp **** const unsigned char T6963_SET_DATA_AUTO_READ		=	0xB1;
  60:../GraphicLCD/CT6963CDriver.cpp **** const unsigned char T6963_AUTO_RESET				=	0xB2;
  61:../GraphicLCD/CT6963CDriver.cpp **** 
  62:../GraphicLCD/CT6963CDriver.cpp **** const unsigned char T6963_DATA_WRITE_AND_INCREMENT	=	0xC0;
  63:../GraphicLCD/CT6963CDriver.cpp **** const unsigned char T6963_DATA_READ_AND_INCREMENT	=	0xC1;
  64:../GraphicLCD/CT6963CDriver.cpp **** const unsigned char T6963_DATA_WRITE_AND_DECREMENT	=	0xC2;
  65:../GraphicLCD/CT6963CDriver.cpp **** const unsigned char T6963_DATA_READ_AND_DECREMENT	=	0xC3;
  66:../GraphicLCD/CT6963CDriver.cpp **** const unsigned char T6963_DATA_WRITE_AND_NONVARIALBE=	0xC4;
  67:../GraphicLCD/CT6963CDriver.cpp **** const unsigned char T6963_DATA_READ_AND_NONVARIABLE	=	0xC5;
  68:../GraphicLCD/CT6963CDriver.cpp **** 
  69:../GraphicLCD/CT6963CDriver.cpp **** const unsigned char T6963_SCREEN_PEEK				=	0xE0;
  70:../GraphicLCD/CT6963CDriver.cpp **** const unsigned char T6963_SCREEN_COPY				=	0xE8;
  71:../GraphicLCD/CT6963CDriver.cpp **** 
  72:../GraphicLCD/CT6963CDriver.cpp **** const unsigned char T6963_BIT_SET					=	0xF8;
  73:../GraphicLCD/CT6963CDriver.cpp **** const unsigned char T6963_BIT_RESET					=	0xF0;
  74:../GraphicLCD/CT6963CDriver.cpp **** 
  75:../GraphicLCD/CT6963CDriver.cpp **** /* Private macro -------------------------------------------------------------*/
  76:../GraphicLCD/CT6963CDriver.cpp **** /* Private variables ---------------------------------------------------------*/
  77:../GraphicLCD/CT6963CDriver.cpp **** /* Private function prototypes -----------------------------------------------*/
  78:../GraphicLCD/CT6963CDriver.cpp **** /* Private functions ---------------------------------------------------------*/
  79:../GraphicLCD/CT6963CDriver.cpp **** 
  80:../GraphicLCD/CT6963CDriver.cpp **** 
  81:../GraphicLCD/CT6963CDriver.cpp **** CT6963CDriver::CT6963CDriver() {
  27              		.loc 1 81 0
  28              		.cfi_startproc
  29              		@ args = 0, pretend = 0, frame = 8
  30              		@ frame_needed = 1, uses_anonymous_args = 0
  31 0000 80B5     		push	{r7, lr}
  32              	.LCFI0:
  33              		.cfi_def_cfa_offset 8
  34              		.cfi_offset 14, -4
  35              		.cfi_offset 7, -8
  36 0002 82B0     		sub	sp, sp, #8
  37              	.LCFI1:
  38              		.cfi_def_cfa_offset 16
  39 0004 00AF     		add	r7, sp, #0
  40              	.LCFI2:
  41              		.cfi_def_cfa_register 7
  42 0006 7860     		str	r0, [r7, #4]
  43              	.LBB2:
  44              		.loc 1 81 0
  45 0008 7B68     		ldr	r3, [r7, #4]
  46 000a 1846     		mov	r0, r3
  47 000c FFF7FEFF 		bl	_ZN11CGraphicLCDC2Ev
  48 0010 7B68     		ldr	r3, [r7, #4]
  49 0012 044A     		ldr	r2, .L3
  50 0014 1A60     		str	r2, [r3, #0]
  51              	.LBE2:
  82:../GraphicLCD/CT6963CDriver.cpp **** 	// TODO Auto-generated constructor stub
  83:../GraphicLCD/CT6963CDriver.cpp **** 
  84:../GraphicLCD/CT6963CDriver.cpp **** }
  52              		.loc 1 84 0
  53 0016 7B68     		ldr	r3, [r7, #4]
  54 0018 1846     		mov	r0, r3
  55 001a 07F10807 		add	r7, r7, #8
  56 001e BD46     		mov	sp, r7
  57 0020 80BD     		pop	{r7, pc}
  58              	.L4:
  59 0022 00BF     		.align	2
  60              	.L3:
  61 0024 08000000 		.word	_ZTV13CT6963CDriver+8
  62              		.cfi_endproc
  63              	.LFE1:
  65              		.section	.text._ZN13CT6963CDriverD2Ev,"ax",%progbits
  66              		.align	2
  67              		.global	_ZN13CT6963CDriverD2Ev
  68              		.thumb
  69              		.thumb_func
  71              	_ZN13CT6963CDriverD2Ev:
  72              	.LFB4:
  85:../GraphicLCD/CT6963CDriver.cpp **** 
  86:../GraphicLCD/CT6963CDriver.cpp **** CT6963CDriver::~CT6963CDriver() {
  73              		.loc 1 86 0
  74              		.cfi_startproc
  75              		@ args = 0, pretend = 0, frame = 8
  76              		@ frame_needed = 1, uses_anonymous_args = 0
  77 0000 80B5     		push	{r7, lr}
  78              	.LCFI3:
  79              		.cfi_def_cfa_offset 8
  80              		.cfi_offset 14, -4
  81              		.cfi_offset 7, -8
  82 0002 82B0     		sub	sp, sp, #8
  83              	.LCFI4:
  84              		.cfi_def_cfa_offset 16
  85 0004 00AF     		add	r7, sp, #0
  86              	.LCFI5:
  87              		.cfi_def_cfa_register 7
  88 0006 7860     		str	r0, [r7, #4]
  89              	.LBB3:
  90              		.loc 1 86 0
  91 0008 7B68     		ldr	r3, [r7, #4]
  92 000a 0A4A     		ldr	r2, .L8
  93 000c 1A60     		str	r2, [r3, #0]
  87:../GraphicLCD/CT6963CDriver.cpp **** 	// TODO Auto-generated destructor stub
  88:../GraphicLCD/CT6963CDriver.cpp **** }
  94              		.loc 1 88 0
  95 000e 7868     		ldr	r0, [r7, #4]
  96 0010 FFF7FEFF 		bl	_ZN11CGraphicLCDD2Ev
  97              	.LBE3:
  98 0014 4FF00003 		mov	r3, #0
  99 0018 03F00103 		and	r3, r3, #1
 100 001c DBB2     		uxtb	r3, r3
 101 001e 002B     		cmp	r3, #0
 102 0020 02D0     		beq	.L7
 103              		.loc 1 88 0 is_stmt 0 discriminator 2
 104 0022 7868     		ldr	r0, [r7, #4]
 105 0024 FFF7FEFF 		bl	_ZdlPv
 106              	.L7:
 107              		.loc 1 88 0 discriminator 3
 108 0028 7B68     		ldr	r3, [r7, #4]
 109 002a 1846     		mov	r0, r3
 110 002c 07F10807 		add	r7, r7, #8
 111 0030 BD46     		mov	sp, r7
 112 0032 80BD     		pop	{r7, pc}
 113              	.L9:
 114              		.align	2
 115              	.L8:
 116 0034 08000000 		.word	_ZTV13CT6963CDriver+8
 117              		.cfi_endproc
 118              	.LFE4:
 120              		.section	.text._ZN13CT6963CDriverD0Ev,"ax",%progbits
 121              		.align	2
 122              		.global	_ZN13CT6963CDriverD0Ev
 123              		.thumb
 124              		.thumb_func
 126              	_ZN13CT6963CDriverD0Ev:
 127              	.LFB6:
  86:../GraphicLCD/CT6963CDriver.cpp **** CT6963CDriver::~CT6963CDriver() {
 128              		.loc 1 86 0 is_stmt 1
 129              		.cfi_startproc
 130              		@ args = 0, pretend = 0, frame = 8
 131              		@ frame_needed = 1, uses_anonymous_args = 0
 132 0000 80B5     		push	{r7, lr}
 133              	.LCFI6:
 134              		.cfi_def_cfa_offset 8
 135              		.cfi_offset 14, -4
 136              		.cfi_offset 7, -8
 137 0002 82B0     		sub	sp, sp, #8
 138              	.LCFI7:
 139              		.cfi_def_cfa_offset 16
 140 0004 00AF     		add	r7, sp, #0
 141              	.LCFI8:
 142              		.cfi_def_cfa_register 7
 143 0006 7860     		str	r0, [r7, #4]
 144              		.loc 1 88 0
 145 0008 7868     		ldr	r0, [r7, #4]
 146 000a FFF7FEFF 		bl	_ZN13CT6963CDriverD1Ev
 147 000e 7868     		ldr	r0, [r7, #4]
 148 0010 FFF7FEFF 		bl	_ZdlPv
 149 0014 7B68     		ldr	r3, [r7, #4]
 150 0016 1846     		mov	r0, r3
 151 0018 07F10807 		add	r7, r7, #8
 152 001c BD46     		mov	sp, r7
 153 001e 80BD     		pop	{r7, pc}
 154              		.cfi_endproc
 155              	.LFE6:
 157              		.section	.text._ZN13CT6963CDriver4InitEv,"ax",%progbits
 158              		.align	2
 159              		.global	_ZN13CT6963CDriver4InitEv
 160              		.thumb
 161              		.thumb_func
 163              	_ZN13CT6963CDriver4InitEv:
 164              	.LFB7:
  89:../GraphicLCD/CT6963CDriver.cpp **** 
  90:../GraphicLCD/CT6963CDriver.cpp **** /**
  91:../GraphicLCD/CT6963CDriver.cpp ****   * @brief  initializes Display controller
  92:../GraphicLCD/CT6963CDriver.cpp ****   * @param  None
  93:../GraphicLCD/CT6963CDriver.cpp ****   * @retval None
  94:../GraphicLCD/CT6963CDriver.cpp ****   */
  95:../GraphicLCD/CT6963CDriver.cpp **** void CT6963CDriver::Init(){
 165              		.loc 1 95 0
 166              		.cfi_startproc
 167              		@ args = 0, pretend = 0, frame = 8
 168              		@ frame_needed = 1, uses_anonymous_args = 0
 169 0000 80B5     		push	{r7, lr}
 170              	.LCFI9:
 171              		.cfi_def_cfa_offset 8
 172              		.cfi_offset 14, -4
 173              		.cfi_offset 7, -8
 174 0002 82B0     		sub	sp, sp, #8
 175              	.LCFI10:
 176              		.cfi_def_cfa_offset 16
 177 0004 00AF     		add	r7, sp, #0
 178              	.LCFI11:
 179              		.cfi_def_cfa_register 7
 180 0006 7860     		str	r0, [r7, #4]
  96:../GraphicLCD/CT6963CDriver.cpp **** 
  97:../GraphicLCD/CT6963CDriver.cpp **** 	HardwareInit();
 181              		.loc 1 97 0
 182 0008 7B68     		ldr	r3, [r7, #4]
 183 000a 1B68     		ldr	r3, [r3, #0]
 184 000c 03F12C03 		add	r3, r3, #44
 185 0010 1B68     		ldr	r3, [r3, #0]
 186 0012 7868     		ldr	r0, [r7, #4]
 187 0014 9847     		blx	r3
  98:../GraphicLCD/CT6963CDriver.cpp **** 
  99:../GraphicLCD/CT6963CDriver.cpp **** 	Reset();
 188              		.loc 1 99 0
 189 0016 7B68     		ldr	r3, [r7, #4]
 190 0018 1B68     		ldr	r3, [r3, #0]
 191 001a 03F13003 		add	r3, r3, #48
 192 001e 1B68     		ldr	r3, [r3, #0]
 193 0020 7868     		ldr	r0, [r7, #4]
 194 0022 9847     		blx	r3
 100:../GraphicLCD/CT6963CDriver.cpp **** 
 101:../GraphicLCD/CT6963CDriver.cpp **** 	// Graphic home address
 102:../GraphicLCD/CT6963CDriver.cpp **** 	WriteData(GLCD_GRAPHIC_HOME & 0xFF);
 195              		.loc 1 102 0
 196 0024 7B68     		ldr	r3, [r7, #4]
 197 0026 1B68     		ldr	r3, [r3, #0]
 198 0028 03F13803 		add	r3, r3, #56
 199 002c 1B68     		ldr	r3, [r3, #0]
 200 002e 7868     		ldr	r0, [r7, #4]
 201 0030 4FF0E001 		mov	r1, #224
 202 0034 9847     		blx	r3
 103:../GraphicLCD/CT6963CDriver.cpp **** 	WriteData(GLCD_GRAPHIC_HOME >> 8);
 203              		.loc 1 103 0
 204 0036 7B68     		ldr	r3, [r7, #4]
 205 0038 1B68     		ldr	r3, [r3, #0]
 206 003a 03F13803 		add	r3, r3, #56
 207 003e 1B68     		ldr	r3, [r3, #0]
 208 0040 7868     		ldr	r0, [r7, #4]
 209 0042 4FF00101 		mov	r1, #1
 210 0046 9847     		blx	r3
 104:../GraphicLCD/CT6963CDriver.cpp **** 	WriteCommand(T6963_SET_GRAPHIC_HOME_ADDRESS);
 211              		.loc 1 104 0
 212 0048 7B68     		ldr	r3, [r7, #4]
 213 004a 1B68     		ldr	r3, [r3, #0]
 214 004c 03F13403 		add	r3, r3, #52
 215 0050 1B68     		ldr	r3, [r3, #0]
 216 0052 7868     		ldr	r0, [r7, #4]
 217 0054 4FF04201 		mov	r1, #66
 218 0058 9847     		blx	r3
 105:../GraphicLCD/CT6963CDriver.cpp **** 
 106:../GraphicLCD/CT6963CDriver.cpp **** 	//graphic line length
 107:../GraphicLCD/CT6963CDriver.cpp **** 	WriteData(GLCD_GRAPHIC_AREA);
 219              		.loc 1 107 0
 220 005a 7B68     		ldr	r3, [r7, #4]
 221 005c 1B68     		ldr	r3, [r3, #0]
 222 005e 03F13803 		add	r3, r3, #56
 223 0062 1B68     		ldr	r3, [r3, #0]
 224 0064 7868     		ldr	r0, [r7, #4]
 225 0066 4FF01E01 		mov	r1, #30
 226 006a 9847     		blx	r3
 108:../GraphicLCD/CT6963CDriver.cpp **** 	WriteData(0x00);
 227              		.loc 1 108 0
 228 006c 7B68     		ldr	r3, [r7, #4]
 229 006e 1B68     		ldr	r3, [r3, #0]
 230 0070 03F13803 		add	r3, r3, #56
 231 0074 1B68     		ldr	r3, [r3, #0]
 232 0076 7868     		ldr	r0, [r7, #4]
 233 0078 4FF00001 		mov	r1, #0
 234 007c 9847     		blx	r3
 109:../GraphicLCD/CT6963CDriver.cpp **** 	WriteCommand(T6963_SET_GRAPHIC_AREA);
 235              		.loc 1 109 0
 236 007e 7B68     		ldr	r3, [r7, #4]
 237 0080 1B68     		ldr	r3, [r3, #0]
 238 0082 03F13403 		add	r3, r3, #52
 239 0086 1B68     		ldr	r3, [r3, #0]
 240 0088 7868     		ldr	r0, [r7, #4]
 241 008a 4FF04301 		mov	r1, #67
 242 008e 9847     		blx	r3
 110:../GraphicLCD/CT6963CDriver.cpp **** 
 111:../GraphicLCD/CT6963CDriver.cpp **** 	//text home address
 112:../GraphicLCD/CT6963CDriver.cpp **** 	WriteData(GLCD_TEXT_HOME & 0xFF);
 243              		.loc 1 112 0
 244 0090 7B68     		ldr	r3, [r7, #4]
 245 0092 1B68     		ldr	r3, [r3, #0]
 246 0094 03F13803 		add	r3, r3, #56
 247 0098 1B68     		ldr	r3, [r3, #0]
 248 009a 7868     		ldr	r0, [r7, #4]
 249 009c 4FF00001 		mov	r1, #0
 250 00a0 9847     		blx	r3
 113:../GraphicLCD/CT6963CDriver.cpp **** 	WriteData(GLCD_TEXT_HOME >> 8);
 251              		.loc 1 113 0
 252 00a2 7B68     		ldr	r3, [r7, #4]
 253 00a4 1B68     		ldr	r3, [r3, #0]
 254 00a6 03F13803 		add	r3, r3, #56
 255 00aa 1B68     		ldr	r3, [r3, #0]
 256 00ac 7868     		ldr	r0, [r7, #4]
 257 00ae 4FF00001 		mov	r1, #0
 258 00b2 9847     		blx	r3
 114:../GraphicLCD/CT6963CDriver.cpp **** 	WriteCommand(T6963_SET_TEXT_HOME_ADDRESS);
 259              		.loc 1 114 0
 260 00b4 7B68     		ldr	r3, [r7, #4]
 261 00b6 1B68     		ldr	r3, [r3, #0]
 262 00b8 03F13403 		add	r3, r3, #52
 263 00bc 1B68     		ldr	r3, [r3, #0]
 264 00be 7868     		ldr	r0, [r7, #4]
 265 00c0 4FF04001 		mov	r1, #64
 266 00c4 9847     		blx	r3
 115:../GraphicLCD/CT6963CDriver.cpp **** 
 116:../GraphicLCD/CT6963CDriver.cpp **** 	//text line length
 117:../GraphicLCD/CT6963CDriver.cpp **** 	WriteData(GLCD_TEXT_AREA);
 267              		.loc 1 117 0
 268 00c6 7B68     		ldr	r3, [r7, #4]
 269 00c8 1B68     		ldr	r3, [r3, #0]
 270 00ca 03F13803 		add	r3, r3, #56
 271 00ce 1B68     		ldr	r3, [r3, #0]
 272 00d0 7868     		ldr	r0, [r7, #4]
 273 00d2 4FF01E01 		mov	r1, #30
 274 00d6 9847     		blx	r3
 118:../GraphicLCD/CT6963CDriver.cpp **** 	WriteData(0x00);
 275              		.loc 1 118 0
 276 00d8 7B68     		ldr	r3, [r7, #4]
 277 00da 1B68     		ldr	r3, [r3, #0]
 278 00dc 03F13803 		add	r3, r3, #56
 279 00e0 1B68     		ldr	r3, [r3, #0]
 280 00e2 7868     		ldr	r0, [r7, #4]
 281 00e4 4FF00001 		mov	r1, #0
 282 00e8 9847     		blx	r3
 119:../GraphicLCD/CT6963CDriver.cpp **** 	WriteCommand(T6963_SET_TEXT_AREA);
 283              		.loc 1 119 0
 284 00ea 7B68     		ldr	r3, [r7, #4]
 285 00ec 1B68     		ldr	r3, [r3, #0]
 286 00ee 03F13403 		add	r3, r3, #52
 287 00f2 1B68     		ldr	r3, [r3, #0]
 288 00f4 7868     		ldr	r0, [r7, #4]
 289 00f6 4FF04101 		mov	r1, #65
 290 00fa 9847     		blx	r3
 120:../GraphicLCD/CT6963CDriver.cpp **** 
 121:../GraphicLCD/CT6963CDriver.cpp **** 	//write offset register  (no effect)
 122:../GraphicLCD/CT6963CDriver.cpp **** 	WriteData(GLCD_OFFSET_REGISTER);
 291              		.loc 1 122 0
 292 00fc 7B68     		ldr	r3, [r7, #4]
 293 00fe 1B68     		ldr	r3, [r3, #0]
 294 0100 03F13803 		add	r3, r3, #56
 295 0104 1B68     		ldr	r3, [r3, #0]
 296 0106 7868     		ldr	r0, [r7, #4]
 297 0108 4FF00201 		mov	r1, #2
 298 010c 9847     		blx	r3
 123:../GraphicLCD/CT6963CDriver.cpp **** 	WriteData(0x00);
 299              		.loc 1 123 0
 300 010e 7B68     		ldr	r3, [r7, #4]
 301 0110 1B68     		ldr	r3, [r3, #0]
 302 0112 03F13803 		add	r3, r3, #56
 303 0116 1B68     		ldr	r3, [r3, #0]
 304 0118 7868     		ldr	r0, [r7, #4]
 305 011a 4FF00001 		mov	r1, #0
 306 011e 9847     		blx	r3
 124:../GraphicLCD/CT6963CDriver.cpp **** 	WriteCommand(T6963_SET_OFFSET_REGISTER);
 307              		.loc 1 124 0
 308 0120 7B68     		ldr	r3, [r7, #4]
 309 0122 1B68     		ldr	r3, [r3, #0]
 310 0124 03F13403 		add	r3, r3, #52
 311 0128 1B68     		ldr	r3, [r3, #0]
 312 012a 7868     		ldr	r0, [r7, #4]
 313 012c 4FF02201 		mov	r1, #34
 314 0130 9847     		blx	r3
 125:../GraphicLCD/CT6963CDriver.cpp **** 
 126:../GraphicLCD/CT6963CDriver.cpp **** 	// display in XOR Mode
 127:../GraphicLCD/CT6963CDriver.cpp **** 	WriteCommand(T6963_MODE_SET | 0);
 315              		.loc 1 127 0
 316 0132 7B68     		ldr	r3, [r7, #4]
 317 0134 1B68     		ldr	r3, [r3, #0]
 318 0136 03F13403 		add	r3, r3, #52
 319 013a 1B68     		ldr	r3, [r3, #0]
 320 013c 7868     		ldr	r0, [r7, #4]
 321 013e 4FF08001 		mov	r1, #128
 322 0142 9847     		blx	r3
 128:../GraphicLCD/CT6963CDriver.cpp **** 
 129:../GraphicLCD/CT6963CDriver.cpp **** 	//Graphic and Text mode
 130:../GraphicLCD/CT6963CDriver.cpp **** 	WriteCommand(T6963_DISPLAY_MODE  | T6963_TEXT_DISPLAY_ON | T6963_GRAPHIC_DISPLAY_ON );
 323              		.loc 1 130 0
 324 0144 7B68     		ldr	r3, [r7, #4]
 325 0146 1B68     		ldr	r3, [r3, #0]
 326 0148 03F13403 		add	r3, r3, #52
 327 014c 1B68     		ldr	r3, [r3, #0]
 328 014e 7868     		ldr	r0, [r7, #4]
 329 0150 4FF09C01 		mov	r1, #156
 330 0154 9847     		blx	r3
 131:../GraphicLCD/CT6963CDriver.cpp **** }
 331              		.loc 1 131 0
 332 0156 07F10807 		add	r7, r7, #8
 333 015a BD46     		mov	sp, r7
 334 015c 80BD     		pop	{r7, pc}
 335              		.cfi_endproc
 336              	.LFE7:
 338 015e 00BF     		.section	.text._ZN13CT6963CDriver17SetAddressPointerEj,"ax",%progbits
 339              		.align	2
 340              		.global	_ZN13CT6963CDriver17SetAddressPointerEj
 341              		.thumb
 342              		.thumb_func
 344              	_ZN13CT6963CDriver17SetAddressPointerEj:
 345              	.LFB8:
 132:../GraphicLCD/CT6963CDriver.cpp **** 
 133:../GraphicLCD/CT6963CDriver.cpp **** /**
 134:../GraphicLCD/CT6963CDriver.cpp ****   * @brief  set address pointer in T6963C
 135:../GraphicLCD/CT6963CDriver.cpp ****   * @param  address
 136:../GraphicLCD/CT6963CDriver.cpp ****   * @retval None
 137:../GraphicLCD/CT6963CDriver.cpp ****   */
 138:../GraphicLCD/CT6963CDriver.cpp **** void CT6963CDriver::SetAddressPointer(unsigned int address){
 346              		.loc 1 138 0
 347              		.cfi_startproc
 348              		@ args = 0, pretend = 0, frame = 8
 349              		@ frame_needed = 1, uses_anonymous_args = 0
 350 0000 80B5     		push	{r7, lr}
 351              	.LCFI12:
 352              		.cfi_def_cfa_offset 8
 353              		.cfi_offset 14, -4
 354              		.cfi_offset 7, -8
 355 0002 82B0     		sub	sp, sp, #8
 356              	.LCFI13:
 357              		.cfi_def_cfa_offset 16
 358 0004 00AF     		add	r7, sp, #0
 359              	.LCFI14:
 360              		.cfi_def_cfa_register 7
 361 0006 7860     		str	r0, [r7, #4]
 362 0008 3960     		str	r1, [r7, #0]
 139:../GraphicLCD/CT6963CDriver.cpp **** 	address += 2; // display offset
 363              		.loc 1 139 0
 364 000a 3B68     		ldr	r3, [r7, #0]
 365 000c 03F10203 		add	r3, r3, #2
 366 0010 3B60     		str	r3, [r7, #0]
 140:../GraphicLCD/CT6963CDriver.cpp **** 	WriteData((address) & 0xFF);
 367              		.loc 1 140 0
 368 0012 7B68     		ldr	r3, [r7, #4]
 369 0014 1B68     		ldr	r3, [r3, #0]
 370 0016 03F13803 		add	r3, r3, #56
 371 001a 1B68     		ldr	r3, [r3, #0]
 372 001c 3A68     		ldr	r2, [r7, #0]
 373 001e D2B2     		uxtb	r2, r2
 374 0020 7868     		ldr	r0, [r7, #4]
 375 0022 1146     		mov	r1, r2
 376 0024 9847     		blx	r3
 141:../GraphicLCD/CT6963CDriver.cpp **** 	WriteData((address) >> 8);
 377              		.loc 1 141 0
 378 0026 7B68     		ldr	r3, [r7, #4]
 379 0028 1B68     		ldr	r3, [r3, #0]
 380 002a 03F13803 		add	r3, r3, #56
 381 002e 1B68     		ldr	r3, [r3, #0]
 382 0030 3A68     		ldr	r2, [r7, #0]
 383 0032 4FEA1222 		lsr	r2, r2, #8
 384 0036 D2B2     		uxtb	r2, r2
 385 0038 7868     		ldr	r0, [r7, #4]
 386 003a 1146     		mov	r1, r2
 387 003c 9847     		blx	r3
 142:../GraphicLCD/CT6963CDriver.cpp **** 	WriteCommand(T6963_SET_ADDRESS_POINTER);
 388              		.loc 1 142 0
 389 003e 7B68     		ldr	r3, [r7, #4]
 390 0040 1B68     		ldr	r3, [r3, #0]
 391 0042 03F13403 		add	r3, r3, #52
 392 0046 1B68     		ldr	r3, [r3, #0]
 393 0048 7868     		ldr	r0, [r7, #4]
 394 004a 4FF02401 		mov	r1, #36
 395 004e 9847     		blx	r3
 143:../GraphicLCD/CT6963CDriver.cpp **** }
 396              		.loc 1 143 0
 397 0050 07F10807 		add	r7, r7, #8
 398 0054 BD46     		mov	sp, r7
 399 0056 80BD     		pop	{r7, pc}
 400              		.cfi_endproc
 401              	.LFE8:
 403              		.section	.text._ZN13CT6963CDriver8TextGoToEhh,"ax",%progbits
 404              		.align	2
 405              		.global	_ZN13CT6963CDriver8TextGoToEhh
 406              		.thumb
 407              		.thumb_func
 409              	_ZN13CT6963CDriver8TextGoToEhh:
 410              	.LFB9:
 144:../GraphicLCD/CT6963CDriver.cpp **** 
 145:../GraphicLCD/CT6963CDriver.cpp **** /**
 146:../GraphicLCD/CT6963CDriver.cpp ****   * @brief  sets address pointer to specific text address
 147:../GraphicLCD/CT6963CDriver.cpp ****   * @param  column and line
 148:../GraphicLCD/CT6963CDriver.cpp ****   * @retval None
 149:../GraphicLCD/CT6963CDriver.cpp ****   */
 150:../GraphicLCD/CT6963CDriver.cpp **** void CT6963CDriver::TextGoTo(unsigned char x, unsigned char y)
 151:../GraphicLCD/CT6963CDriver.cpp **** {
 411              		.loc 1 151 0
 412              		.cfi_startproc
 413              		@ args = 0, pretend = 0, frame = 16
 414              		@ frame_needed = 1, uses_anonymous_args = 0
 415 0000 80B5     		push	{r7, lr}
 416              	.LCFI15:
 417              		.cfi_def_cfa_offset 8
 418              		.cfi_offset 14, -4
 419              		.cfi_offset 7, -8
 420 0002 84B0     		sub	sp, sp, #16
 421              	.LCFI16:
 422              		.cfi_def_cfa_offset 24
 423 0004 00AF     		add	r7, sp, #0
 424              	.LCFI17:
 425              		.cfi_def_cfa_register 7
 426 0006 7860     		str	r0, [r7, #4]
 427 0008 1346     		mov	r3, r2
 428 000a 0A46     		mov	r2, r1
 429 000c FA70     		strb	r2, [r7, #3]
 430 000e BB70     		strb	r3, [r7, #2]
 431              	.LBB4:
 152:../GraphicLCD/CT6963CDriver.cpp **** 	unsigned int address;
 153:../GraphicLCD/CT6963CDriver.cpp **** 
 154:../GraphicLCD/CT6963CDriver.cpp **** 	address = GLCD_TEXT_HOME +  x + (GLCD_TEXT_AREA * y);
 432              		.loc 1 154 0
 433 0010 F978     		ldrb	r1, [r7, #3]	@ zero_extendqisi2
 434 0012 BA78     		ldrb	r2, [r7, #2]	@ zero_extendqisi2
 435 0014 1346     		mov	r3, r2
 436 0016 4FEA0313 		lsl	r3, r3, #4
 437 001a 9B1A     		subs	r3, r3, r2
 438 001c 4FEA4303 		lsl	r3, r3, #1
 439 0020 CB18     		adds	r3, r1, r3
 440 0022 FB60     		str	r3, [r7, #12]
 155:../GraphicLCD/CT6963CDriver.cpp **** 	SetAddressPointer(address);
 441              		.loc 1 155 0
 442 0024 7868     		ldr	r0, [r7, #4]
 443 0026 F968     		ldr	r1, [r7, #12]
 444 0028 FFF7FEFF 		bl	_ZN13CT6963CDriver17SetAddressPointerEj
 445              	.LBE4:
 156:../GraphicLCD/CT6963CDriver.cpp **** }
 446              		.loc 1 156 0
 447 002c 07F11007 		add	r7, r7, #16
 448 0030 BD46     		mov	sp, r7
 449 0032 80BD     		pop	{r7, pc}
 450              		.cfi_endproc
 451              	.LFE9:
 453              		.section	.text._ZN13CT6963CDriver11GraphicGoToEhh,"ax",%progbits
 454              		.align	2
 455              		.global	_ZN13CT6963CDriver11GraphicGoToEhh
 456              		.thumb
 457              		.thumb_func
 459              	_ZN13CT6963CDriver11GraphicGoToEhh:
 460              	.LFB10:
 157:../GraphicLCD/CT6963CDriver.cpp **** 
 158:../GraphicLCD/CT6963CDriver.cpp **** 
 159:../GraphicLCD/CT6963CDriver.cpp **** /**
 160:../GraphicLCD/CT6963CDriver.cpp ****   * @brief  sets address pointer to specific pixel in graphics ram
 161:../GraphicLCD/CT6963CDriver.cpp ****   * @param  coordinates of the pixel byte
 162:../GraphicLCD/CT6963CDriver.cpp ****   * @retval None
 163:../GraphicLCD/CT6963CDriver.cpp ****   */
 164:../GraphicLCD/CT6963CDriver.cpp **** void CT6963CDriver::GraphicGoTo(unsigned char x, unsigned char y)
 165:../GraphicLCD/CT6963CDriver.cpp **** {
 461              		.loc 1 165 0
 462              		.cfi_startproc
 463              		@ args = 0, pretend = 0, frame = 16
 464              		@ frame_needed = 1, uses_anonymous_args = 0
 465 0000 80B5     		push	{r7, lr}
 466              	.LCFI18:
 467              		.cfi_def_cfa_offset 8
 468              		.cfi_offset 14, -4
 469              		.cfi_offset 7, -8
 470 0002 84B0     		sub	sp, sp, #16
 471              	.LCFI19:
 472              		.cfi_def_cfa_offset 24
 473 0004 00AF     		add	r7, sp, #0
 474              	.LCFI20:
 475              		.cfi_def_cfa_register 7
 476 0006 7860     		str	r0, [r7, #4]
 477 0008 1346     		mov	r3, r2
 478 000a 0A46     		mov	r2, r1
 479 000c FA70     		strb	r2, [r7, #3]
 480 000e BB70     		strb	r3, [r7, #2]
 481              	.LBB5:
 166:../GraphicLCD/CT6963CDriver.cpp **** 	unsigned int address;
 167:../GraphicLCD/CT6963CDriver.cpp **** 	address = GLCD_GRAPHIC_HOME + (x / GLCD_FONT_WIDTH) + (GLCD_GRAPHIC_AREA * y);
 482              		.loc 1 167 0
 483 0010 FB78     		ldrb	r3, [r7, #3]	@ zero_extendqisi2
 484 0012 4FEAD303 		lsr	r3, r3, #3
 485 0016 DBB2     		uxtb	r3, r3
 486 0018 1946     		mov	r1, r3
 487 001a BA78     		ldrb	r2, [r7, #2]	@ zero_extendqisi2
 488 001c 1346     		mov	r3, r2
 489 001e 4FEA0313 		lsl	r3, r3, #4
 490 0022 9B1A     		subs	r3, r3, r2
 491 0024 4FEA4303 		lsl	r3, r3, #1
 492 0028 CB18     		adds	r3, r1, r3
 493 002a 03F5F073 		add	r3, r3, #480
 494 002e FB60     		str	r3, [r7, #12]
 168:../GraphicLCD/CT6963CDriver.cpp **** 	SetAddressPointer(address);
 495              		.loc 1 168 0
 496 0030 7868     		ldr	r0, [r7, #4]
 497 0032 F968     		ldr	r1, [r7, #12]
 498 0034 FFF7FEFF 		bl	_ZN13CT6963CDriver17SetAddressPointerEj
 499              	.LBE5:
 169:../GraphicLCD/CT6963CDriver.cpp **** }
 500              		.loc 1 169 0
 501 0038 07F11007 		add	r7, r7, #16
 502 003c BD46     		mov	sp, r7
 503 003e 80BD     		pop	{r7, pc}
 504              		.cfi_endproc
 505              	.LFE10:
 507              		.section	.text._ZN13CT6963CDriver5ClearEv,"ax",%progbits
 508              		.align	2
 509              		.global	_ZN13CT6963CDriver5ClearEv
 510              		.thumb
 511              		.thumb_func
 513              	_ZN13CT6963CDriver5ClearEv:
 514              	.LFB11:
 170:../GraphicLCD/CT6963CDriver.cpp **** 
 171:../GraphicLCD/CT6963CDriver.cpp **** /**
 172:../GraphicLCD/CT6963CDriver.cpp ****   * @brief  Clear Display
 173:../GraphicLCD/CT6963CDriver.cpp ****   * @param  None
 174:../GraphicLCD/CT6963CDriver.cpp ****   * @retval None
 175:../GraphicLCD/CT6963CDriver.cpp ****   */
 176:../GraphicLCD/CT6963CDriver.cpp **** void CT6963CDriver::Clear(){
 515              		.loc 1 176 0
 516              		.cfi_startproc
 517              		@ args = 0, pretend = 0, frame = 16
 518              		@ frame_needed = 1, uses_anonymous_args = 0
 519 0000 80B5     		push	{r7, lr}
 520              	.LCFI21:
 521              		.cfi_def_cfa_offset 8
 522              		.cfi_offset 14, -4
 523              		.cfi_offset 7, -8
 524 0002 84B0     		sub	sp, sp, #16
 525              	.LCFI22:
 526              		.cfi_def_cfa_offset 24
 527 0004 00AF     		add	r7, sp, #0
 528              	.LCFI23:
 529              		.cfi_def_cfa_register 7
 530 0006 7860     		str	r0, [r7, #4]
 531              	.LBB6:
 177:../GraphicLCD/CT6963CDriver.cpp **** 	unsigned int i;
 178:../GraphicLCD/CT6963CDriver.cpp **** 	// Graphics and Text are different mem pools in this Controller
 179:../GraphicLCD/CT6963CDriver.cpp **** 	SetAddressPointer(GLCD_GRAPHIC_HOME);
 532              		.loc 1 179 0
 533 0008 7868     		ldr	r0, [r7, #4]
 534 000a 4FF4F071 		mov	r1, #480
 535 000e FFF7FEFF 		bl	_ZN13CT6963CDriver17SetAddressPointerEj
 180:../GraphicLCD/CT6963CDriver.cpp **** 
 181:../GraphicLCD/CT6963CDriver.cpp **** 	for(i = 0; i < GLCD_GRAPHIC_SIZE; i++)
 536              		.loc 1 181 0
 537 0012 4FF00003 		mov	r3, #0
 538 0016 FB60     		str	r3, [r7, #12]
 539 0018 08E0     		b	.L17
 540              	.L18:
 182:../GraphicLCD/CT6963CDriver.cpp **** 	{
 183:../GraphicLCD/CT6963CDriver.cpp **** 		WriteDisplayData(0x00);
 541              		.loc 1 183 0 discriminator 2
 542 001a 7868     		ldr	r0, [r7, #4]
 543 001c 4FF00001 		mov	r1, #0
 544 0020 FFF7FEFF 		bl	_ZN13CT6963CDriver16WriteDisplayDataEh
 181:../GraphicLCD/CT6963CDriver.cpp **** 	for(i = 0; i < GLCD_GRAPHIC_SIZE; i++)
 545              		.loc 1 181 0 discriminator 2
 546 0024 FB68     		ldr	r3, [r7, #12]
 547 0026 03F10103 		add	r3, r3, #1
 548 002a FB60     		str	r3, [r7, #12]
 549              	.L17:
 181:../GraphicLCD/CT6963CDriver.cpp **** 	for(i = 0; i < GLCD_GRAPHIC_SIZE; i++)
 550              		.loc 1 181 0 is_stmt 0 discriminator 1
 551 002c FA68     		ldr	r2, [r7, #12]
 552 002e 40F6FF63 		movw	r3, #3839
 553 0032 9A42     		cmp	r2, r3
 554 0034 8CBF     		ite	hi
 555 0036 0023     		movhi	r3, #0
 556 0038 0123     		movls	r3, #1
 557 003a DBB2     		uxtb	r3, r3
 558 003c 002B     		cmp	r3, #0
 559 003e ECD1     		bne	.L18
 184:../GraphicLCD/CT6963CDriver.cpp **** 	}
 185:../GraphicLCD/CT6963CDriver.cpp **** 
 186:../GraphicLCD/CT6963CDriver.cpp **** 	SetAddressPointer(GLCD_TEXT_HOME);
 560              		.loc 1 186 0 is_stmt 1
 561 0040 7868     		ldr	r0, [r7, #4]
 562 0042 4FF00001 		mov	r1, #0
 563 0046 FFF7FEFF 		bl	_ZN13CT6963CDriver17SetAddressPointerEj
 187:../GraphicLCD/CT6963CDriver.cpp **** 
 188:../GraphicLCD/CT6963CDriver.cpp **** 	for(i = 0; i < GLCD_TEXT_SIZE; i++)
 564              		.loc 1 188 0
 565 004a 4FF00003 		mov	r3, #0
 566 004e FB60     		str	r3, [r7, #12]
 567 0050 08E0     		b	.L19
 568              	.L20:
 189:../GraphicLCD/CT6963CDriver.cpp **** 	{
 190:../GraphicLCD/CT6963CDriver.cpp **** 		WriteDisplayData(0);
 569              		.loc 1 190 0 discriminator 2
 570 0052 7868     		ldr	r0, [r7, #4]
 571 0054 4FF00001 		mov	r1, #0
 572 0058 FFF7FEFF 		bl	_ZN13CT6963CDriver16WriteDisplayDataEh
 188:../GraphicLCD/CT6963CDriver.cpp **** 	for(i = 0; i < GLCD_TEXT_SIZE; i++)
 573              		.loc 1 188 0 discriminator 2
 574 005c FB68     		ldr	r3, [r7, #12]
 575 005e 03F10103 		add	r3, r3, #1
 576 0062 FB60     		str	r3, [r7, #12]
 577              	.L19:
 188:../GraphicLCD/CT6963CDriver.cpp **** 	for(i = 0; i < GLCD_TEXT_SIZE; i++)
 578              		.loc 1 188 0 is_stmt 0 discriminator 1
 579 0064 FA68     		ldr	r2, [r7, #12]
 580 0066 40F2DF13 		movw	r3, #479
 581 006a 9A42     		cmp	r2, r3
 582 006c 8CBF     		ite	hi
 583 006e 0023     		movhi	r3, #0
 584 0070 0123     		movls	r3, #1
 585 0072 DBB2     		uxtb	r3, r3
 586 0074 002B     		cmp	r3, #0
 587 0076 ECD1     		bne	.L20
 588              	.LBE6:
 191:../GraphicLCD/CT6963CDriver.cpp **** 	}
 192:../GraphicLCD/CT6963CDriver.cpp **** }
 589              		.loc 1 192 0 is_stmt 1
 590 0078 07F11007 		add	r7, r7, #16
 591 007c BD46     		mov	sp, r7
 592 007e 80BD     		pop	{r7, pc}
 593              		.cfi_endproc
 594              	.LFE11:
 596              		.section	.text._ZN13CT6963CDriver16WriteDisplayDataEh,"ax",%progbits
 597              		.align	2
 598              		.global	_ZN13CT6963CDriver16WriteDisplayDataEh
 599              		.thumb
 600              		.thumb_func
 602              	_ZN13CT6963CDriver16WriteDisplayDataEh:
 603              	.LFB12:
 193:../GraphicLCD/CT6963CDriver.cpp **** 
 194:../GraphicLCD/CT6963CDriver.cpp **** /**
 195:../GraphicLCD/CT6963CDriver.cpp ****   * @brief  writes icremental data to display ram
 196:../GraphicLCD/CT6963CDriver.cpp ****   * @param  data byte
 197:../GraphicLCD/CT6963CDriver.cpp ****   * @retval None
 198:../GraphicLCD/CT6963CDriver.cpp ****   */
 199:../GraphicLCD/CT6963CDriver.cpp **** void CT6963CDriver::WriteDisplayData(unsigned char x)
 200:../GraphicLCD/CT6963CDriver.cpp **** {
 604              		.loc 1 200 0
 605              		.cfi_startproc
 606              		@ args = 0, pretend = 0, frame = 8
 607              		@ frame_needed = 1, uses_anonymous_args = 0
 608 0000 80B5     		push	{r7, lr}
 609              	.LCFI24:
 610              		.cfi_def_cfa_offset 8
 611              		.cfi_offset 14, -4
 612              		.cfi_offset 7, -8
 613 0002 82B0     		sub	sp, sp, #8
 614              	.LCFI25:
 615              		.cfi_def_cfa_offset 16
 616 0004 00AF     		add	r7, sp, #0
 617              	.LCFI26:
 618              		.cfi_def_cfa_register 7
 619 0006 7860     		str	r0, [r7, #4]
 620 0008 0B46     		mov	r3, r1
 621 000a FB70     		strb	r3, [r7, #3]
 201:../GraphicLCD/CT6963CDriver.cpp **** 	WriteData(x);
 622              		.loc 1 201 0
 623 000c 7B68     		ldr	r3, [r7, #4]
 624 000e 1B68     		ldr	r3, [r3, #0]
 625 0010 03F13803 		add	r3, r3, #56
 626 0014 1B68     		ldr	r3, [r3, #0]
 627 0016 FA78     		ldrb	r2, [r7, #3]	@ zero_extendqisi2
 628 0018 7868     		ldr	r0, [r7, #4]
 629 001a 1146     		mov	r1, r2
 630 001c 9847     		blx	r3
 202:../GraphicLCD/CT6963CDriver.cpp **** 	WriteCommand(T6963_DATA_WRITE_AND_INCREMENT);
 631              		.loc 1 202 0
 632 001e 7B68     		ldr	r3, [r7, #4]
 633 0020 1B68     		ldr	r3, [r3, #0]
 634 0022 03F13403 		add	r3, r3, #52
 635 0026 1B68     		ldr	r3, [r3, #0]
 636 0028 7868     		ldr	r0, [r7, #4]
 637 002a 4FF0C001 		mov	r1, #192
 638 002e 9847     		blx	r3
 203:../GraphicLCD/CT6963CDriver.cpp **** }
 639              		.loc 1 203 0
 640 0030 07F10807 		add	r7, r7, #8
 641 0034 BD46     		mov	sp, r7
 642 0036 80BD     		pop	{r7, pc}
 643              		.cfi_endproc
 644              	.LFE12:
 646              		.section	.text._ZN13CT6963CDriver9WriteCharEc,"ax",%progbits
 647              		.align	2
 648              		.global	_ZN13CT6963CDriver9WriteCharEc
 649              		.thumb
 650              		.thumb_func
 652              	_ZN13CT6963CDriver9WriteCharEc:
 653              	.LFB13:
 204:../GraphicLCD/CT6963CDriver.cpp **** 
 205:../GraphicLCD/CT6963CDriver.cpp **** /**
 206:../GraphicLCD/CT6963CDriver.cpp ****   * @brief  writes single ASCII char to display
 207:../GraphicLCD/CT6963CDriver.cpp ****   * @param  ASCII char
 208:../GraphicLCD/CT6963CDriver.cpp ****   * @retval None
 209:../GraphicLCD/CT6963CDriver.cpp ****   */
 210:../GraphicLCD/CT6963CDriver.cpp **** void CT6963CDriver::WriteChar(char charCode)
 211:../GraphicLCD/CT6963CDriver.cpp **** {
 654              		.loc 1 211 0
 655              		.cfi_startproc
 656              		@ args = 0, pretend = 0, frame = 8
 657              		@ frame_needed = 1, uses_anonymous_args = 0
 658 0000 80B5     		push	{r7, lr}
 659              	.LCFI27:
 660              		.cfi_def_cfa_offset 8
 661              		.cfi_offset 14, -4
 662              		.cfi_offset 7, -8
 663 0002 82B0     		sub	sp, sp, #8
 664              	.LCFI28:
 665              		.cfi_def_cfa_offset 16
 666 0004 00AF     		add	r7, sp, #0
 667              	.LCFI29:
 668              		.cfi_def_cfa_register 7
 669 0006 7860     		str	r0, [r7, #4]
 670 0008 0B46     		mov	r3, r1
 671 000a FB70     		strb	r3, [r7, #3]
 212:../GraphicLCD/CT6963CDriver.cpp **** 	WriteDisplayData(charCode - 32);
 672              		.loc 1 212 0
 673 000c FB78     		ldrb	r3, [r7, #3]
 674 000e A3F12003 		sub	r3, r3, #32
 675 0012 DBB2     		uxtb	r3, r3
 676 0014 7868     		ldr	r0, [r7, #4]
 677 0016 1946     		mov	r1, r3
 678 0018 FFF7FEFF 		bl	_ZN13CT6963CDriver16WriteDisplayDataEh
 213:../GraphicLCD/CT6963CDriver.cpp **** }
 679              		.loc 1 213 0
 680 001c 07F10807 		add	r7, r7, #8
 681 0020 BD46     		mov	sp, r7
 682 0022 80BD     		pop	{r7, pc}
 683              		.cfi_endproc
 684              	.LFE13:
 686              		.section	.text._ZN13CT6963CDriver11WriteStringEPKc5tFontjj,"ax",%progbits
 687              		.align	2
 688              		.global	_ZN13CT6963CDriver11WriteStringEPKc5tFontjj
 689              		.thumb
 690              		.thumb_func
 692              	_ZN13CT6963CDriver11WriteStringEPKc5tFontjj:
 693              	.LFB14:
 214:../GraphicLCD/CT6963CDriver.cpp **** 
 215:../GraphicLCD/CT6963CDriver.cpp **** /**
 216:../GraphicLCD/CT6963CDriver.cpp ****   * @brief  writes a string starting at upper left corner on (x,y) and specified font
 217:../GraphicLCD/CT6963CDriver.cpp ****   * @param  null terminated string, font structure, x, y
 218:../GraphicLCD/CT6963CDriver.cpp ****   * @retval None
 219:../GraphicLCD/CT6963CDriver.cpp ****   */
 220:../GraphicLCD/CT6963CDriver.cpp **** void CT6963CDriver::WriteString(const char * str, const tFont font,unsigned int x, unsigned int y)
 221:../GraphicLCD/CT6963CDriver.cpp **** {
 694              		.loc 1 221 0
 695              		.cfi_startproc
 696              		@ args = 32, pretend = 8, frame = 8
 697              		@ frame_needed = 1, uses_anonymous_args = 0
 698              		@ link register save eliminated.
 699 0000 82B0     		sub	sp, sp, #8
 700              	.LCFI30:
 701              		.cfi_def_cfa_offset 8
 702 0002 80B4     		push	{r7}
 703              	.LCFI31:
 704              		.cfi_def_cfa_offset 12
 705              		.cfi_offset 7, -12
 706 0004 83B0     		sub	sp, sp, #12
 707              	.LCFI32:
 708              		.cfi_def_cfa_offset 24
 709 0006 00AF     		add	r7, sp, #0
 710              	.LCFI33:
 711              		.cfi_def_cfa_register 7
 712 0008 7860     		str	r0, [r7, #4]
 713 000a 3960     		str	r1, [r7, #0]
 714 000c 07F11001 		add	r1, r7, #16
 715 0010 81E80C00 		stmia	r1, {r2, r3}
 222:../GraphicLCD/CT6963CDriver.cpp **** 	if(&c_FontNative == &font){
 223:../GraphicLCD/CT6963CDriver.cpp **** 		TextGoTo(x/GLCD_FONT_WIDTH, y/8);
 224:../GraphicLCD/CT6963CDriver.cpp **** 
 225:../GraphicLCD/CT6963CDriver.cpp **** 		while(*str)
 226:../GraphicLCD/CT6963CDriver.cpp **** 		{
 227:../GraphicLCD/CT6963CDriver.cpp **** 			WriteChar(*str++);
 228:../GraphicLCD/CT6963CDriver.cpp **** 		}
 229:../GraphicLCD/CT6963CDriver.cpp **** 	} else {
 230:../GraphicLCD/CT6963CDriver.cpp **** 
 231:../GraphicLCD/CT6963CDriver.cpp **** 	}
 232:../GraphicLCD/CT6963CDriver.cpp **** 
 233:../GraphicLCD/CT6963CDriver.cpp **** }
 716              		.loc 1 233 0
 717 0014 07F10C07 		add	r7, r7, #12
 718 0018 BD46     		mov	sp, r7
 719 001a 80BC     		pop	{r7}
 720 001c 02B0     		add	sp, sp, #8
 721 001e 7047     		bx	lr
 722              		.cfi_endproc
 723              	.LFE14:
 725              		.section	.text._ZN13CT6963CDriver8SetPixelEhh,"ax",%progbits
 726              		.align	2
 727              		.global	_ZN13CT6963CDriver8SetPixelEhh
 728              		.thumb
 729              		.thumb_func
 731              	_ZN13CT6963CDriver8SetPixelEhh:
 732              	.LFB15:
 234:../GraphicLCD/CT6963CDriver.cpp **** 
 235:../GraphicLCD/CT6963CDriver.cpp **** 
 236:../GraphicLCD/CT6963CDriver.cpp **** /**
 237:../GraphicLCD/CT6963CDriver.cpp ****   * @brief  sets a pixel in graphics ram
 238:../GraphicLCD/CT6963CDriver.cpp ****   * @param  coordinates from upper left corner
 239:../GraphicLCD/CT6963CDriver.cpp ****   * @retval None
 240:../GraphicLCD/CT6963CDriver.cpp ****   */
 241:../GraphicLCD/CT6963CDriver.cpp **** void CT6963CDriver::SetPixel(unsigned char x, unsigned char y)
 242:../GraphicLCD/CT6963CDriver.cpp **** {
 733              		.loc 1 242 0
 734              		.cfi_startproc
 735              		@ args = 0, pretend = 0, frame = 16
 736              		@ frame_needed = 1, uses_anonymous_args = 0
 737 0000 80B5     		push	{r7, lr}
 738              	.LCFI34:
 739              		.cfi_def_cfa_offset 8
 740              		.cfi_offset 14, -4
 741              		.cfi_offset 7, -8
 742 0002 84B0     		sub	sp, sp, #16
 743              	.LCFI35:
 744              		.cfi_def_cfa_offset 24
 745 0004 00AF     		add	r7, sp, #0
 746              	.LCFI36:
 747              		.cfi_def_cfa_register 7
 748 0006 7860     		str	r0, [r7, #4]
 749 0008 1346     		mov	r3, r2
 750 000a 0A46     		mov	r2, r1
 751 000c FA70     		strb	r2, [r7, #3]
 752 000e BB70     		strb	r3, [r7, #2]
 753              	.LBB7:
 243:../GraphicLCD/CT6963CDriver.cpp **** 	unsigned char tmp;
 244:../GraphicLCD/CT6963CDriver.cpp **** 	GraphicGoTo(x,y);
 754              		.loc 1 244 0
 755 0010 FA78     		ldrb	r2, [r7, #3]	@ zero_extendqisi2
 756 0012 BB78     		ldrb	r3, [r7, #2]	@ zero_extendqisi2
 757 0014 7868     		ldr	r0, [r7, #4]
 758 0016 1146     		mov	r1, r2
 759 0018 1A46     		mov	r2, r3
 760 001a FFF7FEFF 		bl	_ZN13CT6963CDriver11GraphicGoToEhh
 245:../GraphicLCD/CT6963CDriver.cpp **** 
 246:../GraphicLCD/CT6963CDriver.cpp **** 
 247:../GraphicLCD/CT6963CDriver.cpp **** 	tmp = (GLCD_FONT_WIDTH - 1) - ((x-1) % GLCD_FONT_WIDTH);
 761              		.loc 1 247 0
 762 001e FB78     		ldrb	r3, [r7, #3]	@ zero_extendqisi2
 763 0020 03F1FF32 		add	r2, r3, #-1
 764 0024 4FEAE273 		asr	r3, r2, #31
 765 0028 4FEA5373 		lsr	r3, r3, #29
 766 002c D218     		adds	r2, r2, r3
 767 002e 02F00702 		and	r2, r2, #7
 768 0032 D31A     		subs	r3, r2, r3
 769 0034 DBB2     		uxtb	r3, r3
 770 0036 C3F10703 		rsb	r3, r3, #7
 771 003a FB73     		strb	r3, [r7, #15]
 248:../GraphicLCD/CT6963CDriver.cpp **** 
 249:../GraphicLCD/CT6963CDriver.cpp **** 	if(Inverse())
 772              		.loc 1 249 0
 773 003c 7B68     		ldr	r3, [r7, #4]
 774 003e 1846     		mov	r0, r3
 775 0040 FFF7FEFF 		bl	_ZN11CGraphicLCD7InverseEv
 776 0044 0346     		mov	r3, r0
 777 0046 002B     		cmp	r3, #0
 778 0048 0CD0     		beq	.L25
 250:../GraphicLCD/CT6963CDriver.cpp **** 		WriteCommand(T6963_BIT_RESET | tmp);
 779              		.loc 1 250 0
 780 004a 7B68     		ldr	r3, [r7, #4]
 781 004c 1B68     		ldr	r3, [r3, #0]
 782 004e 03F13403 		add	r3, r3, #52
 783 0052 1B68     		ldr	r3, [r3, #0]
 784 0054 FA7B     		ldrb	r2, [r7, #15]
 785 0056 62F00F02 		orn	r2, r2, #15
 786 005a D2B2     		uxtb	r2, r2
 787 005c 7868     		ldr	r0, [r7, #4]
 788 005e 1146     		mov	r1, r2
 789 0060 9847     		blx	r3
 790 0062 0BE0     		b	.L24
 791              	.L25:
 251:../GraphicLCD/CT6963CDriver.cpp **** 	else
 252:../GraphicLCD/CT6963CDriver.cpp **** 		WriteCommand(T6963_BIT_SET | tmp);
 792              		.loc 1 252 0
 793 0064 7B68     		ldr	r3, [r7, #4]
 794 0066 1B68     		ldr	r3, [r3, #0]
 795 0068 03F13403 		add	r3, r3, #52
 796 006c 1B68     		ldr	r3, [r3, #0]
 797 006e FA7B     		ldrb	r2, [r7, #15]
 798 0070 62F00702 		orn	r2, r2, #7
 799 0074 D2B2     		uxtb	r2, r2
 800 0076 7868     		ldr	r0, [r7, #4]
 801 0078 1146     		mov	r1, r2
 802 007a 9847     		blx	r3
 803              	.L24:
 804              	.LBE7:
 253:../GraphicLCD/CT6963CDriver.cpp **** }
 805              		.loc 1 253 0
 806 007c 07F11007 		add	r7, r7, #16
 807 0080 BD46     		mov	sp, r7
 808 0082 80BD     		pop	{r7, pc}
 809              		.cfi_endproc
 810              	.LFE15:
 812              		.section	.text._ZN13CT6963CDriver4LineEjjjj,"ax",%progbits
 813              		.align	2
 814              		.global	_ZN13CT6963CDriver4LineEjjjj
 815              		.thumb
 816              		.thumb_func
 818              	_ZN13CT6963CDriver4LineEjjjj:
 819              	.LFB16:
 254:../GraphicLCD/CT6963CDriver.cpp **** 
 255:../GraphicLCD/CT6963CDriver.cpp **** /**
 256:../GraphicLCD/CT6963CDriver.cpp ****   * @brief  draw a line from (x1,y1) to (x2,y2)
 257:../GraphicLCD/CT6963CDriver.cpp ****   * @param  x1,y1,x2,y2
 258:../GraphicLCD/CT6963CDriver.cpp ****   * @retval None
 259:../GraphicLCD/CT6963CDriver.cpp ****   *
 260:../GraphicLCD/CT6963CDriver.cpp ****   * Copyright (c) Radoslaw Kwiecien, 2007r
 261:../GraphicLCD/CT6963CDriver.cpp ****   * http://en.radzio.dxp.pl/t6963/
 262:../GraphicLCD/CT6963CDriver.cpp ****   */
 263:../GraphicLCD/CT6963CDriver.cpp **** void CT6963CDriver::Line(unsigned int x1, unsigned int y1,unsigned int x2, unsigned int y2){
 820              		.loc 1 263 0
 821              		.cfi_startproc
 822              		@ args = 4, pretend = 0, frame = 56
 823              		@ frame_needed = 1, uses_anonymous_args = 0
 824 0000 80B5     		push	{r7, lr}
 825              	.LCFI37:
 826              		.cfi_def_cfa_offset 8
 827              		.cfi_offset 14, -4
 828              		.cfi_offset 7, -8
 829 0002 8EB0     		sub	sp, sp, #56
 830              	.LCFI38:
 831              		.cfi_def_cfa_offset 64
 832 0004 00AF     		add	r7, sp, #0
 833              	.LCFI39:
 834              		.cfi_def_cfa_register 7
 835 0006 F860     		str	r0, [r7, #12]
 836 0008 B960     		str	r1, [r7, #8]
 837 000a 7A60     		str	r2, [r7, #4]
 838 000c 3B60     		str	r3, [r7, #0]
 839              	.LBB8:
 264:../GraphicLCD/CT6963CDriver.cpp **** 	unsigned int CurrentX, CurrentY;
 265:../GraphicLCD/CT6963CDriver.cpp **** 	int Xinc, Yinc,
 266:../GraphicLCD/CT6963CDriver.cpp **** 	Dx, Dy, TwoDx, TwoDy,
 267:../GraphicLCD/CT6963CDriver.cpp **** 	TwoDxAccumulatedError, TwoDyAccumulatedError;
 268:../GraphicLCD/CT6963CDriver.cpp **** 
 269:../GraphicLCD/CT6963CDriver.cpp **** 	Dx = (x2-x1);
 840              		.loc 1 269 0
 841 000e 3A68     		ldr	r2, [r7, #0]
 842 0010 BB68     		ldr	r3, [r7, #8]
 843 0012 D31A     		subs	r3, r2, r3
 844 0014 7B62     		str	r3, [r7, #36]
 270:../GraphicLCD/CT6963CDriver.cpp **** 	Dy = (y2-y1);
 845              		.loc 1 270 0
 846 0016 3A6C     		ldr	r2, [r7, #64]
 847 0018 7B68     		ldr	r3, [r7, #4]
 848 001a D31A     		subs	r3, r2, r3
 849 001c 3B62     		str	r3, [r7, #32]
 271:../GraphicLCD/CT6963CDriver.cpp **** 
 272:../GraphicLCD/CT6963CDriver.cpp **** 	TwoDx = Dx + Dx;
 850              		.loc 1 272 0
 851 001e 7A6A     		ldr	r2, [r7, #36]
 852 0020 7B6A     		ldr	r3, [r7, #36]
 853 0022 D318     		adds	r3, r2, r3
 854 0024 FB61     		str	r3, [r7, #28]
 273:../GraphicLCD/CT6963CDriver.cpp **** 	TwoDy = Dy + Dy;
 855              		.loc 1 273 0
 856 0026 3A6A     		ldr	r2, [r7, #32]
 857 0028 3B6A     		ldr	r3, [r7, #32]
 858 002a D318     		adds	r3, r2, r3
 859 002c BB61     		str	r3, [r7, #24]
 274:../GraphicLCD/CT6963CDriver.cpp **** 
 275:../GraphicLCD/CT6963CDriver.cpp **** 	CurrentX = x1;
 860              		.loc 1 275 0
 861 002e BB68     		ldr	r3, [r7, #8]
 862 0030 7B63     		str	r3, [r7, #52]
 276:../GraphicLCD/CT6963CDriver.cpp **** 	CurrentY = y1;
 863              		.loc 1 276 0
 864 0032 7B68     		ldr	r3, [r7, #4]
 865 0034 3B63     		str	r3, [r7, #48]
 277:../GraphicLCD/CT6963CDriver.cpp **** 
 278:../GraphicLCD/CT6963CDriver.cpp **** 	Xinc = 1;
 866              		.loc 1 278 0
 867 0036 4FF00103 		mov	r3, #1
 868 003a FB62     		str	r3, [r7, #44]
 279:../GraphicLCD/CT6963CDriver.cpp **** 	Yinc = 1;
 869              		.loc 1 279 0
 870 003c 4FF00103 		mov	r3, #1
 871 0040 BB62     		str	r3, [r7, #40]
 280:../GraphicLCD/CT6963CDriver.cpp **** 
 281:../GraphicLCD/CT6963CDriver.cpp **** 	if(Dx < 0)	// line from right to left
 872              		.loc 1 281 0
 873 0042 7B6A     		ldr	r3, [r7, #36]
 874 0044 002B     		cmp	r3, #0
 875 0046 0ADA     		bge	.L28
 282:../GraphicLCD/CT6963CDriver.cpp **** 	{
 283:../GraphicLCD/CT6963CDriver.cpp **** 		Xinc = -1;
 876              		.loc 1 283 0
 877 0048 4FF0FF33 		mov	r3, #-1
 878 004c FB62     		str	r3, [r7, #44]
 284:../GraphicLCD/CT6963CDriver.cpp **** 		Dx = -Dx;
 879              		.loc 1 284 0
 880 004e 7B6A     		ldr	r3, [r7, #36]
 881 0050 C3F10003 		rsb	r3, r3, #0
 882 0054 7B62     		str	r3, [r7, #36]
 285:../GraphicLCD/CT6963CDriver.cpp **** 		TwoDx = -TwoDx;
 883              		.loc 1 285 0
 884 0056 FB69     		ldr	r3, [r7, #28]
 885 0058 C3F10003 		rsb	r3, r3, #0
 886 005c FB61     		str	r3, [r7, #28]
 887              	.L28:
 286:../GraphicLCD/CT6963CDriver.cpp **** 	}
 287:../GraphicLCD/CT6963CDriver.cpp **** 
 288:../GraphicLCD/CT6963CDriver.cpp **** 	if (Dy < 0) // line from bottom to top
 888              		.loc 1 288 0
 889 005e 3B6A     		ldr	r3, [r7, #32]
 890 0060 002B     		cmp	r3, #0
 891 0062 0ADA     		bge	.L29
 289:../GraphicLCD/CT6963CDriver.cpp **** 	{
 290:../GraphicLCD/CT6963CDriver.cpp **** 		Yinc = -1;
 892              		.loc 1 290 0
 893 0064 4FF0FF33 		mov	r3, #-1
 894 0068 BB62     		str	r3, [r7, #40]
 291:../GraphicLCD/CT6963CDriver.cpp **** 		Dy = -Dy;
 895              		.loc 1 291 0
 896 006a 3B6A     		ldr	r3, [r7, #32]
 897 006c C3F10003 		rsb	r3, r3, #0
 898 0070 3B62     		str	r3, [r7, #32]
 292:../GraphicLCD/CT6963CDriver.cpp **** 		TwoDy = -TwoDy;
 899              		.loc 1 292 0
 900 0072 BB69     		ldr	r3, [r7, #24]
 901 0074 C3F10003 		rsb	r3, r3, #0
 902 0078 BB61     		str	r3, [r7, #24]
 903              	.L29:
 293:../GraphicLCD/CT6963CDriver.cpp **** 	}
 294:../GraphicLCD/CT6963CDriver.cpp **** 
 295:../GraphicLCD/CT6963CDriver.cpp **** 	SetPixel(x1,y1); // starting point
 904              		.loc 1 295 0
 905 007a BB68     		ldr	r3, [r7, #8]
 906 007c DAB2     		uxtb	r2, r3
 907 007e 7B68     		ldr	r3, [r7, #4]
 908 0080 DBB2     		uxtb	r3, r3
 909 0082 F868     		ldr	r0, [r7, #12]
 910 0084 1146     		mov	r1, r2
 911 0086 1A46     		mov	r2, r3
 912 0088 FFF7FEFF 		bl	_ZN13CT6963CDriver8SetPixelEhh
 296:../GraphicLCD/CT6963CDriver.cpp **** 
 297:../GraphicLCD/CT6963CDriver.cpp **** 	if ((Dx != 0) || (Dy != 0)) // line is vertical or horizontal
 913              		.loc 1 297 0
 914 008c 7B6A     		ldr	r3, [r7, #36]
 915 008e 002B     		cmp	r3, #0
 916 0090 02D1     		bne	.L30
 917              		.loc 1 297 0 is_stmt 0 discriminator 1
 918 0092 3B6A     		ldr	r3, [r7, #32]
 919 0094 002B     		cmp	r3, #0
 920 0096 56D0     		beq	.L27
 921              	.L30:
 298:../GraphicLCD/CT6963CDriver.cpp **** 	{
 299:../GraphicLCD/CT6963CDriver.cpp **** 
 300:../GraphicLCD/CT6963CDriver.cpp **** 		if (Dy <= Dx) // x is running var
 922              		.loc 1 300 0 is_stmt 1
 923 0098 3A6A     		ldr	r2, [r7, #32]
 924 009a 7B6A     		ldr	r3, [r7, #36]
 925 009c 9A42     		cmp	r2, r3
 926 009e 29DC     		bgt	.L32
 301:../GraphicLCD/CT6963CDriver.cpp **** 		{
 302:../GraphicLCD/CT6963CDriver.cpp **** 			TwoDxAccumulatedError = 0;
 927              		.loc 1 302 0
 928 00a0 4FF00003 		mov	r3, #0
 929 00a4 7B61     		str	r3, [r7, #20]
 930              	.L34:
 303:../GraphicLCD/CT6963CDriver.cpp **** 			do
 304:../GraphicLCD/CT6963CDriver.cpp **** 			{
 305:../GraphicLCD/CT6963CDriver.cpp **** 				CurrentX += Xinc; // step X
 931              		.loc 1 305 0
 932 00a6 FB6A     		ldr	r3, [r7, #44]
 933 00a8 7A6B     		ldr	r2, [r7, #52]
 934 00aa D318     		adds	r3, r2, r3
 935 00ac 7B63     		str	r3, [r7, #52]
 306:../GraphicLCD/CT6963CDriver.cpp **** 				TwoDxAccumulatedError += TwoDy;
 936              		.loc 1 306 0
 937 00ae 7A69     		ldr	r2, [r7, #20]
 938 00b0 BB69     		ldr	r3, [r7, #24]
 939 00b2 D318     		adds	r3, r2, r3
 940 00b4 7B61     		str	r3, [r7, #20]
 307:../GraphicLCD/CT6963CDriver.cpp **** 				if(TwoDxAccumulatedError > Dx)  // Increase Y
 941              		.loc 1 307 0
 942 00b6 7A69     		ldr	r2, [r7, #20]
 943 00b8 7B6A     		ldr	r3, [r7, #36]
 944 00ba 9A42     		cmp	r2, r3
 945 00bc 07DD     		ble	.L33
 308:../GraphicLCD/CT6963CDriver.cpp **** 				{
 309:../GraphicLCD/CT6963CDriver.cpp **** 					CurrentY += Yinc;
 946              		.loc 1 309 0
 947 00be BB6A     		ldr	r3, [r7, #40]
 948 00c0 3A6B     		ldr	r2, [r7, #48]
 949 00c2 D318     		adds	r3, r2, r3
 950 00c4 3B63     		str	r3, [r7, #48]
 310:../GraphicLCD/CT6963CDriver.cpp **** 					TwoDxAccumulatedError -= TwoDx;
 951              		.loc 1 310 0
 952 00c6 7A69     		ldr	r2, [r7, #20]
 953 00c8 FB69     		ldr	r3, [r7, #28]
 954 00ca D31A     		subs	r3, r2, r3
 955 00cc 7B61     		str	r3, [r7, #20]
 956              	.L33:
 311:../GraphicLCD/CT6963CDriver.cpp **** 				}
 312:../GraphicLCD/CT6963CDriver.cpp **** 				SetPixel(CurrentX,CurrentY);
 957              		.loc 1 312 0
 958 00ce 7B6B     		ldr	r3, [r7, #52]
 959 00d0 DAB2     		uxtb	r2, r3
 960 00d2 3B6B     		ldr	r3, [r7, #48]
 961 00d4 DBB2     		uxtb	r3, r3
 962 00d6 F868     		ldr	r0, [r7, #12]
 963 00d8 1146     		mov	r1, r2
 964 00da 1A46     		mov	r2, r3
 965 00dc FFF7FEFF 		bl	_ZN13CT6963CDriver8SetPixelEhh
 303:../GraphicLCD/CT6963CDriver.cpp **** 			do
 966              		.loc 1 303 0
 967 00e0 7A6B     		ldr	r2, [r7, #52]
 968 00e2 3B68     		ldr	r3, [r7, #0]
 969 00e4 9A42     		cmp	r2, r3
 970 00e6 0CBF     		ite	eq
 971 00e8 0023     		moveq	r3, #0
 972 00ea 0123     		movne	r3, #1
 973 00ec DBB2     		uxtb	r3, r3
 974 00ee 002B     		cmp	r3, #0
 975 00f0 D9D1     		bne	.L34
 976 00f2 28E0     		b	.L27
 977              	.L32:
 313:../GraphicLCD/CT6963CDriver.cpp **** 			}while (CurrentX != x2); // line finished
 314:../GraphicLCD/CT6963CDriver.cpp **** 		}
 315:../GraphicLCD/CT6963CDriver.cpp **** 		else // y is runnig var
 316:../GraphicLCD/CT6963CDriver.cpp **** 		{
 317:../GraphicLCD/CT6963CDriver.cpp **** 			TwoDyAccumulatedError = 0;
 978              		.loc 1 317 0
 979 00f4 4FF00003 		mov	r3, #0
 980 00f8 3B61     		str	r3, [r7, #16]
 981              	.L36:
 318:../GraphicLCD/CT6963CDriver.cpp **** 			do
 319:../GraphicLCD/CT6963CDriver.cpp **** 			{
 320:../GraphicLCD/CT6963CDriver.cpp **** 				CurrentY += Yinc;
 982              		.loc 1 320 0
 983 00fa BB6A     		ldr	r3, [r7, #40]
 984 00fc 3A6B     		ldr	r2, [r7, #48]
 985 00fe D318     		adds	r3, r2, r3
 986 0100 3B63     		str	r3, [r7, #48]
 321:../GraphicLCD/CT6963CDriver.cpp **** 				TwoDyAccumulatedError += TwoDx;
 987              		.loc 1 321 0
 988 0102 3A69     		ldr	r2, [r7, #16]
 989 0104 FB69     		ldr	r3, [r7, #28]
 990 0106 D318     		adds	r3, r2, r3
 991 0108 3B61     		str	r3, [r7, #16]
 322:../GraphicLCD/CT6963CDriver.cpp **** 				if(TwoDyAccumulatedError>Dy)
 992              		.loc 1 322 0
 993 010a 3A69     		ldr	r2, [r7, #16]
 994 010c 3B6A     		ldr	r3, [r7, #32]
 995 010e 9A42     		cmp	r2, r3
 996 0110 07DD     		ble	.L35
 323:../GraphicLCD/CT6963CDriver.cpp **** 				{
 324:../GraphicLCD/CT6963CDriver.cpp **** 					CurrentX += Xinc;
 997              		.loc 1 324 0
 998 0112 FB6A     		ldr	r3, [r7, #44]
 999 0114 7A6B     		ldr	r2, [r7, #52]
 1000 0116 D318     		adds	r3, r2, r3
 1001 0118 7B63     		str	r3, [r7, #52]
 325:../GraphicLCD/CT6963CDriver.cpp **** 					TwoDyAccumulatedError -= TwoDy;
 1002              		.loc 1 325 0
 1003 011a 3A69     		ldr	r2, [r7, #16]
 1004 011c BB69     		ldr	r3, [r7, #24]
 1005 011e D31A     		subs	r3, r2, r3
 1006 0120 3B61     		str	r3, [r7, #16]
 1007              	.L35:
 326:../GraphicLCD/CT6963CDriver.cpp **** 				}
 327:../GraphicLCD/CT6963CDriver.cpp **** 				SetPixel(CurrentX,CurrentY);
 1008              		.loc 1 327 0
 1009 0122 7B6B     		ldr	r3, [r7, #52]
 1010 0124 DAB2     		uxtb	r2, r3
 1011 0126 3B6B     		ldr	r3, [r7, #48]
 1012 0128 DBB2     		uxtb	r3, r3
 1013 012a F868     		ldr	r0, [r7, #12]
 1014 012c 1146     		mov	r1, r2
 1015 012e 1A46     		mov	r2, r3
 1016 0130 FFF7FEFF 		bl	_ZN13CT6963CDriver8SetPixelEhh
 318:../GraphicLCD/CT6963CDriver.cpp **** 			do
 1017              		.loc 1 318 0
 1018 0134 3A6B     		ldr	r2, [r7, #48]
 1019 0136 3B6C     		ldr	r3, [r7, #64]
 1020 0138 9A42     		cmp	r2, r3
 1021 013a 0CBF     		ite	eq
 1022 013c 0023     		moveq	r3, #0
 1023 013e 0123     		movne	r3, #1
 1024 0140 DBB2     		uxtb	r3, r3
 1025 0142 002B     		cmp	r3, #0
 1026 0144 D9D1     		bne	.L36
 1027              	.L27:
 1028              	.LBE8:
 328:../GraphicLCD/CT6963CDriver.cpp **** 			}while (CurrentY != y2); // line finished
 329:../GraphicLCD/CT6963CDriver.cpp **** 		}
 330:../GraphicLCD/CT6963CDriver.cpp **** 	}
 331:../GraphicLCD/CT6963CDriver.cpp **** }
 1029              		.loc 1 331 0
 1030 0146 07F13807 		add	r7, r7, #56
 1031 014a BD46     		mov	sp, r7
 1032 014c 80BD     		pop	{r7, pc}
 1033              		.cfi_endproc
 1034              	.LFE16:
 1036 014e 00BF     		.section	.text._ZN13CT6963CDriver6WindowEjjjj,"ax",%progbits
 1037              		.align	2
 1038              		.global	_ZN13CT6963CDriver6WindowEjjjj
 1039              		.thumb
 1040              		.thumb_func
 1042              	_ZN13CT6963CDriver6WindowEjjjj:
 1043              	.LFB17:
 332:../GraphicLCD/CT6963CDriver.cpp **** 
 333:../GraphicLCD/CT6963CDriver.cpp **** /**
 334:../GraphicLCD/CT6963CDriver.cpp ****   * @brief  draw a window with upper left corner at (x,y) and specified width and height, edges rou
 335:../GraphicLCD/CT6963CDriver.cpp ****   * @param  x1,y1,width,heigth, edge type enum
 336:../GraphicLCD/CT6963CDriver.cpp ****   * @retval None
 337:../GraphicLCD/CT6963CDriver.cpp ****   */
 338:../GraphicLCD/CT6963CDriver.cpp **** void CT6963CDriver::Window(unsigned int x,unsigned int y,unsigned int width,unsigned int height){
 1044              		.loc 1 338 0
 1045              		.cfi_startproc
 1046              		@ args = 4, pretend = 0, frame = 24
 1047              		@ frame_needed = 1, uses_anonymous_args = 0
 1048 0000 B0B5     		push	{r4, r5, r7, lr}
 1049              	.LCFI40:
 1050              		.cfi_def_cfa_offset 16
 1051              		.cfi_offset 14, -4
 1052              		.cfi_offset 7, -8
 1053              		.cfi_offset 5, -12
 1054              		.cfi_offset 4, -16
 1055 0002 88B0     		sub	sp, sp, #32
 1056              	.LCFI41:
 1057              		.cfi_def_cfa_offset 48
 1058 0004 02AF     		add	r7, sp, #8
 1059              	.LCFI42:
 1060              		.cfi_def_cfa 7, 40
 1061 0006 F860     		str	r0, [r7, #12]
 1062 0008 B960     		str	r1, [r7, #8]
 1063 000a 7A60     		str	r2, [r7, #4]
 1064 000c 3B60     		str	r3, [r7, #0]
 1065              	.LBB9:
 339:../GraphicLCD/CT6963CDriver.cpp **** 	unsigned int i;
 340:../GraphicLCD/CT6963CDriver.cpp **** 
 341:../GraphicLCD/CT6963CDriver.cpp **** 	Rectangle(x+4,y,x+width-4,4,true); // filled top bar
 1066              		.loc 1 341 0
 1067 000e FB68     		ldr	r3, [r7, #12]
 1068 0010 1B68     		ldr	r3, [r3, #0]
 1069 0012 03F10C03 		add	r3, r3, #12
 1070 0016 1C68     		ldr	r4, [r3, #0]
 1071 0018 BB68     		ldr	r3, [r7, #8]
 1072 001a 03F10402 		add	r2, r3, #4
 1073 001e B968     		ldr	r1, [r7, #8]
 1074 0020 3B68     		ldr	r3, [r7, #0]
 1075 0022 CB18     		adds	r3, r1, r3
 1076 0024 A3F10403 		sub	r3, r3, #4
 1077 0028 4FF00401 		mov	r1, #4
 1078 002c 0091     		str	r1, [sp, #0]
 1079 002e 4FF00101 		mov	r1, #1
 1080 0032 0191     		str	r1, [sp, #4]
 1081 0034 F868     		ldr	r0, [r7, #12]
 1082 0036 1146     		mov	r1, r2
 1083 0038 7A68     		ldr	r2, [r7, #4]
 1084 003a A047     		blx	r4
 342:../GraphicLCD/CT6963CDriver.cpp **** 	Line(x,y-4,x,y+height-4);			// left border
 1085              		.loc 1 342 0
 1086 003c FB68     		ldr	r3, [r7, #12]
 1087 003e 1B68     		ldr	r3, [r3, #0]
 1088 0040 03F10403 		add	r3, r3, #4
 1089 0044 1C68     		ldr	r4, [r3, #0]
 1090 0046 7B68     		ldr	r3, [r7, #4]
 1091 0048 A3F10403 		sub	r3, r3, #4
 1092 004c 7968     		ldr	r1, [r7, #4]
 1093 004e BA6A     		ldr	r2, [r7, #40]
 1094 0050 8A18     		adds	r2, r1, r2
 1095 0052 A2F10402 		sub	r2, r2, #4
 1096 0056 0092     		str	r2, [sp, #0]
 1097 0058 F868     		ldr	r0, [r7, #12]
 1098 005a B968     		ldr	r1, [r7, #8]
 1099 005c 1A46     		mov	r2, r3
 1100 005e BB68     		ldr	r3, [r7, #8]
 1101 0060 A047     		blx	r4
 343:../GraphicLCD/CT6963CDriver.cpp **** 	Line(x+width,y-4,x+width,y+height-4);// right border
 1102              		.loc 1 343 0
 1103 0062 FB68     		ldr	r3, [r7, #12]
 1104 0064 1B68     		ldr	r3, [r3, #0]
 1105 0066 03F10403 		add	r3, r3, #4
 1106 006a 1C68     		ldr	r4, [r3, #0]
 1107 006c BA68     		ldr	r2, [r7, #8]
 1108 006e 3B68     		ldr	r3, [r7, #0]
 1109 0070 D118     		adds	r1, r2, r3
 1110 0072 7B68     		ldr	r3, [r7, #4]
 1111 0074 A3F10402 		sub	r2, r3, #4
 1112 0078 B868     		ldr	r0, [r7, #8]
 1113 007a 3B68     		ldr	r3, [r7, #0]
 1114 007c C318     		adds	r3, r0, r3
 1115 007e 7D68     		ldr	r5, [r7, #4]
 1116 0080 B86A     		ldr	r0, [r7, #40]
 1117 0082 2818     		adds	r0, r5, r0
 1118 0084 A0F10400 		sub	r0, r0, #4
 1119 0088 0090     		str	r0, [sp, #0]
 1120 008a F868     		ldr	r0, [r7, #12]
 1121 008c A047     		blx	r4
 344:../GraphicLCD/CT6963CDriver.cpp **** 	Line(x+4,y+height,x+width-4,y+height);// bottom border
 1122              		.loc 1 344 0
 1123 008e FB68     		ldr	r3, [r7, #12]
 1124 0090 1B68     		ldr	r3, [r3, #0]
 1125 0092 03F10403 		add	r3, r3, #4
 1126 0096 1C68     		ldr	r4, [r3, #0]
 1127 0098 BB68     		ldr	r3, [r7, #8]
 1128 009a 03F10401 		add	r1, r3, #4
 1129 009e 7A68     		ldr	r2, [r7, #4]
 1130 00a0 BB6A     		ldr	r3, [r7, #40]
 1131 00a2 D218     		adds	r2, r2, r3
 1132 00a4 B868     		ldr	r0, [r7, #8]
 1133 00a6 3B68     		ldr	r3, [r7, #0]
 1134 00a8 C318     		adds	r3, r0, r3
 1135 00aa A3F10403 		sub	r3, r3, #4
 1136 00ae 7D68     		ldr	r5, [r7, #4]
 1137 00b0 B86A     		ldr	r0, [r7, #40]
 1138 00b2 2818     		adds	r0, r5, r0
 1139 00b4 0090     		str	r0, [sp, #0]
 1140 00b6 F868     		ldr	r0, [r7, #12]
 1141 00b8 A047     		blx	r4
 345:../GraphicLCD/CT6963CDriver.cpp **** 
 346:../GraphicLCD/CT6963CDriver.cpp **** 	for(i=1;i<4;i++){
 1142              		.loc 1 346 0
 1143 00ba 4FF00103 		mov	r3, #1
 1144 00be 7B61     		str	r3, [r7, #20]
 1145 00c0 4BE0     		b	.L38
 1146              	.L39:
 347:../GraphicLCD/CT6963CDriver.cpp **** 		// upper left
 348:../GraphicLCD/CT6963CDriver.cpp **** 		SetPixel(x+i,y+2);
 1147              		.loc 1 348 0 discriminator 2
 1148 00c2 BB68     		ldr	r3, [r7, #8]
 1149 00c4 DAB2     		uxtb	r2, r3
 1150 00c6 7B69     		ldr	r3, [r7, #20]
 1151 00c8 DBB2     		uxtb	r3, r3
 1152 00ca D318     		adds	r3, r2, r3
 1153 00cc DAB2     		uxtb	r2, r3
 1154 00ce 7B68     		ldr	r3, [r7, #4]
 1155 00d0 DBB2     		uxtb	r3, r3
 1156 00d2 03F10203 		add	r3, r3, #2
 1157 00d6 DBB2     		uxtb	r3, r3
 1158 00d8 F868     		ldr	r0, [r7, #12]
 1159 00da 1146     		mov	r1, r2
 1160 00dc 1A46     		mov	r2, r3
 1161 00de FFF7FEFF 		bl	_ZN13CT6963CDriver8SetPixelEhh
 349:../GraphicLCD/CT6963CDriver.cpp **** 		SetPixel(x+i,y+1);
 1162              		.loc 1 349 0 discriminator 2
 1163 00e2 BB68     		ldr	r3, [r7, #8]
 1164 00e4 DAB2     		uxtb	r2, r3
 1165 00e6 7B69     		ldr	r3, [r7, #20]
 1166 00e8 DBB2     		uxtb	r3, r3
 1167 00ea D318     		adds	r3, r2, r3
 1168 00ec DAB2     		uxtb	r2, r3
 1169 00ee 7B68     		ldr	r3, [r7, #4]
 1170 00f0 DBB2     		uxtb	r3, r3
 1171 00f2 03F10103 		add	r3, r3, #1
 1172 00f6 DBB2     		uxtb	r3, r3
 1173 00f8 F868     		ldr	r0, [r7, #12]
 1174 00fa 1146     		mov	r1, r2
 1175 00fc 1A46     		mov	r2, r3
 1176 00fe FFF7FEFF 		bl	_ZN13CT6963CDriver8SetPixelEhh
 350:../GraphicLCD/CT6963CDriver.cpp **** 
 351:../GraphicLCD/CT6963CDriver.cpp **** 		// upper right
 352:../GraphicLCD/CT6963CDriver.cpp **** 		SetPixel(x+width-i,y+2);
 1177              		.loc 1 352 0 discriminator 2
 1178 0102 BB68     		ldr	r3, [r7, #8]
 1179 0104 DAB2     		uxtb	r2, r3
 1180 0106 3B68     		ldr	r3, [r7, #0]
 1181 0108 DBB2     		uxtb	r3, r3
 1182 010a D318     		adds	r3, r2, r3
 1183 010c DAB2     		uxtb	r2, r3
 1184 010e 7B69     		ldr	r3, [r7, #20]
 1185 0110 DBB2     		uxtb	r3, r3
 1186 0112 D31A     		subs	r3, r2, r3
 1187 0114 DAB2     		uxtb	r2, r3
 1188 0116 7B68     		ldr	r3, [r7, #4]
 1189 0118 DBB2     		uxtb	r3, r3
 1190 011a 03F10203 		add	r3, r3, #2
 1191 011e DBB2     		uxtb	r3, r3
 1192 0120 F868     		ldr	r0, [r7, #12]
 1193 0122 1146     		mov	r1, r2
 1194 0124 1A46     		mov	r2, r3
 1195 0126 FFF7FEFF 		bl	_ZN13CT6963CDriver8SetPixelEhh
 353:../GraphicLCD/CT6963CDriver.cpp **** 		SetPixel(x+width-i,y+1);
 1196              		.loc 1 353 0 discriminator 2
 1197 012a BB68     		ldr	r3, [r7, #8]
 1198 012c DAB2     		uxtb	r2, r3
 1199 012e 3B68     		ldr	r3, [r7, #0]
 1200 0130 DBB2     		uxtb	r3, r3
 1201 0132 D318     		adds	r3, r2, r3
 1202 0134 DAB2     		uxtb	r2, r3
 1203 0136 7B69     		ldr	r3, [r7, #20]
 1204 0138 DBB2     		uxtb	r3, r3
 1205 013a D31A     		subs	r3, r2, r3
 1206 013c DAB2     		uxtb	r2, r3
 1207 013e 7B68     		ldr	r3, [r7, #4]
 1208 0140 DBB2     		uxtb	r3, r3
 1209 0142 03F10103 		add	r3, r3, #1
 1210 0146 DBB2     		uxtb	r3, r3
 1211 0148 F868     		ldr	r0, [r7, #12]
 1212 014a 1146     		mov	r1, r2
 1213 014c 1A46     		mov	r2, r3
 1214 014e FFF7FEFF 		bl	_ZN13CT6963CDriver8SetPixelEhh
 346:../GraphicLCD/CT6963CDriver.cpp **** 	for(i=1;i<4;i++){
 1215              		.loc 1 346 0 discriminator 2
 1216 0152 7B69     		ldr	r3, [r7, #20]
 1217 0154 03F10103 		add	r3, r3, #1
 1218 0158 7B61     		str	r3, [r7, #20]
 1219              	.L38:
 346:../GraphicLCD/CT6963CDriver.cpp **** 	for(i=1;i<4;i++){
 1220              		.loc 1 346 0 is_stmt 0 discriminator 1
 1221 015a 7B69     		ldr	r3, [r7, #20]
 1222 015c 032B     		cmp	r3, #3
 1223 015e 8CBF     		ite	hi
 1224 0160 0023     		movhi	r3, #0
 1225 0162 0123     		movls	r3, #1
 1226 0164 DBB2     		uxtb	r3, r3
 1227 0166 002B     		cmp	r3, #0
 1228 0168 ABD1     		bne	.L39
 354:../GraphicLCD/CT6963CDriver.cpp **** 	}
 355:../GraphicLCD/CT6963CDriver.cpp **** 
 356:../GraphicLCD/CT6963CDriver.cpp **** 	// bottom left
 357:../GraphicLCD/CT6963CDriver.cpp **** 	SetPixel(x+1,y+height-2);
 1229              		.loc 1 357 0 is_stmt 1
 1230 016a BB68     		ldr	r3, [r7, #8]
 1231 016c DBB2     		uxtb	r3, r3
 1232 016e 03F10103 		add	r3, r3, #1
 1233 0172 DAB2     		uxtb	r2, r3
 1234 0174 7B68     		ldr	r3, [r7, #4]
 1235 0176 D9B2     		uxtb	r1, r3
 1236 0178 BB6A     		ldr	r3, [r7, #40]
 1237 017a DBB2     		uxtb	r3, r3
 1238 017c CB18     		adds	r3, r1, r3
 1239 017e DBB2     		uxtb	r3, r3
 1240 0180 A3F10203 		sub	r3, r3, #2
 1241 0184 DBB2     		uxtb	r3, r3
 1242 0186 F868     		ldr	r0, [r7, #12]
 1243 0188 1146     		mov	r1, r2
 1244 018a 1A46     		mov	r2, r3
 1245 018c FFF7FEFF 		bl	_ZN13CT6963CDriver8SetPixelEhh
 358:../GraphicLCD/CT6963CDriver.cpp **** 	SetPixel(x+1,y+height-1);
 1246              		.loc 1 358 0
 1247 0190 BB68     		ldr	r3, [r7, #8]
 1248 0192 DBB2     		uxtb	r3, r3
 1249 0194 03F10103 		add	r3, r3, #1
 1250 0198 DAB2     		uxtb	r2, r3
 1251 019a 7B68     		ldr	r3, [r7, #4]
 1252 019c D9B2     		uxtb	r1, r3
 1253 019e BB6A     		ldr	r3, [r7, #40]
 1254 01a0 DBB2     		uxtb	r3, r3
 1255 01a2 CB18     		adds	r3, r1, r3
 1256 01a4 DBB2     		uxtb	r3, r3
 1257 01a6 03F1FF33 		add	r3, r3, #-1
 1258 01aa DBB2     		uxtb	r3, r3
 1259 01ac F868     		ldr	r0, [r7, #12]
 1260 01ae 1146     		mov	r1, r2
 1261 01b0 1A46     		mov	r2, r3
 1262 01b2 FFF7FEFF 		bl	_ZN13CT6963CDriver8SetPixelEhh
 359:../GraphicLCD/CT6963CDriver.cpp **** 
 360:../GraphicLCD/CT6963CDriver.cpp **** 	// bottom left
 361:../GraphicLCD/CT6963CDriver.cpp **** 	SetPixel(x+1,y+height-1);
 1263              		.loc 1 361 0
 1264 01b6 BB68     		ldr	r3, [r7, #8]
 1265 01b8 DBB2     		uxtb	r3, r3
 1266 01ba 03F10103 		add	r3, r3, #1
 1267 01be DAB2     		uxtb	r2, r3
 1268 01c0 7B68     		ldr	r3, [r7, #4]
 1269 01c2 D9B2     		uxtb	r1, r3
 1270 01c4 BB6A     		ldr	r3, [r7, #40]
 1271 01c6 DBB2     		uxtb	r3, r3
 1272 01c8 CB18     		adds	r3, r1, r3
 1273 01ca DBB2     		uxtb	r3, r3
 1274 01cc 03F1FF33 		add	r3, r3, #-1
 1275 01d0 DBB2     		uxtb	r3, r3
 1276 01d2 F868     		ldr	r0, [r7, #12]
 1277 01d4 1146     		mov	r1, r2
 1278 01d6 1A46     		mov	r2, r3
 1279 01d8 FFF7FEFF 		bl	_ZN13CT6963CDriver8SetPixelEhh
 362:../GraphicLCD/CT6963CDriver.cpp **** 	SetPixel(x+2,y+height-1);
 1280              		.loc 1 362 0
 1281 01dc BB68     		ldr	r3, [r7, #8]
 1282 01de DBB2     		uxtb	r3, r3
 1283 01e0 03F10203 		add	r3, r3, #2
 1284 01e4 DAB2     		uxtb	r2, r3
 1285 01e6 7B68     		ldr	r3, [r7, #4]
 1286 01e8 D9B2     		uxtb	r1, r3
 1287 01ea BB6A     		ldr	r3, [r7, #40]
 1288 01ec DBB2     		uxtb	r3, r3
 1289 01ee CB18     		adds	r3, r1, r3
 1290 01f0 DBB2     		uxtb	r3, r3
 1291 01f2 03F1FF33 		add	r3, r3, #-1
 1292 01f6 DBB2     		uxtb	r3, r3
 1293 01f8 F868     		ldr	r0, [r7, #12]
 1294 01fa 1146     		mov	r1, r2
 1295 01fc 1A46     		mov	r2, r3
 1296 01fe FFF7FEFF 		bl	_ZN13CT6963CDriver8SetPixelEhh
 363:../GraphicLCD/CT6963CDriver.cpp **** 
 364:../GraphicLCD/CT6963CDriver.cpp **** 
 365:../GraphicLCD/CT6963CDriver.cpp **** 	// bottom right
 366:../GraphicLCD/CT6963CDriver.cpp **** 	SetPixel(x+width-1,y+height-2);
 1297              		.loc 1 366 0
 1298 0202 BB68     		ldr	r3, [r7, #8]
 1299 0204 DAB2     		uxtb	r2, r3
 1300 0206 3B68     		ldr	r3, [r7, #0]
 1301 0208 DBB2     		uxtb	r3, r3
 1302 020a D318     		adds	r3, r2, r3
 1303 020c DBB2     		uxtb	r3, r3
 1304 020e 03F1FF33 		add	r3, r3, #-1
 1305 0212 DAB2     		uxtb	r2, r3
 1306 0214 7B68     		ldr	r3, [r7, #4]
 1307 0216 D9B2     		uxtb	r1, r3
 1308 0218 BB6A     		ldr	r3, [r7, #40]
 1309 021a DBB2     		uxtb	r3, r3
 1310 021c CB18     		adds	r3, r1, r3
 1311 021e DBB2     		uxtb	r3, r3
 1312 0220 A3F10203 		sub	r3, r3, #2
 1313 0224 DBB2     		uxtb	r3, r3
 1314 0226 F868     		ldr	r0, [r7, #12]
 1315 0228 1146     		mov	r1, r2
 1316 022a 1A46     		mov	r2, r3
 1317 022c FFF7FEFF 		bl	_ZN13CT6963CDriver8SetPixelEhh
 367:../GraphicLCD/CT6963CDriver.cpp **** 	SetPixel(x+width-1,y+height-1);
 1318              		.loc 1 367 0
 1319 0230 BB68     		ldr	r3, [r7, #8]
 1320 0232 DAB2     		uxtb	r2, r3
 1321 0234 3B68     		ldr	r3, [r7, #0]
 1322 0236 DBB2     		uxtb	r3, r3
 1323 0238 D318     		adds	r3, r2, r3
 1324 023a DBB2     		uxtb	r3, r3
 1325 023c 03F1FF33 		add	r3, r3, #-1
 1326 0240 DAB2     		uxtb	r2, r3
 1327 0242 7B68     		ldr	r3, [r7, #4]
 1328 0244 D9B2     		uxtb	r1, r3
 1329 0246 BB6A     		ldr	r3, [r7, #40]
 1330 0248 DBB2     		uxtb	r3, r3
 1331 024a CB18     		adds	r3, r1, r3
 1332 024c DBB2     		uxtb	r3, r3
 1333 024e 03F1FF33 		add	r3, r3, #-1
 1334 0252 DBB2     		uxtb	r3, r3
 1335 0254 F868     		ldr	r0, [r7, #12]
 1336 0256 1146     		mov	r1, r2
 1337 0258 1A46     		mov	r2, r3
 1338 025a FFF7FEFF 		bl	_ZN13CT6963CDriver8SetPixelEhh
 368:../GraphicLCD/CT6963CDriver.cpp **** 
 369:../GraphicLCD/CT6963CDriver.cpp **** 	// bottom right
 370:../GraphicLCD/CT6963CDriver.cpp **** 	SetPixel(x+width-1,y+height-1);
 1339              		.loc 1 370 0
 1340 025e BB68     		ldr	r3, [r7, #8]
 1341 0260 DAB2     		uxtb	r2, r3
 1342 0262 3B68     		ldr	r3, [r7, #0]
 1343 0264 DBB2     		uxtb	r3, r3
 1344 0266 D318     		adds	r3, r2, r3
 1345 0268 DBB2     		uxtb	r3, r3
 1346 026a 03F1FF33 		add	r3, r3, #-1
 1347 026e DAB2     		uxtb	r2, r3
 1348 0270 7B68     		ldr	r3, [r7, #4]
 1349 0272 D9B2     		uxtb	r1, r3
 1350 0274 BB6A     		ldr	r3, [r7, #40]
 1351 0276 DBB2     		uxtb	r3, r3
 1352 0278 CB18     		adds	r3, r1, r3
 1353 027a DBB2     		uxtb	r3, r3
 1354 027c 03F1FF33 		add	r3, r3, #-1
 1355 0280 DBB2     		uxtb	r3, r3
 1356 0282 F868     		ldr	r0, [r7, #12]
 1357 0284 1146     		mov	r1, r2
 1358 0286 1A46     		mov	r2, r3
 1359 0288 FFF7FEFF 		bl	_ZN13CT6963CDriver8SetPixelEhh
 371:../GraphicLCD/CT6963CDriver.cpp **** 	SetPixel(x+width-2,y+height-1);
 1360              		.loc 1 371 0
 1361 028c BB68     		ldr	r3, [r7, #8]
 1362 028e DAB2     		uxtb	r2, r3
 1363 0290 3B68     		ldr	r3, [r7, #0]
 1364 0292 DBB2     		uxtb	r3, r3
 1365 0294 D318     		adds	r3, r2, r3
 1366 0296 DBB2     		uxtb	r3, r3
 1367 0298 A3F10203 		sub	r3, r3, #2
 1368 029c DAB2     		uxtb	r2, r3
 1369 029e 7B68     		ldr	r3, [r7, #4]
 1370 02a0 D9B2     		uxtb	r1, r3
 1371 02a2 BB6A     		ldr	r3, [r7, #40]
 1372 02a4 DBB2     		uxtb	r3, r3
 1373 02a6 CB18     		adds	r3, r1, r3
 1374 02a8 DBB2     		uxtb	r3, r3
 1375 02aa 03F1FF33 		add	r3, r3, #-1
 1376 02ae DBB2     		uxtb	r3, r3
 1377 02b0 F868     		ldr	r0, [r7, #12]
 1378 02b2 1146     		mov	r1, r2
 1379 02b4 1A46     		mov	r2, r3
 1380 02b6 FFF7FEFF 		bl	_ZN13CT6963CDriver8SetPixelEhh
 1381              	.LBE9:
 372:../GraphicLCD/CT6963CDriver.cpp **** 
 373:../GraphicLCD/CT6963CDriver.cpp **** }
 1382              		.loc 1 373 0
 1383 02ba 07F11807 		add	r7, r7, #24
 1384 02be BD46     		mov	sp, r7
 1385 02c0 B0BD     		pop	{r4, r5, r7, pc}
 1386              		.cfi_endproc
 1387              	.LFE17:
 1389 02c2 00BF     		.section	.text._ZN13CT6963CDriver9RectangleEjjjjb,"ax",%progbits
 1390              		.align	2
 1391              		.global	_ZN13CT6963CDriver9RectangleEjjjjb
 1392              		.thumb
 1393              		.thumb_func
 1395              	_ZN13CT6963CDriver9RectangleEjjjjb:
 1396              	.LFB18:
 374:../GraphicLCD/CT6963CDriver.cpp **** 
 375:../GraphicLCD/CT6963CDriver.cpp **** /**
 376:../GraphicLCD/CT6963CDriver.cpp ****   * @brief  draw an rectangle with upper left corner at (x,y) and specified width and height
 377:../GraphicLCD/CT6963CDriver.cpp ****   * @param  x1,y1,width,heigth,  true for filled
 378:../GraphicLCD/CT6963CDriver.cpp ****   * @retval None
 379:../GraphicLCD/CT6963CDriver.cpp ****   */
 380:../GraphicLCD/CT6963CDriver.cpp **** void CT6963CDriver::Rectangle(unsigned int x,unsigned int y,unsigned int width,unsigned int height,
 1397              		.loc 1 380 0
 1398              		.cfi_startproc
 1399              		@ args = 8, pretend = 0, frame = 24
 1400              		@ frame_needed = 1, uses_anonymous_args = 0
 1401 0000 80B5     		push	{r7, lr}
 1402              	.LCFI43:
 1403              		.cfi_def_cfa_offset 8
 1404              		.cfi_offset 14, -4
 1405              		.cfi_offset 7, -8
 1406 0002 86B0     		sub	sp, sp, #24
 1407              	.LCFI44:
 1408              		.cfi_def_cfa_offset 32
 1409 0004 00AF     		add	r7, sp, #0
 1410              	.LCFI45:
 1411              		.cfi_def_cfa_register 7
 1412 0006 F860     		str	r0, [r7, #12]
 1413 0008 B960     		str	r1, [r7, #8]
 1414 000a 7A60     		str	r2, [r7, #4]
 1415 000c 3B60     		str	r3, [r7, #0]
 1416              	.LBB10:
 381:../GraphicLCD/CT6963CDriver.cpp **** 	unsigned char i;
 382:../GraphicLCD/CT6963CDriver.cpp **** 	unsigned char k;
 383:../GraphicLCD/CT6963CDriver.cpp **** 
 384:../GraphicLCD/CT6963CDriver.cpp **** 	if(fill){	// fill rect
 1417              		.loc 1 384 0
 1418 000e 97F82430 		ldrb	r3, [r7, #36]	@ zero_extendqisi2
 1419 0012 002B     		cmp	r3, #0
 1420 0014 31D0     		beq	.L41
 385:../GraphicLCD/CT6963CDriver.cpp **** 		//lines
 386:../GraphicLCD/CT6963CDriver.cpp **** 		for (i=0;i<height;i++){
 1421              		.loc 1 386 0
 1422 0016 4FF00003 		mov	r3, #0
 1423 001a FB75     		strb	r3, [r7, #23]
 1424 001c 23E0     		b	.L42
 1425              	.L45:
 387:../GraphicLCD/CT6963CDriver.cpp **** 			// columns
 388:../GraphicLCD/CT6963CDriver.cpp **** 			for (k=0;k<width;k++) {
 1426              		.loc 1 388 0
 1427 001e 4FF00003 		mov	r3, #0
 1428 0022 BB75     		strb	r3, [r7, #22]
 1429 0024 12E0     		b	.L43
 1430              	.L44:
 389:../GraphicLCD/CT6963CDriver.cpp **** 				SetPixel(x+k,y+i);
 1431              		.loc 1 389 0 discriminator 2
 1432 0026 BB68     		ldr	r3, [r7, #8]
 1433 0028 DAB2     		uxtb	r2, r3
 1434 002a BB7D     		ldrb	r3, [r7, #22]
 1435 002c D318     		adds	r3, r2, r3
 1436 002e DAB2     		uxtb	r2, r3
 1437 0030 7B68     		ldr	r3, [r7, #4]
 1438 0032 D9B2     		uxtb	r1, r3
 1439 0034 FB7D     		ldrb	r3, [r7, #23]
 1440 0036 CB18     		adds	r3, r1, r3
 1441 0038 DBB2     		uxtb	r3, r3
 1442 003a F868     		ldr	r0, [r7, #12]
 1443 003c 1146     		mov	r1, r2
 1444 003e 1A46     		mov	r2, r3
 1445 0040 FFF7FEFF 		bl	_ZN13CT6963CDriver8SetPixelEhh
 388:../GraphicLCD/CT6963CDriver.cpp **** 			for (k=0;k<width;k++) {
 1446              		.loc 1 388 0 discriminator 2
 1447 0044 BB7D     		ldrb	r3, [r7, #22]
 1448 0046 03F10103 		add	r3, r3, #1
 1449 004a BB75     		strb	r3, [r7, #22]
 1450              	.L43:
 388:../GraphicLCD/CT6963CDriver.cpp **** 			for (k=0;k<width;k++) {
 1451              		.loc 1 388 0 is_stmt 0 discriminator 1
 1452 004c BA7D     		ldrb	r2, [r7, #22]	@ zero_extendqisi2
 1453 004e 3B68     		ldr	r3, [r7, #0]
 1454 0050 9A42     		cmp	r2, r3
 1455 0052 2CBF     		ite	cs
 1456 0054 0023     		movcs	r3, #0
 1457 0056 0123     		movcc	r3, #1
 1458 0058 DBB2     		uxtb	r3, r3
 1459 005a 002B     		cmp	r3, #0
 1460 005c E3D1     		bne	.L44
 386:../GraphicLCD/CT6963CDriver.cpp **** 		for (i=0;i<height;i++){
 1461              		.loc 1 386 0 is_stmt 1
 1462 005e FB7D     		ldrb	r3, [r7, #23]
 1463 0060 03F10103 		add	r3, r3, #1
 1464 0064 FB75     		strb	r3, [r7, #23]
 1465              	.L42:
 386:../GraphicLCD/CT6963CDriver.cpp **** 		for (i=0;i<height;i++){
 1466              		.loc 1 386 0 is_stmt 0 discriminator 1
 1467 0066 FA7D     		ldrb	r2, [r7, #23]	@ zero_extendqisi2
 1468 0068 3B6A     		ldr	r3, [r7, #32]
 1469 006a 9A42     		cmp	r2, r3
 1470 006c 2CBF     		ite	cs
 1471 006e 0023     		movcs	r3, #0
 1472 0070 0123     		movcc	r3, #1
 1473 0072 DBB2     		uxtb	r3, r3
 1474 0074 002B     		cmp	r3, #0
 1475 0076 D2D1     		bne	.L45
 386:../GraphicLCD/CT6963CDriver.cpp **** 		for (i=0;i<height;i++){
 1476              		.loc 1 386 0
 1477 0078 5FE0     		b	.L40
 1478              	.L41:
 390:../GraphicLCD/CT6963CDriver.cpp **** 			}
 391:../GraphicLCD/CT6963CDriver.cpp **** 		}
 392:../GraphicLCD/CT6963CDriver.cpp **** 	} else {
 393:../GraphicLCD/CT6963CDriver.cpp **** 		//lines vertical
 394:../GraphicLCD/CT6963CDriver.cpp **** 		for (i = 0; i < height; i++) {
 1479              		.loc 1 394 0 is_stmt 1
 1480 007a 4FF00003 		mov	r3, #0
 1481 007e FB75     		strb	r3, [r7, #23]
 1482 0080 22E0     		b	.L47
 1483              	.L48:
 395:../GraphicLCD/CT6963CDriver.cpp **** 			SetPixel(x, y + i);
 1484              		.loc 1 395 0 discriminator 2
 1485 0082 BB68     		ldr	r3, [r7, #8]
 1486 0084 DAB2     		uxtb	r2, r3
 1487 0086 7B68     		ldr	r3, [r7, #4]
 1488 0088 D9B2     		uxtb	r1, r3
 1489 008a FB7D     		ldrb	r3, [r7, #23]
 1490 008c CB18     		adds	r3, r1, r3
 1491 008e DBB2     		uxtb	r3, r3
 1492 0090 F868     		ldr	r0, [r7, #12]
 1493 0092 1146     		mov	r1, r2
 1494 0094 1A46     		mov	r2, r3
 1495 0096 FFF7FEFF 		bl	_ZN13CT6963CDriver8SetPixelEhh
 396:../GraphicLCD/CT6963CDriver.cpp **** 			SetPixel(x + width - 1, y + i);
 1496              		.loc 1 396 0 discriminator 2
 1497 009a BB68     		ldr	r3, [r7, #8]
 1498 009c DAB2     		uxtb	r2, r3
 1499 009e 3B68     		ldr	r3, [r7, #0]
 1500 00a0 DBB2     		uxtb	r3, r3
 1501 00a2 D318     		adds	r3, r2, r3
 1502 00a4 DBB2     		uxtb	r3, r3
 1503 00a6 03F1FF33 		add	r3, r3, #-1
 1504 00aa DAB2     		uxtb	r2, r3
 1505 00ac 7B68     		ldr	r3, [r7, #4]
 1506 00ae D9B2     		uxtb	r1, r3
 1507 00b0 FB7D     		ldrb	r3, [r7, #23]
 1508 00b2 CB18     		adds	r3, r1, r3
 1509 00b4 DBB2     		uxtb	r3, r3
 1510 00b6 F868     		ldr	r0, [r7, #12]
 1511 00b8 1146     		mov	r1, r2
 1512 00ba 1A46     		mov	r2, r3
 1513 00bc FFF7FEFF 		bl	_ZN13CT6963CDriver8SetPixelEhh
 394:../GraphicLCD/CT6963CDriver.cpp **** 		for (i = 0; i < height; i++) {
 1514              		.loc 1 394 0 discriminator 2
 1515 00c0 FB7D     		ldrb	r3, [r7, #23]
 1516 00c2 03F10103 		add	r3, r3, #1
 1517 00c6 FB75     		strb	r3, [r7, #23]
 1518              	.L47:
 394:../GraphicLCD/CT6963CDriver.cpp **** 		for (i = 0; i < height; i++) {
 1519              		.loc 1 394 0 is_stmt 0 discriminator 1
 1520 00c8 FA7D     		ldrb	r2, [r7, #23]	@ zero_extendqisi2
 1521 00ca 3B6A     		ldr	r3, [r7, #32]
 1522 00cc 9A42     		cmp	r2, r3
 1523 00ce 2CBF     		ite	cs
 1524 00d0 0023     		movcs	r3, #0
 1525 00d2 0123     		movcc	r3, #1
 1526 00d4 DBB2     		uxtb	r3, r3
 1527 00d6 002B     		cmp	r3, #0
 1528 00d8 D3D1     		bne	.L48
 397:../GraphicLCD/CT6963CDriver.cpp **** 		}
 398:../GraphicLCD/CT6963CDriver.cpp **** 		//lines horizontal
 399:../GraphicLCD/CT6963CDriver.cpp **** 		for (i = 0; i < width; i++)	{
 1529              		.loc 1 399 0 is_stmt 1
 1530 00da 4FF00003 		mov	r3, #0
 1531 00de FB75     		strb	r3, [r7, #23]
 1532 00e0 22E0     		b	.L49
 1533              	.L50:
 400:../GraphicLCD/CT6963CDriver.cpp **** 			SetPixel(x + i, y);
 1534              		.loc 1 400 0 discriminator 2
 1535 00e2 BB68     		ldr	r3, [r7, #8]
 1536 00e4 DAB2     		uxtb	r2, r3
 1537 00e6 FB7D     		ldrb	r3, [r7, #23]
 1538 00e8 D318     		adds	r3, r2, r3
 1539 00ea DAB2     		uxtb	r2, r3
 1540 00ec 7B68     		ldr	r3, [r7, #4]
 1541 00ee DBB2     		uxtb	r3, r3
 1542 00f0 F868     		ldr	r0, [r7, #12]
 1543 00f2 1146     		mov	r1, r2
 1544 00f4 1A46     		mov	r2, r3
 1545 00f6 FFF7FEFF 		bl	_ZN13CT6963CDriver8SetPixelEhh
 401:../GraphicLCD/CT6963CDriver.cpp **** 			SetPixel(x + i, y + height - 1);
 1546              		.loc 1 401 0 discriminator 2
 1547 00fa BB68     		ldr	r3, [r7, #8]
 1548 00fc DAB2     		uxtb	r2, r3
 1549 00fe FB7D     		ldrb	r3, [r7, #23]
 1550 0100 D318     		adds	r3, r2, r3
 1551 0102 DAB2     		uxtb	r2, r3
 1552 0104 7B68     		ldr	r3, [r7, #4]
 1553 0106 D9B2     		uxtb	r1, r3
 1554 0108 3B6A     		ldr	r3, [r7, #32]
 1555 010a DBB2     		uxtb	r3, r3
 1556 010c CB18     		adds	r3, r1, r3
 1557 010e DBB2     		uxtb	r3, r3
 1558 0110 03F1FF33 		add	r3, r3, #-1
 1559 0114 DBB2     		uxtb	r3, r3
 1560 0116 F868     		ldr	r0, [r7, #12]
 1561 0118 1146     		mov	r1, r2
 1562 011a 1A46     		mov	r2, r3
 1563 011c FFF7FEFF 		bl	_ZN13CT6963CDriver8SetPixelEhh
 399:../GraphicLCD/CT6963CDriver.cpp **** 		for (i = 0; i < width; i++)	{
 1564              		.loc 1 399 0 discriminator 2
 1565 0120 FB7D     		ldrb	r3, [r7, #23]
 1566 0122 03F10103 		add	r3, r3, #1
 1567 0126 FB75     		strb	r3, [r7, #23]
 1568              	.L49:
 399:../GraphicLCD/CT6963CDriver.cpp **** 		for (i = 0; i < width; i++)	{
 1569              		.loc 1 399 0 is_stmt 0 discriminator 1
 1570 0128 FA7D     		ldrb	r2, [r7, #23]	@ zero_extendqisi2
 1571 012a 3B68     		ldr	r3, [r7, #0]
 1572 012c 9A42     		cmp	r2, r3
 1573 012e 2CBF     		ite	cs
 1574 0130 0023     		movcs	r3, #0
 1575 0132 0123     		movcc	r3, #1
 1576 0134 DBB2     		uxtb	r3, r3
 1577 0136 002B     		cmp	r3, #0
 1578 0138 D3D1     		bne	.L50
 1579              	.L40:
 1580              	.LBE10:
 402:../GraphicLCD/CT6963CDriver.cpp **** 		}
 403:../GraphicLCD/CT6963CDriver.cpp **** 	}
 404:../GraphicLCD/CT6963CDriver.cpp **** }
 1581              		.loc 1 404 0 is_stmt 1
 1582 013a 07F11807 		add	r7, r7, #24
 1583 013e BD46     		mov	sp, r7
 1584 0140 80BD     		pop	{r7, pc}
 1585              		.cfi_endproc
 1586              	.LFE18:
 1588 0142 00BF     		.section	.text._ZN13CT6963CDriver11SectorClearEjjjj,"ax",%progbits
 1589              		.align	2
 1590              		.global	_ZN13CT6963CDriver11SectorClearEjjjj
 1591              		.thumb
 1592              		.thumb_func
 1594              	_ZN13CT6963CDriver11SectorClearEjjjj:
 1595              	.LFB19:
 405:../GraphicLCD/CT6963CDriver.cpp **** 
 406:../GraphicLCD/CT6963CDriver.cpp **** /**
 407:../GraphicLCD/CT6963CDriver.cpp ****   * @brief  clear sector from upper left (x,y) with specified width and height
 408:../GraphicLCD/CT6963CDriver.cpp ****   * @param  x1,y1,width, height
 409:../GraphicLCD/CT6963CDriver.cpp ****   * @retval None
 410:../GraphicLCD/CT6963CDriver.cpp ****   */
 411:../GraphicLCD/CT6963CDriver.cpp **** void CT6963CDriver::SectorClear(unsigned int x,unsigned int y,unsigned int width,unsigned int heigh
 1596              		.loc 1 411 0
 1597              		.cfi_startproc
 1598              		@ args = 4, pretend = 0, frame = 24
 1599              		@ frame_needed = 1, uses_anonymous_args = 0
 1600 0000 90B5     		push	{r4, r7, lr}
 1601              	.LCFI46:
 1602              		.cfi_def_cfa_offset 12
 1603              		.cfi_offset 14, -4
 1604              		.cfi_offset 7, -8
 1605              		.cfi_offset 4, -12
 1606 0002 89B0     		sub	sp, sp, #36
 1607              	.LCFI47:
 1608              		.cfi_def_cfa_offset 48
 1609 0004 02AF     		add	r7, sp, #8
 1610              	.LCFI48:
 1611              		.cfi_def_cfa 7, 40
 1612 0006 F860     		str	r0, [r7, #12]
 1613 0008 B960     		str	r1, [r7, #8]
 1614 000a 7A60     		str	r2, [r7, #4]
 1615 000c 3B60     		str	r3, [r7, #0]
 1616              	.LBB11:
 412:../GraphicLCD/CT6963CDriver.cpp **** 	bool oldInverse;
 413:../GraphicLCD/CT6963CDriver.cpp **** 
 414:../GraphicLCD/CT6963CDriver.cpp **** 	oldInverse = Inverse();
 1617              		.loc 1 414 0
 1618 000e FB68     		ldr	r3, [r7, #12]
 1619 0010 1846     		mov	r0, r3
 1620 0012 FFF7FEFF 		bl	_ZN11CGraphicLCD7InverseEv
 1621 0016 0346     		mov	r3, r0
 1622 0018 FB75     		strb	r3, [r7, #23]
 415:../GraphicLCD/CT6963CDriver.cpp **** 	Inverse(!oldInverse);
 1623              		.loc 1 415 0
 1624 001a FA68     		ldr	r2, [r7, #12]
 1625 001c FB7D     		ldrb	r3, [r7, #23]
 1626 001e 83F00103 		eor	r3, r3, #1
 1627 0022 DBB2     		uxtb	r3, r3
 1628 0024 1046     		mov	r0, r2
 1629 0026 1946     		mov	r1, r3
 1630 0028 FFF7FEFF 		bl	_ZN11CGraphicLCD7InverseEb
 416:../GraphicLCD/CT6963CDriver.cpp **** 
 417:../GraphicLCD/CT6963CDriver.cpp **** 	Rectangle(x,y,width,height,true);
 1631              		.loc 1 417 0
 1632 002c FB68     		ldr	r3, [r7, #12]
 1633 002e 1B68     		ldr	r3, [r3, #0]
 1634 0030 03F10C03 		add	r3, r3, #12
 1635 0034 1C68     		ldr	r4, [r3, #0]
 1636 0036 BB6A     		ldr	r3, [r7, #40]
 1637 0038 0093     		str	r3, [sp, #0]
 1638 003a 4FF00103 		mov	r3, #1
 1639 003e 0193     		str	r3, [sp, #4]
 1640 0040 F868     		ldr	r0, [r7, #12]
 1641 0042 B968     		ldr	r1, [r7, #8]
 1642 0044 7A68     		ldr	r2, [r7, #4]
 1643 0046 3B68     		ldr	r3, [r7, #0]
 1644 0048 A047     		blx	r4
 418:../GraphicLCD/CT6963CDriver.cpp **** 
 419:../GraphicLCD/CT6963CDriver.cpp **** 	Inverse(oldInverse);
 1645              		.loc 1 419 0
 1646 004a FA68     		ldr	r2, [r7, #12]
 1647 004c FB7D     		ldrb	r3, [r7, #23]	@ zero_extendqisi2
 1648 004e 1046     		mov	r0, r2
 1649 0050 1946     		mov	r1, r3
 1650 0052 FFF7FEFF 		bl	_ZN11CGraphicLCD7InverseEb
 1651              	.LBE11:
 420:../GraphicLCD/CT6963CDriver.cpp **** }
 1652              		.loc 1 420 0
 1653 0056 07F11C07 		add	r7, r7, #28
 1654 005a BD46     		mov	sp, r7
 1655 005c 90BD     		pop	{r4, r7, pc}
 1656              		.cfi_endproc
 1657              	.LFE19:
 1659 005e 00BF     		.section	.text._ZN13CT6963CDriver6CircleEhhh,"ax",%progbits
 1660              		.align	2
 1661              		.global	_ZN13CT6963CDriver6CircleEhhh
 1662              		.thumb
 1663              		.thumb_func
 1665              	_ZN13CT6963CDriver6CircleEhhh:
 1666              	.LFB20:
 421:../GraphicLCD/CT6963CDriver.cpp **** 
 422:../GraphicLCD/CT6963CDriver.cpp **** /**
 423:../GraphicLCD/CT6963CDriver.cpp ****   * @brief  draw a circle with center at (cx,cy) and specified radius
 424:../GraphicLCD/CT6963CDriver.cpp ****   * @param  x1,y1,width,
 425:../GraphicLCD/CT6963CDriver.cpp ****   * @retval None
 426:../GraphicLCD/CT6963CDriver.cpp ****   */
 427:../GraphicLCD/CT6963CDriver.cpp **** void CT6963CDriver::Circle(unsigned char cx, unsigned char cy ,unsigned char radius)
 428:../GraphicLCD/CT6963CDriver.cpp **** {
 1667              		.loc 1 428 0
 1668              		.cfi_startproc
 1669              		@ args = 0, pretend = 0, frame = 32
 1670              		@ frame_needed = 1, uses_anonymous_args = 0
 1671 0000 80B5     		push	{r7, lr}
 1672              	.LCFI49:
 1673              		.cfi_def_cfa_offset 8
 1674              		.cfi_offset 14, -4
 1675              		.cfi_offset 7, -8
 1676 0002 88B0     		sub	sp, sp, #32
 1677              	.LCFI50:
 1678              		.cfi_def_cfa_offset 40
 1679 0004 00AF     		add	r7, sp, #0
 1680              	.LCFI51:
 1681              		.cfi_def_cfa_register 7
 1682 0006 7860     		str	r0, [r7, #4]
 1683 0008 F970     		strb	r1, [r7, #3]
 1684 000a BA70     		strb	r2, [r7, #2]
 1685 000c 7B70     		strb	r3, [r7, #1]
 1686              	.LBB12:
 429:../GraphicLCD/CT6963CDriver.cpp **** 	int x, y, xchange, ychange, radiusError;
 430:../GraphicLCD/CT6963CDriver.cpp **** 	x = radius;
 1687              		.loc 1 430 0
 1688 000e 7B78     		ldrb	r3, [r7, #1]	@ zero_extendqisi2
 1689 0010 FB61     		str	r3, [r7, #28]
 431:../GraphicLCD/CT6963CDriver.cpp **** 	y = 0;
 1690              		.loc 1 431 0
 1691 0012 4FF00003 		mov	r3, #0
 1692 0016 BB61     		str	r3, [r7, #24]
 432:../GraphicLCD/CT6963CDriver.cpp **** 	xchange = 1 - 2 * radius;
 1693              		.loc 1 432 0
 1694 0018 7A78     		ldrb	r2, [r7, #1]	@ zero_extendqisi2
 1695 001a 1346     		mov	r3, r2
 1696 001c 4FEAC373 		lsl	r3, r3, #31
 1697 0020 9B1A     		subs	r3, r3, r2
 1698 0022 4FEA4303 		lsl	r3, r3, #1
 1699 0026 03F10103 		add	r3, r3, #1
 1700 002a 7B61     		str	r3, [r7, #20]
 433:../GraphicLCD/CT6963CDriver.cpp **** 	ychange = 1;
 1701              		.loc 1 433 0
 1702 002c 4FF00103 		mov	r3, #1
 1703 0030 3B61     		str	r3, [r7, #16]
 434:../GraphicLCD/CT6963CDriver.cpp **** 	radiusError = 0;
 1704              		.loc 1 434 0
 1705 0032 4FF00003 		mov	r3, #0
 1706 0036 FB60     		str	r3, [r7, #12]
 435:../GraphicLCD/CT6963CDriver.cpp **** 	while(x >= y)
 1707              		.loc 1 435 0
 1708 0038 96E0     		b	.L53
 1709              	.L54:
 436:../GraphicLCD/CT6963CDriver.cpp **** 	{
 437:../GraphicLCD/CT6963CDriver.cpp **** 		SetPixel(cx+x, cy+y);
 1710              		.loc 1 437 0
 1711 003a FB69     		ldr	r3, [r7, #28]
 1712 003c DAB2     		uxtb	r2, r3
 1713 003e FB78     		ldrb	r3, [r7, #3]
 1714 0040 D318     		adds	r3, r2, r3
 1715 0042 DAB2     		uxtb	r2, r3
 1716 0044 BB69     		ldr	r3, [r7, #24]
 1717 0046 D9B2     		uxtb	r1, r3
 1718 0048 BB78     		ldrb	r3, [r7, #2]
 1719 004a CB18     		adds	r3, r1, r3
 1720 004c DBB2     		uxtb	r3, r3
 1721 004e 7868     		ldr	r0, [r7, #4]
 1722 0050 1146     		mov	r1, r2
 1723 0052 1A46     		mov	r2, r3
 1724 0054 FFF7FEFF 		bl	_ZN13CT6963CDriver8SetPixelEhh
 438:../GraphicLCD/CT6963CDriver.cpp **** 		SetPixel(cx-x, cy+y );
 1725              		.loc 1 438 0
 1726 0058 FB69     		ldr	r3, [r7, #28]
 1727 005a DBB2     		uxtb	r3, r3
 1728 005c FA78     		ldrb	r2, [r7, #3]
 1729 005e D31A     		subs	r3, r2, r3
 1730 0060 DAB2     		uxtb	r2, r3
 1731 0062 BB69     		ldr	r3, [r7, #24]
 1732 0064 D9B2     		uxtb	r1, r3
 1733 0066 BB78     		ldrb	r3, [r7, #2]
 1734 0068 CB18     		adds	r3, r1, r3
 1735 006a DBB2     		uxtb	r3, r3
 1736 006c 7868     		ldr	r0, [r7, #4]
 1737 006e 1146     		mov	r1, r2
 1738 0070 1A46     		mov	r2, r3
 1739 0072 FFF7FEFF 		bl	_ZN13CT6963CDriver8SetPixelEhh
 439:../GraphicLCD/CT6963CDriver.cpp **** 		SetPixel(cx-x, cy-y );
 1740              		.loc 1 439 0
 1741 0076 FB69     		ldr	r3, [r7, #28]
 1742 0078 DBB2     		uxtb	r3, r3
 1743 007a FA78     		ldrb	r2, [r7, #3]
 1744 007c D31A     		subs	r3, r2, r3
 1745 007e DAB2     		uxtb	r2, r3
 1746 0080 BB69     		ldr	r3, [r7, #24]
 1747 0082 DBB2     		uxtb	r3, r3
 1748 0084 B978     		ldrb	r1, [r7, #2]
 1749 0086 CB1A     		subs	r3, r1, r3
 1750 0088 DBB2     		uxtb	r3, r3
 1751 008a 7868     		ldr	r0, [r7, #4]
 1752 008c 1146     		mov	r1, r2
 1753 008e 1A46     		mov	r2, r3
 1754 0090 FFF7FEFF 		bl	_ZN13CT6963CDriver8SetPixelEhh
 440:../GraphicLCD/CT6963CDriver.cpp **** 		SetPixel(cx+x, cy-y );
 1755              		.loc 1 440 0
 1756 0094 FB69     		ldr	r3, [r7, #28]
 1757 0096 DAB2     		uxtb	r2, r3
 1758 0098 FB78     		ldrb	r3, [r7, #3]
 1759 009a D318     		adds	r3, r2, r3
 1760 009c DAB2     		uxtb	r2, r3
 1761 009e BB69     		ldr	r3, [r7, #24]
 1762 00a0 DBB2     		uxtb	r3, r3
 1763 00a2 B978     		ldrb	r1, [r7, #2]
 1764 00a4 CB1A     		subs	r3, r1, r3
 1765 00a6 DBB2     		uxtb	r3, r3
 1766 00a8 7868     		ldr	r0, [r7, #4]
 1767 00aa 1146     		mov	r1, r2
 1768 00ac 1A46     		mov	r2, r3
 1769 00ae FFF7FEFF 		bl	_ZN13CT6963CDriver8SetPixelEhh
 441:../GraphicLCD/CT6963CDriver.cpp **** 		SetPixel(cx+y, cy+x );
 1770              		.loc 1 441 0
 1771 00b2 BB69     		ldr	r3, [r7, #24]
 1772 00b4 DAB2     		uxtb	r2, r3
 1773 00b6 FB78     		ldrb	r3, [r7, #3]
 1774 00b8 D318     		adds	r3, r2, r3
 1775 00ba DAB2     		uxtb	r2, r3
 1776 00bc FB69     		ldr	r3, [r7, #28]
 1777 00be D9B2     		uxtb	r1, r3
 1778 00c0 BB78     		ldrb	r3, [r7, #2]
 1779 00c2 CB18     		adds	r3, r1, r3
 1780 00c4 DBB2     		uxtb	r3, r3
 1781 00c6 7868     		ldr	r0, [r7, #4]
 1782 00c8 1146     		mov	r1, r2
 1783 00ca 1A46     		mov	r2, r3
 1784 00cc FFF7FEFF 		bl	_ZN13CT6963CDriver8SetPixelEhh
 442:../GraphicLCD/CT6963CDriver.cpp **** 		SetPixel(cx-y, cy+x );
 1785              		.loc 1 442 0
 1786 00d0 BB69     		ldr	r3, [r7, #24]
 1787 00d2 DBB2     		uxtb	r3, r3
 1788 00d4 FA78     		ldrb	r2, [r7, #3]
 1789 00d6 D31A     		subs	r3, r2, r3
 1790 00d8 DAB2     		uxtb	r2, r3
 1791 00da FB69     		ldr	r3, [r7, #28]
 1792 00dc D9B2     		uxtb	r1, r3
 1793 00de BB78     		ldrb	r3, [r7, #2]
 1794 00e0 CB18     		adds	r3, r1, r3
 1795 00e2 DBB2     		uxtb	r3, r3
 1796 00e4 7868     		ldr	r0, [r7, #4]
 1797 00e6 1146     		mov	r1, r2
 1798 00e8 1A46     		mov	r2, r3
 1799 00ea FFF7FEFF 		bl	_ZN13CT6963CDriver8SetPixelEhh
 443:../GraphicLCD/CT6963CDriver.cpp **** 		SetPixel(cx-y, cy-x );
 1800              		.loc 1 443 0
 1801 00ee BB69     		ldr	r3, [r7, #24]
 1802 00f0 DBB2     		uxtb	r3, r3
 1803 00f2 FA78     		ldrb	r2, [r7, #3]
 1804 00f4 D31A     		subs	r3, r2, r3
 1805 00f6 DAB2     		uxtb	r2, r3
 1806 00f8 FB69     		ldr	r3, [r7, #28]
 1807 00fa DBB2     		uxtb	r3, r3
 1808 00fc B978     		ldrb	r1, [r7, #2]
 1809 00fe CB1A     		subs	r3, r1, r3
 1810 0100 DBB2     		uxtb	r3, r3
 1811 0102 7868     		ldr	r0, [r7, #4]
 1812 0104 1146     		mov	r1, r2
 1813 0106 1A46     		mov	r2, r3
 1814 0108 FFF7FEFF 		bl	_ZN13CT6963CDriver8SetPixelEhh
 444:../GraphicLCD/CT6963CDriver.cpp **** 		SetPixel(cx+y, cy-x );
 1815              		.loc 1 444 0
 1816 010c BB69     		ldr	r3, [r7, #24]
 1817 010e DAB2     		uxtb	r2, r3
 1818 0110 FB78     		ldrb	r3, [r7, #3]
 1819 0112 D318     		adds	r3, r2, r3
 1820 0114 DAB2     		uxtb	r2, r3
 1821 0116 FB69     		ldr	r3, [r7, #28]
 1822 0118 DBB2     		uxtb	r3, r3
 1823 011a B978     		ldrb	r1, [r7, #2]
 1824 011c CB1A     		subs	r3, r1, r3
 1825 011e DBB2     		uxtb	r3, r3
 1826 0120 7868     		ldr	r0, [r7, #4]
 1827 0122 1146     		mov	r1, r2
 1828 0124 1A46     		mov	r2, r3
 1829 0126 FFF7FEFF 		bl	_ZN13CT6963CDriver8SetPixelEhh
 445:../GraphicLCD/CT6963CDriver.cpp **** 		y++;
 1830              		.loc 1 445 0
 1831 012a BB69     		ldr	r3, [r7, #24]
 1832 012c 03F10103 		add	r3, r3, #1
 1833 0130 BB61     		str	r3, [r7, #24]
 446:../GraphicLCD/CT6963CDriver.cpp **** 		radiusError += ychange;
 1834              		.loc 1 446 0
 1835 0132 FA68     		ldr	r2, [r7, #12]
 1836 0134 3B69     		ldr	r3, [r7, #16]
 1837 0136 D318     		adds	r3, r2, r3
 1838 0138 FB60     		str	r3, [r7, #12]
 447:../GraphicLCD/CT6963CDriver.cpp **** 		ychange += 2;
 1839              		.loc 1 447 0
 1840 013a 3B69     		ldr	r3, [r7, #16]
 1841 013c 03F10203 		add	r3, r3, #2
 1842 0140 3B61     		str	r3, [r7, #16]
 448:../GraphicLCD/CT6963CDriver.cpp **** 		if ( 2*radiusError + xchange > 0 )
 1843              		.loc 1 448 0
 1844 0142 FB68     		ldr	r3, [r7, #12]
 1845 0144 4FEA4302 		lsl	r2, r3, #1
 1846 0148 7B69     		ldr	r3, [r7, #20]
 1847 014a D318     		adds	r3, r2, r3
 1848 014c 002B     		cmp	r3, #0
 1849 014e 0BDD     		ble	.L53
 449:../GraphicLCD/CT6963CDriver.cpp **** 		{
 450:../GraphicLCD/CT6963CDriver.cpp **** 			x--;
 1850              		.loc 1 450 0
 1851 0150 FB69     		ldr	r3, [r7, #28]
 1852 0152 03F1FF33 		add	r3, r3, #-1
 1853 0156 FB61     		str	r3, [r7, #28]
 451:../GraphicLCD/CT6963CDriver.cpp **** 			radiusError += xchange;
 1854              		.loc 1 451 0
 1855 0158 FA68     		ldr	r2, [r7, #12]
 1856 015a 7B69     		ldr	r3, [r7, #20]
 1857 015c D318     		adds	r3, r2, r3
 1858 015e FB60     		str	r3, [r7, #12]
 452:../GraphicLCD/CT6963CDriver.cpp **** 			xchange += 2;
 1859              		.loc 1 452 0
 1860 0160 7B69     		ldr	r3, [r7, #20]
 1861 0162 03F10203 		add	r3, r3, #2
 1862 0166 7B61     		str	r3, [r7, #20]
 1863              	.L53:
 435:../GraphicLCD/CT6963CDriver.cpp **** 	while(x >= y)
 1864              		.loc 1 435 0 discriminator 1
 1865 0168 FA69     		ldr	r2, [r7, #28]
 1866 016a BB69     		ldr	r3, [r7, #24]
 1867 016c 9A42     		cmp	r2, r3
 1868 016e B4BF     		ite	lt
 1869 0170 0023     		movlt	r3, #0
 1870 0172 0123     		movge	r3, #1
 1871 0174 DBB2     		uxtb	r3, r3
 1872 0176 002B     		cmp	r3, #0
 1873 0178 7FF45FAF 		bne	.L54
 1874              	.LBE12:
 453:../GraphicLCD/CT6963CDriver.cpp **** 		}
 454:../GraphicLCD/CT6963CDriver.cpp **** 	}
 455:../GraphicLCD/CT6963CDriver.cpp **** }
 1875              		.loc 1 455 0
 1876 017c 07F12007 		add	r7, r7, #32
 1877 0180 BD46     		mov	sp, r7
 1878 0182 80BD     		pop	{r7, pc}
 1879              		.cfi_endproc
 1880              	.LFE20:
 1882              		.section	.text._ZN13CT6963CDriver6BitmapEPhhhhh,"ax",%progbits
 1883              		.align	2
 1884              		.global	_ZN13CT6963CDriver6BitmapEPhhhhh
 1885              		.thumb
 1886              		.thumb_func
 1888              	_ZN13CT6963CDriver6BitmapEPhhhhh:
 1889              	.LFB21:
 456:../GraphicLCD/CT6963CDriver.cpp **** 
 457:../GraphicLCD/CT6963CDriver.cpp **** /**
 458:../GraphicLCD/CT6963CDriver.cpp ****   * @brief  writes a bitmap to graphics ram
 459:../GraphicLCD/CT6963CDriver.cpp ****   * @param  coordinates, width and heigth
 460:../GraphicLCD/CT6963CDriver.cpp ****   * @retval None
 461:../GraphicLCD/CT6963CDriver.cpp ****   */
 462:../GraphicLCD/CT6963CDriver.cpp **** void CT6963CDriver::Bitmap(unsigned char * bitmap, unsigned char x, unsigned char y, unsigned char 
 463:../GraphicLCD/CT6963CDriver.cpp **** {
 1890              		.loc 1 463 0
 1891              		.cfi_startproc
 1892              		@ args = 8, pretend = 0, frame = 24
 1893              		@ frame_needed = 1, uses_anonymous_args = 0
 1894 0000 80B5     		push	{r7, lr}
 1895              	.LCFI52:
 1896              		.cfi_def_cfa_offset 8
 1897              		.cfi_offset 14, -4
 1898              		.cfi_offset 7, -8
 1899 0002 86B0     		sub	sp, sp, #24
 1900              	.LCFI53:
 1901              		.cfi_def_cfa_offset 32
 1902 0004 00AF     		add	r7, sp, #0
 1903              	.LCFI54:
 1904              		.cfi_def_cfa_register 7
 1905 0006 F860     		str	r0, [r7, #12]
 1906 0008 B960     		str	r1, [r7, #8]
 1907 000a FA71     		strb	r2, [r7, #7]
 1908 000c BB71     		strb	r3, [r7, #6]
 1909              	.LBB13:
 464:../GraphicLCD/CT6963CDriver.cpp **** 	unsigned char i, j;
 465:../GraphicLCD/CT6963CDriver.cpp **** 
 466:../GraphicLCD/CT6963CDriver.cpp **** 	for(j = 0; j < height; j++)
 1910              		.loc 1 466 0
 1911 000e 4FF00003 		mov	r3, #0
 1912 0012 BB75     		strb	r3, [r7, #22]
 1913 0014 4FE0     		b	.L56
 1914              	.L61:
 467:../GraphicLCD/CT6963CDriver.cpp **** 	{
 468:../GraphicLCD/CT6963CDriver.cpp **** 		GraphicGoTo(x, y + j);
 1915              		.loc 1 468 0
 1916 0016 BA79     		ldrb	r2, [r7, #6]
 1917 0018 BB7D     		ldrb	r3, [r7, #22]
 1918 001a D318     		adds	r3, r2, r3
 1919 001c DBB2     		uxtb	r3, r3
 1920 001e FA79     		ldrb	r2, [r7, #7]	@ zero_extendqisi2
 1921 0020 F868     		ldr	r0, [r7, #12]
 1922 0022 1146     		mov	r1, r2
 1923 0024 1A46     		mov	r2, r3
 1924 0026 FFF7FEFF 		bl	_ZN13CT6963CDriver11GraphicGoToEhh
 469:../GraphicLCD/CT6963CDriver.cpp **** 		for(i = 0; i < width/GLCD_FONT_WIDTH; i++)
 1925              		.loc 1 469 0
 1926 002a 4FF00003 		mov	r3, #0
 1927 002e FB75     		strb	r3, [r7, #23]
 1928 0030 30E0     		b	.L57
 1929              	.L60:
 470:../GraphicLCD/CT6963CDriver.cpp **** 		{
 471:../GraphicLCD/CT6963CDriver.cpp **** 			if(Inverse()){
 1930              		.loc 1 471 0
 1931 0032 FB68     		ldr	r3, [r7, #12]
 1932 0034 1846     		mov	r0, r3
 1933 0036 FFF7FEFF 		bl	_ZN11CGraphicLCD7InverseEv
 1934 003a 0346     		mov	r3, r0
 1935 003c 002B     		cmp	r3, #0
 1936 003e 15D0     		beq	.L58
 472:../GraphicLCD/CT6963CDriver.cpp **** 				WriteDisplayData(!bitmap[i + (GLCD_GRAPHIC_AREA * j)]);
 1937              		.loc 1 472 0
 1938 0040 F97D     		ldrb	r1, [r7, #23]	@ zero_extendqisi2
 1939 0042 BA7D     		ldrb	r2, [r7, #22]	@ zero_extendqisi2
 1940 0044 1346     		mov	r3, r2
 1941 0046 4FEA0313 		lsl	r3, r3, #4
 1942 004a 9B1A     		subs	r3, r3, r2
 1943 004c 4FEA4303 		lsl	r3, r3, #1
 1944 0050 CB18     		adds	r3, r1, r3
 1945 0052 BA68     		ldr	r2, [r7, #8]
 1946 0054 D318     		adds	r3, r2, r3
 1947 0056 1B78     		ldrb	r3, [r3, #0]	@ zero_extendqisi2
 1948 0058 002B     		cmp	r3, #0
 1949 005a 14BF     		ite	ne
 1950 005c 0023     		movne	r3, #0
 1951 005e 0123     		moveq	r3, #1
 1952 0060 DBB2     		uxtb	r3, r3
 1953 0062 F868     		ldr	r0, [r7, #12]
 1954 0064 1946     		mov	r1, r3
 1955 0066 FFF7FEFF 		bl	_ZN13CT6963CDriver16WriteDisplayDataEh
 1956 006a 0FE0     		b	.L59
 1957              	.L58:
 473:../GraphicLCD/CT6963CDriver.cpp **** 			} else {
 474:../GraphicLCD/CT6963CDriver.cpp **** 				WriteDisplayData(bitmap[i + (GLCD_GRAPHIC_AREA * j)]);
 1958              		.loc 1 474 0
 1959 006c F97D     		ldrb	r1, [r7, #23]	@ zero_extendqisi2
 1960 006e BA7D     		ldrb	r2, [r7, #22]	@ zero_extendqisi2
 1961 0070 1346     		mov	r3, r2
 1962 0072 4FEA0313 		lsl	r3, r3, #4
 1963 0076 9B1A     		subs	r3, r3, r2
 1964 0078 4FEA4303 		lsl	r3, r3, #1
 1965 007c CB18     		adds	r3, r1, r3
 1966 007e BA68     		ldr	r2, [r7, #8]
 1967 0080 D318     		adds	r3, r2, r3
 1968 0082 1B78     		ldrb	r3, [r3, #0]	@ zero_extendqisi2
 1969 0084 F868     		ldr	r0, [r7, #12]
 1970 0086 1946     		mov	r1, r3
 1971 0088 FFF7FEFF 		bl	_ZN13CT6963CDriver16WriteDisplayDataEh
 1972              	.L59:
 469:../GraphicLCD/CT6963CDriver.cpp **** 		for(i = 0; i < width/GLCD_FONT_WIDTH; i++)
 1973              		.loc 1 469 0
 1974 008c FB7D     		ldrb	r3, [r7, #23]
 1975 008e 03F10103 		add	r3, r3, #1
 1976 0092 FB75     		strb	r3, [r7, #23]
 1977              	.L57:
 469:../GraphicLCD/CT6963CDriver.cpp **** 		for(i = 0; i < width/GLCD_FONT_WIDTH; i++)
 1978              		.loc 1 469 0 is_stmt 0 discriminator 1
 1979 0094 97F82030 		ldrb	r3, [r7, #32]	@ zero_extendqisi2
 1980 0098 4FEAD303 		lsr	r3, r3, #3
 1981 009c DBB2     		uxtb	r3, r3
 1982 009e FA7D     		ldrb	r2, [r7, #23]	@ zero_extendqisi2
 1983 00a0 9A42     		cmp	r2, r3
 1984 00a2 2CBF     		ite	cs
 1985 00a4 0023     		movcs	r3, #0
 1986 00a6 0123     		movcc	r3, #1
 1987 00a8 DBB2     		uxtb	r3, r3
 1988 00aa 002B     		cmp	r3, #0
 1989 00ac C1D1     		bne	.L60
 466:../GraphicLCD/CT6963CDriver.cpp **** 	for(j = 0; j < height; j++)
 1990              		.loc 1 466 0 is_stmt 1
 1991 00ae BB7D     		ldrb	r3, [r7, #22]
 1992 00b0 03F10103 		add	r3, r3, #1
 1993 00b4 BB75     		strb	r3, [r7, #22]
 1994              	.L56:
 466:../GraphicLCD/CT6963CDriver.cpp **** 	for(j = 0; j < height; j++)
 1995              		.loc 1 466 0 is_stmt 0 discriminator 1
 1996 00b6 BA7D     		ldrb	r2, [r7, #22]	@ zero_extendqisi2
 1997 00b8 97F82430 		ldrb	r3, [r7, #36]	@ zero_extendqisi2
 1998 00bc 9A42     		cmp	r2, r3
 1999 00be 2CBF     		ite	cs
 2000 00c0 0023     		movcs	r3, #0
 2001 00c2 0123     		movcc	r3, #1
 2002 00c4 DBB2     		uxtb	r3, r3
 2003 00c6 002B     		cmp	r3, #0
 2004 00c8 A5D1     		bne	.L61
 2005              	.LBE13:
 475:../GraphicLCD/CT6963CDriver.cpp **** 			}
 476:../GraphicLCD/CT6963CDriver.cpp **** 		}
 477:../GraphicLCD/CT6963CDriver.cpp **** 	}
 478:../GraphicLCD/CT6963CDriver.cpp **** }
 2006              		.loc 1 478 0 is_stmt 1
 2007 00ca 07F11807 		add	r7, r7, #24
 2008 00ce BD46     		mov	sp, r7
 2009 00d0 80BD     		pop	{r7, pc}
 2010              		.cfi_endproc
 2011              	.LFE21:
 2013              		.global	_ZTV13CT6963CDriver
 2014 00d2 00BF     		.section	.rodata._ZTV13CT6963CDriver,"a",%progbits
 2015              		.align	3
 2018              	_ZTV13CT6963CDriver:
 2019 0000 00000000 		.word	0
 2020 0004 00000000 		.word	0
 2021 0008 00000000 		.word	_ZN13CT6963CDriver5ClearEv
 2022 000c 00000000 		.word	_ZN13CT6963CDriver4LineEjjjj
 2023 0010 00000000 		.word	_ZN13CT6963CDriver6WindowEjjjj
 2024 0014 00000000 		.word	_ZN13CT6963CDriver9RectangleEjjjjb
 2025 0018 00000000 		.word	_ZN13CT6963CDriver11SectorClearEjjjj
 2026 001c 00000000 		.word	_ZN13CT6963CDriver6CircleEhhh
 2027 0020 00000000 		.word	_ZN13CT6963CDriver11WriteStringEPKc5tFontjj
 2028 0024 00000000 		.word	_ZN13CT6963CDriver6BitmapEPhhhhh
 2029 0028 00000000 		.word	_ZN13CT6963CDriver4InitEv
 2030 002c 00000000 		.word	_ZN13CT6963CDriverD1Ev
 2031 0030 00000000 		.word	_ZN13CT6963CDriverD0Ev
 2032 0034 00000000 		.word	__cxa_pure_virtual
 2033 0038 00000000 		.word	__cxa_pure_virtual
 2034 003c 00000000 		.word	__cxa_pure_virtual
 2035 0040 00000000 		.word	__cxa_pure_virtual
 2036 0044 00000000 		.word	__cxa_pure_virtual
 2037              		.section	.rodata._ZL12c_FontNative,"a",%progbits
 2038              		.align	2
 2041              	_ZL12c_FontNative:
 2042 0000 00000000 		.space	24
 2042      00000000 
 2042      00000000 
 2042      00000000 
 2042      00000000 
 2043              		.section	.rodata._ZL20GLCD_NUMBER_OF_LINES,"a",%progbits
 2046              	_ZL20GLCD_NUMBER_OF_LINES:
 2047 0000 80       		.byte	-128
 2048              		.section	.rodata._ZL20GLCD_PIXELS_PER_LINE,"a",%progbits
 2051              	_ZL20GLCD_PIXELS_PER_LINE:
 2052 0000 F0       		.byte	-16
 2053              		.section	.rodata._ZL15GLCD_FONT_WIDTH,"a",%progbits
 2056              	_ZL15GLCD_FONT_WIDTH:
 2057 0000 08       		.byte	8
 2058              		.section	.rodata._ZL17GLCD_GRAPHIC_AREA,"a",%progbits
 2061              	_ZL17GLCD_GRAPHIC_AREA:
 2062 0000 1E       		.byte	30
 2063              		.section	.rodata._ZL14GLCD_TEXT_AREA,"a",%progbits
 2066              	_ZL14GLCD_TEXT_AREA:
 2067 0000 1E       		.byte	30
 2068              		.section	.rodata._ZL17GLCD_GRAPHIC_SIZE,"a",%progbits
 2069              		.align	2
 2072              	_ZL17GLCD_GRAPHIC_SIZE:
 2073 0000 000F0000 		.word	3840
 2074              		.section	.rodata._ZL14GLCD_TEXT_SIZE,"a",%progbits
 2075              		.align	2
 2078              	_ZL14GLCD_TEXT_SIZE:
 2079 0000 E0010000 		.word	480
 2080              		.section	.rodata._ZL14GLCD_TEXT_HOME,"a",%progbits
 2081              		.align	2
 2084              	_ZL14GLCD_TEXT_HOME:
 2085 0000 00000000 		.space	4
 2086              		.section	.rodata._ZL17GLCD_GRAPHIC_HOME,"a",%progbits
 2087              		.align	2
 2090              	_ZL17GLCD_GRAPHIC_HOME:
 2091 0000 E0010000 		.word	480
 2092              		.section	.rodata._ZL20GLCD_OFFSET_REGISTER,"a",%progbits
 2095              	_ZL20GLCD_OFFSET_REGISTER:
 2096 0000 02       		.byte	2
 2097              		.section	.rodata._ZL21GLCD_EXTERNAL_CG_HOME,"a",%progbits
 2098              		.align	2
 2101              	_ZL21GLCD_EXTERNAL_CG_HOME:
 2102 0000 00100000 		.word	4096
 2103              		.section	.rodata._ZL24T6963_SET_CURSOR_POINTER,"a",%progbits
 2106              	_ZL24T6963_SET_CURSOR_POINTER:
 2107 0000 21       		.byte	33
 2108              		.section	.rodata._ZL25T6963_SET_OFFSET_REGISTER,"a",%progbits
 2111              	_ZL25T6963_SET_OFFSET_REGISTER:
 2112 0000 22       		.byte	34
 2113              		.section	.rodata._ZL25T6963_SET_ADDRESS_POINTER,"a",%progbits
 2116              	_ZL25T6963_SET_ADDRESS_POINTER:
 2117 0000 24       		.byte	36
 2118              		.section	.rodata._ZL27T6963_SET_TEXT_HOME_ADDRESS,"a",%progbits
 2121              	_ZL27T6963_SET_TEXT_HOME_ADDRESS:
 2122 0000 40       		.byte	64
 2123              		.section	.rodata._ZL19T6963_SET_TEXT_AREA,"a",%progbits
 2126              	_ZL19T6963_SET_TEXT_AREA:
 2127 0000 41       		.byte	65
 2128              		.section	.rodata._ZL30T6963_SET_GRAPHIC_HOME_ADDRESS,"a",%progbits
 2131              	_ZL30T6963_SET_GRAPHIC_HOME_ADDRESS:
 2132 0000 42       		.byte	66
 2133              		.section	.rodata._ZL22T6963_SET_GRAPHIC_AREA,"a",%progbits
 2136              	_ZL22T6963_SET_GRAPHIC_AREA:
 2137 0000 43       		.byte	67
 2138              		.section	.rodata._ZL14T6963_MODE_SET,"a",%progbits
 2141              	_ZL14T6963_MODE_SET:
 2142 0000 80       		.byte	-128
 2143              		.section	.rodata._ZL18T6963_DISPLAY_MODE,"a",%progbits
 2146              	_ZL18T6963_DISPLAY_MODE:
 2147 0000 90       		.byte	-112
 2148              		.section	.rodata._ZL21T6963_CURSOR_BLINK_ON,"a",%progbits
 2151              	_ZL21T6963_CURSOR_BLINK_ON:
 2152 0000 01       		.byte	1
 2153              		.section	.rodata._ZL23T6963_CURSOR_DISPLAY_ON,"a",%progbits
 2156              	_ZL23T6963_CURSOR_DISPLAY_ON:
 2157 0000 02       		.byte	2
 2158              		.section	.rodata._ZL21T6963_TEXT_DISPLAY_ON,"a",%progbits
 2161              	_ZL21T6963_TEXT_DISPLAY_ON:
 2162 0000 04       		.byte	4
 2163              		.section	.rodata._ZL24T6963_GRAPHIC_DISPLAY_ON,"a",%progbits
 2166              	_ZL24T6963_GRAPHIC_DISPLAY_ON:
 2167 0000 08       		.byte	8
 2168              		.section	.rodata._ZL27T6963_CURSOR_PATTERN_SELECT,"a",%progbits
 2171              	_ZL27T6963_CURSOR_PATTERN_SELECT:
 2172 0000 A0       		.byte	-96
 2173              		.section	.rodata._ZL19T6963_CURSOR_1_LINE,"a",%progbits
 2176              	_ZL19T6963_CURSOR_1_LINE:
 2177 0000 00       		.space	1
 2178              		.section	.rodata._ZL19T6963_CURSOR_2_LINE,"a",%progbits
 2181              	_ZL19T6963_CURSOR_2_LINE:
 2182 0000 01       		.byte	1
 2183              		.section	.rodata._ZL19T6963_CURSOR_3_LINE,"a",%progbits
 2186              	_ZL19T6963_CURSOR_3_LINE:
 2187 0000 02       		.byte	2
 2188              		.section	.rodata._ZL19T6963_CURSOR_4_LINE,"a",%progbits
 2191              	_ZL19T6963_CURSOR_4_LINE:
 2192 0000 03       		.byte	3
 2193              		.section	.rodata._ZL19T6963_CURSOR_5_LINE,"a",%progbits
 2196              	_ZL19T6963_CURSOR_5_LINE:
 2197 0000 04       		.byte	4
 2198              		.section	.rodata._ZL19T6963_CURSOR_6_LINE,"a",%progbits
 2201              	_ZL19T6963_CURSOR_6_LINE:
 2202 0000 05       		.byte	5
 2203              		.section	.rodata._ZL19T6963_CURSOR_7_LINE,"a",%progbits
 2206              	_ZL19T6963_CURSOR_7_LINE:
 2207 0000 06       		.byte	6
 2208              		.section	.rodata._ZL19T6963_CURSOR_8_LINE,"a",%progbits
 2211              	_ZL19T6963_CURSOR_8_LINE:
 2212 0000 07       		.byte	7
 2213              		.section	.rodata._ZL25T6963_SET_DATA_AUTO_WRITE,"a",%progbits
 2216              	_ZL25T6963_SET_DATA_AUTO_WRITE:
 2217 0000 B0       		.byte	-80
 2218              		.section	.rodata._ZL24T6963_SET_DATA_AUTO_READ,"a",%progbits
 2221              	_ZL24T6963_SET_DATA_AUTO_READ:
 2222 0000 B1       		.byte	-79
 2223              		.section	.rodata._ZL16T6963_AUTO_RESET,"a",%progbits
 2226              	_ZL16T6963_AUTO_RESET:
 2227 0000 B2       		.byte	-78
 2228              		.section	.rodata._ZL30T6963_DATA_WRITE_AND_INCREMENT,"a",%progbits
 2231              	_ZL30T6963_DATA_WRITE_AND_INCREMENT:
 2232 0000 C0       		.byte	-64
 2233              		.section	.rodata._ZL29T6963_DATA_READ_AND_INCREMENT,"a",%progbits
 2236              	_ZL29T6963_DATA_READ_AND_INCREMENT:
 2237 0000 C1       		.byte	-63
 2238              		.section	.rodata._ZL30T6963_DATA_WRITE_AND_DECREMENT,"a",%progbits
 2241              	_ZL30T6963_DATA_WRITE_AND_DECREMENT:
 2242 0000 C2       		.byte	-62
 2243              		.section	.rodata._ZL29T6963_DATA_READ_AND_DECREMENT,"a",%progbits
 2246              	_ZL29T6963_DATA_READ_AND_DECREMENT:
 2247 0000 C3       		.byte	-61
 2248              		.section	.rodata._ZL32T6963_DATA_WRITE_AND_NONVARIALBE,"a",%progbits
 2251              	_ZL32T6963_DATA_WRITE_AND_NONVARIALBE:
 2252 0000 C4       		.byte	-60
 2253              		.section	.rodata._ZL31T6963_DATA_READ_AND_NONVARIABLE,"a",%progbits
 2256              	_ZL31T6963_DATA_READ_AND_NONVARIABLE:
 2257 0000 C5       		.byte	-59
 2258              		.section	.rodata._ZL17T6963_SCREEN_PEEK,"a",%progbits
 2261              	_ZL17T6963_SCREEN_PEEK:
 2262 0000 E0       		.byte	-32
 2263              		.section	.rodata._ZL17T6963_SCREEN_COPY,"a",%progbits
 2266              	_ZL17T6963_SCREEN_COPY:
 2267 0000 E8       		.byte	-24
 2268              		.section	.rodata._ZL13T6963_BIT_SET,"a",%progbits
 2271              	_ZL13T6963_BIT_SET:
 2272 0000 F8       		.byte	-8
 2273              		.section	.rodata._ZL15T6963_BIT_RESET,"a",%progbits
 2276              	_ZL15T6963_BIT_RESET:
 2277 0000 F0       		.byte	-16
 2278              		.global	_ZN13CT6963CDriverC1Ev
 2279              		.thumb_set _ZN13CT6963CDriverC1Ev,_ZN13CT6963CDriverC2Ev
 2280              		.global	_ZN13CT6963CDriverD1Ev
 2281              		.thumb_set _ZN13CT6963CDriverD1Ev,_ZN13CT6963CDriverD2Ev
 2282              		.text
 2283              	.Letext0:
 2284              		.file 2 "../GraphicLCD/CGraphicLCD.h"
 2285              		.file 3 "../GraphicLCD/CT6963CDriver.h"