   1              		.syntax unified
   2              		.cpu cortex-m4
   3              		.eabi_attribute 27, 3
   4              		.fpu fpv4-sp-d16
   5              		.eabi_attribute 20, 1
   6              		.eabi_attribute 21, 1
   7              		.eabi_attribute 23, 3
   8              		.eabi_attribute 24, 1
   9              		.eabi_attribute 25, 1
  10              		.eabi_attribute 26, 1
  11              		.eabi_attribute 30, 6
  12              		.eabi_attribute 18, 4
  13              		.thumb
  14              		.file	"CT6963CDriver.cpp"
  15              		.text
  16              	.Ltext0:
  17              		.cfi_sections	.debug_frame
  18              		.align	2
  19              		.global	_ZN13CT6963CDriverC2Ev
  20              		.thumb
  21              		.thumb_func
  23              	_ZN13CT6963CDriverC2Ev:
  24              	.LFB1:
  25              		.file 1 "../GraphicLCD/CT6963CDriver.cpp"
   1:../GraphicLCD/CT6963CDriver.cpp **** /**
   2:../GraphicLCD/CT6963CDriver.cpp ****   ******************************************************************************
   3:../GraphicLCD/CT6963CDriver.cpp ****   * @file      	CT6963CDriver.cpp
   4:../GraphicLCD/CT6963CDriver.cpp ****   * @author    	Tecnologic86
   5:../GraphicLCD/CT6963CDriver.cpp ****   * @version   	V0.0.0
   6:../GraphicLCD/CT6963CDriver.cpp ****   * @date      	17.02.12
   7:../GraphicLCD/CT6963CDriver.cpp ****   * @brief		implementation of T6963C Driver
   8:../GraphicLCD/CT6963CDriver.cpp ****   ******************************************************************************
   9:../GraphicLCD/CT6963CDriver.cpp ****   */
  10:../GraphicLCD/CT6963CDriver.cpp **** 
  11:../GraphicLCD/CT6963CDriver.cpp **** /* Includes ------------------------------------------------------------------*/
  12:../GraphicLCD/CT6963CDriver.cpp **** #include "CT6963CDriver.h"
  13:../GraphicLCD/CT6963CDriver.cpp **** /* Private typedef -----------------------------------------------------------*/
  14:../GraphicLCD/CT6963CDriver.cpp **** /* Private constants ---------------------------------------------------------*/
  15:../GraphicLCD/CT6963CDriver.cpp **** const unsigned char GLCD_NUMBER_OF_LINES = 128;
  16:../GraphicLCD/CT6963CDriver.cpp **** const unsigned char GLCD_PIXELS_PER_LINE = 240;
  17:../GraphicLCD/CT6963CDriver.cpp **** const unsigned char GLCD_FONT_WIDTH	= 8;
  18:../GraphicLCD/CT6963CDriver.cpp **** 
  19:../GraphicLCD/CT6963CDriver.cpp **** const unsigned char GLCD_GRAPHIC_AREA	=				(GLCD_PIXELS_PER_LINE / GLCD_FONT_WIDTH);
  20:../GraphicLCD/CT6963CDriver.cpp **** const unsigned char GLCD_TEXT_AREA		=				(GLCD_PIXELS_PER_LINE / GLCD_FONT_WIDTH);
  21:../GraphicLCD/CT6963CDriver.cpp **** const unsigned int GLCD_GRAPHIC_SIZE	=				(GLCD_GRAPHIC_AREA * GLCD_NUMBER_OF_LINES);
  22:../GraphicLCD/CT6963CDriver.cpp **** const unsigned int GLCD_TEXT_SIZE		=				(GLCD_TEXT_AREA * (GLCD_NUMBER_OF_LINES/8));
  23:../GraphicLCD/CT6963CDriver.cpp **** 
  24:../GraphicLCD/CT6963CDriver.cpp **** const unsigned int GLCD_TEXT_HOME			=			0;
  25:../GraphicLCD/CT6963CDriver.cpp **** const unsigned int GLCD_GRAPHIC_HOME		=			(GLCD_TEXT_HOME + GLCD_TEXT_SIZE);
  26:../GraphicLCD/CT6963CDriver.cpp **** const unsigned char GLCD_OFFSET_REGISTER	=			2;
  27:../GraphicLCD/CT6963CDriver.cpp **** const unsigned int  GLCD_EXTERNAL_CG_HOME	=			(GLCD_OFFSET_REGISTER << 11);
  28:../GraphicLCD/CT6963CDriver.cpp **** 
  29:../GraphicLCD/CT6963CDriver.cpp **** 
  30:../GraphicLCD/CT6963CDriver.cpp **** const unsigned char T6963_SET_CURSOR_POINTER	=		0x21;
  31:../GraphicLCD/CT6963CDriver.cpp **** const unsigned char T6963_SET_OFFSET_REGISTER	=		0x22;
  32:../GraphicLCD/CT6963CDriver.cpp **** const unsigned char T6963_SET_ADDRESS_POINTER	=		0x24;
  33:../GraphicLCD/CT6963CDriver.cpp **** 
  34:../GraphicLCD/CT6963CDriver.cpp **** const unsigned char T6963_SET_TEXT_HOME_ADDRESS		=	0x40;
  35:../GraphicLCD/CT6963CDriver.cpp **** const unsigned char T6963_SET_TEXT_AREA				=	0x41;
  36:../GraphicLCD/CT6963CDriver.cpp **** const unsigned char T6963_SET_GRAPHIC_HOME_ADDRESS	=	0x42;
  37:../GraphicLCD/CT6963CDriver.cpp **** const unsigned char T6963_SET_GRAPHIC_AREA			=	0x43;
  38:../GraphicLCD/CT6963CDriver.cpp **** 
  39:../GraphicLCD/CT6963CDriver.cpp **** const unsigned char T6963_MODE_SET					=	0x80;
  40:../GraphicLCD/CT6963CDriver.cpp **** 
  41:../GraphicLCD/CT6963CDriver.cpp **** const unsigned char T6963_DISPLAY_MODE				=	0x90;
  42:../GraphicLCD/CT6963CDriver.cpp **** 	const unsigned char T6963_CURSOR_BLINK_ON		=	0x01;
  43:../GraphicLCD/CT6963CDriver.cpp **** 	const unsigned char T6963_CURSOR_DISPLAY_ON		=	0x02;
  44:../GraphicLCD/CT6963CDriver.cpp **** 	const unsigned char T6963_TEXT_DISPLAY_ON		=	0x04;
  45:../GraphicLCD/CT6963CDriver.cpp **** 	const unsigned char T6963_GRAPHIC_DISPLAY_ON	=	0x08;
  46:../GraphicLCD/CT6963CDriver.cpp **** 
  47:../GraphicLCD/CT6963CDriver.cpp **** 
  48:../GraphicLCD/CT6963CDriver.cpp **** const unsigned char T6963_CURSOR_PATTERN_SELECT		=	0xA0;
  49:../GraphicLCD/CT6963CDriver.cpp **** 	const unsigned char T6963_CURSOR_1_LINE			=	0x00;
  50:../GraphicLCD/CT6963CDriver.cpp **** 	const unsigned char T6963_CURSOR_2_LINE			=	0x01;
  51:../GraphicLCD/CT6963CDriver.cpp **** 	const unsigned char T6963_CURSOR_3_LINE			=	0x02;
  52:../GraphicLCD/CT6963CDriver.cpp **** 	const unsigned char T6963_CURSOR_4_LINE			=	0x03;
  53:../GraphicLCD/CT6963CDriver.cpp **** 	const unsigned char T6963_CURSOR_5_LINE			=	0x04;
  54:../GraphicLCD/CT6963CDriver.cpp **** 	const unsigned char T6963_CURSOR_6_LINE			=	0x05;
  55:../GraphicLCD/CT6963CDriver.cpp **** 	const unsigned char T6963_CURSOR_7_LINE			=	0x06;
  56:../GraphicLCD/CT6963CDriver.cpp **** 	const unsigned char T6963_CURSOR_8_LINE			=	0x07;
  57:../GraphicLCD/CT6963CDriver.cpp **** 
  58:../GraphicLCD/CT6963CDriver.cpp **** const unsigned char T6963_SET_DATA_AUTO_WRITE		=	0xB0;
  59:../GraphicLCD/CT6963CDriver.cpp **** const unsigned char T6963_SET_DATA_AUTO_READ		=	0xB1;
  60:../GraphicLCD/CT6963CDriver.cpp **** const unsigned char T6963_AUTO_RESET				=	0xB2;
  61:../GraphicLCD/CT6963CDriver.cpp **** 
  62:../GraphicLCD/CT6963CDriver.cpp **** const unsigned char T6963_DATA_WRITE_AND_INCREMENT	=	0xC0;
  63:../GraphicLCD/CT6963CDriver.cpp **** const unsigned char T6963_DATA_READ_AND_INCREMENT	=	0xC1;
  64:../GraphicLCD/CT6963CDriver.cpp **** const unsigned char T6963_DATA_WRITE_AND_DECREMENT	=	0xC2;
  65:../GraphicLCD/CT6963CDriver.cpp **** const unsigned char T6963_DATA_READ_AND_DECREMENT	=	0xC3;
  66:../GraphicLCD/CT6963CDriver.cpp **** const unsigned char T6963_DATA_WRITE_AND_NONVARIALBE=	0xC4;
  67:../GraphicLCD/CT6963CDriver.cpp **** const unsigned char T6963_DATA_READ_AND_NONVARIABLE	=	0xC5;
  68:../GraphicLCD/CT6963CDriver.cpp **** 
  69:../GraphicLCD/CT6963CDriver.cpp **** const unsigned char T6963_SCREEN_PEEK				=	0xE0;
  70:../GraphicLCD/CT6963CDriver.cpp **** const unsigned char T6963_SCREEN_COPY				=	0xE8;
  71:../GraphicLCD/CT6963CDriver.cpp **** 
  72:../GraphicLCD/CT6963CDriver.cpp **** const unsigned char T6963_BIT_SET					=	0xF8;
  73:../GraphicLCD/CT6963CDriver.cpp **** const unsigned char T6963_BIT_RESET					=	0xF0;
  74:../GraphicLCD/CT6963CDriver.cpp **** 
  75:../GraphicLCD/CT6963CDriver.cpp **** /* Private macro -------------------------------------------------------------*/
  76:../GraphicLCD/CT6963CDriver.cpp **** /* Private variables ---------------------------------------------------------*/
  77:../GraphicLCD/CT6963CDriver.cpp **** /* Private function prototypes -----------------------------------------------*/
  78:../GraphicLCD/CT6963CDriver.cpp **** /* Private functions ---------------------------------------------------------*/
  79:../GraphicLCD/CT6963CDriver.cpp **** 
  80:../GraphicLCD/CT6963CDriver.cpp **** 
  81:../GraphicLCD/CT6963CDriver.cpp **** CT6963CDriver::CT6963CDriver() {
  26              		.loc 1 81 0
  27              		.cfi_startproc
  28              		@ args = 0, pretend = 0, frame = 8
  29              		@ frame_needed = 1, uses_anonymous_args = 0
  30 0000 80B5     		push	{r7, lr}
  31              	.LCFI0:
  32              		.cfi_def_cfa_offset 8
  33              		.cfi_offset 14, -4
  34              		.cfi_offset 7, -8
  35 0002 82B0     		sub	sp, sp, #8
  36              	.LCFI1:
  37              		.cfi_def_cfa_offset 16
  38 0004 00AF     		add	r7, sp, #0
  39              	.LCFI2:
  40              		.cfi_def_cfa_register 7
  41 0006 7860     		str	r0, [r7, #4]
  42              	.LBB2:
  43              		.loc 1 81 0
  44 0008 7B68     		ldr	r3, [r7, #4]
  45 000a 1846     		mov	r0, r3
  46 000c FFF7FEFF 		bl	_ZN11CGraphicLCDC2Ev
  47 0010 7B68     		ldr	r3, [r7, #4]
  48 0012 044A     		ldr	r2, .L3
  49 0014 1A60     		str	r2, [r3, #0]
  50              	.LBE2:
  82:../GraphicLCD/CT6963CDriver.cpp **** 	// TODO Auto-generated constructor stub
  83:../GraphicLCD/CT6963CDriver.cpp **** 
  84:../GraphicLCD/CT6963CDriver.cpp **** }
  51              		.loc 1 84 0
  52 0016 7B68     		ldr	r3, [r7, #4]
  53 0018 1846     		mov	r0, r3
  54 001a 07F10807 		add	r7, r7, #8
  55 001e BD46     		mov	sp, r7
  56 0020 80BD     		pop	{r7, pc}
  57              	.L4:
  58 0022 00BF     		.align	2
  59              	.L3:
  60 0024 08000000 		.word	_ZTV13CT6963CDriver+8
  61              		.cfi_endproc
  62              	.LFE1:
  64              		.align	2
  65              		.global	_ZN13CT6963CDriverD2Ev
  66              		.thumb
  67              		.thumb_func
  69              	_ZN13CT6963CDriverD2Ev:
  70              	.LFB4:
  85:../GraphicLCD/CT6963CDriver.cpp **** 
  86:../GraphicLCD/CT6963CDriver.cpp **** CT6963CDriver::~CT6963CDriver() {
  71              		.loc 1 86 0
  72              		.cfi_startproc
  73              		@ args = 0, pretend = 0, frame = 8
  74              		@ frame_needed = 1, uses_anonymous_args = 0
  75 0028 80B5     		push	{r7, lr}
  76              	.LCFI3:
  77              		.cfi_def_cfa_offset 8
  78              		.cfi_offset 14, -4
  79              		.cfi_offset 7, -8
  80 002a 82B0     		sub	sp, sp, #8
  81              	.LCFI4:
  82              		.cfi_def_cfa_offset 16
  83 002c 00AF     		add	r7, sp, #0
  84              	.LCFI5:
  85              		.cfi_def_cfa_register 7
  86 002e 7860     		str	r0, [r7, #4]
  87              	.LBB3:
  88              		.loc 1 86 0
  89 0030 7B68     		ldr	r3, [r7, #4]
  90 0032 0A4A     		ldr	r2, .L8
  91 0034 1A60     		str	r2, [r3, #0]
  87:../GraphicLCD/CT6963CDriver.cpp **** 	// TODO Auto-generated destructor stub
  88:../GraphicLCD/CT6963CDriver.cpp **** }
  92              		.loc 1 88 0
  93 0036 7868     		ldr	r0, [r7, #4]
  94 0038 FFF7FEFF 		bl	_ZN11CGraphicLCDD2Ev
  95              	.LBE3:
  96 003c 4FF00003 		mov	r3, #0
  97 0040 03F00103 		and	r3, r3, #1
  98 0044 DBB2     		uxtb	r3, r3
  99 0046 002B     		cmp	r3, #0
 100 0048 02D0     		beq	.L7
 101              		.loc 1 88 0 is_stmt 0 discriminator 2
 102 004a 7868     		ldr	r0, [r7, #4]
 103 004c FFF7FEFF 		bl	_ZdlPv
 104              	.L7:
 105              		.loc 1 88 0 discriminator 3
 106 0050 7B68     		ldr	r3, [r7, #4]
 107 0052 1846     		mov	r0, r3
 108 0054 07F10807 		add	r7, r7, #8
 109 0058 BD46     		mov	sp, r7
 110 005a 80BD     		pop	{r7, pc}
 111              	.L9:
 112              		.align	2
 113              	.L8:
 114 005c 08000000 		.word	_ZTV13CT6963CDriver+8
 115              		.cfi_endproc
 116              	.LFE4:
 118              		.align	2
 119              		.global	_ZN13CT6963CDriverD0Ev
 120              		.thumb
 121              		.thumb_func
 123              	_ZN13CT6963CDriverD0Ev:
 124              	.LFB6:
  86:../GraphicLCD/CT6963CDriver.cpp **** CT6963CDriver::~CT6963CDriver() {
 125              		.loc 1 86 0 is_stmt 1
 126              		.cfi_startproc
 127              		@ args = 0, pretend = 0, frame = 8
 128              		@ frame_needed = 1, uses_anonymous_args = 0
 129 0060 80B5     		push	{r7, lr}
 130              	.LCFI6:
 131              		.cfi_def_cfa_offset 8
 132              		.cfi_offset 14, -4
 133              		.cfi_offset 7, -8
 134 0062 82B0     		sub	sp, sp, #8
 135              	.LCFI7:
 136              		.cfi_def_cfa_offset 16
 137 0064 00AF     		add	r7, sp, #0
 138              	.LCFI8:
 139              		.cfi_def_cfa_register 7
 140 0066 7860     		str	r0, [r7, #4]
 141              		.loc 1 88 0
 142 0068 7868     		ldr	r0, [r7, #4]
 143 006a FFF7FEFF 		bl	_ZN13CT6963CDriverD1Ev
 144 006e 7868     		ldr	r0, [r7, #4]
 145 0070 FFF7FEFF 		bl	_ZdlPv
 146 0074 7B68     		ldr	r3, [r7, #4]
 147 0076 1846     		mov	r0, r3
 148 0078 07F10807 		add	r7, r7, #8
 149 007c BD46     		mov	sp, r7
 150 007e 80BD     		pop	{r7, pc}
 151              		.cfi_endproc
 152              	.LFE6:
 154              		.align	2
 155              		.global	_ZN13CT6963CDriver4InitEv
 156              		.thumb
 157              		.thumb_func
 159              	_ZN13CT6963CDriver4InitEv:
 160              	.LFB7:
  89:../GraphicLCD/CT6963CDriver.cpp **** 
  90:../GraphicLCD/CT6963CDriver.cpp **** /**
  91:../GraphicLCD/CT6963CDriver.cpp ****   * @brief  initializes Display controller
  92:../GraphicLCD/CT6963CDriver.cpp ****   * @param  None
  93:../GraphicLCD/CT6963CDriver.cpp ****   * @retval None
  94:../GraphicLCD/CT6963CDriver.cpp ****   */
  95:../GraphicLCD/CT6963CDriver.cpp **** void CT6963CDriver::Init(){
 161              		.loc 1 95 0
 162              		.cfi_startproc
 163              		@ args = 0, pretend = 0, frame = 8
 164              		@ frame_needed = 1, uses_anonymous_args = 0
 165 0080 80B5     		push	{r7, lr}
 166              	.LCFI9:
 167              		.cfi_def_cfa_offset 8
 168              		.cfi_offset 14, -4
 169              		.cfi_offset 7, -8
 170 0082 82B0     		sub	sp, sp, #8
 171              	.LCFI10:
 172              		.cfi_def_cfa_offset 16
 173 0084 00AF     		add	r7, sp, #0
 174              	.LCFI11:
 175              		.cfi_def_cfa_register 7
 176 0086 7860     		str	r0, [r7, #4]
  96:../GraphicLCD/CT6963CDriver.cpp **** 
  97:../GraphicLCD/CT6963CDriver.cpp **** 	HardwareInit();
 177              		.loc 1 97 0
 178 0088 7B68     		ldr	r3, [r7, #4]
 179 008a 1B68     		ldr	r3, [r3, #0]
 180 008c 03F12C03 		add	r3, r3, #44
 181 0090 1B68     		ldr	r3, [r3, #0]
 182 0092 7868     		ldr	r0, [r7, #4]
 183 0094 9847     		blx	r3
  98:../GraphicLCD/CT6963CDriver.cpp **** 
  99:../GraphicLCD/CT6963CDriver.cpp **** 	Reset();
 184              		.loc 1 99 0
 185 0096 7B68     		ldr	r3, [r7, #4]
 186 0098 1B68     		ldr	r3, [r3, #0]
 187 009a 03F13003 		add	r3, r3, #48
 188 009e 1B68     		ldr	r3, [r3, #0]
 189 00a0 7868     		ldr	r0, [r7, #4]
 190 00a2 9847     		blx	r3
 100:../GraphicLCD/CT6963CDriver.cpp **** 
 101:../GraphicLCD/CT6963CDriver.cpp **** 	// Graphic home address
 102:../GraphicLCD/CT6963CDriver.cpp **** 	WriteData(GLCD_GRAPHIC_HOME & 0xFF);
 191              		.loc 1 102 0
 192 00a4 7B68     		ldr	r3, [r7, #4]
 193 00a6 1B68     		ldr	r3, [r3, #0]
 194 00a8 03F13803 		add	r3, r3, #56
 195 00ac 1B68     		ldr	r3, [r3, #0]
 196 00ae 7868     		ldr	r0, [r7, #4]
 197 00b0 4FF0E001 		mov	r1, #224
 198 00b4 9847     		blx	r3
 103:../GraphicLCD/CT6963CDriver.cpp **** 	WriteData(GLCD_GRAPHIC_HOME >> 8);
 199              		.loc 1 103 0
 200 00b6 7B68     		ldr	r3, [r7, #4]
 201 00b8 1B68     		ldr	r3, [r3, #0]
 202 00ba 03F13803 		add	r3, r3, #56
 203 00be 1B68     		ldr	r3, [r3, #0]
 204 00c0 7868     		ldr	r0, [r7, #4]
 205 00c2 4FF00101 		mov	r1, #1
 206 00c6 9847     		blx	r3
 104:../GraphicLCD/CT6963CDriver.cpp **** 	WriteCommand(T6963_SET_GRAPHIC_HOME_ADDRESS);
 207              		.loc 1 104 0
 208 00c8 7B68     		ldr	r3, [r7, #4]
 209 00ca 1B68     		ldr	r3, [r3, #0]
 210 00cc 03F13403 		add	r3, r3, #52
 211 00d0 1B68     		ldr	r3, [r3, #0]
 212 00d2 7868     		ldr	r0, [r7, #4]
 213 00d4 4FF04201 		mov	r1, #66
 214 00d8 9847     		blx	r3
 105:../GraphicLCD/CT6963CDriver.cpp **** 
 106:../GraphicLCD/CT6963CDriver.cpp **** 	//graphic line length
 107:../GraphicLCD/CT6963CDriver.cpp **** 	WriteData(GLCD_GRAPHIC_AREA);
 215              		.loc 1 107 0
 216 00da 7B68     		ldr	r3, [r7, #4]
 217 00dc 1B68     		ldr	r3, [r3, #0]
 218 00de 03F13803 		add	r3, r3, #56
 219 00e2 1B68     		ldr	r3, [r3, #0]
 220 00e4 7868     		ldr	r0, [r7, #4]
 221 00e6 4FF01E01 		mov	r1, #30
 222 00ea 9847     		blx	r3
 108:../GraphicLCD/CT6963CDriver.cpp **** 	WriteData(0x00);
 223              		.loc 1 108 0
 224 00ec 7B68     		ldr	r3, [r7, #4]
 225 00ee 1B68     		ldr	r3, [r3, #0]
 226 00f0 03F13803 		add	r3, r3, #56
 227 00f4 1B68     		ldr	r3, [r3, #0]
 228 00f6 7868     		ldr	r0, [r7, #4]
 229 00f8 4FF00001 		mov	r1, #0
 230 00fc 9847     		blx	r3
 109:../GraphicLCD/CT6963CDriver.cpp **** 	WriteCommand(T6963_SET_GRAPHIC_AREA);
 231              		.loc 1 109 0
 232 00fe 7B68     		ldr	r3, [r7, #4]
 233 0100 1B68     		ldr	r3, [r3, #0]
 234 0102 03F13403 		add	r3, r3, #52
 235 0106 1B68     		ldr	r3, [r3, #0]
 236 0108 7868     		ldr	r0, [r7, #4]
 237 010a 4FF04301 		mov	r1, #67
 238 010e 9847     		blx	r3
 110:../GraphicLCD/CT6963CDriver.cpp **** 
 111:../GraphicLCD/CT6963CDriver.cpp **** 	//text home address
 112:../GraphicLCD/CT6963CDriver.cpp **** 	WriteData(GLCD_TEXT_HOME & 0xFF);
 239              		.loc 1 112 0
 240 0110 7B68     		ldr	r3, [r7, #4]
 241 0112 1B68     		ldr	r3, [r3, #0]
 242 0114 03F13803 		add	r3, r3, #56
 243 0118 1B68     		ldr	r3, [r3, #0]
 244 011a 7868     		ldr	r0, [r7, #4]
 245 011c 4FF00001 		mov	r1, #0
 246 0120 9847     		blx	r3
 113:../GraphicLCD/CT6963CDriver.cpp **** 	WriteData(GLCD_TEXT_HOME >> 8);
 247              		.loc 1 113 0
 248 0122 7B68     		ldr	r3, [r7, #4]
 249 0124 1B68     		ldr	r3, [r3, #0]
 250 0126 03F13803 		add	r3, r3, #56
 251 012a 1B68     		ldr	r3, [r3, #0]
 252 012c 7868     		ldr	r0, [r7, #4]
 253 012e 4FF00001 		mov	r1, #0
 254 0132 9847     		blx	r3
 114:../GraphicLCD/CT6963CDriver.cpp **** 	WriteCommand(T6963_SET_TEXT_HOME_ADDRESS);
 255              		.loc 1 114 0
 256 0134 7B68     		ldr	r3, [r7, #4]
 257 0136 1B68     		ldr	r3, [r3, #0]
 258 0138 03F13403 		add	r3, r3, #52
 259 013c 1B68     		ldr	r3, [r3, #0]
 260 013e 7868     		ldr	r0, [r7, #4]
 261 0140 4FF04001 		mov	r1, #64
 262 0144 9847     		blx	r3
 115:../GraphicLCD/CT6963CDriver.cpp **** 
 116:../GraphicLCD/CT6963CDriver.cpp **** 	//text line length
 117:../GraphicLCD/CT6963CDriver.cpp **** 	WriteData(GLCD_TEXT_AREA);
 263              		.loc 1 117 0
 264 0146 7B68     		ldr	r3, [r7, #4]
 265 0148 1B68     		ldr	r3, [r3, #0]
 266 014a 03F13803 		add	r3, r3, #56
 267 014e 1B68     		ldr	r3, [r3, #0]
 268 0150 7868     		ldr	r0, [r7, #4]
 269 0152 4FF01E01 		mov	r1, #30
 270 0156 9847     		blx	r3
 118:../GraphicLCD/CT6963CDriver.cpp **** 	WriteData(0x00);
 271              		.loc 1 118 0
 272 0158 7B68     		ldr	r3, [r7, #4]
 273 015a 1B68     		ldr	r3, [r3, #0]
 274 015c 03F13803 		add	r3, r3, #56
 275 0160 1B68     		ldr	r3, [r3, #0]
 276 0162 7868     		ldr	r0, [r7, #4]
 277 0164 4FF00001 		mov	r1, #0
 278 0168 9847     		blx	r3
 119:../GraphicLCD/CT6963CDriver.cpp **** 	WriteCommand(T6963_SET_TEXT_AREA);
 279              		.loc 1 119 0
 280 016a 7B68     		ldr	r3, [r7, #4]
 281 016c 1B68     		ldr	r3, [r3, #0]
 282 016e 03F13403 		add	r3, r3, #52
 283 0172 1B68     		ldr	r3, [r3, #0]
 284 0174 7868     		ldr	r0, [r7, #4]
 285 0176 4FF04101 		mov	r1, #65
 286 017a 9847     		blx	r3
 120:../GraphicLCD/CT6963CDriver.cpp **** 
 121:../GraphicLCD/CT6963CDriver.cpp **** 	//write offset register  (no effect)
 122:../GraphicLCD/CT6963CDriver.cpp **** 	WriteData(GLCD_OFFSET_REGISTER);
 287              		.loc 1 122 0
 288 017c 7B68     		ldr	r3, [r7, #4]
 289 017e 1B68     		ldr	r3, [r3, #0]
 290 0180 03F13803 		add	r3, r3, #56
 291 0184 1B68     		ldr	r3, [r3, #0]
 292 0186 7868     		ldr	r0, [r7, #4]
 293 0188 4FF00201 		mov	r1, #2
 294 018c 9847     		blx	r3
 123:../GraphicLCD/CT6963CDriver.cpp **** 	WriteData(0x00);
 295              		.loc 1 123 0
 296 018e 7B68     		ldr	r3, [r7, #4]
 297 0190 1B68     		ldr	r3, [r3, #0]
 298 0192 03F13803 		add	r3, r3, #56
 299 0196 1B68     		ldr	r3, [r3, #0]
 300 0198 7868     		ldr	r0, [r7, #4]
 301 019a 4FF00001 		mov	r1, #0
 302 019e 9847     		blx	r3
 124:../GraphicLCD/CT6963CDriver.cpp **** 	WriteCommand(T6963_SET_OFFSET_REGISTER);
 303              		.loc 1 124 0
 304 01a0 7B68     		ldr	r3, [r7, #4]
 305 01a2 1B68     		ldr	r3, [r3, #0]
 306 01a4 03F13403 		add	r3, r3, #52
 307 01a8 1B68     		ldr	r3, [r3, #0]
 308 01aa 7868     		ldr	r0, [r7, #4]
 309 01ac 4FF02201 		mov	r1, #34
 310 01b0 9847     		blx	r3
 125:../GraphicLCD/CT6963CDriver.cpp **** 
 126:../GraphicLCD/CT6963CDriver.cpp **** 	// display in XOR Mode
 127:../GraphicLCD/CT6963CDriver.cpp **** 	WriteCommand(T6963_MODE_SET | 1);
 311              		.loc 1 127 0
 312 01b2 7B68     		ldr	r3, [r7, #4]
 313 01b4 1B68     		ldr	r3, [r3, #0]
 314 01b6 03F13403 		add	r3, r3, #52
 315 01ba 1B68     		ldr	r3, [r3, #0]
 316 01bc 7868     		ldr	r0, [r7, #4]
 317 01be 4FF08101 		mov	r1, #129
 318 01c2 9847     		blx	r3
 128:../GraphicLCD/CT6963CDriver.cpp **** 
 129:../GraphicLCD/CT6963CDriver.cpp **** 	//Graphic and Text mode
 130:../GraphicLCD/CT6963CDriver.cpp **** 	WriteCommand(T6963_DISPLAY_MODE  | T6963_TEXT_DISPLAY_ON | T6963_GRAPHIC_DISPLAY_ON );
 319              		.loc 1 130 0
 320 01c4 7B68     		ldr	r3, [r7, #4]
 321 01c6 1B68     		ldr	r3, [r3, #0]
 322 01c8 03F13403 		add	r3, r3, #52
 323 01cc 1B68     		ldr	r3, [r3, #0]
 324 01ce 7868     		ldr	r0, [r7, #4]
 325 01d0 4FF09C01 		mov	r1, #156
 326 01d4 9847     		blx	r3
 131:../GraphicLCD/CT6963CDriver.cpp **** }
 327              		.loc 1 131 0
 328 01d6 07F10807 		add	r7, r7, #8
 329 01da BD46     		mov	sp, r7
 330 01dc 80BD     		pop	{r7, pc}
 331              		.cfi_endproc
 332              	.LFE7:
 334 01de 00BF     		.align	2
 335              		.global	_ZN13CT6963CDriver17SetAddressPointerEj
 336              		.thumb
 337              		.thumb_func
 339              	_ZN13CT6963CDriver17SetAddressPointerEj:
 340              	.LFB8:
 132:../GraphicLCD/CT6963CDriver.cpp **** 
 133:../GraphicLCD/CT6963CDriver.cpp **** /**
 134:../GraphicLCD/CT6963CDriver.cpp ****   * @brief  set address pointer in T6963C
 135:../GraphicLCD/CT6963CDriver.cpp ****   * @param  address
 136:../GraphicLCD/CT6963CDriver.cpp ****   * @retval None
 137:../GraphicLCD/CT6963CDriver.cpp ****   */
 138:../GraphicLCD/CT6963CDriver.cpp **** void CT6963CDriver::SetAddressPointer(unsigned int address){
 341              		.loc 1 138 0
 342              		.cfi_startproc
 343              		@ args = 0, pretend = 0, frame = 8
 344              		@ frame_needed = 1, uses_anonymous_args = 0
 345 01e0 80B5     		push	{r7, lr}
 346              	.LCFI12:
 347              		.cfi_def_cfa_offset 8
 348              		.cfi_offset 14, -4
 349              		.cfi_offset 7, -8
 350 01e2 82B0     		sub	sp, sp, #8
 351              	.LCFI13:
 352              		.cfi_def_cfa_offset 16
 353 01e4 00AF     		add	r7, sp, #0
 354              	.LCFI14:
 355              		.cfi_def_cfa_register 7
 356 01e6 7860     		str	r0, [r7, #4]
 357 01e8 3960     		str	r1, [r7, #0]
 139:../GraphicLCD/CT6963CDriver.cpp **** 	address += 2; // display offset
 358              		.loc 1 139 0
 359 01ea 3B68     		ldr	r3, [r7, #0]
 360 01ec 03F10203 		add	r3, r3, #2
 361 01f0 3B60     		str	r3, [r7, #0]
 140:../GraphicLCD/CT6963CDriver.cpp **** 	WriteData(address & 0xFF);
 362              		.loc 1 140 0
 363 01f2 7B68     		ldr	r3, [r7, #4]
 364 01f4 1B68     		ldr	r3, [r3, #0]
 365 01f6 03F13803 		add	r3, r3, #56
 366 01fa 1B68     		ldr	r3, [r3, #0]
 367 01fc 3A68     		ldr	r2, [r7, #0]
 368 01fe D2B2     		uxtb	r2, r2
 369 0200 7868     		ldr	r0, [r7, #4]
 370 0202 1146     		mov	r1, r2
 371 0204 9847     		blx	r3
 141:../GraphicLCD/CT6963CDriver.cpp **** 	WriteData(address >> 8);
 372              		.loc 1 141 0
 373 0206 7B68     		ldr	r3, [r7, #4]
 374 0208 1B68     		ldr	r3, [r3, #0]
 375 020a 03F13803 		add	r3, r3, #56
 376 020e 1B68     		ldr	r3, [r3, #0]
 377 0210 3A68     		ldr	r2, [r7, #0]
 378 0212 4FEA1222 		lsr	r2, r2, #8
 379 0216 D2B2     		uxtb	r2, r2
 380 0218 7868     		ldr	r0, [r7, #4]
 381 021a 1146     		mov	r1, r2
 382 021c 9847     		blx	r3
 142:../GraphicLCD/CT6963CDriver.cpp **** 	WriteCommand(T6963_SET_ADDRESS_POINTER);
 383              		.loc 1 142 0
 384 021e 7B68     		ldr	r3, [r7, #4]
 385 0220 1B68     		ldr	r3, [r3, #0]
 386 0222 03F13403 		add	r3, r3, #52
 387 0226 1B68     		ldr	r3, [r3, #0]
 388 0228 7868     		ldr	r0, [r7, #4]
 389 022a 4FF02401 		mov	r1, #36
 390 022e 9847     		blx	r3
 143:../GraphicLCD/CT6963CDriver.cpp **** }
 391              		.loc 1 143 0
 392 0230 07F10807 		add	r7, r7, #8
 393 0234 BD46     		mov	sp, r7
 394 0236 80BD     		pop	{r7, pc}
 395              		.cfi_endproc
 396              	.LFE8:
 398              		.align	2
 399              		.global	_ZN13CT6963CDriver8TextGoToEhh
 400              		.thumb
 401              		.thumb_func
 403              	_ZN13CT6963CDriver8TextGoToEhh:
 404              	.LFB9:
 144:../GraphicLCD/CT6963CDriver.cpp **** 
 145:../GraphicLCD/CT6963CDriver.cpp **** /**
 146:../GraphicLCD/CT6963CDriver.cpp ****   * @brief  sets address pointer to specific text address
 147:../GraphicLCD/CT6963CDriver.cpp ****   * @param  column and line
 148:../GraphicLCD/CT6963CDriver.cpp ****   * @retval None
 149:../GraphicLCD/CT6963CDriver.cpp ****   */
 150:../GraphicLCD/CT6963CDriver.cpp **** void CT6963CDriver::TextGoTo(unsigned char x, unsigned char y)
 151:../GraphicLCD/CT6963CDriver.cpp **** {
 405              		.loc 1 151 0
 406              		.cfi_startproc
 407              		@ args = 0, pretend = 0, frame = 16
 408              		@ frame_needed = 1, uses_anonymous_args = 0
 409 0238 80B5     		push	{r7, lr}
 410              	.LCFI15:
 411              		.cfi_def_cfa_offset 8
 412              		.cfi_offset 14, -4
 413              		.cfi_offset 7, -8
 414 023a 84B0     		sub	sp, sp, #16
 415              	.LCFI16:
 416              		.cfi_def_cfa_offset 24
 417 023c 00AF     		add	r7, sp, #0
 418              	.LCFI17:
 419              		.cfi_def_cfa_register 7
 420 023e 7860     		str	r0, [r7, #4]
 421 0240 1346     		mov	r3, r2
 422 0242 0A46     		mov	r2, r1
 423 0244 FA70     		strb	r2, [r7, #3]
 424 0246 BB70     		strb	r3, [r7, #2]
 425              	.LBB4:
 152:../GraphicLCD/CT6963CDriver.cpp **** 	unsigned int address;
 153:../GraphicLCD/CT6963CDriver.cpp **** 
 154:../GraphicLCD/CT6963CDriver.cpp **** 	address = GLCD_TEXT_HOME +  x + (GLCD_TEXT_AREA * y);
 426              		.loc 1 154 0
 427 0248 F978     		ldrb	r1, [r7, #3]	@ zero_extendqisi2
 428 024a BA78     		ldrb	r2, [r7, #2]	@ zero_extendqisi2
 429 024c 1346     		mov	r3, r2
 430 024e 4FEA0313 		lsl	r3, r3, #4
 431 0252 9B1A     		subs	r3, r3, r2
 432 0254 4FEA4303 		lsl	r3, r3, #1
 433 0258 CB18     		adds	r3, r1, r3
 434 025a FB60     		str	r3, [r7, #12]
 155:../GraphicLCD/CT6963CDriver.cpp **** 	SetAddressPointer(address);
 435              		.loc 1 155 0
 436 025c 7868     		ldr	r0, [r7, #4]
 437 025e F968     		ldr	r1, [r7, #12]
 438 0260 FFF7FEFF 		bl	_ZN13CT6963CDriver17SetAddressPointerEj
 439              	.LBE4:
 156:../GraphicLCD/CT6963CDriver.cpp **** }
 440              		.loc 1 156 0
 441 0264 07F11007 		add	r7, r7, #16
 442 0268 BD46     		mov	sp, r7
 443 026a 80BD     		pop	{r7, pc}
 444              		.cfi_endproc
 445              	.LFE9:
 447              		.align	2
 448              		.global	_ZN13CT6963CDriver11GraphicGoToEhh
 449              		.thumb
 450              		.thumb_func
 452              	_ZN13CT6963CDriver11GraphicGoToEhh:
 453              	.LFB10:
 157:../GraphicLCD/CT6963CDriver.cpp **** 
 158:../GraphicLCD/CT6963CDriver.cpp **** 
 159:../GraphicLCD/CT6963CDriver.cpp **** /**
 160:../GraphicLCD/CT6963CDriver.cpp ****   * @brief  sets address pointer to specific pixel in graphics ram
 161:../GraphicLCD/CT6963CDriver.cpp ****   * @param  coordinates of the pixel byte
 162:../GraphicLCD/CT6963CDriver.cpp ****   * @retval None
 163:../GraphicLCD/CT6963CDriver.cpp ****   */
 164:../GraphicLCD/CT6963CDriver.cpp **** void CT6963CDriver::GraphicGoTo(unsigned char x, unsigned char y)
 165:../GraphicLCD/CT6963CDriver.cpp **** {
 454              		.loc 1 165 0
 455              		.cfi_startproc
 456              		@ args = 0, pretend = 0, frame = 16
 457              		@ frame_needed = 1, uses_anonymous_args = 0
 458 026c 80B5     		push	{r7, lr}
 459              	.LCFI18:
 460              		.cfi_def_cfa_offset 8
 461              		.cfi_offset 14, -4
 462              		.cfi_offset 7, -8
 463 026e 84B0     		sub	sp, sp, #16
 464              	.LCFI19:
 465              		.cfi_def_cfa_offset 24
 466 0270 00AF     		add	r7, sp, #0
 467              	.LCFI20:
 468              		.cfi_def_cfa_register 7
 469 0272 7860     		str	r0, [r7, #4]
 470 0274 1346     		mov	r3, r2
 471 0276 0A46     		mov	r2, r1
 472 0278 FA70     		strb	r2, [r7, #3]
 473 027a BB70     		strb	r3, [r7, #2]
 474              	.LBB5:
 166:../GraphicLCD/CT6963CDriver.cpp **** 	unsigned int address;
 167:../GraphicLCD/CT6963CDriver.cpp **** 	address = GLCD_GRAPHIC_HOME + ((x) / GLCD_FONT_WIDTH) + (GLCD_GRAPHIC_AREA * y);
 475              		.loc 1 167 0
 476 027c FB78     		ldrb	r3, [r7, #3]	@ zero_extendqisi2
 477 027e 4FEAD303 		lsr	r3, r3, #3
 478 0282 DBB2     		uxtb	r3, r3
 479 0284 1946     		mov	r1, r3
 480 0286 BA78     		ldrb	r2, [r7, #2]	@ zero_extendqisi2
 481 0288 1346     		mov	r3, r2
 482 028a 4FEA0313 		lsl	r3, r3, #4
 483 028e 9B1A     		subs	r3, r3, r2
 484 0290 4FEA4303 		lsl	r3, r3, #1
 485 0294 CB18     		adds	r3, r1, r3
 486 0296 03F5F073 		add	r3, r3, #480
 487 029a FB60     		str	r3, [r7, #12]
 168:../GraphicLCD/CT6963CDriver.cpp **** 	SetAddressPointer(address);
 488              		.loc 1 168 0
 489 029c 7868     		ldr	r0, [r7, #4]
 490 029e F968     		ldr	r1, [r7, #12]
 491 02a0 FFF7FEFF 		bl	_ZN13CT6963CDriver17SetAddressPointerEj
 492              	.LBE5:
 169:../GraphicLCD/CT6963CDriver.cpp **** }
 493              		.loc 1 169 0
 494 02a4 07F11007 		add	r7, r7, #16
 495 02a8 BD46     		mov	sp, r7
 496 02aa 80BD     		pop	{r7, pc}
 497              		.cfi_endproc
 498              	.LFE10:
 500              		.align	2
 501              		.global	_ZN13CT6963CDriver5ClearEv
 502              		.thumb
 503              		.thumb_func
 505              	_ZN13CT6963CDriver5ClearEv:
 506              	.LFB11:
 170:../GraphicLCD/CT6963CDriver.cpp **** 
 171:../GraphicLCD/CT6963CDriver.cpp **** /**
 172:../GraphicLCD/CT6963CDriver.cpp ****   * @brief  Clear Display
 173:../GraphicLCD/CT6963CDriver.cpp ****   * @param  None
 174:../GraphicLCD/CT6963CDriver.cpp ****   * @retval None
 175:../GraphicLCD/CT6963CDriver.cpp ****   */
 176:../GraphicLCD/CT6963CDriver.cpp **** void CT6963CDriver::Clear(){
 507              		.loc 1 176 0
 508              		.cfi_startproc
 509              		@ args = 0, pretend = 0, frame = 16
 510              		@ frame_needed = 1, uses_anonymous_args = 0
 511 02ac 80B5     		push	{r7, lr}
 512              	.LCFI21:
 513              		.cfi_def_cfa_offset 8
 514              		.cfi_offset 14, -4
 515              		.cfi_offset 7, -8
 516 02ae 84B0     		sub	sp, sp, #16
 517              	.LCFI22:
 518              		.cfi_def_cfa_offset 24
 519 02b0 00AF     		add	r7, sp, #0
 520              	.LCFI23:
 521              		.cfi_def_cfa_register 7
 522 02b2 7860     		str	r0, [r7, #4]
 523              	.LBB6:
 177:../GraphicLCD/CT6963CDriver.cpp **** 	unsigned int i;
 178:../GraphicLCD/CT6963CDriver.cpp **** 	// Graphics and Text are different mem pools in this Controller
 179:../GraphicLCD/CT6963CDriver.cpp **** 	SetAddressPointer(GLCD_GRAPHIC_HOME);
 524              		.loc 1 179 0
 525 02b4 7868     		ldr	r0, [r7, #4]
 526 02b6 4FF4F071 		mov	r1, #480
 527 02ba FFF7FEFF 		bl	_ZN13CT6963CDriver17SetAddressPointerEj
 180:../GraphicLCD/CT6963CDriver.cpp **** 
 181:../GraphicLCD/CT6963CDriver.cpp **** 	for(i = 0; i < GLCD_GRAPHIC_SIZE; i++)
 528              		.loc 1 181 0
 529 02be 4FF00003 		mov	r3, #0
 530 02c2 FB60     		str	r3, [r7, #12]
 531 02c4 15E0     		b	.L17
 532              	.L20:
 182:../GraphicLCD/CT6963CDriver.cpp **** 	{
 183:../GraphicLCD/CT6963CDriver.cpp **** 		if(Inverse())
 533              		.loc 1 183 0
 534 02c6 7B68     		ldr	r3, [r7, #4]
 535 02c8 1846     		mov	r0, r3
 536 02ca FFF7FEFF 		bl	_ZN11CGraphicLCD7InverseEv
 537 02ce 0346     		mov	r3, r0
 538 02d0 002B     		cmp	r3, #0
 539 02d2 05D0     		beq	.L18
 184:../GraphicLCD/CT6963CDriver.cpp **** 			WriteDisplayData(0xFF);
 540              		.loc 1 184 0
 541 02d4 7868     		ldr	r0, [r7, #4]
 542 02d6 4FF0FF01 		mov	r1, #255
 543 02da FFF7FEFF 		bl	_ZN13CT6963CDriver16WriteDisplayDataEh
 544 02de 04E0     		b	.L19
 545              	.L18:
 185:../GraphicLCD/CT6963CDriver.cpp **** 		else
 186:../GraphicLCD/CT6963CDriver.cpp **** 			WriteDisplayData(0x00);
 546              		.loc 1 186 0
 547 02e0 7868     		ldr	r0, [r7, #4]
 548 02e2 4FF00001 		mov	r1, #0
 549 02e6 FFF7FEFF 		bl	_ZN13CT6963CDriver16WriteDisplayDataEh
 550              	.L19:
 181:../GraphicLCD/CT6963CDriver.cpp **** 	for(i = 0; i < GLCD_GRAPHIC_SIZE; i++)
 551              		.loc 1 181 0
 552 02ea FB68     		ldr	r3, [r7, #12]
 553 02ec 03F10103 		add	r3, r3, #1
 554 02f0 FB60     		str	r3, [r7, #12]
 555              	.L17:
 181:../GraphicLCD/CT6963CDriver.cpp **** 	for(i = 0; i < GLCD_GRAPHIC_SIZE; i++)
 556              		.loc 1 181 0 is_stmt 0 discriminator 1
 557 02f2 FA68     		ldr	r2, [r7, #12]
 558 02f4 40F6FF63 		movw	r3, #3839
 559 02f8 9A42     		cmp	r2, r3
 560 02fa 8CBF     		ite	hi
 561 02fc 0023     		movhi	r3, #0
 562 02fe 0123     		movls	r3, #1
 563 0300 DBB2     		uxtb	r3, r3
 564 0302 002B     		cmp	r3, #0
 565 0304 DFD1     		bne	.L20
 187:../GraphicLCD/CT6963CDriver.cpp **** 	}
 188:../GraphicLCD/CT6963CDriver.cpp **** 
 189:../GraphicLCD/CT6963CDriver.cpp **** 	SetAddressPointer(GLCD_TEXT_HOME);
 566              		.loc 1 189 0 is_stmt 1
 567 0306 7868     		ldr	r0, [r7, #4]
 568 0308 4FF00001 		mov	r1, #0
 569 030c FFF7FEFF 		bl	_ZN13CT6963CDriver17SetAddressPointerEj
 190:../GraphicLCD/CT6963CDriver.cpp **** 
 191:../GraphicLCD/CT6963CDriver.cpp **** 	for(i = 0; i < GLCD_TEXT_SIZE; i++)
 570              		.loc 1 191 0
 571 0310 4FF00003 		mov	r3, #0
 572 0314 FB60     		str	r3, [r7, #12]
 573 0316 08E0     		b	.L21
 574              	.L22:
 192:../GraphicLCD/CT6963CDriver.cpp **** 	{
 193:../GraphicLCD/CT6963CDriver.cpp **** 			WriteDisplayData(0x00);
 575              		.loc 1 193 0 discriminator 2
 576 0318 7868     		ldr	r0, [r7, #4]
 577 031a 4FF00001 		mov	r1, #0
 578 031e FFF7FEFF 		bl	_ZN13CT6963CDriver16WriteDisplayDataEh
 191:../GraphicLCD/CT6963CDriver.cpp **** 	for(i = 0; i < GLCD_TEXT_SIZE; i++)
 579              		.loc 1 191 0 discriminator 2
 580 0322 FB68     		ldr	r3, [r7, #12]
 581 0324 03F10103 		add	r3, r3, #1
 582 0328 FB60     		str	r3, [r7, #12]
 583              	.L21:
 191:../GraphicLCD/CT6963CDriver.cpp **** 	for(i = 0; i < GLCD_TEXT_SIZE; i++)
 584              		.loc 1 191 0 is_stmt 0 discriminator 1
 585 032a FA68     		ldr	r2, [r7, #12]
 586 032c 40F2DF13 		movw	r3, #479
 587 0330 9A42     		cmp	r2, r3
 588 0332 8CBF     		ite	hi
 589 0334 0023     		movhi	r3, #0
 590 0336 0123     		movls	r3, #1
 591 0338 DBB2     		uxtb	r3, r3
 592 033a 002B     		cmp	r3, #0
 593 033c ECD1     		bne	.L22
 594              	.LBE6:
 194:../GraphicLCD/CT6963CDriver.cpp **** 	}
 195:../GraphicLCD/CT6963CDriver.cpp **** }
 595              		.loc 1 195 0 is_stmt 1
 596 033e 07F11007 		add	r7, r7, #16
 597 0342 BD46     		mov	sp, r7
 598 0344 80BD     		pop	{r7, pc}
 599              		.cfi_endproc
 600              	.LFE11:
 602 0346 00BF     		.align	2
 603              		.global	_ZN13CT6963CDriver16WriteDisplayDataEh
 604              		.thumb
 605              		.thumb_func
 607              	_ZN13CT6963CDriver16WriteDisplayDataEh:
 608              	.LFB12:
 196:../GraphicLCD/CT6963CDriver.cpp **** 
 197:../GraphicLCD/CT6963CDriver.cpp **** /**
 198:../GraphicLCD/CT6963CDriver.cpp ****   * @brief  writes incremental data to display ram
 199:../GraphicLCD/CT6963CDriver.cpp ****   * @param  data byte
 200:../GraphicLCD/CT6963CDriver.cpp ****   * @retval None
 201:../GraphicLCD/CT6963CDriver.cpp ****   */
 202:../GraphicLCD/CT6963CDriver.cpp **** void CT6963CDriver::WriteDisplayData(unsigned char x)
 203:../GraphicLCD/CT6963CDriver.cpp **** {
 609              		.loc 1 203 0
 610              		.cfi_startproc
 611              		@ args = 0, pretend = 0, frame = 8
 612              		@ frame_needed = 1, uses_anonymous_args = 0
 613 0348 80B5     		push	{r7, lr}
 614              	.LCFI24:
 615              		.cfi_def_cfa_offset 8
 616              		.cfi_offset 14, -4
 617              		.cfi_offset 7, -8
 618 034a 82B0     		sub	sp, sp, #8
 619              	.LCFI25:
 620              		.cfi_def_cfa_offset 16
 621 034c 00AF     		add	r7, sp, #0
 622              	.LCFI26:
 623              		.cfi_def_cfa_register 7
 624 034e 7860     		str	r0, [r7, #4]
 625 0350 0B46     		mov	r3, r1
 626 0352 FB70     		strb	r3, [r7, #3]
 204:../GraphicLCD/CT6963CDriver.cpp **** 	WriteData(x);
 627              		.loc 1 204 0
 628 0354 7B68     		ldr	r3, [r7, #4]
 629 0356 1B68     		ldr	r3, [r3, #0]
 630 0358 03F13803 		add	r3, r3, #56
 631 035c 1B68     		ldr	r3, [r3, #0]
 632 035e FA78     		ldrb	r2, [r7, #3]	@ zero_extendqisi2
 633 0360 7868     		ldr	r0, [r7, #4]
 634 0362 1146     		mov	r1, r2
 635 0364 9847     		blx	r3
 205:../GraphicLCD/CT6963CDriver.cpp **** 	WriteCommand(T6963_DATA_WRITE_AND_INCREMENT);
 636              		.loc 1 205 0
 637 0366 7B68     		ldr	r3, [r7, #4]
 638 0368 1B68     		ldr	r3, [r3, #0]
 639 036a 03F13403 		add	r3, r3, #52
 640 036e 1B68     		ldr	r3, [r3, #0]
 641 0370 7868     		ldr	r0, [r7, #4]
 642 0372 4FF0C001 		mov	r1, #192
 643 0376 9847     		blx	r3
 206:../GraphicLCD/CT6963CDriver.cpp **** }
 644              		.loc 1 206 0
 645 0378 07F10807 		add	r7, r7, #8
 646 037c BD46     		mov	sp, r7
 647 037e 80BD     		pop	{r7, pc}
 648              		.cfi_endproc
 649              	.LFE12:
 651              		.align	2
 652              		.global	_ZN13CT6963CDriver9WriteCharEc
 653              		.thumb
 654              		.thumb_func
 656              	_ZN13CT6963CDriver9WriteCharEc:
 657              	.LFB13:
 207:../GraphicLCD/CT6963CDriver.cpp **** 
 208:../GraphicLCD/CT6963CDriver.cpp **** /**
 209:../GraphicLCD/CT6963CDriver.cpp ****   * @brief  writes single ASCII char to display
 210:../GraphicLCD/CT6963CDriver.cpp ****   * @param  ASCII char
 211:../GraphicLCD/CT6963CDriver.cpp ****   * @retval None
 212:../GraphicLCD/CT6963CDriver.cpp ****   */
 213:../GraphicLCD/CT6963CDriver.cpp **** void CT6963CDriver::WriteChar(char charCode)
 214:../GraphicLCD/CT6963CDriver.cpp **** {
 658              		.loc 1 214 0
 659              		.cfi_startproc
 660              		@ args = 0, pretend = 0, frame = 8
 661              		@ frame_needed = 1, uses_anonymous_args = 0
 662 0380 80B5     		push	{r7, lr}
 663              	.LCFI27:
 664              		.cfi_def_cfa_offset 8
 665              		.cfi_offset 14, -4
 666              		.cfi_offset 7, -8
 667 0382 82B0     		sub	sp, sp, #8
 668              	.LCFI28:
 669              		.cfi_def_cfa_offset 16
 670 0384 00AF     		add	r7, sp, #0
 671              	.LCFI29:
 672              		.cfi_def_cfa_register 7
 673 0386 7860     		str	r0, [r7, #4]
 674 0388 0B46     		mov	r3, r1
 675 038a FB70     		strb	r3, [r7, #3]
 215:../GraphicLCD/CT6963CDriver.cpp **** 	WriteDisplayData(charCode - 32);
 676              		.loc 1 215 0
 677 038c FB78     		ldrb	r3, [r7, #3]
 678 038e A3F12003 		sub	r3, r3, #32
 679 0392 DBB2     		uxtb	r3, r3
 680 0394 7868     		ldr	r0, [r7, #4]
 681 0396 1946     		mov	r1, r3
 682 0398 FFF7FEFF 		bl	_ZN13CT6963CDriver16WriteDisplayDataEh
 216:../GraphicLCD/CT6963CDriver.cpp **** }
 683              		.loc 1 216 0
 684 039c 07F10807 		add	r7, r7, #8
 685 03a0 BD46     		mov	sp, r7
 686 03a2 80BD     		pop	{r7, pc}
 687              		.cfi_endproc
 688              	.LFE13:
 690              		.align	2
 691              		.global	_ZN13CT6963CDriver11WriteStringEPKcRK5tFontjj
 692              		.thumb
 693              		.thumb_func
 695              	_ZN13CT6963CDriver11WriteStringEPKcRK5tFontjj:
 696              	.LFB14:
 217:../GraphicLCD/CT6963CDriver.cpp **** 
 218:../GraphicLCD/CT6963CDriver.cpp **** /**
 219:../GraphicLCD/CT6963CDriver.cpp ****   * @brief  writes a string starting at upper left corner on (x,y) and specified font
 220:../GraphicLCD/CT6963CDriver.cpp ****   * 		ground must be cleared
 221:../GraphicLCD/CT6963CDriver.cpp ****   * @param  null terminated string, font structure, x, y
 222:../GraphicLCD/CT6963CDriver.cpp ****   * @retval None
 223:../GraphicLCD/CT6963CDriver.cpp ****   */
 224:../GraphicLCD/CT6963CDriver.cpp **** void CT6963CDriver::WriteString(const char * str, const tFont &font,unsigned int x, unsigned int y)
 225:../GraphicLCD/CT6963CDriver.cpp **** {
 697              		.loc 1 225 0
 698              		.cfi_startproc
 699              		@ args = 4, pretend = 0, frame = 48
 700              		@ frame_needed = 1, uses_anonymous_args = 0
 701 03a4 80B5     		push	{r7, lr}
 702              	.LCFI30:
 703              		.cfi_def_cfa_offset 8
 704              		.cfi_offset 14, -4
 705              		.cfi_offset 7, -8
 706 03a6 8CB0     		sub	sp, sp, #48
 707              	.LCFI31:
 708              		.cfi_def_cfa_offset 56
 709 03a8 00AF     		add	r7, sp, #0
 710              	.LCFI32:
 711              		.cfi_def_cfa_register 7
 712 03aa F860     		str	r0, [r7, #12]
 713 03ac B960     		str	r1, [r7, #8]
 714 03ae 7A60     		str	r2, [r7, #4]
 715 03b0 3B60     		str	r3, [r7, #0]
 716              	.LBB7:
 226:../GraphicLCD/CT6963CDriver.cpp **** 	unsigned int offset,width;
 227:../GraphicLCD/CT6963CDriver.cpp **** 	unsigned int i,j,map,height,allwidth=0;
 717              		.loc 1 227 0
 718 03b2 4FF00003 		mov	r3, #0
 719 03b6 3B62     		str	r3, [r7, #32]
 228:../GraphicLCD/CT6963CDriver.cpp **** 
 229:../GraphicLCD/CT6963CDriver.cpp **** 	// use internal Character generator
 230:../GraphicLCD/CT6963CDriver.cpp **** 	if(font.glyph_height == 0){
 720              		.loc 1 230 0
 721 03b8 7B68     		ldr	r3, [r7, #4]
 722 03ba 5B68     		ldr	r3, [r3, #4]
 723 03bc 002B     		cmp	r3, #0
 724 03be 40F0AA80 		bne	.L30
 231:../GraphicLCD/CT6963CDriver.cpp **** 		TextGoTo(x/GLCD_FONT_WIDTH, y/8);
 725              		.loc 1 231 0
 726 03c2 3B68     		ldr	r3, [r7, #0]
 727 03c4 4FEAD303 		lsr	r3, r3, #3
 728 03c8 DAB2     		uxtb	r2, r3
 729 03ca BB6B     		ldr	r3, [r7, #56]
 730 03cc 4FEAD303 		lsr	r3, r3, #3
 731 03d0 DBB2     		uxtb	r3, r3
 732 03d2 F868     		ldr	r0, [r7, #12]
 733 03d4 1146     		mov	r1, r2
 734 03d6 1A46     		mov	r2, r3
 735 03d8 FFF7FEFF 		bl	_ZN13CT6963CDriver8TextGoToEhh
 232:../GraphicLCD/CT6963CDriver.cpp **** 
 233:../GraphicLCD/CT6963CDriver.cpp **** 		while(*str)
 736              		.loc 1 233 0
 737 03dc 09E0     		b	.L27
 738              	.L28:
 234:../GraphicLCD/CT6963CDriver.cpp **** 		{
 235:../GraphicLCD/CT6963CDriver.cpp **** 			WriteChar(*str++);
 739              		.loc 1 235 0
 740 03de BB68     		ldr	r3, [r7, #8]
 741 03e0 1B78     		ldrb	r3, [r3, #0]	@ zero_extendqisi2
 742 03e2 BA68     		ldr	r2, [r7, #8]
 743 03e4 02F10102 		add	r2, r2, #1
 744 03e8 BA60     		str	r2, [r7, #8]
 745 03ea F868     		ldr	r0, [r7, #12]
 746 03ec 1946     		mov	r1, r3
 747 03ee FFF7FEFF 		bl	_ZN13CT6963CDriver9WriteCharEc
 748              	.L27:
 233:../GraphicLCD/CT6963CDriver.cpp **** 		while(*str)
 749              		.loc 1 233 0 discriminator 1
 750 03f2 BB68     		ldr	r3, [r7, #8]
 751 03f4 1B78     		ldrb	r3, [r3, #0]	@ zero_extendqisi2
 752 03f6 002B     		cmp	r3, #0
 753 03f8 0CBF     		ite	eq
 754 03fa 0023     		moveq	r3, #0
 755 03fc 0123     		movne	r3, #1
 756 03fe DBB2     		uxtb	r3, r3
 757 0400 002B     		cmp	r3, #0
 758 0402 ECD1     		bne	.L28
 233:../GraphicLCD/CT6963CDriver.cpp **** 		while(*str)
 759              		.loc 1 233 0 is_stmt 0
 760 0404 97E0     		b	.L25
 761              	.L37:
 236:../GraphicLCD/CT6963CDriver.cpp **** 		}
 237:../GraphicLCD/CT6963CDriver.cpp **** 
 238:../GraphicLCD/CT6963CDriver.cpp **** 	}
 239:../GraphicLCD/CT6963CDriver.cpp **** 	// generate fonts
 240:../GraphicLCD/CT6963CDriver.cpp **** 	else {
 241:../GraphicLCD/CT6963CDriver.cpp **** 		while((map = *str++))
 242:../GraphicLCD/CT6963CDriver.cpp **** 		{
 243:../GraphicLCD/CT6963CDriver.cpp **** 			// get char position in font table
 244:../GraphicLCD/CT6963CDriver.cpp **** 			map = font.mapping_table[map];
 762              		.loc 1 244 0 is_stmt 1
 763 0406 7B68     		ldr	r3, [r7, #4]
 764 0408 DA68     		ldr	r2, [r3, #12]
 765 040a FB69     		ldr	r3, [r7, #28]
 766 040c D318     		adds	r3, r2, r3
 767 040e 1B78     		ldrb	r3, [r3, #0]	@ zero_extendqisi2
 768 0410 FB61     		str	r3, [r7, #28]
 245:../GraphicLCD/CT6963CDriver.cpp **** 			// determine char width
 246:../GraphicLCD/CT6963CDriver.cpp **** 			width = font.glyph_width;
 769              		.loc 1 246 0
 770 0412 7B68     		ldr	r3, [r7, #4]
 771 0414 1B68     		ldr	r3, [r3, #0]
 772 0416 FB62     		str	r3, [r7, #44]
 247:../GraphicLCD/CT6963CDriver.cpp **** 			// font has no constant width
 248:../GraphicLCD/CT6963CDriver.cpp **** 			if(width == 0)
 773              		.loc 1 248 0
 774 0418 FB6A     		ldr	r3, [r7, #44]
 775 041a 002B     		cmp	r3, #0
 776 041c 05D1     		bne	.L31
 249:../GraphicLCD/CT6963CDriver.cpp **** 				width = font.width_table[map];
 777              		.loc 1 249 0
 778 041e 7B68     		ldr	r3, [r7, #4]
 779 0420 1A69     		ldr	r2, [r3, #16]
 780 0422 FB69     		ldr	r3, [r7, #28]
 781 0424 D318     		adds	r3, r2, r3
 782 0426 1B78     		ldrb	r3, [r3, #0]	@ zero_extendqisi2
 783 0428 FB62     		str	r3, [r7, #44]
 784              	.L31:
 250:../GraphicLCD/CT6963CDriver.cpp **** 
 251:../GraphicLCD/CT6963CDriver.cpp **** 			// char data offset
 252:../GraphicLCD/CT6963CDriver.cpp **** 			offset = font.offset_table[map];
 785              		.loc 1 252 0
 786 042a 7B68     		ldr	r3, [r7, #4]
 787 042c 5A69     		ldr	r2, [r3, #20]
 788 042e FB69     		ldr	r3, [r7, #28]
 789 0430 4FEA8303 		lsl	r3, r3, #2
 790 0434 D318     		adds	r3, r2, r3
 791 0436 1B68     		ldr	r3, [r3, #0]
 792 0438 BB61     		str	r3, [r7, #24]
 253:../GraphicLCD/CT6963CDriver.cpp **** 			// height is ever constant
 254:../GraphicLCD/CT6963CDriver.cpp **** 			height = font.glyph_height;
 793              		.loc 1 254 0
 794 043a 7B68     		ldr	r3, [r7, #4]
 795 043c 5B68     		ldr	r3, [r3, #4]
 796 043e 7B61     		str	r3, [r7, #20]
 255:../GraphicLCD/CT6963CDriver.cpp **** 
 256:../GraphicLCD/CT6963CDriver.cpp **** 			//step through all lines of an char
 257:../GraphicLCD/CT6963CDriver.cpp **** 			for(j=0 ; j<height * (((width-1)/8)+1) ; j+=(((width-1)/8)+1)    )
 797              		.loc 1 257 0
 798 0440 4FF00003 		mov	r3, #0
 799 0444 7B62     		str	r3, [r7, #36]
 800 0446 50E0     		b	.L32
 801              	.L36:
 258:../GraphicLCD/CT6963CDriver.cpp **** 			{   // step through every single point of a line of the char
 259:../GraphicLCD/CT6963CDriver.cpp **** 				for(i=0 ; i<width  ; i++)
 802              		.loc 1 259 0
 803 0448 4FF00003 		mov	r3, #0
 804 044c BB62     		str	r3, [r7, #40]
 805 044e 39E0     		b	.L33
 806              	.L35:
 260:../GraphicLCD/CT6963CDriver.cpp **** 				{   //  the pixel needs to be set
 261:../GraphicLCD/CT6963CDriver.cpp **** 					if( font.glyph_table[ offset+j+(i/8) ] & (1 << ( 7 - ( i % 8 ) ) ) )
 807              		.loc 1 261 0
 808 0450 7B68     		ldr	r3, [r7, #4]
 809 0452 9A68     		ldr	r2, [r3, #8]
 810 0454 B969     		ldr	r1, [r7, #24]
 811 0456 7B6A     		ldr	r3, [r7, #36]
 812 0458 C918     		adds	r1, r1, r3
 813 045a BB6A     		ldr	r3, [r7, #40]
 814 045c 4FEAD303 		lsr	r3, r3, #3
 815 0460 CB18     		adds	r3, r1, r3
 816 0462 D318     		adds	r3, r2, r3
 817 0464 1B78     		ldrb	r3, [r3, #0]	@ zero_extendqisi2
 818 0466 1A46     		mov	r2, r3
 819 0468 BB6A     		ldr	r3, [r7, #40]
 820 046a 6FEA0303 		mvn	r3, r3
 821 046e 03F00703 		and	r3, r3, #7
 822 0472 42FA03F3 		asr	r3, r2, r3
 823 0476 03F00103 		and	r3, r3, #1
 824 047a DBB2     		uxtb	r3, r3
 825 047c 002B     		cmp	r3, #0
 826 047e 1DD0     		beq	.L34
 262:../GraphicLCD/CT6963CDriver.cpp **** 						SetPixel( x+i+allwidth , y+j/ (((width-1)/8)+1)  );
 827              		.loc 1 262 0
 828 0480 3B68     		ldr	r3, [r7, #0]
 829 0482 DAB2     		uxtb	r2, r3
 830 0484 BB6A     		ldr	r3, [r7, #40]
 831 0486 DBB2     		uxtb	r3, r3
 832 0488 D318     		adds	r3, r2, r3
 833 048a DAB2     		uxtb	r2, r3
 834 048c 3B6A     		ldr	r3, [r7, #32]
 835 048e DBB2     		uxtb	r3, r3
 836 0490 D318     		adds	r3, r2, r3
 837 0492 DAB2     		uxtb	r2, r3
 838 0494 FB6A     		ldr	r3, [r7, #44]
 839 0496 03F1FF33 		add	r3, r3, #-1
 840 049a 4FEAD303 		lsr	r3, r3, #3
 841 049e 03F10103 		add	r3, r3, #1
 842 04a2 796A     		ldr	r1, [r7, #36]
 843 04a4 B1FBF3F3 		udiv	r3, r1, r3
 844 04a8 D9B2     		uxtb	r1, r3
 845 04aa BB6B     		ldr	r3, [r7, #56]
 846 04ac DBB2     		uxtb	r3, r3
 847 04ae CB18     		adds	r3, r1, r3
 848 04b0 DBB2     		uxtb	r3, r3
 849 04b2 F868     		ldr	r0, [r7, #12]
 850 04b4 1146     		mov	r1, r2
 851 04b6 1A46     		mov	r2, r3
 852 04b8 FFF7FEFF 		bl	_ZN13CT6963CDriver8SetPixelEhh
 853              	.L34:
 259:../GraphicLCD/CT6963CDriver.cpp **** 				for(i=0 ; i<width  ; i++)
 854              		.loc 1 259 0
 855 04bc BB6A     		ldr	r3, [r7, #40]
 856 04be 03F10103 		add	r3, r3, #1
 857 04c2 BB62     		str	r3, [r7, #40]
 858              	.L33:
 259:../GraphicLCD/CT6963CDriver.cpp **** 				for(i=0 ; i<width  ; i++)
 859              		.loc 1 259 0 is_stmt 0 discriminator 1
 860 04c4 BA6A     		ldr	r2, [r7, #40]
 861 04c6 FB6A     		ldr	r3, [r7, #44]
 862 04c8 9A42     		cmp	r2, r3
 863 04ca 2CBF     		ite	cs
 864 04cc 0023     		movcs	r3, #0
 865 04ce 0123     		movcc	r3, #1
 866 04d0 DBB2     		uxtb	r3, r3
 867 04d2 002B     		cmp	r3, #0
 868 04d4 BCD1     		bne	.L35
 257:../GraphicLCD/CT6963CDriver.cpp **** 			for(j=0 ; j<height * (((width-1)/8)+1) ; j+=(((width-1)/8)+1)    )
 869              		.loc 1 257 0 is_stmt 1
 870 04d6 FB6A     		ldr	r3, [r7, #44]
 871 04d8 03F1FF33 		add	r3, r3, #-1
 872 04dc 4FEAD302 		lsr	r2, r3, #3
 873 04e0 7B6A     		ldr	r3, [r7, #36]
 874 04e2 D318     		adds	r3, r2, r3
 875 04e4 03F10103 		add	r3, r3, #1
 876 04e8 7B62     		str	r3, [r7, #36]
 877              	.L32:
 257:../GraphicLCD/CT6963CDriver.cpp **** 			for(j=0 ; j<height * (((width-1)/8)+1) ; j+=(((width-1)/8)+1)    )
 878              		.loc 1 257 0 is_stmt 0 discriminator 1
 879 04ea FB6A     		ldr	r3, [r7, #44]
 880 04ec 03F1FF33 		add	r3, r3, #-1
 881 04f0 4FEAD303 		lsr	r3, r3, #3
 882 04f4 03F10103 		add	r3, r3, #1
 883 04f8 7A69     		ldr	r2, [r7, #20]
 884 04fa 02FB03F2 		mul	r2, r2, r3
 885 04fe 7B6A     		ldr	r3, [r7, #36]
 886 0500 9A42     		cmp	r2, r3
 887 0502 94BF     		ite	ls
 888 0504 0023     		movls	r3, #0
 889 0506 0123     		movhi	r3, #1
 890 0508 DBB2     		uxtb	r3, r3
 891 050a 002B     		cmp	r3, #0
 892 050c 9CD1     		bne	.L36
 263:../GraphicLCD/CT6963CDriver.cpp **** 				}//End i
 264:../GraphicLCD/CT6963CDriver.cpp **** 			}// End j
 265:../GraphicLCD/CT6963CDriver.cpp **** 			//remember string width to set the next char directly net to the previous
 266:../GraphicLCD/CT6963CDriver.cpp **** 			allwidth+=width;
 893              		.loc 1 266 0 is_stmt 1
 894 050e 3A6A     		ldr	r2, [r7, #32]
 895 0510 FB6A     		ldr	r3, [r7, #44]
 896 0512 D318     		adds	r3, r2, r3
 897 0514 3B62     		str	r3, [r7, #32]
 898              	.L30:
 241:../GraphicLCD/CT6963CDriver.cpp **** 		while((map = *str++))
 899              		.loc 1 241 0 discriminator 1
 900 0516 BB68     		ldr	r3, [r7, #8]
 901 0518 1B78     		ldrb	r3, [r3, #0]	@ zero_extendqisi2
 902 051a FB61     		str	r3, [r7, #28]
 903 051c FB69     		ldr	r3, [r7, #28]
 904 051e 002B     		cmp	r3, #0
 905 0520 0CBF     		ite	eq
 906 0522 0023     		moveq	r3, #0
 907 0524 0123     		movne	r3, #1
 908 0526 DBB2     		uxtb	r3, r3
 909 0528 BA68     		ldr	r2, [r7, #8]
 910 052a 02F10102 		add	r2, r2, #1
 911 052e BA60     		str	r2, [r7, #8]
 912 0530 002B     		cmp	r3, #0
 913 0532 7FF468AF 		bne	.L37
 914              	.L25:
 915              	.LBE7:
 267:../GraphicLCD/CT6963CDriver.cpp **** 		}
 268:../GraphicLCD/CT6963CDriver.cpp **** 
 269:../GraphicLCD/CT6963CDriver.cpp **** 	}
 270:../GraphicLCD/CT6963CDriver.cpp **** 
 271:../GraphicLCD/CT6963CDriver.cpp **** }
 916              		.loc 1 271 0
 917 0536 07F13007 		add	r7, r7, #48
 918 053a BD46     		mov	sp, r7
 919 053c 80BD     		pop	{r7, pc}
 920              		.cfi_endproc
 921              	.LFE14:
 923 053e 00BF     		.align	2
 924              		.global	_ZN13CT6963CDriver8SetPixelEhh
 925              		.thumb
 926              		.thumb_func
 928              	_ZN13CT6963CDriver8SetPixelEhh:
 929              	.LFB15:
 272:../GraphicLCD/CT6963CDriver.cpp **** 
 273:../GraphicLCD/CT6963CDriver.cpp **** 
 274:../GraphicLCD/CT6963CDriver.cpp **** /**
 275:../GraphicLCD/CT6963CDriver.cpp ****   * @brief  sets a pixel in graphics ram
 276:../GraphicLCD/CT6963CDriver.cpp ****   * @param  coordinates from upper left corner
 277:../GraphicLCD/CT6963CDriver.cpp ****   * @retval None
 278:../GraphicLCD/CT6963CDriver.cpp ****   */
 279:../GraphicLCD/CT6963CDriver.cpp **** void CT6963CDriver::SetPixel(unsigned char x, unsigned char y)
 280:../GraphicLCD/CT6963CDriver.cpp **** {
 930              		.loc 1 280 0
 931              		.cfi_startproc
 932              		@ args = 0, pretend = 0, frame = 16
 933              		@ frame_needed = 1, uses_anonymous_args = 0
 934 0540 80B5     		push	{r7, lr}
 935              	.LCFI33:
 936              		.cfi_def_cfa_offset 8
 937              		.cfi_offset 14, -4
 938              		.cfi_offset 7, -8
 939 0542 84B0     		sub	sp, sp, #16
 940              	.LCFI34:
 941              		.cfi_def_cfa_offset 24
 942 0544 00AF     		add	r7, sp, #0
 943              	.LCFI35:
 944              		.cfi_def_cfa_register 7
 945 0546 7860     		str	r0, [r7, #4]
 946 0548 1346     		mov	r3, r2
 947 054a 0A46     		mov	r2, r1
 948 054c FA70     		strb	r2, [r7, #3]
 949 054e BB70     		strb	r3, [r7, #2]
 950              	.LBB8:
 281:../GraphicLCD/CT6963CDriver.cpp **** 	unsigned char tmp;
 282:../GraphicLCD/CT6963CDriver.cpp **** 
 283:../GraphicLCD/CT6963CDriver.cpp **** 	// do nothing for pixel out of range
 284:../GraphicLCD/CT6963CDriver.cpp **** 	if(x > (GLCD_PIXELS_PER_LINE-1) || y > (GLCD_NUMBER_OF_LINES-1))
 951              		.loc 1 284 0
 952 0550 FB78     		ldrb	r3, [r7, #3]	@ zero_extendqisi2
 953 0552 EF2B     		cmp	r3, #239
 954 0554 32D8     		bhi	.L43
 955              		.loc 1 284 0 is_stmt 0 discriminator 1
 956 0556 BB78     		ldrb	r3, [r7, #2]	@ zero_extendqisi2
 957 0558 5BB2     		sxtb	r3, r3
 958 055a 002B     		cmp	r3, #0
 959 055c 2EDB     		blt	.L43
 960              	.L40:
 285:../GraphicLCD/CT6963CDriver.cpp **** 		return;
 286:../GraphicLCD/CT6963CDriver.cpp **** 
 287:../GraphicLCD/CT6963CDriver.cpp **** 	GraphicGoTo(x,y);
 961              		.loc 1 287 0 is_stmt 1
 962 055e FA78     		ldrb	r2, [r7, #3]	@ zero_extendqisi2
 963 0560 BB78     		ldrb	r3, [r7, #2]	@ zero_extendqisi2
 964 0562 7868     		ldr	r0, [r7, #4]
 965 0564 1146     		mov	r1, r2
 966 0566 1A46     		mov	r2, r3
 967 0568 FFF7FEFF 		bl	_ZN13CT6963CDriver11GraphicGoToEhh
 288:../GraphicLCD/CT6963CDriver.cpp **** 
 289:../GraphicLCD/CT6963CDriver.cpp **** 
 290:../GraphicLCD/CT6963CDriver.cpp **** 	tmp = (GLCD_FONT_WIDTH - 1) - (x % GLCD_FONT_WIDTH);
 968              		.loc 1 290 0
 969 056c FB78     		ldrb	r3, [r7, #3]
 970 056e 6FEA0303 		mvn	r3, r3
 971 0572 DBB2     		uxtb	r3, r3
 972 0574 03F00703 		and	r3, r3, #7
 973 0578 FB73     		strb	r3, [r7, #15]
 291:../GraphicLCD/CT6963CDriver.cpp **** 
 292:../GraphicLCD/CT6963CDriver.cpp **** 	if(Inverse())
 974              		.loc 1 292 0
 975 057a 7B68     		ldr	r3, [r7, #4]
 976 057c 1846     		mov	r0, r3
 977 057e FFF7FEFF 		bl	_ZN11CGraphicLCD7InverseEv
 978 0582 0346     		mov	r3, r0
 979 0584 002B     		cmp	r3, #0
 980 0586 0CD0     		beq	.L42
 293:../GraphicLCD/CT6963CDriver.cpp **** 		WriteCommand(T6963_BIT_RESET | tmp);
 981              		.loc 1 293 0
 982 0588 7B68     		ldr	r3, [r7, #4]
 983 058a 1B68     		ldr	r3, [r3, #0]
 984 058c 03F13403 		add	r3, r3, #52
 985 0590 1B68     		ldr	r3, [r3, #0]
 986 0592 FA7B     		ldrb	r2, [r7, #15]
 987 0594 62F00F02 		orn	r2, r2, #15
 988 0598 D2B2     		uxtb	r2, r2
 989 059a 7868     		ldr	r0, [r7, #4]
 990 059c 1146     		mov	r1, r2
 991 059e 9847     		blx	r3
 992 05a0 0DE0     		b	.L38
 993              	.L42:
 294:../GraphicLCD/CT6963CDriver.cpp **** 	else
 295:../GraphicLCD/CT6963CDriver.cpp **** 		WriteCommand(T6963_BIT_SET | tmp);
 994              		.loc 1 295 0
 995 05a2 7B68     		ldr	r3, [r7, #4]
 996 05a4 1B68     		ldr	r3, [r3, #0]
 997 05a6 03F13403 		add	r3, r3, #52
 998 05aa 1B68     		ldr	r3, [r3, #0]
 999 05ac FA7B     		ldrb	r2, [r7, #15]
 1000 05ae 62F00702 		orn	r2, r2, #7
 1001 05b2 D2B2     		uxtb	r2, r2
 1002 05b4 7868     		ldr	r0, [r7, #4]
 1003 05b6 1146     		mov	r1, r2
 1004 05b8 9847     		blx	r3
 1005 05ba 00E0     		b	.L38
 1006              	.L43:
 285:../GraphicLCD/CT6963CDriver.cpp **** 		return;
 1007              		.loc 1 285 0
 1008 05bc 00BF     		nop
 1009              	.L38:
 1010              	.LBE8:
 296:../GraphicLCD/CT6963CDriver.cpp **** }
 1011              		.loc 1 296 0
 1012 05be 07F11007 		add	r7, r7, #16
 1013 05c2 BD46     		mov	sp, r7
 1014 05c4 80BD     		pop	{r7, pc}
 1015              		.cfi_endproc
 1016              	.LFE15:
 1018 05c6 00BF     		.align	2
 1019              		.global	_ZN13CT6963CDriver4LineEjjjj
 1020              		.thumb
 1021              		.thumb_func
 1023              	_ZN13CT6963CDriver4LineEjjjj:
 1024              	.LFB16:
 297:../GraphicLCD/CT6963CDriver.cpp **** 
 298:../GraphicLCD/CT6963CDriver.cpp **** /**
 299:../GraphicLCD/CT6963CDriver.cpp ****   * @brief  draw a line from (x1,y1) to (x2,y2)
 300:../GraphicLCD/CT6963CDriver.cpp ****   * @param  x1,y1,x2,y2
 301:../GraphicLCD/CT6963CDriver.cpp ****   * @retval None
 302:../GraphicLCD/CT6963CDriver.cpp ****   *
 303:../GraphicLCD/CT6963CDriver.cpp ****   * Copyright (c) Radoslaw Kwiecien, 2007r
 304:../GraphicLCD/CT6963CDriver.cpp ****   * http://en.radzio.dxp.pl/t6963/
 305:../GraphicLCD/CT6963CDriver.cpp ****   */
 306:../GraphicLCD/CT6963CDriver.cpp **** void CT6963CDriver::Line(unsigned int x1, unsigned int y1,unsigned int x2, unsigned int y2){
 1025              		.loc 1 306 0
 1026              		.cfi_startproc
 1027              		@ args = 4, pretend = 0, frame = 56
 1028              		@ frame_needed = 1, uses_anonymous_args = 0
 1029 05c8 80B5     		push	{r7, lr}
 1030              	.LCFI36:
 1031              		.cfi_def_cfa_offset 8
 1032              		.cfi_offset 14, -4
 1033              		.cfi_offset 7, -8
 1034 05ca 8EB0     		sub	sp, sp, #56
 1035              	.LCFI37:
 1036              		.cfi_def_cfa_offset 64
 1037 05cc 00AF     		add	r7, sp, #0
 1038              	.LCFI38:
 1039              		.cfi_def_cfa_register 7
 1040 05ce F860     		str	r0, [r7, #12]
 1041 05d0 B960     		str	r1, [r7, #8]
 1042 05d2 7A60     		str	r2, [r7, #4]
 1043 05d4 3B60     		str	r3, [r7, #0]
 1044              	.LBB9:
 307:../GraphicLCD/CT6963CDriver.cpp **** 	unsigned int CurrentX, CurrentY;
 308:../GraphicLCD/CT6963CDriver.cpp **** 	int Xinc, Yinc,
 309:../GraphicLCD/CT6963CDriver.cpp **** 	Dx, Dy, TwoDx, TwoDy,
 310:../GraphicLCD/CT6963CDriver.cpp **** 	TwoDxAccumulatedError, TwoDyAccumulatedError;
 311:../GraphicLCD/CT6963CDriver.cpp **** 
 312:../GraphicLCD/CT6963CDriver.cpp **** 	Dx = (x2-x1);
 1045              		.loc 1 312 0
 1046 05d6 3A68     		ldr	r2, [r7, #0]
 1047 05d8 BB68     		ldr	r3, [r7, #8]
 1048 05da D31A     		subs	r3, r2, r3
 1049 05dc 7B62     		str	r3, [r7, #36]
 313:../GraphicLCD/CT6963CDriver.cpp **** 	Dy = (y2-y1);
 1050              		.loc 1 313 0
 1051 05de 3A6C     		ldr	r2, [r7, #64]
 1052 05e0 7B68     		ldr	r3, [r7, #4]
 1053 05e2 D31A     		subs	r3, r2, r3
 1054 05e4 3B62     		str	r3, [r7, #32]
 314:../GraphicLCD/CT6963CDriver.cpp **** 
 315:../GraphicLCD/CT6963CDriver.cpp **** 	TwoDx = Dx + Dx;
 1055              		.loc 1 315 0
 1056 05e6 7A6A     		ldr	r2, [r7, #36]
 1057 05e8 7B6A     		ldr	r3, [r7, #36]
 1058 05ea D318     		adds	r3, r2, r3
 1059 05ec FB61     		str	r3, [r7, #28]
 316:../GraphicLCD/CT6963CDriver.cpp **** 	TwoDy = Dy + Dy;
 1060              		.loc 1 316 0
 1061 05ee 3A6A     		ldr	r2, [r7, #32]
 1062 05f0 3B6A     		ldr	r3, [r7, #32]
 1063 05f2 D318     		adds	r3, r2, r3
 1064 05f4 BB61     		str	r3, [r7, #24]
 317:../GraphicLCD/CT6963CDriver.cpp **** 
 318:../GraphicLCD/CT6963CDriver.cpp **** 	CurrentX = x1;
 1065              		.loc 1 318 0
 1066 05f6 BB68     		ldr	r3, [r7, #8]
 1067 05f8 7B63     		str	r3, [r7, #52]
 319:../GraphicLCD/CT6963CDriver.cpp **** 	CurrentY = y1;
 1068              		.loc 1 319 0
 1069 05fa 7B68     		ldr	r3, [r7, #4]
 1070 05fc 3B63     		str	r3, [r7, #48]
 320:../GraphicLCD/CT6963CDriver.cpp **** 
 321:../GraphicLCD/CT6963CDriver.cpp **** 	Xinc = 1;
 1071              		.loc 1 321 0
 1072 05fe 4FF00103 		mov	r3, #1
 1073 0602 FB62     		str	r3, [r7, #44]
 322:../GraphicLCD/CT6963CDriver.cpp **** 	Yinc = 1;
 1074              		.loc 1 322 0
 1075 0604 4FF00103 		mov	r3, #1
 1076 0608 BB62     		str	r3, [r7, #40]
 323:../GraphicLCD/CT6963CDriver.cpp **** 
 324:../GraphicLCD/CT6963CDriver.cpp **** 	if(Dx < 0)	// line from right to left
 1077              		.loc 1 324 0
 1078 060a 7B6A     		ldr	r3, [r7, #36]
 1079 060c 002B     		cmp	r3, #0
 1080 060e 0ADA     		bge	.L45
 325:../GraphicLCD/CT6963CDriver.cpp **** 	{
 326:../GraphicLCD/CT6963CDriver.cpp **** 		Xinc = -1;
 1081              		.loc 1 326 0
 1082 0610 4FF0FF33 		mov	r3, #-1
 1083 0614 FB62     		str	r3, [r7, #44]
 327:../GraphicLCD/CT6963CDriver.cpp **** 		Dx = -Dx;
 1084              		.loc 1 327 0
 1085 0616 7B6A     		ldr	r3, [r7, #36]
 1086 0618 C3F10003 		rsb	r3, r3, #0
 1087 061c 7B62     		str	r3, [r7, #36]
 328:../GraphicLCD/CT6963CDriver.cpp **** 		TwoDx = -TwoDx;
 1088              		.loc 1 328 0
 1089 061e FB69     		ldr	r3, [r7, #28]
 1090 0620 C3F10003 		rsb	r3, r3, #0
 1091 0624 FB61     		str	r3, [r7, #28]
 1092              	.L45:
 329:../GraphicLCD/CT6963CDriver.cpp **** 	}
 330:../GraphicLCD/CT6963CDriver.cpp **** 
 331:../GraphicLCD/CT6963CDriver.cpp **** 	if (Dy < 0) // line from bottom to top
 1093              		.loc 1 331 0
 1094 0626 3B6A     		ldr	r3, [r7, #32]
 1095 0628 002B     		cmp	r3, #0
 1096 062a 0ADA     		bge	.L46
 332:../GraphicLCD/CT6963CDriver.cpp **** 	{
 333:../GraphicLCD/CT6963CDriver.cpp **** 		Yinc = -1;
 1097              		.loc 1 333 0
 1098 062c 4FF0FF33 		mov	r3, #-1
 1099 0630 BB62     		str	r3, [r7, #40]
 334:../GraphicLCD/CT6963CDriver.cpp **** 		Dy = -Dy;
 1100              		.loc 1 334 0
 1101 0632 3B6A     		ldr	r3, [r7, #32]
 1102 0634 C3F10003 		rsb	r3, r3, #0
 1103 0638 3B62     		str	r3, [r7, #32]
 335:../GraphicLCD/CT6963CDriver.cpp **** 		TwoDy = -TwoDy;
 1104              		.loc 1 335 0
 1105 063a BB69     		ldr	r3, [r7, #24]
 1106 063c C3F10003 		rsb	r3, r3, #0
 1107 0640 BB61     		str	r3, [r7, #24]
 1108              	.L46:
 336:../GraphicLCD/CT6963CDriver.cpp **** 	}
 337:../GraphicLCD/CT6963CDriver.cpp **** 
 338:../GraphicLCD/CT6963CDriver.cpp **** 	SetPixel(x1,y1); // starting point
 1109              		.loc 1 338 0
 1110 0642 BB68     		ldr	r3, [r7, #8]
 1111 0644 DAB2     		uxtb	r2, r3
 1112 0646 7B68     		ldr	r3, [r7, #4]
 1113 0648 DBB2     		uxtb	r3, r3
 1114 064a F868     		ldr	r0, [r7, #12]
 1115 064c 1146     		mov	r1, r2
 1116 064e 1A46     		mov	r2, r3
 1117 0650 FFF7FEFF 		bl	_ZN13CT6963CDriver8SetPixelEhh
 339:../GraphicLCD/CT6963CDriver.cpp **** 
 340:../GraphicLCD/CT6963CDriver.cpp **** 	if ((Dx != 0) || (Dy != 0)) // line is vertical or horizontal
 1118              		.loc 1 340 0
 1119 0654 7B6A     		ldr	r3, [r7, #36]
 1120 0656 002B     		cmp	r3, #0
 1121 0658 02D1     		bne	.L47
 1122              		.loc 1 340 0 is_stmt 0 discriminator 1
 1123 065a 3B6A     		ldr	r3, [r7, #32]
 1124 065c 002B     		cmp	r3, #0
 1125 065e 56D0     		beq	.L44
 1126              	.L47:
 341:../GraphicLCD/CT6963CDriver.cpp **** 	{
 342:../GraphicLCD/CT6963CDriver.cpp **** 
 343:../GraphicLCD/CT6963CDriver.cpp **** 		if (Dy <= Dx) // x is running var
 1127              		.loc 1 343 0 is_stmt 1
 1128 0660 3A6A     		ldr	r2, [r7, #32]
 1129 0662 7B6A     		ldr	r3, [r7, #36]
 1130 0664 9A42     		cmp	r2, r3
 1131 0666 29DC     		bgt	.L49
 344:../GraphicLCD/CT6963CDriver.cpp **** 		{
 345:../GraphicLCD/CT6963CDriver.cpp **** 			TwoDxAccumulatedError = 0;
 1132              		.loc 1 345 0
 1133 0668 4FF00003 		mov	r3, #0
 1134 066c 7B61     		str	r3, [r7, #20]
 1135              	.L51:
 346:../GraphicLCD/CT6963CDriver.cpp **** 			do
 347:../GraphicLCD/CT6963CDriver.cpp **** 			{
 348:../GraphicLCD/CT6963CDriver.cpp **** 				CurrentX += Xinc; // step X
 1136              		.loc 1 348 0
 1137 066e FB6A     		ldr	r3, [r7, #44]
 1138 0670 7A6B     		ldr	r2, [r7, #52]
 1139 0672 D318     		adds	r3, r2, r3
 1140 0674 7B63     		str	r3, [r7, #52]
 349:../GraphicLCD/CT6963CDriver.cpp **** 				TwoDxAccumulatedError += TwoDy;
 1141              		.loc 1 349 0
 1142 0676 7A69     		ldr	r2, [r7, #20]
 1143 0678 BB69     		ldr	r3, [r7, #24]
 1144 067a D318     		adds	r3, r2, r3
 1145 067c 7B61     		str	r3, [r7, #20]
 350:../GraphicLCD/CT6963CDriver.cpp **** 				if(TwoDxAccumulatedError > Dx)  // Increase Y
 1146              		.loc 1 350 0
 1147 067e 7A69     		ldr	r2, [r7, #20]
 1148 0680 7B6A     		ldr	r3, [r7, #36]
 1149 0682 9A42     		cmp	r2, r3
 1150 0684 07DD     		ble	.L50
 351:../GraphicLCD/CT6963CDriver.cpp **** 				{
 352:../GraphicLCD/CT6963CDriver.cpp **** 					CurrentY += Yinc;
 1151              		.loc 1 352 0
 1152 0686 BB6A     		ldr	r3, [r7, #40]
 1153 0688 3A6B     		ldr	r2, [r7, #48]
 1154 068a D318     		adds	r3, r2, r3
 1155 068c 3B63     		str	r3, [r7, #48]
 353:../GraphicLCD/CT6963CDriver.cpp **** 					TwoDxAccumulatedError -= TwoDx;
 1156              		.loc 1 353 0
 1157 068e 7A69     		ldr	r2, [r7, #20]
 1158 0690 FB69     		ldr	r3, [r7, #28]
 1159 0692 D31A     		subs	r3, r2, r3
 1160 0694 7B61     		str	r3, [r7, #20]
 1161              	.L50:
 354:../GraphicLCD/CT6963CDriver.cpp **** 				}
 355:../GraphicLCD/CT6963CDriver.cpp **** 				SetPixel(CurrentX,CurrentY);
 1162              		.loc 1 355 0
 1163 0696 7B6B     		ldr	r3, [r7, #52]
 1164 0698 DAB2     		uxtb	r2, r3
 1165 069a 3B6B     		ldr	r3, [r7, #48]
 1166 069c DBB2     		uxtb	r3, r3
 1167 069e F868     		ldr	r0, [r7, #12]
 1168 06a0 1146     		mov	r1, r2
 1169 06a2 1A46     		mov	r2, r3
 1170 06a4 FFF7FEFF 		bl	_ZN13CT6963CDriver8SetPixelEhh
 346:../GraphicLCD/CT6963CDriver.cpp **** 			do
 1171              		.loc 1 346 0
 1172 06a8 7A6B     		ldr	r2, [r7, #52]
 1173 06aa 3B68     		ldr	r3, [r7, #0]
 1174 06ac 9A42     		cmp	r2, r3
 1175 06ae 0CBF     		ite	eq
 1176 06b0 0023     		moveq	r3, #0
 1177 06b2 0123     		movne	r3, #1
 1178 06b4 DBB2     		uxtb	r3, r3
 1179 06b6 002B     		cmp	r3, #0
 1180 06b8 D9D1     		bne	.L51
 1181 06ba 28E0     		b	.L44
 1182              	.L49:
 356:../GraphicLCD/CT6963CDriver.cpp **** 			}while (CurrentX != x2); // line finished
 357:../GraphicLCD/CT6963CDriver.cpp **** 		}
 358:../GraphicLCD/CT6963CDriver.cpp **** 		else // y is running var
 359:../GraphicLCD/CT6963CDriver.cpp **** 		{
 360:../GraphicLCD/CT6963CDriver.cpp **** 			TwoDyAccumulatedError = 0;
 1183              		.loc 1 360 0
 1184 06bc 4FF00003 		mov	r3, #0
 1185 06c0 3B61     		str	r3, [r7, #16]
 1186              	.L53:
 361:../GraphicLCD/CT6963CDriver.cpp **** 			do
 362:../GraphicLCD/CT6963CDriver.cpp **** 			{
 363:../GraphicLCD/CT6963CDriver.cpp **** 				CurrentY += Yinc;
 1187              		.loc 1 363 0
 1188 06c2 BB6A     		ldr	r3, [r7, #40]
 1189 06c4 3A6B     		ldr	r2, [r7, #48]
 1190 06c6 D318     		adds	r3, r2, r3
 1191 06c8 3B63     		str	r3, [r7, #48]
 364:../GraphicLCD/CT6963CDriver.cpp **** 				TwoDyAccumulatedError += TwoDx;
 1192              		.loc 1 364 0
 1193 06ca 3A69     		ldr	r2, [r7, #16]
 1194 06cc FB69     		ldr	r3, [r7, #28]
 1195 06ce D318     		adds	r3, r2, r3
 1196 06d0 3B61     		str	r3, [r7, #16]
 365:../GraphicLCD/CT6963CDriver.cpp **** 				if(TwoDyAccumulatedError>Dy)
 1197              		.loc 1 365 0
 1198 06d2 3A69     		ldr	r2, [r7, #16]
 1199 06d4 3B6A     		ldr	r3, [r7, #32]
 1200 06d6 9A42     		cmp	r2, r3
 1201 06d8 07DD     		ble	.L52
 366:../GraphicLCD/CT6963CDriver.cpp **** 				{
 367:../GraphicLCD/CT6963CDriver.cpp **** 					CurrentX += Xinc;
 1202              		.loc 1 367 0
 1203 06da FB6A     		ldr	r3, [r7, #44]
 1204 06dc 7A6B     		ldr	r2, [r7, #52]
 1205 06de D318     		adds	r3, r2, r3
 1206 06e0 7B63     		str	r3, [r7, #52]
 368:../GraphicLCD/CT6963CDriver.cpp **** 					TwoDyAccumulatedError -= TwoDy;
 1207              		.loc 1 368 0
 1208 06e2 3A69     		ldr	r2, [r7, #16]
 1209 06e4 BB69     		ldr	r3, [r7, #24]
 1210 06e6 D31A     		subs	r3, r2, r3
 1211 06e8 3B61     		str	r3, [r7, #16]
 1212              	.L52:
 369:../GraphicLCD/CT6963CDriver.cpp **** 				}
 370:../GraphicLCD/CT6963CDriver.cpp **** 				SetPixel(CurrentX,CurrentY);
 1213              		.loc 1 370 0
 1214 06ea 7B6B     		ldr	r3, [r7, #52]
 1215 06ec DAB2     		uxtb	r2, r3
 1216 06ee 3B6B     		ldr	r3, [r7, #48]
 1217 06f0 DBB2     		uxtb	r3, r3
 1218 06f2 F868     		ldr	r0, [r7, #12]
 1219 06f4 1146     		mov	r1, r2
 1220 06f6 1A46     		mov	r2, r3
 1221 06f8 FFF7FEFF 		bl	_ZN13CT6963CDriver8SetPixelEhh
 361:../GraphicLCD/CT6963CDriver.cpp **** 			do
 1222              		.loc 1 361 0
 1223 06fc 3A6B     		ldr	r2, [r7, #48]
 1224 06fe 3B6C     		ldr	r3, [r7, #64]
 1225 0700 9A42     		cmp	r2, r3
 1226 0702 0CBF     		ite	eq
 1227 0704 0023     		moveq	r3, #0
 1228 0706 0123     		movne	r3, #1
 1229 0708 DBB2     		uxtb	r3, r3
 1230 070a 002B     		cmp	r3, #0
 1231 070c D9D1     		bne	.L53
 1232              	.L44:
 1233              	.LBE9:
 371:../GraphicLCD/CT6963CDriver.cpp **** 			}while (CurrentY != y2); // line finished
 372:../GraphicLCD/CT6963CDriver.cpp **** 		}
 373:../GraphicLCD/CT6963CDriver.cpp **** 	}
 374:../GraphicLCD/CT6963CDriver.cpp **** }
 1234              		.loc 1 374 0
 1235 070e 07F13807 		add	r7, r7, #56
 1236 0712 BD46     		mov	sp, r7
 1237 0714 80BD     		pop	{r7, pc}
 1238              		.cfi_endproc
 1239              	.LFE16:
 1241 0716 00BF     		.align	2
 1242              		.global	_ZN13CT6963CDriver6WindowEjjjj
 1243              		.thumb
 1244              		.thumb_func
 1246              	_ZN13CT6963CDriver6WindowEjjjj:
 1247              	.LFB17:
 375:../GraphicLCD/CT6963CDriver.cpp **** 
 376:../GraphicLCD/CT6963CDriver.cpp **** /**
 377:../GraphicLCD/CT6963CDriver.cpp ****   * @brief  draw a window with upper left corner at (x,y) and specified width and height, edges rou
 378:../GraphicLCD/CT6963CDriver.cpp ****   * @param  x1,y1,width,heigth, edge type enum
 379:../GraphicLCD/CT6963CDriver.cpp ****   * @retval None
 380:../GraphicLCD/CT6963CDriver.cpp ****   */
 381:../GraphicLCD/CT6963CDriver.cpp **** void CT6963CDriver::Window(unsigned int x,unsigned int y,unsigned int width,unsigned int height){
 1248              		.loc 1 381 0
 1249              		.cfi_startproc
 1250              		@ args = 4, pretend = 0, frame = 24
 1251              		@ frame_needed = 1, uses_anonymous_args = 0
 1252 0718 B0B5     		push	{r4, r5, r7, lr}
 1253              	.LCFI39:
 1254              		.cfi_def_cfa_offset 16
 1255              		.cfi_offset 14, -4
 1256              		.cfi_offset 7, -8
 1257              		.cfi_offset 5, -12
 1258              		.cfi_offset 4, -16
 1259 071a 88B0     		sub	sp, sp, #32
 1260              	.LCFI40:
 1261              		.cfi_def_cfa_offset 48
 1262 071c 02AF     		add	r7, sp, #8
 1263              	.LCFI41:
 1264              		.cfi_def_cfa 7, 40
 1265 071e F860     		str	r0, [r7, #12]
 1266 0720 B960     		str	r1, [r7, #8]
 1267 0722 7A60     		str	r2, [r7, #4]
 1268 0724 3B60     		str	r3, [r7, #0]
 1269              	.LBB10:
 382:../GraphicLCD/CT6963CDriver.cpp **** 	unsigned int i;
 383:../GraphicLCD/CT6963CDriver.cpp **** 
 384:../GraphicLCD/CT6963CDriver.cpp **** 	Rectangle(x+3,y,width-4,4,true); // filled top bar
 1270              		.loc 1 384 0
 1271 0726 FB68     		ldr	r3, [r7, #12]
 1272 0728 1B68     		ldr	r3, [r3, #0]
 1273 072a 03F10C03 		add	r3, r3, #12
 1274 072e 1C68     		ldr	r4, [r3, #0]
 1275 0730 BB68     		ldr	r3, [r7, #8]
 1276 0732 03F10302 		add	r2, r3, #3
 1277 0736 3B68     		ldr	r3, [r7, #0]
 1278 0738 A3F10403 		sub	r3, r3, #4
 1279 073c 4FF00401 		mov	r1, #4
 1280 0740 0091     		str	r1, [sp, #0]
 1281 0742 4FF00101 		mov	r1, #1
 1282 0746 0191     		str	r1, [sp, #4]
 1283 0748 F868     		ldr	r0, [r7, #12]
 1284 074a 1146     		mov	r1, r2
 1285 074c 7A68     		ldr	r2, [r7, #4]
 1286 074e A047     		blx	r4
 385:../GraphicLCD/CT6963CDriver.cpp **** 	Line(x,y+4,x,y+height-4);			// left border
 1287              		.loc 1 385 0
 1288 0750 FB68     		ldr	r3, [r7, #12]
 1289 0752 1B68     		ldr	r3, [r3, #0]
 1290 0754 03F10403 		add	r3, r3, #4
 1291 0758 1C68     		ldr	r4, [r3, #0]
 1292 075a 7B68     		ldr	r3, [r7, #4]
 1293 075c 03F10403 		add	r3, r3, #4
 1294 0760 7968     		ldr	r1, [r7, #4]
 1295 0762 BA6A     		ldr	r2, [r7, #40]
 1296 0764 8A18     		adds	r2, r1, r2
 1297 0766 A2F10402 		sub	r2, r2, #4
 1298 076a 0092     		str	r2, [sp, #0]
 1299 076c F868     		ldr	r0, [r7, #12]
 1300 076e B968     		ldr	r1, [r7, #8]
 1301 0770 1A46     		mov	r2, r3
 1302 0772 BB68     		ldr	r3, [r7, #8]
 1303 0774 A047     		blx	r4
 386:../GraphicLCD/CT6963CDriver.cpp **** 	Line(x+width,y+4,x+width,y+height-4);// right border
 1304              		.loc 1 386 0
 1305 0776 FB68     		ldr	r3, [r7, #12]
 1306 0778 1B68     		ldr	r3, [r3, #0]
 1307 077a 03F10403 		add	r3, r3, #4
 1308 077e 1C68     		ldr	r4, [r3, #0]
 1309 0780 BA68     		ldr	r2, [r7, #8]
 1310 0782 3B68     		ldr	r3, [r7, #0]
 1311 0784 D118     		adds	r1, r2, r3
 1312 0786 7B68     		ldr	r3, [r7, #4]
 1313 0788 03F10402 		add	r2, r3, #4
 1314 078c B868     		ldr	r0, [r7, #8]
 1315 078e 3B68     		ldr	r3, [r7, #0]
 1316 0790 C318     		adds	r3, r0, r3
 1317 0792 7D68     		ldr	r5, [r7, #4]
 1318 0794 B86A     		ldr	r0, [r7, #40]
 1319 0796 2818     		adds	r0, r5, r0
 1320 0798 A0F10400 		sub	r0, r0, #4
 1321 079c 0090     		str	r0, [sp, #0]
 1322 079e F868     		ldr	r0, [r7, #12]
 1323 07a0 A047     		blx	r4
 387:../GraphicLCD/CT6963CDriver.cpp **** 	Line(x+4,y+height,x+width-5,y+height);// bottom border
 1324              		.loc 1 387 0
 1325 07a2 FB68     		ldr	r3, [r7, #12]
 1326 07a4 1B68     		ldr	r3, [r3, #0]
 1327 07a6 03F10403 		add	r3, r3, #4
 1328 07aa 1C68     		ldr	r4, [r3, #0]
 1329 07ac BB68     		ldr	r3, [r7, #8]
 1330 07ae 03F10401 		add	r1, r3, #4
 1331 07b2 7A68     		ldr	r2, [r7, #4]
 1332 07b4 BB6A     		ldr	r3, [r7, #40]
 1333 07b6 D218     		adds	r2, r2, r3
 1334 07b8 B868     		ldr	r0, [r7, #8]
 1335 07ba 3B68     		ldr	r3, [r7, #0]
 1336 07bc C318     		adds	r3, r0, r3
 1337 07be A3F10503 		sub	r3, r3, #5
 1338 07c2 7D68     		ldr	r5, [r7, #4]
 1339 07c4 B86A     		ldr	r0, [r7, #40]
 1340 07c6 2818     		adds	r0, r5, r0
 1341 07c8 0090     		str	r0, [sp, #0]
 1342 07ca F868     		ldr	r0, [r7, #12]
 1343 07cc A047     		blx	r4
 388:../GraphicLCD/CT6963CDriver.cpp **** 
 389:../GraphicLCD/CT6963CDriver.cpp **** 	for(i=1;i<3;i++){
 1344              		.loc 1 389 0
 1345 07ce 4FF00103 		mov	r3, #1
 1346 07d2 7B61     		str	r3, [r7, #20]
 1347 07d4 4BE0     		b	.L55
 1348              	.L56:
 390:../GraphicLCD/CT6963CDriver.cpp **** 		// upper left
 391:../GraphicLCD/CT6963CDriver.cpp **** 		SetPixel(x+i,y+3);
 1349              		.loc 1 391 0 discriminator 2
 1350 07d6 BB68     		ldr	r3, [r7, #8]
 1351 07d8 DAB2     		uxtb	r2, r3
 1352 07da 7B69     		ldr	r3, [r7, #20]
 1353 07dc DBB2     		uxtb	r3, r3
 1354 07de D318     		adds	r3, r2, r3
 1355 07e0 DAB2     		uxtb	r2, r3
 1356 07e2 7B68     		ldr	r3, [r7, #4]
 1357 07e4 DBB2     		uxtb	r3, r3
 1358 07e6 03F10303 		add	r3, r3, #3
 1359 07ea DBB2     		uxtb	r3, r3
 1360 07ec F868     		ldr	r0, [r7, #12]
 1361 07ee 1146     		mov	r1, r2
 1362 07f0 1A46     		mov	r2, r3
 1363 07f2 FFF7FEFF 		bl	_ZN13CT6963CDriver8SetPixelEhh
 392:../GraphicLCD/CT6963CDriver.cpp **** 		SetPixel(x+i,y+2);
 1364              		.loc 1 392 0 discriminator 2
 1365 07f6 BB68     		ldr	r3, [r7, #8]
 1366 07f8 DAB2     		uxtb	r2, r3
 1367 07fa 7B69     		ldr	r3, [r7, #20]
 1368 07fc DBB2     		uxtb	r3, r3
 1369 07fe D318     		adds	r3, r2, r3
 1370 0800 DAB2     		uxtb	r2, r3
 1371 0802 7B68     		ldr	r3, [r7, #4]
 1372 0804 DBB2     		uxtb	r3, r3
 1373 0806 03F10203 		add	r3, r3, #2
 1374 080a DBB2     		uxtb	r3, r3
 1375 080c F868     		ldr	r0, [r7, #12]
 1376 080e 1146     		mov	r1, r2
 1377 0810 1A46     		mov	r2, r3
 1378 0812 FFF7FEFF 		bl	_ZN13CT6963CDriver8SetPixelEhh
 393:../GraphicLCD/CT6963CDriver.cpp **** 
 394:../GraphicLCD/CT6963CDriver.cpp **** 		// upper right
 395:../GraphicLCD/CT6963CDriver.cpp **** 		SetPixel(x+width-i,y+3);
 1379              		.loc 1 395 0 discriminator 2
 1380 0816 BB68     		ldr	r3, [r7, #8]
 1381 0818 DAB2     		uxtb	r2, r3
 1382 081a 3B68     		ldr	r3, [r7, #0]
 1383 081c DBB2     		uxtb	r3, r3
 1384 081e D318     		adds	r3, r2, r3
 1385 0820 DAB2     		uxtb	r2, r3
 1386 0822 7B69     		ldr	r3, [r7, #20]
 1387 0824 DBB2     		uxtb	r3, r3
 1388 0826 D31A     		subs	r3, r2, r3
 1389 0828 DAB2     		uxtb	r2, r3
 1390 082a 7B68     		ldr	r3, [r7, #4]
 1391 082c DBB2     		uxtb	r3, r3
 1392 082e 03F10303 		add	r3, r3, #3
 1393 0832 DBB2     		uxtb	r3, r3
 1394 0834 F868     		ldr	r0, [r7, #12]
 1395 0836 1146     		mov	r1, r2
 1396 0838 1A46     		mov	r2, r3
 1397 083a FFF7FEFF 		bl	_ZN13CT6963CDriver8SetPixelEhh
 396:../GraphicLCD/CT6963CDriver.cpp **** 		SetPixel(x+width-i,y+2);
 1398              		.loc 1 396 0 discriminator 2
 1399 083e BB68     		ldr	r3, [r7, #8]
 1400 0840 DAB2     		uxtb	r2, r3
 1401 0842 3B68     		ldr	r3, [r7, #0]
 1402 0844 DBB2     		uxtb	r3, r3
 1403 0846 D318     		adds	r3, r2, r3
 1404 0848 DAB2     		uxtb	r2, r3
 1405 084a 7B69     		ldr	r3, [r7, #20]
 1406 084c DBB2     		uxtb	r3, r3
 1407 084e D31A     		subs	r3, r2, r3
 1408 0850 DAB2     		uxtb	r2, r3
 1409 0852 7B68     		ldr	r3, [r7, #4]
 1410 0854 DBB2     		uxtb	r3, r3
 1411 0856 03F10203 		add	r3, r3, #2
 1412 085a DBB2     		uxtb	r3, r3
 1413 085c F868     		ldr	r0, [r7, #12]
 1414 085e 1146     		mov	r1, r2
 1415 0860 1A46     		mov	r2, r3
 1416 0862 FFF7FEFF 		bl	_ZN13CT6963CDriver8SetPixelEhh
 389:../GraphicLCD/CT6963CDriver.cpp **** 	for(i=1;i<3;i++){
 1417              		.loc 1 389 0 discriminator 2
 1418 0866 7B69     		ldr	r3, [r7, #20]
 1419 0868 03F10103 		add	r3, r3, #1
 1420 086c 7B61     		str	r3, [r7, #20]
 1421              	.L55:
 389:../GraphicLCD/CT6963CDriver.cpp **** 	for(i=1;i<3;i++){
 1422              		.loc 1 389 0 is_stmt 0 discriminator 1
 1423 086e 7B69     		ldr	r3, [r7, #20]
 1424 0870 022B     		cmp	r3, #2
 1425 0872 8CBF     		ite	hi
 1426 0874 0023     		movhi	r3, #0
 1427 0876 0123     		movls	r3, #1
 1428 0878 DBB2     		uxtb	r3, r3
 1429 087a 002B     		cmp	r3, #0
 1430 087c ABD1     		bne	.L56
 397:../GraphicLCD/CT6963CDriver.cpp **** 	}
 398:../GraphicLCD/CT6963CDriver.cpp **** 
 399:../GraphicLCD/CT6963CDriver.cpp **** 	// upper left
 400:../GraphicLCD/CT6963CDriver.cpp **** 	SetPixel(x+3,y+1);
 1431              		.loc 1 400 0 is_stmt 1
 1432 087e BB68     		ldr	r3, [r7, #8]
 1433 0880 DBB2     		uxtb	r3, r3
 1434 0882 03F10303 		add	r3, r3, #3
 1435 0886 DAB2     		uxtb	r2, r3
 1436 0888 7B68     		ldr	r3, [r7, #4]
 1437 088a DBB2     		uxtb	r3, r3
 1438 088c 03F10103 		add	r3, r3, #1
 1439 0890 DBB2     		uxtb	r3, r3
 1440 0892 F868     		ldr	r0, [r7, #12]
 1441 0894 1146     		mov	r1, r2
 1442 0896 1A46     		mov	r2, r3
 1443 0898 FFF7FEFF 		bl	_ZN13CT6963CDriver8SetPixelEhh
 401:../GraphicLCD/CT6963CDriver.cpp **** 	SetPixel(x+2,y+1);
 1444              		.loc 1 401 0
 1445 089c BB68     		ldr	r3, [r7, #8]
 1446 089e DBB2     		uxtb	r3, r3
 1447 08a0 03F10203 		add	r3, r3, #2
 1448 08a4 DAB2     		uxtb	r2, r3
 1449 08a6 7B68     		ldr	r3, [r7, #4]
 1450 08a8 DBB2     		uxtb	r3, r3
 1451 08aa 03F10103 		add	r3, r3, #1
 1452 08ae DBB2     		uxtb	r3, r3
 1453 08b0 F868     		ldr	r0, [r7, #12]
 1454 08b2 1146     		mov	r1, r2
 1455 08b4 1A46     		mov	r2, r3
 1456 08b6 FFF7FEFF 		bl	_ZN13CT6963CDriver8SetPixelEhh
 402:../GraphicLCD/CT6963CDriver.cpp **** 
 403:../GraphicLCD/CT6963CDriver.cpp **** 	// upper right
 404:../GraphicLCD/CT6963CDriver.cpp **** 	SetPixel(x+width-3,y+1);
 1457              		.loc 1 404 0
 1458 08ba BB68     		ldr	r3, [r7, #8]
 1459 08bc DAB2     		uxtb	r2, r3
 1460 08be 3B68     		ldr	r3, [r7, #0]
 1461 08c0 DBB2     		uxtb	r3, r3
 1462 08c2 D318     		adds	r3, r2, r3
 1463 08c4 DBB2     		uxtb	r3, r3
 1464 08c6 A3F10303 		sub	r3, r3, #3
 1465 08ca DAB2     		uxtb	r2, r3
 1466 08cc 7B68     		ldr	r3, [r7, #4]
 1467 08ce DBB2     		uxtb	r3, r3
 1468 08d0 03F10103 		add	r3, r3, #1
 1469 08d4 DBB2     		uxtb	r3, r3
 1470 08d6 F868     		ldr	r0, [r7, #12]
 1471 08d8 1146     		mov	r1, r2
 1472 08da 1A46     		mov	r2, r3
 1473 08dc FFF7FEFF 		bl	_ZN13CT6963CDriver8SetPixelEhh
 405:../GraphicLCD/CT6963CDriver.cpp **** 	SetPixel(x+width-2,y+1);
 1474              		.loc 1 405 0
 1475 08e0 BB68     		ldr	r3, [r7, #8]
 1476 08e2 DAB2     		uxtb	r2, r3
 1477 08e4 3B68     		ldr	r3, [r7, #0]
 1478 08e6 DBB2     		uxtb	r3, r3
 1479 08e8 D318     		adds	r3, r2, r3
 1480 08ea DBB2     		uxtb	r3, r3
 1481 08ec A3F10203 		sub	r3, r3, #2
 1482 08f0 DAB2     		uxtb	r2, r3
 1483 08f2 7B68     		ldr	r3, [r7, #4]
 1484 08f4 DBB2     		uxtb	r3, r3
 1485 08f6 03F10103 		add	r3, r3, #1
 1486 08fa DBB2     		uxtb	r3, r3
 1487 08fc F868     		ldr	r0, [r7, #12]
 1488 08fe 1146     		mov	r1, r2
 1489 0900 1A46     		mov	r2, r3
 1490 0902 FFF7FEFF 		bl	_ZN13CT6963CDriver8SetPixelEhh
 406:../GraphicLCD/CT6963CDriver.cpp **** 
 407:../GraphicLCD/CT6963CDriver.cpp **** 
 408:../GraphicLCD/CT6963CDriver.cpp **** 	// bottom left
 409:../GraphicLCD/CT6963CDriver.cpp **** 	SetPixel(x+1,y+height-2);
 1491              		.loc 1 409 0
 1492 0906 BB68     		ldr	r3, [r7, #8]
 1493 0908 DBB2     		uxtb	r3, r3
 1494 090a 03F10103 		add	r3, r3, #1
 1495 090e DAB2     		uxtb	r2, r3
 1496 0910 7B68     		ldr	r3, [r7, #4]
 1497 0912 D9B2     		uxtb	r1, r3
 1498 0914 BB6A     		ldr	r3, [r7, #40]
 1499 0916 DBB2     		uxtb	r3, r3
 1500 0918 CB18     		adds	r3, r1, r3
 1501 091a DBB2     		uxtb	r3, r3
 1502 091c A3F10203 		sub	r3, r3, #2
 1503 0920 DBB2     		uxtb	r3, r3
 1504 0922 F868     		ldr	r0, [r7, #12]
 1505 0924 1146     		mov	r1, r2
 1506 0926 1A46     		mov	r2, r3
 1507 0928 FFF7FEFF 		bl	_ZN13CT6963CDriver8SetPixelEhh
 410:../GraphicLCD/CT6963CDriver.cpp **** 	SetPixel(x+1,y+height-3);
 1508              		.loc 1 410 0
 1509 092c BB68     		ldr	r3, [r7, #8]
 1510 092e DBB2     		uxtb	r3, r3
 1511 0930 03F10103 		add	r3, r3, #1
 1512 0934 DAB2     		uxtb	r2, r3
 1513 0936 7B68     		ldr	r3, [r7, #4]
 1514 0938 D9B2     		uxtb	r1, r3
 1515 093a BB6A     		ldr	r3, [r7, #40]
 1516 093c DBB2     		uxtb	r3, r3
 1517 093e CB18     		adds	r3, r1, r3
 1518 0940 DBB2     		uxtb	r3, r3
 1519 0942 A3F10303 		sub	r3, r3, #3
 1520 0946 DBB2     		uxtb	r3, r3
 1521 0948 F868     		ldr	r0, [r7, #12]
 1522 094a 1146     		mov	r1, r2
 1523 094c 1A46     		mov	r2, r3
 1524 094e FFF7FEFF 		bl	_ZN13CT6963CDriver8SetPixelEhh
 411:../GraphicLCD/CT6963CDriver.cpp **** 
 412:../GraphicLCD/CT6963CDriver.cpp **** 	// bottom left
 413:../GraphicLCD/CT6963CDriver.cpp **** 	SetPixel(x+3,y+height-1);
 1525              		.loc 1 413 0
 1526 0952 BB68     		ldr	r3, [r7, #8]
 1527 0954 DBB2     		uxtb	r3, r3
 1528 0956 03F10303 		add	r3, r3, #3
 1529 095a DAB2     		uxtb	r2, r3
 1530 095c 7B68     		ldr	r3, [r7, #4]
 1531 095e D9B2     		uxtb	r1, r3
 1532 0960 BB6A     		ldr	r3, [r7, #40]
 1533 0962 DBB2     		uxtb	r3, r3
 1534 0964 CB18     		adds	r3, r1, r3
 1535 0966 DBB2     		uxtb	r3, r3
 1536 0968 03F1FF33 		add	r3, r3, #-1
 1537 096c DBB2     		uxtb	r3, r3
 1538 096e F868     		ldr	r0, [r7, #12]
 1539 0970 1146     		mov	r1, r2
 1540 0972 1A46     		mov	r2, r3
 1541 0974 FFF7FEFF 		bl	_ZN13CT6963CDriver8SetPixelEhh
 414:../GraphicLCD/CT6963CDriver.cpp **** 	SetPixel(x+2,y+height-1);
 1542              		.loc 1 414 0
 1543 0978 BB68     		ldr	r3, [r7, #8]
 1544 097a DBB2     		uxtb	r3, r3
 1545 097c 03F10203 		add	r3, r3, #2
 1546 0980 DAB2     		uxtb	r2, r3
 1547 0982 7B68     		ldr	r3, [r7, #4]
 1548 0984 D9B2     		uxtb	r1, r3
 1549 0986 BB6A     		ldr	r3, [r7, #40]
 1550 0988 DBB2     		uxtb	r3, r3
 1551 098a CB18     		adds	r3, r1, r3
 1552 098c DBB2     		uxtb	r3, r3
 1553 098e 03F1FF33 		add	r3, r3, #-1
 1554 0992 DBB2     		uxtb	r3, r3
 1555 0994 F868     		ldr	r0, [r7, #12]
 1556 0996 1146     		mov	r1, r2
 1557 0998 1A46     		mov	r2, r3
 1558 099a FFF7FEFF 		bl	_ZN13CT6963CDriver8SetPixelEhh
 415:../GraphicLCD/CT6963CDriver.cpp **** 
 416:../GraphicLCD/CT6963CDriver.cpp **** 
 417:../GraphicLCD/CT6963CDriver.cpp **** 	// bottom right
 418:../GraphicLCD/CT6963CDriver.cpp **** 	SetPixel(x+width-1,y+height-2);
 1559              		.loc 1 418 0
 1560 099e BB68     		ldr	r3, [r7, #8]
 1561 09a0 DAB2     		uxtb	r2, r3
 1562 09a2 3B68     		ldr	r3, [r7, #0]
 1563 09a4 DBB2     		uxtb	r3, r3
 1564 09a6 D318     		adds	r3, r2, r3
 1565 09a8 DBB2     		uxtb	r3, r3
 1566 09aa 03F1FF33 		add	r3, r3, #-1
 1567 09ae DAB2     		uxtb	r2, r3
 1568 09b0 7B68     		ldr	r3, [r7, #4]
 1569 09b2 D9B2     		uxtb	r1, r3
 1570 09b4 BB6A     		ldr	r3, [r7, #40]
 1571 09b6 DBB2     		uxtb	r3, r3
 1572 09b8 CB18     		adds	r3, r1, r3
 1573 09ba DBB2     		uxtb	r3, r3
 1574 09bc A3F10203 		sub	r3, r3, #2
 1575 09c0 DBB2     		uxtb	r3, r3
 1576 09c2 F868     		ldr	r0, [r7, #12]
 1577 09c4 1146     		mov	r1, r2
 1578 09c6 1A46     		mov	r2, r3
 1579 09c8 FFF7FEFF 		bl	_ZN13CT6963CDriver8SetPixelEhh
 419:../GraphicLCD/CT6963CDriver.cpp **** 	SetPixel(x+width-1,y+height-3);
 1580              		.loc 1 419 0
 1581 09cc BB68     		ldr	r3, [r7, #8]
 1582 09ce DAB2     		uxtb	r2, r3
 1583 09d0 3B68     		ldr	r3, [r7, #0]
 1584 09d2 DBB2     		uxtb	r3, r3
 1585 09d4 D318     		adds	r3, r2, r3
 1586 09d6 DBB2     		uxtb	r3, r3
 1587 09d8 03F1FF33 		add	r3, r3, #-1
 1588 09dc DAB2     		uxtb	r2, r3
 1589 09de 7B68     		ldr	r3, [r7, #4]
 1590 09e0 D9B2     		uxtb	r1, r3
 1591 09e2 BB6A     		ldr	r3, [r7, #40]
 1592 09e4 DBB2     		uxtb	r3, r3
 1593 09e6 CB18     		adds	r3, r1, r3
 1594 09e8 DBB2     		uxtb	r3, r3
 1595 09ea A3F10303 		sub	r3, r3, #3
 1596 09ee DBB2     		uxtb	r3, r3
 1597 09f0 F868     		ldr	r0, [r7, #12]
 1598 09f2 1146     		mov	r1, r2
 1599 09f4 1A46     		mov	r2, r3
 1600 09f6 FFF7FEFF 		bl	_ZN13CT6963CDriver8SetPixelEhh
 420:../GraphicLCD/CT6963CDriver.cpp **** 
 421:../GraphicLCD/CT6963CDriver.cpp **** 	// bottom right
 422:../GraphicLCD/CT6963CDriver.cpp **** 	SetPixel(x+width-2,y+height-1);
 1601              		.loc 1 422 0
 1602 09fa BB68     		ldr	r3, [r7, #8]
 1603 09fc DAB2     		uxtb	r2, r3
 1604 09fe 3B68     		ldr	r3, [r7, #0]
 1605 0a00 DBB2     		uxtb	r3, r3
 1606 0a02 D318     		adds	r3, r2, r3
 1607 0a04 DBB2     		uxtb	r3, r3
 1608 0a06 A3F10203 		sub	r3, r3, #2
 1609 0a0a DAB2     		uxtb	r2, r3
 1610 0a0c 7B68     		ldr	r3, [r7, #4]
 1611 0a0e D9B2     		uxtb	r1, r3
 1612 0a10 BB6A     		ldr	r3, [r7, #40]
 1613 0a12 DBB2     		uxtb	r3, r3
 1614 0a14 CB18     		adds	r3, r1, r3
 1615 0a16 DBB2     		uxtb	r3, r3
 1616 0a18 03F1FF33 		add	r3, r3, #-1
 1617 0a1c DBB2     		uxtb	r3, r3
 1618 0a1e F868     		ldr	r0, [r7, #12]
 1619 0a20 1146     		mov	r1, r2
 1620 0a22 1A46     		mov	r2, r3
 1621 0a24 FFF7FEFF 		bl	_ZN13CT6963CDriver8SetPixelEhh
 423:../GraphicLCD/CT6963CDriver.cpp **** 	SetPixel(x+width-3,y+height-1);
 1622              		.loc 1 423 0
 1623 0a28 BB68     		ldr	r3, [r7, #8]
 1624 0a2a DAB2     		uxtb	r2, r3
 1625 0a2c 3B68     		ldr	r3, [r7, #0]
 1626 0a2e DBB2     		uxtb	r3, r3
 1627 0a30 D318     		adds	r3, r2, r3
 1628 0a32 DBB2     		uxtb	r3, r3
 1629 0a34 A3F10303 		sub	r3, r3, #3
 1630 0a38 DAB2     		uxtb	r2, r3
 1631 0a3a 7B68     		ldr	r3, [r7, #4]
 1632 0a3c D9B2     		uxtb	r1, r3
 1633 0a3e BB6A     		ldr	r3, [r7, #40]
 1634 0a40 DBB2     		uxtb	r3, r3
 1635 0a42 CB18     		adds	r3, r1, r3
 1636 0a44 DBB2     		uxtb	r3, r3
 1637 0a46 03F1FF33 		add	r3, r3, #-1
 1638 0a4a DBB2     		uxtb	r3, r3
 1639 0a4c F868     		ldr	r0, [r7, #12]
 1640 0a4e 1146     		mov	r1, r2
 1641 0a50 1A46     		mov	r2, r3
 1642 0a52 FFF7FEFF 		bl	_ZN13CT6963CDriver8SetPixelEhh
 1643              	.LBE10:
 424:../GraphicLCD/CT6963CDriver.cpp **** 
 425:../GraphicLCD/CT6963CDriver.cpp **** 
 426:../GraphicLCD/CT6963CDriver.cpp **** 
 427:../GraphicLCD/CT6963CDriver.cpp **** }
 1644              		.loc 1 427 0
 1645 0a56 07F11807 		add	r7, r7, #24
 1646 0a5a BD46     		mov	sp, r7
 1647 0a5c B0BD     		pop	{r4, r5, r7, pc}
 1648              		.cfi_endproc
 1649              	.LFE17:
 1651 0a5e 00BF     		.align	2
 1652              		.global	_ZN13CT6963CDriver9RectangleEjjjjb
 1653              		.thumb
 1654              		.thumb_func
 1656              	_ZN13CT6963CDriver9RectangleEjjjjb:
 1657              	.LFB18:
 428:../GraphicLCD/CT6963CDriver.cpp **** 
 429:../GraphicLCD/CT6963CDriver.cpp **** /**
 430:../GraphicLCD/CT6963CDriver.cpp ****   * @brief  draw an rectangle with upper left corner at (x,y) and specified width and height
 431:../GraphicLCD/CT6963CDriver.cpp ****   * @param  x1,y1,width,heigth,  true for filled
 432:../GraphicLCD/CT6963CDriver.cpp ****   * @retval None
 433:../GraphicLCD/CT6963CDriver.cpp ****   */
 434:../GraphicLCD/CT6963CDriver.cpp **** void CT6963CDriver::Rectangle(unsigned int x,unsigned int y,unsigned int width,unsigned int height,
 1658              		.loc 1 434 0
 1659              		.cfi_startproc
 1660              		@ args = 8, pretend = 0, frame = 24
 1661              		@ frame_needed = 1, uses_anonymous_args = 0
 1662 0a60 80B5     		push	{r7, lr}
 1663              	.LCFI42:
 1664              		.cfi_def_cfa_offset 8
 1665              		.cfi_offset 14, -4
 1666              		.cfi_offset 7, -8
 1667 0a62 86B0     		sub	sp, sp, #24
 1668              	.LCFI43:
 1669              		.cfi_def_cfa_offset 32
 1670 0a64 00AF     		add	r7, sp, #0
 1671              	.LCFI44:
 1672              		.cfi_def_cfa_register 7
 1673 0a66 F860     		str	r0, [r7, #12]
 1674 0a68 B960     		str	r1, [r7, #8]
 1675 0a6a 7A60     		str	r2, [r7, #4]
 1676 0a6c 3B60     		str	r3, [r7, #0]
 1677              	.LBB11:
 435:../GraphicLCD/CT6963CDriver.cpp **** 	unsigned char i;
 436:../GraphicLCD/CT6963CDriver.cpp **** 	unsigned char k;
 437:../GraphicLCD/CT6963CDriver.cpp **** 
 438:../GraphicLCD/CT6963CDriver.cpp **** 	if(fill){	// fill rect
 1678              		.loc 1 438 0
 1679 0a6e 97F82430 		ldrb	r3, [r7, #36]	@ zero_extendqisi2
 1680 0a72 002B     		cmp	r3, #0
 1681 0a74 31D0     		beq	.L58
 439:../GraphicLCD/CT6963CDriver.cpp **** 		//lines
 440:../GraphicLCD/CT6963CDriver.cpp **** 		for (i=0;i<height;i++){
 1682              		.loc 1 440 0
 1683 0a76 4FF00003 		mov	r3, #0
 1684 0a7a FB75     		strb	r3, [r7, #23]
 1685 0a7c 23E0     		b	.L59
 1686              	.L62:
 441:../GraphicLCD/CT6963CDriver.cpp **** 			// columns
 442:../GraphicLCD/CT6963CDriver.cpp **** 			for (k=0;k<width;k++) {
 1687              		.loc 1 442 0
 1688 0a7e 4FF00003 		mov	r3, #0
 1689 0a82 BB75     		strb	r3, [r7, #22]
 1690 0a84 12E0     		b	.L60
 1691              	.L61:
 443:../GraphicLCD/CT6963CDriver.cpp **** 				SetPixel(x+k,y+i);
 1692              		.loc 1 443 0 discriminator 2
 1693 0a86 BB68     		ldr	r3, [r7, #8]
 1694 0a88 DAB2     		uxtb	r2, r3
 1695 0a8a BB7D     		ldrb	r3, [r7, #22]
 1696 0a8c D318     		adds	r3, r2, r3
 1697 0a8e DAB2     		uxtb	r2, r3
 1698 0a90 7B68     		ldr	r3, [r7, #4]
 1699 0a92 D9B2     		uxtb	r1, r3
 1700 0a94 FB7D     		ldrb	r3, [r7, #23]
 1701 0a96 CB18     		adds	r3, r1, r3
 1702 0a98 DBB2     		uxtb	r3, r3
 1703 0a9a F868     		ldr	r0, [r7, #12]
 1704 0a9c 1146     		mov	r1, r2
 1705 0a9e 1A46     		mov	r2, r3
 1706 0aa0 FFF7FEFF 		bl	_ZN13CT6963CDriver8SetPixelEhh
 442:../GraphicLCD/CT6963CDriver.cpp **** 			for (k=0;k<width;k++) {
 1707              		.loc 1 442 0 discriminator 2
 1708 0aa4 BB7D     		ldrb	r3, [r7, #22]
 1709 0aa6 03F10103 		add	r3, r3, #1
 1710 0aaa BB75     		strb	r3, [r7, #22]
 1711              	.L60:
 442:../GraphicLCD/CT6963CDriver.cpp **** 			for (k=0;k<width;k++) {
 1712              		.loc 1 442 0 is_stmt 0 discriminator 1
 1713 0aac BA7D     		ldrb	r2, [r7, #22]	@ zero_extendqisi2
 1714 0aae 3B68     		ldr	r3, [r7, #0]
 1715 0ab0 9A42     		cmp	r2, r3
 1716 0ab2 2CBF     		ite	cs
 1717 0ab4 0023     		movcs	r3, #0
 1718 0ab6 0123     		movcc	r3, #1
 1719 0ab8 DBB2     		uxtb	r3, r3
 1720 0aba 002B     		cmp	r3, #0
 1721 0abc E3D1     		bne	.L61
 440:../GraphicLCD/CT6963CDriver.cpp **** 		for (i=0;i<height;i++){
 1722              		.loc 1 440 0 is_stmt 1
 1723 0abe FB7D     		ldrb	r3, [r7, #23]
 1724 0ac0 03F10103 		add	r3, r3, #1
 1725 0ac4 FB75     		strb	r3, [r7, #23]
 1726              	.L59:
 440:../GraphicLCD/CT6963CDriver.cpp **** 		for (i=0;i<height;i++){
 1727              		.loc 1 440 0 is_stmt 0 discriminator 1
 1728 0ac6 FA7D     		ldrb	r2, [r7, #23]	@ zero_extendqisi2
 1729 0ac8 3B6A     		ldr	r3, [r7, #32]
 1730 0aca 9A42     		cmp	r2, r3
 1731 0acc 2CBF     		ite	cs
 1732 0ace 0023     		movcs	r3, #0
 1733 0ad0 0123     		movcc	r3, #1
 1734 0ad2 DBB2     		uxtb	r3, r3
 1735 0ad4 002B     		cmp	r3, #0
 1736 0ad6 D2D1     		bne	.L62
 440:../GraphicLCD/CT6963CDriver.cpp **** 		for (i=0;i<height;i++){
 1737              		.loc 1 440 0
 1738 0ad8 5FE0     		b	.L57
 1739              	.L58:
 444:../GraphicLCD/CT6963CDriver.cpp **** 			}
 445:../GraphicLCD/CT6963CDriver.cpp **** 		}
 446:../GraphicLCD/CT6963CDriver.cpp **** 	} else {
 447:../GraphicLCD/CT6963CDriver.cpp **** 		//lines vertical
 448:../GraphicLCD/CT6963CDriver.cpp **** 		for (i = 0; i < height; i++) {
 1740              		.loc 1 448 0 is_stmt 1
 1741 0ada 4FF00003 		mov	r3, #0
 1742 0ade FB75     		strb	r3, [r7, #23]
 1743 0ae0 22E0     		b	.L64
 1744              	.L65:
 449:../GraphicLCD/CT6963CDriver.cpp **** 			SetPixel(x, y + i);
 1745              		.loc 1 449 0 discriminator 2
 1746 0ae2 BB68     		ldr	r3, [r7, #8]
 1747 0ae4 DAB2     		uxtb	r2, r3
 1748 0ae6 7B68     		ldr	r3, [r7, #4]
 1749 0ae8 D9B2     		uxtb	r1, r3
 1750 0aea FB7D     		ldrb	r3, [r7, #23]
 1751 0aec CB18     		adds	r3, r1, r3
 1752 0aee DBB2     		uxtb	r3, r3
 1753 0af0 F868     		ldr	r0, [r7, #12]
 1754 0af2 1146     		mov	r1, r2
 1755 0af4 1A46     		mov	r2, r3
 1756 0af6 FFF7FEFF 		bl	_ZN13CT6963CDriver8SetPixelEhh
 450:../GraphicLCD/CT6963CDriver.cpp **** 			SetPixel(x + width - 1, y + i);
 1757              		.loc 1 450 0 discriminator 2
 1758 0afa BB68     		ldr	r3, [r7, #8]
 1759 0afc DAB2     		uxtb	r2, r3
 1760 0afe 3B68     		ldr	r3, [r7, #0]
 1761 0b00 DBB2     		uxtb	r3, r3
 1762 0b02 D318     		adds	r3, r2, r3
 1763 0b04 DBB2     		uxtb	r3, r3
 1764 0b06 03F1FF33 		add	r3, r3, #-1
 1765 0b0a DAB2     		uxtb	r2, r3
 1766 0b0c 7B68     		ldr	r3, [r7, #4]
 1767 0b0e D9B2     		uxtb	r1, r3
 1768 0b10 FB7D     		ldrb	r3, [r7, #23]
 1769 0b12 CB18     		adds	r3, r1, r3
 1770 0b14 DBB2     		uxtb	r3, r3
 1771 0b16 F868     		ldr	r0, [r7, #12]
 1772 0b18 1146     		mov	r1, r2
 1773 0b1a 1A46     		mov	r2, r3
 1774 0b1c FFF7FEFF 		bl	_ZN13CT6963CDriver8SetPixelEhh
 448:../GraphicLCD/CT6963CDriver.cpp **** 		for (i = 0; i < height; i++) {
 1775              		.loc 1 448 0 discriminator 2
 1776 0b20 FB7D     		ldrb	r3, [r7, #23]
 1777 0b22 03F10103 		add	r3, r3, #1
 1778 0b26 FB75     		strb	r3, [r7, #23]
 1779              	.L64:
 448:../GraphicLCD/CT6963CDriver.cpp **** 		for (i = 0; i < height; i++) {
 1780              		.loc 1 448 0 is_stmt 0 discriminator 1
 1781 0b28 FA7D     		ldrb	r2, [r7, #23]	@ zero_extendqisi2
 1782 0b2a 3B6A     		ldr	r3, [r7, #32]
 1783 0b2c 9A42     		cmp	r2, r3
 1784 0b2e 2CBF     		ite	cs
 1785 0b30 0023     		movcs	r3, #0
 1786 0b32 0123     		movcc	r3, #1
 1787 0b34 DBB2     		uxtb	r3, r3
 1788 0b36 002B     		cmp	r3, #0
 1789 0b38 D3D1     		bne	.L65
 451:../GraphicLCD/CT6963CDriver.cpp **** 		}
 452:../GraphicLCD/CT6963CDriver.cpp **** 		//lines horizontal
 453:../GraphicLCD/CT6963CDriver.cpp **** 		for (i = 0; i < width; i++)	{
 1790              		.loc 1 453 0 is_stmt 1
 1791 0b3a 4FF00003 		mov	r3, #0
 1792 0b3e FB75     		strb	r3, [r7, #23]
 1793 0b40 22E0     		b	.L66
 1794              	.L67:
 454:../GraphicLCD/CT6963CDriver.cpp **** 			SetPixel(x + i, y);
 1795              		.loc 1 454 0 discriminator 2
 1796 0b42 BB68     		ldr	r3, [r7, #8]
 1797 0b44 DAB2     		uxtb	r2, r3
 1798 0b46 FB7D     		ldrb	r3, [r7, #23]
 1799 0b48 D318     		adds	r3, r2, r3
 1800 0b4a DAB2     		uxtb	r2, r3
 1801 0b4c 7B68     		ldr	r3, [r7, #4]
 1802 0b4e DBB2     		uxtb	r3, r3
 1803 0b50 F868     		ldr	r0, [r7, #12]
 1804 0b52 1146     		mov	r1, r2
 1805 0b54 1A46     		mov	r2, r3
 1806 0b56 FFF7FEFF 		bl	_ZN13CT6963CDriver8SetPixelEhh
 455:../GraphicLCD/CT6963CDriver.cpp **** 			SetPixel(x + i, y + height - 1);
 1807              		.loc 1 455 0 discriminator 2
 1808 0b5a BB68     		ldr	r3, [r7, #8]
 1809 0b5c DAB2     		uxtb	r2, r3
 1810 0b5e FB7D     		ldrb	r3, [r7, #23]
 1811 0b60 D318     		adds	r3, r2, r3
 1812 0b62 DAB2     		uxtb	r2, r3
 1813 0b64 7B68     		ldr	r3, [r7, #4]
 1814 0b66 D9B2     		uxtb	r1, r3
 1815 0b68 3B6A     		ldr	r3, [r7, #32]
 1816 0b6a DBB2     		uxtb	r3, r3
 1817 0b6c CB18     		adds	r3, r1, r3
 1818 0b6e DBB2     		uxtb	r3, r3
 1819 0b70 03F1FF33 		add	r3, r3, #-1
 1820 0b74 DBB2     		uxtb	r3, r3
 1821 0b76 F868     		ldr	r0, [r7, #12]
 1822 0b78 1146     		mov	r1, r2
 1823 0b7a 1A46     		mov	r2, r3
 1824 0b7c FFF7FEFF 		bl	_ZN13CT6963CDriver8SetPixelEhh
 453:../GraphicLCD/CT6963CDriver.cpp **** 		for (i = 0; i < width; i++)	{
 1825              		.loc 1 453 0 discriminator 2
 1826 0b80 FB7D     		ldrb	r3, [r7, #23]
 1827 0b82 03F10103 		add	r3, r3, #1
 1828 0b86 FB75     		strb	r3, [r7, #23]
 1829              	.L66:
 453:../GraphicLCD/CT6963CDriver.cpp **** 		for (i = 0; i < width; i++)	{
 1830              		.loc 1 453 0 is_stmt 0 discriminator 1
 1831 0b88 FA7D     		ldrb	r2, [r7, #23]	@ zero_extendqisi2
 1832 0b8a 3B68     		ldr	r3, [r7, #0]
 1833 0b8c 9A42     		cmp	r2, r3
 1834 0b8e 2CBF     		ite	cs
 1835 0b90 0023     		movcs	r3, #0
 1836 0b92 0123     		movcc	r3, #1
 1837 0b94 DBB2     		uxtb	r3, r3
 1838 0b96 002B     		cmp	r3, #0
 1839 0b98 D3D1     		bne	.L67
 1840              	.L57:
 1841              	.LBE11:
 456:../GraphicLCD/CT6963CDriver.cpp **** 		}
 457:../GraphicLCD/CT6963CDriver.cpp **** 	}
 458:../GraphicLCD/CT6963CDriver.cpp **** }
 1842              		.loc 1 458 0 is_stmt 1
 1843 0b9a 07F11807 		add	r7, r7, #24
 1844 0b9e BD46     		mov	sp, r7
 1845 0ba0 80BD     		pop	{r7, pc}
 1846              		.cfi_endproc
 1847              	.LFE18:
 1849 0ba2 00BF     		.align	2
 1850              		.global	_ZN13CT6963CDriver11SectorClearEjjjj
 1851              		.thumb
 1852              		.thumb_func
 1854              	_ZN13CT6963CDriver11SectorClearEjjjj:
 1855              	.LFB19:
 459:../GraphicLCD/CT6963CDriver.cpp **** 
 460:../GraphicLCD/CT6963CDriver.cpp **** /**
 461:../GraphicLCD/CT6963CDriver.cpp ****   * @brief  clear sector from upper left (x,y) with specified width and height
 462:../GraphicLCD/CT6963CDriver.cpp ****   * @param  x1,y1,width, height
 463:../GraphicLCD/CT6963CDriver.cpp ****   * @retval None
 464:../GraphicLCD/CT6963CDriver.cpp ****   */
 465:../GraphicLCD/CT6963CDriver.cpp **** void CT6963CDriver::SectorClear(unsigned int x,unsigned int y,unsigned int width,unsigned int heigh
 1856              		.loc 1 465 0
 1857              		.cfi_startproc
 1858              		@ args = 4, pretend = 0, frame = 24
 1859              		@ frame_needed = 1, uses_anonymous_args = 0
 1860 0ba4 90B5     		push	{r4, r7, lr}
 1861              	.LCFI45:
 1862              		.cfi_def_cfa_offset 12
 1863              		.cfi_offset 14, -4
 1864              		.cfi_offset 7, -8
 1865              		.cfi_offset 4, -12
 1866 0ba6 89B0     		sub	sp, sp, #36
 1867              	.LCFI46:
 1868              		.cfi_def_cfa_offset 48
 1869 0ba8 02AF     		add	r7, sp, #8
 1870              	.LCFI47:
 1871              		.cfi_def_cfa 7, 40
 1872 0baa F860     		str	r0, [r7, #12]
 1873 0bac B960     		str	r1, [r7, #8]
 1874 0bae 7A60     		str	r2, [r7, #4]
 1875 0bb0 3B60     		str	r3, [r7, #0]
 1876              	.LBB12:
 466:../GraphicLCD/CT6963CDriver.cpp **** 	bool oldInverse;
 467:../GraphicLCD/CT6963CDriver.cpp **** 
 468:../GraphicLCD/CT6963CDriver.cpp **** 	oldInverse = Inverse();
 1877              		.loc 1 468 0
 1878 0bb2 FB68     		ldr	r3, [r7, #12]
 1879 0bb4 1846     		mov	r0, r3
 1880 0bb6 FFF7FEFF 		bl	_ZN11CGraphicLCD7InverseEv
 1881 0bba 0346     		mov	r3, r0
 1882 0bbc FB75     		strb	r3, [r7, #23]
 469:../GraphicLCD/CT6963CDriver.cpp **** 	Inverse(!oldInverse);
 1883              		.loc 1 469 0
 1884 0bbe FA68     		ldr	r2, [r7, #12]
 1885 0bc0 FB7D     		ldrb	r3, [r7, #23]
 1886 0bc2 83F00103 		eor	r3, r3, #1
 1887 0bc6 DBB2     		uxtb	r3, r3
 1888 0bc8 1046     		mov	r0, r2
 1889 0bca 1946     		mov	r1, r3
 1890 0bcc FFF7FEFF 		bl	_ZN11CGraphicLCD7InverseEb
 470:../GraphicLCD/CT6963CDriver.cpp **** 
 471:../GraphicLCD/CT6963CDriver.cpp **** 	Rectangle(x,y,width,height,true);
 1891              		.loc 1 471 0
 1892 0bd0 FB68     		ldr	r3, [r7, #12]
 1893 0bd2 1B68     		ldr	r3, [r3, #0]
 1894 0bd4 03F10C03 		add	r3, r3, #12
 1895 0bd8 1C68     		ldr	r4, [r3, #0]
 1896 0bda BB6A     		ldr	r3, [r7, #40]
 1897 0bdc 0093     		str	r3, [sp, #0]
 1898 0bde 4FF00103 		mov	r3, #1
 1899 0be2 0193     		str	r3, [sp, #4]
 1900 0be4 F868     		ldr	r0, [r7, #12]
 1901 0be6 B968     		ldr	r1, [r7, #8]
 1902 0be8 7A68     		ldr	r2, [r7, #4]
 1903 0bea 3B68     		ldr	r3, [r7, #0]
 1904 0bec A047     		blx	r4
 472:../GraphicLCD/CT6963CDriver.cpp **** 
 473:../GraphicLCD/CT6963CDriver.cpp **** 	Inverse(oldInverse);
 1905              		.loc 1 473 0
 1906 0bee FA68     		ldr	r2, [r7, #12]
 1907 0bf0 FB7D     		ldrb	r3, [r7, #23]	@ zero_extendqisi2
 1908 0bf2 1046     		mov	r0, r2
 1909 0bf4 1946     		mov	r1, r3
 1910 0bf6 FFF7FEFF 		bl	_ZN11CGraphicLCD7InverseEb
 1911              	.LBE12:
 474:../GraphicLCD/CT6963CDriver.cpp **** }
 1912              		.loc 1 474 0
 1913 0bfa 07F11C07 		add	r7, r7, #28
 1914 0bfe BD46     		mov	sp, r7
 1915 0c00 90BD     		pop	{r4, r7, pc}
 1916              		.cfi_endproc
 1917              	.LFE19:
 1919 0c02 00BF     		.align	2
 1920              		.global	_ZN13CT6963CDriver6CircleEhhh
 1921              		.thumb
 1922              		.thumb_func
 1924              	_ZN13CT6963CDriver6CircleEhhh:
 1925              	.LFB20:
 475:../GraphicLCD/CT6963CDriver.cpp **** 
 476:../GraphicLCD/CT6963CDriver.cpp **** /**
 477:../GraphicLCD/CT6963CDriver.cpp ****   * @brief  draw a circle with center at (cx,cy) and specified radius
 478:../GraphicLCD/CT6963CDriver.cpp ****   * @param  x1,y1,width,
 479:../GraphicLCD/CT6963CDriver.cpp ****   * @retval None
 480:../GraphicLCD/CT6963CDriver.cpp ****   */
 481:../GraphicLCD/CT6963CDriver.cpp **** void CT6963CDriver::Circle(unsigned char cx, unsigned char cy ,unsigned char radius)
 482:../GraphicLCD/CT6963CDriver.cpp **** {
 1926              		.loc 1 482 0
 1927              		.cfi_startproc
 1928              		@ args = 0, pretend = 0, frame = 32
 1929              		@ frame_needed = 1, uses_anonymous_args = 0
 1930 0c04 80B5     		push	{r7, lr}
 1931              	.LCFI48:
 1932              		.cfi_def_cfa_offset 8
 1933              		.cfi_offset 14, -4
 1934              		.cfi_offset 7, -8
 1935 0c06 88B0     		sub	sp, sp, #32
 1936              	.LCFI49:
 1937              		.cfi_def_cfa_offset 40
 1938 0c08 00AF     		add	r7, sp, #0
 1939              	.LCFI50:
 1940              		.cfi_def_cfa_register 7
 1941 0c0a 7860     		str	r0, [r7, #4]
 1942 0c0c F970     		strb	r1, [r7, #3]
 1943 0c0e BA70     		strb	r2, [r7, #2]
 1944 0c10 7B70     		strb	r3, [r7, #1]
 1945              	.LBB13:
 483:../GraphicLCD/CT6963CDriver.cpp **** 	int x, y, xchange, ychange, radiusError;
 484:../GraphicLCD/CT6963CDriver.cpp **** 	x = radius;
 1946              		.loc 1 484 0
 1947 0c12 7B78     		ldrb	r3, [r7, #1]	@ zero_extendqisi2
 1948 0c14 FB61     		str	r3, [r7, #28]
 485:../GraphicLCD/CT6963CDriver.cpp **** 	y = 0;
 1949              		.loc 1 485 0
 1950 0c16 4FF00003 		mov	r3, #0
 1951 0c1a BB61     		str	r3, [r7, #24]
 486:../GraphicLCD/CT6963CDriver.cpp **** 	xchange = 1 - 2 * radius;
 1952              		.loc 1 486 0
 1953 0c1c 7A78     		ldrb	r2, [r7, #1]	@ zero_extendqisi2
 1954 0c1e 1346     		mov	r3, r2
 1955 0c20 4FEAC373 		lsl	r3, r3, #31
 1956 0c24 9B1A     		subs	r3, r3, r2
 1957 0c26 4FEA4303 		lsl	r3, r3, #1
 1958 0c2a 03F10103 		add	r3, r3, #1
 1959 0c2e 7B61     		str	r3, [r7, #20]
 487:../GraphicLCD/CT6963CDriver.cpp **** 	ychange = 1;
 1960              		.loc 1 487 0
 1961 0c30 4FF00103 		mov	r3, #1
 1962 0c34 3B61     		str	r3, [r7, #16]
 488:../GraphicLCD/CT6963CDriver.cpp **** 	radiusError = 0;
 1963              		.loc 1 488 0
 1964 0c36 4FF00003 		mov	r3, #0
 1965 0c3a FB60     		str	r3, [r7, #12]
 489:../GraphicLCD/CT6963CDriver.cpp **** 	while(x >= y)
 1966              		.loc 1 489 0
 1967 0c3c 96E0     		b	.L70
 1968              	.L71:
 490:../GraphicLCD/CT6963CDriver.cpp **** 	{
 491:../GraphicLCD/CT6963CDriver.cpp **** 		SetPixel(cx+x, cy+y);
 1969              		.loc 1 491 0
 1970 0c3e FB69     		ldr	r3, [r7, #28]
 1971 0c40 DAB2     		uxtb	r2, r3
 1972 0c42 FB78     		ldrb	r3, [r7, #3]
 1973 0c44 D318     		adds	r3, r2, r3
 1974 0c46 DAB2     		uxtb	r2, r3
 1975 0c48 BB69     		ldr	r3, [r7, #24]
 1976 0c4a D9B2     		uxtb	r1, r3
 1977 0c4c BB78     		ldrb	r3, [r7, #2]
 1978 0c4e CB18     		adds	r3, r1, r3
 1979 0c50 DBB2     		uxtb	r3, r3
 1980 0c52 7868     		ldr	r0, [r7, #4]
 1981 0c54 1146     		mov	r1, r2
 1982 0c56 1A46     		mov	r2, r3
 1983 0c58 FFF7FEFF 		bl	_ZN13CT6963CDriver8SetPixelEhh
 492:../GraphicLCD/CT6963CDriver.cpp **** 		SetPixel(cx-x, cy+y );
 1984              		.loc 1 492 0
 1985 0c5c FB69     		ldr	r3, [r7, #28]
 1986 0c5e DBB2     		uxtb	r3, r3
 1987 0c60 FA78     		ldrb	r2, [r7, #3]
 1988 0c62 D31A     		subs	r3, r2, r3
 1989 0c64 DAB2     		uxtb	r2, r3
 1990 0c66 BB69     		ldr	r3, [r7, #24]
 1991 0c68 D9B2     		uxtb	r1, r3
 1992 0c6a BB78     		ldrb	r3, [r7, #2]
 1993 0c6c CB18     		adds	r3, r1, r3
 1994 0c6e DBB2     		uxtb	r3, r3
 1995 0c70 7868     		ldr	r0, [r7, #4]
 1996 0c72 1146     		mov	r1, r2
 1997 0c74 1A46     		mov	r2, r3
 1998 0c76 FFF7FEFF 		bl	_ZN13CT6963CDriver8SetPixelEhh
 493:../GraphicLCD/CT6963CDriver.cpp **** 		SetPixel(cx-x, cy-y );
 1999              		.loc 1 493 0
 2000 0c7a FB69     		ldr	r3, [r7, #28]
 2001 0c7c DBB2     		uxtb	r3, r3
 2002 0c7e FA78     		ldrb	r2, [r7, #3]
 2003 0c80 D31A     		subs	r3, r2, r3
 2004 0c82 DAB2     		uxtb	r2, r3
 2005 0c84 BB69     		ldr	r3, [r7, #24]
 2006 0c86 DBB2     		uxtb	r3, r3
 2007 0c88 B978     		ldrb	r1, [r7, #2]
 2008 0c8a CB1A     		subs	r3, r1, r3
 2009 0c8c DBB2     		uxtb	r3, r3
 2010 0c8e 7868     		ldr	r0, [r7, #4]
 2011 0c90 1146     		mov	r1, r2
 2012 0c92 1A46     		mov	r2, r3
 2013 0c94 FFF7FEFF 		bl	_ZN13CT6963CDriver8SetPixelEhh
 494:../GraphicLCD/CT6963CDriver.cpp **** 		SetPixel(cx+x, cy-y );
 2014              		.loc 1 494 0
 2015 0c98 FB69     		ldr	r3, [r7, #28]
 2016 0c9a DAB2     		uxtb	r2, r3
 2017 0c9c FB78     		ldrb	r3, [r7, #3]
 2018 0c9e D318     		adds	r3, r2, r3
 2019 0ca0 DAB2     		uxtb	r2, r3
 2020 0ca2 BB69     		ldr	r3, [r7, #24]
 2021 0ca4 DBB2     		uxtb	r3, r3
 2022 0ca6 B978     		ldrb	r1, [r7, #2]
 2023 0ca8 CB1A     		subs	r3, r1, r3
 2024 0caa DBB2     		uxtb	r3, r3
 2025 0cac 7868     		ldr	r0, [r7, #4]
 2026 0cae 1146     		mov	r1, r2
 2027 0cb0 1A46     		mov	r2, r3
 2028 0cb2 FFF7FEFF 		bl	_ZN13CT6963CDriver8SetPixelEhh
 495:../GraphicLCD/CT6963CDriver.cpp **** 		SetPixel(cx+y, cy+x );
 2029              		.loc 1 495 0
 2030 0cb6 BB69     		ldr	r3, [r7, #24]
 2031 0cb8 DAB2     		uxtb	r2, r3
 2032 0cba FB78     		ldrb	r3, [r7, #3]
 2033 0cbc D318     		adds	r3, r2, r3
 2034 0cbe DAB2     		uxtb	r2, r3
 2035 0cc0 FB69     		ldr	r3, [r7, #28]
 2036 0cc2 D9B2     		uxtb	r1, r3
 2037 0cc4 BB78     		ldrb	r3, [r7, #2]
 2038 0cc6 CB18     		adds	r3, r1, r3
 2039 0cc8 DBB2     		uxtb	r3, r3
 2040 0cca 7868     		ldr	r0, [r7, #4]
 2041 0ccc 1146     		mov	r1, r2
 2042 0cce 1A46     		mov	r2, r3
 2043 0cd0 FFF7FEFF 		bl	_ZN13CT6963CDriver8SetPixelEhh
 496:../GraphicLCD/CT6963CDriver.cpp **** 		SetPixel(cx-y, cy+x );
 2044              		.loc 1 496 0
 2045 0cd4 BB69     		ldr	r3, [r7, #24]
 2046 0cd6 DBB2     		uxtb	r3, r3
 2047 0cd8 FA78     		ldrb	r2, [r7, #3]
 2048 0cda D31A     		subs	r3, r2, r3
 2049 0cdc DAB2     		uxtb	r2, r3
 2050 0cde FB69     		ldr	r3, [r7, #28]
 2051 0ce0 D9B2     		uxtb	r1, r3
 2052 0ce2 BB78     		ldrb	r3, [r7, #2]
 2053 0ce4 CB18     		adds	r3, r1, r3
 2054 0ce6 DBB2     		uxtb	r3, r3
 2055 0ce8 7868     		ldr	r0, [r7, #4]
 2056 0cea 1146     		mov	r1, r2
 2057 0cec 1A46     		mov	r2, r3
 2058 0cee FFF7FEFF 		bl	_ZN13CT6963CDriver8SetPixelEhh
 497:../GraphicLCD/CT6963CDriver.cpp **** 		SetPixel(cx-y, cy-x );
 2059              		.loc 1 497 0
 2060 0cf2 BB69     		ldr	r3, [r7, #24]
 2061 0cf4 DBB2     		uxtb	r3, r3
 2062 0cf6 FA78     		ldrb	r2, [r7, #3]
 2063 0cf8 D31A     		subs	r3, r2, r3
 2064 0cfa DAB2     		uxtb	r2, r3
 2065 0cfc FB69     		ldr	r3, [r7, #28]
 2066 0cfe DBB2     		uxtb	r3, r3
 2067 0d00 B978     		ldrb	r1, [r7, #2]
 2068 0d02 CB1A     		subs	r3, r1, r3
 2069 0d04 DBB2     		uxtb	r3, r3
 2070 0d06 7868     		ldr	r0, [r7, #4]
 2071 0d08 1146     		mov	r1, r2
 2072 0d0a 1A46     		mov	r2, r3
 2073 0d0c FFF7FEFF 		bl	_ZN13CT6963CDriver8SetPixelEhh
 498:../GraphicLCD/CT6963CDriver.cpp **** 		SetPixel(cx+y, cy-x );
 2074              		.loc 1 498 0
 2075 0d10 BB69     		ldr	r3, [r7, #24]
 2076 0d12 DAB2     		uxtb	r2, r3
 2077 0d14 FB78     		ldrb	r3, [r7, #3]
 2078 0d16 D318     		adds	r3, r2, r3
 2079 0d18 DAB2     		uxtb	r2, r3
 2080 0d1a FB69     		ldr	r3, [r7, #28]
 2081 0d1c DBB2     		uxtb	r3, r3
 2082 0d1e B978     		ldrb	r1, [r7, #2]
 2083 0d20 CB1A     		subs	r3, r1, r3
 2084 0d22 DBB2     		uxtb	r3, r3
 2085 0d24 7868     		ldr	r0, [r7, #4]
 2086 0d26 1146     		mov	r1, r2
 2087 0d28 1A46     		mov	r2, r3
 2088 0d2a FFF7FEFF 		bl	_ZN13CT6963CDriver8SetPixelEhh
 499:../GraphicLCD/CT6963CDriver.cpp **** 		y++;
 2089              		.loc 1 499 0
 2090 0d2e BB69     		ldr	r3, [r7, #24]
 2091 0d30 03F10103 		add	r3, r3, #1
 2092 0d34 BB61     		str	r3, [r7, #24]
 500:../GraphicLCD/CT6963CDriver.cpp **** 		radiusError += ychange;
 2093              		.loc 1 500 0
 2094 0d36 FA68     		ldr	r2, [r7, #12]
 2095 0d38 3B69     		ldr	r3, [r7, #16]
 2096 0d3a D318     		adds	r3, r2, r3
 2097 0d3c FB60     		str	r3, [r7, #12]
 501:../GraphicLCD/CT6963CDriver.cpp **** 		ychange += 2;
 2098              		.loc 1 501 0
 2099 0d3e 3B69     		ldr	r3, [r7, #16]
 2100 0d40 03F10203 		add	r3, r3, #2
 2101 0d44 3B61     		str	r3, [r7, #16]
 502:../GraphicLCD/CT6963CDriver.cpp **** 		if ( 2*radiusError + xchange > 0 )
 2102              		.loc 1 502 0
 2103 0d46 FB68     		ldr	r3, [r7, #12]
 2104 0d48 4FEA4302 		lsl	r2, r3, #1
 2105 0d4c 7B69     		ldr	r3, [r7, #20]
 2106 0d4e D318     		adds	r3, r2, r3
 2107 0d50 002B     		cmp	r3, #0
 2108 0d52 0BDD     		ble	.L70
 503:../GraphicLCD/CT6963CDriver.cpp **** 		{
 504:../GraphicLCD/CT6963CDriver.cpp **** 			x--;
 2109              		.loc 1 504 0
 2110 0d54 FB69     		ldr	r3, [r7, #28]
 2111 0d56 03F1FF33 		add	r3, r3, #-1
 2112 0d5a FB61     		str	r3, [r7, #28]
 505:../GraphicLCD/CT6963CDriver.cpp **** 			radiusError += xchange;
 2113              		.loc 1 505 0
 2114 0d5c FA68     		ldr	r2, [r7, #12]
 2115 0d5e 7B69     		ldr	r3, [r7, #20]
 2116 0d60 D318     		adds	r3, r2, r3
 2117 0d62 FB60     		str	r3, [r7, #12]
 506:../GraphicLCD/CT6963CDriver.cpp **** 			xchange += 2;
 2118              		.loc 1 506 0
 2119 0d64 7B69     		ldr	r3, [r7, #20]
 2120 0d66 03F10203 		add	r3, r3, #2
 2121 0d6a 7B61     		str	r3, [r7, #20]
 2122              	.L70:
 489:../GraphicLCD/CT6963CDriver.cpp **** 	while(x >= y)
 2123              		.loc 1 489 0 discriminator 1
 2124 0d6c FA69     		ldr	r2, [r7, #28]
 2125 0d6e BB69     		ldr	r3, [r7, #24]
 2126 0d70 9A42     		cmp	r2, r3
 2127 0d72 B4BF     		ite	lt
 2128 0d74 0023     		movlt	r3, #0
 2129 0d76 0123     		movge	r3, #1
 2130 0d78 DBB2     		uxtb	r3, r3
 2131 0d7a 002B     		cmp	r3, #0
 2132 0d7c 7FF45FAF 		bne	.L71
 2133              	.LBE13:
 507:../GraphicLCD/CT6963CDriver.cpp **** 		}
 508:../GraphicLCD/CT6963CDriver.cpp **** 	}
 509:../GraphicLCD/CT6963CDriver.cpp **** }
 2134              		.loc 1 509 0
 2135 0d80 07F12007 		add	r7, r7, #32
 2136 0d84 BD46     		mov	sp, r7
 2137 0d86 80BD     		pop	{r7, pc}
 2138              		.cfi_endproc
 2139              	.LFE20:
 2141              		.align	2
 2142              		.global	_ZN13CT6963CDriver6BitmapEPhhhhh
 2143              		.thumb
 2144              		.thumb_func
 2146              	_ZN13CT6963CDriver6BitmapEPhhhhh:
 2147              	.LFB21:
 510:../GraphicLCD/CT6963CDriver.cpp **** 
 511:../GraphicLCD/CT6963CDriver.cpp **** /**
 512:../GraphicLCD/CT6963CDriver.cpp ****   * @brief  writes a bitmap to graphics ram
 513:../GraphicLCD/CT6963CDriver.cpp ****   * @param  coordinates, width and heigth
 514:../GraphicLCD/CT6963CDriver.cpp ****   * @retval None
 515:../GraphicLCD/CT6963CDriver.cpp ****   */
 516:../GraphicLCD/CT6963CDriver.cpp **** void CT6963CDriver::Bitmap(unsigned char * bitmap, unsigned char x, unsigned char y, unsigned char 
 517:../GraphicLCD/CT6963CDriver.cpp **** {
 2148              		.loc 1 517 0
 2149              		.cfi_startproc
 2150              		@ args = 8, pretend = 0, frame = 24
 2151              		@ frame_needed = 1, uses_anonymous_args = 0
 2152 0d88 80B5     		push	{r7, lr}
 2153              	.LCFI51:
 2154              		.cfi_def_cfa_offset 8
 2155              		.cfi_offset 14, -4
 2156              		.cfi_offset 7, -8
 2157 0d8a 86B0     		sub	sp, sp, #24
 2158              	.LCFI52:
 2159              		.cfi_def_cfa_offset 32
 2160 0d8c 00AF     		add	r7, sp, #0
 2161              	.LCFI53:
 2162              		.cfi_def_cfa_register 7
 2163 0d8e F860     		str	r0, [r7, #12]
 2164 0d90 B960     		str	r1, [r7, #8]
 2165 0d92 FA71     		strb	r2, [r7, #7]
 2166 0d94 BB71     		strb	r3, [r7, #6]
 2167              	.LBB14:
 518:../GraphicLCD/CT6963CDriver.cpp **** 	unsigned char i, j;
 519:../GraphicLCD/CT6963CDriver.cpp **** 
 520:../GraphicLCD/CT6963CDriver.cpp **** 	for(j = 0; j < height; j++)
 2168              		.loc 1 520 0
 2169 0d96 4FF00003 		mov	r3, #0
 2170 0d9a BB75     		strb	r3, [r7, #22]
 2171 0d9c 4FE0     		b	.L73
 2172              	.L78:
 521:../GraphicLCD/CT6963CDriver.cpp **** 	{
 522:../GraphicLCD/CT6963CDriver.cpp **** 		GraphicGoTo(x, y + j);
 2173              		.loc 1 522 0
 2174 0d9e BA79     		ldrb	r2, [r7, #6]
 2175 0da0 BB7D     		ldrb	r3, [r7, #22]
 2176 0da2 D318     		adds	r3, r2, r3
 2177 0da4 DBB2     		uxtb	r3, r3
 2178 0da6 FA79     		ldrb	r2, [r7, #7]	@ zero_extendqisi2
 2179 0da8 F868     		ldr	r0, [r7, #12]
 2180 0daa 1146     		mov	r1, r2
 2181 0dac 1A46     		mov	r2, r3
 2182 0dae FFF7FEFF 		bl	_ZN13CT6963CDriver11GraphicGoToEhh
 523:../GraphicLCD/CT6963CDriver.cpp **** 		for(i = 0; i < width/GLCD_FONT_WIDTH; i++)
 2183              		.loc 1 523 0
 2184 0db2 4FF00003 		mov	r3, #0
 2185 0db6 FB75     		strb	r3, [r7, #23]
 2186 0db8 30E0     		b	.L74
 2187              	.L77:
 524:../GraphicLCD/CT6963CDriver.cpp **** 		{
 525:../GraphicLCD/CT6963CDriver.cpp **** 			if(Inverse()){
 2188              		.loc 1 525 0
 2189 0dba FB68     		ldr	r3, [r7, #12]
 2190 0dbc 1846     		mov	r0, r3
 2191 0dbe FFF7FEFF 		bl	_ZN11CGraphicLCD7InverseEv
 2192 0dc2 0346     		mov	r3, r0
 2193 0dc4 002B     		cmp	r3, #0
 2194 0dc6 15D0     		beq	.L75
 526:../GraphicLCD/CT6963CDriver.cpp **** 				WriteDisplayData(!bitmap[i + (GLCD_GRAPHIC_AREA * j)]);
 2195              		.loc 1 526 0
 2196 0dc8 F97D     		ldrb	r1, [r7, #23]	@ zero_extendqisi2
 2197 0dca BA7D     		ldrb	r2, [r7, #22]	@ zero_extendqisi2
 2198 0dcc 1346     		mov	r3, r2
 2199 0dce 4FEA0313 		lsl	r3, r3, #4
 2200 0dd2 9B1A     		subs	r3, r3, r2
 2201 0dd4 4FEA4303 		lsl	r3, r3, #1
 2202 0dd8 CB18     		adds	r3, r1, r3
 2203 0dda BA68     		ldr	r2, [r7, #8]
 2204 0ddc D318     		adds	r3, r2, r3
 2205 0dde 1B78     		ldrb	r3, [r3, #0]	@ zero_extendqisi2
 2206 0de0 002B     		cmp	r3, #0
 2207 0de2 14BF     		ite	ne
 2208 0de4 0023     		movne	r3, #0
 2209 0de6 0123     		moveq	r3, #1
 2210 0de8 DBB2     		uxtb	r3, r3
 2211 0dea F868     		ldr	r0, [r7, #12]
 2212 0dec 1946     		mov	r1, r3
 2213 0dee FFF7FEFF 		bl	_ZN13CT6963CDriver16WriteDisplayDataEh
 2214 0df2 0FE0     		b	.L76
 2215              	.L75:
 527:../GraphicLCD/CT6963CDriver.cpp **** 			} else {
 528:../GraphicLCD/CT6963CDriver.cpp **** 				WriteDisplayData(bitmap[i + (GLCD_GRAPHIC_AREA * j)]);
 2216              		.loc 1 528 0
 2217 0df4 F97D     		ldrb	r1, [r7, #23]	@ zero_extendqisi2
 2218 0df6 BA7D     		ldrb	r2, [r7, #22]	@ zero_extendqisi2
 2219 0df8 1346     		mov	r3, r2
 2220 0dfa 4FEA0313 		lsl	r3, r3, #4
 2221 0dfe 9B1A     		subs	r3, r3, r2
 2222 0e00 4FEA4303 		lsl	r3, r3, #1
 2223 0e04 CB18     		adds	r3, r1, r3
 2224 0e06 BA68     		ldr	r2, [r7, #8]
 2225 0e08 D318     		adds	r3, r2, r3
 2226 0e0a 1B78     		ldrb	r3, [r3, #0]	@ zero_extendqisi2
 2227 0e0c F868     		ldr	r0, [r7, #12]
 2228 0e0e 1946     		mov	r1, r3
 2229 0e10 FFF7FEFF 		bl	_ZN13CT6963CDriver16WriteDisplayDataEh
 2230              	.L76:
 523:../GraphicLCD/CT6963CDriver.cpp **** 		for(i = 0; i < width/GLCD_FONT_WIDTH; i++)
 2231              		.loc 1 523 0
 2232 0e14 FB7D     		ldrb	r3, [r7, #23]
 2233 0e16 03F10103 		add	r3, r3, #1
 2234 0e1a FB75     		strb	r3, [r7, #23]
 2235              	.L74:
 523:../GraphicLCD/CT6963CDriver.cpp **** 		for(i = 0; i < width/GLCD_FONT_WIDTH; i++)
 2236              		.loc 1 523 0 is_stmt 0 discriminator 1
 2237 0e1c 97F82030 		ldrb	r3, [r7, #32]	@ zero_extendqisi2
 2238 0e20 4FEAD303 		lsr	r3, r3, #3
 2239 0e24 DBB2     		uxtb	r3, r3
 2240 0e26 FA7D     		ldrb	r2, [r7, #23]	@ zero_extendqisi2
 2241 0e28 9A42     		cmp	r2, r3
 2242 0e2a 2CBF     		ite	cs
 2243 0e2c 0023     		movcs	r3, #0
 2244 0e2e 0123     		movcc	r3, #1
 2245 0e30 DBB2     		uxtb	r3, r3
 2246 0e32 002B     		cmp	r3, #0
 2247 0e34 C1D1     		bne	.L77
 520:../GraphicLCD/CT6963CDriver.cpp **** 	for(j = 0; j < height; j++)
 2248              		.loc 1 520 0 is_stmt 1
 2249 0e36 BB7D     		ldrb	r3, [r7, #22]
 2250 0e38 03F10103 		add	r3, r3, #1
 2251 0e3c BB75     		strb	r3, [r7, #22]
 2252              	.L73:
 520:../GraphicLCD/CT6963CDriver.cpp **** 	for(j = 0; j < height; j++)
 2253              		.loc 1 520 0 is_stmt 0 discriminator 1
 2254 0e3e BA7D     		ldrb	r2, [r7, #22]	@ zero_extendqisi2
 2255 0e40 97F82430 		ldrb	r3, [r7, #36]	@ zero_extendqisi2
 2256 0e44 9A42     		cmp	r2, r3
 2257 0e46 2CBF     		ite	cs
 2258 0e48 0023     		movcs	r3, #0
 2259 0e4a 0123     		movcc	r3, #1
 2260 0e4c DBB2     		uxtb	r3, r3
 2261 0e4e 002B     		cmp	r3, #0
 2262 0e50 A5D1     		bne	.L78
 2263              	.LBE14:
 529:../GraphicLCD/CT6963CDriver.cpp **** 			}
 530:../GraphicLCD/CT6963CDriver.cpp **** 		}
 531:../GraphicLCD/CT6963CDriver.cpp **** 	}
 532:../GraphicLCD/CT6963CDriver.cpp **** }
 2264              		.loc 1 532 0 is_stmt 1
 2265 0e52 07F11807 		add	r7, r7, #24
 2266 0e56 BD46     		mov	sp, r7
 2267 0e58 80BD     		pop	{r7, pc}
 2268              		.cfi_endproc
 2269              	.LFE21:
 2271              		.global	_ZTV13CT6963CDriver
 2272              		.section	.rodata._ZTV13CT6963CDriver,"a",%progbits
 2273              		.align	3
 2276              	_ZTV13CT6963CDriver:
 2277 0000 00000000 		.word	0
 2278 0004 00000000 		.word	0
 2279 0008 00000000 		.word	_ZN13CT6963CDriver5ClearEv
 2280 000c 00000000 		.word	_ZN13CT6963CDriver4LineEjjjj
 2281 0010 00000000 		.word	_ZN13CT6963CDriver6WindowEjjjj
 2282 0014 00000000 		.word	_ZN13CT6963CDriver9RectangleEjjjjb
 2283 0018 00000000 		.word	_ZN13CT6963CDriver11SectorClearEjjjj
 2284 001c 00000000 		.word	_ZN13CT6963CDriver6CircleEhhh
 2285 0020 00000000 		.word	_ZN13CT6963CDriver11WriteStringEPKcRK5tFontjj
 2286 0024 00000000 		.word	_ZN13CT6963CDriver6BitmapEPhhhhh
 2287 0028 00000000 		.word	_ZN13CT6963CDriver4InitEv
 2288 002c 00000000 		.word	_ZN13CT6963CDriverD1Ev
 2289 0030 00000000 		.word	_ZN13CT6963CDriverD0Ev
 2290 0034 00000000 		.word	__cxa_pure_virtual
 2291 0038 00000000 		.word	__cxa_pure_virtual
 2292 003c 00000000 		.word	__cxa_pure_virtual
 2293 0040 00000000 		.word	__cxa_pure_virtual
 2294 0044 00000000 		.word	__cxa_pure_virtual
 2295              		.section	.rodata._ZL12c_FontNative,"a",%progbits
 2296              		.align	2
 2299              	_ZL12c_FontNative:
 2300 0000 00000000 		.space	24
 2300      00000000 
 2300      00000000 
 2300      00000000 
 2300      00000000 
 2301              		.section	.rodata._ZL20GLCD_NUMBER_OF_LINES,"a",%progbits
 2304              	_ZL20GLCD_NUMBER_OF_LINES:
 2305 0000 80       		.byte	-128
 2306              		.section	.rodata._ZL20GLCD_PIXELS_PER_LINE,"a",%progbits
 2309              	_ZL20GLCD_PIXELS_PER_LINE:
 2310 0000 F0       		.byte	-16
 2311              		.section	.rodata._ZL15GLCD_FONT_WIDTH,"a",%progbits
 2314              	_ZL15GLCD_FONT_WIDTH:
 2315 0000 08       		.byte	8
 2316              		.section	.rodata._ZL17GLCD_GRAPHIC_AREA,"a",%progbits
 2319              	_ZL17GLCD_GRAPHIC_AREA:
 2320 0000 1E       		.byte	30
 2321              		.section	.rodata._ZL14GLCD_TEXT_AREA,"a",%progbits
 2324              	_ZL14GLCD_TEXT_AREA:
 2325 0000 1E       		.byte	30
 2326              		.section	.rodata._ZL17GLCD_GRAPHIC_SIZE,"a",%progbits
 2327              		.align	2
 2330              	_ZL17GLCD_GRAPHIC_SIZE:
 2331 0000 000F0000 		.word	3840
 2332              		.section	.rodata._ZL14GLCD_TEXT_SIZE,"a",%progbits
 2333              		.align	2
 2336              	_ZL14GLCD_TEXT_SIZE:
 2337 0000 E0010000 		.word	480
 2338              		.section	.rodata._ZL14GLCD_TEXT_HOME,"a",%progbits
 2339              		.align	2
 2342              	_ZL14GLCD_TEXT_HOME:
 2343 0000 00000000 		.space	4
 2344              		.section	.rodata._ZL17GLCD_GRAPHIC_HOME,"a",%progbits
 2345              		.align	2
 2348              	_ZL17GLCD_GRAPHIC_HOME:
 2349 0000 E0010000 		.word	480
 2350              		.section	.rodata._ZL20GLCD_OFFSET_REGISTER,"a",%progbits
 2353              	_ZL20GLCD_OFFSET_REGISTER:
 2354 0000 02       		.byte	2
 2355              		.section	.rodata._ZL21GLCD_EXTERNAL_CG_HOME,"a",%progbits
 2356              		.align	2
 2359              	_ZL21GLCD_EXTERNAL_CG_HOME:
 2360 0000 00100000 		.word	4096
 2361              		.section	.rodata._ZL24T6963_SET_CURSOR_POINTER,"a",%progbits
 2364              	_ZL24T6963_SET_CURSOR_POINTER:
 2365 0000 21       		.byte	33
 2366              		.section	.rodata._ZL25T6963_SET_OFFSET_REGISTER,"a",%progbits
 2369              	_ZL25T6963_SET_OFFSET_REGISTER:
 2370 0000 22       		.byte	34
 2371              		.section	.rodata._ZL25T6963_SET_ADDRESS_POINTER,"a",%progbits
 2374              	_ZL25T6963_SET_ADDRESS_POINTER:
 2375 0000 24       		.byte	36
 2376              		.section	.rodata._ZL27T6963_SET_TEXT_HOME_ADDRESS,"a",%progbits
 2379              	_ZL27T6963_SET_TEXT_HOME_ADDRESS:
 2380 0000 40       		.byte	64
 2381              		.section	.rodata._ZL19T6963_SET_TEXT_AREA,"a",%progbits
 2384              	_ZL19T6963_SET_TEXT_AREA:
 2385 0000 41       		.byte	65
 2386              		.section	.rodata._ZL30T6963_SET_GRAPHIC_HOME_ADDRESS,"a",%progbits
 2389              	_ZL30T6963_SET_GRAPHIC_HOME_ADDRESS:
 2390 0000 42       		.byte	66
 2391              		.section	.rodata._ZL22T6963_SET_GRAPHIC_AREA,"a",%progbits
 2394              	_ZL22T6963_SET_GRAPHIC_AREA:
 2395 0000 43       		.byte	67
 2396              		.section	.rodata._ZL14T6963_MODE_SET,"a",%progbits
 2399              	_ZL14T6963_MODE_SET:
 2400 0000 80       		.byte	-128
 2401              		.section	.rodata._ZL18T6963_DISPLAY_MODE,"a",%progbits
 2404              	_ZL18T6963_DISPLAY_MODE:
 2405 0000 90       		.byte	-112
 2406              		.section	.rodata._ZL21T6963_CURSOR_BLINK_ON,"a",%progbits
 2409              	_ZL21T6963_CURSOR_BLINK_ON:
 2410 0000 01       		.byte	1
 2411              		.section	.rodata._ZL23T6963_CURSOR_DISPLAY_ON,"a",%progbits
 2414              	_ZL23T6963_CURSOR_DISPLAY_ON:
 2415 0000 02       		.byte	2
 2416              		.section	.rodata._ZL21T6963_TEXT_DISPLAY_ON,"a",%progbits
 2419              	_ZL21T6963_TEXT_DISPLAY_ON:
 2420 0000 04       		.byte	4
 2421              		.section	.rodata._ZL24T6963_GRAPHIC_DISPLAY_ON,"a",%progbits
 2424              	_ZL24T6963_GRAPHIC_DISPLAY_ON:
 2425 0000 08       		.byte	8
 2426              		.section	.rodata._ZL27T6963_CURSOR_PATTERN_SELECT,"a",%progbits
 2429              	_ZL27T6963_CURSOR_PATTERN_SELECT:
 2430 0000 A0       		.byte	-96
 2431              		.section	.rodata._ZL19T6963_CURSOR_1_LINE,"a",%progbits
 2434              	_ZL19T6963_CURSOR_1_LINE:
 2435 0000 00       		.space	1
 2436              		.section	.rodata._ZL19T6963_CURSOR_2_LINE,"a",%progbits
 2439              	_ZL19T6963_CURSOR_2_LINE:
 2440 0000 01       		.byte	1
 2441              		.section	.rodata._ZL19T6963_CURSOR_3_LINE,"a",%progbits
 2444              	_ZL19T6963_CURSOR_3_LINE:
 2445 0000 02       		.byte	2
 2446              		.section	.rodata._ZL19T6963_CURSOR_4_LINE,"a",%progbits
 2449              	_ZL19T6963_CURSOR_4_LINE:
 2450 0000 03       		.byte	3
 2451              		.section	.rodata._ZL19T6963_CURSOR_5_LINE,"a",%progbits
 2454              	_ZL19T6963_CURSOR_5_LINE:
 2455 0000 04       		.byte	4
 2456              		.section	.rodata._ZL19T6963_CURSOR_6_LINE,"a",%progbits
 2459              	_ZL19T6963_CURSOR_6_LINE:
 2460 0000 05       		.byte	5
 2461              		.section	.rodata._ZL19T6963_CURSOR_7_LINE,"a",%progbits
 2464              	_ZL19T6963_CURSOR_7_LINE:
 2465 0000 06       		.byte	6
 2466              		.section	.rodata._ZL19T6963_CURSOR_8_LINE,"a",%progbits
 2469              	_ZL19T6963_CURSOR_8_LINE:
 2470 0000 07       		.byte	7
 2471              		.section	.rodata._ZL25T6963_SET_DATA_AUTO_WRITE,"a",%progbits
 2474              	_ZL25T6963_SET_DATA_AUTO_WRITE:
 2475 0000 B0       		.byte	-80
 2476              		.section	.rodata._ZL24T6963_SET_DATA_AUTO_READ,"a",%progbits
 2479              	_ZL24T6963_SET_DATA_AUTO_READ:
 2480 0000 B1       		.byte	-79
 2481              		.section	.rodata._ZL16T6963_AUTO_RESET,"a",%progbits
 2484              	_ZL16T6963_AUTO_RESET:
 2485 0000 B2       		.byte	-78
 2486              		.section	.rodata._ZL30T6963_DATA_WRITE_AND_INCREMENT,"a",%progbits
 2489              	_ZL30T6963_DATA_WRITE_AND_INCREMENT:
 2490 0000 C0       		.byte	-64
 2491              		.section	.rodata._ZL29T6963_DATA_READ_AND_INCREMENT,"a",%progbits
 2494              	_ZL29T6963_DATA_READ_AND_INCREMENT:
 2495 0000 C1       		.byte	-63
 2496              		.section	.rodata._ZL30T6963_DATA_WRITE_AND_DECREMENT,"a",%progbits
 2499              	_ZL30T6963_DATA_WRITE_AND_DECREMENT:
 2500 0000 C2       		.byte	-62
 2501              		.section	.rodata._ZL29T6963_DATA_READ_AND_DECREMENT,"a",%progbits
 2504              	_ZL29T6963_DATA_READ_AND_DECREMENT:
 2505 0000 C3       		.byte	-61
 2506              		.section	.rodata._ZL32T6963_DATA_WRITE_AND_NONVARIALBE,"a",%progbits
 2509              	_ZL32T6963_DATA_WRITE_AND_NONVARIALBE:
 2510 0000 C4       		.byte	-60
 2511              		.section	.rodata._ZL31T6963_DATA_READ_AND_NONVARIABLE,"a",%progbits
 2514              	_ZL31T6963_DATA_READ_AND_NONVARIABLE:
 2515 0000 C5       		.byte	-59
 2516              		.section	.rodata._ZL17T6963_SCREEN_PEEK,"a",%progbits
 2519              	_ZL17T6963_SCREEN_PEEK:
 2520 0000 E0       		.byte	-32
 2521              		.section	.rodata._ZL17T6963_SCREEN_COPY,"a",%progbits
 2524              	_ZL17T6963_SCREEN_COPY:
 2525 0000 E8       		.byte	-24
 2526              		.section	.rodata._ZL13T6963_BIT_SET,"a",%progbits
 2529              	_ZL13T6963_BIT_SET:
 2530 0000 F8       		.byte	-8
 2531              		.section	.rodata._ZL15T6963_BIT_RESET,"a",%progbits
 2534              	_ZL15T6963_BIT_RESET:
 2535 0000 F0       		.byte	-16
 2536              		.global	_ZN13CT6963CDriverC1Ev
 2537              		.thumb_set _ZN13CT6963CDriverC1Ev,_ZN13CT6963CDriverC2Ev
 2538              		.global	_ZN13CT6963CDriverD1Ev
 2539              		.thumb_set _ZN13CT6963CDriverD1Ev,_ZN13CT6963CDriverD2Ev
 2540              		.text
 2541              	.Letext0:
 2542              		.file 2 "../GraphicLCD/CGraphicLCD.h"
 2543              		.file 3 "../GraphicLCD/CT6963CDriver.h"
DEFINED SYMBOLS
                            *ABS*:00000000 CT6963CDriver.cpp
  C:\Temp\ccREwKOP.s:18     .text:00000000 $t
  C:\Temp\ccREwKOP.s:23     .text:00000000 _ZN13CT6963CDriverC2Ev
  C:\Temp\ccREwKOP.s:60     .text:00000024 $d
  C:\Temp\ccREwKOP.s:2276   .rodata._ZTV13CT6963CDriver:00000000 _ZTV13CT6963CDriver
  C:\Temp\ccREwKOP.s:64     .text:00000028 $t
  C:\Temp\ccREwKOP.s:69     .text:00000028 _ZN13CT6963CDriverD2Ev
  C:\Temp\ccREwKOP.s:114    .text:0000005c $d
  C:\Temp\ccREwKOP.s:118    .text:00000060 $t
  C:\Temp\ccREwKOP.s:123    .text:00000060 _ZN13CT6963CDriverD0Ev
  C:\Temp\ccREwKOP.s:69     .text:00000028 _ZN13CT6963CDriverD1Ev
  C:\Temp\ccREwKOP.s:159    .text:00000080 _ZN13CT6963CDriver4InitEv
  C:\Temp\ccREwKOP.s:339    .text:000001e0 _ZN13CT6963CDriver17SetAddressPointerEj
  C:\Temp\ccREwKOP.s:403    .text:00000238 _ZN13CT6963CDriver8TextGoToEhh
  C:\Temp\ccREwKOP.s:452    .text:0000026c _ZN13CT6963CDriver11GraphicGoToEhh
  C:\Temp\ccREwKOP.s:505    .text:000002ac _ZN13CT6963CDriver5ClearEv
  C:\Temp\ccREwKOP.s:607    .text:00000348 _ZN13CT6963CDriver16WriteDisplayDataEh
  C:\Temp\ccREwKOP.s:656    .text:00000380 _ZN13CT6963CDriver9WriteCharEc
  C:\Temp\ccREwKOP.s:695    .text:000003a4 _ZN13CT6963CDriver11WriteStringEPKcRK5tFontjj
  C:\Temp\ccREwKOP.s:928    .text:00000540 _ZN13CT6963CDriver8SetPixelEhh
  C:\Temp\ccREwKOP.s:1023   .text:000005c8 _ZN13CT6963CDriver4LineEjjjj
  C:\Temp\ccREwKOP.s:1246   .text:00000718 _ZN13CT6963CDriver6WindowEjjjj
  C:\Temp\ccREwKOP.s:1656   .text:00000a60 _ZN13CT6963CDriver9RectangleEjjjjb
  C:\Temp\ccREwKOP.s:1854   .text:00000ba4 _ZN13CT6963CDriver11SectorClearEjjjj
  C:\Temp\ccREwKOP.s:1924   .text:00000c04 _ZN13CT6963CDriver6CircleEhhh
  C:\Temp\ccREwKOP.s:2146   .text:00000d88 _ZN13CT6963CDriver6BitmapEPhhhhh
  C:\Temp\ccREwKOP.s:2273   .rodata._ZTV13CT6963CDriver:00000000 $d
  C:\Temp\ccREwKOP.s:2296   .rodata._ZL12c_FontNative:00000000 $d
  C:\Temp\ccREwKOP.s:2299   .rodata._ZL12c_FontNative:00000000 _ZL12c_FontNative
  C:\Temp\ccREwKOP.s:2304   .rodata._ZL20GLCD_NUMBER_OF_LINES:00000000 _ZL20GLCD_NUMBER_OF_LINES
  C:\Temp\ccREwKOP.s:2309   .rodata._ZL20GLCD_PIXELS_PER_LINE:00000000 _ZL20GLCD_PIXELS_PER_LINE
  C:\Temp\ccREwKOP.s:2314   .rodata._ZL15GLCD_FONT_WIDTH:00000000 _ZL15GLCD_FONT_WIDTH
  C:\Temp\ccREwKOP.s:2319   .rodata._ZL17GLCD_GRAPHIC_AREA:00000000 _ZL17GLCD_GRAPHIC_AREA
  C:\Temp\ccREwKOP.s:2324   .rodata._ZL14GLCD_TEXT_AREA:00000000 _ZL14GLCD_TEXT_AREA
  C:\Temp\ccREwKOP.s:2327   .rodata._ZL17GLCD_GRAPHIC_SIZE:00000000 $d
  C:\Temp\ccREwKOP.s:2330   .rodata._ZL17GLCD_GRAPHIC_SIZE:00000000 _ZL17GLCD_GRAPHIC_SIZE
  C:\Temp\ccREwKOP.s:2333   .rodata._ZL14GLCD_TEXT_SIZE:00000000 $d
  C:\Temp\ccREwKOP.s:2336   .rodata._ZL14GLCD_TEXT_SIZE:00000000 _ZL14GLCD_TEXT_SIZE
  C:\Temp\ccREwKOP.s:2339   .rodata._ZL14GLCD_TEXT_HOME:00000000 $d
  C:\Temp\ccREwKOP.s:2342   .rodata._ZL14GLCD_TEXT_HOME:00000000 _ZL14GLCD_TEXT_HOME
  C:\Temp\ccREwKOP.s:2345   .rodata._ZL17GLCD_GRAPHIC_HOME:00000000 $d
  C:\Temp\ccREwKOP.s:2348   .rodata._ZL17GLCD_GRAPHIC_HOME:00000000 _ZL17GLCD_GRAPHIC_HOME
  C:\Temp\ccREwKOP.s:2353   .rodata._ZL20GLCD_OFFSET_REGISTER:00000000 _ZL20GLCD_OFFSET_REGISTER
  C:\Temp\ccREwKOP.s:2356   .rodata._ZL21GLCD_EXTERNAL_CG_HOME:00000000 $d
  C:\Temp\ccREwKOP.s:2359   .rodata._ZL21GLCD_EXTERNAL_CG_HOME:00000000 _ZL21GLCD_EXTERNAL_CG_HOME
  C:\Temp\ccREwKOP.s:2364   .rodata._ZL24T6963_SET_CURSOR_POINTER:00000000 _ZL24T6963_SET_CURSOR_POINTER
  C:\Temp\ccREwKOP.s:2369   .rodata._ZL25T6963_SET_OFFSET_REGISTER:00000000 _ZL25T6963_SET_OFFSET_REGISTER
  C:\Temp\ccREwKOP.s:2374   .rodata._ZL25T6963_SET_ADDRESS_POINTER:00000000 _ZL25T6963_SET_ADDRESS_POINTER
  C:\Temp\ccREwKOP.s:2379   .rodata._ZL27T6963_SET_TEXT_HOME_ADDRESS:00000000 _ZL27T6963_SET_TEXT_HOME_ADDRESS
  C:\Temp\ccREwKOP.s:2384   .rodata._ZL19T6963_SET_TEXT_AREA:00000000 _ZL19T6963_SET_TEXT_AREA
  C:\Temp\ccREwKOP.s:2389   .rodata._ZL30T6963_SET_GRAPHIC_HOME_ADDRESS:00000000 _ZL30T6963_SET_GRAPHIC_HOME_ADDRESS
  C:\Temp\ccREwKOP.s:2394   .rodata._ZL22T6963_SET_GRAPHIC_AREA:00000000 _ZL22T6963_SET_GRAPHIC_AREA
  C:\Temp\ccREwKOP.s:2399   .rodata._ZL14T6963_MODE_SET:00000000 _ZL14T6963_MODE_SET
  C:\Temp\ccREwKOP.s:2404   .rodata._ZL18T6963_DISPLAY_MODE:00000000 _ZL18T6963_DISPLAY_MODE
  C:\Temp\ccREwKOP.s:2409   .rodata._ZL21T6963_CURSOR_BLINK_ON:00000000 _ZL21T6963_CURSOR_BLINK_ON
  C:\Temp\ccREwKOP.s:2414   .rodata._ZL23T6963_CURSOR_DISPLAY_ON:00000000 _ZL23T6963_CURSOR_DISPLAY_ON
  C:\Temp\ccREwKOP.s:2419   .rodata._ZL21T6963_TEXT_DISPLAY_ON:00000000 _ZL21T6963_TEXT_DISPLAY_ON
  C:\Temp\ccREwKOP.s:2424   .rodata._ZL24T6963_GRAPHIC_DISPLAY_ON:00000000 _ZL24T6963_GRAPHIC_DISPLAY_ON
  C:\Temp\ccREwKOP.s:2429   .rodata._ZL27T6963_CURSOR_PATTERN_SELECT:00000000 _ZL27T6963_CURSOR_PATTERN_SELECT
  C:\Temp\ccREwKOP.s:2434   .rodata._ZL19T6963_CURSOR_1_LINE:00000000 _ZL19T6963_CURSOR_1_LINE
  C:\Temp\ccREwKOP.s:2435   .rodata._ZL19T6963_CURSOR_1_LINE:00000000 $d
  C:\Temp\ccREwKOP.s:2439   .rodata._ZL19T6963_CURSOR_2_LINE:00000000 _ZL19T6963_CURSOR_2_LINE
  C:\Temp\ccREwKOP.s:2444   .rodata._ZL19T6963_CURSOR_3_LINE:00000000 _ZL19T6963_CURSOR_3_LINE
  C:\Temp\ccREwKOP.s:2449   .rodata._ZL19T6963_CURSOR_4_LINE:00000000 _ZL19T6963_CURSOR_4_LINE
  C:\Temp\ccREwKOP.s:2454   .rodata._ZL19T6963_CURSOR_5_LINE:00000000 _ZL19T6963_CURSOR_5_LINE
  C:\Temp\ccREwKOP.s:2459   .rodata._ZL19T6963_CURSOR_6_LINE:00000000 _ZL19T6963_CURSOR_6_LINE
  C:\Temp\ccREwKOP.s:2464   .rodata._ZL19T6963_CURSOR_7_LINE:00000000 _ZL19T6963_CURSOR_7_LINE
  C:\Temp\ccREwKOP.s:2469   .rodata._ZL19T6963_CURSOR_8_LINE:00000000 _ZL19T6963_CURSOR_8_LINE
  C:\Temp\ccREwKOP.s:2474   .rodata._ZL25T6963_SET_DATA_AUTO_WRITE:00000000 _ZL25T6963_SET_DATA_AUTO_WRITE
  C:\Temp\ccREwKOP.s:2479   .rodata._ZL24T6963_SET_DATA_AUTO_READ:00000000 _ZL24T6963_SET_DATA_AUTO_READ
  C:\Temp\ccREwKOP.s:2484   .rodata._ZL16T6963_AUTO_RESET:00000000 _ZL16T6963_AUTO_RESET
  C:\Temp\ccREwKOP.s:2489   .rodata._ZL30T6963_DATA_WRITE_AND_INCREMENT:00000000 _ZL30T6963_DATA_WRITE_AND_INCREMENT
  C:\Temp\ccREwKOP.s:2494   .rodata._ZL29T6963_DATA_READ_AND_INCREMENT:00000000 _ZL29T6963_DATA_READ_AND_INCREMENT
  C:\Temp\ccREwKOP.s:2499   .rodata._ZL30T6963_DATA_WRITE_AND_DECREMENT:00000000 _ZL30T6963_DATA_WRITE_AND_DECREMENT
  C:\Temp\ccREwKOP.s:2504   .rodata._ZL29T6963_DATA_READ_AND_DECREMENT:00000000 _ZL29T6963_DATA_READ_AND_DECREMENT
  C:\Temp\ccREwKOP.s:2509   .rodata._ZL32T6963_DATA_WRITE_AND_NONVARIALBE:00000000 _ZL32T6963_DATA_WRITE_AND_NONVARIALBE
  C:\Temp\ccREwKOP.s:2514   .rodata._ZL31T6963_DATA_READ_AND_NONVARIABLE:00000000 _ZL31T6963_DATA_READ_AND_NONVARIABLE
  C:\Temp\ccREwKOP.s:2519   .rodata._ZL17T6963_SCREEN_PEEK:00000000 _ZL17T6963_SCREEN_PEEK
  C:\Temp\ccREwKOP.s:2524   .rodata._ZL17T6963_SCREEN_COPY:00000000 _ZL17T6963_SCREEN_COPY
  C:\Temp\ccREwKOP.s:2529   .rodata._ZL13T6963_BIT_SET:00000000 _ZL13T6963_BIT_SET
  C:\Temp\ccREwKOP.s:2534   .rodata._ZL15T6963_BIT_RESET:00000000 _ZL15T6963_BIT_RESET
  C:\Temp\ccREwKOP.s:23     .text:00000000 _ZN13CT6963CDriverC1Ev
                     .debug_frame:00000010 $d

UNDEFINED SYMBOLS
_ZN11CGraphicLCDC2Ev
_ZN11CGraphicLCDD2Ev
_ZdlPv
_ZN11CGraphicLCD7InverseEv
_ZN11CGraphicLCD7InverseEb
__cxa_pure_virtual
