   1              		.syntax unified
   2              		.cpu cortex-m4
   3              		.eabi_attribute 27, 3
   4              		.fpu fpv4-sp-d16
   5              		.eabi_attribute 20, 1
   6              		.eabi_attribute 21, 1
   7              		.eabi_attribute 23, 3
   8              		.eabi_attribute 24, 1
   9              		.eabi_attribute 25, 1
  10              		.eabi_attribute 26, 1
  11              		.eabi_attribute 30, 6
  12              		.eabi_attribute 34, 1
  13              		.eabi_attribute 18, 4
  14              		.thumb
  15              		.file	"stm32f4xx_dbgmcu.c"
  16              		.text
  17              	.Ltext0:
  18              		.cfi_sections	.debug_frame
  19              		.align	2
  20              		.global	DBGMCU_GetREVID
  21              		.thumb
  22              		.thumb_func
  24              	DBGMCU_GetREVID:
  25              	.LFB110:
  26              		.file 1 "../STM32F4xx_StdPeriph_Driver/src/stm32f4xx_dbgmcu.c"
   1:../STM32F4xx_StdPeriph_Driver/src/stm32f4xx_dbgmcu.c **** /**
   2:../STM32F4xx_StdPeriph_Driver/src/stm32f4xx_dbgmcu.c ****   ******************************************************************************
   3:../STM32F4xx_StdPeriph_Driver/src/stm32f4xx_dbgmcu.c ****   * @file    stm32f4xx_dbgmcu.c
   4:../STM32F4xx_StdPeriph_Driver/src/stm32f4xx_dbgmcu.c ****   * @author  MCD Application Team
   5:../STM32F4xx_StdPeriph_Driver/src/stm32f4xx_dbgmcu.c ****   * @version V1.0.0
   6:../STM32F4xx_StdPeriph_Driver/src/stm32f4xx_dbgmcu.c ****   * @date    30-September-2011
   7:../STM32F4xx_StdPeriph_Driver/src/stm32f4xx_dbgmcu.c ****   * @brief   This file provides all the DBGMCU firmware functions.
   8:../STM32F4xx_StdPeriph_Driver/src/stm32f4xx_dbgmcu.c ****   ******************************************************************************
   9:../STM32F4xx_StdPeriph_Driver/src/stm32f4xx_dbgmcu.c ****   * @attention
  10:../STM32F4xx_StdPeriph_Driver/src/stm32f4xx_dbgmcu.c ****   *
  11:../STM32F4xx_StdPeriph_Driver/src/stm32f4xx_dbgmcu.c ****   * THE PRESENT FIRMWARE WHICH IS FOR GUIDANCE ONLY AIMS AT PROVIDING CUSTOMERS
  12:../STM32F4xx_StdPeriph_Driver/src/stm32f4xx_dbgmcu.c ****   * WITH CODING INFORMATION REGARDING THEIR PRODUCTS IN ORDER FOR THEM TO SAVE
  13:../STM32F4xx_StdPeriph_Driver/src/stm32f4xx_dbgmcu.c ****   * TIME. AS A RESULT, STMICROELECTRONICS SHALL NOT BE HELD LIABLE FOR ANY
  14:../STM32F4xx_StdPeriph_Driver/src/stm32f4xx_dbgmcu.c ****   * DIRECT, INDIRECT OR CONSEQUENTIAL DAMAGES WITH RESPECT TO ANY CLAIMS ARISING
  15:../STM32F4xx_StdPeriph_Driver/src/stm32f4xx_dbgmcu.c ****   * FROM THE CONTENT OF SUCH FIRMWARE AND/OR THE USE MADE BY CUSTOMERS OF THE
  16:../STM32F4xx_StdPeriph_Driver/src/stm32f4xx_dbgmcu.c ****   * CODING INFORMATION CONTAINED HEREIN IN CONNECTION WITH THEIR PRODUCTS.
  17:../STM32F4xx_StdPeriph_Driver/src/stm32f4xx_dbgmcu.c ****   *
  18:../STM32F4xx_StdPeriph_Driver/src/stm32f4xx_dbgmcu.c ****   * <h2><center>&copy; COPYRIGHT 2011 STMicroelectronics</center></h2>
  19:../STM32F4xx_StdPeriph_Driver/src/stm32f4xx_dbgmcu.c ****   ******************************************************************************
  20:../STM32F4xx_StdPeriph_Driver/src/stm32f4xx_dbgmcu.c ****   */
  21:../STM32F4xx_StdPeriph_Driver/src/stm32f4xx_dbgmcu.c **** 
  22:../STM32F4xx_StdPeriph_Driver/src/stm32f4xx_dbgmcu.c **** /* Includes ------------------------------------------------------------------*/
  23:../STM32F4xx_StdPeriph_Driver/src/stm32f4xx_dbgmcu.c **** #include "stm32f4xx_dbgmcu.h"
  24:../STM32F4xx_StdPeriph_Driver/src/stm32f4xx_dbgmcu.c **** 
  25:../STM32F4xx_StdPeriph_Driver/src/stm32f4xx_dbgmcu.c **** /** @addtogroup STM32F4xx_StdPeriph_Driver
  26:../STM32F4xx_StdPeriph_Driver/src/stm32f4xx_dbgmcu.c ****   * @{
  27:../STM32F4xx_StdPeriph_Driver/src/stm32f4xx_dbgmcu.c ****   */
  28:../STM32F4xx_StdPeriph_Driver/src/stm32f4xx_dbgmcu.c **** 
  29:../STM32F4xx_StdPeriph_Driver/src/stm32f4xx_dbgmcu.c **** /** @defgroup DBGMCU 
  30:../STM32F4xx_StdPeriph_Driver/src/stm32f4xx_dbgmcu.c ****   * @brief DBGMCU driver modules
  31:../STM32F4xx_StdPeriph_Driver/src/stm32f4xx_dbgmcu.c ****   * @{
  32:../STM32F4xx_StdPeriph_Driver/src/stm32f4xx_dbgmcu.c ****   */ 
  33:../STM32F4xx_StdPeriph_Driver/src/stm32f4xx_dbgmcu.c **** 
  34:../STM32F4xx_StdPeriph_Driver/src/stm32f4xx_dbgmcu.c **** /* Private typedef -----------------------------------------------------------*/
  35:../STM32F4xx_StdPeriph_Driver/src/stm32f4xx_dbgmcu.c **** /* Private define ------------------------------------------------------------*/
  36:../STM32F4xx_StdPeriph_Driver/src/stm32f4xx_dbgmcu.c **** #define IDCODE_DEVID_MASK    ((uint32_t)0x00000FFF)
  37:../STM32F4xx_StdPeriph_Driver/src/stm32f4xx_dbgmcu.c **** 
  38:../STM32F4xx_StdPeriph_Driver/src/stm32f4xx_dbgmcu.c **** /* Private macro -------------------------------------------------------------*/
  39:../STM32F4xx_StdPeriph_Driver/src/stm32f4xx_dbgmcu.c **** /* Private variables ---------------------------------------------------------*/
  40:../STM32F4xx_StdPeriph_Driver/src/stm32f4xx_dbgmcu.c **** /* Private function prototypes -----------------------------------------------*/
  41:../STM32F4xx_StdPeriph_Driver/src/stm32f4xx_dbgmcu.c **** /* Private functions ---------------------------------------------------------*/
  42:../STM32F4xx_StdPeriph_Driver/src/stm32f4xx_dbgmcu.c **** 
  43:../STM32F4xx_StdPeriph_Driver/src/stm32f4xx_dbgmcu.c **** /** @defgroup DBGMCU_Private_Functions
  44:../STM32F4xx_StdPeriph_Driver/src/stm32f4xx_dbgmcu.c ****   * @{
  45:../STM32F4xx_StdPeriph_Driver/src/stm32f4xx_dbgmcu.c ****   */ 
  46:../STM32F4xx_StdPeriph_Driver/src/stm32f4xx_dbgmcu.c **** 
  47:../STM32F4xx_StdPeriph_Driver/src/stm32f4xx_dbgmcu.c **** /**
  48:../STM32F4xx_StdPeriph_Driver/src/stm32f4xx_dbgmcu.c ****   * @brief  Returns the device revision identifier.
  49:../STM32F4xx_StdPeriph_Driver/src/stm32f4xx_dbgmcu.c ****   * @param  None
  50:../STM32F4xx_StdPeriph_Driver/src/stm32f4xx_dbgmcu.c ****   * @retval Device revision identifier
  51:../STM32F4xx_StdPeriph_Driver/src/stm32f4xx_dbgmcu.c ****   */
  52:../STM32F4xx_StdPeriph_Driver/src/stm32f4xx_dbgmcu.c **** uint32_t DBGMCU_GetREVID(void)
  53:../STM32F4xx_StdPeriph_Driver/src/stm32f4xx_dbgmcu.c **** {
  27              		.loc 1 53 0
  28              		.cfi_startproc
  29              		@ args = 0, pretend = 0, frame = 0
  30              		@ frame_needed = 1, uses_anonymous_args = 0
  31              		@ link register save eliminated.
  32 0000 80B4     		push	{r7}
  33              	.LCFI0:
  34              		.cfi_def_cfa_offset 4
  35              		.cfi_offset 7, -4
  36 0002 00AF     		add	r7, sp, #0
  37              	.LCFI1:
  38              		.cfi_def_cfa_register 7
  54:../STM32F4xx_StdPeriph_Driver/src/stm32f4xx_dbgmcu.c ****    return(DBGMCU->IDCODE >> 16);
  39              		.loc 1 54 0
  40 0004 4FF40053 		mov	r3, #8192
  41 0008 CEF20403 		movt	r3, 57348
  42 000c 1B68     		ldr	r3, [r3, #0]
  43 000e 4FEA1343 		lsr	r3, r3, #16
  55:../STM32F4xx_StdPeriph_Driver/src/stm32f4xx_dbgmcu.c **** }
  44              		.loc 1 55 0
  45 0012 1846     		mov	r0, r3
  46 0014 BD46     		mov	sp, r7
  47 0016 80BC     		pop	{r7}
  48 0018 7047     		bx	lr
  49              		.cfi_endproc
  50              	.LFE110:
  52 001a 00BF     		.align	2
  53              		.global	DBGMCU_GetDEVID
  54              		.thumb
  55              		.thumb_func
  57              	DBGMCU_GetDEVID:
  58              	.LFB111:
  56:../STM32F4xx_StdPeriph_Driver/src/stm32f4xx_dbgmcu.c **** 
  57:../STM32F4xx_StdPeriph_Driver/src/stm32f4xx_dbgmcu.c **** /**
  58:../STM32F4xx_StdPeriph_Driver/src/stm32f4xx_dbgmcu.c ****   * @brief  Returns the device identifier.
  59:../STM32F4xx_StdPeriph_Driver/src/stm32f4xx_dbgmcu.c ****   * @param  None
  60:../STM32F4xx_StdPeriph_Driver/src/stm32f4xx_dbgmcu.c ****   * @retval Device identifier
  61:../STM32F4xx_StdPeriph_Driver/src/stm32f4xx_dbgmcu.c ****   */
  62:../STM32F4xx_StdPeriph_Driver/src/stm32f4xx_dbgmcu.c **** uint32_t DBGMCU_GetDEVID(void)
  63:../STM32F4xx_StdPeriph_Driver/src/stm32f4xx_dbgmcu.c **** {
  59              		.loc 1 63 0
  60              		.cfi_startproc
  61              		@ args = 0, pretend = 0, frame = 0
  62              		@ frame_needed = 1, uses_anonymous_args = 0
  63              		@ link register save eliminated.
  64 001c 80B4     		push	{r7}
  65              	.LCFI2:
  66              		.cfi_def_cfa_offset 4
  67              		.cfi_offset 7, -4
  68 001e 00AF     		add	r7, sp, #0
  69              	.LCFI3:
  70              		.cfi_def_cfa_register 7
  64:../STM32F4xx_StdPeriph_Driver/src/stm32f4xx_dbgmcu.c ****    return(DBGMCU->IDCODE & IDCODE_DEVID_MASK);
  71              		.loc 1 64 0
  72 0020 4FF40053 		mov	r3, #8192
  73 0024 CEF20403 		movt	r3, 57348
  74 0028 1B68     		ldr	r3, [r3, #0]
  75 002a 4FEA0353 		lsl	r3, r3, #20
  76 002e 4FEA1353 		lsr	r3, r3, #20
  65:../STM32F4xx_StdPeriph_Driver/src/stm32f4xx_dbgmcu.c **** }
  77              		.loc 1 65 0
  78 0032 1846     		mov	r0, r3
  79 0034 BD46     		mov	sp, r7
  80 0036 80BC     		pop	{r7}
  81 0038 7047     		bx	lr
  82              		.cfi_endproc
  83              	.LFE111:
  85 003a 00BF     		.align	2
  86              		.global	DBGMCU_Config
  87              		.thumb
  88              		.thumb_func
  90              	DBGMCU_Config:
  91              	.LFB112:
  66:../STM32F4xx_StdPeriph_Driver/src/stm32f4xx_dbgmcu.c **** 
  67:../STM32F4xx_StdPeriph_Driver/src/stm32f4xx_dbgmcu.c **** /**
  68:../STM32F4xx_StdPeriph_Driver/src/stm32f4xx_dbgmcu.c ****   * @brief  Configures low power mode behavior when the MCU is in Debug mode.
  69:../STM32F4xx_StdPeriph_Driver/src/stm32f4xx_dbgmcu.c ****   * @param  DBGMCU_Periph: specifies the low power mode.
  70:../STM32F4xx_StdPeriph_Driver/src/stm32f4xx_dbgmcu.c ****   *   This parameter can be any combination of the following values:
  71:../STM32F4xx_StdPeriph_Driver/src/stm32f4xx_dbgmcu.c ****   *     @arg DBGMCU_SLEEP: Keep debugger connection during SLEEP mode              
  72:../STM32F4xx_StdPeriph_Driver/src/stm32f4xx_dbgmcu.c ****   *     @arg DBGMCU_STOP: Keep debugger connection during STOP mode               
  73:../STM32F4xx_StdPeriph_Driver/src/stm32f4xx_dbgmcu.c ****   *     @arg DBGMCU_STANDBY: Keep debugger connection during STANDBY mode        
  74:../STM32F4xx_StdPeriph_Driver/src/stm32f4xx_dbgmcu.c ****   * @param  NewState: new state of the specified low power mode in Debug mode.
  75:../STM32F4xx_StdPeriph_Driver/src/stm32f4xx_dbgmcu.c ****   *   This parameter can be: ENABLE or DISABLE.
  76:../STM32F4xx_StdPeriph_Driver/src/stm32f4xx_dbgmcu.c ****   * @retval None
  77:../STM32F4xx_StdPeriph_Driver/src/stm32f4xx_dbgmcu.c ****   */
  78:../STM32F4xx_StdPeriph_Driver/src/stm32f4xx_dbgmcu.c **** void DBGMCU_Config(uint32_t DBGMCU_Periph, FunctionalState NewState)
  79:../STM32F4xx_StdPeriph_Driver/src/stm32f4xx_dbgmcu.c **** {
  92              		.loc 1 79 0
  93              		.cfi_startproc
  94              		@ args = 0, pretend = 0, frame = 8
  95              		@ frame_needed = 1, uses_anonymous_args = 0
  96              		@ link register save eliminated.
  97 003c 80B4     		push	{r7}
  98              	.LCFI4:
  99              		.cfi_def_cfa_offset 4
 100              		.cfi_offset 7, -4
 101 003e 83B0     		sub	sp, sp, #12
 102              	.LCFI5:
 103              		.cfi_def_cfa_offset 16
 104 0040 00AF     		add	r7, sp, #0
 105              	.LCFI6:
 106              		.cfi_def_cfa_register 7
 107 0042 7860     		str	r0, [r7, #4]
 108 0044 0B46     		mov	r3, r1
 109 0046 FB70     		strb	r3, [r7, #3]
  80:../STM32F4xx_StdPeriph_Driver/src/stm32f4xx_dbgmcu.c ****   /* Check the parameters */
  81:../STM32F4xx_StdPeriph_Driver/src/stm32f4xx_dbgmcu.c ****   assert_param(IS_DBGMCU_PERIPH(DBGMCU_Periph));
  82:../STM32F4xx_StdPeriph_Driver/src/stm32f4xx_dbgmcu.c ****   assert_param(IS_FUNCTIONAL_STATE(NewState));
  83:../STM32F4xx_StdPeriph_Driver/src/stm32f4xx_dbgmcu.c ****   if (NewState != DISABLE)
 110              		.loc 1 83 0
 111 0048 FB78     		ldrb	r3, [r7, #3]	@ zero_extendqisi2
 112 004a 002B     		cmp	r3, #0
 113 004c 0DD0     		beq	.L4
  84:../STM32F4xx_StdPeriph_Driver/src/stm32f4xx_dbgmcu.c ****   {
  85:../STM32F4xx_StdPeriph_Driver/src/stm32f4xx_dbgmcu.c ****     DBGMCU->CR |= DBGMCU_Periph;
 114              		.loc 1 85 0
 115 004e 4FF40053 		mov	r3, #8192
 116 0052 CEF20403 		movt	r3, 57348
 117 0056 4FF40052 		mov	r2, #8192
 118 005a CEF20402 		movt	r2, 57348
 119 005e 5268     		ldr	r2, [r2, #4]
 120 0060 1146     		mov	r1, r2
 121 0062 7A68     		ldr	r2, [r7, #4]
 122 0064 0A43     		orrs	r2, r2, r1
 123 0066 5A60     		str	r2, [r3, #4]
 124 0068 0EE0     		b	.L3
 125              	.L4:
  86:../STM32F4xx_StdPeriph_Driver/src/stm32f4xx_dbgmcu.c ****   }
  87:../STM32F4xx_StdPeriph_Driver/src/stm32f4xx_dbgmcu.c ****   else
  88:../STM32F4xx_StdPeriph_Driver/src/stm32f4xx_dbgmcu.c ****   {
  89:../STM32F4xx_StdPeriph_Driver/src/stm32f4xx_dbgmcu.c ****     DBGMCU->CR &= ~DBGMCU_Periph;
 126              		.loc 1 89 0
 127 006a 4FF40053 		mov	r3, #8192
 128 006e CEF20403 		movt	r3, 57348
 129 0072 4FF40052 		mov	r2, #8192
 130 0076 CEF20402 		movt	r2, 57348
 131 007a 5268     		ldr	r2, [r2, #4]
 132 007c 1146     		mov	r1, r2
 133 007e 7A68     		ldr	r2, [r7, #4]
 134 0080 6FEA0202 		mvn	r2, r2
 135 0084 0A40     		ands	r2, r2, r1
 136 0086 5A60     		str	r2, [r3, #4]
 137              	.L3:
  90:../STM32F4xx_StdPeriph_Driver/src/stm32f4xx_dbgmcu.c ****   }
  91:../STM32F4xx_StdPeriph_Driver/src/stm32f4xx_dbgmcu.c **** }
 138              		.loc 1 91 0
 139 0088 07F10C07 		add	r7, r7, #12
 140 008c BD46     		mov	sp, r7
 141 008e 80BC     		pop	{r7}
 142 0090 7047     		bx	lr
 143              		.cfi_endproc
 144              	.LFE112:
 146 0092 00BF     		.align	2
 147              		.global	DBGMCU_APB1PeriphConfig
 148              		.thumb
 149              		.thumb_func
 151              	DBGMCU_APB1PeriphConfig:
 152              	.LFB113:
  92:../STM32F4xx_StdPeriph_Driver/src/stm32f4xx_dbgmcu.c **** 
  93:../STM32F4xx_StdPeriph_Driver/src/stm32f4xx_dbgmcu.c **** /**
  94:../STM32F4xx_StdPeriph_Driver/src/stm32f4xx_dbgmcu.c ****   * @brief  Configures APB1 peripheral behavior when the MCU is in Debug mode.
  95:../STM32F4xx_StdPeriph_Driver/src/stm32f4xx_dbgmcu.c ****   * @param  DBGMCU_Periph: specifies the APB1 peripheral.
  96:../STM32F4xx_StdPeriph_Driver/src/stm32f4xx_dbgmcu.c ****   *   This parameter can be any combination of the following values:        
  97:../STM32F4xx_StdPeriph_Driver/src/stm32f4xx_dbgmcu.c ****   *     @arg DBGMCU_TIM2_STOP: TIM2 counter stopped when Core is halted          
  98:../STM32F4xx_StdPeriph_Driver/src/stm32f4xx_dbgmcu.c ****   *     @arg DBGMCU_TIM3_STOP: TIM3 counter stopped when Core is halted          
  99:../STM32F4xx_StdPeriph_Driver/src/stm32f4xx_dbgmcu.c ****   *     @arg DBGMCU_TIM4_STOP: TIM4 counter stopped when Core is halted
 100:../STM32F4xx_StdPeriph_Driver/src/stm32f4xx_dbgmcu.c ****   *     @arg DBGMCU_TIM5_STOP: TIM5 counter stopped when Core is halted          
 101:../STM32F4xx_StdPeriph_Driver/src/stm32f4xx_dbgmcu.c ****   *     @arg DBGMCU_TIM6_STOP: TIM6 counter stopped when Core is halted          
 102:../STM32F4xx_StdPeriph_Driver/src/stm32f4xx_dbgmcu.c ****   *     @arg DBGMCU_TIM7_STOP: TIM7 counter stopped when Core is halted
 103:../STM32F4xx_StdPeriph_Driver/src/stm32f4xx_dbgmcu.c ****   *     @arg DBGMCU_TIM12_STOP: TIM12 counter stopped when Core is halted  
 104:../STM32F4xx_StdPeriph_Driver/src/stm32f4xx_dbgmcu.c ****   *     @arg DBGMCU_TIM13_STOP: TIM13 counter stopped when Core is halted  
 105:../STM32F4xx_StdPeriph_Driver/src/stm32f4xx_dbgmcu.c ****   *     @arg DBGMCU_TIM14_STOP: TIM14 counter stopped when Core is halted 
 106:../STM32F4xx_StdPeriph_Driver/src/stm32f4xx_dbgmcu.c ****   *     @arg DBGMCU_RTC_STOP: RTC Calendar and Wakeup counter stopped when Core is halted.         
 107:../STM32F4xx_StdPeriph_Driver/src/stm32f4xx_dbgmcu.c ****   *     @arg DBGMCU_WWDG_STOP: Debug WWDG stopped when Core is halted
 108:../STM32F4xx_StdPeriph_Driver/src/stm32f4xx_dbgmcu.c ****   *     @arg DBGMCU_IWDG_STOP: Debug IWDG stopped when Core is halted        
 109:../STM32F4xx_StdPeriph_Driver/src/stm32f4xx_dbgmcu.c ****   *     @arg DBGMCU_I2C1_SMBUS_TIMEOUT: I2C1 SMBUS timeout mode stopped when Core is halted
 110:../STM32F4xx_StdPeriph_Driver/src/stm32f4xx_dbgmcu.c ****   *     @arg DBGMCU_I2C2_SMBUS_TIMEOUT: I2C2 SMBUS timeout mode stopped when Core is halted
 111:../STM32F4xx_StdPeriph_Driver/src/stm32f4xx_dbgmcu.c ****   *     @arg DBGMCU_I2C3_SMBUS_TIMEOUT: I2C3 SMBUS timeout mode stopped when Core is halted
 112:../STM32F4xx_StdPeriph_Driver/src/stm32f4xx_dbgmcu.c ****   *     @arg DBGMCU_CAN2_STOP: Debug CAN1 stopped when Core is halted           
 113:../STM32F4xx_StdPeriph_Driver/src/stm32f4xx_dbgmcu.c ****   *     @arg DBGMCU_CAN1_STOP: Debug CAN2 stopped when Core is halted        
 114:../STM32F4xx_StdPeriph_Driver/src/stm32f4xx_dbgmcu.c ****   *   This parameter can be: ENABLE or DISABLE.
 115:../STM32F4xx_StdPeriph_Driver/src/stm32f4xx_dbgmcu.c ****   * @retval None
 116:../STM32F4xx_StdPeriph_Driver/src/stm32f4xx_dbgmcu.c ****   */
 117:../STM32F4xx_StdPeriph_Driver/src/stm32f4xx_dbgmcu.c **** void DBGMCU_APB1PeriphConfig(uint32_t DBGMCU_Periph, FunctionalState NewState)
 118:../STM32F4xx_StdPeriph_Driver/src/stm32f4xx_dbgmcu.c **** {
 153              		.loc 1 118 0
 154              		.cfi_startproc
 155              		@ args = 0, pretend = 0, frame = 8
 156              		@ frame_needed = 1, uses_anonymous_args = 0
 157              		@ link register save eliminated.
 158 0094 80B4     		push	{r7}
 159              	.LCFI7:
 160              		.cfi_def_cfa_offset 4
 161              		.cfi_offset 7, -4
 162 0096 83B0     		sub	sp, sp, #12
 163              	.LCFI8:
 164              		.cfi_def_cfa_offset 16
 165 0098 00AF     		add	r7, sp, #0
 166              	.LCFI9:
 167              		.cfi_def_cfa_register 7
 168 009a 7860     		str	r0, [r7, #4]
 169 009c 0B46     		mov	r3, r1
 170 009e FB70     		strb	r3, [r7, #3]
 119:../STM32F4xx_StdPeriph_Driver/src/stm32f4xx_dbgmcu.c ****   /* Check the parameters */
 120:../STM32F4xx_StdPeriph_Driver/src/stm32f4xx_dbgmcu.c ****   assert_param(IS_DBGMCU_APB1PERIPH(DBGMCU_Periph));
 121:../STM32F4xx_StdPeriph_Driver/src/stm32f4xx_dbgmcu.c ****   assert_param(IS_FUNCTIONAL_STATE(NewState));
 122:../STM32F4xx_StdPeriph_Driver/src/stm32f4xx_dbgmcu.c **** 
 123:../STM32F4xx_StdPeriph_Driver/src/stm32f4xx_dbgmcu.c ****   if (NewState != DISABLE)
 171              		.loc 1 123 0
 172 00a0 FB78     		ldrb	r3, [r7, #3]	@ zero_extendqisi2
 173 00a2 002B     		cmp	r3, #0
 174 00a4 0DD0     		beq	.L7
 124:../STM32F4xx_StdPeriph_Driver/src/stm32f4xx_dbgmcu.c ****   {
 125:../STM32F4xx_StdPeriph_Driver/src/stm32f4xx_dbgmcu.c ****     DBGMCU->APB1FZ |= DBGMCU_Periph;
 175              		.loc 1 125 0
 176 00a6 4FF40053 		mov	r3, #8192
 177 00aa CEF20403 		movt	r3, 57348
 178 00ae 4FF40052 		mov	r2, #8192
 179 00b2 CEF20402 		movt	r2, 57348
 180 00b6 9268     		ldr	r2, [r2, #8]
 181 00b8 1146     		mov	r1, r2
 182 00ba 7A68     		ldr	r2, [r7, #4]
 183 00bc 0A43     		orrs	r2, r2, r1
 184 00be 9A60     		str	r2, [r3, #8]
 185 00c0 0EE0     		b	.L6
 186              	.L7:
 126:../STM32F4xx_StdPeriph_Driver/src/stm32f4xx_dbgmcu.c ****   }
 127:../STM32F4xx_StdPeriph_Driver/src/stm32f4xx_dbgmcu.c ****   else
 128:../STM32F4xx_StdPeriph_Driver/src/stm32f4xx_dbgmcu.c ****   {
 129:../STM32F4xx_StdPeriph_Driver/src/stm32f4xx_dbgmcu.c ****     DBGMCU->APB1FZ &= ~DBGMCU_Periph;
 187              		.loc 1 129 0
 188 00c2 4FF40053 		mov	r3, #8192
 189 00c6 CEF20403 		movt	r3, 57348
 190 00ca 4FF40052 		mov	r2, #8192
 191 00ce CEF20402 		movt	r2, 57348
 192 00d2 9268     		ldr	r2, [r2, #8]
 193 00d4 1146     		mov	r1, r2
 194 00d6 7A68     		ldr	r2, [r7, #4]
 195 00d8 6FEA0202 		mvn	r2, r2
 196 00dc 0A40     		ands	r2, r2, r1
 197 00de 9A60     		str	r2, [r3, #8]
 198              	.L6:
 130:../STM32F4xx_StdPeriph_Driver/src/stm32f4xx_dbgmcu.c ****   }
 131:../STM32F4xx_StdPeriph_Driver/src/stm32f4xx_dbgmcu.c **** }
 199              		.loc 1 131 0
 200 00e0 07F10C07 		add	r7, r7, #12
 201 00e4 BD46     		mov	sp, r7
 202 00e6 80BC     		pop	{r7}
 203 00e8 7047     		bx	lr
 204              		.cfi_endproc
 205              	.LFE113:
 207 00ea 00BF     		.align	2
 208              		.global	DBGMCU_APB2PeriphConfig
 209              		.thumb
 210              		.thumb_func
 212              	DBGMCU_APB2PeriphConfig:
 213              	.LFB114:
 132:../STM32F4xx_StdPeriph_Driver/src/stm32f4xx_dbgmcu.c **** 
 133:../STM32F4xx_StdPeriph_Driver/src/stm32f4xx_dbgmcu.c **** /**
 134:../STM32F4xx_StdPeriph_Driver/src/stm32f4xx_dbgmcu.c ****   * @brief  Configures APB2 peripheral behavior when the MCU is in Debug mode.
 135:../STM32F4xx_StdPeriph_Driver/src/stm32f4xx_dbgmcu.c ****   * @param  DBGMCU_Periph: specifies the APB2 peripheral.
 136:../STM32F4xx_StdPeriph_Driver/src/stm32f4xx_dbgmcu.c ****   *   This parameter can be any combination of the following values:       
 137:../STM32F4xx_StdPeriph_Driver/src/stm32f4xx_dbgmcu.c ****   *     @arg DBGMCU_TIM1_STOP: TIM1 counter stopped when Core is halted                
 138:../STM32F4xx_StdPeriph_Driver/src/stm32f4xx_dbgmcu.c ****   *     @arg DBGMCU_TIM8_STOP: TIM8 counter stopped when Core is halted
 139:../STM32F4xx_StdPeriph_Driver/src/stm32f4xx_dbgmcu.c ****   *     @arg DBGMCU_TIM9_STOP: TIM9 counter stopped when Core is halted   
 140:../STM32F4xx_StdPeriph_Driver/src/stm32f4xx_dbgmcu.c ****   *     @arg DBGMCU_TIM10_STOP: TIM10 counter stopped when Core is halted   
 141:../STM32F4xx_StdPeriph_Driver/src/stm32f4xx_dbgmcu.c ****   *     @arg DBGMCU_TIM11_STOP: TIM11 counter stopped when Core is halted                          
 142:../STM32F4xx_StdPeriph_Driver/src/stm32f4xx_dbgmcu.c ****   * @param  NewState: new state of the specified peripheral in Debug mode.
 143:../STM32F4xx_StdPeriph_Driver/src/stm32f4xx_dbgmcu.c ****   *   This parameter can be: ENABLE or DISABLE.
 144:../STM32F4xx_StdPeriph_Driver/src/stm32f4xx_dbgmcu.c ****   * @retval None
 145:../STM32F4xx_StdPeriph_Driver/src/stm32f4xx_dbgmcu.c ****   */
 146:../STM32F4xx_StdPeriph_Driver/src/stm32f4xx_dbgmcu.c **** void DBGMCU_APB2PeriphConfig(uint32_t DBGMCU_Periph, FunctionalState NewState)
 147:../STM32F4xx_StdPeriph_Driver/src/stm32f4xx_dbgmcu.c **** {
 214              		.loc 1 147 0
 215              		.cfi_startproc
 216              		@ args = 0, pretend = 0, frame = 8
 217              		@ frame_needed = 1, uses_anonymous_args = 0
 218              		@ link register save eliminated.
 219 00ec 80B4     		push	{r7}
 220              	.LCFI10:
 221              		.cfi_def_cfa_offset 4
 222              		.cfi_offset 7, -4
 223 00ee 83B0     		sub	sp, sp, #12
 224              	.LCFI11:
 225              		.cfi_def_cfa_offset 16
 226 00f0 00AF     		add	r7, sp, #0
 227              	.LCFI12:
 228              		.cfi_def_cfa_register 7
 229 00f2 7860     		str	r0, [r7, #4]
 230 00f4 0B46     		mov	r3, r1
 231 00f6 FB70     		strb	r3, [r7, #3]
 148:../STM32F4xx_StdPeriph_Driver/src/stm32f4xx_dbgmcu.c ****   /* Check the parameters */
 149:../STM32F4xx_StdPeriph_Driver/src/stm32f4xx_dbgmcu.c ****   assert_param(IS_DBGMCU_APB2PERIPH(DBGMCU_Periph));
 150:../STM32F4xx_StdPeriph_Driver/src/stm32f4xx_dbgmcu.c ****   assert_param(IS_FUNCTIONAL_STATE(NewState));
 151:../STM32F4xx_StdPeriph_Driver/src/stm32f4xx_dbgmcu.c **** 
 152:../STM32F4xx_StdPeriph_Driver/src/stm32f4xx_dbgmcu.c ****   if (NewState != DISABLE)
 232              		.loc 1 152 0
 233 00f8 FB78     		ldrb	r3, [r7, #3]	@ zero_extendqisi2
 234 00fa 002B     		cmp	r3, #0
 235 00fc 0DD0     		beq	.L10
 153:../STM32F4xx_StdPeriph_Driver/src/stm32f4xx_dbgmcu.c ****   {
 154:../STM32F4xx_StdPeriph_Driver/src/stm32f4xx_dbgmcu.c ****     DBGMCU->APB2FZ |= DBGMCU_Periph;
 236              		.loc 1 154 0
 237 00fe 4FF40053 		mov	r3, #8192
 238 0102 CEF20403 		movt	r3, 57348
 239 0106 4FF40052 		mov	r2, #8192
 240 010a CEF20402 		movt	r2, 57348
 241 010e D268     		ldr	r2, [r2, #12]
 242 0110 1146     		mov	r1, r2
 243 0112 7A68     		ldr	r2, [r7, #4]
 244 0114 0A43     		orrs	r2, r2, r1
 245 0116 DA60     		str	r2, [r3, #12]
 246 0118 0EE0     		b	.L9
 247              	.L10:
 155:../STM32F4xx_StdPeriph_Driver/src/stm32f4xx_dbgmcu.c ****   }
 156:../STM32F4xx_StdPeriph_Driver/src/stm32f4xx_dbgmcu.c ****   else
 157:../STM32F4xx_StdPeriph_Driver/src/stm32f4xx_dbgmcu.c ****   {
 158:../STM32F4xx_StdPeriph_Driver/src/stm32f4xx_dbgmcu.c ****     DBGMCU->APB2FZ &= ~DBGMCU_Periph;
 248              		.loc 1 158 0
 249 011a 4FF40053 		mov	r3, #8192
 250 011e CEF20403 		movt	r3, 57348
 251 0122 4FF40052 		mov	r2, #8192
 252 0126 CEF20402 		movt	r2, 57348
 253 012a D268     		ldr	r2, [r2, #12]
 254 012c 1146     		mov	r1, r2
 255 012e 7A68     		ldr	r2, [r7, #4]
 256 0130 6FEA0202 		mvn	r2, r2
 257 0134 0A40     		ands	r2, r2, r1
 258 0136 DA60     		str	r2, [r3, #12]
 259              	.L9:
 159:../STM32F4xx_StdPeriph_Driver/src/stm32f4xx_dbgmcu.c ****   }
 160:../STM32F4xx_StdPeriph_Driver/src/stm32f4xx_dbgmcu.c **** }
 260              		.loc 1 160 0
 261 0138 07F10C07 		add	r7, r7, #12
 262 013c BD46     		mov	sp, r7
 263 013e 80BC     		pop	{r7}
 264 0140 7047     		bx	lr
 265              		.cfi_endproc
 266              	.LFE114:
 268              	.Letext0:
 269              		.file 2 "c:\\chibistudio\\tools\\gnu tools arm embedded\\4.6 2012q2\\bin\\../lib/gcc/arm-none-eabi
 270              		.file 3 "E:\\Desktop\\thundercyer-the-alarm-clock\\CMSIS\\Device\\STM32F4xx\\Include/stm32f4xx.h"
 271              		.file 4 "E:\\Desktop\\thundercyer-the-alarm-clock\\CMSIS\\Include/core_cm4.h"