   1              		.syntax unified
   2              		.cpu cortex-m4
   3              		.eabi_attribute 27, 3
   4              		.fpu fpv4-sp-d16
   5              		.eabi_attribute 20, 1
   6              		.eabi_attribute 21, 1
   7              		.eabi_attribute 23, 3
   8              		.eabi_attribute 24, 1
   9              		.eabi_attribute 25, 1
  10              		.eabi_attribute 26, 1
  11              		.eabi_attribute 30, 6
  12              		.eabi_attribute 18, 4
  13              		.thumb
  14              		.file	"stm32f4xx_tim.c"
  15              		.text
  16              	.Ltext0:
  17              		.cfi_sections	.debug_frame
  18              		.align	2
  19              		.global	TIM_DeInit
  20              		.thumb
  21              		.thumb_func
  23              	TIM_DeInit:
  24              	.LFB110:
  25              		.file 1 "../STM32F4xx_StdPeriph_Driver/src/stm32f4xx_tim.c"
   1:../STM32F4xx_StdPeriph_Driver/src/stm32f4xx_tim.c **** /**
   2:../STM32F4xx_StdPeriph_Driver/src/stm32f4xx_tim.c ****   ******************************************************************************
   3:../STM32F4xx_StdPeriph_Driver/src/stm32f4xx_tim.c ****   * @file    stm32f4xx_tim.c
   4:../STM32F4xx_StdPeriph_Driver/src/stm32f4xx_tim.c ****   * @author  MCD Application Team
   5:../STM32F4xx_StdPeriph_Driver/src/stm32f4xx_tim.c ****   * @version V1.0.0
   6:../STM32F4xx_StdPeriph_Driver/src/stm32f4xx_tim.c ****   * @date    30-September-2011
   7:../STM32F4xx_StdPeriph_Driver/src/stm32f4xx_tim.c ****   * @brief   This file provides firmware functions to manage the following 
   8:../STM32F4xx_StdPeriph_Driver/src/stm32f4xx_tim.c ****   *          functionalities of the TIM peripheral:
   9:../STM32F4xx_StdPeriph_Driver/src/stm32f4xx_tim.c ****   *            - TimeBase management
  10:../STM32F4xx_StdPeriph_Driver/src/stm32f4xx_tim.c ****   *            - Output Compare management
  11:../STM32F4xx_StdPeriph_Driver/src/stm32f4xx_tim.c ****   *            - Input Capture management
  12:../STM32F4xx_StdPeriph_Driver/src/stm32f4xx_tim.c ****   *            - Advanced-control timers (TIM1 and TIM8) specific features  
  13:../STM32F4xx_StdPeriph_Driver/src/stm32f4xx_tim.c ****   *            - Interrupts, DMA and flags management
  14:../STM32F4xx_StdPeriph_Driver/src/stm32f4xx_tim.c ****   *            - Clocks management
  15:../STM32F4xx_StdPeriph_Driver/src/stm32f4xx_tim.c ****   *            - Synchronization management
  16:../STM32F4xx_StdPeriph_Driver/src/stm32f4xx_tim.c ****   *            - Specific interface management
  17:../STM32F4xx_StdPeriph_Driver/src/stm32f4xx_tim.c ****   *            - Specific remapping management      
  18:../STM32F4xx_StdPeriph_Driver/src/stm32f4xx_tim.c ****   *              
  19:../STM32F4xx_StdPeriph_Driver/src/stm32f4xx_tim.c ****   *  @verbatim
  20:../STM32F4xx_StdPeriph_Driver/src/stm32f4xx_tim.c ****   *  
  21:../STM32F4xx_StdPeriph_Driver/src/stm32f4xx_tim.c ****   *          ===================================================================
  22:../STM32F4xx_StdPeriph_Driver/src/stm32f4xx_tim.c ****   *                                 How to use this driver
  23:../STM32F4xx_StdPeriph_Driver/src/stm32f4xx_tim.c ****   *          ===================================================================
  24:../STM32F4xx_StdPeriph_Driver/src/stm32f4xx_tim.c ****   *          This driver provides functions to configure and program the TIM 
  25:../STM32F4xx_StdPeriph_Driver/src/stm32f4xx_tim.c ****   *          of all STM32F4xx devices.
  26:../STM32F4xx_StdPeriph_Driver/src/stm32f4xx_tim.c ****   *          These functions are split in 9 groups: 
  27:../STM32F4xx_StdPeriph_Driver/src/stm32f4xx_tim.c ****   *   
  28:../STM32F4xx_StdPeriph_Driver/src/stm32f4xx_tim.c ****   *          1. TIM TimeBase management: this group includes all needed functions 
  29:../STM32F4xx_StdPeriph_Driver/src/stm32f4xx_tim.c ****   *             to configure the TM Timebase unit:
  30:../STM32F4xx_StdPeriph_Driver/src/stm32f4xx_tim.c ****   *                   - Set/Get Prescaler
  31:../STM32F4xx_StdPeriph_Driver/src/stm32f4xx_tim.c ****   *                   - Set/Get Autoreload  
  32:../STM32F4xx_StdPeriph_Driver/src/stm32f4xx_tim.c ****   *                   - Counter modes configuration
  33:../STM32F4xx_StdPeriph_Driver/src/stm32f4xx_tim.c ****   *                   - Set Clock division  
  34:../STM32F4xx_StdPeriph_Driver/src/stm32f4xx_tim.c ****   *                   - Select the One Pulse mode
  35:../STM32F4xx_StdPeriph_Driver/src/stm32f4xx_tim.c ****   *                   - Update Request Configuration
  36:../STM32F4xx_StdPeriph_Driver/src/stm32f4xx_tim.c ****   *                   - Update Disable Configuration
  37:../STM32F4xx_StdPeriph_Driver/src/stm32f4xx_tim.c ****   *                   - Auto-Preload Configuration 
  38:../STM32F4xx_StdPeriph_Driver/src/stm32f4xx_tim.c ****   *                   - Enable/Disable the counter     
  39:../STM32F4xx_StdPeriph_Driver/src/stm32f4xx_tim.c ****   *                 
  40:../STM32F4xx_StdPeriph_Driver/src/stm32f4xx_tim.c ****   *          2. TIM Output Compare management: this group includes all needed 
  41:../STM32F4xx_StdPeriph_Driver/src/stm32f4xx_tim.c ****   *             functions to configure the Capture/Compare unit used in Output 
  42:../STM32F4xx_StdPeriph_Driver/src/stm32f4xx_tim.c ****   *             compare mode: 
  43:../STM32F4xx_StdPeriph_Driver/src/stm32f4xx_tim.c ****   *                   - Configure each channel, independently, in Output Compare mode
  44:../STM32F4xx_StdPeriph_Driver/src/stm32f4xx_tim.c ****   *                   - Select the output compare modes
  45:../STM32F4xx_StdPeriph_Driver/src/stm32f4xx_tim.c ****   *                   - Select the Polarities of each channel
  46:../STM32F4xx_StdPeriph_Driver/src/stm32f4xx_tim.c ****   *                   - Set/Get the Capture/Compare register values
  47:../STM32F4xx_StdPeriph_Driver/src/stm32f4xx_tim.c ****   *                   - Select the Output Compare Fast mode 
  48:../STM32F4xx_StdPeriph_Driver/src/stm32f4xx_tim.c ****   *                   - Select the Output Compare Forced mode  
  49:../STM32F4xx_StdPeriph_Driver/src/stm32f4xx_tim.c ****   *                   - Output Compare-Preload Configuration 
  50:../STM32F4xx_StdPeriph_Driver/src/stm32f4xx_tim.c ****   *                   - Clear Output Compare Reference
  51:../STM32F4xx_StdPeriph_Driver/src/stm32f4xx_tim.c ****   *                   - Select the OCREF Clear signal
  52:../STM32F4xx_StdPeriph_Driver/src/stm32f4xx_tim.c ****   *                   - Enable/Disable the Capture/Compare Channels    
  53:../STM32F4xx_StdPeriph_Driver/src/stm32f4xx_tim.c ****   *                   
  54:../STM32F4xx_StdPeriph_Driver/src/stm32f4xx_tim.c ****   *          3. TIM Input Capture management: this group includes all needed 
  55:../STM32F4xx_StdPeriph_Driver/src/stm32f4xx_tim.c ****   *             functions to configure the Capture/Compare unit used in 
  56:../STM32F4xx_StdPeriph_Driver/src/stm32f4xx_tim.c ****   *             Input Capture mode:
  57:../STM32F4xx_StdPeriph_Driver/src/stm32f4xx_tim.c ****   *                   - Configure each channel in input capture mode
  58:../STM32F4xx_StdPeriph_Driver/src/stm32f4xx_tim.c ****   *                   - Configure Channel1/2 in PWM Input mode
  59:../STM32F4xx_StdPeriph_Driver/src/stm32f4xx_tim.c ****   *                   - Set the Input Capture Prescaler
  60:../STM32F4xx_StdPeriph_Driver/src/stm32f4xx_tim.c ****   *                   - Get the Capture/Compare values      
  61:../STM32F4xx_StdPeriph_Driver/src/stm32f4xx_tim.c ****   *                   
  62:../STM32F4xx_StdPeriph_Driver/src/stm32f4xx_tim.c ****   *          4. Advanced-control timers (TIM1 and TIM8) specific features
  63:../STM32F4xx_StdPeriph_Driver/src/stm32f4xx_tim.c ****   *                   - Configures the Break input, dead time, Lock level, the OSSI,
  64:../STM32F4xx_StdPeriph_Driver/src/stm32f4xx_tim.c ****   *                      the OSSR State and the AOE(automatic output enable)
  65:../STM32F4xx_StdPeriph_Driver/src/stm32f4xx_tim.c ****   *                   - Enable/Disable the TIM peripheral Main Outputs
  66:../STM32F4xx_StdPeriph_Driver/src/stm32f4xx_tim.c ****   *                   - Select the Commutation event
  67:../STM32F4xx_StdPeriph_Driver/src/stm32f4xx_tim.c ****   *                   - Set/Reset the Capture Compare Preload Control bit
  68:../STM32F4xx_StdPeriph_Driver/src/stm32f4xx_tim.c ****   *                              
  69:../STM32F4xx_StdPeriph_Driver/src/stm32f4xx_tim.c ****   *          5. TIM interrupts, DMA and flags management
  70:../STM32F4xx_StdPeriph_Driver/src/stm32f4xx_tim.c ****   *                   - Enable/Disable interrupt sources
  71:../STM32F4xx_StdPeriph_Driver/src/stm32f4xx_tim.c ****   *                   - Get flags status
  72:../STM32F4xx_StdPeriph_Driver/src/stm32f4xx_tim.c ****   *                   - Clear flags/ Pending bits
  73:../STM32F4xx_StdPeriph_Driver/src/stm32f4xx_tim.c ****   *                   - Enable/Disable DMA requests 
  74:../STM32F4xx_StdPeriph_Driver/src/stm32f4xx_tim.c ****   *                   - Configure DMA burst mode
  75:../STM32F4xx_StdPeriph_Driver/src/stm32f4xx_tim.c ****   *                   - Select CaptureCompare DMA request  
  76:../STM32F4xx_StdPeriph_Driver/src/stm32f4xx_tim.c ****   *              
  77:../STM32F4xx_StdPeriph_Driver/src/stm32f4xx_tim.c ****   *          6. TIM clocks management: this group includes all needed functions 
  78:../STM32F4xx_StdPeriph_Driver/src/stm32f4xx_tim.c ****   *             to configure the clock controller unit:
  79:../STM32F4xx_StdPeriph_Driver/src/stm32f4xx_tim.c ****   *                   - Select internal/External clock
  80:../STM32F4xx_StdPeriph_Driver/src/stm32f4xx_tim.c ****   *                   - Select the external clock mode: ETR(Mode1/Mode2), TIx or ITRx
  81:../STM32F4xx_StdPeriph_Driver/src/stm32f4xx_tim.c ****   *         
  82:../STM32F4xx_StdPeriph_Driver/src/stm32f4xx_tim.c ****   *          7. TIM synchronization management: this group includes all needed 
  83:../STM32F4xx_StdPeriph_Driver/src/stm32f4xx_tim.c ****   *             functions to configure the Synchronization unit:
  84:../STM32F4xx_StdPeriph_Driver/src/stm32f4xx_tim.c ****   *                   - Select Input Trigger  
  85:../STM32F4xx_StdPeriph_Driver/src/stm32f4xx_tim.c ****   *                   - Select Output Trigger  
  86:../STM32F4xx_StdPeriph_Driver/src/stm32f4xx_tim.c ****   *                   - Select Master Slave Mode 
  87:../STM32F4xx_StdPeriph_Driver/src/stm32f4xx_tim.c ****   *                   - ETR Configuration when used as external trigger   
  88:../STM32F4xx_StdPeriph_Driver/src/stm32f4xx_tim.c ****   *     
  89:../STM32F4xx_StdPeriph_Driver/src/stm32f4xx_tim.c ****   *          8. TIM specific interface management, this group includes all 
  90:../STM32F4xx_StdPeriph_Driver/src/stm32f4xx_tim.c ****   *             needed functions to use the specific TIM interface:
  91:../STM32F4xx_StdPeriph_Driver/src/stm32f4xx_tim.c ****   *                   - Encoder Interface Configuration
  92:../STM32F4xx_StdPeriph_Driver/src/stm32f4xx_tim.c ****   *                   - Select Hall Sensor   
  93:../STM32F4xx_StdPeriph_Driver/src/stm32f4xx_tim.c ****   *         
  94:../STM32F4xx_StdPeriph_Driver/src/stm32f4xx_tim.c ****   *          9. TIM specific remapping management includes the Remapping 
  95:../STM32F4xx_StdPeriph_Driver/src/stm32f4xx_tim.c ****   *             configuration of specific timers               
  96:../STM32F4xx_StdPeriph_Driver/src/stm32f4xx_tim.c ****   *   
  97:../STM32F4xx_StdPeriph_Driver/src/stm32f4xx_tim.c ****   *  @endverbatim
  98:../STM32F4xx_StdPeriph_Driver/src/stm32f4xx_tim.c ****   *    
  99:../STM32F4xx_StdPeriph_Driver/src/stm32f4xx_tim.c ****   ******************************************************************************
 100:../STM32F4xx_StdPeriph_Driver/src/stm32f4xx_tim.c ****   * @attention
 101:../STM32F4xx_StdPeriph_Driver/src/stm32f4xx_tim.c ****   *
 102:../STM32F4xx_StdPeriph_Driver/src/stm32f4xx_tim.c ****   * THE PRESENT FIRMWARE WHICH IS FOR GUIDANCE ONLY AIMS AT PROVIDING CUSTOMERS
 103:../STM32F4xx_StdPeriph_Driver/src/stm32f4xx_tim.c ****   * WITH CODING INFORMATION REGARDING THEIR PRODUCTS IN ORDER FOR THEM TO SAVE
 104:../STM32F4xx_StdPeriph_Driver/src/stm32f4xx_tim.c ****   * TIME. AS A RESULT, STMICROELECTRONICS SHALL NOT BE HELD LIABLE FOR ANY
 105:../STM32F4xx_StdPeriph_Driver/src/stm32f4xx_tim.c ****   * DIRECT, INDIRECT OR CONSEQUENTIAL DAMAGES WITH RESPECT TO ANY CLAIMS ARISING
 106:../STM32F4xx_StdPeriph_Driver/src/stm32f4xx_tim.c ****   * FROM THE CONTENT OF SUCH FIRMWARE AND/OR THE USE MADE BY CUSTOMERS OF THE
 107:../STM32F4xx_StdPeriph_Driver/src/stm32f4xx_tim.c ****   * CODING INFORMATION CONTAINED HEREIN IN CONNECTION WITH THEIR PRODUCTS.
 108:../STM32F4xx_StdPeriph_Driver/src/stm32f4xx_tim.c ****   *
 109:../STM32F4xx_StdPeriph_Driver/src/stm32f4xx_tim.c ****   * <h2><center>&copy; COPYRIGHT 2011 STMicroelectronics</center></h2>
 110:../STM32F4xx_StdPeriph_Driver/src/stm32f4xx_tim.c ****   ******************************************************************************
 111:../STM32F4xx_StdPeriph_Driver/src/stm32f4xx_tim.c ****   */
 112:../STM32F4xx_StdPeriph_Driver/src/stm32f4xx_tim.c **** 
 113:../STM32F4xx_StdPeriph_Driver/src/stm32f4xx_tim.c **** /* Includes ------------------------------------------------------------------*/
 114:../STM32F4xx_StdPeriph_Driver/src/stm32f4xx_tim.c **** #include "stm32f4xx_tim.h"
 115:../STM32F4xx_StdPeriph_Driver/src/stm32f4xx_tim.c **** #include "stm32f4xx_rcc.h"
 116:../STM32F4xx_StdPeriph_Driver/src/stm32f4xx_tim.c **** 
 117:../STM32F4xx_StdPeriph_Driver/src/stm32f4xx_tim.c **** /** @addtogroup STM32F4xx_StdPeriph_Driver
 118:../STM32F4xx_StdPeriph_Driver/src/stm32f4xx_tim.c ****   * @{
 119:../STM32F4xx_StdPeriph_Driver/src/stm32f4xx_tim.c ****   */
 120:../STM32F4xx_StdPeriph_Driver/src/stm32f4xx_tim.c **** 
 121:../STM32F4xx_StdPeriph_Driver/src/stm32f4xx_tim.c **** /** @defgroup TIM 
 122:../STM32F4xx_StdPeriph_Driver/src/stm32f4xx_tim.c ****   * @brief TIM driver modules
 123:../STM32F4xx_StdPeriph_Driver/src/stm32f4xx_tim.c ****   * @{
 124:../STM32F4xx_StdPeriph_Driver/src/stm32f4xx_tim.c ****   */
 125:../STM32F4xx_StdPeriph_Driver/src/stm32f4xx_tim.c **** 
 126:../STM32F4xx_StdPeriph_Driver/src/stm32f4xx_tim.c **** /* Private typedef -----------------------------------------------------------*/
 127:../STM32F4xx_StdPeriph_Driver/src/stm32f4xx_tim.c **** /* Private define ------------------------------------------------------------*/
 128:../STM32F4xx_StdPeriph_Driver/src/stm32f4xx_tim.c **** 
 129:../STM32F4xx_StdPeriph_Driver/src/stm32f4xx_tim.c **** /* ---------------------- TIM registers bit mask ------------------------ */
 130:../STM32F4xx_StdPeriph_Driver/src/stm32f4xx_tim.c **** #define SMCR_ETR_MASK      ((uint16_t)0x00FF) 
 131:../STM32F4xx_StdPeriph_Driver/src/stm32f4xx_tim.c **** #define CCMR_OFFSET        ((uint16_t)0x0018)
 132:../STM32F4xx_StdPeriph_Driver/src/stm32f4xx_tim.c **** #define CCER_CCE_SET       ((uint16_t)0x0001)  
 133:../STM32F4xx_StdPeriph_Driver/src/stm32f4xx_tim.c **** #define	CCER_CCNE_SET      ((uint16_t)0x0004) 
 134:../STM32F4xx_StdPeriph_Driver/src/stm32f4xx_tim.c **** #define CCMR_OC13M_MASK    ((uint16_t)0xFF8F)
 135:../STM32F4xx_StdPeriph_Driver/src/stm32f4xx_tim.c **** #define CCMR_OC24M_MASK    ((uint16_t)0x8FFF) 
 136:../STM32F4xx_StdPeriph_Driver/src/stm32f4xx_tim.c **** 
 137:../STM32F4xx_StdPeriph_Driver/src/stm32f4xx_tim.c **** /* Private macro -------------------------------------------------------------*/
 138:../STM32F4xx_StdPeriph_Driver/src/stm32f4xx_tim.c **** /* Private variables ---------------------------------------------------------*/
 139:../STM32F4xx_StdPeriph_Driver/src/stm32f4xx_tim.c **** /* Private function prototypes -----------------------------------------------*/
 140:../STM32F4xx_StdPeriph_Driver/src/stm32f4xx_tim.c **** static void TI1_Config(TIM_TypeDef* TIMx, uint16_t TIM_ICPolarity, uint16_t TIM_ICSelection,
 141:../STM32F4xx_StdPeriph_Driver/src/stm32f4xx_tim.c ****                        uint16_t TIM_ICFilter);
 142:../STM32F4xx_StdPeriph_Driver/src/stm32f4xx_tim.c **** static void TI2_Config(TIM_TypeDef* TIMx, uint16_t TIM_ICPolarity, uint16_t TIM_ICSelection,
 143:../STM32F4xx_StdPeriph_Driver/src/stm32f4xx_tim.c ****                        uint16_t TIM_ICFilter);
 144:../STM32F4xx_StdPeriph_Driver/src/stm32f4xx_tim.c **** static void TI3_Config(TIM_TypeDef* TIMx, uint16_t TIM_ICPolarity, uint16_t TIM_ICSelection,
 145:../STM32F4xx_StdPeriph_Driver/src/stm32f4xx_tim.c ****                        uint16_t TIM_ICFilter);
 146:../STM32F4xx_StdPeriph_Driver/src/stm32f4xx_tim.c **** static void TI4_Config(TIM_TypeDef* TIMx, uint16_t TIM_ICPolarity, uint16_t TIM_ICSelection,
 147:../STM32F4xx_StdPeriph_Driver/src/stm32f4xx_tim.c ****                        uint16_t TIM_ICFilter);
 148:../STM32F4xx_StdPeriph_Driver/src/stm32f4xx_tim.c **** 
 149:../STM32F4xx_StdPeriph_Driver/src/stm32f4xx_tim.c **** /* Private functions ---------------------------------------------------------*/
 150:../STM32F4xx_StdPeriph_Driver/src/stm32f4xx_tim.c **** 
 151:../STM32F4xx_StdPeriph_Driver/src/stm32f4xx_tim.c **** /** @defgroup TIM_Private_Functions
 152:../STM32F4xx_StdPeriph_Driver/src/stm32f4xx_tim.c ****   * @{
 153:../STM32F4xx_StdPeriph_Driver/src/stm32f4xx_tim.c ****   */
 154:../STM32F4xx_StdPeriph_Driver/src/stm32f4xx_tim.c **** 
 155:../STM32F4xx_StdPeriph_Driver/src/stm32f4xx_tim.c **** /** @defgroup TIM_Group1 TimeBase management functions
 156:../STM32F4xx_StdPeriph_Driver/src/stm32f4xx_tim.c ****  *  @brief   TimeBase management functions 
 157:../STM32F4xx_StdPeriph_Driver/src/stm32f4xx_tim.c ****  *
 158:../STM32F4xx_StdPeriph_Driver/src/stm32f4xx_tim.c **** @verbatim   
 159:../STM32F4xx_StdPeriph_Driver/src/stm32f4xx_tim.c ****  ===============================================================================
 160:../STM32F4xx_StdPeriph_Driver/src/stm32f4xx_tim.c ****                        TimeBase management functions
 161:../STM32F4xx_StdPeriph_Driver/src/stm32f4xx_tim.c ****  ===============================================================================  
 162:../STM32F4xx_StdPeriph_Driver/src/stm32f4xx_tim.c ****   
 163:../STM32F4xx_StdPeriph_Driver/src/stm32f4xx_tim.c ****        ===================================================================      
 164:../STM32F4xx_StdPeriph_Driver/src/stm32f4xx_tim.c ****               TIM Driver: how to use it in Timing(Time base) Mode
 165:../STM32F4xx_StdPeriph_Driver/src/stm32f4xx_tim.c ****        =================================================================== 
 166:../STM32F4xx_StdPeriph_Driver/src/stm32f4xx_tim.c ****        To use the Timer in Timing(Time base) mode, the following steps are mandatory:
 167:../STM32F4xx_StdPeriph_Driver/src/stm32f4xx_tim.c ****        
 168:../STM32F4xx_StdPeriph_Driver/src/stm32f4xx_tim.c ****        1. Enable TIM clock using RCC_APBxPeriphClockCmd(RCC_APBxPeriph_TIMx, ENABLE) function
 169:../STM32F4xx_StdPeriph_Driver/src/stm32f4xx_tim.c ****                     
 170:../STM32F4xx_StdPeriph_Driver/src/stm32f4xx_tim.c ****        2. Fill the TIM_TimeBaseInitStruct with the desired parameters.
 171:../STM32F4xx_StdPeriph_Driver/src/stm32f4xx_tim.c ****        
 172:../STM32F4xx_StdPeriph_Driver/src/stm32f4xx_tim.c ****        3. Call TIM_TimeBaseInit(TIMx, &TIM_TimeBaseInitStruct) to configure the Time Base unit
 173:../STM32F4xx_StdPeriph_Driver/src/stm32f4xx_tim.c ****           with the corresponding configuration
 174:../STM32F4xx_StdPeriph_Driver/src/stm32f4xx_tim.c ****           
 175:../STM32F4xx_StdPeriph_Driver/src/stm32f4xx_tim.c ****        4. Enable the NVIC if you need to generate the update interrupt. 
 176:../STM32F4xx_StdPeriph_Driver/src/stm32f4xx_tim.c ****           
 177:../STM32F4xx_StdPeriph_Driver/src/stm32f4xx_tim.c ****        5. Enable the corresponding interrupt using the function TIM_ITConfig(TIMx, TIM_IT_Update) 
 178:../STM32F4xx_StdPeriph_Driver/src/stm32f4xx_tim.c ****        
 179:../STM32F4xx_StdPeriph_Driver/src/stm32f4xx_tim.c ****        6. Call the TIM_Cmd(ENABLE) function to enable the TIM counter.
 180:../STM32F4xx_StdPeriph_Driver/src/stm32f4xx_tim.c ****              
 181:../STM32F4xx_StdPeriph_Driver/src/stm32f4xx_tim.c ****        Note1: All other functions can be used separately to modify, if needed,
 182:../STM32F4xx_StdPeriph_Driver/src/stm32f4xx_tim.c ****           a specific feature of the Timer. 
 183:../STM32F4xx_StdPeriph_Driver/src/stm32f4xx_tim.c **** 
 184:../STM32F4xx_StdPeriph_Driver/src/stm32f4xx_tim.c **** @endverbatim
 185:../STM32F4xx_StdPeriph_Driver/src/stm32f4xx_tim.c ****   * @{
 186:../STM32F4xx_StdPeriph_Driver/src/stm32f4xx_tim.c ****   */
 187:../STM32F4xx_StdPeriph_Driver/src/stm32f4xx_tim.c ****   
 188:../STM32F4xx_StdPeriph_Driver/src/stm32f4xx_tim.c **** /**
 189:../STM32F4xx_StdPeriph_Driver/src/stm32f4xx_tim.c ****   * @brief  Deinitializes the TIMx peripheral registers to their default reset values.
 190:../STM32F4xx_StdPeriph_Driver/src/stm32f4xx_tim.c ****   * @param  TIMx: where x can be 1 to 14 to select the TIM peripheral.
 191:../STM32F4xx_StdPeriph_Driver/src/stm32f4xx_tim.c ****   * @retval None
 192:../STM32F4xx_StdPeriph_Driver/src/stm32f4xx_tim.c **** 
 193:../STM32F4xx_StdPeriph_Driver/src/stm32f4xx_tim.c ****   */
 194:../STM32F4xx_StdPeriph_Driver/src/stm32f4xx_tim.c **** void TIM_DeInit(TIM_TypeDef* TIMx)
 195:../STM32F4xx_StdPeriph_Driver/src/stm32f4xx_tim.c **** {
  26              		.loc 1 195 0
  27              		.cfi_startproc
  28              		@ args = 0, pretend = 0, frame = 8
  29              		@ frame_needed = 1, uses_anonymous_args = 0
  30 0000 80B5     		push	{r7, lr}
  31              	.LCFI0:
  32              		.cfi_def_cfa_offset 8
  33              		.cfi_offset 14, -4
  34              		.cfi_offset 7, -8
  35 0002 82B0     		sub	sp, sp, #8
  36              	.LCFI1:
  37              		.cfi_def_cfa_offset 16
  38 0004 00AF     		add	r7, sp, #0
  39              	.LCFI2:
  40              		.cfi_def_cfa_register 7
  41 0006 7860     		str	r0, [r7, #4]
 196:../STM32F4xx_StdPeriph_Driver/src/stm32f4xx_tim.c ****   /* Check the parameters */
 197:../STM32F4xx_StdPeriph_Driver/src/stm32f4xx_tim.c ****   assert_param(IS_TIM_ALL_PERIPH(TIMx)); 
 198:../STM32F4xx_StdPeriph_Driver/src/stm32f4xx_tim.c ****  
 199:../STM32F4xx_StdPeriph_Driver/src/stm32f4xx_tim.c ****   if (TIMx == TIM1)
  42              		.loc 1 199 0
  43 0008 7A68     		ldr	r2, [r7, #4]
  44 000a 4FF00003 		mov	r3, #0
  45 000e C4F20103 		movt	r3, 16385
  46 0012 9A42     		cmp	r2, r3
  47 0014 0CD1     		bne	.L2
 200:../STM32F4xx_StdPeriph_Driver/src/stm32f4xx_tim.c ****   {
 201:../STM32F4xx_StdPeriph_Driver/src/stm32f4xx_tim.c ****     RCC_APB2PeriphResetCmd(RCC_APB2Periph_TIM1, ENABLE);
  48              		.loc 1 201 0
  49 0016 4FF00100 		mov	r0, #1
  50 001a 4FF00101 		mov	r1, #1
  51 001e FFF7FEFF 		bl	RCC_APB2PeriphResetCmd
 202:../STM32F4xx_StdPeriph_Driver/src/stm32f4xx_tim.c ****     RCC_APB2PeriphResetCmd(RCC_APB2Periph_TIM1, DISABLE);  
  52              		.loc 1 202 0
  53 0022 4FF00100 		mov	r0, #1
  54 0026 4FF00001 		mov	r1, #0
  55 002a FFF7FEFF 		bl	RCC_APB2PeriphResetCmd
  56 002e FFE0     		b	.L1
  57              	.L2:
 203:../STM32F4xx_StdPeriph_Driver/src/stm32f4xx_tim.c ****   } 
 204:../STM32F4xx_StdPeriph_Driver/src/stm32f4xx_tim.c ****   else if (TIMx == TIM2) 
  58              		.loc 1 204 0
  59 0030 7B68     		ldr	r3, [r7, #4]
  60 0032 B3F1804F 		cmp	r3, #1073741824
  61 0036 0CD1     		bne	.L4
 205:../STM32F4xx_StdPeriph_Driver/src/stm32f4xx_tim.c ****   {     
 206:../STM32F4xx_StdPeriph_Driver/src/stm32f4xx_tim.c ****     RCC_APB1PeriphResetCmd(RCC_APB1Periph_TIM2, ENABLE);
  62              		.loc 1 206 0
  63 0038 4FF00100 		mov	r0, #1
  64 003c 4FF00101 		mov	r1, #1
  65 0040 FFF7FEFF 		bl	RCC_APB1PeriphResetCmd
 207:../STM32F4xx_StdPeriph_Driver/src/stm32f4xx_tim.c ****     RCC_APB1PeriphResetCmd(RCC_APB1Periph_TIM2, DISABLE);
  66              		.loc 1 207 0
  67 0044 4FF00100 		mov	r0, #1
  68 0048 4FF00001 		mov	r1, #0
  69 004c FFF7FEFF 		bl	RCC_APB1PeriphResetCmd
  70 0050 EEE0     		b	.L1
  71              	.L4:
 208:../STM32F4xx_StdPeriph_Driver/src/stm32f4xx_tim.c ****   }  
 209:../STM32F4xx_StdPeriph_Driver/src/stm32f4xx_tim.c ****   else if (TIMx == TIM3)
  72              		.loc 1 209 0
  73 0052 7A68     		ldr	r2, [r7, #4]
  74 0054 4FF48063 		mov	r3, #1024
  75 0058 C4F20003 		movt	r3, 16384
  76 005c 9A42     		cmp	r2, r3
  77 005e 0CD1     		bne	.L5
 210:../STM32F4xx_StdPeriph_Driver/src/stm32f4xx_tim.c ****   { 
 211:../STM32F4xx_StdPeriph_Driver/src/stm32f4xx_tim.c ****     RCC_APB1PeriphResetCmd(RCC_APB1Periph_TIM3, ENABLE);
  78              		.loc 1 211 0
  79 0060 4FF00200 		mov	r0, #2
  80 0064 4FF00101 		mov	r1, #1
  81 0068 FFF7FEFF 		bl	RCC_APB1PeriphResetCmd
 212:../STM32F4xx_StdPeriph_Driver/src/stm32f4xx_tim.c ****     RCC_APB1PeriphResetCmd(RCC_APB1Periph_TIM3, DISABLE);
  82              		.loc 1 212 0
  83 006c 4FF00200 		mov	r0, #2
  84 0070 4FF00001 		mov	r1, #0
  85 0074 FFF7FEFF 		bl	RCC_APB1PeriphResetCmd
  86 0078 DAE0     		b	.L1
  87              	.L5:
 213:../STM32F4xx_StdPeriph_Driver/src/stm32f4xx_tim.c ****   }  
 214:../STM32F4xx_StdPeriph_Driver/src/stm32f4xx_tim.c ****   else if (TIMx == TIM4)
  88              		.loc 1 214 0
  89 007a 7A68     		ldr	r2, [r7, #4]
  90 007c 4FF40063 		mov	r3, #2048
  91 0080 C4F20003 		movt	r3, 16384
  92 0084 9A42     		cmp	r2, r3
  93 0086 0CD1     		bne	.L6
 215:../STM32F4xx_StdPeriph_Driver/src/stm32f4xx_tim.c ****   { 
 216:../STM32F4xx_StdPeriph_Driver/src/stm32f4xx_tim.c ****     RCC_APB1PeriphResetCmd(RCC_APB1Periph_TIM4, ENABLE);
  94              		.loc 1 216 0
  95 0088 4FF00400 		mov	r0, #4
  96 008c 4FF00101 		mov	r1, #1
  97 0090 FFF7FEFF 		bl	RCC_APB1PeriphResetCmd
 217:../STM32F4xx_StdPeriph_Driver/src/stm32f4xx_tim.c ****     RCC_APB1PeriphResetCmd(RCC_APB1Periph_TIM4, DISABLE);
  98              		.loc 1 217 0
  99 0094 4FF00400 		mov	r0, #4
 100 0098 4FF00001 		mov	r1, #0
 101 009c FFF7FEFF 		bl	RCC_APB1PeriphResetCmd
 102 00a0 C6E0     		b	.L1
 103              	.L6:
 218:../STM32F4xx_StdPeriph_Driver/src/stm32f4xx_tim.c ****   }  
 219:../STM32F4xx_StdPeriph_Driver/src/stm32f4xx_tim.c ****   else if (TIMx == TIM5)
 104              		.loc 1 219 0
 105 00a2 7A68     		ldr	r2, [r7, #4]
 106 00a4 4FF44063 		mov	r3, #3072
 107 00a8 C4F20003 		movt	r3, 16384
 108 00ac 9A42     		cmp	r2, r3
 109 00ae 0CD1     		bne	.L7
 220:../STM32F4xx_StdPeriph_Driver/src/stm32f4xx_tim.c ****   {      
 221:../STM32F4xx_StdPeriph_Driver/src/stm32f4xx_tim.c ****     RCC_APB1PeriphResetCmd(RCC_APB1Periph_TIM5, ENABLE);
 110              		.loc 1 221 0
 111 00b0 4FF00800 		mov	r0, #8
 112 00b4 4FF00101 		mov	r1, #1
 113 00b8 FFF7FEFF 		bl	RCC_APB1PeriphResetCmd
 222:../STM32F4xx_StdPeriph_Driver/src/stm32f4xx_tim.c ****     RCC_APB1PeriphResetCmd(RCC_APB1Periph_TIM5, DISABLE);
 114              		.loc 1 222 0
 115 00bc 4FF00800 		mov	r0, #8
 116 00c0 4FF00001 		mov	r1, #0
 117 00c4 FFF7FEFF 		bl	RCC_APB1PeriphResetCmd
 118 00c8 B2E0     		b	.L1
 119              	.L7:
 223:../STM32F4xx_StdPeriph_Driver/src/stm32f4xx_tim.c ****   }  
 224:../STM32F4xx_StdPeriph_Driver/src/stm32f4xx_tim.c ****   else if (TIMx == TIM6)  
 120              		.loc 1 224 0
 121 00ca 7A68     		ldr	r2, [r7, #4]
 122 00cc 4FF48053 		mov	r3, #4096
 123 00d0 C4F20003 		movt	r3, 16384
 124 00d4 9A42     		cmp	r2, r3
 125 00d6 0CD1     		bne	.L8
 225:../STM32F4xx_StdPeriph_Driver/src/stm32f4xx_tim.c ****   {    
 226:../STM32F4xx_StdPeriph_Driver/src/stm32f4xx_tim.c ****     RCC_APB1PeriphResetCmd(RCC_APB1Periph_TIM6, ENABLE);
 126              		.loc 1 226 0
 127 00d8 4FF01000 		mov	r0, #16
 128 00dc 4FF00101 		mov	r1, #1
 129 00e0 FFF7FEFF 		bl	RCC_APB1PeriphResetCmd
 227:../STM32F4xx_StdPeriph_Driver/src/stm32f4xx_tim.c ****     RCC_APB1PeriphResetCmd(RCC_APB1Periph_TIM6, DISABLE);
 130              		.loc 1 227 0
 131 00e4 4FF01000 		mov	r0, #16
 132 00e8 4FF00001 		mov	r1, #0
 133 00ec FFF7FEFF 		bl	RCC_APB1PeriphResetCmd
 134 00f0 9EE0     		b	.L1
 135              	.L8:
 228:../STM32F4xx_StdPeriph_Driver/src/stm32f4xx_tim.c ****   }  
 229:../STM32F4xx_StdPeriph_Driver/src/stm32f4xx_tim.c ****   else if (TIMx == TIM7)
 136              		.loc 1 229 0
 137 00f2 7A68     		ldr	r2, [r7, #4]
 138 00f4 4FF4A053 		mov	r3, #5120
 139 00f8 C4F20003 		movt	r3, 16384
 140 00fc 9A42     		cmp	r2, r3
 141 00fe 0CD1     		bne	.L9
 230:../STM32F4xx_StdPeriph_Driver/src/stm32f4xx_tim.c ****   {      
 231:../STM32F4xx_StdPeriph_Driver/src/stm32f4xx_tim.c ****     RCC_APB1PeriphResetCmd(RCC_APB1Periph_TIM7, ENABLE);
 142              		.loc 1 231 0
 143 0100 4FF02000 		mov	r0, #32
 144 0104 4FF00101 		mov	r1, #1
 145 0108 FFF7FEFF 		bl	RCC_APB1PeriphResetCmd
 232:../STM32F4xx_StdPeriph_Driver/src/stm32f4xx_tim.c ****     RCC_APB1PeriphResetCmd(RCC_APB1Periph_TIM7, DISABLE);
 146              		.loc 1 232 0
 147 010c 4FF02000 		mov	r0, #32
 148 0110 4FF00001 		mov	r1, #0
 149 0114 FFF7FEFF 		bl	RCC_APB1PeriphResetCmd
 150 0118 8AE0     		b	.L1
 151              	.L9:
 233:../STM32F4xx_StdPeriph_Driver/src/stm32f4xx_tim.c ****   }  
 234:../STM32F4xx_StdPeriph_Driver/src/stm32f4xx_tim.c ****   else if (TIMx == TIM8)
 152              		.loc 1 234 0
 153 011a 7A68     		ldr	r2, [r7, #4]
 154 011c 4FF48063 		mov	r3, #1024
 155 0120 C4F20103 		movt	r3, 16385
 156 0124 9A42     		cmp	r2, r3
 157 0126 0CD1     		bne	.L10
 235:../STM32F4xx_StdPeriph_Driver/src/stm32f4xx_tim.c ****   {      
 236:../STM32F4xx_StdPeriph_Driver/src/stm32f4xx_tim.c ****     RCC_APB2PeriphResetCmd(RCC_APB2Periph_TIM8, ENABLE);
 158              		.loc 1 236 0
 159 0128 4FF00200 		mov	r0, #2
 160 012c 4FF00101 		mov	r1, #1
 161 0130 FFF7FEFF 		bl	RCC_APB2PeriphResetCmd
 237:../STM32F4xx_StdPeriph_Driver/src/stm32f4xx_tim.c ****     RCC_APB2PeriphResetCmd(RCC_APB2Periph_TIM8, DISABLE);  
 162              		.loc 1 237 0
 163 0134 4FF00200 		mov	r0, #2
 164 0138 4FF00001 		mov	r1, #0
 165 013c FFF7FEFF 		bl	RCC_APB2PeriphResetCmd
 166 0140 76E0     		b	.L1
 167              	.L10:
 238:../STM32F4xx_StdPeriph_Driver/src/stm32f4xx_tim.c ****   }  
 239:../STM32F4xx_StdPeriph_Driver/src/stm32f4xx_tim.c ****   else if (TIMx == TIM9)
 168              		.loc 1 239 0
 169 0142 7A68     		ldr	r2, [r7, #4]
 170 0144 4FF48043 		mov	r3, #16384
 171 0148 C4F20103 		movt	r3, 16385
 172 014c 9A42     		cmp	r2, r3
 173 014e 0CD1     		bne	.L11
 240:../STM32F4xx_StdPeriph_Driver/src/stm32f4xx_tim.c ****   {      
 241:../STM32F4xx_StdPeriph_Driver/src/stm32f4xx_tim.c ****     RCC_APB2PeriphResetCmd(RCC_APB2Periph_TIM9, ENABLE);
 174              		.loc 1 241 0
 175 0150 4FF48030 		mov	r0, #65536
 176 0154 4FF00101 		mov	r1, #1
 177 0158 FFF7FEFF 		bl	RCC_APB2PeriphResetCmd
 242:../STM32F4xx_StdPeriph_Driver/src/stm32f4xx_tim.c ****     RCC_APB2PeriphResetCmd(RCC_APB2Periph_TIM9, DISABLE);  
 178              		.loc 1 242 0
 179 015c 4FF48030 		mov	r0, #65536
 180 0160 4FF00001 		mov	r1, #0
 181 0164 FFF7FEFF 		bl	RCC_APB2PeriphResetCmd
 182 0168 62E0     		b	.L1
 183              	.L11:
 243:../STM32F4xx_StdPeriph_Driver/src/stm32f4xx_tim.c ****    }  
 244:../STM32F4xx_StdPeriph_Driver/src/stm32f4xx_tim.c ****   else if (TIMx == TIM10)
 184              		.loc 1 244 0
 185 016a 7A68     		ldr	r2, [r7, #4]
 186 016c 4FF48843 		mov	r3, #17408
 187 0170 C4F20103 		movt	r3, 16385
 188 0174 9A42     		cmp	r2, r3
 189 0176 0CD1     		bne	.L12
 245:../STM32F4xx_StdPeriph_Driver/src/stm32f4xx_tim.c ****   {      
 246:../STM32F4xx_StdPeriph_Driver/src/stm32f4xx_tim.c ****     RCC_APB2PeriphResetCmd(RCC_APB2Periph_TIM10, ENABLE);
 190              		.loc 1 246 0
 191 0178 4FF40030 		mov	r0, #131072
 192 017c 4FF00101 		mov	r1, #1
 193 0180 FFF7FEFF 		bl	RCC_APB2PeriphResetCmd
 247:../STM32F4xx_StdPeriph_Driver/src/stm32f4xx_tim.c ****     RCC_APB2PeriphResetCmd(RCC_APB2Periph_TIM10, DISABLE);  
 194              		.loc 1 247 0
 195 0184 4FF40030 		mov	r0, #131072
 196 0188 4FF00001 		mov	r1, #0
 197 018c FFF7FEFF 		bl	RCC_APB2PeriphResetCmd
 198 0190 4EE0     		b	.L1
 199              	.L12:
 248:../STM32F4xx_StdPeriph_Driver/src/stm32f4xx_tim.c ****   }  
 249:../STM32F4xx_StdPeriph_Driver/src/stm32f4xx_tim.c ****   else if (TIMx == TIM11) 
 200              		.loc 1 249 0
 201 0192 7A68     		ldr	r2, [r7, #4]
 202 0194 4FF49043 		mov	r3, #18432
 203 0198 C4F20103 		movt	r3, 16385
 204 019c 9A42     		cmp	r2, r3
 205 019e 0CD1     		bne	.L13
 250:../STM32F4xx_StdPeriph_Driver/src/stm32f4xx_tim.c ****   {     
 251:../STM32F4xx_StdPeriph_Driver/src/stm32f4xx_tim.c ****     RCC_APB2PeriphResetCmd(RCC_APB2Periph_TIM11, ENABLE);
 206              		.loc 1 251 0
 207 01a0 4FF48020 		mov	r0, #262144
 208 01a4 4FF00101 		mov	r1, #1
 209 01a8 FFF7FEFF 		bl	RCC_APB2PeriphResetCmd
 252:../STM32F4xx_StdPeriph_Driver/src/stm32f4xx_tim.c ****     RCC_APB2PeriphResetCmd(RCC_APB2Periph_TIM11, DISABLE);  
 210              		.loc 1 252 0
 211 01ac 4FF48020 		mov	r0, #262144
 212 01b0 4FF00001 		mov	r1, #0
 213 01b4 FFF7FEFF 		bl	RCC_APB2PeriphResetCmd
 214 01b8 3AE0     		b	.L1
 215              	.L13:
 253:../STM32F4xx_StdPeriph_Driver/src/stm32f4xx_tim.c ****   }  
 254:../STM32F4xx_StdPeriph_Driver/src/stm32f4xx_tim.c ****   else if (TIMx == TIM12)
 216              		.loc 1 254 0
 217 01ba 7A68     		ldr	r2, [r7, #4]
 218 01bc 4FF4C053 		mov	r3, #6144
 219 01c0 C4F20003 		movt	r3, 16384
 220 01c4 9A42     		cmp	r2, r3
 221 01c6 0CD1     		bne	.L14
 255:../STM32F4xx_StdPeriph_Driver/src/stm32f4xx_tim.c ****   {      
 256:../STM32F4xx_StdPeriph_Driver/src/stm32f4xx_tim.c ****     RCC_APB1PeriphResetCmd(RCC_APB1Periph_TIM12, ENABLE);
 222              		.loc 1 256 0
 223 01c8 4FF04000 		mov	r0, #64
 224 01cc 4FF00101 		mov	r1, #1
 225 01d0 FFF7FEFF 		bl	RCC_APB1PeriphResetCmd
 257:../STM32F4xx_StdPeriph_Driver/src/stm32f4xx_tim.c ****     RCC_APB1PeriphResetCmd(RCC_APB1Periph_TIM12, DISABLE);  
 226              		.loc 1 257 0
 227 01d4 4FF04000 		mov	r0, #64
 228 01d8 4FF00001 		mov	r1, #0
 229 01dc FFF7FEFF 		bl	RCC_APB1PeriphResetCmd
 230 01e0 26E0     		b	.L1
 231              	.L14:
 258:../STM32F4xx_StdPeriph_Driver/src/stm32f4xx_tim.c ****   }  
 259:../STM32F4xx_StdPeriph_Driver/src/stm32f4xx_tim.c ****   else if (TIMx == TIM13) 
 232              		.loc 1 259 0
 233 01e2 7A68     		ldr	r2, [r7, #4]
 234 01e4 4FF4E053 		mov	r3, #7168
 235 01e8 C4F20003 		movt	r3, 16384
 236 01ec 9A42     		cmp	r2, r3
 237 01ee 0CD1     		bne	.L15
 260:../STM32F4xx_StdPeriph_Driver/src/stm32f4xx_tim.c ****   {       
 261:../STM32F4xx_StdPeriph_Driver/src/stm32f4xx_tim.c ****     RCC_APB1PeriphResetCmd(RCC_APB1Periph_TIM13, ENABLE);
 238              		.loc 1 261 0
 239 01f0 4FF08000 		mov	r0, #128
 240 01f4 4FF00101 		mov	r1, #1
 241 01f8 FFF7FEFF 		bl	RCC_APB1PeriphResetCmd
 262:../STM32F4xx_StdPeriph_Driver/src/stm32f4xx_tim.c ****     RCC_APB1PeriphResetCmd(RCC_APB1Periph_TIM13, DISABLE);  
 242              		.loc 1 262 0
 243 01fc 4FF08000 		mov	r0, #128
 244 0200 4FF00001 		mov	r1, #0
 245 0204 FFF7FEFF 		bl	RCC_APB1PeriphResetCmd
 246 0208 12E0     		b	.L1
 247              	.L15:
 263:../STM32F4xx_StdPeriph_Driver/src/stm32f4xx_tim.c ****   }  
 264:../STM32F4xx_StdPeriph_Driver/src/stm32f4xx_tim.c ****   else
 265:../STM32F4xx_StdPeriph_Driver/src/stm32f4xx_tim.c ****   { 
 266:../STM32F4xx_StdPeriph_Driver/src/stm32f4xx_tim.c ****     if (TIMx == TIM14) 
 248              		.loc 1 266 0
 249 020a 7A68     		ldr	r2, [r7, #4]
 250 020c 4FF40053 		mov	r3, #8192
 251 0210 C4F20003 		movt	r3, 16384
 252 0214 9A42     		cmp	r2, r3
 253 0216 0BD1     		bne	.L1
 267:../STM32F4xx_StdPeriph_Driver/src/stm32f4xx_tim.c ****     {     
 268:../STM32F4xx_StdPeriph_Driver/src/stm32f4xx_tim.c ****       RCC_APB1PeriphResetCmd(RCC_APB1Periph_TIM14, ENABLE);
 254              		.loc 1 268 0
 255 0218 4FF48070 		mov	r0, #256
 256 021c 4FF00101 		mov	r1, #1
 257 0220 FFF7FEFF 		bl	RCC_APB1PeriphResetCmd
 269:../STM32F4xx_StdPeriph_Driver/src/stm32f4xx_tim.c ****       RCC_APB1PeriphResetCmd(RCC_APB1Periph_TIM14, DISABLE); 
 258              		.loc 1 269 0
 259 0224 4FF48070 		mov	r0, #256
 260 0228 4FF00001 		mov	r1, #0
 261 022c FFF7FEFF 		bl	RCC_APB1PeriphResetCmd
 262              	.L1:
 270:../STM32F4xx_StdPeriph_Driver/src/stm32f4xx_tim.c ****     }   
 271:../STM32F4xx_StdPeriph_Driver/src/stm32f4xx_tim.c ****   }
 272:../STM32F4xx_StdPeriph_Driver/src/stm32f4xx_tim.c **** }
 263              		.loc 1 272 0
 264 0230 07F10807 		add	r7, r7, #8
 265 0234 BD46     		mov	sp, r7
 266 0236 80BD     		pop	{r7, pc}
 267              		.cfi_endproc
 268              	.LFE110:
 270              		.align	2
 271              		.global	TIM_TimeBaseInit
 272              		.thumb
 273              		.thumb_func
 275              	TIM_TimeBaseInit:
 276              	.LFB111:
 273:../STM32F4xx_StdPeriph_Driver/src/stm32f4xx_tim.c **** 
 274:../STM32F4xx_StdPeriph_Driver/src/stm32f4xx_tim.c **** /**
 275:../STM32F4xx_StdPeriph_Driver/src/stm32f4xx_tim.c ****   * @brief  Initializes the TIMx Time Base Unit peripheral according to 
 276:../STM32F4xx_StdPeriph_Driver/src/stm32f4xx_tim.c ****   *         the specified parameters in the TIM_TimeBaseInitStruct.
 277:../STM32F4xx_StdPeriph_Driver/src/stm32f4xx_tim.c ****   * @param  TIMx: where x can be  1 to 14 to select the TIM peripheral.
 278:../STM32F4xx_StdPeriph_Driver/src/stm32f4xx_tim.c ****   * @param  TIM_TimeBaseInitStruct: pointer to a TIM_TimeBaseInitTypeDef structure
 279:../STM32F4xx_StdPeriph_Driver/src/stm32f4xx_tim.c ****   *         that contains the configuration information for the specified TIM peripheral.
 280:../STM32F4xx_StdPeriph_Driver/src/stm32f4xx_tim.c ****   * @retval None
 281:../STM32F4xx_StdPeriph_Driver/src/stm32f4xx_tim.c ****   */
 282:../STM32F4xx_StdPeriph_Driver/src/stm32f4xx_tim.c **** void TIM_TimeBaseInit(TIM_TypeDef* TIMx, TIM_TimeBaseInitTypeDef* TIM_TimeBaseInitStruct)
 283:../STM32F4xx_StdPeriph_Driver/src/stm32f4xx_tim.c **** {
 277              		.loc 1 283 0
 278              		.cfi_startproc
 279              		@ args = 0, pretend = 0, frame = 16
 280              		@ frame_needed = 1, uses_anonymous_args = 0
 281              		@ link register save eliminated.
 282 0238 80B4     		push	{r7}
 283              	.LCFI3:
 284              		.cfi_def_cfa_offset 4
 285              		.cfi_offset 7, -4
 286 023a 85B0     		sub	sp, sp, #20
 287              	.LCFI4:
 288              		.cfi_def_cfa_offset 24
 289 023c 00AF     		add	r7, sp, #0
 290              	.LCFI5:
 291              		.cfi_def_cfa_register 7
 292 023e 7860     		str	r0, [r7, #4]
 293 0240 3960     		str	r1, [r7, #0]
 284:../STM32F4xx_StdPeriph_Driver/src/stm32f4xx_tim.c ****   uint16_t tmpcr1 = 0;
 294              		.loc 1 284 0
 295 0242 4FF00003 		mov	r3, #0
 296 0246 FB81     		strh	r3, [r7, #14]	@ movhi
 285:../STM32F4xx_StdPeriph_Driver/src/stm32f4xx_tim.c **** 
 286:../STM32F4xx_StdPeriph_Driver/src/stm32f4xx_tim.c ****   /* Check the parameters */
 287:../STM32F4xx_StdPeriph_Driver/src/stm32f4xx_tim.c ****   assert_param(IS_TIM_ALL_PERIPH(TIMx)); 
 288:../STM32F4xx_StdPeriph_Driver/src/stm32f4xx_tim.c ****   assert_param(IS_TIM_COUNTER_MODE(TIM_TimeBaseInitStruct->TIM_CounterMode));
 289:../STM32F4xx_StdPeriph_Driver/src/stm32f4xx_tim.c ****   assert_param(IS_TIM_CKD_DIV(TIM_TimeBaseInitStruct->TIM_ClockDivision));
 290:../STM32F4xx_StdPeriph_Driver/src/stm32f4xx_tim.c **** 
 291:../STM32F4xx_StdPeriph_Driver/src/stm32f4xx_tim.c ****   tmpcr1 = TIMx->CR1;  
 297              		.loc 1 291 0
 298 0248 7B68     		ldr	r3, [r7, #4]
 299 024a 1B88     		ldrh	r3, [r3, #0]	@ movhi
 300 024c FB81     		strh	r3, [r7, #14]	@ movhi
 292:../STM32F4xx_StdPeriph_Driver/src/stm32f4xx_tim.c **** 
 293:../STM32F4xx_StdPeriph_Driver/src/stm32f4xx_tim.c ****   if((TIMx == TIM1) || (TIMx == TIM8)||
 301              		.loc 1 293 0
 302 024e 7A68     		ldr	r2, [r7, #4]
 303 0250 4FF00003 		mov	r3, #0
 304 0254 C4F20103 		movt	r3, 16385
 305 0258 9A42     		cmp	r2, r3
 306 025a 1FD0     		beq	.L17
 307              		.loc 1 293 0 is_stmt 0 discriminator 1
 308 025c 7A68     		ldr	r2, [r7, #4]
 309 025e 4FF48063 		mov	r3, #1024
 310 0262 C4F20103 		movt	r3, 16385
 311 0266 9A42     		cmp	r2, r3
 312 0268 18D0     		beq	.L17
 313 026a 7B68     		ldr	r3, [r7, #4]
 314 026c B3F1804F 		cmp	r3, #1073741824
 315 0270 14D0     		beq	.L17
 294:../STM32F4xx_StdPeriph_Driver/src/stm32f4xx_tim.c ****      (TIMx == TIM2) || (TIMx == TIM3)||
 316              		.loc 1 294 0 is_stmt 1
 317 0272 7A68     		ldr	r2, [r7, #4]
 318 0274 4FF48063 		mov	r3, #1024
 319 0278 C4F20003 		movt	r3, 16384
 320 027c 9A42     		cmp	r2, r3
 321 027e 0DD0     		beq	.L17
 322              		.loc 1 294 0 is_stmt 0 discriminator 1
 323 0280 7A68     		ldr	r2, [r7, #4]
 324 0282 4FF40063 		mov	r3, #2048
 325 0286 C4F20003 		movt	r3, 16384
 326 028a 9A42     		cmp	r2, r3
 327 028c 06D0     		beq	.L17
 295:../STM32F4xx_StdPeriph_Driver/src/stm32f4xx_tim.c ****      (TIMx == TIM4) || (TIMx == TIM5)) 
 328              		.loc 1 295 0 is_stmt 1
 329 028e 7A68     		ldr	r2, [r7, #4]
 330 0290 4FF44063 		mov	r3, #3072
 331 0294 C4F20003 		movt	r3, 16384
 332 0298 9A42     		cmp	r2, r3
 333 029a 08D1     		bne	.L18
 334              	.L17:
 296:../STM32F4xx_StdPeriph_Driver/src/stm32f4xx_tim.c ****   {
 297:../STM32F4xx_StdPeriph_Driver/src/stm32f4xx_tim.c ****     /* Select the Counter Mode */
 298:../STM32F4xx_StdPeriph_Driver/src/stm32f4xx_tim.c ****     tmpcr1 &= (uint16_t)(~(TIM_CR1_DIR | TIM_CR1_CMS));
 335              		.loc 1 298 0
 336 029c FB89     		ldrh	r3, [r7, #14]	@ movhi
 337 029e 23F07003 		bic	r3, r3, #112
 338 02a2 FB81     		strh	r3, [r7, #14]	@ movhi
 299:../STM32F4xx_StdPeriph_Driver/src/stm32f4xx_tim.c ****     tmpcr1 |= (uint32_t)TIM_TimeBaseInitStruct->TIM_CounterMode;
 339              		.loc 1 299 0
 340 02a4 3B68     		ldr	r3, [r7, #0]
 341 02a6 5A88     		ldrh	r2, [r3, #2]
 342 02a8 FB89     		ldrh	r3, [r7, #14]	@ movhi
 343 02aa 1343     		orrs	r3, r3, r2
 344 02ac FB81     		strh	r3, [r7, #14]	@ movhi
 345              	.L18:
 300:../STM32F4xx_StdPeriph_Driver/src/stm32f4xx_tim.c ****   }
 301:../STM32F4xx_StdPeriph_Driver/src/stm32f4xx_tim.c ****  
 302:../STM32F4xx_StdPeriph_Driver/src/stm32f4xx_tim.c ****   if((TIMx != TIM6) && (TIMx != TIM7))
 346              		.loc 1 302 0
 347 02ae 7A68     		ldr	r2, [r7, #4]
 348 02b0 4FF48053 		mov	r3, #4096
 349 02b4 C4F20003 		movt	r3, 16384
 350 02b8 9A42     		cmp	r2, r3
 351 02ba 0FD0     		beq	.L19
 352              		.loc 1 302 0 is_stmt 0 discriminator 1
 353 02bc 7A68     		ldr	r2, [r7, #4]
 354 02be 4FF4A053 		mov	r3, #5120
 355 02c2 C4F20003 		movt	r3, 16384
 356 02c6 9A42     		cmp	r2, r3
 357 02c8 08D0     		beq	.L19
 303:../STM32F4xx_StdPeriph_Driver/src/stm32f4xx_tim.c ****   {
 304:../STM32F4xx_StdPeriph_Driver/src/stm32f4xx_tim.c ****     /* Set the clock division */
 305:../STM32F4xx_StdPeriph_Driver/src/stm32f4xx_tim.c ****     tmpcr1 &=  (uint16_t)(~TIM_CR1_CKD);
 358              		.loc 1 305 0 is_stmt 1
 359 02ca FB89     		ldrh	r3, [r7, #14]	@ movhi
 360 02cc 23F44073 		bic	r3, r3, #768
 361 02d0 FB81     		strh	r3, [r7, #14]	@ movhi
 306:../STM32F4xx_StdPeriph_Driver/src/stm32f4xx_tim.c ****     tmpcr1 |= (uint32_t)TIM_TimeBaseInitStruct->TIM_ClockDivision;
 362              		.loc 1 306 0
 363 02d2 3B68     		ldr	r3, [r7, #0]
 364 02d4 1A89     		ldrh	r2, [r3, #8]
 365 02d6 FB89     		ldrh	r3, [r7, #14]	@ movhi
 366 02d8 1343     		orrs	r3, r3, r2
 367 02da FB81     		strh	r3, [r7, #14]	@ movhi
 368              	.L19:
 307:../STM32F4xx_StdPeriph_Driver/src/stm32f4xx_tim.c ****   }
 308:../STM32F4xx_StdPeriph_Driver/src/stm32f4xx_tim.c **** 
 309:../STM32F4xx_StdPeriph_Driver/src/stm32f4xx_tim.c ****   TIMx->CR1 = tmpcr1;
 369              		.loc 1 309 0
 370 02dc 7B68     		ldr	r3, [r7, #4]
 371 02de FA89     		ldrh	r2, [r7, #14]	@ movhi
 372 02e0 1A80     		strh	r2, [r3, #0]	@ movhi
 310:../STM32F4xx_StdPeriph_Driver/src/stm32f4xx_tim.c **** 
 311:../STM32F4xx_StdPeriph_Driver/src/stm32f4xx_tim.c ****   /* Set the Autoreload value */
 312:../STM32F4xx_StdPeriph_Driver/src/stm32f4xx_tim.c ****   TIMx->ARR = TIM_TimeBaseInitStruct->TIM_Period ;
 373              		.loc 1 312 0
 374 02e2 3B68     		ldr	r3, [r7, #0]
 375 02e4 5A68     		ldr	r2, [r3, #4]
 376 02e6 7B68     		ldr	r3, [r7, #4]
 377 02e8 DA62     		str	r2, [r3, #44]
 313:../STM32F4xx_StdPeriph_Driver/src/stm32f4xx_tim.c ****  
 314:../STM32F4xx_StdPeriph_Driver/src/stm32f4xx_tim.c ****   /* Set the Prescaler value */
 315:../STM32F4xx_StdPeriph_Driver/src/stm32f4xx_tim.c ****   TIMx->PSC = TIM_TimeBaseInitStruct->TIM_Prescaler;
 378              		.loc 1 315 0
 379 02ea 3B68     		ldr	r3, [r7, #0]
 380 02ec 1A88     		ldrh	r2, [r3, #0]
 381 02ee 7B68     		ldr	r3, [r7, #4]
 382 02f0 1A85     		strh	r2, [r3, #40]	@ movhi
 316:../STM32F4xx_StdPeriph_Driver/src/stm32f4xx_tim.c ****     
 317:../STM32F4xx_StdPeriph_Driver/src/stm32f4xx_tim.c ****   if ((TIMx == TIM1) || (TIMx == TIM8))  
 383              		.loc 1 317 0
 384 02f2 7A68     		ldr	r2, [r7, #4]
 385 02f4 4FF00003 		mov	r3, #0
 386 02f8 C4F20103 		movt	r3, 16385
 387 02fc 9A42     		cmp	r2, r3
 388 02fe 06D0     		beq	.L20
 389              		.loc 1 317 0 is_stmt 0 discriminator 1
 390 0300 7A68     		ldr	r2, [r7, #4]
 391 0302 4FF48063 		mov	r3, #1024
 392 0306 C4F20103 		movt	r3, 16385
 393 030a 9A42     		cmp	r2, r3
 394 030c 04D1     		bne	.L21
 395              	.L20:
 318:../STM32F4xx_StdPeriph_Driver/src/stm32f4xx_tim.c ****   {
 319:../STM32F4xx_StdPeriph_Driver/src/stm32f4xx_tim.c ****     /* Set the Repetition Counter value */
 320:../STM32F4xx_StdPeriph_Driver/src/stm32f4xx_tim.c ****     TIMx->RCR = TIM_TimeBaseInitStruct->TIM_RepetitionCounter;
 396              		.loc 1 320 0 is_stmt 1
 397 030e 3B68     		ldr	r3, [r7, #0]
 398 0310 9B7A     		ldrb	r3, [r3, #10]	@ zero_extendqisi2
 399 0312 1A46     		mov	r2, r3
 400 0314 7B68     		ldr	r3, [r7, #4]
 401 0316 1A86     		strh	r2, [r3, #48]	@ movhi
 402              	.L21:
 321:../STM32F4xx_StdPeriph_Driver/src/stm32f4xx_tim.c ****   }
 322:../STM32F4xx_StdPeriph_Driver/src/stm32f4xx_tim.c **** 
 323:../STM32F4xx_StdPeriph_Driver/src/stm32f4xx_tim.c ****   /* Generate an update event to reload the Prescaler 
 324:../STM32F4xx_StdPeriph_Driver/src/stm32f4xx_tim.c ****      and the repetition counter(only for TIM1 and TIM8) value immediatly */
 325:../STM32F4xx_StdPeriph_Driver/src/stm32f4xx_tim.c ****   TIMx->EGR = TIM_PSCReloadMode_Immediate;          
 403              		.loc 1 325 0
 404 0318 7B68     		ldr	r3, [r7, #4]
 405 031a 4FF00102 		mov	r2, #1
 406 031e 9A82     		strh	r2, [r3, #20]	@ movhi
 326:../STM32F4xx_StdPeriph_Driver/src/stm32f4xx_tim.c **** }
 407              		.loc 1 326 0
 408 0320 07F11407 		add	r7, r7, #20
 409 0324 BD46     		mov	sp, r7
 410 0326 80BC     		pop	{r7}
 411 0328 7047     		bx	lr
 412              		.cfi_endproc
 413              	.LFE111:
 415 032a 00BF     		.align	2
 416              		.global	TIM_TimeBaseStructInit
 417              		.thumb
 418              		.thumb_func
 420              	TIM_TimeBaseStructInit:
 421              	.LFB112:
 327:../STM32F4xx_StdPeriph_Driver/src/stm32f4xx_tim.c **** 
 328:../STM32F4xx_StdPeriph_Driver/src/stm32f4xx_tim.c **** /**
 329:../STM32F4xx_StdPeriph_Driver/src/stm32f4xx_tim.c ****   * @brief  Fills each TIM_TimeBaseInitStruct member with its default value.
 330:../STM32F4xx_StdPeriph_Driver/src/stm32f4xx_tim.c ****   * @param  TIM_TimeBaseInitStruct : pointer to a TIM_TimeBaseInitTypeDef
 331:../STM32F4xx_StdPeriph_Driver/src/stm32f4xx_tim.c ****   *         structure which will be initialized.
 332:../STM32F4xx_StdPeriph_Driver/src/stm32f4xx_tim.c ****   * @retval None
 333:../STM32F4xx_StdPeriph_Driver/src/stm32f4xx_tim.c ****   */
 334:../STM32F4xx_StdPeriph_Driver/src/stm32f4xx_tim.c **** void TIM_TimeBaseStructInit(TIM_TimeBaseInitTypeDef* TIM_TimeBaseInitStruct)
 335:../STM32F4xx_StdPeriph_Driver/src/stm32f4xx_tim.c **** {
 422              		.loc 1 335 0
 423              		.cfi_startproc
 424              		@ args = 0, pretend = 0, frame = 8
 425              		@ frame_needed = 1, uses_anonymous_args = 0
 426              		@ link register save eliminated.
 427 032c 80B4     		push	{r7}
 428              	.LCFI6:
 429              		.cfi_def_cfa_offset 4
 430              		.cfi_offset 7, -4
 431 032e 83B0     		sub	sp, sp, #12
 432              	.LCFI7:
 433              		.cfi_def_cfa_offset 16
 434 0330 00AF     		add	r7, sp, #0
 435              	.LCFI8:
 436              		.cfi_def_cfa_register 7
 437 0332 7860     		str	r0, [r7, #4]
 336:../STM32F4xx_StdPeriph_Driver/src/stm32f4xx_tim.c ****   /* Set the default configuration */
 337:../STM32F4xx_StdPeriph_Driver/src/stm32f4xx_tim.c ****   TIM_TimeBaseInitStruct->TIM_Period = 0xFFFFFFFF;
 438              		.loc 1 337 0
 439 0334 7B68     		ldr	r3, [r7, #4]
 440 0336 4FF0FF32 		mov	r2, #-1
 441 033a 5A60     		str	r2, [r3, #4]
 338:../STM32F4xx_StdPeriph_Driver/src/stm32f4xx_tim.c ****   TIM_TimeBaseInitStruct->TIM_Prescaler = 0x0000;
 442              		.loc 1 338 0
 443 033c 7B68     		ldr	r3, [r7, #4]
 444 033e 4FF00002 		mov	r2, #0
 445 0342 1A80     		strh	r2, [r3, #0]	@ movhi
 339:../STM32F4xx_StdPeriph_Driver/src/stm32f4xx_tim.c ****   TIM_TimeBaseInitStruct->TIM_ClockDivision = TIM_CKD_DIV1;
 446              		.loc 1 339 0
 447 0344 7B68     		ldr	r3, [r7, #4]
 448 0346 4FF00002 		mov	r2, #0
 449 034a 1A81     		strh	r2, [r3, #8]	@ movhi
 340:../STM32F4xx_StdPeriph_Driver/src/stm32f4xx_tim.c ****   TIM_TimeBaseInitStruct->TIM_CounterMode = TIM_CounterMode_Up;
 450              		.loc 1 340 0
 451 034c 7B68     		ldr	r3, [r7, #4]
 452 034e 4FF00002 		mov	r2, #0
 453 0352 5A80     		strh	r2, [r3, #2]	@ movhi
 341:../STM32F4xx_StdPeriph_Driver/src/stm32f4xx_tim.c ****   TIM_TimeBaseInitStruct->TIM_RepetitionCounter = 0x0000;
 454              		.loc 1 341 0
 455 0354 7B68     		ldr	r3, [r7, #4]
 456 0356 4FF00002 		mov	r2, #0
 457 035a 9A72     		strb	r2, [r3, #10]
 342:../STM32F4xx_StdPeriph_Driver/src/stm32f4xx_tim.c **** }
 458              		.loc 1 342 0
 459 035c 07F10C07 		add	r7, r7, #12
 460 0360 BD46     		mov	sp, r7
 461 0362 80BC     		pop	{r7}
 462 0364 7047     		bx	lr
 463              		.cfi_endproc
 464              	.LFE112:
 466 0366 00BF     		.align	2
 467              		.global	TIM_PrescalerConfig
 468              		.thumb
 469              		.thumb_func
 471              	TIM_PrescalerConfig:
 472              	.LFB113:
 343:../STM32F4xx_StdPeriph_Driver/src/stm32f4xx_tim.c **** 
 344:../STM32F4xx_StdPeriph_Driver/src/stm32f4xx_tim.c **** /**
 345:../STM32F4xx_StdPeriph_Driver/src/stm32f4xx_tim.c ****   * @brief  Configures the TIMx Prescaler.
 346:../STM32F4xx_StdPeriph_Driver/src/stm32f4xx_tim.c ****   * @param  TIMx: where x can be  1 to 14 to select the TIM peripheral.
 347:../STM32F4xx_StdPeriph_Driver/src/stm32f4xx_tim.c ****   * @param  Prescaler: specifies the Prescaler Register value
 348:../STM32F4xx_StdPeriph_Driver/src/stm32f4xx_tim.c ****   * @param  TIM_PSCReloadMode: specifies the TIM Prescaler Reload mode
 349:../STM32F4xx_StdPeriph_Driver/src/stm32f4xx_tim.c ****   *          This parameter can be one of the following values:
 350:../STM32F4xx_StdPeriph_Driver/src/stm32f4xx_tim.c ****   *            @arg TIM_PSCReloadMode_Update: The Prescaler is loaded at the update event.
 351:../STM32F4xx_StdPeriph_Driver/src/stm32f4xx_tim.c ****   *            @arg TIM_PSCReloadMode_Immediate: The Prescaler is loaded immediatly.
 352:../STM32F4xx_StdPeriph_Driver/src/stm32f4xx_tim.c ****   * @retval None
 353:../STM32F4xx_StdPeriph_Driver/src/stm32f4xx_tim.c ****   */
 354:../STM32F4xx_StdPeriph_Driver/src/stm32f4xx_tim.c **** void TIM_PrescalerConfig(TIM_TypeDef* TIMx, uint16_t Prescaler, uint16_t TIM_PSCReloadMode)
 355:../STM32F4xx_StdPeriph_Driver/src/stm32f4xx_tim.c **** {
 473              		.loc 1 355 0
 474              		.cfi_startproc
 475              		@ args = 0, pretend = 0, frame = 8
 476              		@ frame_needed = 1, uses_anonymous_args = 0
 477              		@ link register save eliminated.
 478 0368 80B4     		push	{r7}
 479              	.LCFI9:
 480              		.cfi_def_cfa_offset 4
 481              		.cfi_offset 7, -4
 482 036a 83B0     		sub	sp, sp, #12
 483              	.LCFI10:
 484              		.cfi_def_cfa_offset 16
 485 036c 00AF     		add	r7, sp, #0
 486              	.LCFI11:
 487              		.cfi_def_cfa_register 7
 488 036e 7860     		str	r0, [r7, #4]
 489 0370 1346     		mov	r3, r2
 490 0372 0A46     		mov	r2, r1	@ movhi
 491 0374 7A80     		strh	r2, [r7, #2]	@ movhi
 492 0376 3B80     		strh	r3, [r7, #0]	@ movhi
 356:../STM32F4xx_StdPeriph_Driver/src/stm32f4xx_tim.c ****   /* Check the parameters */
 357:../STM32F4xx_StdPeriph_Driver/src/stm32f4xx_tim.c ****   assert_param(IS_TIM_ALL_PERIPH(TIMx));
 358:../STM32F4xx_StdPeriph_Driver/src/stm32f4xx_tim.c ****   assert_param(IS_TIM_PRESCALER_RELOAD(TIM_PSCReloadMode));
 359:../STM32F4xx_StdPeriph_Driver/src/stm32f4xx_tim.c ****   /* Set the Prescaler value */
 360:../STM32F4xx_StdPeriph_Driver/src/stm32f4xx_tim.c ****   TIMx->PSC = Prescaler;
 493              		.loc 1 360 0
 494 0378 7B68     		ldr	r3, [r7, #4]
 495 037a 7A88     		ldrh	r2, [r7, #2]	@ movhi
 496 037c 1A85     		strh	r2, [r3, #40]	@ movhi
 361:../STM32F4xx_StdPeriph_Driver/src/stm32f4xx_tim.c ****   /* Set or reset the UG Bit */
 362:../STM32F4xx_StdPeriph_Driver/src/stm32f4xx_tim.c ****   TIMx->EGR = TIM_PSCReloadMode;
 497              		.loc 1 362 0
 498 037e 7B68     		ldr	r3, [r7, #4]
 499 0380 3A88     		ldrh	r2, [r7, #0]	@ movhi
 500 0382 9A82     		strh	r2, [r3, #20]	@ movhi
 363:../STM32F4xx_StdPeriph_Driver/src/stm32f4xx_tim.c **** }
 501              		.loc 1 363 0
 502 0384 07F10C07 		add	r7, r7, #12
 503 0388 BD46     		mov	sp, r7
 504 038a 80BC     		pop	{r7}
 505 038c 7047     		bx	lr
 506              		.cfi_endproc
 507              	.LFE113:
 509 038e 00BF     		.align	2
 510              		.global	TIM_CounterModeConfig
 511              		.thumb
 512              		.thumb_func
 514              	TIM_CounterModeConfig:
 515              	.LFB114:
 364:../STM32F4xx_StdPeriph_Driver/src/stm32f4xx_tim.c **** 
 365:../STM32F4xx_StdPeriph_Driver/src/stm32f4xx_tim.c **** /**
 366:../STM32F4xx_StdPeriph_Driver/src/stm32f4xx_tim.c ****   * @brief  Specifies the TIMx Counter Mode to be used.
 367:../STM32F4xx_StdPeriph_Driver/src/stm32f4xx_tim.c ****   * @param  TIMx: where x can be  1, 2, 3, 4, 5 or 8 to select the TIM peripheral.
 368:../STM32F4xx_StdPeriph_Driver/src/stm32f4xx_tim.c ****   * @param  TIM_CounterMode: specifies the Counter Mode to be used
 369:../STM32F4xx_StdPeriph_Driver/src/stm32f4xx_tim.c ****   *          This parameter can be one of the following values:
 370:../STM32F4xx_StdPeriph_Driver/src/stm32f4xx_tim.c ****   *            @arg TIM_CounterMode_Up: TIM Up Counting Mode
 371:../STM32F4xx_StdPeriph_Driver/src/stm32f4xx_tim.c ****   *            @arg TIM_CounterMode_Down: TIM Down Counting Mode
 372:../STM32F4xx_StdPeriph_Driver/src/stm32f4xx_tim.c ****   *            @arg TIM_CounterMode_CenterAligned1: TIM Center Aligned Mode1
 373:../STM32F4xx_StdPeriph_Driver/src/stm32f4xx_tim.c ****   *            @arg TIM_CounterMode_CenterAligned2: TIM Center Aligned Mode2
 374:../STM32F4xx_StdPeriph_Driver/src/stm32f4xx_tim.c ****   *            @arg TIM_CounterMode_CenterAligned3: TIM Center Aligned Mode3
 375:../STM32F4xx_StdPeriph_Driver/src/stm32f4xx_tim.c ****   * @retval None
 376:../STM32F4xx_StdPeriph_Driver/src/stm32f4xx_tim.c ****   */
 377:../STM32F4xx_StdPeriph_Driver/src/stm32f4xx_tim.c **** void TIM_CounterModeConfig(TIM_TypeDef* TIMx, uint16_t TIM_CounterMode)
 378:../STM32F4xx_StdPeriph_Driver/src/stm32f4xx_tim.c **** {
 516              		.loc 1 378 0
 517              		.cfi_startproc
 518              		@ args = 0, pretend = 0, frame = 16
 519              		@ frame_needed = 1, uses_anonymous_args = 0
 520              		@ link register save eliminated.
 521 0390 80B4     		push	{r7}
 522              	.LCFI12:
 523              		.cfi_def_cfa_offset 4
 524              		.cfi_offset 7, -4
 525 0392 85B0     		sub	sp, sp, #20
 526              	.LCFI13:
 527              		.cfi_def_cfa_offset 24
 528 0394 00AF     		add	r7, sp, #0
 529              	.LCFI14:
 530              		.cfi_def_cfa_register 7
 531 0396 7860     		str	r0, [r7, #4]
 532 0398 0B46     		mov	r3, r1
 533 039a 7B80     		strh	r3, [r7, #2]	@ movhi
 379:../STM32F4xx_StdPeriph_Driver/src/stm32f4xx_tim.c ****   uint16_t tmpcr1 = 0;
 534              		.loc 1 379 0
 535 039c 4FF00003 		mov	r3, #0
 536 03a0 FB81     		strh	r3, [r7, #14]	@ movhi
 380:../STM32F4xx_StdPeriph_Driver/src/stm32f4xx_tim.c **** 
 381:../STM32F4xx_StdPeriph_Driver/src/stm32f4xx_tim.c ****   /* Check the parameters */
 382:../STM32F4xx_StdPeriph_Driver/src/stm32f4xx_tim.c ****   assert_param(IS_TIM_LIST3_PERIPH(TIMx));
 383:../STM32F4xx_StdPeriph_Driver/src/stm32f4xx_tim.c ****   assert_param(IS_TIM_COUNTER_MODE(TIM_CounterMode));
 384:../STM32F4xx_StdPeriph_Driver/src/stm32f4xx_tim.c **** 
 385:../STM32F4xx_StdPeriph_Driver/src/stm32f4xx_tim.c ****   tmpcr1 = TIMx->CR1;
 537              		.loc 1 385 0
 538 03a2 7B68     		ldr	r3, [r7, #4]
 539 03a4 1B88     		ldrh	r3, [r3, #0]	@ movhi
 540 03a6 FB81     		strh	r3, [r7, #14]	@ movhi
 386:../STM32F4xx_StdPeriph_Driver/src/stm32f4xx_tim.c **** 
 387:../STM32F4xx_StdPeriph_Driver/src/stm32f4xx_tim.c ****   /* Reset the CMS and DIR Bits */
 388:../STM32F4xx_StdPeriph_Driver/src/stm32f4xx_tim.c ****   tmpcr1 &= (uint16_t)~(TIM_CR1_DIR | TIM_CR1_CMS);
 541              		.loc 1 388 0
 542 03a8 FB89     		ldrh	r3, [r7, #14]	@ movhi
 543 03aa 23F07003 		bic	r3, r3, #112
 544 03ae FB81     		strh	r3, [r7, #14]	@ movhi
 389:../STM32F4xx_StdPeriph_Driver/src/stm32f4xx_tim.c **** 
 390:../STM32F4xx_StdPeriph_Driver/src/stm32f4xx_tim.c ****   /* Set the Counter Mode */
 391:../STM32F4xx_StdPeriph_Driver/src/stm32f4xx_tim.c ****   tmpcr1 |= TIM_CounterMode;
 545              		.loc 1 391 0
 546 03b0 FA89     		ldrh	r2, [r7, #14]	@ movhi
 547 03b2 7B88     		ldrh	r3, [r7, #2]	@ movhi
 548 03b4 1343     		orrs	r3, r3, r2
 549 03b6 FB81     		strh	r3, [r7, #14]	@ movhi
 392:../STM32F4xx_StdPeriph_Driver/src/stm32f4xx_tim.c **** 
 393:../STM32F4xx_StdPeriph_Driver/src/stm32f4xx_tim.c ****   /* Write to TIMx CR1 register */
 394:../STM32F4xx_StdPeriph_Driver/src/stm32f4xx_tim.c ****   TIMx->CR1 = tmpcr1;
 550              		.loc 1 394 0
 551 03b8 7B68     		ldr	r3, [r7, #4]
 552 03ba FA89     		ldrh	r2, [r7, #14]	@ movhi
 553 03bc 1A80     		strh	r2, [r3, #0]	@ movhi
 395:../STM32F4xx_StdPeriph_Driver/src/stm32f4xx_tim.c **** }
 554              		.loc 1 395 0
 555 03be 07F11407 		add	r7, r7, #20
 556 03c2 BD46     		mov	sp, r7
 557 03c4 80BC     		pop	{r7}
 558 03c6 7047     		bx	lr
 559              		.cfi_endproc
 560              	.LFE114:
 562              		.align	2
 563              		.global	TIM_SetCounter
 564              		.thumb
 565              		.thumb_func
 567              	TIM_SetCounter:
 568              	.LFB115:
 396:../STM32F4xx_StdPeriph_Driver/src/stm32f4xx_tim.c **** 
 397:../STM32F4xx_StdPeriph_Driver/src/stm32f4xx_tim.c **** /**
 398:../STM32F4xx_StdPeriph_Driver/src/stm32f4xx_tim.c ****   * @brief  Sets the TIMx Counter Register value
 399:../STM32F4xx_StdPeriph_Driver/src/stm32f4xx_tim.c ****   * @param  TIMx: where x can be 1 to 14 to select the TIM peripheral.
 400:../STM32F4xx_StdPeriph_Driver/src/stm32f4xx_tim.c ****   * @param  Counter: specifies the Counter register new value.
 401:../STM32F4xx_StdPeriph_Driver/src/stm32f4xx_tim.c ****   * @retval None
 402:../STM32F4xx_StdPeriph_Driver/src/stm32f4xx_tim.c ****   */
 403:../STM32F4xx_StdPeriph_Driver/src/stm32f4xx_tim.c **** void TIM_SetCounter(TIM_TypeDef* TIMx, uint32_t Counter)
 404:../STM32F4xx_StdPeriph_Driver/src/stm32f4xx_tim.c **** {
 569              		.loc 1 404 0
 570              		.cfi_startproc
 571              		@ args = 0, pretend = 0, frame = 8
 572              		@ frame_needed = 1, uses_anonymous_args = 0
 573              		@ link register save eliminated.
 574 03c8 80B4     		push	{r7}
 575              	.LCFI15:
 576              		.cfi_def_cfa_offset 4
 577              		.cfi_offset 7, -4
 578 03ca 83B0     		sub	sp, sp, #12
 579              	.LCFI16:
 580              		.cfi_def_cfa_offset 16
 581 03cc 00AF     		add	r7, sp, #0
 582              	.LCFI17:
 583              		.cfi_def_cfa_register 7
 584 03ce 7860     		str	r0, [r7, #4]
 585 03d0 3960     		str	r1, [r7, #0]
 405:../STM32F4xx_StdPeriph_Driver/src/stm32f4xx_tim.c ****   /* Check the parameters */
 406:../STM32F4xx_StdPeriph_Driver/src/stm32f4xx_tim.c ****    assert_param(IS_TIM_ALL_PERIPH(TIMx));
 407:../STM32F4xx_StdPeriph_Driver/src/stm32f4xx_tim.c **** 
 408:../STM32F4xx_StdPeriph_Driver/src/stm32f4xx_tim.c ****   /* Set the Counter Register value */
 409:../STM32F4xx_StdPeriph_Driver/src/stm32f4xx_tim.c ****   TIMx->CNT = Counter;
 586              		.loc 1 409 0
 587 03d2 7B68     		ldr	r3, [r7, #4]
 588 03d4 3A68     		ldr	r2, [r7, #0]
 589 03d6 5A62     		str	r2, [r3, #36]
 410:../STM32F4xx_StdPeriph_Driver/src/stm32f4xx_tim.c **** }
 590              		.loc 1 410 0
 591 03d8 07F10C07 		add	r7, r7, #12
 592 03dc BD46     		mov	sp, r7
 593 03de 80BC     		pop	{r7}
 594 03e0 7047     		bx	lr
 595              		.cfi_endproc
 596              	.LFE115:
 598 03e2 00BF     		.align	2
 599              		.global	TIM_SetAutoreload
 600              		.thumb
 601              		.thumb_func
 603              	TIM_SetAutoreload:
 604              	.LFB116:
 411:../STM32F4xx_StdPeriph_Driver/src/stm32f4xx_tim.c **** 
 412:../STM32F4xx_StdPeriph_Driver/src/stm32f4xx_tim.c **** /**
 413:../STM32F4xx_StdPeriph_Driver/src/stm32f4xx_tim.c ****   * @brief  Sets the TIMx Autoreload Register value
 414:../STM32F4xx_StdPeriph_Driver/src/stm32f4xx_tim.c ****   * @param  TIMx: where x can be 1 to 14 to select the TIM peripheral.
 415:../STM32F4xx_StdPeriph_Driver/src/stm32f4xx_tim.c ****   * @param  Autoreload: specifies the Autoreload register new value.
 416:../STM32F4xx_StdPeriph_Driver/src/stm32f4xx_tim.c ****   * @retval None
 417:../STM32F4xx_StdPeriph_Driver/src/stm32f4xx_tim.c ****   */
 418:../STM32F4xx_StdPeriph_Driver/src/stm32f4xx_tim.c **** void TIM_SetAutoreload(TIM_TypeDef* TIMx, uint32_t Autoreload)
 419:../STM32F4xx_StdPeriph_Driver/src/stm32f4xx_tim.c **** {
 605              		.loc 1 419 0
 606              		.cfi_startproc
 607              		@ args = 0, pretend = 0, frame = 8
 608              		@ frame_needed = 1, uses_anonymous_args = 0
 609              		@ link register save eliminated.
 610 03e4 80B4     		push	{r7}
 611              	.LCFI18:
 612              		.cfi_def_cfa_offset 4
 613              		.cfi_offset 7, -4
 614 03e6 83B0     		sub	sp, sp, #12
 615              	.LCFI19:
 616              		.cfi_def_cfa_offset 16
 617 03e8 00AF     		add	r7, sp, #0
 618              	.LCFI20:
 619              		.cfi_def_cfa_register 7
 620 03ea 7860     		str	r0, [r7, #4]
 621 03ec 3960     		str	r1, [r7, #0]
 420:../STM32F4xx_StdPeriph_Driver/src/stm32f4xx_tim.c ****   /* Check the parameters */
 421:../STM32F4xx_StdPeriph_Driver/src/stm32f4xx_tim.c ****   assert_param(IS_TIM_ALL_PERIPH(TIMx));
 422:../STM32F4xx_StdPeriph_Driver/src/stm32f4xx_tim.c ****   
 423:../STM32F4xx_StdPeriph_Driver/src/stm32f4xx_tim.c ****   /* Set the Autoreload Register value */
 424:../STM32F4xx_StdPeriph_Driver/src/stm32f4xx_tim.c ****   TIMx->ARR = Autoreload;
 622              		.loc 1 424 0
 623 03ee 7B68     		ldr	r3, [r7, #4]
 624 03f0 3A68     		ldr	r2, [r7, #0]
 625 03f2 DA62     		str	r2, [r3, #44]
 425:../STM32F4xx_StdPeriph_Driver/src/stm32f4xx_tim.c **** }
 626              		.loc 1 425 0
 627 03f4 07F10C07 		add	r7, r7, #12
 628 03f8 BD46     		mov	sp, r7
 629 03fa 80BC     		pop	{r7}
 630 03fc 7047     		bx	lr
 631              		.cfi_endproc
 632              	.LFE116:
 634 03fe 00BF     		.align	2
 635              		.global	TIM_GetCounter
 636              		.thumb
 637              		.thumb_func
 639              	TIM_GetCounter:
 640              	.LFB117:
 426:../STM32F4xx_StdPeriph_Driver/src/stm32f4xx_tim.c **** 
 427:../STM32F4xx_StdPeriph_Driver/src/stm32f4xx_tim.c **** /**
 428:../STM32F4xx_StdPeriph_Driver/src/stm32f4xx_tim.c ****   * @brief  Gets the TIMx Counter value.
 429:../STM32F4xx_StdPeriph_Driver/src/stm32f4xx_tim.c ****   * @param  TIMx: where x can be 1 to 14 to select the TIM peripheral.
 430:../STM32F4xx_StdPeriph_Driver/src/stm32f4xx_tim.c ****   * @retval Counter Register value
 431:../STM32F4xx_StdPeriph_Driver/src/stm32f4xx_tim.c ****   */
 432:../STM32F4xx_StdPeriph_Driver/src/stm32f4xx_tim.c **** uint32_t TIM_GetCounter(TIM_TypeDef* TIMx)
 433:../STM32F4xx_StdPeriph_Driver/src/stm32f4xx_tim.c **** {
 641              		.loc 1 433 0
 642              		.cfi_startproc
 643              		@ args = 0, pretend = 0, frame = 8
 644              		@ frame_needed = 1, uses_anonymous_args = 0
 645              		@ link register save eliminated.
 646 0400 80B4     		push	{r7}
 647              	.LCFI21:
 648              		.cfi_def_cfa_offset 4
 649              		.cfi_offset 7, -4
 650 0402 83B0     		sub	sp, sp, #12
 651              	.LCFI22:
 652              		.cfi_def_cfa_offset 16
 653 0404 00AF     		add	r7, sp, #0
 654              	.LCFI23:
 655              		.cfi_def_cfa_register 7
 656 0406 7860     		str	r0, [r7, #4]
 434:../STM32F4xx_StdPeriph_Driver/src/stm32f4xx_tim.c ****   /* Check the parameters */
 435:../STM32F4xx_StdPeriph_Driver/src/stm32f4xx_tim.c ****   assert_param(IS_TIM_ALL_PERIPH(TIMx));
 436:../STM32F4xx_StdPeriph_Driver/src/stm32f4xx_tim.c **** 
 437:../STM32F4xx_StdPeriph_Driver/src/stm32f4xx_tim.c ****   /* Get the Counter Register value */
 438:../STM32F4xx_StdPeriph_Driver/src/stm32f4xx_tim.c ****   return TIMx->CNT;
 657              		.loc 1 438 0
 658 0408 7B68     		ldr	r3, [r7, #4]
 659 040a 5B6A     		ldr	r3, [r3, #36]
 439:../STM32F4xx_StdPeriph_Driver/src/stm32f4xx_tim.c **** }
 660              		.loc 1 439 0
 661 040c 1846     		mov	r0, r3
 662 040e 07F10C07 		add	r7, r7, #12
 663 0412 BD46     		mov	sp, r7
 664 0414 80BC     		pop	{r7}
 665 0416 7047     		bx	lr
 666              		.cfi_endproc
 667              	.LFE117:
 669              		.align	2
 670              		.global	TIM_GetPrescaler
 671              		.thumb
 672              		.thumb_func
 674              	TIM_GetPrescaler:
 675              	.LFB118:
 440:../STM32F4xx_StdPeriph_Driver/src/stm32f4xx_tim.c **** 
 441:../STM32F4xx_StdPeriph_Driver/src/stm32f4xx_tim.c **** /**
 442:../STM32F4xx_StdPeriph_Driver/src/stm32f4xx_tim.c ****   * @brief  Gets the TIMx Prescaler value.
 443:../STM32F4xx_StdPeriph_Driver/src/stm32f4xx_tim.c ****   * @param  TIMx: where x can be 1 to 14 to select the TIM peripheral.
 444:../STM32F4xx_StdPeriph_Driver/src/stm32f4xx_tim.c ****   * @retval Prescaler Register value.
 445:../STM32F4xx_StdPeriph_Driver/src/stm32f4xx_tim.c ****   */
 446:../STM32F4xx_StdPeriph_Driver/src/stm32f4xx_tim.c **** uint16_t TIM_GetPrescaler(TIM_TypeDef* TIMx)
 447:../STM32F4xx_StdPeriph_Driver/src/stm32f4xx_tim.c **** {
 676              		.loc 1 447 0
 677              		.cfi_startproc
 678              		@ args = 0, pretend = 0, frame = 8
 679              		@ frame_needed = 1, uses_anonymous_args = 0
 680              		@ link register save eliminated.
 681 0418 80B4     		push	{r7}
 682              	.LCFI24:
 683              		.cfi_def_cfa_offset 4
 684              		.cfi_offset 7, -4
 685 041a 83B0     		sub	sp, sp, #12
 686              	.LCFI25:
 687              		.cfi_def_cfa_offset 16
 688 041c 00AF     		add	r7, sp, #0
 689              	.LCFI26:
 690              		.cfi_def_cfa_register 7
 691 041e 7860     		str	r0, [r7, #4]
 448:../STM32F4xx_StdPeriph_Driver/src/stm32f4xx_tim.c ****   /* Check the parameters */
 449:../STM32F4xx_StdPeriph_Driver/src/stm32f4xx_tim.c ****   assert_param(IS_TIM_ALL_PERIPH(TIMx));
 450:../STM32F4xx_StdPeriph_Driver/src/stm32f4xx_tim.c **** 
 451:../STM32F4xx_StdPeriph_Driver/src/stm32f4xx_tim.c ****   /* Get the Prescaler Register value */
 452:../STM32F4xx_StdPeriph_Driver/src/stm32f4xx_tim.c ****   return TIMx->PSC;
 692              		.loc 1 452 0
 693 0420 7B68     		ldr	r3, [r7, #4]
 694 0422 1B8D     		ldrh	r3, [r3, #40]	@ movhi
 695 0424 9BB2     		uxth	r3, r3
 453:../STM32F4xx_StdPeriph_Driver/src/stm32f4xx_tim.c **** }
 696              		.loc 1 453 0
 697 0426 1846     		mov	r0, r3
 698 0428 07F10C07 		add	r7, r7, #12
 699 042c BD46     		mov	sp, r7
 700 042e 80BC     		pop	{r7}
 701 0430 7047     		bx	lr
 702              		.cfi_endproc
 703              	.LFE118:
 705 0432 00BF     		.align	2
 706              		.global	TIM_UpdateDisableConfig
 707              		.thumb
 708              		.thumb_func
 710              	TIM_UpdateDisableConfig:
 711              	.LFB119:
 454:../STM32F4xx_StdPeriph_Driver/src/stm32f4xx_tim.c **** 
 455:../STM32F4xx_StdPeriph_Driver/src/stm32f4xx_tim.c **** /**
 456:../STM32F4xx_StdPeriph_Driver/src/stm32f4xx_tim.c ****   * @brief  Enables or Disables the TIMx Update event.
 457:../STM32F4xx_StdPeriph_Driver/src/stm32f4xx_tim.c ****   * @param  TIMx: where x can be 1 to 14 to select the TIM peripheral.
 458:../STM32F4xx_StdPeriph_Driver/src/stm32f4xx_tim.c ****   * @param  NewState: new state of the TIMx UDIS bit
 459:../STM32F4xx_StdPeriph_Driver/src/stm32f4xx_tim.c ****   *          This parameter can be: ENABLE or DISABLE.
 460:../STM32F4xx_StdPeriph_Driver/src/stm32f4xx_tim.c ****   * @retval None
 461:../STM32F4xx_StdPeriph_Driver/src/stm32f4xx_tim.c ****   */
 462:../STM32F4xx_StdPeriph_Driver/src/stm32f4xx_tim.c **** void TIM_UpdateDisableConfig(TIM_TypeDef* TIMx, FunctionalState NewState)
 463:../STM32F4xx_StdPeriph_Driver/src/stm32f4xx_tim.c **** {
 712              		.loc 1 463 0
 713              		.cfi_startproc
 714              		@ args = 0, pretend = 0, frame = 8
 715              		@ frame_needed = 1, uses_anonymous_args = 0
 716              		@ link register save eliminated.
 717 0434 80B4     		push	{r7}
 718              	.LCFI27:
 719              		.cfi_def_cfa_offset 4
 720              		.cfi_offset 7, -4
 721 0436 83B0     		sub	sp, sp, #12
 722              	.LCFI28:
 723              		.cfi_def_cfa_offset 16
 724 0438 00AF     		add	r7, sp, #0
 725              	.LCFI29:
 726              		.cfi_def_cfa_register 7
 727 043a 7860     		str	r0, [r7, #4]
 728 043c 0B46     		mov	r3, r1
 729 043e FB70     		strb	r3, [r7, #3]
 464:../STM32F4xx_StdPeriph_Driver/src/stm32f4xx_tim.c ****   /* Check the parameters */
 465:../STM32F4xx_StdPeriph_Driver/src/stm32f4xx_tim.c ****   assert_param(IS_TIM_ALL_PERIPH(TIMx));
 466:../STM32F4xx_StdPeriph_Driver/src/stm32f4xx_tim.c ****   assert_param(IS_FUNCTIONAL_STATE(NewState));
 467:../STM32F4xx_StdPeriph_Driver/src/stm32f4xx_tim.c **** 
 468:../STM32F4xx_StdPeriph_Driver/src/stm32f4xx_tim.c ****   if (NewState != DISABLE)
 730              		.loc 1 468 0
 731 0440 FB78     		ldrb	r3, [r7, #3]	@ zero_extendqisi2
 732 0442 002B     		cmp	r3, #0
 733 0444 08D0     		beq	.L30
 469:../STM32F4xx_StdPeriph_Driver/src/stm32f4xx_tim.c ****   {
 470:../STM32F4xx_StdPeriph_Driver/src/stm32f4xx_tim.c ****     /* Set the Update Disable Bit */
 471:../STM32F4xx_StdPeriph_Driver/src/stm32f4xx_tim.c ****     TIMx->CR1 |= TIM_CR1_UDIS;
 734              		.loc 1 471 0
 735 0446 7B68     		ldr	r3, [r7, #4]
 736 0448 1B88     		ldrh	r3, [r3, #0]	@ movhi
 737 044a 9BB2     		uxth	r3, r3
 738 044c 43F00203 		orr	r3, r3, #2
 739 0450 9AB2     		uxth	r2, r3
 740 0452 7B68     		ldr	r3, [r7, #4]
 741 0454 1A80     		strh	r2, [r3, #0]	@ movhi
 742 0456 07E0     		b	.L29
 743              	.L30:
 472:../STM32F4xx_StdPeriph_Driver/src/stm32f4xx_tim.c ****   }
 473:../STM32F4xx_StdPeriph_Driver/src/stm32f4xx_tim.c ****   else
 474:../STM32F4xx_StdPeriph_Driver/src/stm32f4xx_tim.c ****   {
 475:../STM32F4xx_StdPeriph_Driver/src/stm32f4xx_tim.c ****     /* Reset the Update Disable Bit */
 476:../STM32F4xx_StdPeriph_Driver/src/stm32f4xx_tim.c ****     TIMx->CR1 &= (uint16_t)~TIM_CR1_UDIS;
 744              		.loc 1 476 0
 745 0458 7B68     		ldr	r3, [r7, #4]
 746 045a 1B88     		ldrh	r3, [r3, #0]	@ movhi
 747 045c 9BB2     		uxth	r3, r3
 748 045e 23F00203 		bic	r3, r3, #2
 749 0462 9AB2     		uxth	r2, r3
 750 0464 7B68     		ldr	r3, [r7, #4]
 751 0466 1A80     		strh	r2, [r3, #0]	@ movhi
 752              	.L29:
 477:../STM32F4xx_StdPeriph_Driver/src/stm32f4xx_tim.c ****   }
 478:../STM32F4xx_StdPeriph_Driver/src/stm32f4xx_tim.c **** }
 753              		.loc 1 478 0
 754 0468 07F10C07 		add	r7, r7, #12
 755 046c BD46     		mov	sp, r7
 756 046e 80BC     		pop	{r7}
 757 0470 7047     		bx	lr
 758              		.cfi_endproc
 759              	.LFE119:
 761 0472 00BF     		.align	2
 762              		.global	TIM_UpdateRequestConfig
 763              		.thumb
 764              		.thumb_func
 766              	TIM_UpdateRequestConfig:
 767              	.LFB120:
 479:../STM32F4xx_StdPeriph_Driver/src/stm32f4xx_tim.c **** 
 480:../STM32F4xx_StdPeriph_Driver/src/stm32f4xx_tim.c **** /**
 481:../STM32F4xx_StdPeriph_Driver/src/stm32f4xx_tim.c ****   * @brief  Configures the TIMx Update Request Interrupt source.
 482:../STM32F4xx_StdPeriph_Driver/src/stm32f4xx_tim.c ****   * @param  TIMx: where x can be 1 to 14 to select the TIM peripheral.
 483:../STM32F4xx_StdPeriph_Driver/src/stm32f4xx_tim.c ****   * @param  TIM_UpdateSource: specifies the Update source.
 484:../STM32F4xx_StdPeriph_Driver/src/stm32f4xx_tim.c ****   *          This parameter can be one of the following values:
 485:../STM32F4xx_StdPeriph_Driver/src/stm32f4xx_tim.c ****   *            @arg TIM_UpdateSource_Global: Source of update is the counter
 486:../STM32F4xx_StdPeriph_Driver/src/stm32f4xx_tim.c ****   *                 overflow/underflow or the setting of UG bit, or an update
 487:../STM32F4xx_StdPeriph_Driver/src/stm32f4xx_tim.c ****   *                 generation through the slave mode controller.
 488:../STM32F4xx_StdPeriph_Driver/src/stm32f4xx_tim.c ****   *            @arg TIM_UpdateSource_Regular: Source of update is counter overflow/underflow.
 489:../STM32F4xx_StdPeriph_Driver/src/stm32f4xx_tim.c ****   * @retval None
 490:../STM32F4xx_StdPeriph_Driver/src/stm32f4xx_tim.c ****   */
 491:../STM32F4xx_StdPeriph_Driver/src/stm32f4xx_tim.c **** void TIM_UpdateRequestConfig(TIM_TypeDef* TIMx, uint16_t TIM_UpdateSource)
 492:../STM32F4xx_StdPeriph_Driver/src/stm32f4xx_tim.c **** {
 768              		.loc 1 492 0
 769              		.cfi_startproc
 770              		@ args = 0, pretend = 0, frame = 8
 771              		@ frame_needed = 1, uses_anonymous_args = 0
 772              		@ link register save eliminated.
 773 0474 80B4     		push	{r7}
 774              	.LCFI30:
 775              		.cfi_def_cfa_offset 4
 776              		.cfi_offset 7, -4
 777 0476 83B0     		sub	sp, sp, #12
 778              	.LCFI31:
 779              		.cfi_def_cfa_offset 16
 780 0478 00AF     		add	r7, sp, #0
 781              	.LCFI32:
 782              		.cfi_def_cfa_register 7
 783 047a 7860     		str	r0, [r7, #4]
 784 047c 0B46     		mov	r3, r1
 785 047e 7B80     		strh	r3, [r7, #2]	@ movhi
 493:../STM32F4xx_StdPeriph_Driver/src/stm32f4xx_tim.c ****   /* Check the parameters */
 494:../STM32F4xx_StdPeriph_Driver/src/stm32f4xx_tim.c ****   assert_param(IS_TIM_ALL_PERIPH(TIMx));
 495:../STM32F4xx_StdPeriph_Driver/src/stm32f4xx_tim.c ****   assert_param(IS_TIM_UPDATE_SOURCE(TIM_UpdateSource));
 496:../STM32F4xx_StdPeriph_Driver/src/stm32f4xx_tim.c **** 
 497:../STM32F4xx_StdPeriph_Driver/src/stm32f4xx_tim.c ****   if (TIM_UpdateSource != TIM_UpdateSource_Global)
 786              		.loc 1 497 0
 787 0480 7B88     		ldrh	r3, [r7, #2]
 788 0482 002B     		cmp	r3, #0
 789 0484 08D0     		beq	.L33
 498:../STM32F4xx_StdPeriph_Driver/src/stm32f4xx_tim.c ****   {
 499:../STM32F4xx_StdPeriph_Driver/src/stm32f4xx_tim.c ****     /* Set the URS Bit */
 500:../STM32F4xx_StdPeriph_Driver/src/stm32f4xx_tim.c ****     TIMx->CR1 |= TIM_CR1_URS;
 790              		.loc 1 500 0
 791 0486 7B68     		ldr	r3, [r7, #4]
 792 0488 1B88     		ldrh	r3, [r3, #0]	@ movhi
 793 048a 9BB2     		uxth	r3, r3
 794 048c 43F00403 		orr	r3, r3, #4
 795 0490 9AB2     		uxth	r2, r3
 796 0492 7B68     		ldr	r3, [r7, #4]
 797 0494 1A80     		strh	r2, [r3, #0]	@ movhi
 798 0496 07E0     		b	.L32
 799              	.L33:
 501:../STM32F4xx_StdPeriph_Driver/src/stm32f4xx_tim.c ****   }
 502:../STM32F4xx_StdPeriph_Driver/src/stm32f4xx_tim.c ****   else
 503:../STM32F4xx_StdPeriph_Driver/src/stm32f4xx_tim.c ****   {
 504:../STM32F4xx_StdPeriph_Driver/src/stm32f4xx_tim.c ****     /* Reset the URS Bit */
 505:../STM32F4xx_StdPeriph_Driver/src/stm32f4xx_tim.c ****     TIMx->CR1 &= (uint16_t)~TIM_CR1_URS;
 800              		.loc 1 505 0
 801 0498 7B68     		ldr	r3, [r7, #4]
 802 049a 1B88     		ldrh	r3, [r3, #0]	@ movhi
 803 049c 9BB2     		uxth	r3, r3
 804 049e 23F00403 		bic	r3, r3, #4
 805 04a2 9AB2     		uxth	r2, r3
 806 04a4 7B68     		ldr	r3, [r7, #4]
 807 04a6 1A80     		strh	r2, [r3, #0]	@ movhi
 808              	.L32:
 506:../STM32F4xx_StdPeriph_Driver/src/stm32f4xx_tim.c ****   }
 507:../STM32F4xx_StdPeriph_Driver/src/stm32f4xx_tim.c **** }
 809              		.loc 1 507 0
 810 04a8 07F10C07 		add	r7, r7, #12
 811 04ac BD46     		mov	sp, r7
 812 04ae 80BC     		pop	{r7}
 813 04b0 7047     		bx	lr
 814              		.cfi_endproc
 815              	.LFE120:
 817 04b2 00BF     		.align	2
 818              		.global	TIM_ARRPreloadConfig
 819              		.thumb
 820              		.thumb_func
 822              	TIM_ARRPreloadConfig:
 823              	.LFB121:
 508:../STM32F4xx_StdPeriph_Driver/src/stm32f4xx_tim.c **** 
 509:../STM32F4xx_StdPeriph_Driver/src/stm32f4xx_tim.c **** /**
 510:../STM32F4xx_StdPeriph_Driver/src/stm32f4xx_tim.c ****   * @brief  Enables or disables TIMx peripheral Preload register on ARR.
 511:../STM32F4xx_StdPeriph_Driver/src/stm32f4xx_tim.c ****   * @param  TIMx: where x can be 1 to 14 to select the TIM peripheral.
 512:../STM32F4xx_StdPeriph_Driver/src/stm32f4xx_tim.c ****   * @param  NewState: new state of the TIMx peripheral Preload register
 513:../STM32F4xx_StdPeriph_Driver/src/stm32f4xx_tim.c ****   *          This parameter can be: ENABLE or DISABLE.
 514:../STM32F4xx_StdPeriph_Driver/src/stm32f4xx_tim.c ****   * @retval None
 515:../STM32F4xx_StdPeriph_Driver/src/stm32f4xx_tim.c ****   */
 516:../STM32F4xx_StdPeriph_Driver/src/stm32f4xx_tim.c **** void TIM_ARRPreloadConfig(TIM_TypeDef* TIMx, FunctionalState NewState)
 517:../STM32F4xx_StdPeriph_Driver/src/stm32f4xx_tim.c **** {
 824              		.loc 1 517 0
 825              		.cfi_startproc
 826              		@ args = 0, pretend = 0, frame = 8
 827              		@ frame_needed = 1, uses_anonymous_args = 0
 828              		@ link register save eliminated.
 829 04b4 80B4     		push	{r7}
 830              	.LCFI33:
 831              		.cfi_def_cfa_offset 4
 832              		.cfi_offset 7, -4
 833 04b6 83B0     		sub	sp, sp, #12
 834              	.LCFI34:
 835              		.cfi_def_cfa_offset 16
 836 04b8 00AF     		add	r7, sp, #0
 837              	.LCFI35:
 838              		.cfi_def_cfa_register 7
 839 04ba 7860     		str	r0, [r7, #4]
 840 04bc 0B46     		mov	r3, r1
 841 04be FB70     		strb	r3, [r7, #3]
 518:../STM32F4xx_StdPeriph_Driver/src/stm32f4xx_tim.c ****   /* Check the parameters */
 519:../STM32F4xx_StdPeriph_Driver/src/stm32f4xx_tim.c ****   assert_param(IS_TIM_ALL_PERIPH(TIMx));
 520:../STM32F4xx_StdPeriph_Driver/src/stm32f4xx_tim.c ****   assert_param(IS_FUNCTIONAL_STATE(NewState));
 521:../STM32F4xx_StdPeriph_Driver/src/stm32f4xx_tim.c **** 
 522:../STM32F4xx_StdPeriph_Driver/src/stm32f4xx_tim.c ****   if (NewState != DISABLE)
 842              		.loc 1 522 0
 843 04c0 FB78     		ldrb	r3, [r7, #3]	@ zero_extendqisi2
 844 04c2 002B     		cmp	r3, #0
 845 04c4 08D0     		beq	.L36
 523:../STM32F4xx_StdPeriph_Driver/src/stm32f4xx_tim.c ****   {
 524:../STM32F4xx_StdPeriph_Driver/src/stm32f4xx_tim.c ****     /* Set the ARR Preload Bit */
 525:../STM32F4xx_StdPeriph_Driver/src/stm32f4xx_tim.c ****     TIMx->CR1 |= TIM_CR1_ARPE;
 846              		.loc 1 525 0
 847 04c6 7B68     		ldr	r3, [r7, #4]
 848 04c8 1B88     		ldrh	r3, [r3, #0]	@ movhi
 849 04ca 9BB2     		uxth	r3, r3
 850 04cc 43F08003 		orr	r3, r3, #128
 851 04d0 9AB2     		uxth	r2, r3
 852 04d2 7B68     		ldr	r3, [r7, #4]
 853 04d4 1A80     		strh	r2, [r3, #0]	@ movhi
 854 04d6 07E0     		b	.L35
 855              	.L36:
 526:../STM32F4xx_StdPeriph_Driver/src/stm32f4xx_tim.c ****   }
 527:../STM32F4xx_StdPeriph_Driver/src/stm32f4xx_tim.c ****   else
 528:../STM32F4xx_StdPeriph_Driver/src/stm32f4xx_tim.c ****   {
 529:../STM32F4xx_StdPeriph_Driver/src/stm32f4xx_tim.c ****     /* Reset the ARR Preload Bit */
 530:../STM32F4xx_StdPeriph_Driver/src/stm32f4xx_tim.c ****     TIMx->CR1 &= (uint16_t)~TIM_CR1_ARPE;
 856              		.loc 1 530 0
 857 04d8 7B68     		ldr	r3, [r7, #4]
 858 04da 1B88     		ldrh	r3, [r3, #0]	@ movhi
 859 04dc 9BB2     		uxth	r3, r3
 860 04de 23F08003 		bic	r3, r3, #128
 861 04e2 9AB2     		uxth	r2, r3
 862 04e4 7B68     		ldr	r3, [r7, #4]
 863 04e6 1A80     		strh	r2, [r3, #0]	@ movhi
 864              	.L35:
 531:../STM32F4xx_StdPeriph_Driver/src/stm32f4xx_tim.c ****   }
 532:../STM32F4xx_StdPeriph_Driver/src/stm32f4xx_tim.c **** }
 865              		.loc 1 532 0
 866 04e8 07F10C07 		add	r7, r7, #12
 867 04ec BD46     		mov	sp, r7
 868 04ee 80BC     		pop	{r7}
 869 04f0 7047     		bx	lr
 870              		.cfi_endproc
 871              	.LFE121:
 873 04f2 00BF     		.align	2
 874              		.global	TIM_SelectOnePulseMode
 875              		.thumb
 876              		.thumb_func
 878              	TIM_SelectOnePulseMode:
 879              	.LFB122:
 533:../STM32F4xx_StdPeriph_Driver/src/stm32f4xx_tim.c **** 
 534:../STM32F4xx_StdPeriph_Driver/src/stm32f4xx_tim.c **** /**
 535:../STM32F4xx_StdPeriph_Driver/src/stm32f4xx_tim.c ****   * @brief  Selects the TIMx's One Pulse Mode.
 536:../STM32F4xx_StdPeriph_Driver/src/stm32f4xx_tim.c ****   * @param  TIMx: where x can be 1 to 14 to select the TIM peripheral.
 537:../STM32F4xx_StdPeriph_Driver/src/stm32f4xx_tim.c ****   * @param  TIM_OPMode: specifies the OPM Mode to be used.
 538:../STM32F4xx_StdPeriph_Driver/src/stm32f4xx_tim.c ****   *          This parameter can be one of the following values:
 539:../STM32F4xx_StdPeriph_Driver/src/stm32f4xx_tim.c ****   *            @arg TIM_OPMode_Single
 540:../STM32F4xx_StdPeriph_Driver/src/stm32f4xx_tim.c ****   *            @arg TIM_OPMode_Repetitive
 541:../STM32F4xx_StdPeriph_Driver/src/stm32f4xx_tim.c ****   * @retval None
 542:../STM32F4xx_StdPeriph_Driver/src/stm32f4xx_tim.c ****   */
 543:../STM32F4xx_StdPeriph_Driver/src/stm32f4xx_tim.c **** void TIM_SelectOnePulseMode(TIM_TypeDef* TIMx, uint16_t TIM_OPMode)
 544:../STM32F4xx_StdPeriph_Driver/src/stm32f4xx_tim.c **** {
 880              		.loc 1 544 0
 881              		.cfi_startproc
 882              		@ args = 0, pretend = 0, frame = 8
 883              		@ frame_needed = 1, uses_anonymous_args = 0
 884              		@ link register save eliminated.
 885 04f4 80B4     		push	{r7}
 886              	.LCFI36:
 887              		.cfi_def_cfa_offset 4
 888              		.cfi_offset 7, -4
 889 04f6 83B0     		sub	sp, sp, #12
 890              	.LCFI37:
 891              		.cfi_def_cfa_offset 16
 892 04f8 00AF     		add	r7, sp, #0
 893              	.LCFI38:
 894              		.cfi_def_cfa_register 7
 895 04fa 7860     		str	r0, [r7, #4]
 896 04fc 0B46     		mov	r3, r1
 897 04fe 7B80     		strh	r3, [r7, #2]	@ movhi
 545:../STM32F4xx_StdPeriph_Driver/src/stm32f4xx_tim.c ****   /* Check the parameters */
 546:../STM32F4xx_StdPeriph_Driver/src/stm32f4xx_tim.c ****   assert_param(IS_TIM_ALL_PERIPH(TIMx));
 547:../STM32F4xx_StdPeriph_Driver/src/stm32f4xx_tim.c ****   assert_param(IS_TIM_OPM_MODE(TIM_OPMode));
 548:../STM32F4xx_StdPeriph_Driver/src/stm32f4xx_tim.c **** 
 549:../STM32F4xx_StdPeriph_Driver/src/stm32f4xx_tim.c ****   /* Reset the OPM Bit */
 550:../STM32F4xx_StdPeriph_Driver/src/stm32f4xx_tim.c ****   TIMx->CR1 &= (uint16_t)~TIM_CR1_OPM;
 898              		.loc 1 550 0
 899 0500 7B68     		ldr	r3, [r7, #4]
 900 0502 1B88     		ldrh	r3, [r3, #0]	@ movhi
 901 0504 9BB2     		uxth	r3, r3
 902 0506 23F00803 		bic	r3, r3, #8
 903 050a 9AB2     		uxth	r2, r3
 904 050c 7B68     		ldr	r3, [r7, #4]
 905 050e 1A80     		strh	r2, [r3, #0]	@ movhi
 551:../STM32F4xx_StdPeriph_Driver/src/stm32f4xx_tim.c **** 
 552:../STM32F4xx_StdPeriph_Driver/src/stm32f4xx_tim.c ****   /* Configure the OPM Mode */
 553:../STM32F4xx_StdPeriph_Driver/src/stm32f4xx_tim.c ****   TIMx->CR1 |= TIM_OPMode;
 906              		.loc 1 553 0
 907 0510 7B68     		ldr	r3, [r7, #4]
 908 0512 1B88     		ldrh	r3, [r3, #0]	@ movhi
 909 0514 9AB2     		uxth	r2, r3
 910 0516 7B88     		ldrh	r3, [r7, #2]	@ movhi
 911 0518 1343     		orrs	r3, r3, r2
 912 051a 9AB2     		uxth	r2, r3
 913 051c 7B68     		ldr	r3, [r7, #4]
 914 051e 1A80     		strh	r2, [r3, #0]	@ movhi
 554:../STM32F4xx_StdPeriph_Driver/src/stm32f4xx_tim.c **** }
 915              		.loc 1 554 0
 916 0520 07F10C07 		add	r7, r7, #12
 917 0524 BD46     		mov	sp, r7
 918 0526 80BC     		pop	{r7}
 919 0528 7047     		bx	lr
 920              		.cfi_endproc
 921              	.LFE122:
 923 052a 00BF     		.align	2
 924              		.global	TIM_SetClockDivision
 925              		.thumb
 926              		.thumb_func
 928              	TIM_SetClockDivision:
 929              	.LFB123:
 555:../STM32F4xx_StdPeriph_Driver/src/stm32f4xx_tim.c **** 
 556:../STM32F4xx_StdPeriph_Driver/src/stm32f4xx_tim.c **** /**
 557:../STM32F4xx_StdPeriph_Driver/src/stm32f4xx_tim.c ****   * @brief  Sets the TIMx Clock Division value.
 558:../STM32F4xx_StdPeriph_Driver/src/stm32f4xx_tim.c ****   * @param  TIMx: where x can be 1 to 14 except 6 and 7, to select the TIM peripheral.
 559:../STM32F4xx_StdPeriph_Driver/src/stm32f4xx_tim.c ****   * @param  TIM_CKD: specifies the clock division value.
 560:../STM32F4xx_StdPeriph_Driver/src/stm32f4xx_tim.c ****   *          This parameter can be one of the following value:
 561:../STM32F4xx_StdPeriph_Driver/src/stm32f4xx_tim.c ****   *            @arg TIM_CKD_DIV1: TDTS = Tck_tim
 562:../STM32F4xx_StdPeriph_Driver/src/stm32f4xx_tim.c ****   *            @arg TIM_CKD_DIV2: TDTS = 2*Tck_tim
 563:../STM32F4xx_StdPeriph_Driver/src/stm32f4xx_tim.c ****   *            @arg TIM_CKD_DIV4: TDTS = 4*Tck_tim
 564:../STM32F4xx_StdPeriph_Driver/src/stm32f4xx_tim.c ****   * @retval None
 565:../STM32F4xx_StdPeriph_Driver/src/stm32f4xx_tim.c ****   */
 566:../STM32F4xx_StdPeriph_Driver/src/stm32f4xx_tim.c **** void TIM_SetClockDivision(TIM_TypeDef* TIMx, uint16_t TIM_CKD)
 567:../STM32F4xx_StdPeriph_Driver/src/stm32f4xx_tim.c **** {
 930              		.loc 1 567 0
 931              		.cfi_startproc
 932              		@ args = 0, pretend = 0, frame = 8
 933              		@ frame_needed = 1, uses_anonymous_args = 0
 934              		@ link register save eliminated.
 935 052c 80B4     		push	{r7}
 936              	.LCFI39:
 937              		.cfi_def_cfa_offset 4
 938              		.cfi_offset 7, -4
 939 052e 83B0     		sub	sp, sp, #12
 940              	.LCFI40:
 941              		.cfi_def_cfa_offset 16
 942 0530 00AF     		add	r7, sp, #0
 943              	.LCFI41:
 944              		.cfi_def_cfa_register 7
 945 0532 7860     		str	r0, [r7, #4]
 946 0534 0B46     		mov	r3, r1
 947 0536 7B80     		strh	r3, [r7, #2]	@ movhi
 568:../STM32F4xx_StdPeriph_Driver/src/stm32f4xx_tim.c ****   /* Check the parameters */
 569:../STM32F4xx_StdPeriph_Driver/src/stm32f4xx_tim.c ****   assert_param(IS_TIM_LIST1_PERIPH(TIMx));
 570:../STM32F4xx_StdPeriph_Driver/src/stm32f4xx_tim.c ****   assert_param(IS_TIM_CKD_DIV(TIM_CKD));
 571:../STM32F4xx_StdPeriph_Driver/src/stm32f4xx_tim.c **** 
 572:../STM32F4xx_StdPeriph_Driver/src/stm32f4xx_tim.c ****   /* Reset the CKD Bits */
 573:../STM32F4xx_StdPeriph_Driver/src/stm32f4xx_tim.c ****   TIMx->CR1 &= (uint16_t)(~TIM_CR1_CKD);
 948              		.loc 1 573 0
 949 0538 7B68     		ldr	r3, [r7, #4]
 950 053a 1B88     		ldrh	r3, [r3, #0]	@ movhi
 951 053c 9BB2     		uxth	r3, r3
 952 053e 23F44073 		bic	r3, r3, #768
 953 0542 9AB2     		uxth	r2, r3
 954 0544 7B68     		ldr	r3, [r7, #4]
 955 0546 1A80     		strh	r2, [r3, #0]	@ movhi
 574:../STM32F4xx_StdPeriph_Driver/src/stm32f4xx_tim.c **** 
 575:../STM32F4xx_StdPeriph_Driver/src/stm32f4xx_tim.c ****   /* Set the CKD value */
 576:../STM32F4xx_StdPeriph_Driver/src/stm32f4xx_tim.c ****   TIMx->CR1 |= TIM_CKD;
 956              		.loc 1 576 0
 957 0548 7B68     		ldr	r3, [r7, #4]
 958 054a 1B88     		ldrh	r3, [r3, #0]	@ movhi
 959 054c 9AB2     		uxth	r2, r3
 960 054e 7B88     		ldrh	r3, [r7, #2]	@ movhi
 961 0550 1343     		orrs	r3, r3, r2
 962 0552 9AB2     		uxth	r2, r3
 963 0554 7B68     		ldr	r3, [r7, #4]
 964 0556 1A80     		strh	r2, [r3, #0]	@ movhi
 577:../STM32F4xx_StdPeriph_Driver/src/stm32f4xx_tim.c **** }
 965              		.loc 1 577 0
 966 0558 07F10C07 		add	r7, r7, #12
 967 055c BD46     		mov	sp, r7
 968 055e 80BC     		pop	{r7}
 969 0560 7047     		bx	lr
 970              		.cfi_endproc
 971              	.LFE123:
 973 0562 00BF     		.align	2
 974              		.global	TIM_Cmd
 975              		.thumb
 976              		.thumb_func
 978              	TIM_Cmd:
 979              	.LFB124:
 578:../STM32F4xx_StdPeriph_Driver/src/stm32f4xx_tim.c **** 
 579:../STM32F4xx_StdPeriph_Driver/src/stm32f4xx_tim.c **** /**
 580:../STM32F4xx_StdPeriph_Driver/src/stm32f4xx_tim.c ****   * @brief  Enables or disables the specified TIM peripheral.
 581:../STM32F4xx_StdPeriph_Driver/src/stm32f4xx_tim.c ****   * @param  TIMx: where x can be 1 to 14 to select the TIMx peripheral.
 582:../STM32F4xx_StdPeriph_Driver/src/stm32f4xx_tim.c ****   * @param  NewState: new state of the TIMx peripheral.
 583:../STM32F4xx_StdPeriph_Driver/src/stm32f4xx_tim.c ****   *          This parameter can be: ENABLE or DISABLE.
 584:../STM32F4xx_StdPeriph_Driver/src/stm32f4xx_tim.c ****   * @retval None
 585:../STM32F4xx_StdPeriph_Driver/src/stm32f4xx_tim.c ****   */
 586:../STM32F4xx_StdPeriph_Driver/src/stm32f4xx_tim.c **** void TIM_Cmd(TIM_TypeDef* TIMx, FunctionalState NewState)
 587:../STM32F4xx_StdPeriph_Driver/src/stm32f4xx_tim.c **** {
 980              		.loc 1 587 0
 981              		.cfi_startproc
 982              		@ args = 0, pretend = 0, frame = 8
 983              		@ frame_needed = 1, uses_anonymous_args = 0
 984              		@ link register save eliminated.
 985 0564 80B4     		push	{r7}
 986              	.LCFI42:
 987              		.cfi_def_cfa_offset 4
 988              		.cfi_offset 7, -4
 989 0566 83B0     		sub	sp, sp, #12
 990              	.LCFI43:
 991              		.cfi_def_cfa_offset 16
 992 0568 00AF     		add	r7, sp, #0
 993              	.LCFI44:
 994              		.cfi_def_cfa_register 7
 995 056a 7860     		str	r0, [r7, #4]
 996 056c 0B46     		mov	r3, r1
 997 056e FB70     		strb	r3, [r7, #3]
 588:../STM32F4xx_StdPeriph_Driver/src/stm32f4xx_tim.c ****   /* Check the parameters */
 589:../STM32F4xx_StdPeriph_Driver/src/stm32f4xx_tim.c ****   assert_param(IS_TIM_ALL_PERIPH(TIMx)); 
 590:../STM32F4xx_StdPeriph_Driver/src/stm32f4xx_tim.c ****   assert_param(IS_FUNCTIONAL_STATE(NewState));
 591:../STM32F4xx_StdPeriph_Driver/src/stm32f4xx_tim.c ****   
 592:../STM32F4xx_StdPeriph_Driver/src/stm32f4xx_tim.c ****   if (NewState != DISABLE)
 998              		.loc 1 592 0
 999 0570 FB78     		ldrb	r3, [r7, #3]	@ zero_extendqisi2
 1000 0572 002B     		cmp	r3, #0
 1001 0574 08D0     		beq	.L41
 593:../STM32F4xx_StdPeriph_Driver/src/stm32f4xx_tim.c ****   {
 594:../STM32F4xx_StdPeriph_Driver/src/stm32f4xx_tim.c ****     /* Enable the TIM Counter */
 595:../STM32F4xx_StdPeriph_Driver/src/stm32f4xx_tim.c ****     TIMx->CR1 |= TIM_CR1_CEN;
 1002              		.loc 1 595 0
 1003 0576 7B68     		ldr	r3, [r7, #4]
 1004 0578 1B88     		ldrh	r3, [r3, #0]	@ movhi
 1005 057a 9BB2     		uxth	r3, r3
 1006 057c 43F00103 		orr	r3, r3, #1
 1007 0580 9AB2     		uxth	r2, r3
 1008 0582 7B68     		ldr	r3, [r7, #4]
 1009 0584 1A80     		strh	r2, [r3, #0]	@ movhi
 1010 0586 07E0     		b	.L40
 1011              	.L41:
 596:../STM32F4xx_StdPeriph_Driver/src/stm32f4xx_tim.c ****   }
 597:../STM32F4xx_StdPeriph_Driver/src/stm32f4xx_tim.c ****   else
 598:../STM32F4xx_StdPeriph_Driver/src/stm32f4xx_tim.c ****   {
 599:../STM32F4xx_StdPeriph_Driver/src/stm32f4xx_tim.c ****     /* Disable the TIM Counter */
 600:../STM32F4xx_StdPeriph_Driver/src/stm32f4xx_tim.c ****     TIMx->CR1 &= (uint16_t)~TIM_CR1_CEN;
 1012              		.loc 1 600 0
 1013 0588 7B68     		ldr	r3, [r7, #4]
 1014 058a 1B88     		ldrh	r3, [r3, #0]	@ movhi
 1015 058c 9BB2     		uxth	r3, r3
 1016 058e 23F00103 		bic	r3, r3, #1
 1017 0592 9AB2     		uxth	r2, r3
 1018 0594 7B68     		ldr	r3, [r7, #4]
 1019 0596 1A80     		strh	r2, [r3, #0]	@ movhi
 1020              	.L40:
 601:../STM32F4xx_StdPeriph_Driver/src/stm32f4xx_tim.c ****   }
 602:../STM32F4xx_StdPeriph_Driver/src/stm32f4xx_tim.c **** }
 1021              		.loc 1 602 0
 1022 0598 07F10C07 		add	r7, r7, #12
 1023 059c BD46     		mov	sp, r7
 1024 059e 80BC     		pop	{r7}
 1025 05a0 7047     		bx	lr
 1026              		.cfi_endproc
 1027              	.LFE124:
 1029 05a2 00BF     		.align	2
 1030              		.global	TIM_OC1Init
 1031              		.thumb
 1032              		.thumb_func
 1034              	TIM_OC1Init:
 1035              	.LFB125:
 603:../STM32F4xx_StdPeriph_Driver/src/stm32f4xx_tim.c **** /**
 604:../STM32F4xx_StdPeriph_Driver/src/stm32f4xx_tim.c ****   * @}
 605:../STM32F4xx_StdPeriph_Driver/src/stm32f4xx_tim.c ****   */
 606:../STM32F4xx_StdPeriph_Driver/src/stm32f4xx_tim.c **** 
 607:../STM32F4xx_StdPeriph_Driver/src/stm32f4xx_tim.c **** /** @defgroup TIM_Group2 Output Compare management functions
 608:../STM32F4xx_StdPeriph_Driver/src/stm32f4xx_tim.c ****  *  @brief    Output Compare management functions 
 609:../STM32F4xx_StdPeriph_Driver/src/stm32f4xx_tim.c ****  *
 610:../STM32F4xx_StdPeriph_Driver/src/stm32f4xx_tim.c **** @verbatim   
 611:../STM32F4xx_StdPeriph_Driver/src/stm32f4xx_tim.c ****  ===============================================================================
 612:../STM32F4xx_StdPeriph_Driver/src/stm32f4xx_tim.c ****                         Output Compare management functions
 613:../STM32F4xx_StdPeriph_Driver/src/stm32f4xx_tim.c ****  ===============================================================================  
 614:../STM32F4xx_StdPeriph_Driver/src/stm32f4xx_tim.c ****    
 615:../STM32F4xx_StdPeriph_Driver/src/stm32f4xx_tim.c ****        ===================================================================      
 616:../STM32F4xx_StdPeriph_Driver/src/stm32f4xx_tim.c ****               TIM Driver: how to use it in Output Compare Mode
 617:../STM32F4xx_StdPeriph_Driver/src/stm32f4xx_tim.c ****        =================================================================== 
 618:../STM32F4xx_StdPeriph_Driver/src/stm32f4xx_tim.c ****        To use the Timer in Output Compare mode, the following steps are mandatory:
 619:../STM32F4xx_StdPeriph_Driver/src/stm32f4xx_tim.c ****        
 620:../STM32F4xx_StdPeriph_Driver/src/stm32f4xx_tim.c ****        1. Enable TIM clock using RCC_APBxPeriphClockCmd(RCC_APBxPeriph_TIMx, ENABLE) function
 621:../STM32F4xx_StdPeriph_Driver/src/stm32f4xx_tim.c ****        
 622:../STM32F4xx_StdPeriph_Driver/src/stm32f4xx_tim.c ****        2. Configure the TIM pins by configuring the corresponding GPIO pins
 623:../STM32F4xx_StdPeriph_Driver/src/stm32f4xx_tim.c ****        
 624:../STM32F4xx_StdPeriph_Driver/src/stm32f4xx_tim.c ****        2. Configure the Time base unit as described in the first part of this driver, 
 625:../STM32F4xx_StdPeriph_Driver/src/stm32f4xx_tim.c ****           if needed, else the Timer will run with the default configuration:
 626:../STM32F4xx_StdPeriph_Driver/src/stm32f4xx_tim.c ****           - Autoreload value = 0xFFFF
 627:../STM32F4xx_StdPeriph_Driver/src/stm32f4xx_tim.c ****           - Prescaler value = 0x0000
 628:../STM32F4xx_StdPeriph_Driver/src/stm32f4xx_tim.c ****           - Counter mode = Up counting
 629:../STM32F4xx_StdPeriph_Driver/src/stm32f4xx_tim.c ****           - Clock Division = TIM_CKD_DIV1
 630:../STM32F4xx_StdPeriph_Driver/src/stm32f4xx_tim.c ****           
 631:../STM32F4xx_StdPeriph_Driver/src/stm32f4xx_tim.c ****        3. Fill the TIM_OCInitStruct with the desired parameters including:
 632:../STM32F4xx_StdPeriph_Driver/src/stm32f4xx_tim.c ****           - The TIM Output Compare mode: TIM_OCMode
 633:../STM32F4xx_StdPeriph_Driver/src/stm32f4xx_tim.c ****           - TIM Output State: TIM_OutputState
 634:../STM32F4xx_StdPeriph_Driver/src/stm32f4xx_tim.c ****           - TIM Pulse value: TIM_Pulse
 635:../STM32F4xx_StdPeriph_Driver/src/stm32f4xx_tim.c ****           - TIM Output Compare Polarity : TIM_OCPolarity
 636:../STM32F4xx_StdPeriph_Driver/src/stm32f4xx_tim.c ****        
 637:../STM32F4xx_StdPeriph_Driver/src/stm32f4xx_tim.c ****        4. Call TIM_OCxInit(TIMx, &TIM_OCInitStruct) to configure the desired channel with the 
 638:../STM32F4xx_StdPeriph_Driver/src/stm32f4xx_tim.c ****           corresponding configuration
 639:../STM32F4xx_StdPeriph_Driver/src/stm32f4xx_tim.c ****        
 640:../STM32F4xx_StdPeriph_Driver/src/stm32f4xx_tim.c ****        5. Call the TIM_Cmd(ENABLE) function to enable the TIM counter.
 641:../STM32F4xx_StdPeriph_Driver/src/stm32f4xx_tim.c ****        
 642:../STM32F4xx_StdPeriph_Driver/src/stm32f4xx_tim.c ****        Note1: All other functions can be used separately to modify, if needed,
 643:../STM32F4xx_StdPeriph_Driver/src/stm32f4xx_tim.c ****               a specific feature of the Timer. 
 644:../STM32F4xx_StdPeriph_Driver/src/stm32f4xx_tim.c ****           
 645:../STM32F4xx_StdPeriph_Driver/src/stm32f4xx_tim.c ****        Note2: In case of PWM mode, this function is mandatory:
 646:../STM32F4xx_StdPeriph_Driver/src/stm32f4xx_tim.c ****               TIM_OCxPreloadConfig(TIMx, TIM_OCPreload_ENABLE); 
 647:../STM32F4xx_StdPeriph_Driver/src/stm32f4xx_tim.c ****               
 648:../STM32F4xx_StdPeriph_Driver/src/stm32f4xx_tim.c ****        Note3: If the corresponding interrupt or DMA request are needed, the user should:
 649:../STM32F4xx_StdPeriph_Driver/src/stm32f4xx_tim.c ****                 1. Enable the NVIC (or the DMA) to use the TIM interrupts (or DMA requests). 
 650:../STM32F4xx_StdPeriph_Driver/src/stm32f4xx_tim.c ****                 2. Enable the corresponding interrupt (or DMA request) using the function 
 651:../STM32F4xx_StdPeriph_Driver/src/stm32f4xx_tim.c ****                    TIM_ITConfig(TIMx, TIM_IT_CCx) (or TIM_DMA_Cmd(TIMx, TIM_DMA_CCx))   
 652:../STM32F4xx_StdPeriph_Driver/src/stm32f4xx_tim.c **** 
 653:../STM32F4xx_StdPeriph_Driver/src/stm32f4xx_tim.c **** @endverbatim
 654:../STM32F4xx_StdPeriph_Driver/src/stm32f4xx_tim.c ****   * @{
 655:../STM32F4xx_StdPeriph_Driver/src/stm32f4xx_tim.c ****   */
 656:../STM32F4xx_StdPeriph_Driver/src/stm32f4xx_tim.c **** 
 657:../STM32F4xx_StdPeriph_Driver/src/stm32f4xx_tim.c **** /**
 658:../STM32F4xx_StdPeriph_Driver/src/stm32f4xx_tim.c ****   * @brief  Initializes the TIMx Channel1 according to the specified parameters in
 659:../STM32F4xx_StdPeriph_Driver/src/stm32f4xx_tim.c ****   *         the TIM_OCInitStruct.
 660:../STM32F4xx_StdPeriph_Driver/src/stm32f4xx_tim.c ****   * @param  TIMx: where x can be 1 to 14 except 6 and 7, to select the TIM peripheral.
 661:../STM32F4xx_StdPeriph_Driver/src/stm32f4xx_tim.c ****   * @param  TIM_OCInitStruct: pointer to a TIM_OCInitTypeDef structure that contains
 662:../STM32F4xx_StdPeriph_Driver/src/stm32f4xx_tim.c ****   *         the configuration information for the specified TIM peripheral.
 663:../STM32F4xx_StdPeriph_Driver/src/stm32f4xx_tim.c ****   * @retval None
 664:../STM32F4xx_StdPeriph_Driver/src/stm32f4xx_tim.c ****   */
 665:../STM32F4xx_StdPeriph_Driver/src/stm32f4xx_tim.c **** void TIM_OC1Init(TIM_TypeDef* TIMx, TIM_OCInitTypeDef* TIM_OCInitStruct)
 666:../STM32F4xx_StdPeriph_Driver/src/stm32f4xx_tim.c **** {
 1036              		.loc 1 666 0
 1037              		.cfi_startproc
 1038              		@ args = 0, pretend = 0, frame = 16
 1039              		@ frame_needed = 1, uses_anonymous_args = 0
 1040              		@ link register save eliminated.
 1041 05a4 80B4     		push	{r7}
 1042              	.LCFI45:
 1043              		.cfi_def_cfa_offset 4
 1044              		.cfi_offset 7, -4
 1045 05a6 85B0     		sub	sp, sp, #20
 1046              	.LCFI46:
 1047              		.cfi_def_cfa_offset 24
 1048 05a8 00AF     		add	r7, sp, #0
 1049              	.LCFI47:
 1050              		.cfi_def_cfa_register 7
 1051 05aa 7860     		str	r0, [r7, #4]
 1052 05ac 3960     		str	r1, [r7, #0]
 667:../STM32F4xx_StdPeriph_Driver/src/stm32f4xx_tim.c ****   uint16_t tmpccmrx = 0, tmpccer = 0, tmpcr2 = 0;
 1053              		.loc 1 667 0
 1054 05ae 4FF00003 		mov	r3, #0
 1055 05b2 7B81     		strh	r3, [r7, #10]	@ movhi
 1056 05b4 4FF00003 		mov	r3, #0
 1057 05b8 FB81     		strh	r3, [r7, #14]	@ movhi
 1058 05ba 4FF00003 		mov	r3, #0
 1059 05be BB81     		strh	r3, [r7, #12]	@ movhi
 668:../STM32F4xx_StdPeriph_Driver/src/stm32f4xx_tim.c ****    
 669:../STM32F4xx_StdPeriph_Driver/src/stm32f4xx_tim.c ****   /* Check the parameters */
 670:../STM32F4xx_StdPeriph_Driver/src/stm32f4xx_tim.c ****   assert_param(IS_TIM_LIST1_PERIPH(TIMx)); 
 671:../STM32F4xx_StdPeriph_Driver/src/stm32f4xx_tim.c ****   assert_param(IS_TIM_OC_MODE(TIM_OCInitStruct->TIM_OCMode));
 672:../STM32F4xx_StdPeriph_Driver/src/stm32f4xx_tim.c ****   assert_param(IS_TIM_OUTPUT_STATE(TIM_OCInitStruct->TIM_OutputState));
 673:../STM32F4xx_StdPeriph_Driver/src/stm32f4xx_tim.c ****   assert_param(IS_TIM_OC_POLARITY(TIM_OCInitStruct->TIM_OCPolarity));   
 674:../STM32F4xx_StdPeriph_Driver/src/stm32f4xx_tim.c **** 
 675:../STM32F4xx_StdPeriph_Driver/src/stm32f4xx_tim.c ****   /* Disable the Channel 1: Reset the CC1E Bit */
 676:../STM32F4xx_StdPeriph_Driver/src/stm32f4xx_tim.c ****   TIMx->CCER &= (uint16_t)~TIM_CCER_CC1E;
 1060              		.loc 1 676 0
 1061 05c0 7B68     		ldr	r3, [r7, #4]
 1062 05c2 1B8C     		ldrh	r3, [r3, #32]	@ movhi
 1063 05c4 9BB2     		uxth	r3, r3
 1064 05c6 23F00103 		bic	r3, r3, #1
 1065 05ca 9AB2     		uxth	r2, r3
 1066 05cc 7B68     		ldr	r3, [r7, #4]
 1067 05ce 1A84     		strh	r2, [r3, #32]	@ movhi
 677:../STM32F4xx_StdPeriph_Driver/src/stm32f4xx_tim.c ****   
 678:../STM32F4xx_StdPeriph_Driver/src/stm32f4xx_tim.c ****   /* Get the TIMx CCER register value */
 679:../STM32F4xx_StdPeriph_Driver/src/stm32f4xx_tim.c ****   tmpccer = TIMx->CCER;
 1068              		.loc 1 679 0
 1069 05d0 7B68     		ldr	r3, [r7, #4]
 1070 05d2 1B8C     		ldrh	r3, [r3, #32]	@ movhi
 1071 05d4 FB81     		strh	r3, [r7, #14]	@ movhi
 680:../STM32F4xx_StdPeriph_Driver/src/stm32f4xx_tim.c ****   /* Get the TIMx CR2 register value */
 681:../STM32F4xx_StdPeriph_Driver/src/stm32f4xx_tim.c ****   tmpcr2 =  TIMx->CR2;
 1072              		.loc 1 681 0
 1073 05d6 7B68     		ldr	r3, [r7, #4]
 1074 05d8 9B88     		ldrh	r3, [r3, #4]	@ movhi
 1075 05da BB81     		strh	r3, [r7, #12]	@ movhi
 682:../STM32F4xx_StdPeriph_Driver/src/stm32f4xx_tim.c ****   
 683:../STM32F4xx_StdPeriph_Driver/src/stm32f4xx_tim.c ****   /* Get the TIMx CCMR1 register value */
 684:../STM32F4xx_StdPeriph_Driver/src/stm32f4xx_tim.c ****   tmpccmrx = TIMx->CCMR1;
 1076              		.loc 1 684 0
 1077 05dc 7B68     		ldr	r3, [r7, #4]
 1078 05de 1B8B     		ldrh	r3, [r3, #24]	@ movhi
 1079 05e0 7B81     		strh	r3, [r7, #10]	@ movhi
 685:../STM32F4xx_StdPeriph_Driver/src/stm32f4xx_tim.c ****     
 686:../STM32F4xx_StdPeriph_Driver/src/stm32f4xx_tim.c ****   /* Reset the Output Compare Mode Bits */
 687:../STM32F4xx_StdPeriph_Driver/src/stm32f4xx_tim.c ****   tmpccmrx &= (uint16_t)~TIM_CCMR1_OC1M;
 1080              		.loc 1 687 0
 1081 05e2 7B89     		ldrh	r3, [r7, #10]	@ movhi
 1082 05e4 23F07003 		bic	r3, r3, #112
 1083 05e8 7B81     		strh	r3, [r7, #10]	@ movhi
 688:../STM32F4xx_StdPeriph_Driver/src/stm32f4xx_tim.c ****   tmpccmrx &= (uint16_t)~TIM_CCMR1_CC1S;
 1084              		.loc 1 688 0
 1085 05ea 7B89     		ldrh	r3, [r7, #10]	@ movhi
 1086 05ec 23F00303 		bic	r3, r3, #3
 1087 05f0 7B81     		strh	r3, [r7, #10]	@ movhi
 689:../STM32F4xx_StdPeriph_Driver/src/stm32f4xx_tim.c ****   /* Select the Output Compare Mode */
 690:../STM32F4xx_StdPeriph_Driver/src/stm32f4xx_tim.c ****   tmpccmrx |= TIM_OCInitStruct->TIM_OCMode;
 1088              		.loc 1 690 0
 1089 05f2 3B68     		ldr	r3, [r7, #0]
 1090 05f4 1A88     		ldrh	r2, [r3, #0]
 1091 05f6 7B89     		ldrh	r3, [r7, #10]	@ movhi
 1092 05f8 1343     		orrs	r3, r3, r2
 1093 05fa 7B81     		strh	r3, [r7, #10]	@ movhi
 691:../STM32F4xx_StdPeriph_Driver/src/stm32f4xx_tim.c ****   
 692:../STM32F4xx_StdPeriph_Driver/src/stm32f4xx_tim.c ****   /* Reset the Output Polarity level */
 693:../STM32F4xx_StdPeriph_Driver/src/stm32f4xx_tim.c ****   tmpccer &= (uint16_t)~TIM_CCER_CC1P;
 1094              		.loc 1 693 0
 1095 05fc FB89     		ldrh	r3, [r7, #14]	@ movhi
 1096 05fe 23F00203 		bic	r3, r3, #2
 1097 0602 FB81     		strh	r3, [r7, #14]	@ movhi
 694:../STM32F4xx_StdPeriph_Driver/src/stm32f4xx_tim.c ****   /* Set the Output Compare Polarity */
 695:../STM32F4xx_StdPeriph_Driver/src/stm32f4xx_tim.c ****   tmpccer |= TIM_OCInitStruct->TIM_OCPolarity;
 1098              		.loc 1 695 0
 1099 0604 3B68     		ldr	r3, [r7, #0]
 1100 0606 9A89     		ldrh	r2, [r3, #12]
 1101 0608 FB89     		ldrh	r3, [r7, #14]	@ movhi
 1102 060a 1343     		orrs	r3, r3, r2
 1103 060c FB81     		strh	r3, [r7, #14]	@ movhi
 696:../STM32F4xx_StdPeriph_Driver/src/stm32f4xx_tim.c ****   
 697:../STM32F4xx_StdPeriph_Driver/src/stm32f4xx_tim.c ****   /* Set the Output State */
 698:../STM32F4xx_StdPeriph_Driver/src/stm32f4xx_tim.c ****   tmpccer |= TIM_OCInitStruct->TIM_OutputState;
 1104              		.loc 1 698 0
 1105 060e 3B68     		ldr	r3, [r7, #0]
 1106 0610 5A88     		ldrh	r2, [r3, #2]
 1107 0612 FB89     		ldrh	r3, [r7, #14]	@ movhi
 1108 0614 1343     		orrs	r3, r3, r2
 1109 0616 FB81     		strh	r3, [r7, #14]	@ movhi
 699:../STM32F4xx_StdPeriph_Driver/src/stm32f4xx_tim.c ****     
 700:../STM32F4xx_StdPeriph_Driver/src/stm32f4xx_tim.c ****   if((TIMx == TIM1) || (TIMx == TIM8))
 1110              		.loc 1 700 0
 1111 0618 7A68     		ldr	r2, [r7, #4]
 1112 061a 4FF00003 		mov	r3, #0
 1113 061e C4F20103 		movt	r3, 16385
 1114 0622 9A42     		cmp	r2, r3
 1115 0624 06D0     		beq	.L44
 1116              		.loc 1 700 0 is_stmt 0 discriminator 1
 1117 0626 7A68     		ldr	r2, [r7, #4]
 1118 0628 4FF48063 		mov	r3, #1024
 1119 062c C4F20103 		movt	r3, 16385
 1120 0630 9A42     		cmp	r2, r3
 1121 0632 23D1     		bne	.L45
 1122              	.L44:
 701:../STM32F4xx_StdPeriph_Driver/src/stm32f4xx_tim.c ****   {
 702:../STM32F4xx_StdPeriph_Driver/src/stm32f4xx_tim.c ****     assert_param(IS_TIM_OUTPUTN_STATE(TIM_OCInitStruct->TIM_OutputNState));
 703:../STM32F4xx_StdPeriph_Driver/src/stm32f4xx_tim.c ****     assert_param(IS_TIM_OCN_POLARITY(TIM_OCInitStruct->TIM_OCNPolarity));
 704:../STM32F4xx_StdPeriph_Driver/src/stm32f4xx_tim.c ****     assert_param(IS_TIM_OCNIDLE_STATE(TIM_OCInitStruct->TIM_OCNIdleState));
 705:../STM32F4xx_StdPeriph_Driver/src/stm32f4xx_tim.c ****     assert_param(IS_TIM_OCIDLE_STATE(TIM_OCInitStruct->TIM_OCIdleState));
 706:../STM32F4xx_StdPeriph_Driver/src/stm32f4xx_tim.c ****     
 707:../STM32F4xx_StdPeriph_Driver/src/stm32f4xx_tim.c ****     /* Reset the Output N Polarity level */
 708:../STM32F4xx_StdPeriph_Driver/src/stm32f4xx_tim.c ****     tmpccer &= (uint16_t)~TIM_CCER_CC1NP;
 1123              		.loc 1 708 0 is_stmt 1
 1124 0634 FB89     		ldrh	r3, [r7, #14]	@ movhi
 1125 0636 23F00803 		bic	r3, r3, #8
 1126 063a FB81     		strh	r3, [r7, #14]	@ movhi
 709:../STM32F4xx_StdPeriph_Driver/src/stm32f4xx_tim.c ****     /* Set the Output N Polarity */
 710:../STM32F4xx_StdPeriph_Driver/src/stm32f4xx_tim.c ****     tmpccer |= TIM_OCInitStruct->TIM_OCNPolarity;
 1127              		.loc 1 710 0
 1128 063c 3B68     		ldr	r3, [r7, #0]
 1129 063e DA89     		ldrh	r2, [r3, #14]
 1130 0640 FB89     		ldrh	r3, [r7, #14]	@ movhi
 1131 0642 1343     		orrs	r3, r3, r2
 1132 0644 FB81     		strh	r3, [r7, #14]	@ movhi
 711:../STM32F4xx_StdPeriph_Driver/src/stm32f4xx_tim.c ****     /* Reset the Output N State */
 712:../STM32F4xx_StdPeriph_Driver/src/stm32f4xx_tim.c ****     tmpccer &= (uint16_t)~TIM_CCER_CC1NE;
 1133              		.loc 1 712 0
 1134 0646 FB89     		ldrh	r3, [r7, #14]	@ movhi
 1135 0648 23F00403 		bic	r3, r3, #4
 1136 064c FB81     		strh	r3, [r7, #14]	@ movhi
 713:../STM32F4xx_StdPeriph_Driver/src/stm32f4xx_tim.c ****     
 714:../STM32F4xx_StdPeriph_Driver/src/stm32f4xx_tim.c ****     /* Set the Output N State */
 715:../STM32F4xx_StdPeriph_Driver/src/stm32f4xx_tim.c ****     tmpccer |= TIM_OCInitStruct->TIM_OutputNState;
 1137              		.loc 1 715 0
 1138 064e 3B68     		ldr	r3, [r7, #0]
 1139 0650 9A88     		ldrh	r2, [r3, #4]
 1140 0652 FB89     		ldrh	r3, [r7, #14]	@ movhi
 1141 0654 1343     		orrs	r3, r3, r2
 1142 0656 FB81     		strh	r3, [r7, #14]	@ movhi
 716:../STM32F4xx_StdPeriph_Driver/src/stm32f4xx_tim.c ****     /* Reset the Output Compare and Output Compare N IDLE State */
 717:../STM32F4xx_StdPeriph_Driver/src/stm32f4xx_tim.c ****     tmpcr2 &= (uint16_t)~TIM_CR2_OIS1;
 1143              		.loc 1 717 0
 1144 0658 BB89     		ldrh	r3, [r7, #12]	@ movhi
 1145 065a 23F48073 		bic	r3, r3, #256
 1146 065e BB81     		strh	r3, [r7, #12]	@ movhi
 718:../STM32F4xx_StdPeriph_Driver/src/stm32f4xx_tim.c ****     tmpcr2 &= (uint16_t)~TIM_CR2_OIS1N;
 1147              		.loc 1 718 0
 1148 0660 BB89     		ldrh	r3, [r7, #12]	@ movhi
 1149 0662 23F40073 		bic	r3, r3, #512
 1150 0666 BB81     		strh	r3, [r7, #12]	@ movhi
 719:../STM32F4xx_StdPeriph_Driver/src/stm32f4xx_tim.c ****     /* Set the Output Idle state */
 720:../STM32F4xx_StdPeriph_Driver/src/stm32f4xx_tim.c ****     tmpcr2 |= TIM_OCInitStruct->TIM_OCIdleState;
 1151              		.loc 1 720 0
 1152 0668 3B68     		ldr	r3, [r7, #0]
 1153 066a 1A8A     		ldrh	r2, [r3, #16]
 1154 066c BB89     		ldrh	r3, [r7, #12]	@ movhi
 1155 066e 1343     		orrs	r3, r3, r2
 1156 0670 BB81     		strh	r3, [r7, #12]	@ movhi
 721:../STM32F4xx_StdPeriph_Driver/src/stm32f4xx_tim.c ****     /* Set the Output N Idle state */
 722:../STM32F4xx_StdPeriph_Driver/src/stm32f4xx_tim.c ****     tmpcr2 |= TIM_OCInitStruct->TIM_OCNIdleState;
 1157              		.loc 1 722 0
 1158 0672 3B68     		ldr	r3, [r7, #0]
 1159 0674 5A8A     		ldrh	r2, [r3, #18]
 1160 0676 BB89     		ldrh	r3, [r7, #12]	@ movhi
 1161 0678 1343     		orrs	r3, r3, r2
 1162 067a BB81     		strh	r3, [r7, #12]	@ movhi
 1163              	.L45:
 723:../STM32F4xx_StdPeriph_Driver/src/stm32f4xx_tim.c ****   }
 724:../STM32F4xx_StdPeriph_Driver/src/stm32f4xx_tim.c ****   /* Write to TIMx CR2 */
 725:../STM32F4xx_StdPeriph_Driver/src/stm32f4xx_tim.c ****   TIMx->CR2 = tmpcr2;
 1164              		.loc 1 725 0
 1165 067c 7B68     		ldr	r3, [r7, #4]
 1166 067e BA89     		ldrh	r2, [r7, #12]	@ movhi
 1167 0680 9A80     		strh	r2, [r3, #4]	@ movhi
 726:../STM32F4xx_StdPeriph_Driver/src/stm32f4xx_tim.c ****   
 727:../STM32F4xx_StdPeriph_Driver/src/stm32f4xx_tim.c ****   /* Write to TIMx CCMR1 */
 728:../STM32F4xx_StdPeriph_Driver/src/stm32f4xx_tim.c ****   TIMx->CCMR1 = tmpccmrx;
 1168              		.loc 1 728 0
 1169 0682 7B68     		ldr	r3, [r7, #4]
 1170 0684 7A89     		ldrh	r2, [r7, #10]	@ movhi
 1171 0686 1A83     		strh	r2, [r3, #24]	@ movhi
 729:../STM32F4xx_StdPeriph_Driver/src/stm32f4xx_tim.c ****   
 730:../STM32F4xx_StdPeriph_Driver/src/stm32f4xx_tim.c ****   /* Set the Capture Compare Register value */
 731:../STM32F4xx_StdPeriph_Driver/src/stm32f4xx_tim.c ****   TIMx->CCR1 = TIM_OCInitStruct->TIM_Pulse;
 1172              		.loc 1 731 0
 1173 0688 3B68     		ldr	r3, [r7, #0]
 1174 068a 9A68     		ldr	r2, [r3, #8]
 1175 068c 7B68     		ldr	r3, [r7, #4]
 1176 068e 5A63     		str	r2, [r3, #52]
 732:../STM32F4xx_StdPeriph_Driver/src/stm32f4xx_tim.c ****   
 733:../STM32F4xx_StdPeriph_Driver/src/stm32f4xx_tim.c ****   /* Write to TIMx CCER */
 734:../STM32F4xx_StdPeriph_Driver/src/stm32f4xx_tim.c ****   TIMx->CCER = tmpccer;
 1177              		.loc 1 734 0
 1178 0690 7B68     		ldr	r3, [r7, #4]
 1179 0692 FA89     		ldrh	r2, [r7, #14]	@ movhi
 1180 0694 1A84     		strh	r2, [r3, #32]	@ movhi
 735:../STM32F4xx_StdPeriph_Driver/src/stm32f4xx_tim.c **** }
 1181              		.loc 1 735 0
 1182 0696 07F11407 		add	r7, r7, #20
 1183 069a BD46     		mov	sp, r7
 1184 069c 80BC     		pop	{r7}
 1185 069e 7047     		bx	lr
 1186              		.cfi_endproc
 1187              	.LFE125:
 1189              		.align	2
 1190              		.global	TIM_OC2Init
 1191              		.thumb
 1192              		.thumb_func
 1194              	TIM_OC2Init:
 1195              	.LFB126:
 736:../STM32F4xx_StdPeriph_Driver/src/stm32f4xx_tim.c **** 
 737:../STM32F4xx_StdPeriph_Driver/src/stm32f4xx_tim.c **** /**
 738:../STM32F4xx_StdPeriph_Driver/src/stm32f4xx_tim.c ****   * @brief  Initializes the TIMx Channel2 according to the specified parameters 
 739:../STM32F4xx_StdPeriph_Driver/src/stm32f4xx_tim.c ****   *         in the TIM_OCInitStruct.
 740:../STM32F4xx_StdPeriph_Driver/src/stm32f4xx_tim.c ****   * @param  TIMx: where x can be 1, 2, 3, 4, 5, 8, 9 or 12 to select the TIM 
 741:../STM32F4xx_StdPeriph_Driver/src/stm32f4xx_tim.c ****   *         peripheral.
 742:../STM32F4xx_StdPeriph_Driver/src/stm32f4xx_tim.c ****   * @param  TIM_OCInitStruct: pointer to a TIM_OCInitTypeDef structure that contains
 743:../STM32F4xx_StdPeriph_Driver/src/stm32f4xx_tim.c ****   *         the configuration information for the specified TIM peripheral.
 744:../STM32F4xx_StdPeriph_Driver/src/stm32f4xx_tim.c ****   * @retval None
 745:../STM32F4xx_StdPeriph_Driver/src/stm32f4xx_tim.c ****   */
 746:../STM32F4xx_StdPeriph_Driver/src/stm32f4xx_tim.c **** void TIM_OC2Init(TIM_TypeDef* TIMx, TIM_OCInitTypeDef* TIM_OCInitStruct)
 747:../STM32F4xx_StdPeriph_Driver/src/stm32f4xx_tim.c **** {
 1196              		.loc 1 747 0
 1197              		.cfi_startproc
 1198              		@ args = 0, pretend = 0, frame = 16
 1199              		@ frame_needed = 1, uses_anonymous_args = 0
 1200              		@ link register save eliminated.
 1201 06a0 80B4     		push	{r7}
 1202              	.LCFI48:
 1203              		.cfi_def_cfa_offset 4
 1204              		.cfi_offset 7, -4
 1205 06a2 85B0     		sub	sp, sp, #20
 1206              	.LCFI49:
 1207              		.cfi_def_cfa_offset 24
 1208 06a4 00AF     		add	r7, sp, #0
 1209              	.LCFI50:
 1210              		.cfi_def_cfa_register 7
 1211 06a6 7860     		str	r0, [r7, #4]
 1212 06a8 3960     		str	r1, [r7, #0]
 748:../STM32F4xx_StdPeriph_Driver/src/stm32f4xx_tim.c ****   uint16_t tmpccmrx = 0, tmpccer = 0, tmpcr2 = 0;
 1213              		.loc 1 748 0
 1214 06aa 4FF00003 		mov	r3, #0
 1215 06ae 7B81     		strh	r3, [r7, #10]	@ movhi
 1216 06b0 4FF00003 		mov	r3, #0
 1217 06b4 FB81     		strh	r3, [r7, #14]	@ movhi
 1218 06b6 4FF00003 		mov	r3, #0
 1219 06ba BB81     		strh	r3, [r7, #12]	@ movhi
 749:../STM32F4xx_StdPeriph_Driver/src/stm32f4xx_tim.c ****    
 750:../STM32F4xx_StdPeriph_Driver/src/stm32f4xx_tim.c ****   /* Check the parameters */
 751:../STM32F4xx_StdPeriph_Driver/src/stm32f4xx_tim.c ****   assert_param(IS_TIM_LIST2_PERIPH(TIMx)); 
 752:../STM32F4xx_StdPeriph_Driver/src/stm32f4xx_tim.c ****   assert_param(IS_TIM_OC_MODE(TIM_OCInitStruct->TIM_OCMode));
 753:../STM32F4xx_StdPeriph_Driver/src/stm32f4xx_tim.c ****   assert_param(IS_TIM_OUTPUT_STATE(TIM_OCInitStruct->TIM_OutputState));
 754:../STM32F4xx_StdPeriph_Driver/src/stm32f4xx_tim.c ****   assert_param(IS_TIM_OC_POLARITY(TIM_OCInitStruct->TIM_OCPolarity));   
 755:../STM32F4xx_StdPeriph_Driver/src/stm32f4xx_tim.c **** 
 756:../STM32F4xx_StdPeriph_Driver/src/stm32f4xx_tim.c ****   /* Disable the Channel 2: Reset the CC2E Bit */
 757:../STM32F4xx_StdPeriph_Driver/src/stm32f4xx_tim.c ****   TIMx->CCER &= (uint16_t)~TIM_CCER_CC2E;
 1220              		.loc 1 757 0
 1221 06bc 7B68     		ldr	r3, [r7, #4]
 1222 06be 1B8C     		ldrh	r3, [r3, #32]	@ movhi
 1223 06c0 9BB2     		uxth	r3, r3
 1224 06c2 23F01003 		bic	r3, r3, #16
 1225 06c6 9AB2     		uxth	r2, r3
 1226 06c8 7B68     		ldr	r3, [r7, #4]
 1227 06ca 1A84     		strh	r2, [r3, #32]	@ movhi
 758:../STM32F4xx_StdPeriph_Driver/src/stm32f4xx_tim.c ****   
 759:../STM32F4xx_StdPeriph_Driver/src/stm32f4xx_tim.c ****   /* Get the TIMx CCER register value */  
 760:../STM32F4xx_StdPeriph_Driver/src/stm32f4xx_tim.c ****   tmpccer = TIMx->CCER;
 1228              		.loc 1 760 0
 1229 06cc 7B68     		ldr	r3, [r7, #4]
 1230 06ce 1B8C     		ldrh	r3, [r3, #32]	@ movhi
 1231 06d0 FB81     		strh	r3, [r7, #14]	@ movhi
 761:../STM32F4xx_StdPeriph_Driver/src/stm32f4xx_tim.c ****   /* Get the TIMx CR2 register value */
 762:../STM32F4xx_StdPeriph_Driver/src/stm32f4xx_tim.c ****   tmpcr2 =  TIMx->CR2;
 1232              		.loc 1 762 0
 1233 06d2 7B68     		ldr	r3, [r7, #4]
 1234 06d4 9B88     		ldrh	r3, [r3, #4]	@ movhi
 1235 06d6 BB81     		strh	r3, [r7, #12]	@ movhi
 763:../STM32F4xx_StdPeriph_Driver/src/stm32f4xx_tim.c ****   
 764:../STM32F4xx_StdPeriph_Driver/src/stm32f4xx_tim.c ****   /* Get the TIMx CCMR1 register value */
 765:../STM32F4xx_StdPeriph_Driver/src/stm32f4xx_tim.c ****   tmpccmrx = TIMx->CCMR1;
 1236              		.loc 1 765 0
 1237 06d8 7B68     		ldr	r3, [r7, #4]
 1238 06da 1B8B     		ldrh	r3, [r3, #24]	@ movhi
 1239 06dc 7B81     		strh	r3, [r7, #10]	@ movhi
 766:../STM32F4xx_StdPeriph_Driver/src/stm32f4xx_tim.c ****     
 767:../STM32F4xx_StdPeriph_Driver/src/stm32f4xx_tim.c ****   /* Reset the Output Compare mode and Capture/Compare selection Bits */
 768:../STM32F4xx_StdPeriph_Driver/src/stm32f4xx_tim.c ****   tmpccmrx &= (uint16_t)~TIM_CCMR1_OC2M;
 1240              		.loc 1 768 0
 1241 06de 7B89     		ldrh	r3, [r7, #10]	@ movhi
 1242 06e0 23F4E043 		bic	r3, r3, #28672
 1243 06e4 7B81     		strh	r3, [r7, #10]	@ movhi
 769:../STM32F4xx_StdPeriph_Driver/src/stm32f4xx_tim.c ****   tmpccmrx &= (uint16_t)~TIM_CCMR1_CC2S;
 1244              		.loc 1 769 0
 1245 06e6 7B89     		ldrh	r3, [r7, #10]	@ movhi
 1246 06e8 23F44073 		bic	r3, r3, #768
 1247 06ec 7B81     		strh	r3, [r7, #10]	@ movhi
 770:../STM32F4xx_StdPeriph_Driver/src/stm32f4xx_tim.c ****   
 771:../STM32F4xx_StdPeriph_Driver/src/stm32f4xx_tim.c ****   /* Select the Output Compare Mode */
 772:../STM32F4xx_StdPeriph_Driver/src/stm32f4xx_tim.c ****   tmpccmrx |= (uint16_t)(TIM_OCInitStruct->TIM_OCMode << 8);
 1248              		.loc 1 772 0
 1249 06ee 3B68     		ldr	r3, [r7, #0]
 1250 06f0 1B88     		ldrh	r3, [r3, #0]
 1251 06f2 4FEA0323 		lsl	r3, r3, #8
 1252 06f6 9AB2     		uxth	r2, r3
 1253 06f8 7B89     		ldrh	r3, [r7, #10]	@ movhi
 1254 06fa 1343     		orrs	r3, r3, r2
 1255 06fc 7B81     		strh	r3, [r7, #10]	@ movhi
 773:../STM32F4xx_StdPeriph_Driver/src/stm32f4xx_tim.c ****   
 774:../STM32F4xx_StdPeriph_Driver/src/stm32f4xx_tim.c ****   /* Reset the Output Polarity level */
 775:../STM32F4xx_StdPeriph_Driver/src/stm32f4xx_tim.c ****   tmpccer &= (uint16_t)~TIM_CCER_CC2P;
 1256              		.loc 1 775 0
 1257 06fe FB89     		ldrh	r3, [r7, #14]	@ movhi
 1258 0700 23F02003 		bic	r3, r3, #32
 1259 0704 FB81     		strh	r3, [r7, #14]	@ movhi
 776:../STM32F4xx_StdPeriph_Driver/src/stm32f4xx_tim.c ****   /* Set the Output Compare Polarity */
 777:../STM32F4xx_StdPeriph_Driver/src/stm32f4xx_tim.c ****   tmpccer |= (uint16_t)(TIM_OCInitStruct->TIM_OCPolarity << 4);
 1260              		.loc 1 777 0
 1261 0706 3B68     		ldr	r3, [r7, #0]
 1262 0708 9B89     		ldrh	r3, [r3, #12]
 1263 070a 4FEA0313 		lsl	r3, r3, #4
 1264 070e 9AB2     		uxth	r2, r3
 1265 0710 FB89     		ldrh	r3, [r7, #14]	@ movhi
 1266 0712 1343     		orrs	r3, r3, r2
 1267 0714 FB81     		strh	r3, [r7, #14]	@ movhi
 778:../STM32F4xx_StdPeriph_Driver/src/stm32f4xx_tim.c ****   
 779:../STM32F4xx_StdPeriph_Driver/src/stm32f4xx_tim.c ****   /* Set the Output State */
 780:../STM32F4xx_StdPeriph_Driver/src/stm32f4xx_tim.c ****   tmpccer |= (uint16_t)(TIM_OCInitStruct->TIM_OutputState << 4);
 1268              		.loc 1 780 0
 1269 0716 3B68     		ldr	r3, [r7, #0]
 1270 0718 5B88     		ldrh	r3, [r3, #2]
 1271 071a 4FEA0313 		lsl	r3, r3, #4
 1272 071e 9AB2     		uxth	r2, r3
 1273 0720 FB89     		ldrh	r3, [r7, #14]	@ movhi
 1274 0722 1343     		orrs	r3, r3, r2
 1275 0724 FB81     		strh	r3, [r7, #14]	@ movhi
 781:../STM32F4xx_StdPeriph_Driver/src/stm32f4xx_tim.c ****     
 782:../STM32F4xx_StdPeriph_Driver/src/stm32f4xx_tim.c ****   if((TIMx == TIM1) || (TIMx == TIM8))
 1276              		.loc 1 782 0
 1277 0726 7A68     		ldr	r2, [r7, #4]
 1278 0728 4FF00003 		mov	r3, #0
 1279 072c C4F20103 		movt	r3, 16385
 1280 0730 9A42     		cmp	r2, r3
 1281 0732 06D0     		beq	.L47
 1282              		.loc 1 782 0 is_stmt 0 discriminator 1
 1283 0734 7A68     		ldr	r2, [r7, #4]
 1284 0736 4FF48063 		mov	r3, #1024
 1285 073a C4F20103 		movt	r3, 16385
 1286 073e 9A42     		cmp	r2, r3
 1287 0740 2FD1     		bne	.L48
 1288              	.L47:
 783:../STM32F4xx_StdPeriph_Driver/src/stm32f4xx_tim.c ****   {
 784:../STM32F4xx_StdPeriph_Driver/src/stm32f4xx_tim.c ****     assert_param(IS_TIM_OUTPUTN_STATE(TIM_OCInitStruct->TIM_OutputNState));
 785:../STM32F4xx_StdPeriph_Driver/src/stm32f4xx_tim.c ****     assert_param(IS_TIM_OCN_POLARITY(TIM_OCInitStruct->TIM_OCNPolarity));
 786:../STM32F4xx_StdPeriph_Driver/src/stm32f4xx_tim.c ****     assert_param(IS_TIM_OCNIDLE_STATE(TIM_OCInitStruct->TIM_OCNIdleState));
 787:../STM32F4xx_StdPeriph_Driver/src/stm32f4xx_tim.c ****     assert_param(IS_TIM_OCIDLE_STATE(TIM_OCInitStruct->TIM_OCIdleState));
 788:../STM32F4xx_StdPeriph_Driver/src/stm32f4xx_tim.c ****     
 789:../STM32F4xx_StdPeriph_Driver/src/stm32f4xx_tim.c ****     /* Reset the Output N Polarity level */
 790:../STM32F4xx_StdPeriph_Driver/src/stm32f4xx_tim.c ****     tmpccer &= (uint16_t)~TIM_CCER_CC2NP;
 1289              		.loc 1 790 0 is_stmt 1
 1290 0742 FB89     		ldrh	r3, [r7, #14]	@ movhi
 1291 0744 23F08003 		bic	r3, r3, #128
 1292 0748 FB81     		strh	r3, [r7, #14]	@ movhi
 791:../STM32F4xx_StdPeriph_Driver/src/stm32f4xx_tim.c ****     /* Set the Output N Polarity */
 792:../STM32F4xx_StdPeriph_Driver/src/stm32f4xx_tim.c ****     tmpccer |= (uint16_t)(TIM_OCInitStruct->TIM_OCNPolarity << 4);
 1293              		.loc 1 792 0
 1294 074a 3B68     		ldr	r3, [r7, #0]
 1295 074c DB89     		ldrh	r3, [r3, #14]
 1296 074e 4FEA0313 		lsl	r3, r3, #4
 1297 0752 9AB2     		uxth	r2, r3
 1298 0754 FB89     		ldrh	r3, [r7, #14]	@ movhi
 1299 0756 1343     		orrs	r3, r3, r2
 1300 0758 FB81     		strh	r3, [r7, #14]	@ movhi
 793:../STM32F4xx_StdPeriph_Driver/src/stm32f4xx_tim.c ****     /* Reset the Output N State */
 794:../STM32F4xx_StdPeriph_Driver/src/stm32f4xx_tim.c ****     tmpccer &= (uint16_t)~TIM_CCER_CC2NE;
 1301              		.loc 1 794 0
 1302 075a FB89     		ldrh	r3, [r7, #14]	@ movhi
 1303 075c 23F04003 		bic	r3, r3, #64
 1304 0760 FB81     		strh	r3, [r7, #14]	@ movhi
 795:../STM32F4xx_StdPeriph_Driver/src/stm32f4xx_tim.c ****     
 796:../STM32F4xx_StdPeriph_Driver/src/stm32f4xx_tim.c ****     /* Set the Output N State */
 797:../STM32F4xx_StdPeriph_Driver/src/stm32f4xx_tim.c ****     tmpccer |= (uint16_t)(TIM_OCInitStruct->TIM_OutputNState << 4);
 1305              		.loc 1 797 0
 1306 0762 3B68     		ldr	r3, [r7, #0]
 1307 0764 9B88     		ldrh	r3, [r3, #4]
 1308 0766 4FEA0313 		lsl	r3, r3, #4
 1309 076a 9AB2     		uxth	r2, r3
 1310 076c FB89     		ldrh	r3, [r7, #14]	@ movhi
 1311 076e 1343     		orrs	r3, r3, r2
 1312 0770 FB81     		strh	r3, [r7, #14]	@ movhi
 798:../STM32F4xx_StdPeriph_Driver/src/stm32f4xx_tim.c ****     /* Reset the Output Compare and Output Compare N IDLE State */
 799:../STM32F4xx_StdPeriph_Driver/src/stm32f4xx_tim.c ****     tmpcr2 &= (uint16_t)~TIM_CR2_OIS2;
 1313              		.loc 1 799 0
 1314 0772 BB89     		ldrh	r3, [r7, #12]	@ movhi
 1315 0774 23F48063 		bic	r3, r3, #1024
 1316 0778 BB81     		strh	r3, [r7, #12]	@ movhi
 800:../STM32F4xx_StdPeriph_Driver/src/stm32f4xx_tim.c ****     tmpcr2 &= (uint16_t)~TIM_CR2_OIS2N;
 1317              		.loc 1 800 0
 1318 077a BB89     		ldrh	r3, [r7, #12]	@ movhi
 1319 077c 23F40063 		bic	r3, r3, #2048
 1320 0780 BB81     		strh	r3, [r7, #12]	@ movhi
 801:../STM32F4xx_StdPeriph_Driver/src/stm32f4xx_tim.c ****     /* Set the Output Idle state */
 802:../STM32F4xx_StdPeriph_Driver/src/stm32f4xx_tim.c ****     tmpcr2 |= (uint16_t)(TIM_OCInitStruct->TIM_OCIdleState << 2);
 1321              		.loc 1 802 0
 1322 0782 3B68     		ldr	r3, [r7, #0]
 1323 0784 1B8A     		ldrh	r3, [r3, #16]
 1324 0786 4FEA8303 		lsl	r3, r3, #2
 1325 078a 9AB2     		uxth	r2, r3
 1326 078c BB89     		ldrh	r3, [r7, #12]	@ movhi
 1327 078e 1343     		orrs	r3, r3, r2
 1328 0790 BB81     		strh	r3, [r7, #12]	@ movhi
 803:../STM32F4xx_StdPeriph_Driver/src/stm32f4xx_tim.c ****     /* Set the Output N Idle state */
 804:../STM32F4xx_StdPeriph_Driver/src/stm32f4xx_tim.c ****     tmpcr2 |= (uint16_t)(TIM_OCInitStruct->TIM_OCNIdleState << 2);
 1329              		.loc 1 804 0
 1330 0792 3B68     		ldr	r3, [r7, #0]
 1331 0794 5B8A     		ldrh	r3, [r3, #18]
 1332 0796 4FEA8303 		lsl	r3, r3, #2
 1333 079a 9AB2     		uxth	r2, r3
 1334 079c BB89     		ldrh	r3, [r7, #12]	@ movhi
 1335 079e 1343     		orrs	r3, r3, r2
 1336 07a0 BB81     		strh	r3, [r7, #12]	@ movhi
 1337              	.L48:
 805:../STM32F4xx_StdPeriph_Driver/src/stm32f4xx_tim.c ****   }
 806:../STM32F4xx_StdPeriph_Driver/src/stm32f4xx_tim.c ****   /* Write to TIMx CR2 */
 807:../STM32F4xx_StdPeriph_Driver/src/stm32f4xx_tim.c ****   TIMx->CR2 = tmpcr2;
 1338              		.loc 1 807 0
 1339 07a2 7B68     		ldr	r3, [r7, #4]
 1340 07a4 BA89     		ldrh	r2, [r7, #12]	@ movhi
 1341 07a6 9A80     		strh	r2, [r3, #4]	@ movhi
 808:../STM32F4xx_StdPeriph_Driver/src/stm32f4xx_tim.c ****   
 809:../STM32F4xx_StdPeriph_Driver/src/stm32f4xx_tim.c ****   /* Write to TIMx CCMR1 */
 810:../STM32F4xx_StdPeriph_Driver/src/stm32f4xx_tim.c ****   TIMx->CCMR1 = tmpccmrx;
 1342              		.loc 1 810 0
 1343 07a8 7B68     		ldr	r3, [r7, #4]
 1344 07aa 7A89     		ldrh	r2, [r7, #10]	@ movhi
 1345 07ac 1A83     		strh	r2, [r3, #24]	@ movhi
 811:../STM32F4xx_StdPeriph_Driver/src/stm32f4xx_tim.c ****   
 812:../STM32F4xx_StdPeriph_Driver/src/stm32f4xx_tim.c ****   /* Set the Capture Compare Register value */
 813:../STM32F4xx_StdPeriph_Driver/src/stm32f4xx_tim.c ****   TIMx->CCR2 = TIM_OCInitStruct->TIM_Pulse;
 1346              		.loc 1 813 0
 1347 07ae 3B68     		ldr	r3, [r7, #0]
 1348 07b0 9A68     		ldr	r2, [r3, #8]
 1349 07b2 7B68     		ldr	r3, [r7, #4]
 1350 07b4 9A63     		str	r2, [r3, #56]
 814:../STM32F4xx_StdPeriph_Driver/src/stm32f4xx_tim.c ****   
 815:../STM32F4xx_StdPeriph_Driver/src/stm32f4xx_tim.c ****   /* Write to TIMx CCER */
 816:../STM32F4xx_StdPeriph_Driver/src/stm32f4xx_tim.c ****   TIMx->CCER = tmpccer;
 1351              		.loc 1 816 0
 1352 07b6 7B68     		ldr	r3, [r7, #4]
 1353 07b8 FA89     		ldrh	r2, [r7, #14]	@ movhi
 1354 07ba 1A84     		strh	r2, [r3, #32]	@ movhi
 817:../STM32F4xx_StdPeriph_Driver/src/stm32f4xx_tim.c **** }
 1355              		.loc 1 817 0
 1356 07bc 07F11407 		add	r7, r7, #20
 1357 07c0 BD46     		mov	sp, r7
 1358 07c2 80BC     		pop	{r7}
 1359 07c4 7047     		bx	lr
 1360              		.cfi_endproc
 1361              	.LFE126:
 1363 07c6 00BF     		.align	2
 1364              		.global	TIM_OC3Init
 1365              		.thumb
 1366              		.thumb_func
 1368              	TIM_OC3Init:
 1369              	.LFB127:
 818:../STM32F4xx_StdPeriph_Driver/src/stm32f4xx_tim.c **** 
 819:../STM32F4xx_StdPeriph_Driver/src/stm32f4xx_tim.c **** /**
 820:../STM32F4xx_StdPeriph_Driver/src/stm32f4xx_tim.c ****   * @brief  Initializes the TIMx Channel3 according to the specified parameters
 821:../STM32F4xx_StdPeriph_Driver/src/stm32f4xx_tim.c ****   *         in the TIM_OCInitStruct.
 822:../STM32F4xx_StdPeriph_Driver/src/stm32f4xx_tim.c ****   * @param  TIMx: where x can be 1, 2, 3, 4, 5 or 8 to select the TIM peripheral.
 823:../STM32F4xx_StdPeriph_Driver/src/stm32f4xx_tim.c ****   * @param  TIM_OCInitStruct: pointer to a TIM_OCInitTypeDef structure that contains
 824:../STM32F4xx_StdPeriph_Driver/src/stm32f4xx_tim.c ****   *         the configuration information for the specified TIM peripheral.
 825:../STM32F4xx_StdPeriph_Driver/src/stm32f4xx_tim.c ****   * @retval None
 826:../STM32F4xx_StdPeriph_Driver/src/stm32f4xx_tim.c ****   */
 827:../STM32F4xx_StdPeriph_Driver/src/stm32f4xx_tim.c **** void TIM_OC3Init(TIM_TypeDef* TIMx, TIM_OCInitTypeDef* TIM_OCInitStruct)
 828:../STM32F4xx_StdPeriph_Driver/src/stm32f4xx_tim.c **** {
 1370              		.loc 1 828 0
 1371              		.cfi_startproc
 1372              		@ args = 0, pretend = 0, frame = 16
 1373              		@ frame_needed = 1, uses_anonymous_args = 0
 1374              		@ link register save eliminated.
 1375 07c8 80B4     		push	{r7}
 1376              	.LCFI51:
 1377              		.cfi_def_cfa_offset 4
 1378              		.cfi_offset 7, -4
 1379 07ca 85B0     		sub	sp, sp, #20
 1380              	.LCFI52:
 1381              		.cfi_def_cfa_offset 24
 1382 07cc 00AF     		add	r7, sp, #0
 1383              	.LCFI53:
 1384              		.cfi_def_cfa_register 7
 1385 07ce 7860     		str	r0, [r7, #4]
 1386 07d0 3960     		str	r1, [r7, #0]
 829:../STM32F4xx_StdPeriph_Driver/src/stm32f4xx_tim.c ****   uint16_t tmpccmrx = 0, tmpccer = 0, tmpcr2 = 0;
 1387              		.loc 1 829 0
 1388 07d2 4FF00003 		mov	r3, #0
 1389 07d6 7B81     		strh	r3, [r7, #10]	@ movhi
 1390 07d8 4FF00003 		mov	r3, #0
 1391 07dc FB81     		strh	r3, [r7, #14]	@ movhi
 1392 07de 4FF00003 		mov	r3, #0
 1393 07e2 BB81     		strh	r3, [r7, #12]	@ movhi
 830:../STM32F4xx_StdPeriph_Driver/src/stm32f4xx_tim.c ****    
 831:../STM32F4xx_StdPeriph_Driver/src/stm32f4xx_tim.c ****   /* Check the parameters */
 832:../STM32F4xx_StdPeriph_Driver/src/stm32f4xx_tim.c ****   assert_param(IS_TIM_LIST3_PERIPH(TIMx)); 
 833:../STM32F4xx_StdPeriph_Driver/src/stm32f4xx_tim.c ****   assert_param(IS_TIM_OC_MODE(TIM_OCInitStruct->TIM_OCMode));
 834:../STM32F4xx_StdPeriph_Driver/src/stm32f4xx_tim.c ****   assert_param(IS_TIM_OUTPUT_STATE(TIM_OCInitStruct->TIM_OutputState));
 835:../STM32F4xx_StdPeriph_Driver/src/stm32f4xx_tim.c ****   assert_param(IS_TIM_OC_POLARITY(TIM_OCInitStruct->TIM_OCPolarity));   
 836:../STM32F4xx_StdPeriph_Driver/src/stm32f4xx_tim.c **** 
 837:../STM32F4xx_StdPeriph_Driver/src/stm32f4xx_tim.c ****   /* Disable the Channel 3: Reset the CC2E Bit */
 838:../STM32F4xx_StdPeriph_Driver/src/stm32f4xx_tim.c ****   TIMx->CCER &= (uint16_t)~TIM_CCER_CC3E;
 1394              		.loc 1 838 0
 1395 07e4 7B68     		ldr	r3, [r7, #4]
 1396 07e6 1B8C     		ldrh	r3, [r3, #32]	@ movhi
 1397 07e8 9BB2     		uxth	r3, r3
 1398 07ea 23F48073 		bic	r3, r3, #256
 1399 07ee 9AB2     		uxth	r2, r3
 1400 07f0 7B68     		ldr	r3, [r7, #4]
 1401 07f2 1A84     		strh	r2, [r3, #32]	@ movhi
 839:../STM32F4xx_StdPeriph_Driver/src/stm32f4xx_tim.c ****   
 840:../STM32F4xx_StdPeriph_Driver/src/stm32f4xx_tim.c ****   /* Get the TIMx CCER register value */
 841:../STM32F4xx_StdPeriph_Driver/src/stm32f4xx_tim.c ****   tmpccer = TIMx->CCER;
 1402              		.loc 1 841 0
 1403 07f4 7B68     		ldr	r3, [r7, #4]
 1404 07f6 1B8C     		ldrh	r3, [r3, #32]	@ movhi
 1405 07f8 FB81     		strh	r3, [r7, #14]	@ movhi
 842:../STM32F4xx_StdPeriph_Driver/src/stm32f4xx_tim.c ****   /* Get the TIMx CR2 register value */
 843:../STM32F4xx_StdPeriph_Driver/src/stm32f4xx_tim.c ****   tmpcr2 =  TIMx->CR2;
 1406              		.loc 1 843 0
 1407 07fa 7B68     		ldr	r3, [r7, #4]
 1408 07fc 9B88     		ldrh	r3, [r3, #4]	@ movhi
 1409 07fe BB81     		strh	r3, [r7, #12]	@ movhi
 844:../STM32F4xx_StdPeriph_Driver/src/stm32f4xx_tim.c ****   
 845:../STM32F4xx_StdPeriph_Driver/src/stm32f4xx_tim.c ****   /* Get the TIMx CCMR2 register value */
 846:../STM32F4xx_StdPeriph_Driver/src/stm32f4xx_tim.c ****   tmpccmrx = TIMx->CCMR2;
 1410              		.loc 1 846 0
 1411 0800 7B68     		ldr	r3, [r7, #4]
 1412 0802 9B8B     		ldrh	r3, [r3, #28]	@ movhi
 1413 0804 7B81     		strh	r3, [r7, #10]	@ movhi
 847:../STM32F4xx_StdPeriph_Driver/src/stm32f4xx_tim.c ****     
 848:../STM32F4xx_StdPeriph_Driver/src/stm32f4xx_tim.c ****   /* Reset the Output Compare mode and Capture/Compare selection Bits */
 849:../STM32F4xx_StdPeriph_Driver/src/stm32f4xx_tim.c ****   tmpccmrx &= (uint16_t)~TIM_CCMR2_OC3M;
 1414              		.loc 1 849 0
 1415 0806 7B89     		ldrh	r3, [r7, #10]	@ movhi
 1416 0808 23F07003 		bic	r3, r3, #112
 1417 080c 7B81     		strh	r3, [r7, #10]	@ movhi
 850:../STM32F4xx_StdPeriph_Driver/src/stm32f4xx_tim.c ****   tmpccmrx &= (uint16_t)~TIM_CCMR2_CC3S;  
 1418              		.loc 1 850 0
 1419 080e 7B89     		ldrh	r3, [r7, #10]	@ movhi
 1420 0810 23F00303 		bic	r3, r3, #3
 1421 0814 7B81     		strh	r3, [r7, #10]	@ movhi
 851:../STM32F4xx_StdPeriph_Driver/src/stm32f4xx_tim.c ****   /* Select the Output Compare Mode */
 852:../STM32F4xx_StdPeriph_Driver/src/stm32f4xx_tim.c ****   tmpccmrx |= TIM_OCInitStruct->TIM_OCMode;
 1422              		.loc 1 852 0
 1423 0816 3B68     		ldr	r3, [r7, #0]
 1424 0818 1A88     		ldrh	r2, [r3, #0]
 1425 081a 7B89     		ldrh	r3, [r7, #10]	@ movhi
 1426 081c 1343     		orrs	r3, r3, r2
 1427 081e 7B81     		strh	r3, [r7, #10]	@ movhi
 853:../STM32F4xx_StdPeriph_Driver/src/stm32f4xx_tim.c ****   
 854:../STM32F4xx_StdPeriph_Driver/src/stm32f4xx_tim.c ****   /* Reset the Output Polarity level */
 855:../STM32F4xx_StdPeriph_Driver/src/stm32f4xx_tim.c ****   tmpccer &= (uint16_t)~TIM_CCER_CC3P;
 1428              		.loc 1 855 0
 1429 0820 FB89     		ldrh	r3, [r7, #14]	@ movhi
 1430 0822 23F40073 		bic	r3, r3, #512
 1431 0826 FB81     		strh	r3, [r7, #14]	@ movhi
 856:../STM32F4xx_StdPeriph_Driver/src/stm32f4xx_tim.c ****   /* Set the Output Compare Polarity */
 857:../STM32F4xx_StdPeriph_Driver/src/stm32f4xx_tim.c ****   tmpccer |= (uint16_t)(TIM_OCInitStruct->TIM_OCPolarity << 8);
 1432              		.loc 1 857 0
 1433 0828 3B68     		ldr	r3, [r7, #0]
 1434 082a 9B89     		ldrh	r3, [r3, #12]
 1435 082c 4FEA0323 		lsl	r3, r3, #8
 1436 0830 9AB2     		uxth	r2, r3
 1437 0832 FB89     		ldrh	r3, [r7, #14]	@ movhi
 1438 0834 1343     		orrs	r3, r3, r2
 1439 0836 FB81     		strh	r3, [r7, #14]	@ movhi
 858:../STM32F4xx_StdPeriph_Driver/src/stm32f4xx_tim.c ****   
 859:../STM32F4xx_StdPeriph_Driver/src/stm32f4xx_tim.c ****   /* Set the Output State */
 860:../STM32F4xx_StdPeriph_Driver/src/stm32f4xx_tim.c ****   tmpccer |= (uint16_t)(TIM_OCInitStruct->TIM_OutputState << 8);
 1440              		.loc 1 860 0
 1441 0838 3B68     		ldr	r3, [r7, #0]
 1442 083a 5B88     		ldrh	r3, [r3, #2]
 1443 083c 4FEA0323 		lsl	r3, r3, #8
 1444 0840 9AB2     		uxth	r2, r3
 1445 0842 FB89     		ldrh	r3, [r7, #14]	@ movhi
 1446 0844 1343     		orrs	r3, r3, r2
 1447 0846 FB81     		strh	r3, [r7, #14]	@ movhi
 861:../STM32F4xx_StdPeriph_Driver/src/stm32f4xx_tim.c ****     
 862:../STM32F4xx_StdPeriph_Driver/src/stm32f4xx_tim.c ****   if((TIMx == TIM1) || (TIMx == TIM8))
 1448              		.loc 1 862 0
 1449 0848 7A68     		ldr	r2, [r7, #4]
 1450 084a 4FF00003 		mov	r3, #0
 1451 084e C4F20103 		movt	r3, 16385
 1452 0852 9A42     		cmp	r2, r3
 1453 0854 06D0     		beq	.L50
 1454              		.loc 1 862 0 is_stmt 0 discriminator 1
 1455 0856 7A68     		ldr	r2, [r7, #4]
 1456 0858 4FF48063 		mov	r3, #1024
 1457 085c C4F20103 		movt	r3, 16385
 1458 0860 9A42     		cmp	r2, r3
 1459 0862 2FD1     		bne	.L51
 1460              	.L50:
 863:../STM32F4xx_StdPeriph_Driver/src/stm32f4xx_tim.c ****   {
 864:../STM32F4xx_StdPeriph_Driver/src/stm32f4xx_tim.c ****     assert_param(IS_TIM_OUTPUTN_STATE(TIM_OCInitStruct->TIM_OutputNState));
 865:../STM32F4xx_StdPeriph_Driver/src/stm32f4xx_tim.c ****     assert_param(IS_TIM_OCN_POLARITY(TIM_OCInitStruct->TIM_OCNPolarity));
 866:../STM32F4xx_StdPeriph_Driver/src/stm32f4xx_tim.c ****     assert_param(IS_TIM_OCNIDLE_STATE(TIM_OCInitStruct->TIM_OCNIdleState));
 867:../STM32F4xx_StdPeriph_Driver/src/stm32f4xx_tim.c ****     assert_param(IS_TIM_OCIDLE_STATE(TIM_OCInitStruct->TIM_OCIdleState));
 868:../STM32F4xx_StdPeriph_Driver/src/stm32f4xx_tim.c ****     
 869:../STM32F4xx_StdPeriph_Driver/src/stm32f4xx_tim.c ****     /* Reset the Output N Polarity level */
 870:../STM32F4xx_StdPeriph_Driver/src/stm32f4xx_tim.c ****     tmpccer &= (uint16_t)~TIM_CCER_CC3NP;
 1461              		.loc 1 870 0 is_stmt 1
 1462 0864 FB89     		ldrh	r3, [r7, #14]	@ movhi
 1463 0866 23F40063 		bic	r3, r3, #2048
 1464 086a FB81     		strh	r3, [r7, #14]	@ movhi
 871:../STM32F4xx_StdPeriph_Driver/src/stm32f4xx_tim.c ****     /* Set the Output N Polarity */
 872:../STM32F4xx_StdPeriph_Driver/src/stm32f4xx_tim.c ****     tmpccer |= (uint16_t)(TIM_OCInitStruct->TIM_OCNPolarity << 8);
 1465              		.loc 1 872 0
 1466 086c 3B68     		ldr	r3, [r7, #0]
 1467 086e DB89     		ldrh	r3, [r3, #14]
 1468 0870 4FEA0323 		lsl	r3, r3, #8
 1469 0874 9AB2     		uxth	r2, r3
 1470 0876 FB89     		ldrh	r3, [r7, #14]	@ movhi
 1471 0878 1343     		orrs	r3, r3, r2
 1472 087a FB81     		strh	r3, [r7, #14]	@ movhi
 873:../STM32F4xx_StdPeriph_Driver/src/stm32f4xx_tim.c ****     /* Reset the Output N State */
 874:../STM32F4xx_StdPeriph_Driver/src/stm32f4xx_tim.c ****     tmpccer &= (uint16_t)~TIM_CCER_CC3NE;
 1473              		.loc 1 874 0
 1474 087c FB89     		ldrh	r3, [r7, #14]	@ movhi
 1475 087e 23F48063 		bic	r3, r3, #1024
 1476 0882 FB81     		strh	r3, [r7, #14]	@ movhi
 875:../STM32F4xx_StdPeriph_Driver/src/stm32f4xx_tim.c ****     
 876:../STM32F4xx_StdPeriph_Driver/src/stm32f4xx_tim.c ****     /* Set the Output N State */
 877:../STM32F4xx_StdPeriph_Driver/src/stm32f4xx_tim.c ****     tmpccer |= (uint16_t)(TIM_OCInitStruct->TIM_OutputNState << 8);
 1477              		.loc 1 877 0
 1478 0884 3B68     		ldr	r3, [r7, #0]
 1479 0886 9B88     		ldrh	r3, [r3, #4]
 1480 0888 4FEA0323 		lsl	r3, r3, #8
 1481 088c 9AB2     		uxth	r2, r3
 1482 088e FB89     		ldrh	r3, [r7, #14]	@ movhi
 1483 0890 1343     		orrs	r3, r3, r2
 1484 0892 FB81     		strh	r3, [r7, #14]	@ movhi
 878:../STM32F4xx_StdPeriph_Driver/src/stm32f4xx_tim.c ****     /* Reset the Output Compare and Output Compare N IDLE State */
 879:../STM32F4xx_StdPeriph_Driver/src/stm32f4xx_tim.c ****     tmpcr2 &= (uint16_t)~TIM_CR2_OIS3;
 1485              		.loc 1 879 0
 1486 0894 BB89     		ldrh	r3, [r7, #12]	@ movhi
 1487 0896 23F48053 		bic	r3, r3, #4096
 1488 089a BB81     		strh	r3, [r7, #12]	@ movhi
 880:../STM32F4xx_StdPeriph_Driver/src/stm32f4xx_tim.c ****     tmpcr2 &= (uint16_t)~TIM_CR2_OIS3N;
 1489              		.loc 1 880 0
 1490 089c BB89     		ldrh	r3, [r7, #12]	@ movhi
 1491 089e 23F40053 		bic	r3, r3, #8192
 1492 08a2 BB81     		strh	r3, [r7, #12]	@ movhi
 881:../STM32F4xx_StdPeriph_Driver/src/stm32f4xx_tim.c ****     /* Set the Output Idle state */
 882:../STM32F4xx_StdPeriph_Driver/src/stm32f4xx_tim.c ****     tmpcr2 |= (uint16_t)(TIM_OCInitStruct->TIM_OCIdleState << 4);
 1493              		.loc 1 882 0
 1494 08a4 3B68     		ldr	r3, [r7, #0]
 1495 08a6 1B8A     		ldrh	r3, [r3, #16]
 1496 08a8 4FEA0313 		lsl	r3, r3, #4
 1497 08ac 9AB2     		uxth	r2, r3
 1498 08ae BB89     		ldrh	r3, [r7, #12]	@ movhi
 1499 08b0 1343     		orrs	r3, r3, r2
 1500 08b2 BB81     		strh	r3, [r7, #12]	@ movhi
 883:../STM32F4xx_StdPeriph_Driver/src/stm32f4xx_tim.c ****     /* Set the Output N Idle state */
 884:../STM32F4xx_StdPeriph_Driver/src/stm32f4xx_tim.c ****     tmpcr2 |= (uint16_t)(TIM_OCInitStruct->TIM_OCNIdleState << 4);
 1501              		.loc 1 884 0
 1502 08b4 3B68     		ldr	r3, [r7, #0]
 1503 08b6 5B8A     		ldrh	r3, [r3, #18]
 1504 08b8 4FEA0313 		lsl	r3, r3, #4
 1505 08bc 9AB2     		uxth	r2, r3
 1506 08be BB89     		ldrh	r3, [r7, #12]	@ movhi
 1507 08c0 1343     		orrs	r3, r3, r2
 1508 08c2 BB81     		strh	r3, [r7, #12]	@ movhi
 1509              	.L51:
 885:../STM32F4xx_StdPeriph_Driver/src/stm32f4xx_tim.c ****   }
 886:../STM32F4xx_StdPeriph_Driver/src/stm32f4xx_tim.c ****   /* Write to TIMx CR2 */
 887:../STM32F4xx_StdPeriph_Driver/src/stm32f4xx_tim.c ****   TIMx->CR2 = tmpcr2;
 1510              		.loc 1 887 0
 1511 08c4 7B68     		ldr	r3, [r7, #4]
 1512 08c6 BA89     		ldrh	r2, [r7, #12]	@ movhi
 1513 08c8 9A80     		strh	r2, [r3, #4]	@ movhi
 888:../STM32F4xx_StdPeriph_Driver/src/stm32f4xx_tim.c ****   
 889:../STM32F4xx_StdPeriph_Driver/src/stm32f4xx_tim.c ****   /* Write to TIMx CCMR2 */
 890:../STM32F4xx_StdPeriph_Driver/src/stm32f4xx_tim.c ****   TIMx->CCMR2 = tmpccmrx;
 1514              		.loc 1 890 0
 1515 08ca 7B68     		ldr	r3, [r7, #4]
 1516 08cc 7A89     		ldrh	r2, [r7, #10]	@ movhi
 1517 08ce 9A83     		strh	r2, [r3, #28]	@ movhi
 891:../STM32F4xx_StdPeriph_Driver/src/stm32f4xx_tim.c ****   
 892:../STM32F4xx_StdPeriph_Driver/src/stm32f4xx_tim.c ****   /* Set the Capture Compare Register value */
 893:../STM32F4xx_StdPeriph_Driver/src/stm32f4xx_tim.c ****   TIMx->CCR3 = TIM_OCInitStruct->TIM_Pulse;
 1518              		.loc 1 893 0
 1519 08d0 3B68     		ldr	r3, [r7, #0]
 1520 08d2 9A68     		ldr	r2, [r3, #8]
 1521 08d4 7B68     		ldr	r3, [r7, #4]
 1522 08d6 DA63     		str	r2, [r3, #60]
 894:../STM32F4xx_StdPeriph_Driver/src/stm32f4xx_tim.c ****   
 895:../STM32F4xx_StdPeriph_Driver/src/stm32f4xx_tim.c ****   /* Write to TIMx CCER */
 896:../STM32F4xx_StdPeriph_Driver/src/stm32f4xx_tim.c ****   TIMx->CCER = tmpccer;
 1523              		.loc 1 896 0
 1524 08d8 7B68     		ldr	r3, [r7, #4]
 1525 08da FA89     		ldrh	r2, [r7, #14]	@ movhi
 1526 08dc 1A84     		strh	r2, [r3, #32]	@ movhi
 897:../STM32F4xx_StdPeriph_Driver/src/stm32f4xx_tim.c **** }
 1527              		.loc 1 897 0
 1528 08de 07F11407 		add	r7, r7, #20
 1529 08e2 BD46     		mov	sp, r7
 1530 08e4 80BC     		pop	{r7}
 1531 08e6 7047     		bx	lr
 1532              		.cfi_endproc
 1533              	.LFE127:
 1535              		.align	2
 1536              		.global	TIM_OC4Init
 1537              		.thumb
 1538              		.thumb_func
 1540              	TIM_OC4Init:
 1541              	.LFB128:
 898:../STM32F4xx_StdPeriph_Driver/src/stm32f4xx_tim.c **** 
 899:../STM32F4xx_StdPeriph_Driver/src/stm32f4xx_tim.c **** /**
 900:../STM32F4xx_StdPeriph_Driver/src/stm32f4xx_tim.c ****   * @brief  Initializes the TIMx Channel4 according to the specified parameters
 901:../STM32F4xx_StdPeriph_Driver/src/stm32f4xx_tim.c ****   *         in the TIM_OCInitStruct.
 902:../STM32F4xx_StdPeriph_Driver/src/stm32f4xx_tim.c ****   * @param  TIMx: where x can be 1, 2, 3, 4, 5 or 8 to select the TIM peripheral.
 903:../STM32F4xx_StdPeriph_Driver/src/stm32f4xx_tim.c ****   * @param  TIM_OCInitStruct: pointer to a TIM_OCInitTypeDef structure that contains
 904:../STM32F4xx_StdPeriph_Driver/src/stm32f4xx_tim.c ****   *         the configuration information for the specified TIM peripheral.
 905:../STM32F4xx_StdPeriph_Driver/src/stm32f4xx_tim.c ****   * @retval None
 906:../STM32F4xx_StdPeriph_Driver/src/stm32f4xx_tim.c ****   */
 907:../STM32F4xx_StdPeriph_Driver/src/stm32f4xx_tim.c **** void TIM_OC4Init(TIM_TypeDef* TIMx, TIM_OCInitTypeDef* TIM_OCInitStruct)
 908:../STM32F4xx_StdPeriph_Driver/src/stm32f4xx_tim.c **** {
 1542              		.loc 1 908 0
 1543              		.cfi_startproc
 1544              		@ args = 0, pretend = 0, frame = 16
 1545              		@ frame_needed = 1, uses_anonymous_args = 0
 1546              		@ link register save eliminated.
 1547 08e8 80B4     		push	{r7}
 1548              	.LCFI54:
 1549              		.cfi_def_cfa_offset 4
 1550              		.cfi_offset 7, -4
 1551 08ea 85B0     		sub	sp, sp, #20
 1552              	.LCFI55:
 1553              		.cfi_def_cfa_offset 24
 1554 08ec 00AF     		add	r7, sp, #0
 1555              	.LCFI56:
 1556              		.cfi_def_cfa_register 7
 1557 08ee 7860     		str	r0, [r7, #4]
 1558 08f0 3960     		str	r1, [r7, #0]
 909:../STM32F4xx_StdPeriph_Driver/src/stm32f4xx_tim.c ****   uint16_t tmpccmrx = 0, tmpccer = 0, tmpcr2 = 0;
 1559              		.loc 1 909 0
 1560 08f2 4FF00003 		mov	r3, #0
 1561 08f6 BB81     		strh	r3, [r7, #12]	@ movhi
 1562 08f8 4FF00003 		mov	r3, #0
 1563 08fc 7B81     		strh	r3, [r7, #10]	@ movhi
 1564 08fe 4FF00003 		mov	r3, #0
 1565 0902 FB81     		strh	r3, [r7, #14]	@ movhi
 910:../STM32F4xx_StdPeriph_Driver/src/stm32f4xx_tim.c ****    
 911:../STM32F4xx_StdPeriph_Driver/src/stm32f4xx_tim.c ****   /* Check the parameters */
 912:../STM32F4xx_StdPeriph_Driver/src/stm32f4xx_tim.c ****   assert_param(IS_TIM_LIST3_PERIPH(TIMx)); 
 913:../STM32F4xx_StdPeriph_Driver/src/stm32f4xx_tim.c ****   assert_param(IS_TIM_OC_MODE(TIM_OCInitStruct->TIM_OCMode));
 914:../STM32F4xx_StdPeriph_Driver/src/stm32f4xx_tim.c ****   assert_param(IS_TIM_OUTPUT_STATE(TIM_OCInitStruct->TIM_OutputState));
 915:../STM32F4xx_StdPeriph_Driver/src/stm32f4xx_tim.c ****   assert_param(IS_TIM_OC_POLARITY(TIM_OCInitStruct->TIM_OCPolarity));   
 916:../STM32F4xx_StdPeriph_Driver/src/stm32f4xx_tim.c **** 
 917:../STM32F4xx_StdPeriph_Driver/src/stm32f4xx_tim.c ****   /* Disable the Channel 4: Reset the CC4E Bit */
 918:../STM32F4xx_StdPeriph_Driver/src/stm32f4xx_tim.c ****   TIMx->CCER &= (uint16_t)~TIM_CCER_CC4E;
 1566              		.loc 1 918 0
 1567 0904 7B68     		ldr	r3, [r7, #4]
 1568 0906 1B8C     		ldrh	r3, [r3, #32]	@ movhi
 1569 0908 9BB2     		uxth	r3, r3
 1570 090a 23F48053 		bic	r3, r3, #4096
 1571 090e 9AB2     		uxth	r2, r3
 1572 0910 7B68     		ldr	r3, [r7, #4]
 1573 0912 1A84     		strh	r2, [r3, #32]	@ movhi
 919:../STM32F4xx_StdPeriph_Driver/src/stm32f4xx_tim.c ****   
 920:../STM32F4xx_StdPeriph_Driver/src/stm32f4xx_tim.c ****   /* Get the TIMx CCER register value */
 921:../STM32F4xx_StdPeriph_Driver/src/stm32f4xx_tim.c ****   tmpccer = TIMx->CCER;
 1574              		.loc 1 921 0
 1575 0914 7B68     		ldr	r3, [r7, #4]
 1576 0916 1B8C     		ldrh	r3, [r3, #32]	@ movhi
 1577 0918 7B81     		strh	r3, [r7, #10]	@ movhi
 922:../STM32F4xx_StdPeriph_Driver/src/stm32f4xx_tim.c ****   /* Get the TIMx CR2 register value */
 923:../STM32F4xx_StdPeriph_Driver/src/stm32f4xx_tim.c ****   tmpcr2 =  TIMx->CR2;
 1578              		.loc 1 923 0
 1579 091a 7B68     		ldr	r3, [r7, #4]
 1580 091c 9B88     		ldrh	r3, [r3, #4]	@ movhi
 1581 091e FB81     		strh	r3, [r7, #14]	@ movhi
 924:../STM32F4xx_StdPeriph_Driver/src/stm32f4xx_tim.c ****   
 925:../STM32F4xx_StdPeriph_Driver/src/stm32f4xx_tim.c ****   /* Get the TIMx CCMR2 register value */
 926:../STM32F4xx_StdPeriph_Driver/src/stm32f4xx_tim.c ****   tmpccmrx = TIMx->CCMR2;
 1582              		.loc 1 926 0
 1583 0920 7B68     		ldr	r3, [r7, #4]
 1584 0922 9B8B     		ldrh	r3, [r3, #28]	@ movhi
 1585 0924 BB81     		strh	r3, [r7, #12]	@ movhi
 927:../STM32F4xx_StdPeriph_Driver/src/stm32f4xx_tim.c ****     
 928:../STM32F4xx_StdPeriph_Driver/src/stm32f4xx_tim.c ****   /* Reset the Output Compare mode and Capture/Compare selection Bits */
 929:../STM32F4xx_StdPeriph_Driver/src/stm32f4xx_tim.c ****   tmpccmrx &= (uint16_t)~TIM_CCMR2_OC4M;
 1586              		.loc 1 929 0
 1587 0926 BB89     		ldrh	r3, [r7, #12]	@ movhi
 1588 0928 23F4E043 		bic	r3, r3, #28672
 1589 092c BB81     		strh	r3, [r7, #12]	@ movhi
 930:../STM32F4xx_StdPeriph_Driver/src/stm32f4xx_tim.c ****   tmpccmrx &= (uint16_t)~TIM_CCMR2_CC4S;
 1590              		.loc 1 930 0
 1591 092e BB89     		ldrh	r3, [r7, #12]	@ movhi
 1592 0930 23F44073 		bic	r3, r3, #768
 1593 0934 BB81     		strh	r3, [r7, #12]	@ movhi
 931:../STM32F4xx_StdPeriph_Driver/src/stm32f4xx_tim.c ****   
 932:../STM32F4xx_StdPeriph_Driver/src/stm32f4xx_tim.c ****   /* Select the Output Compare Mode */
 933:../STM32F4xx_StdPeriph_Driver/src/stm32f4xx_tim.c ****   tmpccmrx |= (uint16_t)(TIM_OCInitStruct->TIM_OCMode << 8);
 1594              		.loc 1 933 0
 1595 0936 3B68     		ldr	r3, [r7, #0]
 1596 0938 1B88     		ldrh	r3, [r3, #0]
 1597 093a 4FEA0323 		lsl	r3, r3, #8
 1598 093e 9AB2     		uxth	r2, r3
 1599 0940 BB89     		ldrh	r3, [r7, #12]	@ movhi
 1600 0942 1343     		orrs	r3, r3, r2
 1601 0944 BB81     		strh	r3, [r7, #12]	@ movhi
 934:../STM32F4xx_StdPeriph_Driver/src/stm32f4xx_tim.c ****   
 935:../STM32F4xx_StdPeriph_Driver/src/stm32f4xx_tim.c ****   /* Reset the Output Polarity level */
 936:../STM32F4xx_StdPeriph_Driver/src/stm32f4xx_tim.c ****   tmpccer &= (uint16_t)~TIM_CCER_CC4P;
 1602              		.loc 1 936 0
 1603 0946 7B89     		ldrh	r3, [r7, #10]	@ movhi
 1604 0948 23F40053 		bic	r3, r3, #8192
 1605 094c 7B81     		strh	r3, [r7, #10]	@ movhi
 937:../STM32F4xx_StdPeriph_Driver/src/stm32f4xx_tim.c ****   /* Set the Output Compare Polarity */
 938:../STM32F4xx_StdPeriph_Driver/src/stm32f4xx_tim.c ****   tmpccer |= (uint16_t)(TIM_OCInitStruct->TIM_OCPolarity << 12);
 1606              		.loc 1 938 0
 1607 094e 3B68     		ldr	r3, [r7, #0]
 1608 0950 9B89     		ldrh	r3, [r3, #12]
 1609 0952 4FEA0333 		lsl	r3, r3, #12
 1610 0956 9AB2     		uxth	r2, r3
 1611 0958 7B89     		ldrh	r3, [r7, #10]	@ movhi
 1612 095a 1343     		orrs	r3, r3, r2
 1613 095c 7B81     		strh	r3, [r7, #10]	@ movhi
 939:../STM32F4xx_StdPeriph_Driver/src/stm32f4xx_tim.c ****   
 940:../STM32F4xx_StdPeriph_Driver/src/stm32f4xx_tim.c ****   /* Set the Output State */
 941:../STM32F4xx_StdPeriph_Driver/src/stm32f4xx_tim.c ****   tmpccer |= (uint16_t)(TIM_OCInitStruct->TIM_OutputState << 12);
 1614              		.loc 1 941 0
 1615 095e 3B68     		ldr	r3, [r7, #0]
 1616 0960 5B88     		ldrh	r3, [r3, #2]
 1617 0962 4FEA0333 		lsl	r3, r3, #12
 1618 0966 9AB2     		uxth	r2, r3
 1619 0968 7B89     		ldrh	r3, [r7, #10]	@ movhi
 1620 096a 1343     		orrs	r3, r3, r2
 1621 096c 7B81     		strh	r3, [r7, #10]	@ movhi
 942:../STM32F4xx_StdPeriph_Driver/src/stm32f4xx_tim.c ****   
 943:../STM32F4xx_StdPeriph_Driver/src/stm32f4xx_tim.c ****   if((TIMx == TIM1) || (TIMx == TIM8))
 1622              		.loc 1 943 0
 1623 096e 7A68     		ldr	r2, [r7, #4]
 1624 0970 4FF00003 		mov	r3, #0
 1625 0974 C4F20103 		movt	r3, 16385
 1626 0978 9A42     		cmp	r2, r3
 1627 097a 06D0     		beq	.L53
 1628              		.loc 1 943 0 is_stmt 0 discriminator 1
 1629 097c 7A68     		ldr	r2, [r7, #4]
 1630 097e 4FF48063 		mov	r3, #1024
 1631 0982 C4F20103 		movt	r3, 16385
 1632 0986 9A42     		cmp	r2, r3
 1633 0988 0BD1     		bne	.L54
 1634              	.L53:
 944:../STM32F4xx_StdPeriph_Driver/src/stm32f4xx_tim.c ****   {
 945:../STM32F4xx_StdPeriph_Driver/src/stm32f4xx_tim.c ****     assert_param(IS_TIM_OCIDLE_STATE(TIM_OCInitStruct->TIM_OCIdleState));
 946:../STM32F4xx_StdPeriph_Driver/src/stm32f4xx_tim.c ****     /* Reset the Output Compare IDLE State */
 947:../STM32F4xx_StdPeriph_Driver/src/stm32f4xx_tim.c ****     tmpcr2 &=(uint16_t) ~TIM_CR2_OIS4;
 1635              		.loc 1 947 0 is_stmt 1
 1636 098a FB89     		ldrh	r3, [r7, #14]	@ movhi
 1637 098c 23F48043 		bic	r3, r3, #16384
 1638 0990 FB81     		strh	r3, [r7, #14]	@ movhi
 948:../STM32F4xx_StdPeriph_Driver/src/stm32f4xx_tim.c ****     /* Set the Output Idle state */
 949:../STM32F4xx_StdPeriph_Driver/src/stm32f4xx_tim.c ****     tmpcr2 |= (uint16_t)(TIM_OCInitStruct->TIM_OCIdleState << 6);
 1639              		.loc 1 949 0
 1640 0992 3B68     		ldr	r3, [r7, #0]
 1641 0994 1B8A     		ldrh	r3, [r3, #16]
 1642 0996 4FEA8313 		lsl	r3, r3, #6
 1643 099a 9AB2     		uxth	r2, r3
 1644 099c FB89     		ldrh	r3, [r7, #14]	@ movhi
 1645 099e 1343     		orrs	r3, r3, r2
 1646 09a0 FB81     		strh	r3, [r7, #14]	@ movhi
 1647              	.L54:
 950:../STM32F4xx_StdPeriph_Driver/src/stm32f4xx_tim.c ****   }
 951:../STM32F4xx_StdPeriph_Driver/src/stm32f4xx_tim.c ****   /* Write to TIMx CR2 */
 952:../STM32F4xx_StdPeriph_Driver/src/stm32f4xx_tim.c ****   TIMx->CR2 = tmpcr2;
 1648              		.loc 1 952 0
 1649 09a2 7B68     		ldr	r3, [r7, #4]
 1650 09a4 FA89     		ldrh	r2, [r7, #14]	@ movhi
 1651 09a6 9A80     		strh	r2, [r3, #4]	@ movhi
 953:../STM32F4xx_StdPeriph_Driver/src/stm32f4xx_tim.c ****   
 954:../STM32F4xx_StdPeriph_Driver/src/stm32f4xx_tim.c ****   /* Write to TIMx CCMR2 */  
 955:../STM32F4xx_StdPeriph_Driver/src/stm32f4xx_tim.c ****   TIMx->CCMR2 = tmpccmrx;
 1652              		.loc 1 955 0
 1653 09a8 7B68     		ldr	r3, [r7, #4]
 1654 09aa BA89     		ldrh	r2, [r7, #12]	@ movhi
 1655 09ac 9A83     		strh	r2, [r3, #28]	@ movhi
 956:../STM32F4xx_StdPeriph_Driver/src/stm32f4xx_tim.c ****     
 957:../STM32F4xx_StdPeriph_Driver/src/stm32f4xx_tim.c ****   /* Set the Capture Compare Register value */
 958:../STM32F4xx_StdPeriph_Driver/src/stm32f4xx_tim.c ****   TIMx->CCR4 = TIM_OCInitStruct->TIM_Pulse;
 1656              		.loc 1 958 0
 1657 09ae 3B68     		ldr	r3, [r7, #0]
 1658 09b0 9A68     		ldr	r2, [r3, #8]
 1659 09b2 7B68     		ldr	r3, [r7, #4]
 1660 09b4 1A64     		str	r2, [r3, #64]
 959:../STM32F4xx_StdPeriph_Driver/src/stm32f4xx_tim.c ****   
 960:../STM32F4xx_StdPeriph_Driver/src/stm32f4xx_tim.c ****   /* Write to TIMx CCER */
 961:../STM32F4xx_StdPeriph_Driver/src/stm32f4xx_tim.c ****   TIMx->CCER = tmpccer;
 1661              		.loc 1 961 0
 1662 09b6 7B68     		ldr	r3, [r7, #4]
 1663 09b8 7A89     		ldrh	r2, [r7, #10]	@ movhi
 1664 09ba 1A84     		strh	r2, [r3, #32]	@ movhi
 962:../STM32F4xx_StdPeriph_Driver/src/stm32f4xx_tim.c **** }
 1665              		.loc 1 962 0
 1666 09bc 07F11407 		add	r7, r7, #20
 1667 09c0 BD46     		mov	sp, r7
 1668 09c2 80BC     		pop	{r7}
 1669 09c4 7047     		bx	lr
 1670              		.cfi_endproc
 1671              	.LFE128:
 1673 09c6 00BF     		.align	2
 1674              		.global	TIM_OCStructInit
 1675              		.thumb
 1676              		.thumb_func
 1678              	TIM_OCStructInit:
 1679              	.LFB129:
 963:../STM32F4xx_StdPeriph_Driver/src/stm32f4xx_tim.c **** 
 964:../STM32F4xx_StdPeriph_Driver/src/stm32f4xx_tim.c **** /**
 965:../STM32F4xx_StdPeriph_Driver/src/stm32f4xx_tim.c ****   * @brief  Fills each TIM_OCInitStruct member with its default value.
 966:../STM32F4xx_StdPeriph_Driver/src/stm32f4xx_tim.c ****   * @param  TIM_OCInitStruct: pointer to a TIM_OCInitTypeDef structure which will
 967:../STM32F4xx_StdPeriph_Driver/src/stm32f4xx_tim.c ****   *         be initialized.
 968:../STM32F4xx_StdPeriph_Driver/src/stm32f4xx_tim.c ****   * @retval None
 969:../STM32F4xx_StdPeriph_Driver/src/stm32f4xx_tim.c ****   */
 970:../STM32F4xx_StdPeriph_Driver/src/stm32f4xx_tim.c **** void TIM_OCStructInit(TIM_OCInitTypeDef* TIM_OCInitStruct)
 971:../STM32F4xx_StdPeriph_Driver/src/stm32f4xx_tim.c **** {
 1680              		.loc 1 971 0
 1681              		.cfi_startproc
 1682              		@ args = 0, pretend = 0, frame = 8
 1683              		@ frame_needed = 1, uses_anonymous_args = 0
 1684              		@ link register save eliminated.
 1685 09c8 80B4     		push	{r7}
 1686              	.LCFI57:
 1687              		.cfi_def_cfa_offset 4
 1688              		.cfi_offset 7, -4
 1689 09ca 83B0     		sub	sp, sp, #12
 1690              	.LCFI58:
 1691              		.cfi_def_cfa_offset 16
 1692 09cc 00AF     		add	r7, sp, #0
 1693              	.LCFI59:
 1694              		.cfi_def_cfa_register 7
 1695 09ce 7860     		str	r0, [r7, #4]
 972:../STM32F4xx_StdPeriph_Driver/src/stm32f4xx_tim.c ****   /* Set the default configuration */
 973:../STM32F4xx_StdPeriph_Driver/src/stm32f4xx_tim.c ****   TIM_OCInitStruct->TIM_OCMode = TIM_OCMode_Timing;
 1696              		.loc 1 973 0
 1697 09d0 7B68     		ldr	r3, [r7, #4]
 1698 09d2 4FF00002 		mov	r2, #0
 1699 09d6 1A80     		strh	r2, [r3, #0]	@ movhi
 974:../STM32F4xx_StdPeriph_Driver/src/stm32f4xx_tim.c ****   TIM_OCInitStruct->TIM_OutputState = TIM_OutputState_Disable;
 1700              		.loc 1 974 0
 1701 09d8 7B68     		ldr	r3, [r7, #4]
 1702 09da 4FF00002 		mov	r2, #0
 1703 09de 5A80     		strh	r2, [r3, #2]	@ movhi
 975:../STM32F4xx_StdPeriph_Driver/src/stm32f4xx_tim.c ****   TIM_OCInitStruct->TIM_OutputNState = TIM_OutputNState_Disable;
 1704              		.loc 1 975 0
 1705 09e0 7B68     		ldr	r3, [r7, #4]
 1706 09e2 4FF00002 		mov	r2, #0
 1707 09e6 9A80     		strh	r2, [r3, #4]	@ movhi
 976:../STM32F4xx_StdPeriph_Driver/src/stm32f4xx_tim.c ****   TIM_OCInitStruct->TIM_Pulse = 0x00000000;
 1708              		.loc 1 976 0
 1709 09e8 7B68     		ldr	r3, [r7, #4]
 1710 09ea 4FF00002 		mov	r2, #0
 1711 09ee 9A60     		str	r2, [r3, #8]
 977:../STM32F4xx_StdPeriph_Driver/src/stm32f4xx_tim.c ****   TIM_OCInitStruct->TIM_OCPolarity = TIM_OCPolarity_High;
 1712              		.loc 1 977 0
 1713 09f0 7B68     		ldr	r3, [r7, #4]
 1714 09f2 4FF00002 		mov	r2, #0
 1715 09f6 9A81     		strh	r2, [r3, #12]	@ movhi
 978:../STM32F4xx_StdPeriph_Driver/src/stm32f4xx_tim.c ****   TIM_OCInitStruct->TIM_OCNPolarity = TIM_OCPolarity_High;
 1716              		.loc 1 978 0
 1717 09f8 7B68     		ldr	r3, [r7, #4]
 1718 09fa 4FF00002 		mov	r2, #0
 1719 09fe DA81     		strh	r2, [r3, #14]	@ movhi
 979:../STM32F4xx_StdPeriph_Driver/src/stm32f4xx_tim.c ****   TIM_OCInitStruct->TIM_OCIdleState = TIM_OCIdleState_Reset;
 1720              		.loc 1 979 0
 1721 0a00 7B68     		ldr	r3, [r7, #4]
 1722 0a02 4FF00002 		mov	r2, #0
 1723 0a06 1A82     		strh	r2, [r3, #16]	@ movhi
 980:../STM32F4xx_StdPeriph_Driver/src/stm32f4xx_tim.c ****   TIM_OCInitStruct->TIM_OCNIdleState = TIM_OCNIdleState_Reset;
 1724              		.loc 1 980 0
 1725 0a08 7B68     		ldr	r3, [r7, #4]
 1726 0a0a 4FF00002 		mov	r2, #0
 1727 0a0e 5A82     		strh	r2, [r3, #18]	@ movhi
 981:../STM32F4xx_StdPeriph_Driver/src/stm32f4xx_tim.c **** }
 1728              		.loc 1 981 0
 1729 0a10 07F10C07 		add	r7, r7, #12
 1730 0a14 BD46     		mov	sp, r7
 1731 0a16 80BC     		pop	{r7}
 1732 0a18 7047     		bx	lr
 1733              		.cfi_endproc
 1734              	.LFE129:
 1736 0a1a 00BF     		.align	2
 1737              		.global	TIM_SelectOCxM
 1738              		.thumb
 1739              		.thumb_func
 1741              	TIM_SelectOCxM:
 1742              	.LFB130:
 982:../STM32F4xx_StdPeriph_Driver/src/stm32f4xx_tim.c **** 
 983:../STM32F4xx_StdPeriph_Driver/src/stm32f4xx_tim.c **** /**
 984:../STM32F4xx_StdPeriph_Driver/src/stm32f4xx_tim.c ****   * @brief  Selects the TIM Output Compare Mode.
 985:../STM32F4xx_StdPeriph_Driver/src/stm32f4xx_tim.c ****   * @note   This function disables the selected channel before changing the Output
 986:../STM32F4xx_StdPeriph_Driver/src/stm32f4xx_tim.c ****   *         Compare Mode. If needed, user has to enable this channel using
 987:../STM32F4xx_StdPeriph_Driver/src/stm32f4xx_tim.c ****   *         TIM_CCxCmd() and TIM_CCxNCmd() functions.
 988:../STM32F4xx_StdPeriph_Driver/src/stm32f4xx_tim.c ****   * @param  TIMx: where x can be 1 to 14 except 6 and 7, to select the TIM peripheral.
 989:../STM32F4xx_StdPeriph_Driver/src/stm32f4xx_tim.c ****   * @param  TIM_Channel: specifies the TIM Channel
 990:../STM32F4xx_StdPeriph_Driver/src/stm32f4xx_tim.c ****   *          This parameter can be one of the following values:
 991:../STM32F4xx_StdPeriph_Driver/src/stm32f4xx_tim.c ****   *            @arg TIM_Channel_1: TIM Channel 1
 992:../STM32F4xx_StdPeriph_Driver/src/stm32f4xx_tim.c ****   *            @arg TIM_Channel_2: TIM Channel 2
 993:../STM32F4xx_StdPeriph_Driver/src/stm32f4xx_tim.c ****   *            @arg TIM_Channel_3: TIM Channel 3
 994:../STM32F4xx_StdPeriph_Driver/src/stm32f4xx_tim.c ****   *            @arg TIM_Channel_4: TIM Channel 4
 995:../STM32F4xx_StdPeriph_Driver/src/stm32f4xx_tim.c ****   * @param  TIM_OCMode: specifies the TIM Output Compare Mode.
 996:../STM32F4xx_StdPeriph_Driver/src/stm32f4xx_tim.c ****   *           This parameter can be one of the following values:
 997:../STM32F4xx_StdPeriph_Driver/src/stm32f4xx_tim.c ****   *            @arg TIM_OCMode_Timing
 998:../STM32F4xx_StdPeriph_Driver/src/stm32f4xx_tim.c ****   *            @arg TIM_OCMode_Active
 999:../STM32F4xx_StdPeriph_Driver/src/stm32f4xx_tim.c ****   *            @arg TIM_OCMode_Toggle
1000:../STM32F4xx_StdPeriph_Driver/src/stm32f4xx_tim.c ****   *            @arg TIM_OCMode_PWM1
1001:../STM32F4xx_StdPeriph_Driver/src/stm32f4xx_tim.c ****   *            @arg TIM_OCMode_PWM2
1002:../STM32F4xx_StdPeriph_Driver/src/stm32f4xx_tim.c ****   *            @arg TIM_ForcedAction_Active
1003:../STM32F4xx_StdPeriph_Driver/src/stm32f4xx_tim.c ****   *            @arg TIM_ForcedAction_InActive
1004:../STM32F4xx_StdPeriph_Driver/src/stm32f4xx_tim.c ****   * @retval None
1005:../STM32F4xx_StdPeriph_Driver/src/stm32f4xx_tim.c ****   */
1006:../STM32F4xx_StdPeriph_Driver/src/stm32f4xx_tim.c **** void TIM_SelectOCxM(TIM_TypeDef* TIMx, uint16_t TIM_Channel, uint16_t TIM_OCMode)
1007:../STM32F4xx_StdPeriph_Driver/src/stm32f4xx_tim.c **** {
 1743              		.loc 1 1007 0
 1744              		.cfi_startproc
 1745              		@ args = 0, pretend = 0, frame = 16
 1746              		@ frame_needed = 1, uses_anonymous_args = 0
 1747              		@ link register save eliminated.
 1748 0a1c 80B4     		push	{r7}
 1749              	.LCFI60:
 1750              		.cfi_def_cfa_offset 4
 1751              		.cfi_offset 7, -4
 1752 0a1e 85B0     		sub	sp, sp, #20
 1753              	.LCFI61:
 1754              		.cfi_def_cfa_offset 24
 1755 0a20 00AF     		add	r7, sp, #0
 1756              	.LCFI62:
 1757              		.cfi_def_cfa_register 7
 1758 0a22 7860     		str	r0, [r7, #4]
 1759 0a24 1346     		mov	r3, r2
 1760 0a26 0A46     		mov	r2, r1	@ movhi
 1761 0a28 7A80     		strh	r2, [r7, #2]	@ movhi
 1762 0a2a 3B80     		strh	r3, [r7, #0]	@ movhi
1008:../STM32F4xx_StdPeriph_Driver/src/stm32f4xx_tim.c ****   uint32_t tmp = 0;
 1763              		.loc 1 1008 0
 1764 0a2c 4FF00003 		mov	r3, #0
 1765 0a30 FB60     		str	r3, [r7, #12]
1009:../STM32F4xx_StdPeriph_Driver/src/stm32f4xx_tim.c ****   uint16_t tmp1 = 0;
 1766              		.loc 1 1009 0
 1767 0a32 4FF00003 		mov	r3, #0
 1768 0a36 7B81     		strh	r3, [r7, #10]	@ movhi
1010:../STM32F4xx_StdPeriph_Driver/src/stm32f4xx_tim.c **** 
1011:../STM32F4xx_StdPeriph_Driver/src/stm32f4xx_tim.c ****   /* Check the parameters */
1012:../STM32F4xx_StdPeriph_Driver/src/stm32f4xx_tim.c ****   assert_param(IS_TIM_LIST1_PERIPH(TIMx));
1013:../STM32F4xx_StdPeriph_Driver/src/stm32f4xx_tim.c ****   assert_param(IS_TIM_CHANNEL(TIM_Channel));
1014:../STM32F4xx_StdPeriph_Driver/src/stm32f4xx_tim.c ****   assert_param(IS_TIM_OCM(TIM_OCMode));
1015:../STM32F4xx_StdPeriph_Driver/src/stm32f4xx_tim.c **** 
1016:../STM32F4xx_StdPeriph_Driver/src/stm32f4xx_tim.c ****   tmp = (uint32_t) TIMx;
 1769              		.loc 1 1016 0
 1770 0a38 7B68     		ldr	r3, [r7, #4]
 1771 0a3a FB60     		str	r3, [r7, #12]
1017:../STM32F4xx_StdPeriph_Driver/src/stm32f4xx_tim.c ****   tmp += CCMR_OFFSET;
 1772              		.loc 1 1017 0
 1773 0a3c FB68     		ldr	r3, [r7, #12]
 1774 0a3e 03F11803 		add	r3, r3, #24
 1775 0a42 FB60     		str	r3, [r7, #12]
1018:../STM32F4xx_StdPeriph_Driver/src/stm32f4xx_tim.c **** 
1019:../STM32F4xx_StdPeriph_Driver/src/stm32f4xx_tim.c ****   tmp1 = CCER_CCE_SET << (uint16_t)TIM_Channel;
 1776              		.loc 1 1019 0
 1777 0a44 7B88     		ldrh	r3, [r7, #2]
 1778 0a46 4FF00102 		mov	r2, #1
 1779 0a4a 02FA03F3 		lsl	r3, r2, r3
 1780 0a4e 7B81     		strh	r3, [r7, #10]	@ movhi
1020:../STM32F4xx_StdPeriph_Driver/src/stm32f4xx_tim.c **** 
1021:../STM32F4xx_StdPeriph_Driver/src/stm32f4xx_tim.c ****   /* Disable the Channel: Reset the CCxE Bit */
1022:../STM32F4xx_StdPeriph_Driver/src/stm32f4xx_tim.c ****   TIMx->CCER &= (uint16_t) ~tmp1;
 1781              		.loc 1 1022 0
 1782 0a50 7B68     		ldr	r3, [r7, #4]
 1783 0a52 1B8C     		ldrh	r3, [r3, #32]	@ movhi
 1784 0a54 9AB2     		uxth	r2, r3
 1785 0a56 7B89     		ldrh	r3, [r7, #10]	@ movhi
 1786 0a58 6FEA0303 		mvn	r3, r3
 1787 0a5c 9BB2     		uxth	r3, r3
 1788 0a5e 1340     		ands	r3, r3, r2
 1789 0a60 9AB2     		uxth	r2, r3
 1790 0a62 7B68     		ldr	r3, [r7, #4]
 1791 0a64 1A84     		strh	r2, [r3, #32]	@ movhi
1023:../STM32F4xx_StdPeriph_Driver/src/stm32f4xx_tim.c **** 
1024:../STM32F4xx_StdPeriph_Driver/src/stm32f4xx_tim.c ****   if((TIM_Channel == TIM_Channel_1) ||(TIM_Channel == TIM_Channel_3))
 1792              		.loc 1 1024 0
 1793 0a66 7B88     		ldrh	r3, [r7, #2]
 1794 0a68 002B     		cmp	r3, #0
 1795 0a6a 02D0     		beq	.L57
 1796              		.loc 1 1024 0 is_stmt 0 discriminator 1
 1797 0a6c 7B88     		ldrh	r3, [r7, #2]
 1798 0a6e 082B     		cmp	r3, #8
 1799 0a70 14D1     		bne	.L58
 1800              	.L57:
1025:../STM32F4xx_StdPeriph_Driver/src/stm32f4xx_tim.c ****   {
1026:../STM32F4xx_StdPeriph_Driver/src/stm32f4xx_tim.c ****     tmp += (TIM_Channel>>1);
 1801              		.loc 1 1026 0 is_stmt 1
 1802 0a72 7B88     		ldrh	r3, [r7, #2]
 1803 0a74 4FEA5303 		lsr	r3, r3, #1
 1804 0a78 9BB2     		uxth	r3, r3
 1805 0a7a FA68     		ldr	r2, [r7, #12]
 1806 0a7c D318     		adds	r3, r2, r3
 1807 0a7e FB60     		str	r3, [r7, #12]
1027:../STM32F4xx_StdPeriph_Driver/src/stm32f4xx_tim.c **** 
1028:../STM32F4xx_StdPeriph_Driver/src/stm32f4xx_tim.c ****     /* Reset the OCxM bits in the CCMRx register */
1029:../STM32F4xx_StdPeriph_Driver/src/stm32f4xx_tim.c ****     *(__IO uint32_t *) tmp &= CCMR_OC13M_MASK;
 1808              		.loc 1 1029 0
 1809 0a80 FA68     		ldr	r2, [r7, #12]
 1810 0a82 FB68     		ldr	r3, [r7, #12]
 1811 0a84 1968     		ldr	r1, [r3, #0]
 1812 0a86 4FF68F73 		movw	r3, #65423
 1813 0a8a 0B40     		ands	r3, r3, r1
 1814 0a8c 1360     		str	r3, [r2, #0]
1030:../STM32F4xx_StdPeriph_Driver/src/stm32f4xx_tim.c ****    
1031:../STM32F4xx_StdPeriph_Driver/src/stm32f4xx_tim.c ****     /* Configure the OCxM bits in the CCMRx register */
1032:../STM32F4xx_StdPeriph_Driver/src/stm32f4xx_tim.c ****     *(__IO uint32_t *) tmp |= TIM_OCMode;
 1815              		.loc 1 1032 0
 1816 0a8e FB68     		ldr	r3, [r7, #12]
 1817 0a90 FA68     		ldr	r2, [r7, #12]
 1818 0a92 1168     		ldr	r1, [r2, #0]
 1819 0a94 3A88     		ldrh	r2, [r7, #0]
 1820 0a96 0A43     		orrs	r2, r2, r1
 1821 0a98 1A60     		str	r2, [r3, #0]
 1822 0a9a 19E0     		b	.L56
 1823              	.L58:
1033:../STM32F4xx_StdPeriph_Driver/src/stm32f4xx_tim.c ****   }
1034:../STM32F4xx_StdPeriph_Driver/src/stm32f4xx_tim.c ****   else
1035:../STM32F4xx_StdPeriph_Driver/src/stm32f4xx_tim.c ****   {
1036:../STM32F4xx_StdPeriph_Driver/src/stm32f4xx_tim.c ****     tmp += (uint16_t)(TIM_Channel - (uint16_t)4)>> (uint16_t)1;
 1824              		.loc 1 1036 0
 1825 0a9c 7B88     		ldrh	r3, [r7, #2]	@ movhi
 1826 0a9e A3F10403 		sub	r3, r3, #4
 1827 0aa2 9BB2     		uxth	r3, r3
 1828 0aa4 4FEA5303 		lsr	r3, r3, #1
 1829 0aa8 9BB2     		uxth	r3, r3
 1830 0aaa FA68     		ldr	r2, [r7, #12]
 1831 0aac D318     		adds	r3, r2, r3
 1832 0aae FB60     		str	r3, [r7, #12]
1037:../STM32F4xx_StdPeriph_Driver/src/stm32f4xx_tim.c **** 
1038:../STM32F4xx_StdPeriph_Driver/src/stm32f4xx_tim.c ****     /* Reset the OCxM bits in the CCMRx register */
1039:../STM32F4xx_StdPeriph_Driver/src/stm32f4xx_tim.c ****     *(__IO uint32_t *) tmp &= CCMR_OC24M_MASK;
 1833              		.loc 1 1039 0
 1834 0ab0 FA68     		ldr	r2, [r7, #12]
 1835 0ab2 FB68     		ldr	r3, [r7, #12]
 1836 0ab4 1968     		ldr	r1, [r3, #0]
 1837 0ab6 48F6FF73 		movw	r3, #36863
 1838 0aba 0B40     		ands	r3, r3, r1
 1839 0abc 1360     		str	r3, [r2, #0]
1040:../STM32F4xx_StdPeriph_Driver/src/stm32f4xx_tim.c ****     
1041:../STM32F4xx_StdPeriph_Driver/src/stm32f4xx_tim.c ****     /* Configure the OCxM bits in the CCMRx register */
1042:../STM32F4xx_StdPeriph_Driver/src/stm32f4xx_tim.c ****     *(__IO uint32_t *) tmp |= (uint16_t)(TIM_OCMode << 8);
 1840              		.loc 1 1042 0
 1841 0abe FB68     		ldr	r3, [r7, #12]
 1842 0ac0 FA68     		ldr	r2, [r7, #12]
 1843 0ac2 1168     		ldr	r1, [r2, #0]
 1844 0ac4 3A88     		ldrh	r2, [r7, #0]	@ movhi
 1845 0ac6 4FEA0222 		lsl	r2, r2, #8
 1846 0aca 92B2     		uxth	r2, r2
 1847 0acc 0A43     		orrs	r2, r2, r1
 1848 0ace 1A60     		str	r2, [r3, #0]
 1849              	.L56:
1043:../STM32F4xx_StdPeriph_Driver/src/stm32f4xx_tim.c ****   }
1044:../STM32F4xx_StdPeriph_Driver/src/stm32f4xx_tim.c **** }
 1850              		.loc 1 1044 0
 1851 0ad0 07F11407 		add	r7, r7, #20
 1852 0ad4 BD46     		mov	sp, r7
 1853 0ad6 80BC     		pop	{r7}
 1854 0ad8 7047     		bx	lr
 1855              		.cfi_endproc
 1856              	.LFE130:
 1858 0ada 00BF     		.align	2
 1859              		.global	TIM_SetCompare1
 1860              		.thumb
 1861              		.thumb_func
 1863              	TIM_SetCompare1:
 1864              	.LFB131:
1045:../STM32F4xx_StdPeriph_Driver/src/stm32f4xx_tim.c **** 
1046:../STM32F4xx_StdPeriph_Driver/src/stm32f4xx_tim.c **** /**
1047:../STM32F4xx_StdPeriph_Driver/src/stm32f4xx_tim.c ****   * @brief  Sets the TIMx Capture Compare1 Register value
1048:../STM32F4xx_StdPeriph_Driver/src/stm32f4xx_tim.c ****   * @param  TIMx: where x can be 1 to 14 except 6 and 7, to select the TIM peripheral.
1049:../STM32F4xx_StdPeriph_Driver/src/stm32f4xx_tim.c ****   * @param  Compare1: specifies the Capture Compare1 register new value.
1050:../STM32F4xx_StdPeriph_Driver/src/stm32f4xx_tim.c ****   * @retval None
1051:../STM32F4xx_StdPeriph_Driver/src/stm32f4xx_tim.c ****   */
1052:../STM32F4xx_StdPeriph_Driver/src/stm32f4xx_tim.c **** void TIM_SetCompare1(TIM_TypeDef* TIMx, uint32_t Compare1)
1053:../STM32F4xx_StdPeriph_Driver/src/stm32f4xx_tim.c **** {
 1865              		.loc 1 1053 0
 1866              		.cfi_startproc
 1867              		@ args = 0, pretend = 0, frame = 8
 1868              		@ frame_needed = 1, uses_anonymous_args = 0
 1869              		@ link register save eliminated.
 1870 0adc 80B4     		push	{r7}
 1871              	.LCFI63:
 1872              		.cfi_def_cfa_offset 4
 1873              		.cfi_offset 7, -4
 1874 0ade 83B0     		sub	sp, sp, #12
 1875              	.LCFI64:
 1876              		.cfi_def_cfa_offset 16
 1877 0ae0 00AF     		add	r7, sp, #0
 1878              	.LCFI65:
 1879              		.cfi_def_cfa_register 7
 1880 0ae2 7860     		str	r0, [r7, #4]
 1881 0ae4 3960     		str	r1, [r7, #0]
1054:../STM32F4xx_StdPeriph_Driver/src/stm32f4xx_tim.c ****   /* Check the parameters */
1055:../STM32F4xx_StdPeriph_Driver/src/stm32f4xx_tim.c ****   assert_param(IS_TIM_LIST1_PERIPH(TIMx));
1056:../STM32F4xx_StdPeriph_Driver/src/stm32f4xx_tim.c **** 
1057:../STM32F4xx_StdPeriph_Driver/src/stm32f4xx_tim.c ****   /* Set the Capture Compare1 Register value */
1058:../STM32F4xx_StdPeriph_Driver/src/stm32f4xx_tim.c ****   TIMx->CCR1 = Compare1;
 1882              		.loc 1 1058 0
 1883 0ae6 7B68     		ldr	r3, [r7, #4]
 1884 0ae8 3A68     		ldr	r2, [r7, #0]
 1885 0aea 5A63     		str	r2, [r3, #52]
1059:../STM32F4xx_StdPeriph_Driver/src/stm32f4xx_tim.c **** }
 1886              		.loc 1 1059 0
 1887 0aec 07F10C07 		add	r7, r7, #12
 1888 0af0 BD46     		mov	sp, r7
 1889 0af2 80BC     		pop	{r7}
 1890 0af4 7047     		bx	lr
 1891              		.cfi_endproc
 1892              	.LFE131:
 1894 0af6 00BF     		.align	2
 1895              		.global	TIM_SetCompare2
 1896              		.thumb
 1897              		.thumb_func
 1899              	TIM_SetCompare2:
 1900              	.LFB132:
1060:../STM32F4xx_StdPeriph_Driver/src/stm32f4xx_tim.c **** 
1061:../STM32F4xx_StdPeriph_Driver/src/stm32f4xx_tim.c **** /**
1062:../STM32F4xx_StdPeriph_Driver/src/stm32f4xx_tim.c ****   * @brief  Sets the TIMx Capture Compare2 Register value
1063:../STM32F4xx_StdPeriph_Driver/src/stm32f4xx_tim.c ****   * @param  TIMx: where x can be 1, 2, 3, 4, 5, 8, 9 or 12 to select the TIM 
1064:../STM32F4xx_StdPeriph_Driver/src/stm32f4xx_tim.c ****   *         peripheral.
1065:../STM32F4xx_StdPeriph_Driver/src/stm32f4xx_tim.c ****   * @param  Compare2: specifies the Capture Compare2 register new value.
1066:../STM32F4xx_StdPeriph_Driver/src/stm32f4xx_tim.c ****   * @retval None
1067:../STM32F4xx_StdPeriph_Driver/src/stm32f4xx_tim.c ****   */
1068:../STM32F4xx_StdPeriph_Driver/src/stm32f4xx_tim.c **** void TIM_SetCompare2(TIM_TypeDef* TIMx, uint32_t Compare2)
1069:../STM32F4xx_StdPeriph_Driver/src/stm32f4xx_tim.c **** {
 1901              		.loc 1 1069 0
 1902              		.cfi_startproc
 1903              		@ args = 0, pretend = 0, frame = 8
 1904              		@ frame_needed = 1, uses_anonymous_args = 0
 1905              		@ link register save eliminated.
 1906 0af8 80B4     		push	{r7}
 1907              	.LCFI66:
 1908              		.cfi_def_cfa_offset 4
 1909              		.cfi_offset 7, -4
 1910 0afa 83B0     		sub	sp, sp, #12
 1911              	.LCFI67:
 1912              		.cfi_def_cfa_offset 16
 1913 0afc 00AF     		add	r7, sp, #0
 1914              	.LCFI68:
 1915              		.cfi_def_cfa_register 7
 1916 0afe 7860     		str	r0, [r7, #4]
 1917 0b00 3960     		str	r1, [r7, #0]
1070:../STM32F4xx_StdPeriph_Driver/src/stm32f4xx_tim.c ****   /* Check the parameters */
1071:../STM32F4xx_StdPeriph_Driver/src/stm32f4xx_tim.c ****   assert_param(IS_TIM_LIST2_PERIPH(TIMx));
1072:../STM32F4xx_StdPeriph_Driver/src/stm32f4xx_tim.c **** 
1073:../STM32F4xx_StdPeriph_Driver/src/stm32f4xx_tim.c ****   /* Set the Capture Compare2 Register value */
1074:../STM32F4xx_StdPeriph_Driver/src/stm32f4xx_tim.c ****   TIMx->CCR2 = Compare2;
 1918              		.loc 1 1074 0
 1919 0b02 7B68     		ldr	r3, [r7, #4]
 1920 0b04 3A68     		ldr	r2, [r7, #0]
 1921 0b06 9A63     		str	r2, [r3, #56]
1075:../STM32F4xx_StdPeriph_Driver/src/stm32f4xx_tim.c **** }
 1922              		.loc 1 1075 0
 1923 0b08 07F10C07 		add	r7, r7, #12
 1924 0b0c BD46     		mov	sp, r7
 1925 0b0e 80BC     		pop	{r7}
 1926 0b10 7047     		bx	lr
 1927              		.cfi_endproc
 1928              	.LFE132:
 1930 0b12 00BF     		.align	2
 1931              		.global	TIM_SetCompare3
 1932              		.thumb
 1933              		.thumb_func
 1935              	TIM_SetCompare3:
 1936              	.LFB133:
1076:../STM32F4xx_StdPeriph_Driver/src/stm32f4xx_tim.c **** 
1077:../STM32F4xx_StdPeriph_Driver/src/stm32f4xx_tim.c **** /**
1078:../STM32F4xx_StdPeriph_Driver/src/stm32f4xx_tim.c ****   * @brief  Sets the TIMx Capture Compare3 Register value
1079:../STM32F4xx_StdPeriph_Driver/src/stm32f4xx_tim.c ****   * @param  TIMx: where x can be 1, 2, 3, 4, 5 or 8 to select the TIM peripheral.
1080:../STM32F4xx_StdPeriph_Driver/src/stm32f4xx_tim.c ****   * @param  Compare3: specifies the Capture Compare3 register new value.
1081:../STM32F4xx_StdPeriph_Driver/src/stm32f4xx_tim.c ****   * @retval None
1082:../STM32F4xx_StdPeriph_Driver/src/stm32f4xx_tim.c ****   */
1083:../STM32F4xx_StdPeriph_Driver/src/stm32f4xx_tim.c **** void TIM_SetCompare3(TIM_TypeDef* TIMx, uint32_t Compare3)
1084:../STM32F4xx_StdPeriph_Driver/src/stm32f4xx_tim.c **** {
 1937              		.loc 1 1084 0
 1938              		.cfi_startproc
 1939              		@ args = 0, pretend = 0, frame = 8
 1940              		@ frame_needed = 1, uses_anonymous_args = 0
 1941              		@ link register save eliminated.
 1942 0b14 80B4     		push	{r7}
 1943              	.LCFI69:
 1944              		.cfi_def_cfa_offset 4
 1945              		.cfi_offset 7, -4
 1946 0b16 83B0     		sub	sp, sp, #12
 1947              	.LCFI70:
 1948              		.cfi_def_cfa_offset 16
 1949 0b18 00AF     		add	r7, sp, #0
 1950              	.LCFI71:
 1951              		.cfi_def_cfa_register 7
 1952 0b1a 7860     		str	r0, [r7, #4]
 1953 0b1c 3960     		str	r1, [r7, #0]
1085:../STM32F4xx_StdPeriph_Driver/src/stm32f4xx_tim.c ****   /* Check the parameters */
1086:../STM32F4xx_StdPeriph_Driver/src/stm32f4xx_tim.c ****   assert_param(IS_TIM_LIST3_PERIPH(TIMx));
1087:../STM32F4xx_StdPeriph_Driver/src/stm32f4xx_tim.c **** 
1088:../STM32F4xx_StdPeriph_Driver/src/stm32f4xx_tim.c ****   /* Set the Capture Compare3 Register value */
1089:../STM32F4xx_StdPeriph_Driver/src/stm32f4xx_tim.c ****   TIMx->CCR3 = Compare3;
 1954              		.loc 1 1089 0
 1955 0b1e 7B68     		ldr	r3, [r7, #4]
 1956 0b20 3A68     		ldr	r2, [r7, #0]
 1957 0b22 DA63     		str	r2, [r3, #60]
1090:../STM32F4xx_StdPeriph_Driver/src/stm32f4xx_tim.c **** }
 1958              		.loc 1 1090 0
 1959 0b24 07F10C07 		add	r7, r7, #12
 1960 0b28 BD46     		mov	sp, r7
 1961 0b2a 80BC     		pop	{r7}
 1962 0b2c 7047     		bx	lr
 1963              		.cfi_endproc
 1964              	.LFE133:
 1966 0b2e 00BF     		.align	2
 1967              		.global	TIM_SetCompare4
 1968              		.thumb
 1969              		.thumb_func
 1971              	TIM_SetCompare4:
 1972              	.LFB134:
1091:../STM32F4xx_StdPeriph_Driver/src/stm32f4xx_tim.c **** 
1092:../STM32F4xx_StdPeriph_Driver/src/stm32f4xx_tim.c **** /**
1093:../STM32F4xx_StdPeriph_Driver/src/stm32f4xx_tim.c ****   * @brief  Sets the TIMx Capture Compare4 Register value
1094:../STM32F4xx_StdPeriph_Driver/src/stm32f4xx_tim.c ****   * @param  TIMx: where x can be 1, 2, 3, 4, 5 or 8 to select the TIM peripheral.
1095:../STM32F4xx_StdPeriph_Driver/src/stm32f4xx_tim.c ****   * @param  Compare4: specifies the Capture Compare4 register new value.
1096:../STM32F4xx_StdPeriph_Driver/src/stm32f4xx_tim.c ****   * @retval None
1097:../STM32F4xx_StdPeriph_Driver/src/stm32f4xx_tim.c ****   */
1098:../STM32F4xx_StdPeriph_Driver/src/stm32f4xx_tim.c **** void TIM_SetCompare4(TIM_TypeDef* TIMx, uint32_t Compare4)
1099:../STM32F4xx_StdPeriph_Driver/src/stm32f4xx_tim.c **** {
 1973              		.loc 1 1099 0
 1974              		.cfi_startproc
 1975              		@ args = 0, pretend = 0, frame = 8
 1976              		@ frame_needed = 1, uses_anonymous_args = 0
 1977              		@ link register save eliminated.
 1978 0b30 80B4     		push	{r7}
 1979              	.LCFI72:
 1980              		.cfi_def_cfa_offset 4
 1981              		.cfi_offset 7, -4
 1982 0b32 83B0     		sub	sp, sp, #12
 1983              	.LCFI73:
 1984              		.cfi_def_cfa_offset 16
 1985 0b34 00AF     		add	r7, sp, #0
 1986              	.LCFI74:
 1987              		.cfi_def_cfa_register 7
 1988 0b36 7860     		str	r0, [r7, #4]
 1989 0b38 3960     		str	r1, [r7, #0]
1100:../STM32F4xx_StdPeriph_Driver/src/stm32f4xx_tim.c ****   /* Check the parameters */
1101:../STM32F4xx_StdPeriph_Driver/src/stm32f4xx_tim.c ****   assert_param(IS_TIM_LIST3_PERIPH(TIMx));
1102:../STM32F4xx_StdPeriph_Driver/src/stm32f4xx_tim.c **** 
1103:../STM32F4xx_StdPeriph_Driver/src/stm32f4xx_tim.c ****   /* Set the Capture Compare4 Register value */
1104:../STM32F4xx_StdPeriph_Driver/src/stm32f4xx_tim.c ****   TIMx->CCR4 = Compare4;
 1990              		.loc 1 1104 0
 1991 0b3a 7B68     		ldr	r3, [r7, #4]
 1992 0b3c 3A68     		ldr	r2, [r7, #0]
 1993 0b3e 1A64     		str	r2, [r3, #64]
1105:../STM32F4xx_StdPeriph_Driver/src/stm32f4xx_tim.c **** }
 1994              		.loc 1 1105 0
 1995 0b40 07F10C07 		add	r7, r7, #12
 1996 0b44 BD46     		mov	sp, r7
 1997 0b46 80BC     		pop	{r7}
 1998 0b48 7047     		bx	lr
 1999              		.cfi_endproc
 2000              	.LFE134:
 2002 0b4a 00BF     		.align	2
 2003              		.global	TIM_ForcedOC1Config
 2004              		.thumb
 2005              		.thumb_func
 2007              	TIM_ForcedOC1Config:
 2008              	.LFB135:
1106:../STM32F4xx_StdPeriph_Driver/src/stm32f4xx_tim.c **** 
1107:../STM32F4xx_StdPeriph_Driver/src/stm32f4xx_tim.c **** /**
1108:../STM32F4xx_StdPeriph_Driver/src/stm32f4xx_tim.c ****   * @brief  Forces the TIMx output 1 waveform to active or inactive level.
1109:../STM32F4xx_StdPeriph_Driver/src/stm32f4xx_tim.c ****   * @param  TIMx: where x can be 1 to 14 except 6 and 7, to select the TIM peripheral.
1110:../STM32F4xx_StdPeriph_Driver/src/stm32f4xx_tim.c ****   * @param  TIM_ForcedAction: specifies the forced Action to be set to the output waveform.
1111:../STM32F4xx_StdPeriph_Driver/src/stm32f4xx_tim.c ****   *          This parameter can be one of the following values:
1112:../STM32F4xx_StdPeriph_Driver/src/stm32f4xx_tim.c ****   *            @arg TIM_ForcedAction_Active: Force active level on OC1REF
1113:../STM32F4xx_StdPeriph_Driver/src/stm32f4xx_tim.c ****   *            @arg TIM_ForcedAction_InActive: Force inactive level on OC1REF.
1114:../STM32F4xx_StdPeriph_Driver/src/stm32f4xx_tim.c ****   * @retval None
1115:../STM32F4xx_StdPeriph_Driver/src/stm32f4xx_tim.c ****   */
1116:../STM32F4xx_StdPeriph_Driver/src/stm32f4xx_tim.c **** void TIM_ForcedOC1Config(TIM_TypeDef* TIMx, uint16_t TIM_ForcedAction)
1117:../STM32F4xx_StdPeriph_Driver/src/stm32f4xx_tim.c **** {
 2009              		.loc 1 1117 0
 2010              		.cfi_startproc
 2011              		@ args = 0, pretend = 0, frame = 16
 2012              		@ frame_needed = 1, uses_anonymous_args = 0
 2013              		@ link register save eliminated.
 2014 0b4c 80B4     		push	{r7}
 2015              	.LCFI75:
 2016              		.cfi_def_cfa_offset 4
 2017              		.cfi_offset 7, -4
 2018 0b4e 85B0     		sub	sp, sp, #20
 2019              	.LCFI76:
 2020              		.cfi_def_cfa_offset 24
 2021 0b50 00AF     		add	r7, sp, #0
 2022              	.LCFI77:
 2023              		.cfi_def_cfa_register 7
 2024 0b52 7860     		str	r0, [r7, #4]
 2025 0b54 0B46     		mov	r3, r1
 2026 0b56 7B80     		strh	r3, [r7, #2]	@ movhi
1118:../STM32F4xx_StdPeriph_Driver/src/stm32f4xx_tim.c ****   uint16_t tmpccmr1 = 0;
 2027              		.loc 1 1118 0
 2028 0b58 4FF00003 		mov	r3, #0
 2029 0b5c FB81     		strh	r3, [r7, #14]	@ movhi
1119:../STM32F4xx_StdPeriph_Driver/src/stm32f4xx_tim.c **** 
1120:../STM32F4xx_StdPeriph_Driver/src/stm32f4xx_tim.c ****   /* Check the parameters */
1121:../STM32F4xx_StdPeriph_Driver/src/stm32f4xx_tim.c ****   assert_param(IS_TIM_LIST1_PERIPH(TIMx));
1122:../STM32F4xx_StdPeriph_Driver/src/stm32f4xx_tim.c ****   assert_param(IS_TIM_FORCED_ACTION(TIM_ForcedAction));
1123:../STM32F4xx_StdPeriph_Driver/src/stm32f4xx_tim.c ****   tmpccmr1 = TIMx->CCMR1;
 2030              		.loc 1 1123 0
 2031 0b5e 7B68     		ldr	r3, [r7, #4]
 2032 0b60 1B8B     		ldrh	r3, [r3, #24]	@ movhi
 2033 0b62 FB81     		strh	r3, [r7, #14]	@ movhi
1124:../STM32F4xx_StdPeriph_Driver/src/stm32f4xx_tim.c **** 
1125:../STM32F4xx_StdPeriph_Driver/src/stm32f4xx_tim.c ****   /* Reset the OC1M Bits */
1126:../STM32F4xx_StdPeriph_Driver/src/stm32f4xx_tim.c ****   tmpccmr1 &= (uint16_t)~TIM_CCMR1_OC1M;
 2034              		.loc 1 1126 0
 2035 0b64 FB89     		ldrh	r3, [r7, #14]	@ movhi
 2036 0b66 23F07003 		bic	r3, r3, #112
 2037 0b6a FB81     		strh	r3, [r7, #14]	@ movhi
1127:../STM32F4xx_StdPeriph_Driver/src/stm32f4xx_tim.c **** 
1128:../STM32F4xx_StdPeriph_Driver/src/stm32f4xx_tim.c ****   /* Configure The Forced output Mode */
1129:../STM32F4xx_StdPeriph_Driver/src/stm32f4xx_tim.c ****   tmpccmr1 |= TIM_ForcedAction;
 2038              		.loc 1 1129 0
 2039 0b6c FA89     		ldrh	r2, [r7, #14]	@ movhi
 2040 0b6e 7B88     		ldrh	r3, [r7, #2]	@ movhi
 2041 0b70 1343     		orrs	r3, r3, r2
 2042 0b72 FB81     		strh	r3, [r7, #14]	@ movhi
1130:../STM32F4xx_StdPeriph_Driver/src/stm32f4xx_tim.c **** 
1131:../STM32F4xx_StdPeriph_Driver/src/stm32f4xx_tim.c ****   /* Write to TIMx CCMR1 register */
1132:../STM32F4xx_StdPeriph_Driver/src/stm32f4xx_tim.c ****   TIMx->CCMR1 = tmpccmr1;
 2043              		.loc 1 1132 0
 2044 0b74 7B68     		ldr	r3, [r7, #4]
 2045 0b76 FA89     		ldrh	r2, [r7, #14]	@ movhi
 2046 0b78 1A83     		strh	r2, [r3, #24]	@ movhi
1133:../STM32F4xx_StdPeriph_Driver/src/stm32f4xx_tim.c **** }
 2047              		.loc 1 1133 0
 2048 0b7a 07F11407 		add	r7, r7, #20
 2049 0b7e BD46     		mov	sp, r7
 2050 0b80 80BC     		pop	{r7}
 2051 0b82 7047     		bx	lr
 2052              		.cfi_endproc
 2053              	.LFE135:
 2055              		.align	2
 2056              		.global	TIM_ForcedOC2Config
 2057              		.thumb
 2058              		.thumb_func
 2060              	TIM_ForcedOC2Config:
 2061              	.LFB136:
1134:../STM32F4xx_StdPeriph_Driver/src/stm32f4xx_tim.c **** 
1135:../STM32F4xx_StdPeriph_Driver/src/stm32f4xx_tim.c **** /**
1136:../STM32F4xx_StdPeriph_Driver/src/stm32f4xx_tim.c ****   * @brief  Forces the TIMx output 2 waveform to active or inactive level.
1137:../STM32F4xx_StdPeriph_Driver/src/stm32f4xx_tim.c ****   * @param  TIMx: where x can be  1, 2, 3, 4, 5, 8, 9 or 12 to select the TIM 
1138:../STM32F4xx_StdPeriph_Driver/src/stm32f4xx_tim.c ****   *         peripheral.
1139:../STM32F4xx_StdPeriph_Driver/src/stm32f4xx_tim.c ****   * @param  TIM_ForcedAction: specifies the forced Action to be set to the output waveform.
1140:../STM32F4xx_StdPeriph_Driver/src/stm32f4xx_tim.c ****   *          This parameter can be one of the following values:
1141:../STM32F4xx_StdPeriph_Driver/src/stm32f4xx_tim.c ****   *            @arg TIM_ForcedAction_Active: Force active level on OC2REF
1142:../STM32F4xx_StdPeriph_Driver/src/stm32f4xx_tim.c ****   *            @arg TIM_ForcedAction_InActive: Force inactive level on OC2REF.
1143:../STM32F4xx_StdPeriph_Driver/src/stm32f4xx_tim.c ****   * @retval None
1144:../STM32F4xx_StdPeriph_Driver/src/stm32f4xx_tim.c ****   */
1145:../STM32F4xx_StdPeriph_Driver/src/stm32f4xx_tim.c **** void TIM_ForcedOC2Config(TIM_TypeDef* TIMx, uint16_t TIM_ForcedAction)
1146:../STM32F4xx_StdPeriph_Driver/src/stm32f4xx_tim.c **** {
 2062              		.loc 1 1146 0
 2063              		.cfi_startproc
 2064              		@ args = 0, pretend = 0, frame = 16
 2065              		@ frame_needed = 1, uses_anonymous_args = 0
 2066              		@ link register save eliminated.
 2067 0b84 80B4     		push	{r7}
 2068              	.LCFI78:
 2069              		.cfi_def_cfa_offset 4
 2070              		.cfi_offset 7, -4
 2071 0b86 85B0     		sub	sp, sp, #20
 2072              	.LCFI79:
 2073              		.cfi_def_cfa_offset 24
 2074 0b88 00AF     		add	r7, sp, #0
 2075              	.LCFI80:
 2076              		.cfi_def_cfa_register 7
 2077 0b8a 7860     		str	r0, [r7, #4]
 2078 0b8c 0B46     		mov	r3, r1
 2079 0b8e 7B80     		strh	r3, [r7, #2]	@ movhi
1147:../STM32F4xx_StdPeriph_Driver/src/stm32f4xx_tim.c ****   uint16_t tmpccmr1 = 0;
 2080              		.loc 1 1147 0
 2081 0b90 4FF00003 		mov	r3, #0
 2082 0b94 FB81     		strh	r3, [r7, #14]	@ movhi
1148:../STM32F4xx_StdPeriph_Driver/src/stm32f4xx_tim.c **** 
1149:../STM32F4xx_StdPeriph_Driver/src/stm32f4xx_tim.c ****   /* Check the parameters */
1150:../STM32F4xx_StdPeriph_Driver/src/stm32f4xx_tim.c ****   assert_param(IS_TIM_LIST2_PERIPH(TIMx));
1151:../STM32F4xx_StdPeriph_Driver/src/stm32f4xx_tim.c ****   assert_param(IS_TIM_FORCED_ACTION(TIM_ForcedAction));
1152:../STM32F4xx_StdPeriph_Driver/src/stm32f4xx_tim.c ****   tmpccmr1 = TIMx->CCMR1;
 2083              		.loc 1 1152 0
 2084 0b96 7B68     		ldr	r3, [r7, #4]
 2085 0b98 1B8B     		ldrh	r3, [r3, #24]	@ movhi
 2086 0b9a FB81     		strh	r3, [r7, #14]	@ movhi
1153:../STM32F4xx_StdPeriph_Driver/src/stm32f4xx_tim.c **** 
1154:../STM32F4xx_StdPeriph_Driver/src/stm32f4xx_tim.c ****   /* Reset the OC2M Bits */
1155:../STM32F4xx_StdPeriph_Driver/src/stm32f4xx_tim.c ****   tmpccmr1 &= (uint16_t)~TIM_CCMR1_OC2M;
 2087              		.loc 1 1155 0
 2088 0b9c FB89     		ldrh	r3, [r7, #14]	@ movhi
 2089 0b9e 23F4E043 		bic	r3, r3, #28672
 2090 0ba2 FB81     		strh	r3, [r7, #14]	@ movhi
1156:../STM32F4xx_StdPeriph_Driver/src/stm32f4xx_tim.c **** 
1157:../STM32F4xx_StdPeriph_Driver/src/stm32f4xx_tim.c ****   /* Configure The Forced output Mode */
1158:../STM32F4xx_StdPeriph_Driver/src/stm32f4xx_tim.c ****   tmpccmr1 |= (uint16_t)(TIM_ForcedAction << 8);
 2091              		.loc 1 1158 0
 2092 0ba4 7B88     		ldrh	r3, [r7, #2]	@ movhi
 2093 0ba6 4FEA0323 		lsl	r3, r3, #8
 2094 0baa 9AB2     		uxth	r2, r3
 2095 0bac FB89     		ldrh	r3, [r7, #14]	@ movhi
 2096 0bae 1343     		orrs	r3, r3, r2
 2097 0bb0 FB81     		strh	r3, [r7, #14]	@ movhi
1159:../STM32F4xx_StdPeriph_Driver/src/stm32f4xx_tim.c **** 
1160:../STM32F4xx_StdPeriph_Driver/src/stm32f4xx_tim.c ****   /* Write to TIMx CCMR1 register */
1161:../STM32F4xx_StdPeriph_Driver/src/stm32f4xx_tim.c ****   TIMx->CCMR1 = tmpccmr1;
 2098              		.loc 1 1161 0
 2099 0bb2 7B68     		ldr	r3, [r7, #4]
 2100 0bb4 FA89     		ldrh	r2, [r7, #14]	@ movhi
 2101 0bb6 1A83     		strh	r2, [r3, #24]	@ movhi
1162:../STM32F4xx_StdPeriph_Driver/src/stm32f4xx_tim.c **** }
 2102              		.loc 1 1162 0
 2103 0bb8 07F11407 		add	r7, r7, #20
 2104 0bbc BD46     		mov	sp, r7
 2105 0bbe 80BC     		pop	{r7}
 2106 0bc0 7047     		bx	lr
 2107              		.cfi_endproc
 2108              	.LFE136:
 2110 0bc2 00BF     		.align	2
 2111              		.global	TIM_ForcedOC3Config
 2112              		.thumb
 2113              		.thumb_func
 2115              	TIM_ForcedOC3Config:
 2116              	.LFB137:
1163:../STM32F4xx_StdPeriph_Driver/src/stm32f4xx_tim.c **** 
1164:../STM32F4xx_StdPeriph_Driver/src/stm32f4xx_tim.c **** /**
1165:../STM32F4xx_StdPeriph_Driver/src/stm32f4xx_tim.c ****   * @brief  Forces the TIMx output 3 waveform to active or inactive level.
1166:../STM32F4xx_StdPeriph_Driver/src/stm32f4xx_tim.c ****   * @param  TIMx: where x can be  1, 2, 3, 4, 5 or 8 to select the TIM peripheral.
1167:../STM32F4xx_StdPeriph_Driver/src/stm32f4xx_tim.c ****   * @param  TIM_ForcedAction: specifies the forced Action to be set to the output waveform.
1168:../STM32F4xx_StdPeriph_Driver/src/stm32f4xx_tim.c ****   *          This parameter can be one of the following values:
1169:../STM32F4xx_StdPeriph_Driver/src/stm32f4xx_tim.c ****   *            @arg TIM_ForcedAction_Active: Force active level on OC3REF
1170:../STM32F4xx_StdPeriph_Driver/src/stm32f4xx_tim.c ****   *            @arg TIM_ForcedAction_InActive: Force inactive level on OC3REF.
1171:../STM32F4xx_StdPeriph_Driver/src/stm32f4xx_tim.c ****   * @retval None
1172:../STM32F4xx_StdPeriph_Driver/src/stm32f4xx_tim.c ****   */
1173:../STM32F4xx_StdPeriph_Driver/src/stm32f4xx_tim.c **** void TIM_ForcedOC3Config(TIM_TypeDef* TIMx, uint16_t TIM_ForcedAction)
1174:../STM32F4xx_StdPeriph_Driver/src/stm32f4xx_tim.c **** {
 2117              		.loc 1 1174 0
 2118              		.cfi_startproc
 2119              		@ args = 0, pretend = 0, frame = 16
 2120              		@ frame_needed = 1, uses_anonymous_args = 0
 2121              		@ link register save eliminated.
 2122 0bc4 80B4     		push	{r7}
 2123              	.LCFI81:
 2124              		.cfi_def_cfa_offset 4
 2125              		.cfi_offset 7, -4
 2126 0bc6 85B0     		sub	sp, sp, #20
 2127              	.LCFI82:
 2128              		.cfi_def_cfa_offset 24
 2129 0bc8 00AF     		add	r7, sp, #0
 2130              	.LCFI83:
 2131              		.cfi_def_cfa_register 7
 2132 0bca 7860     		str	r0, [r7, #4]
 2133 0bcc 0B46     		mov	r3, r1
 2134 0bce 7B80     		strh	r3, [r7, #2]	@ movhi
1175:../STM32F4xx_StdPeriph_Driver/src/stm32f4xx_tim.c ****   uint16_t tmpccmr2 = 0;
 2135              		.loc 1 1175 0
 2136 0bd0 4FF00003 		mov	r3, #0
 2137 0bd4 FB81     		strh	r3, [r7, #14]	@ movhi
1176:../STM32F4xx_StdPeriph_Driver/src/stm32f4xx_tim.c **** 
1177:../STM32F4xx_StdPeriph_Driver/src/stm32f4xx_tim.c ****   /* Check the parameters */
1178:../STM32F4xx_StdPeriph_Driver/src/stm32f4xx_tim.c ****   assert_param(IS_TIM_LIST3_PERIPH(TIMx));
1179:../STM32F4xx_StdPeriph_Driver/src/stm32f4xx_tim.c ****   assert_param(IS_TIM_FORCED_ACTION(TIM_ForcedAction));
1180:../STM32F4xx_StdPeriph_Driver/src/stm32f4xx_tim.c **** 
1181:../STM32F4xx_StdPeriph_Driver/src/stm32f4xx_tim.c ****   tmpccmr2 = TIMx->CCMR2;
 2138              		.loc 1 1181 0
 2139 0bd6 7B68     		ldr	r3, [r7, #4]
 2140 0bd8 9B8B     		ldrh	r3, [r3, #28]	@ movhi
 2141 0bda FB81     		strh	r3, [r7, #14]	@ movhi
1182:../STM32F4xx_StdPeriph_Driver/src/stm32f4xx_tim.c **** 
1183:../STM32F4xx_StdPeriph_Driver/src/stm32f4xx_tim.c ****   /* Reset the OC1M Bits */
1184:../STM32F4xx_StdPeriph_Driver/src/stm32f4xx_tim.c ****   tmpccmr2 &= (uint16_t)~TIM_CCMR2_OC3M;
 2142              		.loc 1 1184 0
 2143 0bdc FB89     		ldrh	r3, [r7, #14]	@ movhi
 2144 0bde 23F07003 		bic	r3, r3, #112
 2145 0be2 FB81     		strh	r3, [r7, #14]	@ movhi
1185:../STM32F4xx_StdPeriph_Driver/src/stm32f4xx_tim.c **** 
1186:../STM32F4xx_StdPeriph_Driver/src/stm32f4xx_tim.c ****   /* Configure The Forced output Mode */
1187:../STM32F4xx_StdPeriph_Driver/src/stm32f4xx_tim.c ****   tmpccmr2 |= TIM_ForcedAction;
 2146              		.loc 1 1187 0
 2147 0be4 FA89     		ldrh	r2, [r7, #14]	@ movhi
 2148 0be6 7B88     		ldrh	r3, [r7, #2]	@ movhi
 2149 0be8 1343     		orrs	r3, r3, r2
 2150 0bea FB81     		strh	r3, [r7, #14]	@ movhi
1188:../STM32F4xx_StdPeriph_Driver/src/stm32f4xx_tim.c **** 
1189:../STM32F4xx_StdPeriph_Driver/src/stm32f4xx_tim.c ****   /* Write to TIMx CCMR2 register */
1190:../STM32F4xx_StdPeriph_Driver/src/stm32f4xx_tim.c ****   TIMx->CCMR2 = tmpccmr2;
 2151              		.loc 1 1190 0
 2152 0bec 7B68     		ldr	r3, [r7, #4]
 2153 0bee FA89     		ldrh	r2, [r7, #14]	@ movhi
 2154 0bf0 9A83     		strh	r2, [r3, #28]	@ movhi
1191:../STM32F4xx_StdPeriph_Driver/src/stm32f4xx_tim.c **** }
 2155              		.loc 1 1191 0
 2156 0bf2 07F11407 		add	r7, r7, #20
 2157 0bf6 BD46     		mov	sp, r7
 2158 0bf8 80BC     		pop	{r7}
 2159 0bfa 7047     		bx	lr
 2160              		.cfi_endproc
 2161              	.LFE137:
 2163              		.align	2
 2164              		.global	TIM_ForcedOC4Config
 2165              		.thumb
 2166              		.thumb_func
 2168              	TIM_ForcedOC4Config:
 2169              	.LFB138:
1192:../STM32F4xx_StdPeriph_Driver/src/stm32f4xx_tim.c **** 
1193:../STM32F4xx_StdPeriph_Driver/src/stm32f4xx_tim.c **** /**
1194:../STM32F4xx_StdPeriph_Driver/src/stm32f4xx_tim.c ****   * @brief  Forces the TIMx output 4 waveform to active or inactive level.
1195:../STM32F4xx_StdPeriph_Driver/src/stm32f4xx_tim.c ****   * @param  TIMx: where x can be  1, 2, 3, 4, 5 or 8 to select the TIM peripheral.
1196:../STM32F4xx_StdPeriph_Driver/src/stm32f4xx_tim.c ****   * @param  TIM_ForcedAction: specifies the forced Action to be set to the output waveform.
1197:../STM32F4xx_StdPeriph_Driver/src/stm32f4xx_tim.c ****   *          This parameter can be one of the following values:
1198:../STM32F4xx_StdPeriph_Driver/src/stm32f4xx_tim.c ****   *            @arg TIM_ForcedAction_Active: Force active level on OC4REF
1199:../STM32F4xx_StdPeriph_Driver/src/stm32f4xx_tim.c ****   *            @arg TIM_ForcedAction_InActive: Force inactive level on OC4REF.
1200:../STM32F4xx_StdPeriph_Driver/src/stm32f4xx_tim.c ****   * @retval None
1201:../STM32F4xx_StdPeriph_Driver/src/stm32f4xx_tim.c ****   */
1202:../STM32F4xx_StdPeriph_Driver/src/stm32f4xx_tim.c **** void TIM_ForcedOC4Config(TIM_TypeDef* TIMx, uint16_t TIM_ForcedAction)
1203:../STM32F4xx_StdPeriph_Driver/src/stm32f4xx_tim.c **** {
 2170              		.loc 1 1203 0
 2171              		.cfi_startproc
 2172              		@ args = 0, pretend = 0, frame = 16
 2173              		@ frame_needed = 1, uses_anonymous_args = 0
 2174              		@ link register save eliminated.
 2175 0bfc 80B4     		push	{r7}
 2176              	.LCFI84:
 2177              		.cfi_def_cfa_offset 4
 2178              		.cfi_offset 7, -4
 2179 0bfe 85B0     		sub	sp, sp, #20
 2180              	.LCFI85:
 2181              		.cfi_def_cfa_offset 24
 2182 0c00 00AF     		add	r7, sp, #0
 2183              	.LCFI86:
 2184              		.cfi_def_cfa_register 7
 2185 0c02 7860     		str	r0, [r7, #4]
 2186 0c04 0B46     		mov	r3, r1
 2187 0c06 7B80     		strh	r3, [r7, #2]	@ movhi
1204:../STM32F4xx_StdPeriph_Driver/src/stm32f4xx_tim.c ****   uint16_t tmpccmr2 = 0;
 2188              		.loc 1 1204 0
 2189 0c08 4FF00003 		mov	r3, #0
 2190 0c0c FB81     		strh	r3, [r7, #14]	@ movhi
1205:../STM32F4xx_StdPeriph_Driver/src/stm32f4xx_tim.c **** 
1206:../STM32F4xx_StdPeriph_Driver/src/stm32f4xx_tim.c ****   /* Check the parameters */
1207:../STM32F4xx_StdPeriph_Driver/src/stm32f4xx_tim.c ****   assert_param(IS_TIM_LIST3_PERIPH(TIMx));
1208:../STM32F4xx_StdPeriph_Driver/src/stm32f4xx_tim.c ****   assert_param(IS_TIM_FORCED_ACTION(TIM_ForcedAction));
1209:../STM32F4xx_StdPeriph_Driver/src/stm32f4xx_tim.c ****   tmpccmr2 = TIMx->CCMR2;
 2191              		.loc 1 1209 0
 2192 0c0e 7B68     		ldr	r3, [r7, #4]
 2193 0c10 9B8B     		ldrh	r3, [r3, #28]	@ movhi
 2194 0c12 FB81     		strh	r3, [r7, #14]	@ movhi
1210:../STM32F4xx_StdPeriph_Driver/src/stm32f4xx_tim.c **** 
1211:../STM32F4xx_StdPeriph_Driver/src/stm32f4xx_tim.c ****   /* Reset the OC2M Bits */
1212:../STM32F4xx_StdPeriph_Driver/src/stm32f4xx_tim.c ****   tmpccmr2 &= (uint16_t)~TIM_CCMR2_OC4M;
 2195              		.loc 1 1212 0
 2196 0c14 FB89     		ldrh	r3, [r7, #14]	@ movhi
 2197 0c16 23F4E043 		bic	r3, r3, #28672
 2198 0c1a FB81     		strh	r3, [r7, #14]	@ movhi
1213:../STM32F4xx_StdPeriph_Driver/src/stm32f4xx_tim.c **** 
1214:../STM32F4xx_StdPeriph_Driver/src/stm32f4xx_tim.c ****   /* Configure The Forced output Mode */
1215:../STM32F4xx_StdPeriph_Driver/src/stm32f4xx_tim.c ****   tmpccmr2 |= (uint16_t)(TIM_ForcedAction << 8);
 2199              		.loc 1 1215 0
 2200 0c1c 7B88     		ldrh	r3, [r7, #2]	@ movhi
 2201 0c1e 4FEA0323 		lsl	r3, r3, #8
 2202 0c22 9AB2     		uxth	r2, r3
 2203 0c24 FB89     		ldrh	r3, [r7, #14]	@ movhi
 2204 0c26 1343     		orrs	r3, r3, r2
 2205 0c28 FB81     		strh	r3, [r7, #14]	@ movhi
1216:../STM32F4xx_StdPeriph_Driver/src/stm32f4xx_tim.c **** 
1217:../STM32F4xx_StdPeriph_Driver/src/stm32f4xx_tim.c ****   /* Write to TIMx CCMR2 register */
1218:../STM32F4xx_StdPeriph_Driver/src/stm32f4xx_tim.c ****   TIMx->CCMR2 = tmpccmr2;
 2206              		.loc 1 1218 0
 2207 0c2a 7B68     		ldr	r3, [r7, #4]
 2208 0c2c FA89     		ldrh	r2, [r7, #14]	@ movhi
 2209 0c2e 9A83     		strh	r2, [r3, #28]	@ movhi
1219:../STM32F4xx_StdPeriph_Driver/src/stm32f4xx_tim.c **** }
 2210              		.loc 1 1219 0
 2211 0c30 07F11407 		add	r7, r7, #20
 2212 0c34 BD46     		mov	sp, r7
 2213 0c36 80BC     		pop	{r7}
 2214 0c38 7047     		bx	lr
 2215              		.cfi_endproc
 2216              	.LFE138:
 2218 0c3a 00BF     		.align	2
 2219              		.global	TIM_OC1PreloadConfig
 2220              		.thumb
 2221              		.thumb_func
 2223              	TIM_OC1PreloadConfig:
 2224              	.LFB139:
1220:../STM32F4xx_StdPeriph_Driver/src/stm32f4xx_tim.c **** 
1221:../STM32F4xx_StdPeriph_Driver/src/stm32f4xx_tim.c **** /**
1222:../STM32F4xx_StdPeriph_Driver/src/stm32f4xx_tim.c ****   * @brief  Enables or disables the TIMx peripheral Preload register on CCR1.
1223:../STM32F4xx_StdPeriph_Driver/src/stm32f4xx_tim.c ****   * @param  TIMx: where x can be 1 to 14 except 6 and 7, to select the TIM peripheral.
1224:../STM32F4xx_StdPeriph_Driver/src/stm32f4xx_tim.c ****   * @param  TIM_OCPreload: new state of the TIMx peripheral Preload register
1225:../STM32F4xx_StdPeriph_Driver/src/stm32f4xx_tim.c ****   *          This parameter can be one of the following values:
1226:../STM32F4xx_StdPeriph_Driver/src/stm32f4xx_tim.c ****   *            @arg TIM_OCPreload_Enable
1227:../STM32F4xx_StdPeriph_Driver/src/stm32f4xx_tim.c ****   *            @arg TIM_OCPreload_Disable
1228:../STM32F4xx_StdPeriph_Driver/src/stm32f4xx_tim.c ****   * @retval None
1229:../STM32F4xx_StdPeriph_Driver/src/stm32f4xx_tim.c ****   */
1230:../STM32F4xx_StdPeriph_Driver/src/stm32f4xx_tim.c **** void TIM_OC1PreloadConfig(TIM_TypeDef* TIMx, uint16_t TIM_OCPreload)
1231:../STM32F4xx_StdPeriph_Driver/src/stm32f4xx_tim.c **** {
 2225              		.loc 1 1231 0
 2226              		.cfi_startproc
 2227              		@ args = 0, pretend = 0, frame = 16
 2228              		@ frame_needed = 1, uses_anonymous_args = 0
 2229              		@ link register save eliminated.
 2230 0c3c 80B4     		push	{r7}
 2231              	.LCFI87:
 2232              		.cfi_def_cfa_offset 4
 2233              		.cfi_offset 7, -4
 2234 0c3e 85B0     		sub	sp, sp, #20
 2235              	.LCFI88:
 2236              		.cfi_def_cfa_offset 24
 2237 0c40 00AF     		add	r7, sp, #0
 2238              	.LCFI89:
 2239              		.cfi_def_cfa_register 7
 2240 0c42 7860     		str	r0, [r7, #4]
 2241 0c44 0B46     		mov	r3, r1
 2242 0c46 7B80     		strh	r3, [r7, #2]	@ movhi
1232:../STM32F4xx_StdPeriph_Driver/src/stm32f4xx_tim.c ****   uint16_t tmpccmr1 = 0;
 2243              		.loc 1 1232 0
 2244 0c48 4FF00003 		mov	r3, #0
 2245 0c4c FB81     		strh	r3, [r7, #14]	@ movhi
1233:../STM32F4xx_StdPeriph_Driver/src/stm32f4xx_tim.c **** 
1234:../STM32F4xx_StdPeriph_Driver/src/stm32f4xx_tim.c ****   /* Check the parameters */
1235:../STM32F4xx_StdPeriph_Driver/src/stm32f4xx_tim.c ****   assert_param(IS_TIM_LIST1_PERIPH(TIMx));
1236:../STM32F4xx_StdPeriph_Driver/src/stm32f4xx_tim.c ****   assert_param(IS_TIM_OCPRELOAD_STATE(TIM_OCPreload));
1237:../STM32F4xx_StdPeriph_Driver/src/stm32f4xx_tim.c **** 
1238:../STM32F4xx_StdPeriph_Driver/src/stm32f4xx_tim.c ****   tmpccmr1 = TIMx->CCMR1;
 2246              		.loc 1 1238 0
 2247 0c4e 7B68     		ldr	r3, [r7, #4]
 2248 0c50 1B8B     		ldrh	r3, [r3, #24]	@ movhi
 2249 0c52 FB81     		strh	r3, [r7, #14]	@ movhi
1239:../STM32F4xx_StdPeriph_Driver/src/stm32f4xx_tim.c **** 
1240:../STM32F4xx_StdPeriph_Driver/src/stm32f4xx_tim.c ****   /* Reset the OC1PE Bit */
1241:../STM32F4xx_StdPeriph_Driver/src/stm32f4xx_tim.c ****   tmpccmr1 &= (uint16_t)(~TIM_CCMR1_OC1PE);
 2250              		.loc 1 1241 0
 2251 0c54 FB89     		ldrh	r3, [r7, #14]	@ movhi
 2252 0c56 23F00803 		bic	r3, r3, #8
 2253 0c5a FB81     		strh	r3, [r7, #14]	@ movhi
1242:../STM32F4xx_StdPeriph_Driver/src/stm32f4xx_tim.c **** 
1243:../STM32F4xx_StdPeriph_Driver/src/stm32f4xx_tim.c ****   /* Enable or Disable the Output Compare Preload feature */
1244:../STM32F4xx_StdPeriph_Driver/src/stm32f4xx_tim.c ****   tmpccmr1 |= TIM_OCPreload;
 2254              		.loc 1 1244 0
 2255 0c5c FA89     		ldrh	r2, [r7, #14]	@ movhi
 2256 0c5e 7B88     		ldrh	r3, [r7, #2]	@ movhi
 2257 0c60 1343     		orrs	r3, r3, r2
 2258 0c62 FB81     		strh	r3, [r7, #14]	@ movhi
1245:../STM32F4xx_StdPeriph_Driver/src/stm32f4xx_tim.c **** 
1246:../STM32F4xx_StdPeriph_Driver/src/stm32f4xx_tim.c ****   /* Write to TIMx CCMR1 register */
1247:../STM32F4xx_StdPeriph_Driver/src/stm32f4xx_tim.c ****   TIMx->CCMR1 = tmpccmr1;
 2259              		.loc 1 1247 0
 2260 0c64 7B68     		ldr	r3, [r7, #4]
 2261 0c66 FA89     		ldrh	r2, [r7, #14]	@ movhi
 2262 0c68 1A83     		strh	r2, [r3, #24]	@ movhi
1248:../STM32F4xx_StdPeriph_Driver/src/stm32f4xx_tim.c **** }
 2263              		.loc 1 1248 0
 2264 0c6a 07F11407 		add	r7, r7, #20
 2265 0c6e BD46     		mov	sp, r7
 2266 0c70 80BC     		pop	{r7}
 2267 0c72 7047     		bx	lr
 2268              		.cfi_endproc
 2269              	.LFE139:
 2271              		.align	2
 2272              		.global	TIM_OC2PreloadConfig
 2273              		.thumb
 2274              		.thumb_func
 2276              	TIM_OC2PreloadConfig:
 2277              	.LFB140:
1249:../STM32F4xx_StdPeriph_Driver/src/stm32f4xx_tim.c **** 
1250:../STM32F4xx_StdPeriph_Driver/src/stm32f4xx_tim.c **** /**
1251:../STM32F4xx_StdPeriph_Driver/src/stm32f4xx_tim.c ****   * @brief  Enables or disables the TIMx peripheral Preload register on CCR2.
1252:../STM32F4xx_StdPeriph_Driver/src/stm32f4xx_tim.c ****   * @param  TIMx: where x can be  1, 2, 3, 4, 5, 8, 9 or 12 to select the TIM 
1253:../STM32F4xx_StdPeriph_Driver/src/stm32f4xx_tim.c ****   *         peripheral.
1254:../STM32F4xx_StdPeriph_Driver/src/stm32f4xx_tim.c ****   * @param  TIM_OCPreload: new state of the TIMx peripheral Preload register
1255:../STM32F4xx_StdPeriph_Driver/src/stm32f4xx_tim.c ****   *          This parameter can be one of the following values:
1256:../STM32F4xx_StdPeriph_Driver/src/stm32f4xx_tim.c ****   *            @arg TIM_OCPreload_Enable
1257:../STM32F4xx_StdPeriph_Driver/src/stm32f4xx_tim.c ****   *            @arg TIM_OCPreload_Disable
1258:../STM32F4xx_StdPeriph_Driver/src/stm32f4xx_tim.c ****   * @retval None
1259:../STM32F4xx_StdPeriph_Driver/src/stm32f4xx_tim.c ****   */
1260:../STM32F4xx_StdPeriph_Driver/src/stm32f4xx_tim.c **** void TIM_OC2PreloadConfig(TIM_TypeDef* TIMx, uint16_t TIM_OCPreload)
1261:../STM32F4xx_StdPeriph_Driver/src/stm32f4xx_tim.c **** {
 2278              		.loc 1 1261 0
 2279              		.cfi_startproc
 2280              		@ args = 0, pretend = 0, frame = 16
 2281              		@ frame_needed = 1, uses_anonymous_args = 0
 2282              		@ link register save eliminated.
 2283 0c74 80B4     		push	{r7}
 2284              	.LCFI90:
 2285              		.cfi_def_cfa_offset 4
 2286              		.cfi_offset 7, -4
 2287 0c76 85B0     		sub	sp, sp, #20
 2288              	.LCFI91:
 2289              		.cfi_def_cfa_offset 24
 2290 0c78 00AF     		add	r7, sp, #0
 2291              	.LCFI92:
 2292              		.cfi_def_cfa_register 7
 2293 0c7a 7860     		str	r0, [r7, #4]
 2294 0c7c 0B46     		mov	r3, r1
 2295 0c7e 7B80     		strh	r3, [r7, #2]	@ movhi
1262:../STM32F4xx_StdPeriph_Driver/src/stm32f4xx_tim.c ****   uint16_t tmpccmr1 = 0;
 2296              		.loc 1 1262 0
 2297 0c80 4FF00003 		mov	r3, #0
 2298 0c84 FB81     		strh	r3, [r7, #14]	@ movhi
1263:../STM32F4xx_StdPeriph_Driver/src/stm32f4xx_tim.c **** 
1264:../STM32F4xx_StdPeriph_Driver/src/stm32f4xx_tim.c ****   /* Check the parameters */
1265:../STM32F4xx_StdPeriph_Driver/src/stm32f4xx_tim.c ****   assert_param(IS_TIM_LIST2_PERIPH(TIMx));
1266:../STM32F4xx_StdPeriph_Driver/src/stm32f4xx_tim.c ****   assert_param(IS_TIM_OCPRELOAD_STATE(TIM_OCPreload));
1267:../STM32F4xx_StdPeriph_Driver/src/stm32f4xx_tim.c **** 
1268:../STM32F4xx_StdPeriph_Driver/src/stm32f4xx_tim.c ****   tmpccmr1 = TIMx->CCMR1;
 2299              		.loc 1 1268 0
 2300 0c86 7B68     		ldr	r3, [r7, #4]
 2301 0c88 1B8B     		ldrh	r3, [r3, #24]	@ movhi
 2302 0c8a FB81     		strh	r3, [r7, #14]	@ movhi
1269:../STM32F4xx_StdPeriph_Driver/src/stm32f4xx_tim.c **** 
1270:../STM32F4xx_StdPeriph_Driver/src/stm32f4xx_tim.c ****   /* Reset the OC2PE Bit */
1271:../STM32F4xx_StdPeriph_Driver/src/stm32f4xx_tim.c ****   tmpccmr1 &= (uint16_t)(~TIM_CCMR1_OC2PE);
 2303              		.loc 1 1271 0
 2304 0c8c FB89     		ldrh	r3, [r7, #14]	@ movhi
 2305 0c8e 23F40063 		bic	r3, r3, #2048
 2306 0c92 FB81     		strh	r3, [r7, #14]	@ movhi
1272:../STM32F4xx_StdPeriph_Driver/src/stm32f4xx_tim.c **** 
1273:../STM32F4xx_StdPeriph_Driver/src/stm32f4xx_tim.c ****   /* Enable or Disable the Output Compare Preload feature */
1274:../STM32F4xx_StdPeriph_Driver/src/stm32f4xx_tim.c ****   tmpccmr1 |= (uint16_t)(TIM_OCPreload << 8);
 2307              		.loc 1 1274 0
 2308 0c94 7B88     		ldrh	r3, [r7, #2]	@ movhi
 2309 0c96 4FEA0323 		lsl	r3, r3, #8
 2310 0c9a 9AB2     		uxth	r2, r3
 2311 0c9c FB89     		ldrh	r3, [r7, #14]	@ movhi
 2312 0c9e 1343     		orrs	r3, r3, r2
 2313 0ca0 FB81     		strh	r3, [r7, #14]	@ movhi
1275:../STM32F4xx_StdPeriph_Driver/src/stm32f4xx_tim.c **** 
1276:../STM32F4xx_StdPeriph_Driver/src/stm32f4xx_tim.c ****   /* Write to TIMx CCMR1 register */
1277:../STM32F4xx_StdPeriph_Driver/src/stm32f4xx_tim.c ****   TIMx->CCMR1 = tmpccmr1;
 2314              		.loc 1 1277 0
 2315 0ca2 7B68     		ldr	r3, [r7, #4]
 2316 0ca4 FA89     		ldrh	r2, [r7, #14]	@ movhi
 2317 0ca6 1A83     		strh	r2, [r3, #24]	@ movhi
1278:../STM32F4xx_StdPeriph_Driver/src/stm32f4xx_tim.c **** }
 2318              		.loc 1 1278 0
 2319 0ca8 07F11407 		add	r7, r7, #20
 2320 0cac BD46     		mov	sp, r7
 2321 0cae 80BC     		pop	{r7}
 2322 0cb0 7047     		bx	lr
 2323              		.cfi_endproc
 2324              	.LFE140:
 2326 0cb2 00BF     		.align	2
 2327              		.global	TIM_OC3PreloadConfig
 2328              		.thumb
 2329              		.thumb_func
 2331              	TIM_OC3PreloadConfig:
 2332              	.LFB141:
1279:../STM32F4xx_StdPeriph_Driver/src/stm32f4xx_tim.c **** 
1280:../STM32F4xx_StdPeriph_Driver/src/stm32f4xx_tim.c **** /**
1281:../STM32F4xx_StdPeriph_Driver/src/stm32f4xx_tim.c ****   * @brief  Enables or disables the TIMx peripheral Preload register on CCR3.
1282:../STM32F4xx_StdPeriph_Driver/src/stm32f4xx_tim.c ****   * @param  TIMx: where x can be  1, 2, 3, 4, 5 or 8 to select the TIM peripheral.
1283:../STM32F4xx_StdPeriph_Driver/src/stm32f4xx_tim.c ****   * @param  TIM_OCPreload: new state of the TIMx peripheral Preload register
1284:../STM32F4xx_StdPeriph_Driver/src/stm32f4xx_tim.c ****   *          This parameter can be one of the following values:
1285:../STM32F4xx_StdPeriph_Driver/src/stm32f4xx_tim.c ****   *            @arg TIM_OCPreload_Enable
1286:../STM32F4xx_StdPeriph_Driver/src/stm32f4xx_tim.c ****   *            @arg TIM_OCPreload_Disable
1287:../STM32F4xx_StdPeriph_Driver/src/stm32f4xx_tim.c ****   * @retval None
1288:../STM32F4xx_StdPeriph_Driver/src/stm32f4xx_tim.c ****   */
1289:../STM32F4xx_StdPeriph_Driver/src/stm32f4xx_tim.c **** void TIM_OC3PreloadConfig(TIM_TypeDef* TIMx, uint16_t TIM_OCPreload)
1290:../STM32F4xx_StdPeriph_Driver/src/stm32f4xx_tim.c **** {
 2333              		.loc 1 1290 0
 2334              		.cfi_startproc
 2335              		@ args = 0, pretend = 0, frame = 16
 2336              		@ frame_needed = 1, uses_anonymous_args = 0
 2337              		@ link register save eliminated.
 2338 0cb4 80B4     		push	{r7}
 2339              	.LCFI93:
 2340              		.cfi_def_cfa_offset 4
 2341              		.cfi_offset 7, -4
 2342 0cb6 85B0     		sub	sp, sp, #20
 2343              	.LCFI94:
 2344              		.cfi_def_cfa_offset 24
 2345 0cb8 00AF     		add	r7, sp, #0
 2346              	.LCFI95:
 2347              		.cfi_def_cfa_register 7
 2348 0cba 7860     		str	r0, [r7, #4]
 2349 0cbc 0B46     		mov	r3, r1
 2350 0cbe 7B80     		strh	r3, [r7, #2]	@ movhi
1291:../STM32F4xx_StdPeriph_Driver/src/stm32f4xx_tim.c ****   uint16_t tmpccmr2 = 0;
 2351              		.loc 1 1291 0
 2352 0cc0 4FF00003 		mov	r3, #0
 2353 0cc4 FB81     		strh	r3, [r7, #14]	@ movhi
1292:../STM32F4xx_StdPeriph_Driver/src/stm32f4xx_tim.c **** 
1293:../STM32F4xx_StdPeriph_Driver/src/stm32f4xx_tim.c ****   /* Check the parameters */
1294:../STM32F4xx_StdPeriph_Driver/src/stm32f4xx_tim.c ****   assert_param(IS_TIM_LIST3_PERIPH(TIMx));
1295:../STM32F4xx_StdPeriph_Driver/src/stm32f4xx_tim.c ****   assert_param(IS_TIM_OCPRELOAD_STATE(TIM_OCPreload));
1296:../STM32F4xx_StdPeriph_Driver/src/stm32f4xx_tim.c **** 
1297:../STM32F4xx_StdPeriph_Driver/src/stm32f4xx_tim.c ****   tmpccmr2 = TIMx->CCMR2;
 2354              		.loc 1 1297 0
 2355 0cc6 7B68     		ldr	r3, [r7, #4]
 2356 0cc8 9B8B     		ldrh	r3, [r3, #28]	@ movhi
 2357 0cca FB81     		strh	r3, [r7, #14]	@ movhi
1298:../STM32F4xx_StdPeriph_Driver/src/stm32f4xx_tim.c **** 
1299:../STM32F4xx_StdPeriph_Driver/src/stm32f4xx_tim.c ****   /* Reset the OC3PE Bit */
1300:../STM32F4xx_StdPeriph_Driver/src/stm32f4xx_tim.c ****   tmpccmr2 &= (uint16_t)(~TIM_CCMR2_OC3PE);
 2358              		.loc 1 1300 0
 2359 0ccc FB89     		ldrh	r3, [r7, #14]	@ movhi
 2360 0cce 23F00803 		bic	r3, r3, #8
 2361 0cd2 FB81     		strh	r3, [r7, #14]	@ movhi
1301:../STM32F4xx_StdPeriph_Driver/src/stm32f4xx_tim.c **** 
1302:../STM32F4xx_StdPeriph_Driver/src/stm32f4xx_tim.c ****   /* Enable or Disable the Output Compare Preload feature */
1303:../STM32F4xx_StdPeriph_Driver/src/stm32f4xx_tim.c ****   tmpccmr2 |= TIM_OCPreload;
 2362              		.loc 1 1303 0
 2363 0cd4 FA89     		ldrh	r2, [r7, #14]	@ movhi
 2364 0cd6 7B88     		ldrh	r3, [r7, #2]	@ movhi
 2365 0cd8 1343     		orrs	r3, r3, r2
 2366 0cda FB81     		strh	r3, [r7, #14]	@ movhi
1304:../STM32F4xx_StdPeriph_Driver/src/stm32f4xx_tim.c **** 
1305:../STM32F4xx_StdPeriph_Driver/src/stm32f4xx_tim.c ****   /* Write to TIMx CCMR2 register */
1306:../STM32F4xx_StdPeriph_Driver/src/stm32f4xx_tim.c ****   TIMx->CCMR2 = tmpccmr2;
 2367              		.loc 1 1306 0
 2368 0cdc 7B68     		ldr	r3, [r7, #4]
 2369 0cde FA89     		ldrh	r2, [r7, #14]	@ movhi
 2370 0ce0 9A83     		strh	r2, [r3, #28]	@ movhi
1307:../STM32F4xx_StdPeriph_Driver/src/stm32f4xx_tim.c **** }
 2371              		.loc 1 1307 0
 2372 0ce2 07F11407 		add	r7, r7, #20
 2373 0ce6 BD46     		mov	sp, r7
 2374 0ce8 80BC     		pop	{r7}
 2375 0cea 7047     		bx	lr
 2376              		.cfi_endproc
 2377              	.LFE141:
 2379              		.align	2
 2380              		.global	TIM_OC4PreloadConfig
 2381              		.thumb
 2382              		.thumb_func
 2384              	TIM_OC4PreloadConfig:
 2385              	.LFB142:
1308:../STM32F4xx_StdPeriph_Driver/src/stm32f4xx_tim.c **** 
1309:../STM32F4xx_StdPeriph_Driver/src/stm32f4xx_tim.c **** /**
1310:../STM32F4xx_StdPeriph_Driver/src/stm32f4xx_tim.c ****   * @brief  Enables or disables the TIMx peripheral Preload register on CCR4.
1311:../STM32F4xx_StdPeriph_Driver/src/stm32f4xx_tim.c ****   * @param  TIMx: where x can be  1, 2, 3, 4, 5 or 8 to select the TIM peripheral.
1312:../STM32F4xx_StdPeriph_Driver/src/stm32f4xx_tim.c ****   * @param  TIM_OCPreload: new state of the TIMx peripheral Preload register
1313:../STM32F4xx_StdPeriph_Driver/src/stm32f4xx_tim.c ****   *          This parameter can be one of the following values:
1314:../STM32F4xx_StdPeriph_Driver/src/stm32f4xx_tim.c ****   *            @arg TIM_OCPreload_Enable
1315:../STM32F4xx_StdPeriph_Driver/src/stm32f4xx_tim.c ****   *            @arg TIM_OCPreload_Disable
1316:../STM32F4xx_StdPeriph_Driver/src/stm32f4xx_tim.c ****   * @retval None
1317:../STM32F4xx_StdPeriph_Driver/src/stm32f4xx_tim.c ****   */
1318:../STM32F4xx_StdPeriph_Driver/src/stm32f4xx_tim.c **** void TIM_OC4PreloadConfig(TIM_TypeDef* TIMx, uint16_t TIM_OCPreload)
1319:../STM32F4xx_StdPeriph_Driver/src/stm32f4xx_tim.c **** {
 2386              		.loc 1 1319 0
 2387              		.cfi_startproc
 2388              		@ args = 0, pretend = 0, frame = 16
 2389              		@ frame_needed = 1, uses_anonymous_args = 0
 2390              		@ link register save eliminated.
 2391 0cec 80B4     		push	{r7}
 2392              	.LCFI96:
 2393              		.cfi_def_cfa_offset 4
 2394              		.cfi_offset 7, -4
 2395 0cee 85B0     		sub	sp, sp, #20
 2396              	.LCFI97:
 2397              		.cfi_def_cfa_offset 24
 2398 0cf0 00AF     		add	r7, sp, #0
 2399              	.LCFI98:
 2400              		.cfi_def_cfa_register 7
 2401 0cf2 7860     		str	r0, [r7, #4]
 2402 0cf4 0B46     		mov	r3, r1
 2403 0cf6 7B80     		strh	r3, [r7, #2]	@ movhi
1320:../STM32F4xx_StdPeriph_Driver/src/stm32f4xx_tim.c ****   uint16_t tmpccmr2 = 0;
 2404              		.loc 1 1320 0
 2405 0cf8 4FF00003 		mov	r3, #0
 2406 0cfc FB81     		strh	r3, [r7, #14]	@ movhi
1321:../STM32F4xx_StdPeriph_Driver/src/stm32f4xx_tim.c **** 
1322:../STM32F4xx_StdPeriph_Driver/src/stm32f4xx_tim.c ****   /* Check the parameters */
1323:../STM32F4xx_StdPeriph_Driver/src/stm32f4xx_tim.c ****   assert_param(IS_TIM_LIST3_PERIPH(TIMx));
1324:../STM32F4xx_StdPeriph_Driver/src/stm32f4xx_tim.c ****   assert_param(IS_TIM_OCPRELOAD_STATE(TIM_OCPreload));
1325:../STM32F4xx_StdPeriph_Driver/src/stm32f4xx_tim.c **** 
1326:../STM32F4xx_StdPeriph_Driver/src/stm32f4xx_tim.c ****   tmpccmr2 = TIMx->CCMR2;
 2407              		.loc 1 1326 0
 2408 0cfe 7B68     		ldr	r3, [r7, #4]
 2409 0d00 9B8B     		ldrh	r3, [r3, #28]	@ movhi
 2410 0d02 FB81     		strh	r3, [r7, #14]	@ movhi
1327:../STM32F4xx_StdPeriph_Driver/src/stm32f4xx_tim.c **** 
1328:../STM32F4xx_StdPeriph_Driver/src/stm32f4xx_tim.c ****   /* Reset the OC4PE Bit */
1329:../STM32F4xx_StdPeriph_Driver/src/stm32f4xx_tim.c ****   tmpccmr2 &= (uint16_t)(~TIM_CCMR2_OC4PE);
 2411              		.loc 1 1329 0
 2412 0d04 FB89     		ldrh	r3, [r7, #14]	@ movhi
 2413 0d06 23F40063 		bic	r3, r3, #2048
 2414 0d0a FB81     		strh	r3, [r7, #14]	@ movhi
1330:../STM32F4xx_StdPeriph_Driver/src/stm32f4xx_tim.c **** 
1331:../STM32F4xx_StdPeriph_Driver/src/stm32f4xx_tim.c ****   /* Enable or Disable the Output Compare Preload feature */
1332:../STM32F4xx_StdPeriph_Driver/src/stm32f4xx_tim.c ****   tmpccmr2 |= (uint16_t)(TIM_OCPreload << 8);
 2415              		.loc 1 1332 0
 2416 0d0c 7B88     		ldrh	r3, [r7, #2]	@ movhi
 2417 0d0e 4FEA0323 		lsl	r3, r3, #8
 2418 0d12 9AB2     		uxth	r2, r3
 2419 0d14 FB89     		ldrh	r3, [r7, #14]	@ movhi
 2420 0d16 1343     		orrs	r3, r3, r2
 2421 0d18 FB81     		strh	r3, [r7, #14]	@ movhi
1333:../STM32F4xx_StdPeriph_Driver/src/stm32f4xx_tim.c **** 
1334:../STM32F4xx_StdPeriph_Driver/src/stm32f4xx_tim.c ****   /* Write to TIMx CCMR2 register */
1335:../STM32F4xx_StdPeriph_Driver/src/stm32f4xx_tim.c ****   TIMx->CCMR2 = tmpccmr2;
 2422              		.loc 1 1335 0
 2423 0d1a 7B68     		ldr	r3, [r7, #4]
 2424 0d1c FA89     		ldrh	r2, [r7, #14]	@ movhi
 2425 0d1e 9A83     		strh	r2, [r3, #28]	@ movhi
1336:../STM32F4xx_StdPeriph_Driver/src/stm32f4xx_tim.c **** }
 2426              		.loc 1 1336 0
 2427 0d20 07F11407 		add	r7, r7, #20
 2428 0d24 BD46     		mov	sp, r7
 2429 0d26 80BC     		pop	{r7}
 2430 0d28 7047     		bx	lr
 2431              		.cfi_endproc
 2432              	.LFE142:
 2434 0d2a 00BF     		.align	2
 2435              		.global	TIM_OC1FastConfig
 2436              		.thumb
 2437              		.thumb_func
 2439              	TIM_OC1FastConfig:
 2440              	.LFB143:
1337:../STM32F4xx_StdPeriph_Driver/src/stm32f4xx_tim.c **** 
1338:../STM32F4xx_StdPeriph_Driver/src/stm32f4xx_tim.c **** /**
1339:../STM32F4xx_StdPeriph_Driver/src/stm32f4xx_tim.c ****   * @brief  Configures the TIMx Output Compare 1 Fast feature.
1340:../STM32F4xx_StdPeriph_Driver/src/stm32f4xx_tim.c ****   * @param  TIMx: where x can be 1 to 14 except 6 and 7, to select the TIM peripheral.
1341:../STM32F4xx_StdPeriph_Driver/src/stm32f4xx_tim.c ****   * @param  TIM_OCFast: new state of the Output Compare Fast Enable Bit.
1342:../STM32F4xx_StdPeriph_Driver/src/stm32f4xx_tim.c ****   *          This parameter can be one of the following values:
1343:../STM32F4xx_StdPeriph_Driver/src/stm32f4xx_tim.c ****   *            @arg TIM_OCFast_Enable: TIM output compare fast enable
1344:../STM32F4xx_StdPeriph_Driver/src/stm32f4xx_tim.c ****   *            @arg TIM_OCFast_Disable: TIM output compare fast disable
1345:../STM32F4xx_StdPeriph_Driver/src/stm32f4xx_tim.c ****   * @retval None
1346:../STM32F4xx_StdPeriph_Driver/src/stm32f4xx_tim.c ****   */
1347:../STM32F4xx_StdPeriph_Driver/src/stm32f4xx_tim.c **** void TIM_OC1FastConfig(TIM_TypeDef* TIMx, uint16_t TIM_OCFast)
1348:../STM32F4xx_StdPeriph_Driver/src/stm32f4xx_tim.c **** {
 2441              		.loc 1 1348 0
 2442              		.cfi_startproc
 2443              		@ args = 0, pretend = 0, frame = 16
 2444              		@ frame_needed = 1, uses_anonymous_args = 0
 2445              		@ link register save eliminated.
 2446 0d2c 80B4     		push	{r7}
 2447              	.LCFI99:
 2448              		.cfi_def_cfa_offset 4
 2449              		.cfi_offset 7, -4
 2450 0d2e 85B0     		sub	sp, sp, #20
 2451              	.LCFI100:
 2452              		.cfi_def_cfa_offset 24
 2453 0d30 00AF     		add	r7, sp, #0
 2454              	.LCFI101:
 2455              		.cfi_def_cfa_register 7
 2456 0d32 7860     		str	r0, [r7, #4]
 2457 0d34 0B46     		mov	r3, r1
 2458 0d36 7B80     		strh	r3, [r7, #2]	@ movhi
1349:../STM32F4xx_StdPeriph_Driver/src/stm32f4xx_tim.c ****   uint16_t tmpccmr1 = 0;
 2459              		.loc 1 1349 0
 2460 0d38 4FF00003 		mov	r3, #0
 2461 0d3c FB81     		strh	r3, [r7, #14]	@ movhi
1350:../STM32F4xx_StdPeriph_Driver/src/stm32f4xx_tim.c **** 
1351:../STM32F4xx_StdPeriph_Driver/src/stm32f4xx_tim.c ****   /* Check the parameters */
1352:../STM32F4xx_StdPeriph_Driver/src/stm32f4xx_tim.c ****   assert_param(IS_TIM_LIST1_PERIPH(TIMx));
1353:../STM32F4xx_StdPeriph_Driver/src/stm32f4xx_tim.c ****   assert_param(IS_TIM_OCFAST_STATE(TIM_OCFast));
1354:../STM32F4xx_StdPeriph_Driver/src/stm32f4xx_tim.c **** 
1355:../STM32F4xx_StdPeriph_Driver/src/stm32f4xx_tim.c ****   /* Get the TIMx CCMR1 register value */
1356:../STM32F4xx_StdPeriph_Driver/src/stm32f4xx_tim.c ****   tmpccmr1 = TIMx->CCMR1;
 2462              		.loc 1 1356 0
 2463 0d3e 7B68     		ldr	r3, [r7, #4]
 2464 0d40 1B8B     		ldrh	r3, [r3, #24]	@ movhi
 2465 0d42 FB81     		strh	r3, [r7, #14]	@ movhi
1357:../STM32F4xx_StdPeriph_Driver/src/stm32f4xx_tim.c **** 
1358:../STM32F4xx_StdPeriph_Driver/src/stm32f4xx_tim.c ****   /* Reset the OC1FE Bit */
1359:../STM32F4xx_StdPeriph_Driver/src/stm32f4xx_tim.c ****   tmpccmr1 &= (uint16_t)~TIM_CCMR1_OC1FE;
 2466              		.loc 1 1359 0
 2467 0d44 FB89     		ldrh	r3, [r7, #14]	@ movhi
 2468 0d46 23F00403 		bic	r3, r3, #4
 2469 0d4a FB81     		strh	r3, [r7, #14]	@ movhi
1360:../STM32F4xx_StdPeriph_Driver/src/stm32f4xx_tim.c **** 
1361:../STM32F4xx_StdPeriph_Driver/src/stm32f4xx_tim.c ****   /* Enable or Disable the Output Compare Fast Bit */
1362:../STM32F4xx_StdPeriph_Driver/src/stm32f4xx_tim.c ****   tmpccmr1 |= TIM_OCFast;
 2470              		.loc 1 1362 0
 2471 0d4c FA89     		ldrh	r2, [r7, #14]	@ movhi
 2472 0d4e 7B88     		ldrh	r3, [r7, #2]	@ movhi
 2473 0d50 1343     		orrs	r3, r3, r2
 2474 0d52 FB81     		strh	r3, [r7, #14]	@ movhi
1363:../STM32F4xx_StdPeriph_Driver/src/stm32f4xx_tim.c **** 
1364:../STM32F4xx_StdPeriph_Driver/src/stm32f4xx_tim.c ****   /* Write to TIMx CCMR1 */
1365:../STM32F4xx_StdPeriph_Driver/src/stm32f4xx_tim.c ****   TIMx->CCMR1 = tmpccmr1;
 2475              		.loc 1 1365 0
 2476 0d54 7B68     		ldr	r3, [r7, #4]
 2477 0d56 FA89     		ldrh	r2, [r7, #14]	@ movhi
 2478 0d58 1A83     		strh	r2, [r3, #24]	@ movhi
1366:../STM32F4xx_StdPeriph_Driver/src/stm32f4xx_tim.c **** }
 2479              		.loc 1 1366 0
 2480 0d5a 07F11407 		add	r7, r7, #20
 2481 0d5e BD46     		mov	sp, r7
 2482 0d60 80BC     		pop	{r7}
 2483 0d62 7047     		bx	lr
 2484              		.cfi_endproc
 2485              	.LFE143:
 2487              		.align	2
 2488              		.global	TIM_OC2FastConfig
 2489              		.thumb
 2490              		.thumb_func
 2492              	TIM_OC2FastConfig:
 2493              	.LFB144:
1367:../STM32F4xx_StdPeriph_Driver/src/stm32f4xx_tim.c **** 
1368:../STM32F4xx_StdPeriph_Driver/src/stm32f4xx_tim.c **** /**
1369:../STM32F4xx_StdPeriph_Driver/src/stm32f4xx_tim.c ****   * @brief  Configures the TIMx Output Compare 2 Fast feature.
1370:../STM32F4xx_StdPeriph_Driver/src/stm32f4xx_tim.c ****   * @param  TIMx: where x can be  1, 2, 3, 4, 5, 8, 9 or 12 to select the TIM 
1371:../STM32F4xx_StdPeriph_Driver/src/stm32f4xx_tim.c ****   *         peripheral.
1372:../STM32F4xx_StdPeriph_Driver/src/stm32f4xx_tim.c ****   * @param  TIM_OCFast: new state of the Output Compare Fast Enable Bit.
1373:../STM32F4xx_StdPeriph_Driver/src/stm32f4xx_tim.c ****   *          This parameter can be one of the following values:
1374:../STM32F4xx_StdPeriph_Driver/src/stm32f4xx_tim.c ****   *            @arg TIM_OCFast_Enable: TIM output compare fast enable
1375:../STM32F4xx_StdPeriph_Driver/src/stm32f4xx_tim.c ****   *            @arg TIM_OCFast_Disable: TIM output compare fast disable
1376:../STM32F4xx_StdPeriph_Driver/src/stm32f4xx_tim.c ****   * @retval None
1377:../STM32F4xx_StdPeriph_Driver/src/stm32f4xx_tim.c ****   */
1378:../STM32F4xx_StdPeriph_Driver/src/stm32f4xx_tim.c **** void TIM_OC2FastConfig(TIM_TypeDef* TIMx, uint16_t TIM_OCFast)
1379:../STM32F4xx_StdPeriph_Driver/src/stm32f4xx_tim.c **** {
 2494              		.loc 1 1379 0
 2495              		.cfi_startproc
 2496              		@ args = 0, pretend = 0, frame = 16
 2497              		@ frame_needed = 1, uses_anonymous_args = 0
 2498              		@ link register save eliminated.
 2499 0d64 80B4     		push	{r7}
 2500              	.LCFI102:
 2501              		.cfi_def_cfa_offset 4
 2502              		.cfi_offset 7, -4
 2503 0d66 85B0     		sub	sp, sp, #20
 2504              	.LCFI103:
 2505              		.cfi_def_cfa_offset 24
 2506 0d68 00AF     		add	r7, sp, #0
 2507              	.LCFI104:
 2508              		.cfi_def_cfa_register 7
 2509 0d6a 7860     		str	r0, [r7, #4]
 2510 0d6c 0B46     		mov	r3, r1
 2511 0d6e 7B80     		strh	r3, [r7, #2]	@ movhi
1380:../STM32F4xx_StdPeriph_Driver/src/stm32f4xx_tim.c ****   uint16_t tmpccmr1 = 0;
 2512              		.loc 1 1380 0
 2513 0d70 4FF00003 		mov	r3, #0
 2514 0d74 FB81     		strh	r3, [r7, #14]	@ movhi
1381:../STM32F4xx_StdPeriph_Driver/src/stm32f4xx_tim.c **** 
1382:../STM32F4xx_StdPeriph_Driver/src/stm32f4xx_tim.c ****   /* Check the parameters */
1383:../STM32F4xx_StdPeriph_Driver/src/stm32f4xx_tim.c ****   assert_param(IS_TIM_LIST2_PERIPH(TIMx));
1384:../STM32F4xx_StdPeriph_Driver/src/stm32f4xx_tim.c ****   assert_param(IS_TIM_OCFAST_STATE(TIM_OCFast));
1385:../STM32F4xx_StdPeriph_Driver/src/stm32f4xx_tim.c **** 
1386:../STM32F4xx_StdPeriph_Driver/src/stm32f4xx_tim.c ****   /* Get the TIMx CCMR1 register value */
1387:../STM32F4xx_StdPeriph_Driver/src/stm32f4xx_tim.c ****   tmpccmr1 = TIMx->CCMR1;
 2515              		.loc 1 1387 0
 2516 0d76 7B68     		ldr	r3, [r7, #4]
 2517 0d78 1B8B     		ldrh	r3, [r3, #24]	@ movhi
 2518 0d7a FB81     		strh	r3, [r7, #14]	@ movhi
1388:../STM32F4xx_StdPeriph_Driver/src/stm32f4xx_tim.c **** 
1389:../STM32F4xx_StdPeriph_Driver/src/stm32f4xx_tim.c ****   /* Reset the OC2FE Bit */
1390:../STM32F4xx_StdPeriph_Driver/src/stm32f4xx_tim.c ****   tmpccmr1 &= (uint16_t)(~TIM_CCMR1_OC2FE);
 2519              		.loc 1 1390 0
 2520 0d7c FB89     		ldrh	r3, [r7, #14]	@ movhi
 2521 0d7e 23F48063 		bic	r3, r3, #1024
 2522 0d82 FB81     		strh	r3, [r7, #14]	@ movhi
1391:../STM32F4xx_StdPeriph_Driver/src/stm32f4xx_tim.c **** 
1392:../STM32F4xx_StdPeriph_Driver/src/stm32f4xx_tim.c ****   /* Enable or Disable the Output Compare Fast Bit */
1393:../STM32F4xx_StdPeriph_Driver/src/stm32f4xx_tim.c ****   tmpccmr1 |= (uint16_t)(TIM_OCFast << 8);
 2523              		.loc 1 1393 0
 2524 0d84 7B88     		ldrh	r3, [r7, #2]	@ movhi
 2525 0d86 4FEA0323 		lsl	r3, r3, #8
 2526 0d8a 9AB2     		uxth	r2, r3
 2527 0d8c FB89     		ldrh	r3, [r7, #14]	@ movhi
 2528 0d8e 1343     		orrs	r3, r3, r2
 2529 0d90 FB81     		strh	r3, [r7, #14]	@ movhi
1394:../STM32F4xx_StdPeriph_Driver/src/stm32f4xx_tim.c **** 
1395:../STM32F4xx_StdPeriph_Driver/src/stm32f4xx_tim.c ****   /* Write to TIMx CCMR1 */
1396:../STM32F4xx_StdPeriph_Driver/src/stm32f4xx_tim.c ****   TIMx->CCMR1 = tmpccmr1;
 2530              		.loc 1 1396 0
 2531 0d92 7B68     		ldr	r3, [r7, #4]
 2532 0d94 FA89     		ldrh	r2, [r7, #14]	@ movhi
 2533 0d96 1A83     		strh	r2, [r3, #24]	@ movhi
1397:../STM32F4xx_StdPeriph_Driver/src/stm32f4xx_tim.c **** }
 2534              		.loc 1 1397 0
 2535 0d98 07F11407 		add	r7, r7, #20
 2536 0d9c BD46     		mov	sp, r7
 2537 0d9e 80BC     		pop	{r7}
 2538 0da0 7047     		bx	lr
 2539              		.cfi_endproc
 2540              	.LFE144:
 2542 0da2 00BF     		.align	2
 2543              		.global	TIM_OC3FastConfig
 2544              		.thumb
 2545              		.thumb_func
 2547              	TIM_OC3FastConfig:
 2548              	.LFB145:
1398:../STM32F4xx_StdPeriph_Driver/src/stm32f4xx_tim.c **** 
1399:../STM32F4xx_StdPeriph_Driver/src/stm32f4xx_tim.c **** /**
1400:../STM32F4xx_StdPeriph_Driver/src/stm32f4xx_tim.c ****   * @brief  Configures the TIMx Output Compare 3 Fast feature.
1401:../STM32F4xx_StdPeriph_Driver/src/stm32f4xx_tim.c ****   * @param  TIMx: where x can be  1, 2, 3, 4, 5 or 8 to select the TIM peripheral.
1402:../STM32F4xx_StdPeriph_Driver/src/stm32f4xx_tim.c ****   * @param  TIM_OCFast: new state of the Output Compare Fast Enable Bit.
1403:../STM32F4xx_StdPeriph_Driver/src/stm32f4xx_tim.c ****   *          This parameter can be one of the following values:
1404:../STM32F4xx_StdPeriph_Driver/src/stm32f4xx_tim.c ****   *            @arg TIM_OCFast_Enable: TIM output compare fast enable
1405:../STM32F4xx_StdPeriph_Driver/src/stm32f4xx_tim.c ****   *            @arg TIM_OCFast_Disable: TIM output compare fast disable
1406:../STM32F4xx_StdPeriph_Driver/src/stm32f4xx_tim.c ****   * @retval None
1407:../STM32F4xx_StdPeriph_Driver/src/stm32f4xx_tim.c ****   */
1408:../STM32F4xx_StdPeriph_Driver/src/stm32f4xx_tim.c **** void TIM_OC3FastConfig(TIM_TypeDef* TIMx, uint16_t TIM_OCFast)
1409:../STM32F4xx_StdPeriph_Driver/src/stm32f4xx_tim.c **** {
 2549              		.loc 1 1409 0
 2550              		.cfi_startproc
 2551              		@ args = 0, pretend = 0, frame = 16
 2552              		@ frame_needed = 1, uses_anonymous_args = 0
 2553              		@ link register save eliminated.
 2554 0da4 80B4     		push	{r7}
 2555              	.LCFI105:
 2556              		.cfi_def_cfa_offset 4
 2557              		.cfi_offset 7, -4
 2558 0da6 85B0     		sub	sp, sp, #20
 2559              	.LCFI106:
 2560              		.cfi_def_cfa_offset 24
 2561 0da8 00AF     		add	r7, sp, #0
 2562              	.LCFI107:
 2563              		.cfi_def_cfa_register 7
 2564 0daa 7860     		str	r0, [r7, #4]
 2565 0dac 0B46     		mov	r3, r1
 2566 0dae 7B80     		strh	r3, [r7, #2]	@ movhi
1410:../STM32F4xx_StdPeriph_Driver/src/stm32f4xx_tim.c ****   uint16_t tmpccmr2 = 0;
 2567              		.loc 1 1410 0
 2568 0db0 4FF00003 		mov	r3, #0
 2569 0db4 FB81     		strh	r3, [r7, #14]	@ movhi
1411:../STM32F4xx_StdPeriph_Driver/src/stm32f4xx_tim.c ****   
1412:../STM32F4xx_StdPeriph_Driver/src/stm32f4xx_tim.c ****   /* Check the parameters */
1413:../STM32F4xx_StdPeriph_Driver/src/stm32f4xx_tim.c ****   assert_param(IS_TIM_LIST3_PERIPH(TIMx));
1414:../STM32F4xx_StdPeriph_Driver/src/stm32f4xx_tim.c ****   assert_param(IS_TIM_OCFAST_STATE(TIM_OCFast));
1415:../STM32F4xx_StdPeriph_Driver/src/stm32f4xx_tim.c **** 
1416:../STM32F4xx_StdPeriph_Driver/src/stm32f4xx_tim.c ****   /* Get the TIMx CCMR2 register value */
1417:../STM32F4xx_StdPeriph_Driver/src/stm32f4xx_tim.c ****   tmpccmr2 = TIMx->CCMR2;
 2570              		.loc 1 1417 0
 2571 0db6 7B68     		ldr	r3, [r7, #4]
 2572 0db8 9B8B     		ldrh	r3, [r3, #28]	@ movhi
 2573 0dba FB81     		strh	r3, [r7, #14]	@ movhi
1418:../STM32F4xx_StdPeriph_Driver/src/stm32f4xx_tim.c **** 
1419:../STM32F4xx_StdPeriph_Driver/src/stm32f4xx_tim.c ****   /* Reset the OC3FE Bit */
1420:../STM32F4xx_StdPeriph_Driver/src/stm32f4xx_tim.c ****   tmpccmr2 &= (uint16_t)~TIM_CCMR2_OC3FE;
 2574              		.loc 1 1420 0
 2575 0dbc FB89     		ldrh	r3, [r7, #14]	@ movhi
 2576 0dbe 23F00403 		bic	r3, r3, #4
 2577 0dc2 FB81     		strh	r3, [r7, #14]	@ movhi
1421:../STM32F4xx_StdPeriph_Driver/src/stm32f4xx_tim.c **** 
1422:../STM32F4xx_StdPeriph_Driver/src/stm32f4xx_tim.c ****   /* Enable or Disable the Output Compare Fast Bit */
1423:../STM32F4xx_StdPeriph_Driver/src/stm32f4xx_tim.c ****   tmpccmr2 |= TIM_OCFast;
 2578              		.loc 1 1423 0
 2579 0dc4 FA89     		ldrh	r2, [r7, #14]	@ movhi
 2580 0dc6 7B88     		ldrh	r3, [r7, #2]	@ movhi
 2581 0dc8 1343     		orrs	r3, r3, r2
 2582 0dca FB81     		strh	r3, [r7, #14]	@ movhi
1424:../STM32F4xx_StdPeriph_Driver/src/stm32f4xx_tim.c **** 
1425:../STM32F4xx_StdPeriph_Driver/src/stm32f4xx_tim.c ****   /* Write to TIMx CCMR2 */
1426:../STM32F4xx_StdPeriph_Driver/src/stm32f4xx_tim.c ****   TIMx->CCMR2 = tmpccmr2;
 2583              		.loc 1 1426 0
 2584 0dcc 7B68     		ldr	r3, [r7, #4]
 2585 0dce FA89     		ldrh	r2, [r7, #14]	@ movhi
 2586 0dd0 9A83     		strh	r2, [r3, #28]	@ movhi
1427:../STM32F4xx_StdPeriph_Driver/src/stm32f4xx_tim.c **** }
 2587              		.loc 1 1427 0
 2588 0dd2 07F11407 		add	r7, r7, #20
 2589 0dd6 BD46     		mov	sp, r7
 2590 0dd8 80BC     		pop	{r7}
 2591 0dda 7047     		bx	lr
 2592              		.cfi_endproc
 2593              	.LFE145:
 2595              		.align	2
 2596              		.global	TIM_OC4FastConfig
 2597              		.thumb
 2598              		.thumb_func
 2600              	TIM_OC4FastConfig:
 2601              	.LFB146:
1428:../STM32F4xx_StdPeriph_Driver/src/stm32f4xx_tim.c **** 
1429:../STM32F4xx_StdPeriph_Driver/src/stm32f4xx_tim.c **** /**
1430:../STM32F4xx_StdPeriph_Driver/src/stm32f4xx_tim.c ****   * @brief  Configures the TIMx Output Compare 4 Fast feature.
1431:../STM32F4xx_StdPeriph_Driver/src/stm32f4xx_tim.c ****   * @param  TIMx: where x can be  1, 2, 3, 4, 5 or 8 to select the TIM peripheral.
1432:../STM32F4xx_StdPeriph_Driver/src/stm32f4xx_tim.c ****   * @param  TIM_OCFast: new state of the Output Compare Fast Enable Bit.
1433:../STM32F4xx_StdPeriph_Driver/src/stm32f4xx_tim.c ****   *          This parameter can be one of the following values:
1434:../STM32F4xx_StdPeriph_Driver/src/stm32f4xx_tim.c ****   *            @arg TIM_OCFast_Enable: TIM output compare fast enable
1435:../STM32F4xx_StdPeriph_Driver/src/stm32f4xx_tim.c ****   *            @arg TIM_OCFast_Disable: TIM output compare fast disable
1436:../STM32F4xx_StdPeriph_Driver/src/stm32f4xx_tim.c ****   * @retval None
1437:../STM32F4xx_StdPeriph_Driver/src/stm32f4xx_tim.c ****   */
1438:../STM32F4xx_StdPeriph_Driver/src/stm32f4xx_tim.c **** void TIM_OC4FastConfig(TIM_TypeDef* TIMx, uint16_t TIM_OCFast)
1439:../STM32F4xx_StdPeriph_Driver/src/stm32f4xx_tim.c **** {
 2602              		.loc 1 1439 0
 2603              		.cfi_startproc
 2604              		@ args = 0, pretend = 0, frame = 16
 2605              		@ frame_needed = 1, uses_anonymous_args = 0
 2606              		@ link register save eliminated.
 2607 0ddc 80B4     		push	{r7}
 2608              	.LCFI108:
 2609              		.cfi_def_cfa_offset 4
 2610              		.cfi_offset 7, -4
 2611 0dde 85B0     		sub	sp, sp, #20
 2612              	.LCFI109:
 2613              		.cfi_def_cfa_offset 24
 2614 0de0 00AF     		add	r7, sp, #0
 2615              	.LCFI110:
 2616              		.cfi_def_cfa_register 7
 2617 0de2 7860     		str	r0, [r7, #4]
 2618 0de4 0B46     		mov	r3, r1
 2619 0de6 7B80     		strh	r3, [r7, #2]	@ movhi
1440:../STM32F4xx_StdPeriph_Driver/src/stm32f4xx_tim.c ****   uint16_t tmpccmr2 = 0;
 2620              		.loc 1 1440 0
 2621 0de8 4FF00003 		mov	r3, #0
 2622 0dec FB81     		strh	r3, [r7, #14]	@ movhi
1441:../STM32F4xx_StdPeriph_Driver/src/stm32f4xx_tim.c **** 
1442:../STM32F4xx_StdPeriph_Driver/src/stm32f4xx_tim.c ****   /* Check the parameters */
1443:../STM32F4xx_StdPeriph_Driver/src/stm32f4xx_tim.c ****   assert_param(IS_TIM_LIST3_PERIPH(TIMx));
1444:../STM32F4xx_StdPeriph_Driver/src/stm32f4xx_tim.c ****   assert_param(IS_TIM_OCFAST_STATE(TIM_OCFast));
1445:../STM32F4xx_StdPeriph_Driver/src/stm32f4xx_tim.c **** 
1446:../STM32F4xx_StdPeriph_Driver/src/stm32f4xx_tim.c ****   /* Get the TIMx CCMR2 register value */
1447:../STM32F4xx_StdPeriph_Driver/src/stm32f4xx_tim.c ****   tmpccmr2 = TIMx->CCMR2;
 2623              		.loc 1 1447 0
 2624 0dee 7B68     		ldr	r3, [r7, #4]
 2625 0df0 9B8B     		ldrh	r3, [r3, #28]	@ movhi
 2626 0df2 FB81     		strh	r3, [r7, #14]	@ movhi
1448:../STM32F4xx_StdPeriph_Driver/src/stm32f4xx_tim.c **** 
1449:../STM32F4xx_StdPeriph_Driver/src/stm32f4xx_tim.c ****   /* Reset the OC4FE Bit */
1450:../STM32F4xx_StdPeriph_Driver/src/stm32f4xx_tim.c ****   tmpccmr2 &= (uint16_t)(~TIM_CCMR2_OC4FE);
 2627              		.loc 1 1450 0
 2628 0df4 FB89     		ldrh	r3, [r7, #14]	@ movhi
 2629 0df6 23F48063 		bic	r3, r3, #1024
 2630 0dfa FB81     		strh	r3, [r7, #14]	@ movhi
1451:../STM32F4xx_StdPeriph_Driver/src/stm32f4xx_tim.c **** 
1452:../STM32F4xx_StdPeriph_Driver/src/stm32f4xx_tim.c ****   /* Enable or Disable the Output Compare Fast Bit */
1453:../STM32F4xx_StdPeriph_Driver/src/stm32f4xx_tim.c ****   tmpccmr2 |= (uint16_t)(TIM_OCFast << 8);
 2631              		.loc 1 1453 0
 2632 0dfc 7B88     		ldrh	r3, [r7, #2]	@ movhi
 2633 0dfe 4FEA0323 		lsl	r3, r3, #8
 2634 0e02 9AB2     		uxth	r2, r3
 2635 0e04 FB89     		ldrh	r3, [r7, #14]	@ movhi
 2636 0e06 1343     		orrs	r3, r3, r2
 2637 0e08 FB81     		strh	r3, [r7, #14]	@ movhi
1454:../STM32F4xx_StdPeriph_Driver/src/stm32f4xx_tim.c **** 
1455:../STM32F4xx_StdPeriph_Driver/src/stm32f4xx_tim.c ****   /* Write to TIMx CCMR2 */
1456:../STM32F4xx_StdPeriph_Driver/src/stm32f4xx_tim.c ****   TIMx->CCMR2 = tmpccmr2;
 2638              		.loc 1 1456 0
 2639 0e0a 7B68     		ldr	r3, [r7, #4]
 2640 0e0c FA89     		ldrh	r2, [r7, #14]	@ movhi
 2641 0e0e 9A83     		strh	r2, [r3, #28]	@ movhi
1457:../STM32F4xx_StdPeriph_Driver/src/stm32f4xx_tim.c **** }
 2642              		.loc 1 1457 0
 2643 0e10 07F11407 		add	r7, r7, #20
 2644 0e14 BD46     		mov	sp, r7
 2645 0e16 80BC     		pop	{r7}
 2646 0e18 7047     		bx	lr
 2647              		.cfi_endproc
 2648              	.LFE146:
 2650 0e1a 00BF     		.align	2
 2651              		.global	TIM_ClearOC1Ref
 2652              		.thumb
 2653              		.thumb_func
 2655              	TIM_ClearOC1Ref:
 2656              	.LFB147:
1458:../STM32F4xx_StdPeriph_Driver/src/stm32f4xx_tim.c **** 
1459:../STM32F4xx_StdPeriph_Driver/src/stm32f4xx_tim.c **** /**
1460:../STM32F4xx_StdPeriph_Driver/src/stm32f4xx_tim.c ****   * @brief  Clears or safeguards the OCREF1 signal on an external event
1461:../STM32F4xx_StdPeriph_Driver/src/stm32f4xx_tim.c ****   * @param  TIMx: where x can be 1 to 14 except 6 and 7, to select the TIM peripheral.
1462:../STM32F4xx_StdPeriph_Driver/src/stm32f4xx_tim.c ****   * @param  TIM_OCClear: new state of the Output Compare Clear Enable Bit.
1463:../STM32F4xx_StdPeriph_Driver/src/stm32f4xx_tim.c ****   *          This parameter can be one of the following values:
1464:../STM32F4xx_StdPeriph_Driver/src/stm32f4xx_tim.c ****   *            @arg TIM_OCClear_Enable: TIM Output clear enable
1465:../STM32F4xx_StdPeriph_Driver/src/stm32f4xx_tim.c ****   *            @arg TIM_OCClear_Disable: TIM Output clear disable
1466:../STM32F4xx_StdPeriph_Driver/src/stm32f4xx_tim.c ****   * @retval None
1467:../STM32F4xx_StdPeriph_Driver/src/stm32f4xx_tim.c ****   */
1468:../STM32F4xx_StdPeriph_Driver/src/stm32f4xx_tim.c **** void TIM_ClearOC1Ref(TIM_TypeDef* TIMx, uint16_t TIM_OCClear)
1469:../STM32F4xx_StdPeriph_Driver/src/stm32f4xx_tim.c **** {
 2657              		.loc 1 1469 0
 2658              		.cfi_startproc
 2659              		@ args = 0, pretend = 0, frame = 16
 2660              		@ frame_needed = 1, uses_anonymous_args = 0
 2661              		@ link register save eliminated.
 2662 0e1c 80B4     		push	{r7}
 2663              	.LCFI111:
 2664              		.cfi_def_cfa_offset 4
 2665              		.cfi_offset 7, -4
 2666 0e1e 85B0     		sub	sp, sp, #20
 2667              	.LCFI112:
 2668              		.cfi_def_cfa_offset 24
 2669 0e20 00AF     		add	r7, sp, #0
 2670              	.LCFI113:
 2671              		.cfi_def_cfa_register 7
 2672 0e22 7860     		str	r0, [r7, #4]
 2673 0e24 0B46     		mov	r3, r1
 2674 0e26 7B80     		strh	r3, [r7, #2]	@ movhi
1470:../STM32F4xx_StdPeriph_Driver/src/stm32f4xx_tim.c ****   uint16_t tmpccmr1 = 0;
 2675              		.loc 1 1470 0
 2676 0e28 4FF00003 		mov	r3, #0
 2677 0e2c FB81     		strh	r3, [r7, #14]	@ movhi
1471:../STM32F4xx_StdPeriph_Driver/src/stm32f4xx_tim.c **** 
1472:../STM32F4xx_StdPeriph_Driver/src/stm32f4xx_tim.c ****   /* Check the parameters */
1473:../STM32F4xx_StdPeriph_Driver/src/stm32f4xx_tim.c ****   assert_param(IS_TIM_LIST1_PERIPH(TIMx));
1474:../STM32F4xx_StdPeriph_Driver/src/stm32f4xx_tim.c ****   assert_param(IS_TIM_OCCLEAR_STATE(TIM_OCClear));
1475:../STM32F4xx_StdPeriph_Driver/src/stm32f4xx_tim.c **** 
1476:../STM32F4xx_StdPeriph_Driver/src/stm32f4xx_tim.c ****   tmpccmr1 = TIMx->CCMR1;
 2678              		.loc 1 1476 0
 2679 0e2e 7B68     		ldr	r3, [r7, #4]
 2680 0e30 1B8B     		ldrh	r3, [r3, #24]	@ movhi
 2681 0e32 FB81     		strh	r3, [r7, #14]	@ movhi
1477:../STM32F4xx_StdPeriph_Driver/src/stm32f4xx_tim.c **** 
1478:../STM32F4xx_StdPeriph_Driver/src/stm32f4xx_tim.c ****   /* Reset the OC1CE Bit */
1479:../STM32F4xx_StdPeriph_Driver/src/stm32f4xx_tim.c ****   tmpccmr1 &= (uint16_t)~TIM_CCMR1_OC1CE;
 2682              		.loc 1 1479 0
 2683 0e34 FB89     		ldrh	r3, [r7, #14]	@ movhi
 2684 0e36 23F08003 		bic	r3, r3, #128
 2685 0e3a FB81     		strh	r3, [r7, #14]	@ movhi
1480:../STM32F4xx_StdPeriph_Driver/src/stm32f4xx_tim.c **** 
1481:../STM32F4xx_StdPeriph_Driver/src/stm32f4xx_tim.c ****   /* Enable or Disable the Output Compare Clear Bit */
1482:../STM32F4xx_StdPeriph_Driver/src/stm32f4xx_tim.c ****   tmpccmr1 |= TIM_OCClear;
 2686              		.loc 1 1482 0
 2687 0e3c FA89     		ldrh	r2, [r7, #14]	@ movhi
 2688 0e3e 7B88     		ldrh	r3, [r7, #2]	@ movhi
 2689 0e40 1343     		orrs	r3, r3, r2
 2690 0e42 FB81     		strh	r3, [r7, #14]	@ movhi
1483:../STM32F4xx_StdPeriph_Driver/src/stm32f4xx_tim.c **** 
1484:../STM32F4xx_StdPeriph_Driver/src/stm32f4xx_tim.c ****   /* Write to TIMx CCMR1 register */
1485:../STM32F4xx_StdPeriph_Driver/src/stm32f4xx_tim.c ****   TIMx->CCMR1 = tmpccmr1;
 2691              		.loc 1 1485 0
 2692 0e44 7B68     		ldr	r3, [r7, #4]
 2693 0e46 FA89     		ldrh	r2, [r7, #14]	@ movhi
 2694 0e48 1A83     		strh	r2, [r3, #24]	@ movhi
1486:../STM32F4xx_StdPeriph_Driver/src/stm32f4xx_tim.c **** }
 2695              		.loc 1 1486 0
 2696 0e4a 07F11407 		add	r7, r7, #20
 2697 0e4e BD46     		mov	sp, r7
 2698 0e50 80BC     		pop	{r7}
 2699 0e52 7047     		bx	lr
 2700              		.cfi_endproc
 2701              	.LFE147:
 2703              		.align	2
 2704              		.global	TIM_ClearOC2Ref
 2705              		.thumb
 2706              		.thumb_func
 2708              	TIM_ClearOC2Ref:
 2709              	.LFB148:
1487:../STM32F4xx_StdPeriph_Driver/src/stm32f4xx_tim.c **** 
1488:../STM32F4xx_StdPeriph_Driver/src/stm32f4xx_tim.c **** /**
1489:../STM32F4xx_StdPeriph_Driver/src/stm32f4xx_tim.c ****   * @brief  Clears or safeguards the OCREF2 signal on an external event
1490:../STM32F4xx_StdPeriph_Driver/src/stm32f4xx_tim.c ****   * @param  TIMx: where x can be  1, 2, 3, 4, 5, 8, 9 or 12 to select the TIM 
1491:../STM32F4xx_StdPeriph_Driver/src/stm32f4xx_tim.c ****   *         peripheral.
1492:../STM32F4xx_StdPeriph_Driver/src/stm32f4xx_tim.c ****   * @param  TIM_OCClear: new state of the Output Compare Clear Enable Bit.
1493:../STM32F4xx_StdPeriph_Driver/src/stm32f4xx_tim.c ****   *          This parameter can be one of the following values:
1494:../STM32F4xx_StdPeriph_Driver/src/stm32f4xx_tim.c ****   *            @arg TIM_OCClear_Enable: TIM Output clear enable
1495:../STM32F4xx_StdPeriph_Driver/src/stm32f4xx_tim.c ****   *            @arg TIM_OCClear_Disable: TIM Output clear disable
1496:../STM32F4xx_StdPeriph_Driver/src/stm32f4xx_tim.c ****   * @retval None
1497:../STM32F4xx_StdPeriph_Driver/src/stm32f4xx_tim.c ****   */
1498:../STM32F4xx_StdPeriph_Driver/src/stm32f4xx_tim.c **** void TIM_ClearOC2Ref(TIM_TypeDef* TIMx, uint16_t TIM_OCClear)
1499:../STM32F4xx_StdPeriph_Driver/src/stm32f4xx_tim.c **** {
 2710              		.loc 1 1499 0
 2711              		.cfi_startproc
 2712              		@ args = 0, pretend = 0, frame = 16
 2713              		@ frame_needed = 1, uses_anonymous_args = 0
 2714              		@ link register save eliminated.
 2715 0e54 80B4     		push	{r7}
 2716              	.LCFI114:
 2717              		.cfi_def_cfa_offset 4
 2718              		.cfi_offset 7, -4
 2719 0e56 85B0     		sub	sp, sp, #20
 2720              	.LCFI115:
 2721              		.cfi_def_cfa_offset 24
 2722 0e58 00AF     		add	r7, sp, #0
 2723              	.LCFI116:
 2724              		.cfi_def_cfa_register 7
 2725 0e5a 7860     		str	r0, [r7, #4]
 2726 0e5c 0B46     		mov	r3, r1
 2727 0e5e 7B80     		strh	r3, [r7, #2]	@ movhi
1500:../STM32F4xx_StdPeriph_Driver/src/stm32f4xx_tim.c ****   uint16_t tmpccmr1 = 0;
 2728              		.loc 1 1500 0
 2729 0e60 4FF00003 		mov	r3, #0
 2730 0e64 FB81     		strh	r3, [r7, #14]	@ movhi
1501:../STM32F4xx_StdPeriph_Driver/src/stm32f4xx_tim.c **** 
1502:../STM32F4xx_StdPeriph_Driver/src/stm32f4xx_tim.c ****   /* Check the parameters */
1503:../STM32F4xx_StdPeriph_Driver/src/stm32f4xx_tim.c ****   assert_param(IS_TIM_LIST2_PERIPH(TIMx));
1504:../STM32F4xx_StdPeriph_Driver/src/stm32f4xx_tim.c ****   assert_param(IS_TIM_OCCLEAR_STATE(TIM_OCClear));
1505:../STM32F4xx_StdPeriph_Driver/src/stm32f4xx_tim.c **** 
1506:../STM32F4xx_StdPeriph_Driver/src/stm32f4xx_tim.c ****   tmpccmr1 = TIMx->CCMR1;
 2731              		.loc 1 1506 0
 2732 0e66 7B68     		ldr	r3, [r7, #4]
 2733 0e68 1B8B     		ldrh	r3, [r3, #24]	@ movhi
 2734 0e6a FB81     		strh	r3, [r7, #14]	@ movhi
1507:../STM32F4xx_StdPeriph_Driver/src/stm32f4xx_tim.c **** 
1508:../STM32F4xx_StdPeriph_Driver/src/stm32f4xx_tim.c ****   /* Reset the OC2CE Bit */
1509:../STM32F4xx_StdPeriph_Driver/src/stm32f4xx_tim.c ****   tmpccmr1 &= (uint16_t)~TIM_CCMR1_OC2CE;
 2735              		.loc 1 1509 0
 2736 0e6c FB89     		ldrh	r3, [r7, #14]	@ movhi
 2737 0e6e 4FEA4343 		lsl	r3, r3, #17
 2738 0e72 4FEA5343 		lsr	r3, r3, #17
 2739 0e76 FB81     		strh	r3, [r7, #14]	@ movhi
1510:../STM32F4xx_StdPeriph_Driver/src/stm32f4xx_tim.c **** 
1511:../STM32F4xx_StdPeriph_Driver/src/stm32f4xx_tim.c ****   /* Enable or Disable the Output Compare Clear Bit */
1512:../STM32F4xx_StdPeriph_Driver/src/stm32f4xx_tim.c ****   tmpccmr1 |= (uint16_t)(TIM_OCClear << 8);
 2740              		.loc 1 1512 0
 2741 0e78 7B88     		ldrh	r3, [r7, #2]	@ movhi
 2742 0e7a 4FEA0323 		lsl	r3, r3, #8
 2743 0e7e 9AB2     		uxth	r2, r3
 2744 0e80 FB89     		ldrh	r3, [r7, #14]	@ movhi
