   1              		.syntax unified
   2              		.cpu cortex-m4
   3              		.eabi_attribute 27, 3
   4              		.fpu fpv4-sp-d16
   5              		.eabi_attribute 20, 1
   6              		.eabi_attribute 21, 1
   7              		.eabi_attribute 23, 3
   8              		.eabi_attribute 24, 1
   9              		.eabi_attribute 25, 1
  10              		.eabi_attribute 26, 1
  11              		.eabi_attribute 30, 6
  12              		.eabi_attribute 18, 4
  13              		.thumb
  14              		.file	"stm32f4xx_dbgmcu.c"
  15              		.text
  16              	.Ltext0:
  17              		.cfi_sections	.debug_frame
  18              		.section	.text.DBGMCU_GetREVID,"ax",%progbits
  19              		.align	2
  20              		.global	DBGMCU_GetREVID
  21              		.thumb
  22              		.thumb_func
  24              	DBGMCU_GetREVID:
  25              	.LFB110:
  26              		.file 1 "../STM32F4xx_StdPeriph_Driver/src/stm32f4xx_dbgmcu.c"
   1:../STM32F4xx_StdPeriph_Driver/src/stm32f4xx_dbgmcu.c **** /**
   2:../STM32F4xx_StdPeriph_Driver/src/stm32f4xx_dbgmcu.c ****   ******************************************************************************
   3:../STM32F4xx_StdPeriph_Driver/src/stm32f4xx_dbgmcu.c ****   * @file    stm32f4xx_dbgmcu.c
   4:../STM32F4xx_StdPeriph_Driver/src/stm32f4xx_dbgmcu.c ****   * @author  MCD Application Team
   5:../STM32F4xx_StdPeriph_Driver/src/stm32f4xx_dbgmcu.c ****   * @version V1.0.0
   6:../STM32F4xx_StdPeriph_Driver/src/stm32f4xx_dbgmcu.c ****   * @date    30-September-2011
   7:../STM32F4xx_StdPeriph_Driver/src/stm32f4xx_dbgmcu.c ****   * @brief   This file provides all the DBGMCU firmware functions.
   8:../STM32F4xx_StdPeriph_Driver/src/stm32f4xx_dbgmcu.c ****   ******************************************************************************
   9:../STM32F4xx_StdPeriph_Driver/src/stm32f4xx_dbgmcu.c ****   * @attention
  10:../STM32F4xx_StdPeriph_Driver/src/stm32f4xx_dbgmcu.c ****   *
  11:../STM32F4xx_StdPeriph_Driver/src/stm32f4xx_dbgmcu.c ****   * THE PRESENT FIRMWARE WHICH IS FOR GUIDANCE ONLY AIMS AT PROVIDING CUSTOMERS
  12:../STM32F4xx_StdPeriph_Driver/src/stm32f4xx_dbgmcu.c ****   * WITH CODING INFORMATION REGARDING THEIR PRODUCTS IN ORDER FOR THEM TO SAVE
  13:../STM32F4xx_StdPeriph_Driver/src/stm32f4xx_dbgmcu.c ****   * TIME. AS A RESULT, STMICROELECTRONICS SHALL NOT BE HELD LIABLE FOR ANY
  14:../STM32F4xx_StdPeriph_Driver/src/stm32f4xx_dbgmcu.c ****   * DIRECT, INDIRECT OR CONSEQUENTIAL DAMAGES WITH RESPECT TO ANY CLAIMS ARISING
  15:../STM32F4xx_StdPeriph_Driver/src/stm32f4xx_dbgmcu.c ****   * FROM THE CONTENT OF SUCH FIRMWARE AND/OR THE USE MADE BY CUSTOMERS OF THE
  16:../STM32F4xx_StdPeriph_Driver/src/stm32f4xx_dbgmcu.c ****   * CODING INFORMATION CONTAINED HEREIN IN CONNECTION WITH THEIR PRODUCTS.
  17:../STM32F4xx_StdPeriph_Driver/src/stm32f4xx_dbgmcu.c ****   *
  18:../STM32F4xx_StdPeriph_Driver/src/stm32f4xx_dbgmcu.c ****   * <h2><center>&copy; COPYRIGHT 2011 STMicroelectronics</center></h2>
  19:../STM32F4xx_StdPeriph_Driver/src/stm32f4xx_dbgmcu.c ****   ******************************************************************************
  20:../STM32F4xx_StdPeriph_Driver/src/stm32f4xx_dbgmcu.c ****   */
  21:../STM32F4xx_StdPeriph_Driver/src/stm32f4xx_dbgmcu.c **** 
  22:../STM32F4xx_StdPeriph_Driver/src/stm32f4xx_dbgmcu.c **** /* Includes ------------------------------------------------------------------*/
  23:../STM32F4xx_StdPeriph_Driver/src/stm32f4xx_dbgmcu.c **** #include "stm32f4xx_dbgmcu.h"
  24:../STM32F4xx_StdPeriph_Driver/src/stm32f4xx_dbgmcu.c **** 
  25:../STM32F4xx_StdPeriph_Driver/src/stm32f4xx_dbgmcu.c **** /** @addtogroup STM32F4xx_StdPeriph_Driver
  26:../STM32F4xx_StdPeriph_Driver/src/stm32f4xx_dbgmcu.c ****   * @{
  27:../STM32F4xx_StdPeriph_Driver/src/stm32f4xx_dbgmcu.c ****   */
  28:../STM32F4xx_StdPeriph_Driver/src/stm32f4xx_dbgmcu.c **** 
  29:../STM32F4xx_StdPeriph_Driver/src/stm32f4xx_dbgmcu.c **** /** @defgroup DBGMCU 
  30:../STM32F4xx_StdPeriph_Driver/src/stm32f4xx_dbgmcu.c ****   * @brief DBGMCU driver modules
  31:../STM32F4xx_StdPeriph_Driver/src/stm32f4xx_dbgmcu.c ****   * @{
  32:../STM32F4xx_StdPeriph_Driver/src/stm32f4xx_dbgmcu.c ****   */ 
  33:../STM32F4xx_StdPeriph_Driver/src/stm32f4xx_dbgmcu.c **** 
  34:../STM32F4xx_StdPeriph_Driver/src/stm32f4xx_dbgmcu.c **** /* Private typedef -----------------------------------------------------------*/
  35:../STM32F4xx_StdPeriph_Driver/src/stm32f4xx_dbgmcu.c **** /* Private define ------------------------------------------------------------*/
  36:../STM32F4xx_StdPeriph_Driver/src/stm32f4xx_dbgmcu.c **** #define IDCODE_DEVID_MASK    ((uint32_t)0x00000FFF)
  37:../STM32F4xx_StdPeriph_Driver/src/stm32f4xx_dbgmcu.c **** 
  38:../STM32F4xx_StdPeriph_Driver/src/stm32f4xx_dbgmcu.c **** /* Private macro -------------------------------------------------------------*/
  39:../STM32F4xx_StdPeriph_Driver/src/stm32f4xx_dbgmcu.c **** /* Private variables ---------------------------------------------------------*/
  40:../STM32F4xx_StdPeriph_Driver/src/stm32f4xx_dbgmcu.c **** /* Private function prototypes -----------------------------------------------*/
  41:../STM32F4xx_StdPeriph_Driver/src/stm32f4xx_dbgmcu.c **** /* Private functions ---------------------------------------------------------*/
  42:../STM32F4xx_StdPeriph_Driver/src/stm32f4xx_dbgmcu.c **** 
  43:../STM32F4xx_StdPeriph_Driver/src/stm32f4xx_dbgmcu.c **** /** @defgroup DBGMCU_Private_Functions
  44:../STM32F4xx_StdPeriph_Driver/src/stm32f4xx_dbgmcu.c ****   * @{
  45:../STM32F4xx_StdPeriph_Driver/src/stm32f4xx_dbgmcu.c ****   */ 
  46:../STM32F4xx_StdPeriph_Driver/src/stm32f4xx_dbgmcu.c **** 
  47:../STM32F4xx_StdPeriph_Driver/src/stm32f4xx_dbgmcu.c **** /**
  48:../STM32F4xx_StdPeriph_Driver/src/stm32f4xx_dbgmcu.c ****   * @brief  Returns the device revision identifier.
  49:../STM32F4xx_StdPeriph_Driver/src/stm32f4xx_dbgmcu.c ****   * @param  None
  50:../STM32F4xx_StdPeriph_Driver/src/stm32f4xx_dbgmcu.c ****   * @retval Device revision identifier
  51:../STM32F4xx_StdPeriph_Driver/src/stm32f4xx_dbgmcu.c ****   */
  52:../STM32F4xx_StdPeriph_Driver/src/stm32f4xx_dbgmcu.c **** uint32_t DBGMCU_GetREVID(void)
  53:../STM32F4xx_StdPeriph_Driver/src/stm32f4xx_dbgmcu.c **** {
  27              		.loc 1 53 0
  28              		.cfi_startproc
  29              		@ args = 0, pretend = 0, frame = 0
  30              		@ frame_needed = 1, uses_anonymous_args = 0
  31              		@ link register save eliminated.
  32 0000 80B4     		push	{r7}
  33              	.LCFI0:
  34              		.cfi_def_cfa_offset 4
  35              		.cfi_offset 7, -4
  36 0002 00AF     		add	r7, sp, #0
  37              	.LCFI1:
  38              		.cfi_def_cfa_register 7
  54:../STM32F4xx_StdPeriph_Driver/src/stm32f4xx_dbgmcu.c ****    return(DBGMCU->IDCODE >> 16);
  39              		.loc 1 54 0
  40 0004 4FF40053 		mov	r3, #8192
  41 0008 CEF20403 		movt	r3, 57348
  42 000c 1B68     		ldr	r3, [r3, #0]
  43 000e 4FEA1343 		lsr	r3, r3, #16
  55:../STM32F4xx_StdPeriph_Driver/src/stm32f4xx_dbgmcu.c **** }
  44              		.loc 1 55 0
  45 0012 1846     		mov	r0, r3
  46 0014 BD46     		mov	sp, r7
  47 0016 80BC     		pop	{r7}
  48 0018 7047     		bx	lr
  49              		.cfi_endproc
  50              	.LFE110:
  52 001a 00BF     		.section	.text.DBGMCU_GetDEVID,"ax",%progbits
  53              		.align	2
  54              		.global	DBGMCU_GetDEVID
  55              		.thumb
  56              		.thumb_func
  58              	DBGMCU_GetDEVID:
  59              	.LFB111:
  56:../STM32F4xx_StdPeriph_Driver/src/stm32f4xx_dbgmcu.c **** 
  57:../STM32F4xx_StdPeriph_Driver/src/stm32f4xx_dbgmcu.c **** /**
  58:../STM32F4xx_StdPeriph_Driver/src/stm32f4xx_dbgmcu.c ****   * @brief  Returns the device identifier.
  59:../STM32F4xx_StdPeriph_Driver/src/stm32f4xx_dbgmcu.c ****   * @param  None
  60:../STM32F4xx_StdPeriph_Driver/src/stm32f4xx_dbgmcu.c ****   * @retval Device identifier
  61:../STM32F4xx_StdPeriph_Driver/src/stm32f4xx_dbgmcu.c ****   */
  62:../STM32F4xx_StdPeriph_Driver/src/stm32f4xx_dbgmcu.c **** uint32_t DBGMCU_GetDEVID(void)
  63:../STM32F4xx_StdPeriph_Driver/src/stm32f4xx_dbgmcu.c **** {
  60              		.loc 1 63 0
  61              		.cfi_startproc
  62              		@ args = 0, pretend = 0, frame = 0
  63              		@ frame_needed = 1, uses_anonymous_args = 0
  64              		@ link register save eliminated.
  65 0000 80B4     		push	{r7}
  66              	.LCFI2:
  67              		.cfi_def_cfa_offset 4
  68              		.cfi_offset 7, -4
  69 0002 00AF     		add	r7, sp, #0
  70              	.LCFI3:
  71              		.cfi_def_cfa_register 7
  64:../STM32F4xx_StdPeriph_Driver/src/stm32f4xx_dbgmcu.c ****    return(DBGMCU->IDCODE & IDCODE_DEVID_MASK);
  72              		.loc 1 64 0
  73 0004 4FF40053 		mov	r3, #8192
  74 0008 CEF20403 		movt	r3, 57348
  75 000c 1B68     		ldr	r3, [r3, #0]
  76 000e 4FEA0353 		lsl	r3, r3, #20
  77 0012 4FEA1353 		lsr	r3, r3, #20
  65:../STM32F4xx_StdPeriph_Driver/src/stm32f4xx_dbgmcu.c **** }
  78              		.loc 1 65 0
  79 0016 1846     		mov	r0, r3
  80 0018 BD46     		mov	sp, r7
  81 001a 80BC     		pop	{r7}
  82 001c 7047     		bx	lr
  83              		.cfi_endproc
  84              	.LFE111:
  86 001e 00BF     		.section	.text.DBGMCU_Config,"ax",%progbits
  87              		.align	2
  88              		.global	DBGMCU_Config
  89              		.thumb
  90              		.thumb_func
  92              	DBGMCU_Config:
  93              	.LFB112:
  66:../STM32F4xx_StdPeriph_Driver/src/stm32f4xx_dbgmcu.c **** 
  67:../STM32F4xx_StdPeriph_Driver/src/stm32f4xx_dbgmcu.c **** /**
  68:../STM32F4xx_StdPeriph_Driver/src/stm32f4xx_dbgmcu.c ****   * @brief  Configures low power mode behavior when the MCU is in Debug mode.
  69:../STM32F4xx_StdPeriph_Driver/src/stm32f4xx_dbgmcu.c ****   * @param  DBGMCU_Periph: specifies the low power mode.
  70:../STM32F4xx_StdPeriph_Driver/src/stm32f4xx_dbgmcu.c ****   *   This parameter can be any combination of the following values:
  71:../STM32F4xx_StdPeriph_Driver/src/stm32f4xx_dbgmcu.c ****   *     @arg DBGMCU_SLEEP: Keep debugger connection during SLEEP mode              
  72:../STM32F4xx_StdPeriph_Driver/src/stm32f4xx_dbgmcu.c ****   *     @arg DBGMCU_STOP: Keep debugger connection during STOP mode               
  73:../STM32F4xx_StdPeriph_Driver/src/stm32f4xx_dbgmcu.c ****   *     @arg DBGMCU_STANDBY: Keep debugger connection during STANDBY mode        
  74:../STM32F4xx_StdPeriph_Driver/src/stm32f4xx_dbgmcu.c ****   * @param  NewState: new state of the specified low power mode in Debug mode.
  75:../STM32F4xx_StdPeriph_Driver/src/stm32f4xx_dbgmcu.c ****   *   This parameter can be: ENABLE or DISABLE.
  76:../STM32F4xx_StdPeriph_Driver/src/stm32f4xx_dbgmcu.c ****   * @retval None
  77:../STM32F4xx_StdPeriph_Driver/src/stm32f4xx_dbgmcu.c ****   */
  78:../STM32F4xx_StdPeriph_Driver/src/stm32f4xx_dbgmcu.c **** void DBGMCU_Config(uint32_t DBGMCU_Periph, FunctionalState NewState)
  79:../STM32F4xx_StdPeriph_Driver/src/stm32f4xx_dbgmcu.c **** {
  94              		.loc 1 79 0
  95              		.cfi_startproc
  96              		@ args = 0, pretend = 0, frame = 8
  97              		@ frame_needed = 1, uses_anonymous_args = 0
  98              		@ link register save eliminated.
  99 0000 80B4     		push	{r7}
 100              	.LCFI4:
 101              		.cfi_def_cfa_offset 4
 102              		.cfi_offset 7, -4
 103 0002 83B0     		sub	sp, sp, #12
 104              	.LCFI5:
 105              		.cfi_def_cfa_offset 16
 106 0004 00AF     		add	r7, sp, #0
 107              	.LCFI6:
 108              		.cfi_def_cfa_register 7
 109 0006 7860     		str	r0, [r7, #4]
 110 0008 0B46     		mov	r3, r1
 111 000a FB70     		strb	r3, [r7, #3]
  80:../STM32F4xx_StdPeriph_Driver/src/stm32f4xx_dbgmcu.c ****   /* Check the parameters */
  81:../STM32F4xx_StdPeriph_Driver/src/stm32f4xx_dbgmcu.c ****   assert_param(IS_DBGMCU_PERIPH(DBGMCU_Periph));
  82:../STM32F4xx_StdPeriph_Driver/src/stm32f4xx_dbgmcu.c ****   assert_param(IS_FUNCTIONAL_STATE(NewState));
  83:../STM32F4xx_StdPeriph_Driver/src/stm32f4xx_dbgmcu.c ****   if (NewState != DISABLE)
 112              		.loc 1 83 0
 113 000c FB78     		ldrb	r3, [r7, #3]	@ zero_extendqisi2
 114 000e 002B     		cmp	r3, #0
 115 0010 0DD0     		beq	.L4
  84:../STM32F4xx_StdPeriph_Driver/src/stm32f4xx_dbgmcu.c ****   {
  85:../STM32F4xx_StdPeriph_Driver/src/stm32f4xx_dbgmcu.c ****     DBGMCU->CR |= DBGMCU_Periph;
 116              		.loc 1 85 0
 117 0012 4FF40053 		mov	r3, #8192
 118 0016 CEF20403 		movt	r3, 57348
 119 001a 4FF40052 		mov	r2, #8192
 120 001e CEF20402 		movt	r2, 57348
 121 0022 5268     		ldr	r2, [r2, #4]
 122 0024 1146     		mov	r1, r2
 123 0026 7A68     		ldr	r2, [r7, #4]
 124 0028 0A43     		orrs	r2, r2, r1
 125 002a 5A60     		str	r2, [r3, #4]
 126 002c 0EE0     		b	.L3
 127              	.L4:
  86:../STM32F4xx_StdPeriph_Driver/src/stm32f4xx_dbgmcu.c ****   }
  87:../STM32F4xx_StdPeriph_Driver/src/stm32f4xx_dbgmcu.c ****   else
  88:../STM32F4xx_StdPeriph_Driver/src/stm32f4xx_dbgmcu.c ****   {
  89:../STM32F4xx_StdPeriph_Driver/src/stm32f4xx_dbgmcu.c ****     DBGMCU->CR &= ~DBGMCU_Periph;
 128              		.loc 1 89 0
 129 002e 4FF40053 		mov	r3, #8192
 130 0032 CEF20403 		movt	r3, 57348
 131 0036 4FF40052 		mov	r2, #8192
 132 003a CEF20402 		movt	r2, 57348
 133 003e 5268     		ldr	r2, [r2, #4]
 134 0040 1146     		mov	r1, r2
 135 0042 7A68     		ldr	r2, [r7, #4]
 136 0044 6FEA0202 		mvn	r2, r2
 137 0048 0A40     		ands	r2, r2, r1
 138 004a 5A60     		str	r2, [r3, #4]
 139              	.L3:
  90:../STM32F4xx_StdPeriph_Driver/src/stm32f4xx_dbgmcu.c ****   }
  91:../STM32F4xx_StdPeriph_Driver/src/stm32f4xx_dbgmcu.c **** }
 140              		.loc 1 91 0
 141 004c 07F10C07 		add	r7, r7, #12
 142 0050 BD46     		mov	sp, r7
 143 0052 80BC     		pop	{r7}
 144 0054 7047     		bx	lr
 145              		.cfi_endproc
 146              	.LFE112:
 148 0056 00BF     		.section	.text.DBGMCU_APB1PeriphConfig,"ax",%progbits
 149              		.align	2
 150              		.global	DBGMCU_APB1PeriphConfig
 151              		.thumb
 152              		.thumb_func
 154              	DBGMCU_APB1PeriphConfig:
 155              	.LFB113:
  92:../STM32F4xx_StdPeriph_Driver/src/stm32f4xx_dbgmcu.c **** 
  93:../STM32F4xx_StdPeriph_Driver/src/stm32f4xx_dbgmcu.c **** /**
  94:../STM32F4xx_StdPeriph_Driver/src/stm32f4xx_dbgmcu.c ****   * @brief  Configures APB1 peripheral behavior when the MCU is in Debug mode.
  95:../STM32F4xx_StdPeriph_Driver/src/stm32f4xx_dbgmcu.c ****   * @param  DBGMCU_Periph: specifies the APB1 peripheral.
  96:../STM32F4xx_StdPeriph_Driver/src/stm32f4xx_dbgmcu.c ****   *   This parameter can be any combination of the following values:        
  97:../STM32F4xx_StdPeriph_Driver/src/stm32f4xx_dbgmcu.c ****   *     @arg DBGMCU_TIM2_STOP: TIM2 counter stopped when Core is halted          
  98:../STM32F4xx_StdPeriph_Driver/src/stm32f4xx_dbgmcu.c ****   *     @arg DBGMCU_TIM3_STOP: TIM3 counter stopped when Core is halted          
  99:../STM32F4xx_StdPeriph_Driver/src/stm32f4xx_dbgmcu.c ****   *     @arg DBGMCU_TIM4_STOP: TIM4 counter stopped when Core is halted
 100:../STM32F4xx_StdPeriph_Driver/src/stm32f4xx_dbgmcu.c ****   *     @arg DBGMCU_TIM5_STOP: TIM5 counter stopped when Core is halted          
 101:../STM32F4xx_StdPeriph_Driver/src/stm32f4xx_dbgmcu.c ****   *     @arg DBGMCU_TIM6_STOP: TIM6 counter stopped when Core is halted          
 102:../STM32F4xx_StdPeriph_Driver/src/stm32f4xx_dbgmcu.c ****   *     @arg DBGMCU_TIM7_STOP: TIM7 counter stopped when Core is halted
 103:../STM32F4xx_StdPeriph_Driver/src/stm32f4xx_dbgmcu.c ****   *     @arg DBGMCU_TIM12_STOP: TIM12 counter stopped when Core is halted  
 104:../STM32F4xx_StdPeriph_Driver/src/stm32f4xx_dbgmcu.c ****   *     @arg DBGMCU_TIM13_STOP: TIM13 counter stopped when Core is halted  
 105:../STM32F4xx_StdPeriph_Driver/src/stm32f4xx_dbgmcu.c ****   *     @arg DBGMCU_TIM14_STOP: TIM14 counter stopped when Core is halted 
 106:../STM32F4xx_StdPeriph_Driver/src/stm32f4xx_dbgmcu.c ****   *     @arg DBGMCU_RTC_STOP: RTC Calendar and Wakeup counter stopped when Core is halted.         
 107:../STM32F4xx_StdPeriph_Driver/src/stm32f4xx_dbgmcu.c ****   *     @arg DBGMCU_WWDG_STOP: Debug WWDG stopped when Core is halted
 108:../STM32F4xx_StdPeriph_Driver/src/stm32f4xx_dbgmcu.c ****   *     @arg DBGMCU_IWDG_STOP: Debug IWDG stopped when Core is halted        
 109:../STM32F4xx_StdPeriph_Driver/src/stm32f4xx_dbgmcu.c ****   *     @arg DBGMCU_I2C1_SMBUS_TIMEOUT: I2C1 SMBUS timeout mode stopped when Core is halted
 110:../STM32F4xx_StdPeriph_Driver/src/stm32f4xx_dbgmcu.c ****   *     @arg DBGMCU_I2C2_SMBUS_TIMEOUT: I2C2 SMBUS timeout mode stopped when Core is halted
 111:../STM32F4xx_StdPeriph_Driver/src/stm32f4xx_dbgmcu.c ****   *     @arg DBGMCU_I2C3_SMBUS_TIMEOUT: I2C3 SMBUS timeout mode stopped when Core is halted
 112:../STM32F4xx_StdPeriph_Driver/src/stm32f4xx_dbgmcu.c ****   *     @arg DBGMCU_CAN2_STOP: Debug CAN1 stopped when Core is halted           
 113:../STM32F4xx_StdPeriph_Driver/src/stm32f4xx_dbgmcu.c ****   *     @arg DBGMCU_CAN1_STOP: Debug CAN2 stopped when Core is halted        
 114:../STM32F4xx_StdPeriph_Driver/src/stm32f4xx_dbgmcu.c ****   *   This parameter can be: ENABLE or DISABLE.
 115:../STM32F4xx_StdPeriph_Driver/src/stm32f4xx_dbgmcu.c ****   * @retval None
 116:../STM32F4xx_StdPeriph_Driver/src/stm32f4xx_dbgmcu.c ****   */
 117:../STM32F4xx_StdPeriph_Driver/src/stm32f4xx_dbgmcu.c **** void DBGMCU_APB1PeriphConfig(uint32_t DBGMCU_Periph, FunctionalState NewState)
 118:../STM32F4xx_StdPeriph_Driver/src/stm32f4xx_dbgmcu.c **** {
 156              		.loc 1 118 0
 157              		.cfi_startproc
 158              		@ args = 0, pretend = 0, frame = 8
 159              		@ frame_needed = 1, uses_anonymous_args = 0
 160              		@ link register save eliminated.
 161 0000 80B4     		push	{r7}
 162              	.LCFI7:
 163              		.cfi_def_cfa_offset 4
 164              		.cfi_offset 7, -4
 165 0002 83B0     		sub	sp, sp, #12
 166              	.LCFI8:
 167              		.cfi_def_cfa_offset 16
 168 0004 00AF     		add	r7, sp, #0
 169              	.LCFI9:
 170              		.cfi_def_cfa_register 7
 171 0006 7860     		str	r0, [r7, #4]
 172 0008 0B46     		mov	r3, r1
 173 000a FB70     		strb	r3, [r7, #3]
 119:../STM32F4xx_StdPeriph_Driver/src/stm32f4xx_dbgmcu.c ****   /* Check the parameters */
 120:../STM32F4xx_StdPeriph_Driver/src/stm32f4xx_dbgmcu.c ****   assert_param(IS_DBGMCU_APB1PERIPH(DBGMCU_Periph));
 121:../STM32F4xx_StdPeriph_Driver/src/stm32f4xx_dbgmcu.c ****   assert_param(IS_FUNCTIONAL_STATE(NewState));
 122:../STM32F4xx_StdPeriph_Driver/src/stm32f4xx_dbgmcu.c **** 
 123:../STM32F4xx_StdPeriph_Driver/src/stm32f4xx_dbgmcu.c ****   if (NewState != DISABLE)
 174              		.loc 1 123 0
 175 000c FB78     		ldrb	r3, [r7, #3]	@ zero_extendqisi2
 176 000e 002B     		cmp	r3, #0
 177 0010 0DD0     		beq	.L7
 124:../STM32F4xx_StdPeriph_Driver/src/stm32f4xx_dbgmcu.c ****   {
 125:../STM32F4xx_StdPeriph_Driver/src/stm32f4xx_dbgmcu.c ****     DBGMCU->APB1FZ |= DBGMCU_Periph;
 178              		.loc 1 125 0
 179 0012 4FF40053 		mov	r3, #8192
 180 0016 CEF20403 		movt	r3, 57348
 181 001a 4FF40052 		mov	r2, #8192
 182 001e CEF20402 		movt	r2, 57348
 183 0022 9268     		ldr	r2, [r2, #8]
 184 0024 1146     		mov	r1, r2
 185 0026 7A68     		ldr	r2, [r7, #4]
 186 0028 0A43     		orrs	r2, r2, r1
 187 002a 9A60     		str	r2, [r3, #8]
 188 002c 0EE0     		b	.L6
 189              	.L7:
 126:../STM32F4xx_StdPeriph_Driver/src/stm32f4xx_dbgmcu.c ****   }
 127:../STM32F4xx_StdPeriph_Driver/src/stm32f4xx_dbgmcu.c ****   else
 128:../STM32F4xx_StdPeriph_Driver/src/stm32f4xx_dbgmcu.c ****   {
 129:../STM32F4xx_StdPeriph_Driver/src/stm32f4xx_dbgmcu.c ****     DBGMCU->APB1FZ &= ~DBGMCU_Periph;
 190              		.loc 1 129 0
 191 002e 4FF40053 		mov	r3, #8192
 192 0032 CEF20403 		movt	r3, 57348
 193 0036 4FF40052 		mov	r2, #8192
 194 003a CEF20402 		movt	r2, 57348
 195 003e 9268     		ldr	r2, [r2, #8]
 196 0040 1146     		mov	r1, r2
 197 0042 7A68     		ldr	r2, [r7, #4]
 198 0044 6FEA0202 		mvn	r2, r2
 199 0048 0A40     		ands	r2, r2, r1
 200 004a 9A60     		str	r2, [r3, #8]
 201              	.L6:
 130:../STM32F4xx_StdPeriph_Driver/src/stm32f4xx_dbgmcu.c ****   }
 131:../STM32F4xx_StdPeriph_Driver/src/stm32f4xx_dbgmcu.c **** }
 202              		.loc 1 131 0
 203 004c 07F10C07 		add	r7, r7, #12
 204 0050 BD46     		mov	sp, r7
 205 0052 80BC     		pop	{r7}
 206 0054 7047     		bx	lr
 207              		.cfi_endproc
 208              	.LFE113:
 210 0056 00BF     		.section	.text.DBGMCU_APB2PeriphConfig,"ax",%progbits
 211              		.align	2
 212              		.global	DBGMCU_APB2PeriphConfig
 213              		.thumb
 214              		.thumb_func
 216              	DBGMCU_APB2PeriphConfig:
 217              	.LFB114:
 132:../STM32F4xx_StdPeriph_Driver/src/stm32f4xx_dbgmcu.c **** 
 133:../STM32F4xx_StdPeriph_Driver/src/stm32f4xx_dbgmcu.c **** /**
 134:../STM32F4xx_StdPeriph_Driver/src/stm32f4xx_dbgmcu.c ****   * @brief  Configures APB2 peripheral behavior when the MCU is in Debug mode.
 135:../STM32F4xx_StdPeriph_Driver/src/stm32f4xx_dbgmcu.c ****   * @param  DBGMCU_Periph: specifies the APB2 peripheral.
 136:../STM32F4xx_StdPeriph_Driver/src/stm32f4xx_dbgmcu.c ****   *   This parameter can be any combination of the following values:       
 137:../STM32F4xx_StdPeriph_Driver/src/stm32f4xx_dbgmcu.c ****   *     @arg DBGMCU_TIM1_STOP: TIM1 counter stopped when Core is halted                
 138:../STM32F4xx_StdPeriph_Driver/src/stm32f4xx_dbgmcu.c ****   *     @arg DBGMCU_TIM8_STOP: TIM8 counter stopped when Core is halted
 139:../STM32F4xx_StdPeriph_Driver/src/stm32f4xx_dbgmcu.c ****   *     @arg DBGMCU_TIM9_STOP: TIM9 counter stopped when Core is halted   
 140:../STM32F4xx_StdPeriph_Driver/src/stm32f4xx_dbgmcu.c ****   *     @arg DBGMCU_TIM10_STOP: TIM10 counter stopped when Core is halted   
 141:../STM32F4xx_StdPeriph_Driver/src/stm32f4xx_dbgmcu.c ****   *     @arg DBGMCU_TIM11_STOP: TIM11 counter stopped when Core is halted                          
 142:../STM32F4xx_StdPeriph_Driver/src/stm32f4xx_dbgmcu.c ****   * @param  NewState: new state of the specified peripheral in Debug mode.
 143:../STM32F4xx_StdPeriph_Driver/src/stm32f4xx_dbgmcu.c ****   *   This parameter can be: ENABLE or DISABLE.
 144:../STM32F4xx_StdPeriph_Driver/src/stm32f4xx_dbgmcu.c ****   * @retval None
 145:../STM32F4xx_StdPeriph_Driver/src/stm32f4xx_dbgmcu.c ****   */
 146:../STM32F4xx_StdPeriph_Driver/src/stm32f4xx_dbgmcu.c **** void DBGMCU_APB2PeriphConfig(uint32_t DBGMCU_Periph, FunctionalState NewState)
 147:../STM32F4xx_StdPeriph_Driver/src/stm32f4xx_dbgmcu.c **** {
 218              		.loc 1 147 0
 219              		.cfi_startproc
 220              		@ args = 0, pretend = 0, frame = 8
 221              		@ frame_needed = 1, uses_anonymous_args = 0
 222              		@ link register save eliminated.
 223 0000 80B4     		push	{r7}
 224              	.LCFI10:
 225              		.cfi_def_cfa_offset 4
 226              		.cfi_offset 7, -4
 227 0002 83B0     		sub	sp, sp, #12
 228              	.LCFI11:
 229              		.cfi_def_cfa_offset 16
 230 0004 00AF     		add	r7, sp, #0
 231              	.LCFI12:
 232              		.cfi_def_cfa_register 7
 233 0006 7860     		str	r0, [r7, #4]
 234 0008 0B46     		mov	r3, r1
 235 000a FB70     		strb	r3, [r7, #3]
 148:../STM32F4xx_StdPeriph_Driver/src/stm32f4xx_dbgmcu.c ****   /* Check the parameters */
 149:../STM32F4xx_StdPeriph_Driver/src/stm32f4xx_dbgmcu.c ****   assert_param(IS_DBGMCU_APB2PERIPH(DBGMCU_Periph));
 150:../STM32F4xx_StdPeriph_Driver/src/stm32f4xx_dbgmcu.c ****   assert_param(IS_FUNCTIONAL_STATE(NewState));
 151:../STM32F4xx_StdPeriph_Driver/src/stm32f4xx_dbgmcu.c **** 
 152:../STM32F4xx_StdPeriph_Driver/src/stm32f4xx_dbgmcu.c ****   if (NewState != DISABLE)
 236              		.loc 1 152 0
 237 000c FB78     		ldrb	r3, [r7, #3]	@ zero_extendqisi2
 238 000e 002B     		cmp	r3, #0
 239 0010 0DD0     		beq	.L10
 153:../STM32F4xx_StdPeriph_Driver/src/stm32f4xx_dbgmcu.c ****   {
 154:../STM32F4xx_StdPeriph_Driver/src/stm32f4xx_dbgmcu.c ****     DBGMCU->APB2FZ |= DBGMCU_Periph;
 240              		.loc 1 154 0
 241 0012 4FF40053 		mov	r3, #8192
 242 0016 CEF20403 		movt	r3, 57348
 243 001a 4FF40052 		mov	r2, #8192
 244 001e CEF20402 		movt	r2, 57348
 245 0022 D268     		ldr	r2, [r2, #12]
 246 0024 1146     		mov	r1, r2
 247 0026 7A68     		ldr	r2, [r7, #4]
 248 0028 0A43     		orrs	r2, r2, r1
 249 002a DA60     		str	r2, [r3, #12]
 250 002c 0EE0     		b	.L9
 251              	.L10:
 155:../STM32F4xx_StdPeriph_Driver/src/stm32f4xx_dbgmcu.c ****   }
 156:../STM32F4xx_StdPeriph_Driver/src/stm32f4xx_dbgmcu.c ****   else
 157:../STM32F4xx_StdPeriph_Driver/src/stm32f4xx_dbgmcu.c ****   {
 158:../STM32F4xx_StdPeriph_Driver/src/stm32f4xx_dbgmcu.c ****     DBGMCU->APB2FZ &= ~DBGMCU_Periph;
 252              		.loc 1 158 0
 253 002e 4FF40053 		mov	r3, #8192
 254 0032 CEF20403 		movt	r3, 57348
 255 0036 4FF40052 		mov	r2, #8192
 256 003a CEF20402 		movt	r2, 57348
 257 003e D268     		ldr	r2, [r2, #12]
 258 0040 1146     		mov	r1, r2
 259 0042 7A68     		ldr	r2, [r7, #4]
 260 0044 6FEA0202 		mvn	r2, r2
 261 0048 0A40     		ands	r2, r2, r1
 262 004a DA60     		str	r2, [r3, #12]
 263              	.L9:
 159:../STM32F4xx_StdPeriph_Driver/src/stm32f4xx_dbgmcu.c ****   }
 160:../STM32F4xx_StdPeriph_Driver/src/stm32f4xx_dbgmcu.c **** }
 264              		.loc 1 160 0
 265 004c 07F10C07 		add	r7, r7, #12
 266 0050 BD46     		mov	sp, r7
 267 0052 80BC     		pop	{r7}
 268 0054 7047     		bx	lr
 269              		.cfi_endproc
 270              	.LFE114:
 272 0056 00BF     		.text
 273              	.Letext0:
 274              		.file 2 "e:/elektronik/toolchain/yagarto/lib/gcc/../../arm-none-eabi/sys-include/stdint.h"
 275              		.file 3 "E:\\Desktop\\thundercyer-the-alarm-clock\\CMSIS\\Device\\STM32F4xx\\Include/stm32f4xx.h"
 276              		.file 4 "E:\\Desktop\\thundercyer-the-alarm-clock\\CMSIS\\Include/core_cm4.h"
DEFINED SYMBOLS
                            *ABS*:00000000 stm32f4xx_dbgmcu.c
C:\Users\Alex\AppData\Local\Temp\cc2VxmmT.s:19     .text.DBGMCU_GetREVID:00000000 $t
C:\Users\Alex\AppData\Local\Temp\cc2VxmmT.s:24     .text.DBGMCU_GetREVID:00000000 DBGMCU_GetREVID
C:\Users\Alex\AppData\Local\Temp\cc2VxmmT.s:53     .text.DBGMCU_GetDEVID:00000000 $t
C:\Users\Alex\AppData\Local\Temp\cc2VxmmT.s:58     .text.DBGMCU_GetDEVID:00000000 DBGMCU_GetDEVID
C:\Users\Alex\AppData\Local\Temp\cc2VxmmT.s:87     .text.DBGMCU_Config:00000000 $t
C:\Users\Alex\AppData\Local\Temp\cc2VxmmT.s:92     .text.DBGMCU_Config:00000000 DBGMCU_Config
C:\Users\Alex\AppData\Local\Temp\cc2VxmmT.s:149    .text.DBGMCU_APB1PeriphConfig:00000000 $t
C:\Users\Alex\AppData\Local\Temp\cc2VxmmT.s:154    .text.DBGMCU_APB1PeriphConfig:00000000 DBGMCU_APB1PeriphConfig
C:\Users\Alex\AppData\Local\Temp\cc2VxmmT.s:211    .text.DBGMCU_APB2PeriphConfig:00000000 $t
C:\Users\Alex\AppData\Local\Temp\cc2VxmmT.s:216    .text.DBGMCU_APB2PeriphConfig:00000000 DBGMCU_APB2PeriphConfig
                     .debug_frame:00000010 $d

NO UNDEFINED SYMBOLS
