   1              		.syntax unified
   2              		.cpu cortex-m4
   3              		.eabi_attribute 27, 3
   4              		.fpu fpv4-sp-d16
   5              		.eabi_attribute 20, 1
   6              		.eabi_attribute 21, 1
   7              		.eabi_attribute 23, 3
   8              		.eabi_attribute 24, 1
   9              		.eabi_attribute 25, 1
  10              		.eabi_attribute 26, 1
  11              		.eabi_attribute 30, 6
  12              		.eabi_attribute 18, 4
  13              		.thumb
  14              		.file	"stm32f4xx_wwdg.c"
  15              		.text
  16              	.Ltext0:
  17              		.cfi_sections	.debug_frame
  18              		.section	.text.WWDG_DeInit,"ax",%progbits
  19              		.align	2
  20              		.global	WWDG_DeInit
  21              		.thumb
  22              		.thumb_func
  24              	WWDG_DeInit:
  25              	.LFB110:
  26              		.file 1 "../STM32F4xx_StdPeriph_Driver/src/stm32f4xx_wwdg.c"
   1:../STM32F4xx_StdPeriph_Driver/src/stm32f4xx_wwdg.c **** /**
   2:../STM32F4xx_StdPeriph_Driver/src/stm32f4xx_wwdg.c ****   ******************************************************************************
   3:../STM32F4xx_StdPeriph_Driver/src/stm32f4xx_wwdg.c ****   * @file    stm32f4xx_wwdg.c
   4:../STM32F4xx_StdPeriph_Driver/src/stm32f4xx_wwdg.c ****   * @author  MCD Application Team
   5:../STM32F4xx_StdPeriph_Driver/src/stm32f4xx_wwdg.c ****   * @version V1.0.0
   6:../STM32F4xx_StdPeriph_Driver/src/stm32f4xx_wwdg.c ****   * @date    30-September-2011
   7:../STM32F4xx_StdPeriph_Driver/src/stm32f4xx_wwdg.c ****   * @brief   This file provides firmware functions to manage the following 
   8:../STM32F4xx_StdPeriph_Driver/src/stm32f4xx_wwdg.c ****   *          functionalities of the Window watchdog (WWDG) peripheral:           
   9:../STM32F4xx_StdPeriph_Driver/src/stm32f4xx_wwdg.c ****   *           - Prescaler, Refresh window and Counter configuration
  10:../STM32F4xx_StdPeriph_Driver/src/stm32f4xx_wwdg.c ****   *           - WWDG activation
  11:../STM32F4xx_StdPeriph_Driver/src/stm32f4xx_wwdg.c ****   *           - Interrupts and flags management
  12:../STM32F4xx_StdPeriph_Driver/src/stm32f4xx_wwdg.c ****   *             
  13:../STM32F4xx_StdPeriph_Driver/src/stm32f4xx_wwdg.c ****   *  @verbatim
  14:../STM32F4xx_StdPeriph_Driver/src/stm32f4xx_wwdg.c ****   *    
  15:../STM32F4xx_StdPeriph_Driver/src/stm32f4xx_wwdg.c ****   *          ===================================================================
  16:../STM32F4xx_StdPeriph_Driver/src/stm32f4xx_wwdg.c ****   *                                     WWDG features
  17:../STM32F4xx_StdPeriph_Driver/src/stm32f4xx_wwdg.c ****   *          ===================================================================
  18:../STM32F4xx_StdPeriph_Driver/src/stm32f4xx_wwdg.c ****   *                                        
  19:../STM32F4xx_StdPeriph_Driver/src/stm32f4xx_wwdg.c ****   *          Once enabled the WWDG generates a system reset on expiry of a programmed
  20:../STM32F4xx_StdPeriph_Driver/src/stm32f4xx_wwdg.c ****   *          time period, unless the program refreshes the counter (downcounter) 
  21:../STM32F4xx_StdPeriph_Driver/src/stm32f4xx_wwdg.c ****   *          before to reach 0x3F value (i.e. a reset is generated when the counter
  22:../STM32F4xx_StdPeriph_Driver/src/stm32f4xx_wwdg.c ****   *          value rolls over from 0x40 to 0x3F). 
  23:../STM32F4xx_StdPeriph_Driver/src/stm32f4xx_wwdg.c ****   *          An MCU reset is also generated if the counter value is refreshed
  24:../STM32F4xx_StdPeriph_Driver/src/stm32f4xx_wwdg.c ****   *          before the counter has reached the refresh window value. This 
  25:../STM32F4xx_StdPeriph_Driver/src/stm32f4xx_wwdg.c ****   *          implies that the counter must be refreshed in a limited window.
  26:../STM32F4xx_StdPeriph_Driver/src/stm32f4xx_wwdg.c ****   *            
  27:../STM32F4xx_StdPeriph_Driver/src/stm32f4xx_wwdg.c ****   *          Once enabled the WWDG cannot be disabled except by a system reset.                    
  28:../STM32F4xx_StdPeriph_Driver/src/stm32f4xx_wwdg.c ****   *          
  29:../STM32F4xx_StdPeriph_Driver/src/stm32f4xx_wwdg.c ****   *          WWDGRST flag in RCC_CSR register can be used to inform when a WWDG
  30:../STM32F4xx_StdPeriph_Driver/src/stm32f4xx_wwdg.c ****   *          reset occurs.
  31:../STM32F4xx_StdPeriph_Driver/src/stm32f4xx_wwdg.c ****   *            
  32:../STM32F4xx_StdPeriph_Driver/src/stm32f4xx_wwdg.c ****   *          The WWDG counter input clock is derived from the APB clock divided 
  33:../STM32F4xx_StdPeriph_Driver/src/stm32f4xx_wwdg.c ****   *          by a programmable prescaler.
  34:../STM32F4xx_StdPeriph_Driver/src/stm32f4xx_wwdg.c ****   *              
  35:../STM32F4xx_StdPeriph_Driver/src/stm32f4xx_wwdg.c ****   *          WWDG counter clock = PCLK1 / Prescaler
  36:../STM32F4xx_StdPeriph_Driver/src/stm32f4xx_wwdg.c ****   *          WWDG timeout = (WWDG counter clock) * (counter value)
  37:../STM32F4xx_StdPeriph_Driver/src/stm32f4xx_wwdg.c ****   *                      
  38:../STM32F4xx_StdPeriph_Driver/src/stm32f4xx_wwdg.c ****   *          Min-max timeout value @42 MHz(PCLK1): ~97.5 us / ~49.9 ms
  39:../STM32F4xx_StdPeriph_Driver/src/stm32f4xx_wwdg.c ****   *                            
  40:../STM32F4xx_StdPeriph_Driver/src/stm32f4xx_wwdg.c ****   *          ===================================================================
  41:../STM32F4xx_StdPeriph_Driver/src/stm32f4xx_wwdg.c ****   *                                 How to use this driver
  42:../STM32F4xx_StdPeriph_Driver/src/stm32f4xx_wwdg.c ****   *          =================================================================== 
  43:../STM32F4xx_StdPeriph_Driver/src/stm32f4xx_wwdg.c ****   *          1. Enable WWDG clock using RCC_APB1PeriphClockCmd(RCC_APB1Periph_WWDG, ENABLE) functio
  44:../STM32F4xx_StdPeriph_Driver/src/stm32f4xx_wwdg.c ****   *            
  45:../STM32F4xx_StdPeriph_Driver/src/stm32f4xx_wwdg.c ****   *          2. Configure the WWDG prescaler using WWDG_SetPrescaler() function
  46:../STM32F4xx_StdPeriph_Driver/src/stm32f4xx_wwdg.c ****   *                           
  47:../STM32F4xx_StdPeriph_Driver/src/stm32f4xx_wwdg.c ****   *          3. Configure the WWDG refresh window using WWDG_SetWindowValue() function
  48:../STM32F4xx_StdPeriph_Driver/src/stm32f4xx_wwdg.c ****   *            
  49:../STM32F4xx_StdPeriph_Driver/src/stm32f4xx_wwdg.c ****   *          4. Set the WWDG counter value and start it using WWDG_Enable() function.
  50:../STM32F4xx_StdPeriph_Driver/src/stm32f4xx_wwdg.c ****   *             When the WWDG is enabled the counter value should be configured to 
  51:../STM32F4xx_StdPeriph_Driver/src/stm32f4xx_wwdg.c ****   *             a value greater than 0x40 to prevent generating an immediate reset.     
  52:../STM32F4xx_StdPeriph_Driver/src/stm32f4xx_wwdg.c ****   *            
  53:../STM32F4xx_StdPeriph_Driver/src/stm32f4xx_wwdg.c ****   *          5. Optionally you can enable the Early wakeup interrupt which is 
  54:../STM32F4xx_StdPeriph_Driver/src/stm32f4xx_wwdg.c ****   *             generated when the counter reach 0x40.
  55:../STM32F4xx_StdPeriph_Driver/src/stm32f4xx_wwdg.c ****   *             Once enabled this interrupt cannot be disabled except by a system reset.
  56:../STM32F4xx_StdPeriph_Driver/src/stm32f4xx_wwdg.c ****   *                 
  57:../STM32F4xx_StdPeriph_Driver/src/stm32f4xx_wwdg.c ****   *          6. Then the application program must refresh the WWDG counter at regular
  58:../STM32F4xx_StdPeriph_Driver/src/stm32f4xx_wwdg.c ****   *             intervals during normal operation to prevent an MCU reset, using
  59:../STM32F4xx_StdPeriph_Driver/src/stm32f4xx_wwdg.c ****   *             WWDG_SetCounter() function. This operation must occur only when
  60:../STM32F4xx_StdPeriph_Driver/src/stm32f4xx_wwdg.c ****   *             the counter value is lower than the refresh window value, 
  61:../STM32F4xx_StdPeriph_Driver/src/stm32f4xx_wwdg.c ****   *             programmed using WWDG_SetWindowValue().         
  62:../STM32F4xx_StdPeriph_Driver/src/stm32f4xx_wwdg.c ****   *
  63:../STM32F4xx_StdPeriph_Driver/src/stm32f4xx_wwdg.c ****   *  @endverbatim  
  64:../STM32F4xx_StdPeriph_Driver/src/stm32f4xx_wwdg.c ****   *                             
  65:../STM32F4xx_StdPeriph_Driver/src/stm32f4xx_wwdg.c ****   ******************************************************************************
  66:../STM32F4xx_StdPeriph_Driver/src/stm32f4xx_wwdg.c ****   * @attention
  67:../STM32F4xx_StdPeriph_Driver/src/stm32f4xx_wwdg.c ****   *
  68:../STM32F4xx_StdPeriph_Driver/src/stm32f4xx_wwdg.c ****   * THE PRESENT FIRMWARE WHICH IS FOR GUIDANCE ONLY AIMS AT PROVIDING CUSTOMERS
  69:../STM32F4xx_StdPeriph_Driver/src/stm32f4xx_wwdg.c ****   * WITH CODING INFORMATION REGARDING THEIR PRODUCTS IN ORDER FOR THEM TO SAVE
  70:../STM32F4xx_StdPeriph_Driver/src/stm32f4xx_wwdg.c ****   * TIME. AS A RESULT, STMICROELECTRONICS SHALL NOT BE HELD LIABLE FOR ANY
  71:../STM32F4xx_StdPeriph_Driver/src/stm32f4xx_wwdg.c ****   * DIRECT, INDIRECT OR CONSEQUENTIAL DAMAGES WITH RESPECT TO ANY CLAIMS ARISING
  72:../STM32F4xx_StdPeriph_Driver/src/stm32f4xx_wwdg.c ****   * FROM THE CONTENT OF SUCH FIRMWARE AND/OR THE USE MADE BY CUSTOMERS OF THE
  73:../STM32F4xx_StdPeriph_Driver/src/stm32f4xx_wwdg.c ****   * CODING INFORMATION CONTAINED HEREIN IN CONNECTION WITH THEIR PRODUCTS.
  74:../STM32F4xx_StdPeriph_Driver/src/stm32f4xx_wwdg.c ****   *
  75:../STM32F4xx_StdPeriph_Driver/src/stm32f4xx_wwdg.c ****   * <h2><center>&copy; COPYRIGHT 2011 STMicroelectronics</center></h2>
  76:../STM32F4xx_StdPeriph_Driver/src/stm32f4xx_wwdg.c ****   ******************************************************************************
  77:../STM32F4xx_StdPeriph_Driver/src/stm32f4xx_wwdg.c ****   */
  78:../STM32F4xx_StdPeriph_Driver/src/stm32f4xx_wwdg.c **** 
  79:../STM32F4xx_StdPeriph_Driver/src/stm32f4xx_wwdg.c **** /* Includes ------------------------------------------------------------------*/
  80:../STM32F4xx_StdPeriph_Driver/src/stm32f4xx_wwdg.c **** #include "stm32f4xx_wwdg.h"
  81:../STM32F4xx_StdPeriph_Driver/src/stm32f4xx_wwdg.c **** #include "stm32f4xx_rcc.h"
  82:../STM32F4xx_StdPeriph_Driver/src/stm32f4xx_wwdg.c **** 
  83:../STM32F4xx_StdPeriph_Driver/src/stm32f4xx_wwdg.c **** /** @addtogroup STM32F4xx_StdPeriph_Driver
  84:../STM32F4xx_StdPeriph_Driver/src/stm32f4xx_wwdg.c ****   * @{
  85:../STM32F4xx_StdPeriph_Driver/src/stm32f4xx_wwdg.c ****   */
  86:../STM32F4xx_StdPeriph_Driver/src/stm32f4xx_wwdg.c **** 
  87:../STM32F4xx_StdPeriph_Driver/src/stm32f4xx_wwdg.c **** /** @defgroup WWDG 
  88:../STM32F4xx_StdPeriph_Driver/src/stm32f4xx_wwdg.c ****   * @brief WWDG driver modules
  89:../STM32F4xx_StdPeriph_Driver/src/stm32f4xx_wwdg.c ****   * @{
  90:../STM32F4xx_StdPeriph_Driver/src/stm32f4xx_wwdg.c ****   */
  91:../STM32F4xx_StdPeriph_Driver/src/stm32f4xx_wwdg.c **** 
  92:../STM32F4xx_StdPeriph_Driver/src/stm32f4xx_wwdg.c **** /* Private typedef -----------------------------------------------------------*/
  93:../STM32F4xx_StdPeriph_Driver/src/stm32f4xx_wwdg.c **** /* Private define ------------------------------------------------------------*/
  94:../STM32F4xx_StdPeriph_Driver/src/stm32f4xx_wwdg.c **** 
  95:../STM32F4xx_StdPeriph_Driver/src/stm32f4xx_wwdg.c **** /* ----------- WWDG registers bit address in the alias region ----------- */
  96:../STM32F4xx_StdPeriph_Driver/src/stm32f4xx_wwdg.c **** #define WWDG_OFFSET       (WWDG_BASE - PERIPH_BASE)
  97:../STM32F4xx_StdPeriph_Driver/src/stm32f4xx_wwdg.c **** /* Alias word address of EWI bit */
  98:../STM32F4xx_StdPeriph_Driver/src/stm32f4xx_wwdg.c **** #define CFR_OFFSET        (WWDG_OFFSET + 0x04)
  99:../STM32F4xx_StdPeriph_Driver/src/stm32f4xx_wwdg.c **** #define EWI_BitNumber     0x09
 100:../STM32F4xx_StdPeriph_Driver/src/stm32f4xx_wwdg.c **** #define CFR_EWI_BB        (PERIPH_BB_BASE + (CFR_OFFSET * 32) + (EWI_BitNumber * 4))
 101:../STM32F4xx_StdPeriph_Driver/src/stm32f4xx_wwdg.c **** 
 102:../STM32F4xx_StdPeriph_Driver/src/stm32f4xx_wwdg.c **** /* --------------------- WWDG registers bit mask ------------------------ */
 103:../STM32F4xx_StdPeriph_Driver/src/stm32f4xx_wwdg.c **** /* CFR register bit mask */
 104:../STM32F4xx_StdPeriph_Driver/src/stm32f4xx_wwdg.c **** #define CFR_WDGTB_MASK    ((uint32_t)0xFFFFFE7F)
 105:../STM32F4xx_StdPeriph_Driver/src/stm32f4xx_wwdg.c **** #define CFR_W_MASK        ((uint32_t)0xFFFFFF80)
 106:../STM32F4xx_StdPeriph_Driver/src/stm32f4xx_wwdg.c **** #define BIT_MASK          ((uint8_t)0x7F)
 107:../STM32F4xx_StdPeriph_Driver/src/stm32f4xx_wwdg.c **** 
 108:../STM32F4xx_StdPeriph_Driver/src/stm32f4xx_wwdg.c **** /* Private macro -------------------------------------------------------------*/
 109:../STM32F4xx_StdPeriph_Driver/src/stm32f4xx_wwdg.c **** /* Private variables ---------------------------------------------------------*/
 110:../STM32F4xx_StdPeriph_Driver/src/stm32f4xx_wwdg.c **** /* Private function prototypes -----------------------------------------------*/
 111:../STM32F4xx_StdPeriph_Driver/src/stm32f4xx_wwdg.c **** /* Private functions ---------------------------------------------------------*/
 112:../STM32F4xx_StdPeriph_Driver/src/stm32f4xx_wwdg.c **** 
 113:../STM32F4xx_StdPeriph_Driver/src/stm32f4xx_wwdg.c **** /** @defgroup WWDG_Private_Functions
 114:../STM32F4xx_StdPeriph_Driver/src/stm32f4xx_wwdg.c ****   * @{
 115:../STM32F4xx_StdPeriph_Driver/src/stm32f4xx_wwdg.c ****   */
 116:../STM32F4xx_StdPeriph_Driver/src/stm32f4xx_wwdg.c **** 
 117:../STM32F4xx_StdPeriph_Driver/src/stm32f4xx_wwdg.c **** /** @defgroup WWDG_Group1 Prescaler, Refresh window and Counter configuration functions
 118:../STM32F4xx_StdPeriph_Driver/src/stm32f4xx_wwdg.c ****  *  @brief   Prescaler, Refresh window and Counter configuration functions 
 119:../STM32F4xx_StdPeriph_Driver/src/stm32f4xx_wwdg.c ****  *
 120:../STM32F4xx_StdPeriph_Driver/src/stm32f4xx_wwdg.c **** @verbatim   
 121:../STM32F4xx_StdPeriph_Driver/src/stm32f4xx_wwdg.c ****  ===============================================================================
 122:../STM32F4xx_StdPeriph_Driver/src/stm32f4xx_wwdg.c ****           Prescaler, Refresh window and Counter configuration functions
 123:../STM32F4xx_StdPeriph_Driver/src/stm32f4xx_wwdg.c ****  ===============================================================================  
 124:../STM32F4xx_StdPeriph_Driver/src/stm32f4xx_wwdg.c **** 
 125:../STM32F4xx_StdPeriph_Driver/src/stm32f4xx_wwdg.c **** @endverbatim
 126:../STM32F4xx_StdPeriph_Driver/src/stm32f4xx_wwdg.c ****   * @{
 127:../STM32F4xx_StdPeriph_Driver/src/stm32f4xx_wwdg.c ****   */
 128:../STM32F4xx_StdPeriph_Driver/src/stm32f4xx_wwdg.c **** 
 129:../STM32F4xx_StdPeriph_Driver/src/stm32f4xx_wwdg.c **** /**
 130:../STM32F4xx_StdPeriph_Driver/src/stm32f4xx_wwdg.c ****   * @brief  Deinitializes the WWDG peripheral registers to their default reset values.
 131:../STM32F4xx_StdPeriph_Driver/src/stm32f4xx_wwdg.c ****   * @param  None
 132:../STM32F4xx_StdPeriph_Driver/src/stm32f4xx_wwdg.c ****   * @retval None
 133:../STM32F4xx_StdPeriph_Driver/src/stm32f4xx_wwdg.c ****   */
 134:../STM32F4xx_StdPeriph_Driver/src/stm32f4xx_wwdg.c **** void WWDG_DeInit(void)
 135:../STM32F4xx_StdPeriph_Driver/src/stm32f4xx_wwdg.c **** {
  27              		.loc 1 135 0
  28              		.cfi_startproc
  29              		@ args = 0, pretend = 0, frame = 0
  30              		@ frame_needed = 1, uses_anonymous_args = 0
  31 0000 80B5     		push	{r7, lr}
  32              	.LCFI0:
  33              		.cfi_def_cfa_offset 8
  34              		.cfi_offset 14, -4
  35              		.cfi_offset 7, -8
  36 0002 00AF     		add	r7, sp, #0
  37              	.LCFI1:
  38              		.cfi_def_cfa_register 7
 136:../STM32F4xx_StdPeriph_Driver/src/stm32f4xx_wwdg.c ****   RCC_APB1PeriphResetCmd(RCC_APB1Periph_WWDG, ENABLE);
  39              		.loc 1 136 0
  40 0004 4FF40060 		mov	r0, #2048
  41 0008 4FF00101 		mov	r1, #1
  42 000c FFF7FEFF 		bl	RCC_APB1PeriphResetCmd
 137:../STM32F4xx_StdPeriph_Driver/src/stm32f4xx_wwdg.c ****   RCC_APB1PeriphResetCmd(RCC_APB1Periph_WWDG, DISABLE);
  43              		.loc 1 137 0
  44 0010 4FF40060 		mov	r0, #2048
  45 0014 4FF00001 		mov	r1, #0
  46 0018 FFF7FEFF 		bl	RCC_APB1PeriphResetCmd
 138:../STM32F4xx_StdPeriph_Driver/src/stm32f4xx_wwdg.c **** }
  47              		.loc 1 138 0
  48 001c 80BD     		pop	{r7, pc}
  49              		.cfi_endproc
  50              	.LFE110:
  52 001e 00BF     		.section	.text.WWDG_SetPrescaler,"ax",%progbits
  53              		.align	2
  54              		.global	WWDG_SetPrescaler
  55              		.thumb
  56              		.thumb_func
  58              	WWDG_SetPrescaler:
  59              	.LFB111:
 139:../STM32F4xx_StdPeriph_Driver/src/stm32f4xx_wwdg.c **** 
 140:../STM32F4xx_StdPeriph_Driver/src/stm32f4xx_wwdg.c **** /**
 141:../STM32F4xx_StdPeriph_Driver/src/stm32f4xx_wwdg.c ****   * @brief  Sets the WWDG Prescaler.
 142:../STM32F4xx_StdPeriph_Driver/src/stm32f4xx_wwdg.c ****   * @param  WWDG_Prescaler: specifies the WWDG Prescaler.
 143:../STM32F4xx_StdPeriph_Driver/src/stm32f4xx_wwdg.c ****   *   This parameter can be one of the following values:
 144:../STM32F4xx_StdPeriph_Driver/src/stm32f4xx_wwdg.c ****   *     @arg WWDG_Prescaler_1: WWDG counter clock = (PCLK1/4096)/1
 145:../STM32F4xx_StdPeriph_Driver/src/stm32f4xx_wwdg.c ****   *     @arg WWDG_Prescaler_2: WWDG counter clock = (PCLK1/4096)/2
 146:../STM32F4xx_StdPeriph_Driver/src/stm32f4xx_wwdg.c ****   *     @arg WWDG_Prescaler_4: WWDG counter clock = (PCLK1/4096)/4
 147:../STM32F4xx_StdPeriph_Driver/src/stm32f4xx_wwdg.c ****   *     @arg WWDG_Prescaler_8: WWDG counter clock = (PCLK1/4096)/8
 148:../STM32F4xx_StdPeriph_Driver/src/stm32f4xx_wwdg.c ****   * @retval None
 149:../STM32F4xx_StdPeriph_Driver/src/stm32f4xx_wwdg.c ****   */
 150:../STM32F4xx_StdPeriph_Driver/src/stm32f4xx_wwdg.c **** void WWDG_SetPrescaler(uint32_t WWDG_Prescaler)
 151:../STM32F4xx_StdPeriph_Driver/src/stm32f4xx_wwdg.c **** {
  60              		.loc 1 151 0
  61              		.cfi_startproc
  62              		@ args = 0, pretend = 0, frame = 16
  63              		@ frame_needed = 1, uses_anonymous_args = 0
  64              		@ link register save eliminated.
  65 0000 80B4     		push	{r7}
  66              	.LCFI2:
  67              		.cfi_def_cfa_offset 4
  68              		.cfi_offset 7, -4
  69 0002 85B0     		sub	sp, sp, #20
  70              	.LCFI3:
  71              		.cfi_def_cfa_offset 24
  72 0004 00AF     		add	r7, sp, #0
  73              	.LCFI4:
  74              		.cfi_def_cfa_register 7
  75 0006 7860     		str	r0, [r7, #4]
 152:../STM32F4xx_StdPeriph_Driver/src/stm32f4xx_wwdg.c ****   uint32_t tmpreg = 0;
  76              		.loc 1 152 0
  77 0008 4FF00003 		mov	r3, #0
  78 000c FB60     		str	r3, [r7, #12]
 153:../STM32F4xx_StdPeriph_Driver/src/stm32f4xx_wwdg.c ****   /* Check the parameters */
 154:../STM32F4xx_StdPeriph_Driver/src/stm32f4xx_wwdg.c ****   assert_param(IS_WWDG_PRESCALER(WWDG_Prescaler));
 155:../STM32F4xx_StdPeriph_Driver/src/stm32f4xx_wwdg.c ****   /* Clear WDGTB[1:0] bits */
 156:../STM32F4xx_StdPeriph_Driver/src/stm32f4xx_wwdg.c ****   tmpreg = WWDG->CFR & CFR_WDGTB_MASK;
  79              		.loc 1 156 0
  80 000e 4FF43053 		mov	r3, #11264
  81 0012 C4F20003 		movt	r3, 16384
  82 0016 5B68     		ldr	r3, [r3, #4]
  83 0018 23F4C073 		bic	r3, r3, #384
  84 001c FB60     		str	r3, [r7, #12]
 157:../STM32F4xx_StdPeriph_Driver/src/stm32f4xx_wwdg.c ****   /* Set WDGTB[1:0] bits according to WWDG_Prescaler value */
 158:../STM32F4xx_StdPeriph_Driver/src/stm32f4xx_wwdg.c ****   tmpreg |= WWDG_Prescaler;
  85              		.loc 1 158 0
  86 001e FA68     		ldr	r2, [r7, #12]
  87 0020 7B68     		ldr	r3, [r7, #4]
  88 0022 1343     		orrs	r3, r3, r2
  89 0024 FB60     		str	r3, [r7, #12]
 159:../STM32F4xx_StdPeriph_Driver/src/stm32f4xx_wwdg.c ****   /* Store the new value */
 160:../STM32F4xx_StdPeriph_Driver/src/stm32f4xx_wwdg.c ****   WWDG->CFR = tmpreg;
  90              		.loc 1 160 0
  91 0026 4FF43053 		mov	r3, #11264
  92 002a C4F20003 		movt	r3, 16384
  93 002e FA68     		ldr	r2, [r7, #12]
  94 0030 5A60     		str	r2, [r3, #4]
 161:../STM32F4xx_StdPeriph_Driver/src/stm32f4xx_wwdg.c **** }
  95              		.loc 1 161 0
  96 0032 07F11407 		add	r7, r7, #20
  97 0036 BD46     		mov	sp, r7
  98 0038 80BC     		pop	{r7}
  99 003a 7047     		bx	lr
 100              		.cfi_endproc
 101              	.LFE111:
 103              		.section	.text.WWDG_SetWindowValue,"ax",%progbits
 104              		.align	2
 105              		.global	WWDG_SetWindowValue
 106              		.thumb
 107              		.thumb_func
 109              	WWDG_SetWindowValue:
 110              	.LFB112:
 162:../STM32F4xx_StdPeriph_Driver/src/stm32f4xx_wwdg.c **** 
 163:../STM32F4xx_StdPeriph_Driver/src/stm32f4xx_wwdg.c **** /**
 164:../STM32F4xx_StdPeriph_Driver/src/stm32f4xx_wwdg.c ****   * @brief  Sets the WWDG window value.
 165:../STM32F4xx_StdPeriph_Driver/src/stm32f4xx_wwdg.c ****   * @param  WindowValue: specifies the window value to be compared to the downcounter.
 166:../STM32F4xx_StdPeriph_Driver/src/stm32f4xx_wwdg.c ****   *   This parameter value must be lower than 0x80.
 167:../STM32F4xx_StdPeriph_Driver/src/stm32f4xx_wwdg.c ****   * @retval None
 168:../STM32F4xx_StdPeriph_Driver/src/stm32f4xx_wwdg.c ****   */
 169:../STM32F4xx_StdPeriph_Driver/src/stm32f4xx_wwdg.c **** void WWDG_SetWindowValue(uint8_t WindowValue)
 170:../STM32F4xx_StdPeriph_Driver/src/stm32f4xx_wwdg.c **** {
 111              		.loc 1 170 0
 112              		.cfi_startproc
 113              		@ args = 0, pretend = 0, frame = 16
 114              		@ frame_needed = 1, uses_anonymous_args = 0
 115              		@ link register save eliminated.
 116 0000 80B4     		push	{r7}
 117              	.LCFI5:
 118              		.cfi_def_cfa_offset 4
 119              		.cfi_offset 7, -4
 120 0002 85B0     		sub	sp, sp, #20
 121              	.LCFI6:
 122              		.cfi_def_cfa_offset 24
 123 0004 00AF     		add	r7, sp, #0
 124              	.LCFI7:
 125              		.cfi_def_cfa_register 7
 126 0006 0346     		mov	r3, r0
 127 0008 FB71     		strb	r3, [r7, #7]
 171:../STM32F4xx_StdPeriph_Driver/src/stm32f4xx_wwdg.c ****   __IO uint32_t tmpreg = 0;
 128              		.loc 1 171 0
 129 000a 4FF00003 		mov	r3, #0
 130 000e FB60     		str	r3, [r7, #12]
 172:../STM32F4xx_StdPeriph_Driver/src/stm32f4xx_wwdg.c **** 
 173:../STM32F4xx_StdPeriph_Driver/src/stm32f4xx_wwdg.c ****   /* Check the parameters */
 174:../STM32F4xx_StdPeriph_Driver/src/stm32f4xx_wwdg.c ****   assert_param(IS_WWDG_WINDOW_VALUE(WindowValue));
 175:../STM32F4xx_StdPeriph_Driver/src/stm32f4xx_wwdg.c ****   /* Clear W[6:0] bits */
 176:../STM32F4xx_StdPeriph_Driver/src/stm32f4xx_wwdg.c **** 
 177:../STM32F4xx_StdPeriph_Driver/src/stm32f4xx_wwdg.c ****   tmpreg = WWDG->CFR & CFR_W_MASK;
 131              		.loc 1 177 0
 132 0010 4FF43053 		mov	r3, #11264
 133 0014 C4F20003 		movt	r3, 16384
 134 0018 5B68     		ldr	r3, [r3, #4]
 135 001a 23F07F03 		bic	r3, r3, #127
 136 001e FB60     		str	r3, [r7, #12]
 178:../STM32F4xx_StdPeriph_Driver/src/stm32f4xx_wwdg.c **** 
 179:../STM32F4xx_StdPeriph_Driver/src/stm32f4xx_wwdg.c ****   /* Set W[6:0] bits according to WindowValue value */
 180:../STM32F4xx_StdPeriph_Driver/src/stm32f4xx_wwdg.c ****   tmpreg |= WindowValue & (uint32_t) BIT_MASK;
 137              		.loc 1 180 0
 138 0020 FB79     		ldrb	r3, [r7, #7]	@ zero_extendqisi2
 139 0022 03F07F02 		and	r2, r3, #127
 140 0026 FB68     		ldr	r3, [r7, #12]
 141 0028 1343     		orrs	r3, r3, r2
 142 002a FB60     		str	r3, [r7, #12]
 181:../STM32F4xx_StdPeriph_Driver/src/stm32f4xx_wwdg.c **** 
 182:../STM32F4xx_StdPeriph_Driver/src/stm32f4xx_wwdg.c ****   /* Store the new value */
 183:../STM32F4xx_StdPeriph_Driver/src/stm32f4xx_wwdg.c ****   WWDG->CFR = tmpreg;
 143              		.loc 1 183 0
 144 002c 4FF43053 		mov	r3, #11264
 145 0030 C4F20003 		movt	r3, 16384
 146 0034 FA68     		ldr	r2, [r7, #12]
 147 0036 5A60     		str	r2, [r3, #4]
 184:../STM32F4xx_StdPeriph_Driver/src/stm32f4xx_wwdg.c **** }
 148              		.loc 1 184 0
 149 0038 07F11407 		add	r7, r7, #20
 150 003c BD46     		mov	sp, r7
 151 003e 80BC     		pop	{r7}
 152 0040 7047     		bx	lr
 153              		.cfi_endproc
 154              	.LFE112:
 156 0042 00BF     		.section	.text.WWDG_EnableIT,"ax",%progbits
 157              		.align	2
 158              		.global	WWDG_EnableIT
 159              		.thumb
 160              		.thumb_func
 162              	WWDG_EnableIT:
 163              	.LFB113:
 185:../STM32F4xx_StdPeriph_Driver/src/stm32f4xx_wwdg.c **** 
 186:../STM32F4xx_StdPeriph_Driver/src/stm32f4xx_wwdg.c **** /**
 187:../STM32F4xx_StdPeriph_Driver/src/stm32f4xx_wwdg.c ****   * @brief  Enables the WWDG Early Wakeup interrupt(EWI).
 188:../STM32F4xx_StdPeriph_Driver/src/stm32f4xx_wwdg.c ****   * @note   Once enabled this interrupt cannot be disabled except by a system reset.
 189:../STM32F4xx_StdPeriph_Driver/src/stm32f4xx_wwdg.c ****   * @param  None
 190:../STM32F4xx_StdPeriph_Driver/src/stm32f4xx_wwdg.c ****   * @retval None
 191:../STM32F4xx_StdPeriph_Driver/src/stm32f4xx_wwdg.c ****   */
 192:../STM32F4xx_StdPeriph_Driver/src/stm32f4xx_wwdg.c **** void WWDG_EnableIT(void)
 193:../STM32F4xx_StdPeriph_Driver/src/stm32f4xx_wwdg.c **** {
 164              		.loc 1 193 0
 165              		.cfi_startproc
 166              		@ args = 0, pretend = 0, frame = 0
 167              		@ frame_needed = 1, uses_anonymous_args = 0
 168              		@ link register save eliminated.
 169 0000 80B4     		push	{r7}
 170              	.LCFI8:
 171              		.cfi_def_cfa_offset 4
 172              		.cfi_offset 7, -4
 173 0002 00AF     		add	r7, sp, #0
 174              	.LCFI9:
 175              		.cfi_def_cfa_register 7
 194:../STM32F4xx_StdPeriph_Driver/src/stm32f4xx_wwdg.c ****   *(__IO uint32_t *) CFR_EWI_BB = (uint32_t)ENABLE;
 176              		.loc 1 194 0
 177 0004 48F2A403 		movw	r3, #32932
 178 0008 C4F20523 		movt	r3, 16901
 179 000c 4FF00102 		mov	r2, #1
 180 0010 1A60     		str	r2, [r3, #0]
 195:../STM32F4xx_StdPeriph_Driver/src/stm32f4xx_wwdg.c **** }
 181              		.loc 1 195 0
 182 0012 BD46     		mov	sp, r7
 183 0014 80BC     		pop	{r7}
 184 0016 7047     		bx	lr
 185              		.cfi_endproc
 186              	.LFE113:
 188              		.section	.text.WWDG_SetCounter,"ax",%progbits
 189              		.align	2
 190              		.global	WWDG_SetCounter
 191              		.thumb
 192              		.thumb_func
 194              	WWDG_SetCounter:
 195              	.LFB114:
 196:../STM32F4xx_StdPeriph_Driver/src/stm32f4xx_wwdg.c **** 
 197:../STM32F4xx_StdPeriph_Driver/src/stm32f4xx_wwdg.c **** /**
 198:../STM32F4xx_StdPeriph_Driver/src/stm32f4xx_wwdg.c ****   * @brief  Sets the WWDG counter value.
 199:../STM32F4xx_StdPeriph_Driver/src/stm32f4xx_wwdg.c ****   * @param  Counter: specifies the watchdog counter value.
 200:../STM32F4xx_StdPeriph_Driver/src/stm32f4xx_wwdg.c ****   *   This parameter must be a number between 0x40 and 0x7F (to prevent generating
 201:../STM32F4xx_StdPeriph_Driver/src/stm32f4xx_wwdg.c ****   *   an immediate reset) 
 202:../STM32F4xx_StdPeriph_Driver/src/stm32f4xx_wwdg.c ****   * @retval None
 203:../STM32F4xx_StdPeriph_Driver/src/stm32f4xx_wwdg.c ****   */
 204:../STM32F4xx_StdPeriph_Driver/src/stm32f4xx_wwdg.c **** void WWDG_SetCounter(uint8_t Counter)
 205:../STM32F4xx_StdPeriph_Driver/src/stm32f4xx_wwdg.c **** {
 196              		.loc 1 205 0
 197              		.cfi_startproc
 198              		@ args = 0, pretend = 0, frame = 8
 199              		@ frame_needed = 1, uses_anonymous_args = 0
 200              		@ link register save eliminated.
 201 0000 80B4     		push	{r7}
 202              	.LCFI10:
 203              		.cfi_def_cfa_offset 4
 204              		.cfi_offset 7, -4
 205 0002 83B0     		sub	sp, sp, #12
 206              	.LCFI11:
 207              		.cfi_def_cfa_offset 16
 208 0004 00AF     		add	r7, sp, #0
 209              	.LCFI12:
 210              		.cfi_def_cfa_register 7
 211 0006 0346     		mov	r3, r0
 212 0008 FB71     		strb	r3, [r7, #7]
 206:../STM32F4xx_StdPeriph_Driver/src/stm32f4xx_wwdg.c ****   /* Check the parameters */
 207:../STM32F4xx_StdPeriph_Driver/src/stm32f4xx_wwdg.c ****   assert_param(IS_WWDG_COUNTER(Counter));
 208:../STM32F4xx_StdPeriph_Driver/src/stm32f4xx_wwdg.c ****   /* Write to T[6:0] bits to configure the counter value, no need to do
 209:../STM32F4xx_StdPeriph_Driver/src/stm32f4xx_wwdg.c ****      a read-modify-write; writing a 0 to WDGA bit does nothing */
 210:../STM32F4xx_StdPeriph_Driver/src/stm32f4xx_wwdg.c ****   WWDG->CR = Counter & BIT_MASK;
 213              		.loc 1 210 0
 214 000a 4FF43053 		mov	r3, #11264
 215 000e C4F20003 		movt	r3, 16384
 216 0012 FA79     		ldrb	r2, [r7, #7]	@ zero_extendqisi2
 217 0014 02F07F02 		and	r2, r2, #127
 218 0018 1A60     		str	r2, [r3, #0]
 211:../STM32F4xx_StdPeriph_Driver/src/stm32f4xx_wwdg.c **** }
 219              		.loc 1 211 0
 220 001a 07F10C07 		add	r7, r7, #12
 221 001e BD46     		mov	sp, r7
 222 0020 80BC     		pop	{r7}
 223 0022 7047     		bx	lr
 224              		.cfi_endproc
 225              	.LFE114:
 227              		.section	.text.WWDG_Enable,"ax",%progbits
 228              		.align	2
 229              		.global	WWDG_Enable
 230              		.thumb
 231              		.thumb_func
 233              	WWDG_Enable:
 234              	.LFB115:
 212:../STM32F4xx_StdPeriph_Driver/src/stm32f4xx_wwdg.c **** /**
 213:../STM32F4xx_StdPeriph_Driver/src/stm32f4xx_wwdg.c ****   * @}
 214:../STM32F4xx_StdPeriph_Driver/src/stm32f4xx_wwdg.c ****   */
 215:../STM32F4xx_StdPeriph_Driver/src/stm32f4xx_wwdg.c **** 
 216:../STM32F4xx_StdPeriph_Driver/src/stm32f4xx_wwdg.c **** /** @defgroup WWDG_Group2 WWDG activation functions
 217:../STM32F4xx_StdPeriph_Driver/src/stm32f4xx_wwdg.c ****  *  @brief   WWDG activation functions 
 218:../STM32F4xx_StdPeriph_Driver/src/stm32f4xx_wwdg.c ****  *
 219:../STM32F4xx_StdPeriph_Driver/src/stm32f4xx_wwdg.c **** @verbatim   
 220:../STM32F4xx_StdPeriph_Driver/src/stm32f4xx_wwdg.c ****  ===============================================================================
 221:../STM32F4xx_StdPeriph_Driver/src/stm32f4xx_wwdg.c ****                        WWDG activation function
 222:../STM32F4xx_StdPeriph_Driver/src/stm32f4xx_wwdg.c ****  ===============================================================================  
 223:../STM32F4xx_StdPeriph_Driver/src/stm32f4xx_wwdg.c **** 
 224:../STM32F4xx_StdPeriph_Driver/src/stm32f4xx_wwdg.c **** @endverbatim
 225:../STM32F4xx_StdPeriph_Driver/src/stm32f4xx_wwdg.c ****   * @{
 226:../STM32F4xx_StdPeriph_Driver/src/stm32f4xx_wwdg.c ****   */
 227:../STM32F4xx_StdPeriph_Driver/src/stm32f4xx_wwdg.c **** 
 228:../STM32F4xx_StdPeriph_Driver/src/stm32f4xx_wwdg.c **** /**
 229:../STM32F4xx_StdPeriph_Driver/src/stm32f4xx_wwdg.c ****   * @brief  Enables WWDG and load the counter value.                  
 230:../STM32F4xx_StdPeriph_Driver/src/stm32f4xx_wwdg.c ****   * @param  Counter: specifies the watchdog counter value.
 231:../STM32F4xx_StdPeriph_Driver/src/stm32f4xx_wwdg.c ****   *   This parameter must be a number between 0x40 and 0x7F (to prevent generating
 232:../STM32F4xx_StdPeriph_Driver/src/stm32f4xx_wwdg.c ****   *   an immediate reset)
 233:../STM32F4xx_StdPeriph_Driver/src/stm32f4xx_wwdg.c ****   * @retval None
 234:../STM32F4xx_StdPeriph_Driver/src/stm32f4xx_wwdg.c ****   */
 235:../STM32F4xx_StdPeriph_Driver/src/stm32f4xx_wwdg.c **** void WWDG_Enable(uint8_t Counter)
 236:../STM32F4xx_StdPeriph_Driver/src/stm32f4xx_wwdg.c **** {
 235              		.loc 1 236 0
 236              		.cfi_startproc
 237              		@ args = 0, pretend = 0, frame = 8
 238              		@ frame_needed = 1, uses_anonymous_args = 0
 239              		@ link register save eliminated.
 240 0000 80B4     		push	{r7}
 241              	.LCFI13:
 242              		.cfi_def_cfa_offset 4
 243              		.cfi_offset 7, -4
 244 0002 83B0     		sub	sp, sp, #12
 245              	.LCFI14:
 246              		.cfi_def_cfa_offset 16
 247 0004 00AF     		add	r7, sp, #0
 248              	.LCFI15:
 249              		.cfi_def_cfa_register 7
 250 0006 0346     		mov	r3, r0
 251 0008 FB71     		strb	r3, [r7, #7]
 237:../STM32F4xx_StdPeriph_Driver/src/stm32f4xx_wwdg.c ****   /* Check the parameters */
 238:../STM32F4xx_StdPeriph_Driver/src/stm32f4xx_wwdg.c ****   assert_param(IS_WWDG_COUNTER(Counter));
 239:../STM32F4xx_StdPeriph_Driver/src/stm32f4xx_wwdg.c ****   WWDG->CR = WWDG_CR_WDGA | Counter;
 252              		.loc 1 239 0
 253 000a 4FF43053 		mov	r3, #11264
 254 000e C4F20003 		movt	r3, 16384
 255 0012 FA79     		ldrb	r2, [r7, #7]
 256 0014 62F07F02 		orn	r2, r2, #127
 257 0018 D2B2     		uxtb	r2, r2
 258 001a 1A60     		str	r2, [r3, #0]
 240:../STM32F4xx_StdPeriph_Driver/src/stm32f4xx_wwdg.c **** }
 259              		.loc 1 240 0
 260 001c 07F10C07 		add	r7, r7, #12
 261 0020 BD46     		mov	sp, r7
 262 0022 80BC     		pop	{r7}
 263 0024 7047     		bx	lr
 264              		.cfi_endproc
 265              	.LFE115:
 267 0026 00BF     		.section	.text.WWDG_GetFlagStatus,"ax",%progbits
 268              		.align	2
 269              		.global	WWDG_GetFlagStatus
 270              		.thumb
 271              		.thumb_func
 273              	WWDG_GetFlagStatus:
 274              	.LFB116:
 241:../STM32F4xx_StdPeriph_Driver/src/stm32f4xx_wwdg.c **** /**
 242:../STM32F4xx_StdPeriph_Driver/src/stm32f4xx_wwdg.c ****   * @}
 243:../STM32F4xx_StdPeriph_Driver/src/stm32f4xx_wwdg.c ****   */
 244:../STM32F4xx_StdPeriph_Driver/src/stm32f4xx_wwdg.c **** 
 245:../STM32F4xx_StdPeriph_Driver/src/stm32f4xx_wwdg.c **** /** @defgroup WWDG_Group3 Interrupts and flags management functions
 246:../STM32F4xx_StdPeriph_Driver/src/stm32f4xx_wwdg.c ****  *  @brief   Interrupts and flags management functions 
 247:../STM32F4xx_StdPeriph_Driver/src/stm32f4xx_wwdg.c ****  *
 248:../STM32F4xx_StdPeriph_Driver/src/stm32f4xx_wwdg.c **** @verbatim   
 249:../STM32F4xx_StdPeriph_Driver/src/stm32f4xx_wwdg.c ****  ===============================================================================
 250:../STM32F4xx_StdPeriph_Driver/src/stm32f4xx_wwdg.c ****                  Interrupts and flags management functions
 251:../STM32F4xx_StdPeriph_Driver/src/stm32f4xx_wwdg.c ****  ===============================================================================  
 252:../STM32F4xx_StdPeriph_Driver/src/stm32f4xx_wwdg.c **** 
 253:../STM32F4xx_StdPeriph_Driver/src/stm32f4xx_wwdg.c **** @endverbatim
 254:../STM32F4xx_StdPeriph_Driver/src/stm32f4xx_wwdg.c ****   * @{
 255:../STM32F4xx_StdPeriph_Driver/src/stm32f4xx_wwdg.c ****   */
 256:../STM32F4xx_StdPeriph_Driver/src/stm32f4xx_wwdg.c **** 
 257:../STM32F4xx_StdPeriph_Driver/src/stm32f4xx_wwdg.c **** /**
 258:../STM32F4xx_StdPeriph_Driver/src/stm32f4xx_wwdg.c ****   * @brief  Checks whether the Early Wakeup interrupt flag is set or not.
 259:../STM32F4xx_StdPeriph_Driver/src/stm32f4xx_wwdg.c ****   * @param  None
 260:../STM32F4xx_StdPeriph_Driver/src/stm32f4xx_wwdg.c ****   * @retval The new state of the Early Wakeup interrupt flag (SET or RESET)
 261:../STM32F4xx_StdPeriph_Driver/src/stm32f4xx_wwdg.c ****   */
 262:../STM32F4xx_StdPeriph_Driver/src/stm32f4xx_wwdg.c **** FlagStatus WWDG_GetFlagStatus(void)
 263:../STM32F4xx_StdPeriph_Driver/src/stm32f4xx_wwdg.c **** {
 275              		.loc 1 263 0
 276              		.cfi_startproc
 277              		@ args = 0, pretend = 0, frame = 8
 278              		@ frame_needed = 1, uses_anonymous_args = 0
 279              		@ link register save eliminated.
 280 0000 80B4     		push	{r7}
 281              	.LCFI16:
 282              		.cfi_def_cfa_offset 4
 283              		.cfi_offset 7, -4
 284 0002 83B0     		sub	sp, sp, #12
 285              	.LCFI17:
 286              		.cfi_def_cfa_offset 16
 287 0004 00AF     		add	r7, sp, #0
 288              	.LCFI18:
 289              		.cfi_def_cfa_register 7
 264:../STM32F4xx_StdPeriph_Driver/src/stm32f4xx_wwdg.c ****   FlagStatus bitstatus = RESET;
 290              		.loc 1 264 0
 291 0006 4FF00003 		mov	r3, #0
 292 000a FB71     		strb	r3, [r7, #7]
 265:../STM32F4xx_StdPeriph_Driver/src/stm32f4xx_wwdg.c ****     
 266:../STM32F4xx_StdPeriph_Driver/src/stm32f4xx_wwdg.c ****   if ((WWDG->SR) != (uint32_t)RESET)
 293              		.loc 1 266 0
 294 000c 4FF43053 		mov	r3, #11264
 295 0010 C4F20003 		movt	r3, 16384
 296 0014 9B68     		ldr	r3, [r3, #8]
 297 0016 002B     		cmp	r3, #0
 298 0018 03D0     		beq	.L8
 267:../STM32F4xx_StdPeriph_Driver/src/stm32f4xx_wwdg.c ****   {
 268:../STM32F4xx_StdPeriph_Driver/src/stm32f4xx_wwdg.c ****     bitstatus = SET;
 299              		.loc 1 268 0
 300 001a 4FF00103 		mov	r3, #1
 301 001e FB71     		strb	r3, [r7, #7]
 302 0020 02E0     		b	.L9
 303              	.L8:
 269:../STM32F4xx_StdPeriph_Driver/src/stm32f4xx_wwdg.c ****   }
 270:../STM32F4xx_StdPeriph_Driver/src/stm32f4xx_wwdg.c ****   else
 271:../STM32F4xx_StdPeriph_Driver/src/stm32f4xx_wwdg.c ****   {
 272:../STM32F4xx_StdPeriph_Driver/src/stm32f4xx_wwdg.c ****     bitstatus = RESET;
 304              		.loc 1 272 0
 305 0022 4FF00003 		mov	r3, #0
 306 0026 FB71     		strb	r3, [r7, #7]
 307              	.L9:
 273:../STM32F4xx_StdPeriph_Driver/src/stm32f4xx_wwdg.c ****   }
 274:../STM32F4xx_StdPeriph_Driver/src/stm32f4xx_wwdg.c ****   return bitstatus;
 308              		.loc 1 274 0
 309 0028 FB79     		ldrb	r3, [r7, #7]	@ zero_extendqisi2
 275:../STM32F4xx_StdPeriph_Driver/src/stm32f4xx_wwdg.c **** }
 310              		.loc 1 275 0
 311 002a 1846     		mov	r0, r3
 312 002c 07F10C07 		add	r7, r7, #12
 313 0030 BD46     		mov	sp, r7
 314 0032 80BC     		pop	{r7}
 315 0034 7047     		bx	lr
 316              		.cfi_endproc
 317              	.LFE116:
 319 0036 00BF     		.section	.text.WWDG_ClearFlag,"ax",%progbits
 320              		.align	2
 321              		.global	WWDG_ClearFlag
 322              		.thumb
 323              		.thumb_func
 325              	WWDG_ClearFlag:
 326              	.LFB117:
 276:../STM32F4xx_StdPeriph_Driver/src/stm32f4xx_wwdg.c **** 
 277:../STM32F4xx_StdPeriph_Driver/src/stm32f4xx_wwdg.c **** /**
 278:../STM32F4xx_StdPeriph_Driver/src/stm32f4xx_wwdg.c ****   * @brief  Clears Early Wakeup interrupt flag.
 279:../STM32F4xx_StdPeriph_Driver/src/stm32f4xx_wwdg.c ****   * @param  None
 280:../STM32F4xx_StdPeriph_Driver/src/stm32f4xx_wwdg.c ****   * @retval None
 281:../STM32F4xx_StdPeriph_Driver/src/stm32f4xx_wwdg.c ****   */
 282:../STM32F4xx_StdPeriph_Driver/src/stm32f4xx_wwdg.c **** void WWDG_ClearFlag(void)
 283:../STM32F4xx_StdPeriph_Driver/src/stm32f4xx_wwdg.c **** {
 327              		.loc 1 283 0
 328              		.cfi_startproc
 329              		@ args = 0, pretend = 0, frame = 0
 330              		@ frame_needed = 1, uses_anonymous_args = 0
 331              		@ link register save eliminated.
 332 0000 80B4     		push	{r7}
 333              	.LCFI19:
 334              		.cfi_def_cfa_offset 4
 335              		.cfi_offset 7, -4
 336 0002 00AF     		add	r7, sp, #0
 337              	.LCFI20:
 338              		.cfi_def_cfa_register 7
 284:../STM32F4xx_StdPeriph_Driver/src/stm32f4xx_wwdg.c ****   WWDG->SR = (uint32_t)RESET;
 339              		.loc 1 284 0
 340 0004 4FF43053 		mov	r3, #11264
 341 0008 C4F20003 		movt	r3, 16384
 342 000c 4FF00002 		mov	r2, #0
 343 0010 9A60     		str	r2, [r3, #8]
 285:../STM32F4xx_StdPeriph_Driver/src/stm32f4xx_wwdg.c **** }
 344              		.loc 1 285 0
 345 0012 BD46     		mov	sp, r7
 346 0014 80BC     		pop	{r7}
 347 0016 7047     		bx	lr
 348              		.cfi_endproc
 349              	.LFE117:
 351              		.text
 352              	.Letext0:
 353              		.file 2 "d:/elektronik/ides/eclipse/yagarto/lib/gcc/../../arm-none-eabi/sys-include/stdint.h"
 354              		.file 3 "C:\\Dokumente und Einstellungen\\brand\\Desktop\\thundercyer-the-alarm-clock\\CMSIS\\Devi
 355              		.file 4 "C:\\Dokumente und Einstellungen\\brand\\Desktop\\thundercyer-the-alarm-clock\\CMSIS\\Incl