   1              		.syntax unified
   2              		.cpu cortex-m4
   3              		.eabi_attribute 27, 3
   4              		.fpu fpv4-sp-d16
   5              		.eabi_attribute 20, 1
   6              		.eabi_attribute 21, 1
   7              		.eabi_attribute 23, 3
   8              		.eabi_attribute 24, 1
   9              		.eabi_attribute 25, 1
  10              		.eabi_attribute 26, 1
  11              		.eabi_attribute 30, 6
  12              		.eabi_attribute 34, 1
  13              		.eabi_attribute 18, 4
  14              		.thumb
  15              		.file	"stm32f4xx_flash.c"
  16              		.text
  17              	.Ltext0:
  18              		.cfi_sections	.debug_frame
  19              		.align	2
  20              		.global	FLASH_SetLatency
  21              		.thumb
  22              		.thumb_func
  24              	FLASH_SetLatency:
  25              	.LFB110:
  26              		.file 1 "../STM32F4xx_StdPeriph_Driver/src/stm32f4xx_flash.c"
   1:../STM32F4xx_StdPeriph_Driver/src/stm32f4xx_flash.c **** /**
   2:../STM32F4xx_StdPeriph_Driver/src/stm32f4xx_flash.c ****   ******************************************************************************
   3:../STM32F4xx_StdPeriph_Driver/src/stm32f4xx_flash.c ****   * @file    stm32f4xx_flash.c
   4:../STM32F4xx_StdPeriph_Driver/src/stm32f4xx_flash.c ****   * @author  MCD Application Team
   5:../STM32F4xx_StdPeriph_Driver/src/stm32f4xx_flash.c ****   * @version V1.0.0
   6:../STM32F4xx_StdPeriph_Driver/src/stm32f4xx_flash.c ****   * @date    30-September-2011
   7:../STM32F4xx_StdPeriph_Driver/src/stm32f4xx_flash.c ****   * @brief   This file provides firmware functions to manage the following 
   8:../STM32F4xx_StdPeriph_Driver/src/stm32f4xx_flash.c ****   *          functionalities of the FLASH peripheral:
   9:../STM32F4xx_StdPeriph_Driver/src/stm32f4xx_flash.c ****   *            - FLASH Interface configuration
  10:../STM32F4xx_StdPeriph_Driver/src/stm32f4xx_flash.c ****   *            - FLASH Memory Programming
  11:../STM32F4xx_StdPeriph_Driver/src/stm32f4xx_flash.c ****   *            - Option Bytes Programming
  12:../STM32F4xx_StdPeriph_Driver/src/stm32f4xx_flash.c ****   *            - Interrupts and flags management
  13:../STM32F4xx_StdPeriph_Driver/src/stm32f4xx_flash.c ****   *  
  14:../STM32F4xx_StdPeriph_Driver/src/stm32f4xx_flash.c ****   *  @verbatim
  15:../STM32F4xx_StdPeriph_Driver/src/stm32f4xx_flash.c ****   *  
  16:../STM32F4xx_StdPeriph_Driver/src/stm32f4xx_flash.c ****   *          ===================================================================
  17:../STM32F4xx_StdPeriph_Driver/src/stm32f4xx_flash.c ****   *                                 How to use this driver
  18:../STM32F4xx_StdPeriph_Driver/src/stm32f4xx_flash.c ****   *          ===================================================================
  19:../STM32F4xx_StdPeriph_Driver/src/stm32f4xx_flash.c ****   *                           
  20:../STM32F4xx_StdPeriph_Driver/src/stm32f4xx_flash.c ****   *          This driver provides functions to configure and program the FLASH 
  21:../STM32F4xx_StdPeriph_Driver/src/stm32f4xx_flash.c ****   *          memory of all STM32F4xx devices.
  22:../STM32F4xx_StdPeriph_Driver/src/stm32f4xx_flash.c ****   *          These functions are split in 4 groups:
  23:../STM32F4xx_StdPeriph_Driver/src/stm32f4xx_flash.c ****   * 
  24:../STM32F4xx_StdPeriph_Driver/src/stm32f4xx_flash.c ****   *           1. FLASH Interface configuration functions: this group includes the
  25:../STM32F4xx_StdPeriph_Driver/src/stm32f4xx_flash.c ****   *              management of the following features:
  26:../STM32F4xx_StdPeriph_Driver/src/stm32f4xx_flash.c ****   *                    - Set the latency
  27:../STM32F4xx_StdPeriph_Driver/src/stm32f4xx_flash.c ****   *                    - Enable/Disable the prefetch buffer
  28:../STM32F4xx_StdPeriph_Driver/src/stm32f4xx_flash.c ****   *                    - Enable/Disable the Instruction cache and the Data cache
  29:../STM32F4xx_StdPeriph_Driver/src/stm32f4xx_flash.c ****   *                    - Reset the Instruction cache and the Data cache
  30:../STM32F4xx_StdPeriph_Driver/src/stm32f4xx_flash.c ****   *  
  31:../STM32F4xx_StdPeriph_Driver/src/stm32f4xx_flash.c ****   *           2. FLASH Memory Programming functions: this group includes all needed
  32:../STM32F4xx_StdPeriph_Driver/src/stm32f4xx_flash.c ****   *              functions to erase and program the main memory:
  33:../STM32F4xx_StdPeriph_Driver/src/stm32f4xx_flash.c ****   *                    - Lock and Unlock the FLASH interface
  34:../STM32F4xx_StdPeriph_Driver/src/stm32f4xx_flash.c ****   *                    - Erase function: Erase sector, erase all sectors
  35:../STM32F4xx_StdPeriph_Driver/src/stm32f4xx_flash.c ****   *                    - Program functions: byte, half word, word and double word
  36:../STM32F4xx_StdPeriph_Driver/src/stm32f4xx_flash.c ****   *  
  37:../STM32F4xx_StdPeriph_Driver/src/stm32f4xx_flash.c ****   *           3. Option Bytes Programming functions: this group includes all needed
  38:../STM32F4xx_StdPeriph_Driver/src/stm32f4xx_flash.c ****   *              functions to manage the Option Bytes:
  39:../STM32F4xx_StdPeriph_Driver/src/stm32f4xx_flash.c ****   *                    - Set/Reset the write protection
  40:../STM32F4xx_StdPeriph_Driver/src/stm32f4xx_flash.c ****   *                    - Set the Read protection Level
  41:../STM32F4xx_StdPeriph_Driver/src/stm32f4xx_flash.c ****   *                    - Set the BOR level
  42:../STM32F4xx_StdPeriph_Driver/src/stm32f4xx_flash.c ****   *                    - Program the user Option Bytes
  43:../STM32F4xx_StdPeriph_Driver/src/stm32f4xx_flash.c ****   *                    - Launch the Option Bytes loader
  44:../STM32F4xx_StdPeriph_Driver/src/stm32f4xx_flash.c ****   *  
  45:../STM32F4xx_StdPeriph_Driver/src/stm32f4xx_flash.c ****   *           4. Interrupts and flags management functions: this group 
  46:../STM32F4xx_StdPeriph_Driver/src/stm32f4xx_flash.c ****   *              includes all needed functions to:
  47:../STM32F4xx_StdPeriph_Driver/src/stm32f4xx_flash.c ****   *                    - Enable/Disable the FLASH interrupt sources
  48:../STM32F4xx_StdPeriph_Driver/src/stm32f4xx_flash.c ****   *                    - Get flags status
  49:../STM32F4xx_StdPeriph_Driver/src/stm32f4xx_flash.c ****   *                    - Clear flags
  50:../STM32F4xx_StdPeriph_Driver/src/stm32f4xx_flash.c ****   *                    - Get FLASH operation status
  51:../STM32F4xx_StdPeriph_Driver/src/stm32f4xx_flash.c ****   *                    - Wait for last FLASH operation
  52:../STM32F4xx_StdPeriph_Driver/src/stm32f4xx_flash.c ****   * 
  53:../STM32F4xx_StdPeriph_Driver/src/stm32f4xx_flash.c ****   *  @endverbatim
  54:../STM32F4xx_StdPeriph_Driver/src/stm32f4xx_flash.c ****   *                      
  55:../STM32F4xx_StdPeriph_Driver/src/stm32f4xx_flash.c ****   ******************************************************************************
  56:../STM32F4xx_StdPeriph_Driver/src/stm32f4xx_flash.c ****   * @attention
  57:../STM32F4xx_StdPeriph_Driver/src/stm32f4xx_flash.c ****   *
  58:../STM32F4xx_StdPeriph_Driver/src/stm32f4xx_flash.c ****   * THE PRESENT FIRMWARE WHICH IS FOR GUIDANCE ONLY AIMS AT PROVIDING CUSTOMERS
  59:../STM32F4xx_StdPeriph_Driver/src/stm32f4xx_flash.c ****   * WITH CODING INFORMATION REGARDING THEIR PRODUCTS IN ORDER FOR THEM TO SAVE
  60:../STM32F4xx_StdPeriph_Driver/src/stm32f4xx_flash.c ****   * TIME. AS A RESULT, STMICROELECTRONICS SHALL NOT BE HELD LIABLE FOR ANY
  61:../STM32F4xx_StdPeriph_Driver/src/stm32f4xx_flash.c ****   * DIRECT, INDIRECT OR CONSEQUENTIAL DAMAGES WITH RESPECT TO ANY CLAIMS ARISING
  62:../STM32F4xx_StdPeriph_Driver/src/stm32f4xx_flash.c ****   * FROM THE CONTENT OF SUCH FIRMWARE AND/OR THE USE MADE BY CUSTOMERS OF THE
  63:../STM32F4xx_StdPeriph_Driver/src/stm32f4xx_flash.c ****   * CODING INFORMATION CONTAINED HEREIN IN CONNECTION WITH THEIR PRODUCTS.
  64:../STM32F4xx_StdPeriph_Driver/src/stm32f4xx_flash.c ****   *
  65:../STM32F4xx_StdPeriph_Driver/src/stm32f4xx_flash.c ****   * <h2><center>&copy; COPYRIGHT 2011 STMicroelectronics</center></h2>
  66:../STM32F4xx_StdPeriph_Driver/src/stm32f4xx_flash.c ****   ******************************************************************************
  67:../STM32F4xx_StdPeriph_Driver/src/stm32f4xx_flash.c ****   */
  68:../STM32F4xx_StdPeriph_Driver/src/stm32f4xx_flash.c **** 
  69:../STM32F4xx_StdPeriph_Driver/src/stm32f4xx_flash.c **** /* Includes ------------------------------------------------------------------*/
  70:../STM32F4xx_StdPeriph_Driver/src/stm32f4xx_flash.c **** #include "stm32f4xx_flash.h"
  71:../STM32F4xx_StdPeriph_Driver/src/stm32f4xx_flash.c **** 
  72:../STM32F4xx_StdPeriph_Driver/src/stm32f4xx_flash.c **** /** @addtogroup STM32F4xx_StdPeriph_Driver
  73:../STM32F4xx_StdPeriph_Driver/src/stm32f4xx_flash.c ****   * @{
  74:../STM32F4xx_StdPeriph_Driver/src/stm32f4xx_flash.c ****   */
  75:../STM32F4xx_StdPeriph_Driver/src/stm32f4xx_flash.c **** 
  76:../STM32F4xx_StdPeriph_Driver/src/stm32f4xx_flash.c **** /** @defgroup FLASH 
  77:../STM32F4xx_StdPeriph_Driver/src/stm32f4xx_flash.c ****   * @brief FLASH driver modules
  78:../STM32F4xx_StdPeriph_Driver/src/stm32f4xx_flash.c ****   * @{
  79:../STM32F4xx_StdPeriph_Driver/src/stm32f4xx_flash.c ****   */ 
  80:../STM32F4xx_StdPeriph_Driver/src/stm32f4xx_flash.c **** 
  81:../STM32F4xx_StdPeriph_Driver/src/stm32f4xx_flash.c **** /* Private typedef -----------------------------------------------------------*/
  82:../STM32F4xx_StdPeriph_Driver/src/stm32f4xx_flash.c **** /* Private define ------------------------------------------------------------*/ 
  83:../STM32F4xx_StdPeriph_Driver/src/stm32f4xx_flash.c **** #define SECTOR_MASK               ((uint32_t)0xFFFFFF07)
  84:../STM32F4xx_StdPeriph_Driver/src/stm32f4xx_flash.c **** 
  85:../STM32F4xx_StdPeriph_Driver/src/stm32f4xx_flash.c **** /* Private macro -------------------------------------------------------------*/
  86:../STM32F4xx_StdPeriph_Driver/src/stm32f4xx_flash.c **** /* Private variables ---------------------------------------------------------*/
  87:../STM32F4xx_StdPeriph_Driver/src/stm32f4xx_flash.c **** /* Private function prototypes -----------------------------------------------*/
  88:../STM32F4xx_StdPeriph_Driver/src/stm32f4xx_flash.c **** /* Private functions ---------------------------------------------------------*/
  89:../STM32F4xx_StdPeriph_Driver/src/stm32f4xx_flash.c **** 
  90:../STM32F4xx_StdPeriph_Driver/src/stm32f4xx_flash.c **** /** @defgroup FLASH_Private_Functions
  91:../STM32F4xx_StdPeriph_Driver/src/stm32f4xx_flash.c ****   * @{
  92:../STM32F4xx_StdPeriph_Driver/src/stm32f4xx_flash.c ****   */ 
  93:../STM32F4xx_StdPeriph_Driver/src/stm32f4xx_flash.c **** 
  94:../STM32F4xx_StdPeriph_Driver/src/stm32f4xx_flash.c **** /** @defgroup FLASH_Group1 FLASH Interface configuration functions
  95:../STM32F4xx_StdPeriph_Driver/src/stm32f4xx_flash.c ****   *  @brief   FLASH Interface configuration functions 
  96:../STM32F4xx_StdPeriph_Driver/src/stm32f4xx_flash.c ****  *
  97:../STM32F4xx_StdPeriph_Driver/src/stm32f4xx_flash.c **** 
  98:../STM32F4xx_StdPeriph_Driver/src/stm32f4xx_flash.c **** @verbatim   
  99:../STM32F4xx_StdPeriph_Driver/src/stm32f4xx_flash.c ****  ===============================================================================
 100:../STM32F4xx_StdPeriph_Driver/src/stm32f4xx_flash.c ****                        FLASH Interface configuration functions
 101:../STM32F4xx_StdPeriph_Driver/src/stm32f4xx_flash.c ****  ===============================================================================
 102:../STM32F4xx_StdPeriph_Driver/src/stm32f4xx_flash.c **** 
 103:../STM32F4xx_StdPeriph_Driver/src/stm32f4xx_flash.c ****    This group includes the following functions:
 104:../STM32F4xx_StdPeriph_Driver/src/stm32f4xx_flash.c ****     - void FLASH_SetLatency(uint32_t FLASH_Latency)
 105:../STM32F4xx_StdPeriph_Driver/src/stm32f4xx_flash.c ****        To correctly read data from FLASH memory, the number of wait states (LATENCY) 
 106:../STM32F4xx_StdPeriph_Driver/src/stm32f4xx_flash.c ****        must be correctly programmed according to the frequency of the CPU clock 
 107:../STM32F4xx_StdPeriph_Driver/src/stm32f4xx_flash.c ****       (HCLK) and the supply voltage of the device.
 108:../STM32F4xx_StdPeriph_Driver/src/stm32f4xx_flash.c ****  +-------------------------------------------------------------------------------------+     
 109:../STM32F4xx_StdPeriph_Driver/src/stm32f4xx_flash.c ****  | Latency       |                HCLK clock frequency (MHz)                           |
 110:../STM32F4xx_StdPeriph_Driver/src/stm32f4xx_flash.c ****  |               |---------------------------------------------------------------------|     
 111:../STM32F4xx_StdPeriph_Driver/src/stm32f4xx_flash.c ****  |               | voltage range  | voltage range  | voltage range   | voltage range   |
 112:../STM32F4xx_StdPeriph_Driver/src/stm32f4xx_flash.c ****  |               | 2.7 V - 3.6 V  | 2.4 V - 2.7 V  | 2.1 V - 2.4 V   | 1.8 V - 2.1 V   |
 113:../STM32F4xx_StdPeriph_Driver/src/stm32f4xx_flash.c ****  |---------------|----------------|----------------|-----------------|-----------------|           
 114:../STM32F4xx_StdPeriph_Driver/src/stm32f4xx_flash.c ****  |0WS(1CPU cycle)|0 < HCLK <= 30  |0 < HCLK <= 24  |0 < HCLK <= 18   |0 < HCLK <= 16   |
 115:../STM32F4xx_StdPeriph_Driver/src/stm32f4xx_flash.c ****  |---------------|----------------|----------------|-----------------|-----------------|   
 116:../STM32F4xx_StdPeriph_Driver/src/stm32f4xx_flash.c ****  |1WS(2CPU cycle)|30 < HCLK <= 60 |24 < HCLK <= 48 |18 < HCLK <= 36  |16 < HCLK <= 32  | 
 117:../STM32F4xx_StdPeriph_Driver/src/stm32f4xx_flash.c ****  |---------------|----------------|----------------|-----------------|-----------------|   
 118:../STM32F4xx_StdPeriph_Driver/src/stm32f4xx_flash.c ****  |2WS(3CPU cycle)|60 < HCLK <= 90 |48 < HCLK <= 72 |36 < HCLK <= 54  |32 < HCLK <= 48  |
 119:../STM32F4xx_StdPeriph_Driver/src/stm32f4xx_flash.c ****  |---------------|----------------|----------------|-----------------|-----------------| 
 120:../STM32F4xx_StdPeriph_Driver/src/stm32f4xx_flash.c ****  |3WS(4CPU cycle)|90 < HCLK <= 120|72 < HCLK <= 96 |54 < HCLK <= 72  |48 < HCLK <= 64  |
 121:../STM32F4xx_StdPeriph_Driver/src/stm32f4xx_flash.c ****  |---------------|----------------|----------------|-----------------|-----------------| 
 122:../STM32F4xx_StdPeriph_Driver/src/stm32f4xx_flash.c ****  |4WS(5CPU cycle)|120< HCLK <= 150|96 < HCLK <= 120|72 < HCLK <= 90  |64 < HCLK <= 80  |
 123:../STM32F4xx_StdPeriph_Driver/src/stm32f4xx_flash.c ****  |---------------|----------------|----------------|-----------------|-----------------| 
 124:../STM32F4xx_StdPeriph_Driver/src/stm32f4xx_flash.c ****  |5WS(6CPU cycle)|120< HCLK <= 168|120< HCLK <= 144|90 < HCLK <= 108 |80 < HCLK <= 96  | 
 125:../STM32F4xx_StdPeriph_Driver/src/stm32f4xx_flash.c ****  |---------------|----------------|----------------|-----------------|-----------------| 
 126:../STM32F4xx_StdPeriph_Driver/src/stm32f4xx_flash.c ****  |6WS(7CPU cycle)|      NA        |144< HCLK <= 168|108 < HCLK <= 120|96 < HCLK <= 112 | 
 127:../STM32F4xx_StdPeriph_Driver/src/stm32f4xx_flash.c ****  |---------------|----------------|----------------|-----------------|-----------------| 
 128:../STM32F4xx_StdPeriph_Driver/src/stm32f4xx_flash.c ****  |7WS(8CPU cycle)|      NA        |      NA        |120 < HCLK <= 138|112 < HCLK <= 120| 
 129:../STM32F4xx_StdPeriph_Driver/src/stm32f4xx_flash.c ****  |***************|****************|****************|*****************|*****************|***********
 130:../STM32F4xx_StdPeriph_Driver/src/stm32f4xx_flash.c ****  |               | voltage range  | voltage range  | voltage range   | voltage range   | voltage ra
 131:../STM32F4xx_StdPeriph_Driver/src/stm32f4xx_flash.c ****  |               | 2.7 V - 3.6 V  | 2.4 V - 2.7 V  | 2.1 V - 2.4 V   | 1.8 V - 2.1 V   | with Exter
 132:../STM32F4xx_StdPeriph_Driver/src/stm32f4xx_flash.c ****  |---------------|----------------|----------------|-----------------|-----------------|-----------
 133:../STM32F4xx_StdPeriph_Driver/src/stm32f4xx_flash.c ****  |Max Parallelism|      x32       |               x16                |       x8        |          x
 134:../STM32F4xx_StdPeriph_Driver/src/stm32f4xx_flash.c ****  |---------------|----------------|----------------|-----------------|-----------------|-----------
 135:../STM32F4xx_StdPeriph_Driver/src/stm32f4xx_flash.c ****  |PSIZE[1:0]     |      10        |               01                 |       00        |           
 136:../STM32F4xx_StdPeriph_Driver/src/stm32f4xx_flash.c ****  +-------------------------------------------------------------------------------------------------
 137:../STM32F4xx_StdPeriph_Driver/src/stm32f4xx_flash.c ****    @note When VOS bit (in PWR_CR register) is reset to '0’, the maximum value of HCLK is 144 MHz.
 138:../STM32F4xx_StdPeriph_Driver/src/stm32f4xx_flash.c ****          You can use PWR_MainRegulatorModeConfig() function to set or reset this bit.
 139:../STM32F4xx_StdPeriph_Driver/src/stm32f4xx_flash.c ****              
 140:../STM32F4xx_StdPeriph_Driver/src/stm32f4xx_flash.c ****     - void FLASH_PrefetchBufferCmd(FunctionalState NewState)
 141:../STM32F4xx_StdPeriph_Driver/src/stm32f4xx_flash.c ****     - void FLASH_InstructionCacheCmd(FunctionalState NewState)
 142:../STM32F4xx_StdPeriph_Driver/src/stm32f4xx_flash.c ****     - void FLASH_DataCacheCmd(FunctionalState NewState)
 143:../STM32F4xx_StdPeriph_Driver/src/stm32f4xx_flash.c ****     - void FLASH_InstructionCacheReset(void)
 144:../STM32F4xx_StdPeriph_Driver/src/stm32f4xx_flash.c ****     - void FLASH_DataCacheReset(void)
 145:../STM32F4xx_StdPeriph_Driver/src/stm32f4xx_flash.c ****    
 146:../STM32F4xx_StdPeriph_Driver/src/stm32f4xx_flash.c ****    The unlock sequence is not needed for these functions.
 147:../STM32F4xx_StdPeriph_Driver/src/stm32f4xx_flash.c ****  
 148:../STM32F4xx_StdPeriph_Driver/src/stm32f4xx_flash.c **** @endverbatim
 149:../STM32F4xx_StdPeriph_Driver/src/stm32f4xx_flash.c ****   * @{
 150:../STM32F4xx_StdPeriph_Driver/src/stm32f4xx_flash.c ****   */
 151:../STM32F4xx_StdPeriph_Driver/src/stm32f4xx_flash.c ****  
 152:../STM32F4xx_StdPeriph_Driver/src/stm32f4xx_flash.c **** /**
 153:../STM32F4xx_StdPeriph_Driver/src/stm32f4xx_flash.c ****   * @brief  Sets the code latency value.
 154:../STM32F4xx_StdPeriph_Driver/src/stm32f4xx_flash.c ****   * @param  FLASH_Latency: specifies the FLASH Latency value.
 155:../STM32F4xx_StdPeriph_Driver/src/stm32f4xx_flash.c ****   *          This parameter can be one of the following values:
 156:../STM32F4xx_StdPeriph_Driver/src/stm32f4xx_flash.c ****   *            @arg FLASH_Latency_0: FLASH Zero Latency cycle
 157:../STM32F4xx_StdPeriph_Driver/src/stm32f4xx_flash.c ****   *            @arg FLASH_Latency_1: FLASH One Latency cycle
 158:../STM32F4xx_StdPeriph_Driver/src/stm32f4xx_flash.c ****   *            @arg FLASH_Latency_2: FLASH Two Latency cycles
 159:../STM32F4xx_StdPeriph_Driver/src/stm32f4xx_flash.c ****   *            @arg FLASH_Latency_3: FLASH Three Latency cycles
 160:../STM32F4xx_StdPeriph_Driver/src/stm32f4xx_flash.c ****   *            @arg FLASH_Latency_4: FLASH Four Latency cycles 
 161:../STM32F4xx_StdPeriph_Driver/src/stm32f4xx_flash.c ****   *            @arg FLASH_Latency_5: FLASH Five Latency cycles 
 162:../STM32F4xx_StdPeriph_Driver/src/stm32f4xx_flash.c ****   *            @arg FLASH_Latency_6: FLASH Six Latency cycles
 163:../STM32F4xx_StdPeriph_Driver/src/stm32f4xx_flash.c ****   *            @arg FLASH_Latency_7: FLASH Seven Latency cycles      
 164:../STM32F4xx_StdPeriph_Driver/src/stm32f4xx_flash.c ****   * @retval None
 165:../STM32F4xx_StdPeriph_Driver/src/stm32f4xx_flash.c ****   */
 166:../STM32F4xx_StdPeriph_Driver/src/stm32f4xx_flash.c **** void FLASH_SetLatency(uint32_t FLASH_Latency)
 167:../STM32F4xx_StdPeriph_Driver/src/stm32f4xx_flash.c **** {
  27              		.loc 1 167 0
  28              		.cfi_startproc
  29              		@ args = 0, pretend = 0, frame = 8
  30              		@ frame_needed = 1, uses_anonymous_args = 0
  31              		@ link register save eliminated.
  32 0000 80B4     		push	{r7}
  33              	.LCFI0:
  34              		.cfi_def_cfa_offset 4
  35              		.cfi_offset 7, -4
  36 0002 83B0     		sub	sp, sp, #12
  37              	.LCFI1:
  38              		.cfi_def_cfa_offset 16
  39 0004 00AF     		add	r7, sp, #0
  40              	.LCFI2:
  41              		.cfi_def_cfa_register 7
  42 0006 7860     		str	r0, [r7, #4]
 168:../STM32F4xx_StdPeriph_Driver/src/stm32f4xx_flash.c ****   /* Check the parameters */
 169:../STM32F4xx_StdPeriph_Driver/src/stm32f4xx_flash.c ****   assert_param(IS_FLASH_LATENCY(FLASH_Latency));
 170:../STM32F4xx_StdPeriph_Driver/src/stm32f4xx_flash.c ****   
 171:../STM32F4xx_StdPeriph_Driver/src/stm32f4xx_flash.c ****   /* Perform Byte access to FLASH_ACR[8:0] to set the Latency value */
 172:../STM32F4xx_StdPeriph_Driver/src/stm32f4xx_flash.c ****   *(__IO uint8_t *)ACR_BYTE0_ADDRESS = (uint8_t)FLASH_Latency;
  43              		.loc 1 172 0
  44 0008 4FF47053 		mov	r3, #15360
  45 000c C4F20203 		movt	r3, 16386
  46 0010 7A68     		ldr	r2, [r7, #4]
  47 0012 D2B2     		uxtb	r2, r2
  48 0014 1A70     		strb	r2, [r3, #0]
 173:../STM32F4xx_StdPeriph_Driver/src/stm32f4xx_flash.c **** }
  49              		.loc 1 173 0
  50 0016 07F10C07 		add	r7, r7, #12
  51 001a BD46     		mov	sp, r7
  52 001c 80BC     		pop	{r7}
  53 001e 7047     		bx	lr
  54              		.cfi_endproc
  55              	.LFE110:
  57              		.align	2
  58              		.global	FLASH_PrefetchBufferCmd
  59              		.thumb
  60              		.thumb_func
  62              	FLASH_PrefetchBufferCmd:
  63              	.LFB111:
 174:../STM32F4xx_StdPeriph_Driver/src/stm32f4xx_flash.c **** 
 175:../STM32F4xx_StdPeriph_Driver/src/stm32f4xx_flash.c **** /**
 176:../STM32F4xx_StdPeriph_Driver/src/stm32f4xx_flash.c ****   * @brief  Enables or disables the Prefetch Buffer.
 177:../STM32F4xx_StdPeriph_Driver/src/stm32f4xx_flash.c ****   * @param  NewState: new state of the Prefetch Buffer.
 178:../STM32F4xx_StdPeriph_Driver/src/stm32f4xx_flash.c ****   *          This parameter  can be: ENABLE or DISABLE.
 179:../STM32F4xx_StdPeriph_Driver/src/stm32f4xx_flash.c ****   * @retval None
 180:../STM32F4xx_StdPeriph_Driver/src/stm32f4xx_flash.c ****   */
 181:../STM32F4xx_StdPeriph_Driver/src/stm32f4xx_flash.c **** void FLASH_PrefetchBufferCmd(FunctionalState NewState)
 182:../STM32F4xx_StdPeriph_Driver/src/stm32f4xx_flash.c **** {
  64              		.loc 1 182 0
  65              		.cfi_startproc
  66              		@ args = 0, pretend = 0, frame = 8
  67              		@ frame_needed = 1, uses_anonymous_args = 0
  68              		@ link register save eliminated.
  69 0020 80B4     		push	{r7}
  70              	.LCFI3:
  71              		.cfi_def_cfa_offset 4
  72              		.cfi_offset 7, -4
  73 0022 83B0     		sub	sp, sp, #12
  74              	.LCFI4:
  75              		.cfi_def_cfa_offset 16
  76 0024 00AF     		add	r7, sp, #0
  77              	.LCFI5:
  78              		.cfi_def_cfa_register 7
  79 0026 0346     		mov	r3, r0
  80 0028 FB71     		strb	r3, [r7, #7]
 183:../STM32F4xx_StdPeriph_Driver/src/stm32f4xx_flash.c ****   /* Check the parameters */
 184:../STM32F4xx_StdPeriph_Driver/src/stm32f4xx_flash.c ****   assert_param(IS_FUNCTIONAL_STATE(NewState));
 185:../STM32F4xx_StdPeriph_Driver/src/stm32f4xx_flash.c ****   
 186:../STM32F4xx_StdPeriph_Driver/src/stm32f4xx_flash.c ****   /* Enable or disable the Prefetch Buffer */
 187:../STM32F4xx_StdPeriph_Driver/src/stm32f4xx_flash.c ****   if(NewState != DISABLE)
  81              		.loc 1 187 0
  82 002a FB79     		ldrb	r3, [r7, #7]	@ zero_extendqisi2
  83 002c 002B     		cmp	r3, #0
  84 002e 0CD0     		beq	.L3
 188:../STM32F4xx_StdPeriph_Driver/src/stm32f4xx_flash.c ****   {
 189:../STM32F4xx_StdPeriph_Driver/src/stm32f4xx_flash.c ****     FLASH->ACR |= FLASH_ACR_PRFTEN;
  85              		.loc 1 189 0
  86 0030 4FF47053 		mov	r3, #15360
  87 0034 C4F20203 		movt	r3, 16386
  88 0038 4FF47052 		mov	r2, #15360
  89 003c C4F20202 		movt	r2, 16386
  90 0040 1268     		ldr	r2, [r2, #0]
  91 0042 42F48072 		orr	r2, r2, #256
  92 0046 1A60     		str	r2, [r3, #0]
  93 0048 0BE0     		b	.L2
  94              	.L3:
 190:../STM32F4xx_StdPeriph_Driver/src/stm32f4xx_flash.c ****   }
 191:../STM32F4xx_StdPeriph_Driver/src/stm32f4xx_flash.c ****   else
 192:../STM32F4xx_StdPeriph_Driver/src/stm32f4xx_flash.c ****   {
 193:../STM32F4xx_StdPeriph_Driver/src/stm32f4xx_flash.c ****     FLASH->ACR &= (~FLASH_ACR_PRFTEN);
  95              		.loc 1 193 0
  96 004a 4FF47053 		mov	r3, #15360
  97 004e C4F20203 		movt	r3, 16386
  98 0052 4FF47052 		mov	r2, #15360
  99 0056 C4F20202 		movt	r2, 16386
 100 005a 1268     		ldr	r2, [r2, #0]
 101 005c 22F48072 		bic	r2, r2, #256
 102 0060 1A60     		str	r2, [r3, #0]
 103              	.L2:
 194:../STM32F4xx_StdPeriph_Driver/src/stm32f4xx_flash.c ****   }
 195:../STM32F4xx_StdPeriph_Driver/src/stm32f4xx_flash.c **** }
 104              		.loc 1 195 0
 105 0062 07F10C07 		add	r7, r7, #12
 106 0066 BD46     		mov	sp, r7
 107 0068 80BC     		pop	{r7}
 108 006a 7047     		bx	lr
 109              		.cfi_endproc
 110              	.LFE111:
 112              		.align	2
 113              		.global	FLASH_InstructionCacheCmd
 114              		.thumb
 115              		.thumb_func
 117              	FLASH_InstructionCacheCmd:
 118              	.LFB112:
 196:../STM32F4xx_StdPeriph_Driver/src/stm32f4xx_flash.c **** 
 197:../STM32F4xx_StdPeriph_Driver/src/stm32f4xx_flash.c **** /**
 198:../STM32F4xx_StdPeriph_Driver/src/stm32f4xx_flash.c ****   * @brief  Enables or disables the Instruction Cache feature.
 199:../STM32F4xx_StdPeriph_Driver/src/stm32f4xx_flash.c ****   * @param  NewState: new state of the Instruction Cache.
 200:../STM32F4xx_StdPeriph_Driver/src/stm32f4xx_flash.c ****   *          This parameter  can be: ENABLE or DISABLE.
 201:../STM32F4xx_StdPeriph_Driver/src/stm32f4xx_flash.c ****   * @retval None
 202:../STM32F4xx_StdPeriph_Driver/src/stm32f4xx_flash.c ****   */
 203:../STM32F4xx_StdPeriph_Driver/src/stm32f4xx_flash.c **** void FLASH_InstructionCacheCmd(FunctionalState NewState)
 204:../STM32F4xx_StdPeriph_Driver/src/stm32f4xx_flash.c **** {
 119              		.loc 1 204 0
 120              		.cfi_startproc
 121              		@ args = 0, pretend = 0, frame = 8
 122              		@ frame_needed = 1, uses_anonymous_args = 0
 123              		@ link register save eliminated.
 124 006c 80B4     		push	{r7}
 125              	.LCFI6:
 126              		.cfi_def_cfa_offset 4
 127              		.cfi_offset 7, -4
 128 006e 83B0     		sub	sp, sp, #12
 129              	.LCFI7:
 130              		.cfi_def_cfa_offset 16
 131 0070 00AF     		add	r7, sp, #0
 132              	.LCFI8:
 133              		.cfi_def_cfa_register 7
 134 0072 0346     		mov	r3, r0
 135 0074 FB71     		strb	r3, [r7, #7]
 205:../STM32F4xx_StdPeriph_Driver/src/stm32f4xx_flash.c ****   /* Check the parameters */
 206:../STM32F4xx_StdPeriph_Driver/src/stm32f4xx_flash.c ****   assert_param(IS_FUNCTIONAL_STATE(NewState));
 207:../STM32F4xx_StdPeriph_Driver/src/stm32f4xx_flash.c ****   
 208:../STM32F4xx_StdPeriph_Driver/src/stm32f4xx_flash.c ****   if(NewState != DISABLE)
 136              		.loc 1 208 0
 137 0076 FB79     		ldrb	r3, [r7, #7]	@ zero_extendqisi2
 138 0078 002B     		cmp	r3, #0
 139 007a 0CD0     		beq	.L6
 209:../STM32F4xx_StdPeriph_Driver/src/stm32f4xx_flash.c ****   {
 210:../STM32F4xx_StdPeriph_Driver/src/stm32f4xx_flash.c ****     FLASH->ACR |= FLASH_ACR_ICEN;
 140              		.loc 1 210 0
 141 007c 4FF47053 		mov	r3, #15360
 142 0080 C4F20203 		movt	r3, 16386
 143 0084 4FF47052 		mov	r2, #15360
 144 0088 C4F20202 		movt	r2, 16386
 145 008c 1268     		ldr	r2, [r2, #0]
 146 008e 42F40072 		orr	r2, r2, #512
 147 0092 1A60     		str	r2, [r3, #0]
 148 0094 0BE0     		b	.L5
 149              	.L6:
 211:../STM32F4xx_StdPeriph_Driver/src/stm32f4xx_flash.c ****   }
 212:../STM32F4xx_StdPeriph_Driver/src/stm32f4xx_flash.c ****   else
 213:../STM32F4xx_StdPeriph_Driver/src/stm32f4xx_flash.c ****   {
 214:../STM32F4xx_StdPeriph_Driver/src/stm32f4xx_flash.c ****     FLASH->ACR &= (~FLASH_ACR_ICEN);
 150              		.loc 1 214 0
 151 0096 4FF47053 		mov	r3, #15360
 152 009a C4F20203 		movt	r3, 16386
 153 009e 4FF47052 		mov	r2, #15360
 154 00a2 C4F20202 		movt	r2, 16386
 155 00a6 1268     		ldr	r2, [r2, #0]
 156 00a8 22F40072 		bic	r2, r2, #512
 157 00ac 1A60     		str	r2, [r3, #0]
 158              	.L5:
 215:../STM32F4xx_StdPeriph_Driver/src/stm32f4xx_flash.c ****   }
 216:../STM32F4xx_StdPeriph_Driver/src/stm32f4xx_flash.c **** }
 159              		.loc 1 216 0
 160 00ae 07F10C07 		add	r7, r7, #12
 161 00b2 BD46     		mov	sp, r7
 162 00b4 80BC     		pop	{r7}
 163 00b6 7047     		bx	lr
 164              		.cfi_endproc
 165              	.LFE112:
 167              		.align	2
 168              		.global	FLASH_DataCacheCmd
 169              		.thumb
 170              		.thumb_func
 172              	FLASH_DataCacheCmd:
 173              	.LFB113:
 217:../STM32F4xx_StdPeriph_Driver/src/stm32f4xx_flash.c **** 
 218:../STM32F4xx_StdPeriph_Driver/src/stm32f4xx_flash.c **** /**
 219:../STM32F4xx_StdPeriph_Driver/src/stm32f4xx_flash.c ****   * @brief  Enables or disables the Data Cache feature.
 220:../STM32F4xx_StdPeriph_Driver/src/stm32f4xx_flash.c ****   * @param  NewState: new state of the Data Cache.
 221:../STM32F4xx_StdPeriph_Driver/src/stm32f4xx_flash.c ****   *          This parameter  can be: ENABLE or DISABLE.
 222:../STM32F4xx_StdPeriph_Driver/src/stm32f4xx_flash.c ****   * @retval None
 223:../STM32F4xx_StdPeriph_Driver/src/stm32f4xx_flash.c ****   */
 224:../STM32F4xx_StdPeriph_Driver/src/stm32f4xx_flash.c **** void FLASH_DataCacheCmd(FunctionalState NewState)
 225:../STM32F4xx_StdPeriph_Driver/src/stm32f4xx_flash.c **** {
 174              		.loc 1 225 0
 175              		.cfi_startproc
 176              		@ args = 0, pretend = 0, frame = 8
 177              		@ frame_needed = 1, uses_anonymous_args = 0
 178              		@ link register save eliminated.
 179 00b8 80B4     		push	{r7}
 180              	.LCFI9:
 181              		.cfi_def_cfa_offset 4
 182              		.cfi_offset 7, -4
 183 00ba 83B0     		sub	sp, sp, #12
 184              	.LCFI10:
 185              		.cfi_def_cfa_offset 16
 186 00bc 00AF     		add	r7, sp, #0
 187              	.LCFI11:
 188              		.cfi_def_cfa_register 7
 189 00be 0346     		mov	r3, r0
 190 00c0 FB71     		strb	r3, [r7, #7]
 226:../STM32F4xx_StdPeriph_Driver/src/stm32f4xx_flash.c ****   /* Check the parameters */
 227:../STM32F4xx_StdPeriph_Driver/src/stm32f4xx_flash.c ****   assert_param(IS_FUNCTIONAL_STATE(NewState));
 228:../STM32F4xx_StdPeriph_Driver/src/stm32f4xx_flash.c ****   
 229:../STM32F4xx_StdPeriph_Driver/src/stm32f4xx_flash.c ****   if(NewState != DISABLE)
 191              		.loc 1 229 0
 192 00c2 FB79     		ldrb	r3, [r7, #7]	@ zero_extendqisi2
 193 00c4 002B     		cmp	r3, #0
 194 00c6 0CD0     		beq	.L9
 230:../STM32F4xx_StdPeriph_Driver/src/stm32f4xx_flash.c ****   {
 231:../STM32F4xx_StdPeriph_Driver/src/stm32f4xx_flash.c ****     FLASH->ACR |= FLASH_ACR_DCEN;
 195              		.loc 1 231 0
 196 00c8 4FF47053 		mov	r3, #15360
 197 00cc C4F20203 		movt	r3, 16386
 198 00d0 4FF47052 		mov	r2, #15360
 199 00d4 C4F20202 		movt	r2, 16386
 200 00d8 1268     		ldr	r2, [r2, #0]
 201 00da 42F48062 		orr	r2, r2, #1024
 202 00de 1A60     		str	r2, [r3, #0]
 203 00e0 0BE0     		b	.L8
 204              	.L9:
 232:../STM32F4xx_StdPeriph_Driver/src/stm32f4xx_flash.c ****   }
 233:../STM32F4xx_StdPeriph_Driver/src/stm32f4xx_flash.c ****   else
 234:../STM32F4xx_StdPeriph_Driver/src/stm32f4xx_flash.c ****   {
 235:../STM32F4xx_StdPeriph_Driver/src/stm32f4xx_flash.c ****     FLASH->ACR &= (~FLASH_ACR_DCEN);
 205              		.loc 1 235 0
 206 00e2 4FF47053 		mov	r3, #15360
 207 00e6 C4F20203 		movt	r3, 16386
 208 00ea 4FF47052 		mov	r2, #15360
 209 00ee C4F20202 		movt	r2, 16386
 210 00f2 1268     		ldr	r2, [r2, #0]
 211 00f4 22F48062 		bic	r2, r2, #1024
 212 00f8 1A60     		str	r2, [r3, #0]
 213              	.L8:
 236:../STM32F4xx_StdPeriph_Driver/src/stm32f4xx_flash.c ****   }
 237:../STM32F4xx_StdPeriph_Driver/src/stm32f4xx_flash.c **** }
 214              		.loc 1 237 0
 215 00fa 07F10C07 		add	r7, r7, #12
 216 00fe BD46     		mov	sp, r7
 217 0100 80BC     		pop	{r7}
 218 0102 7047     		bx	lr
 219              		.cfi_endproc
 220              	.LFE113:
 222              		.align	2
 223              		.global	FLASH_InstructionCacheReset
 224              		.thumb
 225              		.thumb_func
 227              	FLASH_InstructionCacheReset:
 228              	.LFB114:
 238:../STM32F4xx_StdPeriph_Driver/src/stm32f4xx_flash.c **** 
 239:../STM32F4xx_StdPeriph_Driver/src/stm32f4xx_flash.c **** /**
 240:../STM32F4xx_StdPeriph_Driver/src/stm32f4xx_flash.c ****   * @brief  Resets the Instruction Cache.
 241:../STM32F4xx_StdPeriph_Driver/src/stm32f4xx_flash.c ****   * @note   This function must be used only when the Instruction Cache is disabled.  
 242:../STM32F4xx_StdPeriph_Driver/src/stm32f4xx_flash.c ****   * @param  None
 243:../STM32F4xx_StdPeriph_Driver/src/stm32f4xx_flash.c ****   * @retval None
 244:../STM32F4xx_StdPeriph_Driver/src/stm32f4xx_flash.c ****   */
 245:../STM32F4xx_StdPeriph_Driver/src/stm32f4xx_flash.c **** void FLASH_InstructionCacheReset(void)
 246:../STM32F4xx_StdPeriph_Driver/src/stm32f4xx_flash.c **** {
 229              		.loc 1 246 0
 230              		.cfi_startproc
 231              		@ args = 0, pretend = 0, frame = 0
 232              		@ frame_needed = 1, uses_anonymous_args = 0
 233              		@ link register save eliminated.
 234 0104 80B4     		push	{r7}
 235              	.LCFI12:
 236              		.cfi_def_cfa_offset 4
 237              		.cfi_offset 7, -4
 238 0106 00AF     		add	r7, sp, #0
 239              	.LCFI13:
 240              		.cfi_def_cfa_register 7
 247:../STM32F4xx_StdPeriph_Driver/src/stm32f4xx_flash.c ****   FLASH->ACR |= FLASH_ACR_ICRST;
 241              		.loc 1 247 0
 242 0108 4FF47053 		mov	r3, #15360
 243 010c C4F20203 		movt	r3, 16386
 244 0110 4FF47052 		mov	r2, #15360
 245 0114 C4F20202 		movt	r2, 16386
 246 0118 1268     		ldr	r2, [r2, #0]
 247 011a 42F40062 		orr	r2, r2, #2048
 248 011e 1A60     		str	r2, [r3, #0]
 248:../STM32F4xx_StdPeriph_Driver/src/stm32f4xx_flash.c **** }
 249              		.loc 1 248 0
 250 0120 BD46     		mov	sp, r7
 251 0122 80BC     		pop	{r7}
 252 0124 7047     		bx	lr
 253              		.cfi_endproc
 254              	.LFE114:
 256 0126 00BF     		.align	2
 257              		.global	FLASH_DataCacheReset
 258              		.thumb
 259              		.thumb_func
 261              	FLASH_DataCacheReset:
 262              	.LFB115:
 249:../STM32F4xx_StdPeriph_Driver/src/stm32f4xx_flash.c **** 
 250:../STM32F4xx_StdPeriph_Driver/src/stm32f4xx_flash.c **** /**
 251:../STM32F4xx_StdPeriph_Driver/src/stm32f4xx_flash.c ****   * @brief  Resets the Data Cache.
 252:../STM32F4xx_StdPeriph_Driver/src/stm32f4xx_flash.c ****   * @note   This function must be used only when the Data Cache is disabled.  
 253:../STM32F4xx_StdPeriph_Driver/src/stm32f4xx_flash.c ****   * @param  None
 254:../STM32F4xx_StdPeriph_Driver/src/stm32f4xx_flash.c ****   * @retval None
 255:../STM32F4xx_StdPeriph_Driver/src/stm32f4xx_flash.c ****   */
 256:../STM32F4xx_StdPeriph_Driver/src/stm32f4xx_flash.c **** void FLASH_DataCacheReset(void)
 257:../STM32F4xx_StdPeriph_Driver/src/stm32f4xx_flash.c **** {
 263              		.loc 1 257 0
 264              		.cfi_startproc
 265              		@ args = 0, pretend = 0, frame = 0
 266              		@ frame_needed = 1, uses_anonymous_args = 0
 267              		@ link register save eliminated.
 268 0128 80B4     		push	{r7}
 269              	.LCFI14:
 270              		.cfi_def_cfa_offset 4
 271              		.cfi_offset 7, -4
 272 012a 00AF     		add	r7, sp, #0
 273              	.LCFI15:
 274              		.cfi_def_cfa_register 7
 258:../STM32F4xx_StdPeriph_Driver/src/stm32f4xx_flash.c ****   FLASH->ACR |= FLASH_ACR_DCRST;
 275              		.loc 1 258 0
 276 012c 4FF47053 		mov	r3, #15360
 277 0130 C4F20203 		movt	r3, 16386
 278 0134 4FF47052 		mov	r2, #15360
 279 0138 C4F20202 		movt	r2, 16386
 280 013c 1268     		ldr	r2, [r2, #0]
 281 013e 42F48052 		orr	r2, r2, #4096
 282 0142 1A60     		str	r2, [r3, #0]
 259:../STM32F4xx_StdPeriph_Driver/src/stm32f4xx_flash.c **** }
 283              		.loc 1 259 0
 284 0144 BD46     		mov	sp, r7
 285 0146 80BC     		pop	{r7}
 286 0148 7047     		bx	lr
 287              		.cfi_endproc
 288              	.LFE115:
 290 014a 00BF     		.align	2
 291              		.global	FLASH_Unlock
 292              		.thumb
 293              		.thumb_func
 295              	FLASH_Unlock:
 296              	.LFB116:
 260:../STM32F4xx_StdPeriph_Driver/src/stm32f4xx_flash.c **** 
 261:../STM32F4xx_StdPeriph_Driver/src/stm32f4xx_flash.c **** /**
 262:../STM32F4xx_StdPeriph_Driver/src/stm32f4xx_flash.c ****   * @}
 263:../STM32F4xx_StdPeriph_Driver/src/stm32f4xx_flash.c ****   */
 264:../STM32F4xx_StdPeriph_Driver/src/stm32f4xx_flash.c **** 
 265:../STM32F4xx_StdPeriph_Driver/src/stm32f4xx_flash.c **** /** @defgroup FLASH_Group2 FLASH Memory Programming functions
 266:../STM32F4xx_StdPeriph_Driver/src/stm32f4xx_flash.c ****  *  @brief   FLASH Memory Programming functions
 267:../STM32F4xx_StdPeriph_Driver/src/stm32f4xx_flash.c ****  *
 268:../STM32F4xx_StdPeriph_Driver/src/stm32f4xx_flash.c **** @verbatim   
 269:../STM32F4xx_StdPeriph_Driver/src/stm32f4xx_flash.c ****  ===============================================================================
 270:../STM32F4xx_StdPeriph_Driver/src/stm32f4xx_flash.c ****                       FLASH Memory Programming functions
 271:../STM32F4xx_StdPeriph_Driver/src/stm32f4xx_flash.c ****  ===============================================================================   
 272:../STM32F4xx_StdPeriph_Driver/src/stm32f4xx_flash.c **** 
 273:../STM32F4xx_StdPeriph_Driver/src/stm32f4xx_flash.c ****    This group includes the following functions:
 274:../STM32F4xx_StdPeriph_Driver/src/stm32f4xx_flash.c ****     - void FLASH_Unlock(void)
 275:../STM32F4xx_StdPeriph_Driver/src/stm32f4xx_flash.c ****     - void FLASH_Lock(void)
 276:../STM32F4xx_StdPeriph_Driver/src/stm32f4xx_flash.c ****     - FLASH_Status FLASH_EraseSector(uint32_t FLASH_Sector, uint8_t VoltageRange)
 277:../STM32F4xx_StdPeriph_Driver/src/stm32f4xx_flash.c ****     - FLASH_Status FLASH_EraseAllSectors(uint8_t VoltageRange)
 278:../STM32F4xx_StdPeriph_Driver/src/stm32f4xx_flash.c ****     - FLASH_Status FLASH_ProgramDoubleWord(uint32_t Address, uint64_t Data)
 279:../STM32F4xx_StdPeriph_Driver/src/stm32f4xx_flash.c ****     - FLASH_Status FLASH_ProgramWord(uint32_t Address, uint32_t Data)
 280:../STM32F4xx_StdPeriph_Driver/src/stm32f4xx_flash.c ****     - FLASH_Status FLASH_ProgramHalfWord(uint32_t Address, uint16_t Data)
 281:../STM32F4xx_StdPeriph_Driver/src/stm32f4xx_flash.c ****     - FLASH_Status FLASH_ProgramByte(uint32_t Address, uint8_t Data)
 282:../STM32F4xx_StdPeriph_Driver/src/stm32f4xx_flash.c ****    
 283:../STM32F4xx_StdPeriph_Driver/src/stm32f4xx_flash.c ****    Any operation of erase or program should follow these steps:
 284:../STM32F4xx_StdPeriph_Driver/src/stm32f4xx_flash.c ****    1. Call the FLASH_Unlock() function to enable the FLASH control register access
 285:../STM32F4xx_StdPeriph_Driver/src/stm32f4xx_flash.c **** 
 286:../STM32F4xx_StdPeriph_Driver/src/stm32f4xx_flash.c ****    2. Call the desired function to erase sector(s) or program data
 287:../STM32F4xx_StdPeriph_Driver/src/stm32f4xx_flash.c **** 
 288:../STM32F4xx_StdPeriph_Driver/src/stm32f4xx_flash.c ****    3. Call the FLASH_Lock() function to disable the FLASH control register access
 289:../STM32F4xx_StdPeriph_Driver/src/stm32f4xx_flash.c ****       (recommended to protect the FLASH memory against possible unwanted operation)
 290:../STM32F4xx_StdPeriph_Driver/src/stm32f4xx_flash.c ****     
 291:../STM32F4xx_StdPeriph_Driver/src/stm32f4xx_flash.c **** @endverbatim
 292:../STM32F4xx_StdPeriph_Driver/src/stm32f4xx_flash.c ****   * @{
 293:../STM32F4xx_StdPeriph_Driver/src/stm32f4xx_flash.c ****   */
 294:../STM32F4xx_StdPeriph_Driver/src/stm32f4xx_flash.c **** 
 295:../STM32F4xx_StdPeriph_Driver/src/stm32f4xx_flash.c **** /**
 296:../STM32F4xx_StdPeriph_Driver/src/stm32f4xx_flash.c ****   * @brief  Unlocks the FLASH control register access
 297:../STM32F4xx_StdPeriph_Driver/src/stm32f4xx_flash.c ****   * @param  None
 298:../STM32F4xx_StdPeriph_Driver/src/stm32f4xx_flash.c ****   * @retval None
 299:../STM32F4xx_StdPeriph_Driver/src/stm32f4xx_flash.c ****   */
 300:../STM32F4xx_StdPeriph_Driver/src/stm32f4xx_flash.c **** void FLASH_Unlock(void)
 301:../STM32F4xx_StdPeriph_Driver/src/stm32f4xx_flash.c **** {
 297              		.loc 1 301 0
 298              		.cfi_startproc
 299              		@ args = 0, pretend = 0, frame = 0
 300              		@ frame_needed = 1, uses_anonymous_args = 0
 301              		@ link register save eliminated.
 302 014c 80B4     		push	{r7}
 303              	.LCFI16:
 304              		.cfi_def_cfa_offset 4
 305              		.cfi_offset 7, -4
 306 014e 00AF     		add	r7, sp, #0
 307              	.LCFI17:
 308              		.cfi_def_cfa_register 7
 302:../STM32F4xx_StdPeriph_Driver/src/stm32f4xx_flash.c ****   if((FLASH->CR & FLASH_CR_LOCK) != RESET)
 309              		.loc 1 302 0
 310 0150 4FF47053 		mov	r3, #15360
 311 0154 C4F20203 		movt	r3, 16386
 312 0158 1B69     		ldr	r3, [r3, #16]
 313 015a 002B     		cmp	r3, #0
 314 015c 11DA     		bge	.L13
 303:../STM32F4xx_StdPeriph_Driver/src/stm32f4xx_flash.c ****   {
 304:../STM32F4xx_StdPeriph_Driver/src/stm32f4xx_flash.c ****     /* Authorize the FLASH Registers access */
 305:../STM32F4xx_StdPeriph_Driver/src/stm32f4xx_flash.c ****     FLASH->KEYR = FLASH_KEY1;
 315              		.loc 1 305 0
 316 015e 4FF47053 		mov	r3, #15360
 317 0162 C4F20203 		movt	r3, 16386
 318 0166 40F22312 		movw	r2, #291
 319 016a C4F26752 		movt	r2, 17767
 320 016e 5A60     		str	r2, [r3, #4]
 306:../STM32F4xx_StdPeriph_Driver/src/stm32f4xx_flash.c ****     FLASH->KEYR = FLASH_KEY2;
 321              		.loc 1 306 0
 322 0170 4FF47053 		mov	r3, #15360
 323 0174 C4F20203 		movt	r3, 16386
 324 0178 48F6AB12 		movw	r2, #35243
 325 017c CCF6EF52 		movt	r2, 52719
 326 0180 5A60     		str	r2, [r3, #4]
 327              	.L13:
 307:../STM32F4xx_StdPeriph_Driver/src/stm32f4xx_flash.c ****   }  
 308:../STM32F4xx_StdPeriph_Driver/src/stm32f4xx_flash.c **** }
 328              		.loc 1 308 0
 329 0182 BD46     		mov	sp, r7
 330 0184 80BC     		pop	{r7}
 331 0186 7047     		bx	lr
 332              		.cfi_endproc
 333              	.LFE116:
 335              		.align	2
 336              		.global	FLASH_Lock
 337              		.thumb
 338              		.thumb_func
 340              	FLASH_Lock:
 341              	.LFB117:
 309:../STM32F4xx_StdPeriph_Driver/src/stm32f4xx_flash.c **** 
 310:../STM32F4xx_StdPeriph_Driver/src/stm32f4xx_flash.c **** /**
 311:../STM32F4xx_StdPeriph_Driver/src/stm32f4xx_flash.c ****   * @brief  Locks the FLASH control register access
 312:../STM32F4xx_StdPeriph_Driver/src/stm32f4xx_flash.c ****   * @param  None
 313:../STM32F4xx_StdPeriph_Driver/src/stm32f4xx_flash.c ****   * @retval None
 314:../STM32F4xx_StdPeriph_Driver/src/stm32f4xx_flash.c ****   */
 315:../STM32F4xx_StdPeriph_Driver/src/stm32f4xx_flash.c **** void FLASH_Lock(void)
 316:../STM32F4xx_StdPeriph_Driver/src/stm32f4xx_flash.c **** {
 342              		.loc 1 316 0
 343              		.cfi_startproc
 344              		@ args = 0, pretend = 0, frame = 0
 345              		@ frame_needed = 1, uses_anonymous_args = 0
 346              		@ link register save eliminated.
 347 0188 80B4     		push	{r7}
 348              	.LCFI18:
 349              		.cfi_def_cfa_offset 4
 350              		.cfi_offset 7, -4
 351 018a 00AF     		add	r7, sp, #0
 352              	.LCFI19:
 353              		.cfi_def_cfa_register 7
 317:../STM32F4xx_StdPeriph_Driver/src/stm32f4xx_flash.c ****   /* Set the LOCK Bit to lock the FLASH Registers access */
 318:../STM32F4xx_StdPeriph_Driver/src/stm32f4xx_flash.c ****   FLASH->CR |= FLASH_CR_LOCK;
 354              		.loc 1 318 0
 355 018c 4FF47053 		mov	r3, #15360
 356 0190 C4F20203 		movt	r3, 16386
 357 0194 4FF47052 		mov	r2, #15360
 358 0198 C4F20202 		movt	r2, 16386
 359 019c 1269     		ldr	r2, [r2, #16]
 360 019e 42F00042 		orr	r2, r2, #-2147483648
 361 01a2 1A61     		str	r2, [r3, #16]
 319:../STM32F4xx_StdPeriph_Driver/src/stm32f4xx_flash.c **** }
 362              		.loc 1 319 0
 363 01a4 BD46     		mov	sp, r7
 364 01a6 80BC     		pop	{r7}
 365 01a8 7047     		bx	lr
 366              		.cfi_endproc
 367              	.LFE117:
 369 01aa 00BF     		.align	2
 370              		.global	FLASH_EraseSector
 371              		.thumb
 372              		.thumb_func
 374              	FLASH_EraseSector:
 375              	.LFB118:
 320:../STM32F4xx_StdPeriph_Driver/src/stm32f4xx_flash.c **** 
 321:../STM32F4xx_StdPeriph_Driver/src/stm32f4xx_flash.c **** /**
 322:../STM32F4xx_StdPeriph_Driver/src/stm32f4xx_flash.c ****   * @brief  Erases a specified FLASH Sector.
 323:../STM32F4xx_StdPeriph_Driver/src/stm32f4xx_flash.c ****   *   
 324:../STM32F4xx_StdPeriph_Driver/src/stm32f4xx_flash.c ****   * @param  FLASH_Sector: The Sector number to be erased.
 325:../STM32F4xx_StdPeriph_Driver/src/stm32f4xx_flash.c ****   *          This parameter can be a value between FLASH_Sector_0 and FLASH_Sector_11
 326:../STM32F4xx_StdPeriph_Driver/src/stm32f4xx_flash.c ****   *    
 327:../STM32F4xx_StdPeriph_Driver/src/stm32f4xx_flash.c ****   * @param  VoltageRange: The device voltage range which defines the erase parallelism.  
 328:../STM32F4xx_StdPeriph_Driver/src/stm32f4xx_flash.c ****   *          This parameter can be one of the following values:
 329:../STM32F4xx_StdPeriph_Driver/src/stm32f4xx_flash.c ****   *            @arg VoltageRange_1: when the device voltage range is 1.8V to 2.1V, 
 330:../STM32F4xx_StdPeriph_Driver/src/stm32f4xx_flash.c ****   *                                  the operation will be done by byte (8-bit) 
 331:../STM32F4xx_StdPeriph_Driver/src/stm32f4xx_flash.c ****   *            @arg VoltageRange_2: when the device voltage range is 2.1V to 2.7V,
 332:../STM32F4xx_StdPeriph_Driver/src/stm32f4xx_flash.c ****   *                                  the operation will be done by half word (16-bit)
 333:../STM32F4xx_StdPeriph_Driver/src/stm32f4xx_flash.c ****   *            @arg VoltageRange_3: when the device voltage range is 2.7V to 3.6V,
 334:../STM32F4xx_StdPeriph_Driver/src/stm32f4xx_flash.c ****   *                                  the operation will be done by word (32-bit)
 335:../STM32F4xx_StdPeriph_Driver/src/stm32f4xx_flash.c ****   *            @arg VoltageRange_4: when the device voltage range is 2.7V to 3.6V + External Vpp, 
 336:../STM32F4xx_StdPeriph_Driver/src/stm32f4xx_flash.c ****   *                                  the operation will be done by double word (64-bit)
 337:../STM32F4xx_StdPeriph_Driver/src/stm32f4xx_flash.c ****   *       
 338:../STM32F4xx_StdPeriph_Driver/src/stm32f4xx_flash.c ****   * @retval FLASH Status: The returned value can be: FLASH_BUSY, FLASH_ERROR_PROGRAM,
 339:../STM32F4xx_StdPeriph_Driver/src/stm32f4xx_flash.c ****   *                       FLASH_ERROR_WRP, FLASH_ERROR_OPERATION or FLASH_COMPLETE.
 340:../STM32F4xx_StdPeriph_Driver/src/stm32f4xx_flash.c ****   */
 341:../STM32F4xx_StdPeriph_Driver/src/stm32f4xx_flash.c **** FLASH_Status FLASH_EraseSector(uint32_t FLASH_Sector, uint8_t VoltageRange)
 342:../STM32F4xx_StdPeriph_Driver/src/stm32f4xx_flash.c **** {
 376              		.loc 1 342 0
 377              		.cfi_startproc
 378              		@ args = 0, pretend = 0, frame = 16
 379              		@ frame_needed = 1, uses_anonymous_args = 0
 380 01ac 80B5     		push	{r7, lr}
 381              	.LCFI20:
 382              		.cfi_def_cfa_offset 8
 383              		.cfi_offset 14, -4
 384              		.cfi_offset 7, -8
 385 01ae 84B0     		sub	sp, sp, #16
 386              	.LCFI21:
 387              		.cfi_def_cfa_offset 24
 388 01b0 00AF     		add	r7, sp, #0
 389              	.LCFI22:
 390              		.cfi_def_cfa_register 7
 391 01b2 7860     		str	r0, [r7, #4]
 392 01b4 0B46     		mov	r3, r1
 393 01b6 FB70     		strb	r3, [r7, #3]
 343:../STM32F4xx_StdPeriph_Driver/src/stm32f4xx_flash.c ****   uint32_t tmp_psize = 0x0;
 394              		.loc 1 343 0
 395 01b8 4FF00003 		mov	r3, #0
 396 01bc FB60     		str	r3, [r7, #12]
 344:../STM32F4xx_StdPeriph_Driver/src/stm32f4xx_flash.c ****   FLASH_Status status = FLASH_COMPLETE;
 397              		.loc 1 344 0
 398 01be 4FF00803 		mov	r3, #8
 399 01c2 FB72     		strb	r3, [r7, #11]
 345:../STM32F4xx_StdPeriph_Driver/src/stm32f4xx_flash.c **** 
 346:../STM32F4xx_StdPeriph_Driver/src/stm32f4xx_flash.c ****   /* Check the parameters */
 347:../STM32F4xx_StdPeriph_Driver/src/stm32f4xx_flash.c ****   assert_param(IS_FLASH_SECTOR(FLASH_Sector));
 348:../STM32F4xx_StdPeriph_Driver/src/stm32f4xx_flash.c ****   assert_param(IS_VOLTAGERANGE(VoltageRange));
 349:../STM32F4xx_StdPeriph_Driver/src/stm32f4xx_flash.c ****   
 350:../STM32F4xx_StdPeriph_Driver/src/stm32f4xx_flash.c ****   if(VoltageRange == VoltageRange_1)
 400              		.loc 1 350 0
 401 01c4 FB78     		ldrb	r3, [r7, #3]	@ zero_extendqisi2
 402 01c6 002B     		cmp	r3, #0
 403 01c8 03D1     		bne	.L17
 351:../STM32F4xx_StdPeriph_Driver/src/stm32f4xx_flash.c ****   {
 352:../STM32F4xx_StdPeriph_Driver/src/stm32f4xx_flash.c ****      tmp_psize = FLASH_PSIZE_BYTE;
 404              		.loc 1 352 0
 405 01ca 4FF00003 		mov	r3, #0
 406 01ce FB60     		str	r3, [r7, #12]
 407 01d0 10E0     		b	.L18
 408              	.L17:
 353:../STM32F4xx_StdPeriph_Driver/src/stm32f4xx_flash.c ****   }
 354:../STM32F4xx_StdPeriph_Driver/src/stm32f4xx_flash.c ****   else if(VoltageRange == VoltageRange_2)
 409              		.loc 1 354 0
 410 01d2 FB78     		ldrb	r3, [r7, #3]	@ zero_extendqisi2
 411 01d4 012B     		cmp	r3, #1
 412 01d6 03D1     		bne	.L19
 355:../STM32F4xx_StdPeriph_Driver/src/stm32f4xx_flash.c ****   {
 356:../STM32F4xx_StdPeriph_Driver/src/stm32f4xx_flash.c ****     tmp_psize = FLASH_PSIZE_HALF_WORD;
 413              		.loc 1 356 0
 414 01d8 4FF48073 		mov	r3, #256
 415 01dc FB60     		str	r3, [r7, #12]
 416 01de 09E0     		b	.L18
 417              	.L19:
 357:../STM32F4xx_StdPeriph_Driver/src/stm32f4xx_flash.c ****   }
 358:../STM32F4xx_StdPeriph_Driver/src/stm32f4xx_flash.c ****   else if(VoltageRange == VoltageRange_3)
 418              		.loc 1 358 0
 419 01e0 FB78     		ldrb	r3, [r7, #3]	@ zero_extendqisi2
 420 01e2 022B     		cmp	r3, #2
 421 01e4 03D1     		bne	.L20
 359:../STM32F4xx_StdPeriph_Driver/src/stm32f4xx_flash.c ****   {
 360:../STM32F4xx_StdPeriph_Driver/src/stm32f4xx_flash.c ****     tmp_psize = FLASH_PSIZE_WORD;
 422              		.loc 1 360 0
 423 01e6 4FF40073 		mov	r3, #512
 424 01ea FB60     		str	r3, [r7, #12]
 425 01ec 02E0     		b	.L18
 426              	.L20:
 361:../STM32F4xx_StdPeriph_Driver/src/stm32f4xx_flash.c ****   }
 362:../STM32F4xx_StdPeriph_Driver/src/stm32f4xx_flash.c ****   else
 363:../STM32F4xx_StdPeriph_Driver/src/stm32f4xx_flash.c ****   {
 364:../STM32F4xx_StdPeriph_Driver/src/stm32f4xx_flash.c ****     tmp_psize = FLASH_PSIZE_DOUBLE_WORD;
 427              		.loc 1 364 0
 428 01ee 4FF44073 		mov	r3, #768
 429 01f2 FB60     		str	r3, [r7, #12]
 430              	.L18:
 365:../STM32F4xx_StdPeriph_Driver/src/stm32f4xx_flash.c ****   }
 366:../STM32F4xx_StdPeriph_Driver/src/stm32f4xx_flash.c ****   /* Wait for last operation to be completed */
 367:../STM32F4xx_StdPeriph_Driver/src/stm32f4xx_flash.c ****   status = FLASH_WaitForLastOperation();
 431              		.loc 1 367 0
 432 01f4 FFF7FEFF 		bl	FLASH_WaitForLastOperation
 433 01f8 0346     		mov	r3, r0
 434 01fa FB72     		strb	r3, [r7, #11]
 368:../STM32F4xx_StdPeriph_Driver/src/stm32f4xx_flash.c ****   
 369:../STM32F4xx_StdPeriph_Driver/src/stm32f4xx_flash.c ****   if(status == FLASH_COMPLETE)
 435              		.loc 1 369 0
 436 01fc FB7A     		ldrb	r3, [r7, #11]	@ zero_extendqisi2
 437 01fe 082B     		cmp	r3, #8
 438 0200 5BD1     		bne	.L21
 370:../STM32F4xx_StdPeriph_Driver/src/stm32f4xx_flash.c ****   { 
 371:../STM32F4xx_StdPeriph_Driver/src/stm32f4xx_flash.c ****     /* if the previous operation is completed, proceed to erase the sector */
 372:../STM32F4xx_StdPeriph_Driver/src/stm32f4xx_flash.c ****     FLASH->CR &= CR_PSIZE_MASK;
 439              		.loc 1 372 0
 440 0202 4FF47053 		mov	r3, #15360
 441 0206 C4F20203 		movt	r3, 16386
 442 020a 4FF47052 		mov	r2, #15360
 443 020e C4F20202 		movt	r2, 16386
 444 0212 1269     		ldr	r2, [r2, #16]
 445 0214 22F44072 		bic	r2, r2, #768
 446 0218 1A61     		str	r2, [r3, #16]
 373:../STM32F4xx_StdPeriph_Driver/src/stm32f4xx_flash.c ****     FLASH->CR |= tmp_psize;
 447              		.loc 1 373 0
 448 021a 4FF47053 		mov	r3, #15360
 449 021e C4F20203 		movt	r3, 16386
 450 0222 4FF47052 		mov	r2, #15360
 451 0226 C4F20202 		movt	r2, 16386
 452 022a 1269     		ldr	r2, [r2, #16]
 453 022c 1146     		mov	r1, r2
 454 022e FA68     		ldr	r2, [r7, #12]
 455 0230 0A43     		orrs	r2, r2, r1
 456 0232 1A61     		str	r2, [r3, #16]
 374:../STM32F4xx_StdPeriph_Driver/src/stm32f4xx_flash.c ****     FLASH->CR &= SECTOR_MASK;
 457              		.loc 1 374 0
 458 0234 4FF47053 		mov	r3, #15360
 459 0238 C4F20203 		movt	r3, 16386
 460 023c 4FF47052 		mov	r2, #15360
 461 0240 C4F20202 		movt	r2, 16386
 462 0244 1269     		ldr	r2, [r2, #16]
 463 0246 22F0F802 		bic	r2, r2, #248
 464 024a 1A61     		str	r2, [r3, #16]
 375:../STM32F4xx_StdPeriph_Driver/src/stm32f4xx_flash.c ****     FLASH->CR |= FLASH_CR_SER | FLASH_Sector;
 465              		.loc 1 375 0
 466 024c 4FF47053 		mov	r3, #15360
 467 0250 C4F20203 		movt	r3, 16386
 468 0254 4FF47052 		mov	r2, #15360
 469 0258 C4F20202 		movt	r2, 16386
 470 025c 1269     		ldr	r2, [r2, #16]
 471 025e 1146     		mov	r1, r2
 472 0260 7A68     		ldr	r2, [r7, #4]
 473 0262 0A43     		orrs	r2, r2, r1
 474 0264 42F00202 		orr	r2, r2, #2
 475 0268 1A61     		str	r2, [r3, #16]
 376:../STM32F4xx_StdPeriph_Driver/src/stm32f4xx_flash.c ****     FLASH->CR |= FLASH_CR_STRT;
 476              		.loc 1 376 0
 477 026a 4FF47053 		mov	r3, #15360
 478 026e C4F20203 		movt	r3, 16386
 479 0272 4FF47052 		mov	r2, #15360
 480 0276 C4F20202 		movt	r2, 16386
 481 027a 1269     		ldr	r2, [r2, #16]
 482 027c 42F48032 		orr	r2, r2, #65536
 483 0280 1A61     		str	r2, [r3, #16]
 377:../STM32F4xx_StdPeriph_Driver/src/stm32f4xx_flash.c ****     
 378:../STM32F4xx_StdPeriph_Driver/src/stm32f4xx_flash.c ****     /* Wait for last operation to be completed */
 379:../STM32F4xx_StdPeriph_Driver/src/stm32f4xx_flash.c ****     status = FLASH_WaitForLastOperation();
 484              		.loc 1 379 0
 485 0282 FFF7FEFF 		bl	FLASH_WaitForLastOperation
 486 0286 0346     		mov	r3, r0
 487 0288 FB72     		strb	r3, [r7, #11]
 380:../STM32F4xx_StdPeriph_Driver/src/stm32f4xx_flash.c ****     
 381:../STM32F4xx_StdPeriph_Driver/src/stm32f4xx_flash.c ****     /* if the erase operation is completed, disable the SER Bit */
 382:../STM32F4xx_StdPeriph_Driver/src/stm32f4xx_flash.c ****     FLASH->CR &= (~FLASH_CR_SER);
 488              		.loc 1 382 0
 489 028a 4FF47053 		mov	r3, #15360
 490 028e C4F20203 		movt	r3, 16386
 491 0292 4FF47052 		mov	r2, #15360
 492 0296 C4F20202 		movt	r2, 16386
 493 029a 1269     		ldr	r2, [r2, #16]
 494 029c 22F00202 		bic	r2, r2, #2
 495 02a0 1A61     		str	r2, [r3, #16]
 383:../STM32F4xx_StdPeriph_Driver/src/stm32f4xx_flash.c ****     FLASH->CR &= SECTOR_MASK; 
 496              		.loc 1 383 0
 497 02a2 4FF47053 		mov	r3, #15360
 498 02a6 C4F20203 		movt	r3, 16386
 499 02aa 4FF47052 		mov	r2, #15360
 500 02ae C4F20202 		movt	r2, 16386
 501 02b2 1269     		ldr	r2, [r2, #16]
 502 02b4 22F0F802 		bic	r2, r2, #248
 503 02b8 1A61     		str	r2, [r3, #16]
 504              	.L21:
 384:../STM32F4xx_StdPeriph_Driver/src/stm32f4xx_flash.c ****   }
 385:../STM32F4xx_StdPeriph_Driver/src/stm32f4xx_flash.c ****   /* Return the Erase Status */
 386:../STM32F4xx_StdPeriph_Driver/src/stm32f4xx_flash.c ****   return status;
 505              		.loc 1 386 0
 506 02ba FB7A     		ldrb	r3, [r7, #11]	@ zero_extendqisi2
 387:../STM32F4xx_StdPeriph_Driver/src/stm32f4xx_flash.c **** }
 507              		.loc 1 387 0
 508 02bc 1846     		mov	r0, r3
 509 02be 07F11007 		add	r7, r7, #16
 510 02c2 BD46     		mov	sp, r7
 511 02c4 80BD     		pop	{r7, pc}
 512              		.cfi_endproc
 513              	.LFE118:
 515 02c6 00BF     		.align	2
 516              		.global	FLASH_EraseAllSectors
 517              		.thumb
 518              		.thumb_func
 520              	FLASH_EraseAllSectors:
 521              	.LFB119:
 388:../STM32F4xx_StdPeriph_Driver/src/stm32f4xx_flash.c **** 
 389:../STM32F4xx_StdPeriph_Driver/src/stm32f4xx_flash.c **** /**
 390:../STM32F4xx_StdPeriph_Driver/src/stm32f4xx_flash.c ****   * @brief  Erases all FLASH Sectors.
 391:../STM32F4xx_StdPeriph_Driver/src/stm32f4xx_flash.c ****   *    
 392:../STM32F4xx_StdPeriph_Driver/src/stm32f4xx_flash.c ****   * @param  VoltageRange: The device voltage range which defines the erase parallelism.  
 393:../STM32F4xx_StdPeriph_Driver/src/stm32f4xx_flash.c ****   *          This parameter can be one of the following values:
 394:../STM32F4xx_StdPeriph_Driver/src/stm32f4xx_flash.c ****   *            @arg VoltageRange_1: when the device voltage range is 1.8V to 2.1V, 
 395:../STM32F4xx_StdPeriph_Driver/src/stm32f4xx_flash.c ****   *                                  the operation will be done by byte (8-bit) 
 396:../STM32F4xx_StdPeriph_Driver/src/stm32f4xx_flash.c ****   *            @arg VoltageRange_2: when the device voltage range is 2.1V to 2.7V,
 397:../STM32F4xx_StdPeriph_Driver/src/stm32f4xx_flash.c ****   *                                  the operation will be done by half word (16-bit)
 398:../STM32F4xx_StdPeriph_Driver/src/stm32f4xx_flash.c ****   *            @arg VoltageRange_3: when the device voltage range is 2.7V to 3.6V,
 399:../STM32F4xx_StdPeriph_Driver/src/stm32f4xx_flash.c ****   *                                  the operation will be done by word (32-bit)
 400:../STM32F4xx_StdPeriph_Driver/src/stm32f4xx_flash.c ****   *            @arg VoltageRange_4: when the device voltage range is 2.7V to 3.6V + External Vpp, 
 401:../STM32F4xx_StdPeriph_Driver/src/stm32f4xx_flash.c ****   *                                  the operation will be done by double word (64-bit)
 402:../STM32F4xx_StdPeriph_Driver/src/stm32f4xx_flash.c ****   *       
 403:../STM32F4xx_StdPeriph_Driver/src/stm32f4xx_flash.c ****   * @retval FLASH Status: The returned value can be: FLASH_BUSY, FLASH_ERROR_PROGRAM,
 404:../STM32F4xx_StdPeriph_Driver/src/stm32f4xx_flash.c ****   *                       FLASH_ERROR_WRP, FLASH_ERROR_OPERATION or FLASH_COMPLETE.
 405:../STM32F4xx_StdPeriph_Driver/src/stm32f4xx_flash.c ****   */
 406:../STM32F4xx_StdPeriph_Driver/src/stm32f4xx_flash.c **** FLASH_Status FLASH_EraseAllSectors(uint8_t VoltageRange)
 407:../STM32F4xx_StdPeriph_Driver/src/stm32f4xx_flash.c **** {
 522              		.loc 1 407 0
 523              		.cfi_startproc
 524              		@ args = 0, pretend = 0, frame = 16
 525              		@ frame_needed = 1, uses_anonymous_args = 0
 526 02c8 80B5     		push	{r7, lr}
 527              	.LCFI23:
 528              		.cfi_def_cfa_offset 8
 529              		.cfi_offset 14, -4
 530              		.cfi_offset 7, -8
 531 02ca 84B0     		sub	sp, sp, #16
 532              	.LCFI24:
 533              		.cfi_def_cfa_offset 24
 534 02cc 00AF     		add	r7, sp, #0
 535              	.LCFI25:
 536              		.cfi_def_cfa_register 7
 537 02ce 0346     		mov	r3, r0
 538 02d0 FB71     		strb	r3, [r7, #7]
 408:../STM32F4xx_StdPeriph_Driver/src/stm32f4xx_flash.c ****   uint32_t tmp_psize = 0x0;
 539              		.loc 1 408 0
 540 02d2 4FF00003 		mov	r3, #0
 541 02d6 FB60     		str	r3, [r7, #12]
 409:../STM32F4xx_StdPeriph_Driver/src/stm32f4xx_flash.c ****   FLASH_Status status = FLASH_COMPLETE;
 542              		.loc 1 409 0
 543 02d8 4FF00803 		mov	r3, #8
 544 02dc FB72     		strb	r3, [r7, #11]
 410:../STM32F4xx_StdPeriph_Driver/src/stm32f4xx_flash.c ****   
 411:../STM32F4xx_StdPeriph_Driver/src/stm32f4xx_flash.c ****   /* Wait for last operation to be completed */
 412:../STM32F4xx_StdPeriph_Driver/src/stm32f4xx_flash.c ****   status = FLASH_WaitForLastOperation();
 545              		.loc 1 412 0
 546 02de FFF7FEFF 		bl	FLASH_WaitForLastOperation
 547 02e2 0346     		mov	r3, r0
 548 02e4 FB72     		strb	r3, [r7, #11]
 413:../STM32F4xx_StdPeriph_Driver/src/stm32f4xx_flash.c ****   assert_param(IS_VOLTAGERANGE(VoltageRange));
 414:../STM32F4xx_StdPeriph_Driver/src/stm32f4xx_flash.c ****   
 415:../STM32F4xx_StdPeriph_Driver/src/stm32f4xx_flash.c ****   if(VoltageRange == VoltageRange_1)
 549              		.loc 1 415 0
 550 02e6 FB79     		ldrb	r3, [r7, #7]	@ zero_extendqisi2
 551 02e8 002B     		cmp	r3, #0
 552 02ea 03D1     		bne	.L23
 416:../STM32F4xx_StdPeriph_Driver/src/stm32f4xx_flash.c ****   {
 417:../STM32F4xx_StdPeriph_Driver/src/stm32f4xx_flash.c ****      tmp_psize = FLASH_PSIZE_BYTE;
 553              		.loc 1 417 0
 554 02ec 4FF00003 		mov	r3, #0
 555 02f0 FB60     		str	r3, [r7, #12]
 556 02f2 10E0     		b	.L24
 557              	.L23:
 418:../STM32F4xx_StdPeriph_Driver/src/stm32f4xx_flash.c ****   }
 419:../STM32F4xx_StdPeriph_Driver/src/stm32f4xx_flash.c ****   else if(VoltageRange == VoltageRange_2)
 558              		.loc 1 419 0
 559 02f4 FB79     		ldrb	r3, [r7, #7]	@ zero_extendqisi2
 560 02f6 012B     		cmp	r3, #1
 561 02f8 03D1     		bne	.L25
 420:../STM32F4xx_StdPeriph_Driver/src/stm32f4xx_flash.c ****   {
 421:../STM32F4xx_StdPeriph_Driver/src/stm32f4xx_flash.c ****     tmp_psize = FLASH_PSIZE_HALF_WORD;
 562              		.loc 1 421 0
 563 02fa 4FF48073 		mov	r3, #256
 564 02fe FB60     		str	r3, [r7, #12]
 565 0300 09E0     		b	.L24
 566              	.L25:
 422:../STM32F4xx_StdPeriph_Driver/src/stm32f4xx_flash.c ****   }
 423:../STM32F4xx_StdPeriph_Driver/src/stm32f4xx_flash.c ****   else if(VoltageRange == VoltageRange_3)
 567              		.loc 1 423 0
 568 0302 FB79     		ldrb	r3, [r7, #7]	@ zero_extendqisi2
 569 0304 022B     		cmp	r3, #2
 570 0306 03D1     		bne	.L26
 424:../STM32F4xx_StdPeriph_Driver/src/stm32f4xx_flash.c ****   {
 425:../STM32F4xx_StdPeriph_Driver/src/stm32f4xx_flash.c ****     tmp_psize = FLASH_PSIZE_WORD;
 571              		.loc 1 425 0
 572 0308 4FF40073 		mov	r3, #512
 573 030c FB60     		str	r3, [r7, #12]
 574 030e 02E0     		b	.L24
 575              	.L26:
 426:../STM32F4xx_StdPeriph_Driver/src/stm32f4xx_flash.c ****   }
 427:../STM32F4xx_StdPeriph_Driver/src/stm32f4xx_flash.c ****   else
 428:../STM32F4xx_StdPeriph_Driver/src/stm32f4xx_flash.c ****   {
 429:../STM32F4xx_StdPeriph_Driver/src/stm32f4xx_flash.c ****     tmp_psize = FLASH_PSIZE_DOUBLE_WORD;
 576              		.loc 1 429 0
 577 0310 4FF44073 		mov	r3, #768
 578 0314 FB60     		str	r3, [r7, #12]
 579              	.L24:
 430:../STM32F4xx_StdPeriph_Driver/src/stm32f4xx_flash.c ****   }  
 431:../STM32F4xx_StdPeriph_Driver/src/stm32f4xx_flash.c ****   if(status == FLASH_COMPLETE)
 580              		.loc 1 431 0
 581 0316 FB7A     		ldrb	r3, [r7, #11]	@ zero_extendqisi2
 582 0318 082B     		cmp	r3, #8
 583 031a 40D1     		bne	.L27
 432:../STM32F4xx_StdPeriph_Driver/src/stm32f4xx_flash.c ****   {
 433:../STM32F4xx_StdPeriph_Driver/src/stm32f4xx_flash.c ****     /* if the previous operation is completed, proceed to erase all sectors */
 434:../STM32F4xx_StdPeriph_Driver/src/stm32f4xx_flash.c ****      FLASH->CR &= CR_PSIZE_MASK;
 584              		.loc 1 434 0
 585 031c 4FF47053 		mov	r3, #15360
 586 0320 C4F20203 		movt	r3, 16386
 587 0324 4FF47052 		mov	r2, #15360
 588 0328 C4F20202 		movt	r2, 16386
 589 032c 1269     		ldr	r2, [r2, #16]
 590 032e 22F44072 		bic	r2, r2, #768
 591 0332 1A61     		str	r2, [r3, #16]
 435:../STM32F4xx_StdPeriph_Driver/src/stm32f4xx_flash.c ****      FLASH->CR |= tmp_psize;
 592              		.loc 1 435 0
 593 0334 4FF47053 		mov	r3, #15360
 594 0338 C4F20203 		movt	r3, 16386
 595 033c 4FF47052 		mov	r2, #15360
 596 0340 C4F20202 		movt	r2, 16386
 597 0344 1269     		ldr	r2, [r2, #16]
 598 0346 1146     		mov	r1, r2
 599 0348 FA68     		ldr	r2, [r7, #12]
 600 034a 0A43     		orrs	r2, r2, r1
 601 034c 1A61     		str	r2, [r3, #16]
 436:../STM32F4xx_StdPeriph_Driver/src/stm32f4xx_flash.c ****      FLASH->CR |= FLASH_CR_MER;
 602              		.loc 1 436 0
 603 034e 4FF47053 		mov	r3, #15360
 604 0352 C4F20203 		movt	r3, 16386
 605 0356 4FF47052 		mov	r2, #15360
 606 035a C4F20202 		movt	r2, 16386
 607 035e 1269     		ldr	r2, [r2, #16]
 608 0360 42F00402 		orr	r2, r2, #4
 609 0364 1A61     		str	r2, [r3, #16]
 437:../STM32F4xx_StdPeriph_Driver/src/stm32f4xx_flash.c ****      FLASH->CR |= FLASH_CR_STRT;
 610              		.loc 1 437 0
 611 0366 4FF47053 		mov	r3, #15360
 612 036a C4F20203 		movt	r3, 16386
 613 036e 4FF47052 		mov	r2, #15360
 614 0372 C4F20202 		movt	r2, 16386
 615 0376 1269     		ldr	r2, [r2, #16]
 616 0378 42F48032 		orr	r2, r2, #65536
 617 037c 1A61     		str	r2, [r3, #16]
 438:../STM32F4xx_StdPeriph_Driver/src/stm32f4xx_flash.c ****     
 439:../STM32F4xx_StdPeriph_Driver/src/stm32f4xx_flash.c ****     /* Wait for last operation to be completed */
 440:../STM32F4xx_StdPeriph_Driver/src/stm32f4xx_flash.c ****     status = FLASH_WaitForLastOperation();
 618              		.loc 1 440 0
 619 037e FFF7FEFF 		bl	FLASH_WaitForLastOperation
 620 0382 0346     		mov	r3, r0
 621 0384 FB72     		strb	r3, [r7, #11]
 441:../STM32F4xx_StdPeriph_Driver/src/stm32f4xx_flash.c **** 
 442:../STM32F4xx_StdPeriph_Driver/src/stm32f4xx_flash.c ****     /* if the erase operation is completed, disable the MER Bit */
 443:../STM32F4xx_StdPeriph_Driver/src/stm32f4xx_flash.c ****     FLASH->CR &= (~FLASH_CR_MER);
 622              		.loc 1 443 0
 623 0386 4FF47053 		mov	r3, #15360
 624 038a C4F20203 		movt	r3, 16386
 625 038e 4FF47052 		mov	r2, #15360
 626 0392 C4F20202 		movt	r2, 16386
 627 0396 1269     		ldr	r2, [r2, #16]
 628 0398 22F00402 		bic	r2, r2, #4
 629 039c 1A61     		str	r2, [r3, #16]
 630              	.L27:
 444:../STM32F4xx_StdPeriph_Driver/src/stm32f4xx_flash.c **** 
 445:../STM32F4xx_StdPeriph_Driver/src/stm32f4xx_flash.c ****   }   
 446:../STM32F4xx_StdPeriph_Driver/src/stm32f4xx_flash.c ****   /* Return the Erase Status */
 447:../STM32F4xx_StdPeriph_Driver/src/stm32f4xx_flash.c ****   return status;
 631              		.loc 1 447 0
 632 039e FB7A     		ldrb	r3, [r7, #11]	@ zero_extendqisi2
 448:../STM32F4xx_StdPeriph_Driver/src/stm32f4xx_flash.c **** }
 633              		.loc 1 448 0
 634 03a0 1846     		mov	r0, r3
 635 03a2 07F11007 		add	r7, r7, #16
 636 03a6 BD46     		mov	sp, r7
 637 03a8 80BD     		pop	{r7, pc}
 638              		.cfi_endproc
 639              	.LFE119:
 641 03aa 00BF     		.align	2
 642              		.global	FLASH_ProgramDoubleWord
 643              		.thumb
 644              		.thumb_func
 646              	FLASH_ProgramDoubleWord:
 647              	.LFB120:
 449:../STM32F4xx_StdPeriph_Driver/src/stm32f4xx_flash.c **** 
 450:../STM32F4xx_StdPeriph_Driver/src/stm32f4xx_flash.c **** /**
 451:../STM32F4xx_StdPeriph_Driver/src/stm32f4xx_flash.c ****   * @brief  Programs a double word (64-bit) at a specified address.
 452:../STM32F4xx_StdPeriph_Driver/src/stm32f4xx_flash.c ****   * @note   This function must be used when the device voltage range is from
 453:../STM32F4xx_StdPeriph_Driver/src/stm32f4xx_flash.c ****   *         2.7V to 3.6V and an External Vpp is present.           
 454:../STM32F4xx_StdPeriph_Driver/src/stm32f4xx_flash.c ****   * @param  Address: specifies the address to be programmed.
 455:../STM32F4xx_StdPeriph_Driver/src/stm32f4xx_flash.c ****   * @param  Data: specifies the data to be programmed.
 456:../STM32F4xx_StdPeriph_Driver/src/stm32f4xx_flash.c ****   * @retval FLASH Status: The returned value can be: FLASH_BUSY, FLASH_ERROR_PROGRAM,
 457:../STM32F4xx_StdPeriph_Driver/src/stm32f4xx_flash.c ****   *                       FLASH_ERROR_WRP, FLASH_ERROR_OPERATION or FLASH_COMPLETE.
 458:../STM32F4xx_StdPeriph_Driver/src/stm32f4xx_flash.c ****   */
 459:../STM32F4xx_StdPeriph_Driver/src/stm32f4xx_flash.c **** FLASH_Status FLASH_ProgramDoubleWord(uint32_t Address, uint64_t Data)
 460:../STM32F4xx_StdPeriph_Driver/src/stm32f4xx_flash.c **** {
 648              		.loc 1 460 0
 649              		.cfi_startproc
 650              		@ args = 0, pretend = 0, frame = 24
 651              		@ frame_needed = 1, uses_anonymous_args = 0
 652 03ac 80B5     		push	{r7, lr}
 653              	.LCFI26:
 654              		.cfi_def_cfa_offset 8
 655              		.cfi_offset 14, -4
 656              		.cfi_offset 7, -8
 657 03ae 86B0     		sub	sp, sp, #24
 658              	.LCFI27:
 659              		.cfi_def_cfa_offset 32
 660 03b0 00AF     		add	r7, sp, #0
 661              	.LCFI28:
 662              		.cfi_def_cfa_register 7
 663 03b2 F860     		str	r0, [r7, #12]
 664 03b4 C7E90023 		strd	r2, [r7]
 461:../STM32F4xx_StdPeriph_Driver/src/stm32f4xx_flash.c ****   FLASH_Status status = FLASH_COMPLETE;
 665              		.loc 1 461 0
 666 03b8 4FF00803 		mov	r3, #8
 667 03bc FB75     		strb	r3, [r7, #23]
 462:../STM32F4xx_StdPeriph_Driver/src/stm32f4xx_flash.c **** 
 463:../STM32F4xx_StdPeriph_Driver/src/stm32f4xx_flash.c ****   /* Check the parameters */
 464:../STM32F4xx_StdPeriph_Driver/src/stm32f4xx_flash.c ****   assert_param(IS_FLASH_ADDRESS(Address));
 465:../STM32F4xx_StdPeriph_Driver/src/stm32f4xx_flash.c **** 
 466:../STM32F4xx_StdPeriph_Driver/src/stm32f4xx_flash.c ****   /* Wait for last operation to be completed */
 467:../STM32F4xx_StdPeriph_Driver/src/stm32f4xx_flash.c ****   status = FLASH_WaitForLastOperation();
 668              		.loc 1 467 0
 669 03be FFF7FEFF 		bl	FLASH_WaitForLastOperation
 670 03c2 0346     		mov	r3, r0
 671 03c4 FB75     		strb	r3, [r7, #23]
 468:../STM32F4xx_StdPeriph_Driver/src/stm32f4xx_flash.c ****   
 469:../STM32F4xx_StdPeriph_Driver/src/stm32f4xx_flash.c ****   if(status == FLASH_COMPLETE)
 672              		.loc 1 469 0
 673 03c6 FB7D     		ldrb	r3, [r7, #23]	@ zero_extendqisi2
 674 03c8 082B     		cmp	r3, #8
 675 03ca 38D1     		bne	.L29
 470:../STM32F4xx_StdPeriph_Driver/src/stm32f4xx_flash.c ****   {
 471:../STM32F4xx_StdPeriph_Driver/src/stm32f4xx_flash.c ****     /* if the previous operation is completed, proceed to program the new data */
 472:../STM32F4xx_StdPeriph_Driver/src/stm32f4xx_flash.c ****     FLASH->CR &= CR_PSIZE_MASK;
 676              		.loc 1 472 0
 677 03cc 4FF47053 		mov	r3, #15360
 678 03d0 C4F20203 		movt	r3, 16386
 679 03d4 4FF47052 		mov	r2, #15360
 680 03d8 C4F20202 		movt	r2, 16386
 681 03dc 1269     		ldr	r2, [r2, #16]
 682 03de 22F44072 		bic	r2, r2, #768
 683 03e2 1A61     		str	r2, [r3, #16]
 473:../STM32F4xx_StdPeriph_Driver/src/stm32f4xx_flash.c ****     FLASH->CR |= FLASH_PSIZE_DOUBLE_WORD;
 684              		.loc 1 473 0
 685 03e4 4FF47053 		mov	r3, #15360
 686 03e8 C4F20203 		movt	r3, 16386
 687 03ec 4FF47052 		mov	r2, #15360
 688 03f0 C4F20202 		movt	r2, 16386
 689 03f4 1269     		ldr	r2, [r2, #16]
 690 03f6 42F44072 		orr	r2, r2, #768
 691 03fa 1A61     		str	r2, [r3, #16]
 474:../STM32F4xx_StdPeriph_Driver/src/stm32f4xx_flash.c ****     FLASH->CR |= FLASH_CR_PG;
 692              		.loc 1 474 0
 693 03fc 4FF47053 		mov	r3, #15360
 694 0400 C4F20203 		movt	r3, 16386
 695 0404 4FF47052 		mov	r2, #15360
 696 0408 C4F20202 		movt	r2, 16386
 697 040c 1269     		ldr	r2, [r2, #16]
 698 040e 42F00102 		orr	r2, r2, #1
 699 0412 1A61     		str	r2, [r3, #16]
 475:../STM32F4xx_StdPeriph_Driver/src/stm32f4xx_flash.c ****   
 476:../STM32F4xx_StdPeriph_Driver/src/stm32f4xx_flash.c ****     *(__IO uint64_t*)Address = Data;
 700              		.loc 1 476 0
 701 0414 F968     		ldr	r1, [r7, #12]
 702 0416 D7E90023 		ldrd	r2, [r7]
 703 041a C1E90023 		strd	r2, [r1]
 477:../STM32F4xx_StdPeriph_Driver/src/stm32f4xx_flash.c ****         
 478:../STM32F4xx_StdPeriph_Driver/src/stm32f4xx_flash.c ****     /* Wait for last operation to be completed */
 479:../STM32F4xx_StdPeriph_Driver/src/stm32f4xx_flash.c ****     status = FLASH_WaitForLastOperation();
 704              		.loc 1 479 0
 705 041e FFF7FEFF 		bl	FLASH_WaitForLastOperation
 706 0422 0346     		mov	r3, r0
 707 0424 FB75     		strb	r3, [r7, #23]
 480:../STM32F4xx_StdPeriph_Driver/src/stm32f4xx_flash.c **** 
 481:../STM32F4xx_StdPeriph_Driver/src/stm32f4xx_flash.c ****     /* if the program operation is completed, disable the PG Bit */
 482:../STM32F4xx_StdPeriph_Driver/src/stm32f4xx_flash.c ****     FLASH->CR &= (~FLASH_CR_PG);
 708              		.loc 1 482 0
 709 0426 4FF47053 		mov	r3, #15360
 710 042a C4F20203 		movt	r3, 16386
 711 042e 4FF47052 		mov	r2, #15360
 712 0432 C4F20202 		movt	r2, 16386
 713 0436 1269     		ldr	r2, [r2, #16]
 714 0438 22F00102 		bic	r2, r2, #1
 715 043c 1A61     		str	r2, [r3, #16]
 716              	.L29:
 483:../STM32F4xx_StdPeriph_Driver/src/stm32f4xx_flash.c ****   } 
 484:../STM32F4xx_StdPeriph_Driver/src/stm32f4xx_flash.c ****   /* Return the Program Status */
 485:../STM32F4xx_StdPeriph_Driver/src/stm32f4xx_flash.c ****   return status;
 717              		.loc 1 485 0
 718 043e FB7D     		ldrb	r3, [r7, #23]	@ zero_extendqisi2
 486:../STM32F4xx_StdPeriph_Driver/src/stm32f4xx_flash.c **** }
 719              		.loc 1 486 0
 720 0440 1846     		mov	r0, r3
 721 0442 07F11807 		add	r7, r7, #24
 722 0446 BD46     		mov	sp, r7
 723 0448 80BD     		pop	{r7, pc}
 724              		.cfi_endproc
 725              	.LFE120:
 727 044a 00BF     		.align	2
 728              		.global	FLASH_ProgramWord
 729              		.thumb
 730              		.thumb_func
 732              	FLASH_ProgramWord:
 733              	.LFB121:
 487:../STM32F4xx_StdPeriph_Driver/src/stm32f4xx_flash.c **** 
 488:../STM32F4xx_StdPeriph_Driver/src/stm32f4xx_flash.c **** /**
 489:../STM32F4xx_StdPeriph_Driver/src/stm32f4xx_flash.c ****   * @brief  Programs a word (32-bit) at a specified address.
 490:../STM32F4xx_StdPeriph_Driver/src/stm32f4xx_flash.c ****   * @param  Address: specifies the address to be programmed.
 491:../STM32F4xx_StdPeriph_Driver/src/stm32f4xx_flash.c ****   *         This parameter can be any address in Program memory zone or in OTP zone.  
 492:../STM32F4xx_StdPeriph_Driver/src/stm32f4xx_flash.c ****   * @note   This function must be used when the device voltage range is from 2.7V to 3.6V. 
 493:../STM32F4xx_StdPeriph_Driver/src/stm32f4xx_flash.c ****   * @param  Data: specifies the data to be programmed.
 494:../STM32F4xx_StdPeriph_Driver/src/stm32f4xx_flash.c ****   * @retval FLASH Status: The returned value can be: FLASH_BUSY, FLASH_ERROR_PROGRAM,
 495:../STM32F4xx_StdPeriph_Driver/src/stm32f4xx_flash.c ****   *                       FLASH_ERROR_WRP, FLASH_ERROR_OPERATION or FLASH_COMPLETE.
 496:../STM32F4xx_StdPeriph_Driver/src/stm32f4xx_flash.c ****   */
 497:../STM32F4xx_StdPeriph_Driver/src/stm32f4xx_flash.c **** FLASH_Status FLASH_ProgramWord(uint32_t Address, uint32_t Data)
 498:../STM32F4xx_StdPeriph_Driver/src/stm32f4xx_flash.c **** {
 734              		.loc 1 498 0
 735              		.cfi_startproc
 736              		@ args = 0, pretend = 0, frame = 16
 737              		@ frame_needed = 1, uses_anonymous_args = 0
 738 044c 80B5     		push	{r7, lr}
 739              	.LCFI29:
 740              		.cfi_def_cfa_offset 8
 741              		.cfi_offset 14, -4
 742              		.cfi_offset 7, -8
 743 044e 84B0     		sub	sp, sp, #16
 744              	.LCFI30:
 745              		.cfi_def_cfa_offset 24
 746 0450 00AF     		add	r7, sp, #0
 747              	.LCFI31:
 748              		.cfi_def_cfa_register 7
 749 0452 7860     		str	r0, [r7, #4]
 750 0454 3960     		str	r1, [r7, #0]
 499:../STM32F4xx_StdPeriph_Driver/src/stm32f4xx_flash.c ****   FLASH_Status status = FLASH_COMPLETE;
 751              		.loc 1 499 0
 752 0456 4FF00803 		mov	r3, #8
 753 045a FB73     		strb	r3, [r7, #15]
 500:../STM32F4xx_StdPeriph_Driver/src/stm32f4xx_flash.c **** 
 501:../STM32F4xx_StdPeriph_Driver/src/stm32f4xx_flash.c ****   /* Check the parameters */
 502:../STM32F4xx_StdPeriph_Driver/src/stm32f4xx_flash.c ****   assert_param(IS_FLASH_ADDRESS(Address));
 503:../STM32F4xx_StdPeriph_Driver/src/stm32f4xx_flash.c **** 
 504:../STM32F4xx_StdPeriph_Driver/src/stm32f4xx_flash.c ****   /* Wait for last operation to be completed */
 505:../STM32F4xx_StdPeriph_Driver/src/stm32f4xx_flash.c ****   status = FLASH_WaitForLastOperation();
 754              		.loc 1 505 0
 755 045c FFF7FEFF 		bl	FLASH_WaitForLastOperation
 756 0460 0346     		mov	r3, r0
 757 0462 FB73     		strb	r3, [r7, #15]
 506:../STM32F4xx_StdPeriph_Driver/src/stm32f4xx_flash.c ****   
 507:../STM32F4xx_StdPeriph_Driver/src/stm32f4xx_flash.c ****   if(status == FLASH_COMPLETE)
 758              		.loc 1 507 0
 759 0464 FB7B     		ldrb	r3, [r7, #15]	@ zero_extendqisi2
 760 0466 082B     		cmp	r3, #8
 761 0468 36D1     		bne	.L31
 508:../STM32F4xx_StdPeriph_Driver/src/stm32f4xx_flash.c ****   {
 509:../STM32F4xx_StdPeriph_Driver/src/stm32f4xx_flash.c ****     /* if the previous operation is completed, proceed to program the new data */
 510:../STM32F4xx_StdPeriph_Driver/src/stm32f4xx_flash.c ****     FLASH->CR &= CR_PSIZE_MASK;
 762              		.loc 1 510 0
 763 046a 4FF47053 		mov	r3, #15360
 764 046e C4F20203 		movt	r3, 16386
 765 0472 4FF47052 		mov	r2, #15360
 766 0476 C4F20202 		movt	r2, 16386
 767 047a 1269     		ldr	r2, [r2, #16]
 768 047c 22F44072 		bic	r2, r2, #768
 769 0480 1A61     		str	r2, [r3, #16]
 511:../STM32F4xx_StdPeriph_Driver/src/stm32f4xx_flash.c ****     FLASH->CR |= FLASH_PSIZE_WORD;
 770              		.loc 1 511 0
 771 0482 4FF47053 		mov	r3, #15360
 772 0486 C4F20203 		movt	r3, 16386
 773 048a 4FF47052 		mov	r2, #15360
 774 048e C4F20202 		movt	r2, 16386
 775 0492 1269     		ldr	r2, [r2, #16]
 776 0494 42F40072 		orr	r2, r2, #512
 777 0498 1A61     		str	r2, [r3, #16]
 512:../STM32F4xx_StdPeriph_Driver/src/stm32f4xx_flash.c ****     FLASH->CR |= FLASH_CR_PG;
 778              		.loc 1 512 0
 779 049a 4FF47053 		mov	r3, #15360
 780 049e C4F20203 		movt	r3, 16386
 781 04a2 4FF47052 		mov	r2, #15360
 782 04a6 C4F20202 		movt	r2, 16386
 783 04aa 1269     		ldr	r2, [r2, #16]
 784 04ac 42F00102 		orr	r2, r2, #1
 785 04b0 1A61     		str	r2, [r3, #16]
 513:../STM32F4xx_StdPeriph_Driver/src/stm32f4xx_flash.c ****   
 514:../STM32F4xx_StdPeriph_Driver/src/stm32f4xx_flash.c ****     *(__IO uint32_t*)Address = Data;
 786              		.loc 1 514 0
 787 04b2 7B68     		ldr	r3, [r7, #4]
 788 04b4 3A68     		ldr	r2, [r7, #0]
 789 04b6 1A60     		str	r2, [r3, #0]
 515:../STM32F4xx_StdPeriph_Driver/src/stm32f4xx_flash.c ****         
 516:../STM32F4xx_StdPeriph_Driver/src/stm32f4xx_flash.c ****     /* Wait for last operation to be completed */
 517:../STM32F4xx_StdPeriph_Driver/src/stm32f4xx_flash.c ****     status = FLASH_WaitForLastOperation();
 790              		.loc 1 517 0
 791 04b8 FFF7FEFF 		bl	FLASH_WaitForLastOperation
 792 04bc 0346     		mov	r3, r0
 793 04be FB73     		strb	r3, [r7, #15]
 518:../STM32F4xx_StdPeriph_Driver/src/stm32f4xx_flash.c **** 
 519:../STM32F4xx_StdPeriph_Driver/src/stm32f4xx_flash.c ****     /* if the program operation is completed, disable the PG Bit */
 520:../STM32F4xx_StdPeriph_Driver/src/stm32f4xx_flash.c ****     FLASH->CR &= (~FLASH_CR_PG);
 794              		.loc 1 520 0
 795 04c0 4FF47053 		mov	r3, #15360
 796 04c4 C4F20203 		movt	r3, 16386
 797 04c8 4FF47052 		mov	r2, #15360
 798 04cc C4F20202 		movt	r2, 16386
 799 04d0 1269     		ldr	r2, [r2, #16]
 800 04d2 22F00102 		bic	r2, r2, #1
 801 04d6 1A61     		str	r2, [r3, #16]
 802              	.L31:
 521:../STM32F4xx_StdPeriph_Driver/src/stm32f4xx_flash.c ****   } 
 522:../STM32F4xx_StdPeriph_Driver/src/stm32f4xx_flash.c ****   /* Return the Program Status */
 523:../STM32F4xx_StdPeriph_Driver/src/stm32f4xx_flash.c ****   return status;
 803              		.loc 1 523 0
 804 04d8 FB7B     		ldrb	r3, [r7, #15]	@ zero_extendqisi2
 524:../STM32F4xx_StdPeriph_Driver/src/stm32f4xx_flash.c **** }
 805              		.loc 1 524 0
 806 04da 1846     		mov	r0, r3
 807 04dc 07F11007 		add	r7, r7, #16
 808 04e0 BD46     		mov	sp, r7
 809 04e2 80BD     		pop	{r7, pc}
 810              		.cfi_endproc
 811              	.LFE121:
 813              		.align	2
 814              		.global	FLASH_ProgramHalfWord
 815              		.thumb
 816              		.thumb_func
 818              	FLASH_ProgramHalfWord:
 819              	.LFB122:
 525:../STM32F4xx_StdPeriph_Driver/src/stm32f4xx_flash.c **** 
 526:../STM32F4xx_StdPeriph_Driver/src/stm32f4xx_flash.c **** /**
 527:../STM32F4xx_StdPeriph_Driver/src/stm32f4xx_flash.c ****   * @brief  Programs a half word (16-bit) at a specified address. 
 528:../STM32F4xx_StdPeriph_Driver/src/stm32f4xx_flash.c ****   * @note   This function must be used when the device voltage range is from 2.1V to 3.6V.         
 529:../STM32F4xx_StdPeriph_Driver/src/stm32f4xx_flash.c ****   * @param  Address: specifies the address to be programmed.
 530:../STM32F4xx_StdPeriph_Driver/src/stm32f4xx_flash.c ****   *         This parameter can be any address in Program memory zone or in OTP zone.  
 531:../STM32F4xx_StdPeriph_Driver/src/stm32f4xx_flash.c ****   * @param  Data: specifies the data to be programmed.
 532:../STM32F4xx_StdPeriph_Driver/src/stm32f4xx_flash.c ****   * @retval FLASH Status: The returned value can be: FLASH_BUSY, FLASH_ERROR_PROGRAM,
 533:../STM32F4xx_StdPeriph_Driver/src/stm32f4xx_flash.c ****   *                       FLASH_ERROR_WRP, FLASH_ERROR_OPERATION or FLASH_COMPLETE.
 534:../STM32F4xx_StdPeriph_Driver/src/stm32f4xx_flash.c ****   */
 535:../STM32F4xx_StdPeriph_Driver/src/stm32f4xx_flash.c **** FLASH_Status FLASH_ProgramHalfWord(uint32_t Address, uint16_t Data)
 536:../STM32F4xx_StdPeriph_Driver/src/stm32f4xx_flash.c **** {
 820              		.loc 1 536 0
 821              		.cfi_startproc
 822              		@ args = 0, pretend = 0, frame = 16
 823              		@ frame_needed = 1, uses_anonymous_args = 0
 824 04e4 80B5     		push	{r7, lr}
 825              	.LCFI32:
 826              		.cfi_def_cfa_offset 8
 827              		.cfi_offset 14, -4
 828              		.cfi_offset 7, -8
 829 04e6 84B0     		sub	sp, sp, #16
 830              	.LCFI33:
 831              		.cfi_def_cfa_offset 24
 832 04e8 00AF     		add	r7, sp, #0
 833              	.LCFI34:
 834              		.cfi_def_cfa_register 7
 835 04ea 7860     		str	r0, [r7, #4]
 836 04ec 0B46     		mov	r3, r1
 837 04ee 7B80     		strh	r3, [r7, #2]	@ movhi
 537:../STM32F4xx_StdPeriph_Driver/src/stm32f4xx_flash.c ****   FLASH_Status status = FLASH_COMPLETE;
 838              		.loc 1 537 0
 839 04f0 4FF00803 		mov	r3, #8
 840 04f4 FB73     		strb	r3, [r7, #15]
 538:../STM32F4xx_StdPeriph_Driver/src/stm32f4xx_flash.c **** 
 539:../STM32F4xx_StdPeriph_Driver/src/stm32f4xx_flash.c ****   /* Check the parameters */
 540:../STM32F4xx_StdPeriph_Driver/src/stm32f4xx_flash.c ****   assert_param(IS_FLASH_ADDRESS(Address));
 541:../STM32F4xx_StdPeriph_Driver/src/stm32f4xx_flash.c **** 
 542:../STM32F4xx_StdPeriph_Driver/src/stm32f4xx_flash.c ****   /* Wait for last operation to be completed */
 543:../STM32F4xx_StdPeriph_Driver/src/stm32f4xx_flash.c ****   status = FLASH_WaitForLastOperation();
 841              		.loc 1 543 0
 842 04f6 FFF7FEFF 		bl	FLASH_WaitForLastOperation
 843 04fa 0346     		mov	r3, r0
 844 04fc FB73     		strb	r3, [r7, #15]
 544:../STM32F4xx_StdPeriph_Driver/src/stm32f4xx_flash.c ****   
 545:../STM32F4xx_StdPeriph_Driver/src/stm32f4xx_flash.c ****   if(status == FLASH_COMPLETE)
 845              		.loc 1 545 0
 846 04fe FB7B     		ldrb	r3, [r7, #15]	@ zero_extendqisi2
 847 0500 082B     		cmp	r3, #8
 848 0502 36D1     		bne	.L33
 546:../STM32F4xx_StdPeriph_Driver/src/stm32f4xx_flash.c ****   {
 547:../STM32F4xx_StdPeriph_Driver/src/stm32f4xx_flash.c ****     /* if the previous operation is completed, proceed to program the new data */
 548:../STM32F4xx_StdPeriph_Driver/src/stm32f4xx_flash.c ****     FLASH->CR &= CR_PSIZE_MASK;
 849              		.loc 1 548 0
 850 0504 4FF47053 		mov	r3, #15360
 851 0508 C4F20203 		movt	r3, 16386
 852 050c 4FF47052 		mov	r2, #15360
 853 0510 C4F20202 		movt	r2, 16386
 854 0514 1269     		ldr	r2, [r2, #16]
 855 0516 22F44072 		bic	r2, r2, #768
 856 051a 1A61     		str	r2, [r3, #16]
 549:../STM32F4xx_StdPeriph_Driver/src/stm32f4xx_flash.c ****     FLASH->CR |= FLASH_PSIZE_HALF_WORD;
 857              		.loc 1 549 0
 858 051c 4FF47053 		mov	r3, #15360
 859 0520 C4F20203 		movt	r3, 16386
 860 0524 4FF47052 		mov	r2, #15360
 861 0528 C4F20202 		movt	r2, 16386
 862 052c 1269     		ldr	r2, [r2, #16]
 863 052e 42F48072 		orr	r2, r2, #256
 864 0532 1A61     		str	r2, [r3, #16]
 550:../STM32F4xx_StdPeriph_Driver/src/stm32f4xx_flash.c ****     FLASH->CR |= FLASH_CR_PG;
 865              		.loc 1 550 0
 866 0534 4FF47053 		mov	r3, #15360
 867 0538 C4F20203 		movt	r3, 16386
 868 053c 4FF47052 		mov	r2, #15360
 869 0540 C4F20202 		movt	r2, 16386
 870 0544 1269     		ldr	r2, [r2, #16]
 871 0546 42F00102 		orr	r2, r2, #1
 872 054a 1A61     		str	r2, [r3, #16]
 551:../STM32F4xx_StdPeriph_Driver/src/stm32f4xx_flash.c ****   
 552:../STM32F4xx_StdPeriph_Driver/src/stm32f4xx_flash.c ****     *(__IO uint16_t*)Address = Data;
 873              		.loc 1 552 0
 874 054c 7B68     		ldr	r3, [r7, #4]
 875 054e 7A88     		ldrh	r2, [r7, #2]	@ movhi
 876 0550 1A80     		strh	r2, [r3, #0]	@ movhi
 553:../STM32F4xx_StdPeriph_Driver/src/stm32f4xx_flash.c ****         
 554:../STM32F4xx_StdPeriph_Driver/src/stm32f4xx_flash.c ****     /* Wait for last operation to be completed */
 555:../STM32F4xx_StdPeriph_Driver/src/stm32f4xx_flash.c ****     status = FLASH_WaitForLastOperation();
 877              		.loc 1 555 0
 878 0552 FFF7FEFF 		bl	FLASH_WaitForLastOperation
 879 0556 0346     		mov	r3, r0
 880 0558 FB73     		strb	r3, [r7, #15]
 556:../STM32F4xx_StdPeriph_Driver/src/stm32f4xx_flash.c **** 
 557:../STM32F4xx_StdPeriph_Driver/src/stm32f4xx_flash.c ****     /* if the program operation is completed, disable the PG Bit */
 558:../STM32F4xx_StdPeriph_Driver/src/stm32f4xx_flash.c ****     FLASH->CR &= (~FLASH_CR_PG);
 881              		.loc 1 558 0
 882 055a 4FF47053 		mov	r3, #15360
 883 055e C4F20203 		movt	r3, 16386
 884 0562 4FF47052 		mov	r2, #15360
 885 0566 C4F20202 		movt	r2, 16386
 886 056a 1269     		ldr	r2, [r2, #16]
 887 056c 22F00102 		bic	r2, r2, #1
 888 0570 1A61     		str	r2, [r3, #16]
 889              	.L33:
 559:../STM32F4xx_StdPeriph_Driver/src/stm32f4xx_flash.c ****   } 
 560:../STM32F4xx_StdPeriph_Driver/src/stm32f4xx_flash.c ****   /* Return the Program Status */
 561:../STM32F4xx_StdPeriph_Driver/src/stm32f4xx_flash.c ****   return status;
 890              		.loc 1 561 0
 891 0572 FB7B     		ldrb	r3, [r7, #15]	@ zero_extendqisi2
 562:../STM32F4xx_StdPeriph_Driver/src/stm32f4xx_flash.c **** }
 892              		.loc 1 562 0
 893 0574 1846     		mov	r0, r3
 894 0576 07F11007 		add	r7, r7, #16
 895 057a BD46     		mov	sp, r7
 896 057c 80BD     		pop	{r7, pc}
 897              		.cfi_endproc
 898              	.LFE122:
 900 057e 00BF     		.align	2
 901              		.global	FLASH_ProgramByte
 902              		.thumb
 903              		.thumb_func
 905              	FLASH_ProgramByte:
 906              	.LFB123:
 563:../STM32F4xx_StdPeriph_Driver/src/stm32f4xx_flash.c **** 
 564:../STM32F4xx_StdPeriph_Driver/src/stm32f4xx_flash.c **** /**
 565:../STM32F4xx_StdPeriph_Driver/src/stm32f4xx_flash.c ****   * @brief  Programs a byte (8-bit) at a specified address.
 566:../STM32F4xx_StdPeriph_Driver/src/stm32f4xx_flash.c ****   * @note   This function can be used within all the device supply voltage ranges.               
 567:../STM32F4xx_StdPeriph_Driver/src/stm32f4xx_flash.c ****   * @param  Address: specifies the address to be programmed.
 568:../STM32F4xx_StdPeriph_Driver/src/stm32f4xx_flash.c ****   *         This parameter can be any address in Program memory zone or in OTP zone.  
 569:../STM32F4xx_StdPeriph_Driver/src/stm32f4xx_flash.c ****   * @param  Data: specifies the data to be programmed.
 570:../STM32F4xx_StdPeriph_Driver/src/stm32f4xx_flash.c ****   * @retval FLASH Status: The returned value can be: FLASH_BUSY, FLASH_ERROR_PROGRAM,
 571:../STM32F4xx_StdPeriph_Driver/src/stm32f4xx_flash.c ****   *                       FLASH_ERROR_WRP, FLASH_ERROR_OPERATION or FLASH_COMPLETE.
 572:../STM32F4xx_StdPeriph_Driver/src/stm32f4xx_flash.c ****   */
 573:../STM32F4xx_StdPeriph_Driver/src/stm32f4xx_flash.c **** FLASH_Status FLASH_ProgramByte(uint32_t Address, uint8_t Data)
 574:../STM32F4xx_StdPeriph_Driver/src/stm32f4xx_flash.c **** {
 907              		.loc 1 574 0
 908              		.cfi_startproc
 909              		@ args = 0, pretend = 0, frame = 16
 910              		@ frame_needed = 1, uses_anonymous_args = 0
 911 0580 80B5     		push	{r7, lr}
 912              	.LCFI35:
 913              		.cfi_def_cfa_offset 8
 914              		.cfi_offset 14, -4
 915              		.cfi_offset 7, -8
 916 0582 84B0     		sub	sp, sp, #16
 917              	.LCFI36:
 918              		.cfi_def_cfa_offset 24
 919 0584 00AF     		add	r7, sp, #0
 920              	.LCFI37:
 921              		.cfi_def_cfa_register 7
 922 0586 7860     		str	r0, [r7, #4]
 923 0588 0B46     		mov	r3, r1
 924 058a FB70     		strb	r3, [r7, #3]
 575:../STM32F4xx_StdPeriph_Driver/src/stm32f4xx_flash.c ****   FLASH_Status status = FLASH_COMPLETE;
 925              		.loc 1 575 0
 926 058c 4FF00803 		mov	r3, #8
 927 0590 FB73     		strb	r3, [r7, #15]
 576:../STM32F4xx_StdPeriph_Driver/src/stm32f4xx_flash.c **** 
 577:../STM32F4xx_StdPeriph_Driver/src/stm32f4xx_flash.c ****   /* Check the parameters */
 578:../STM32F4xx_StdPeriph_Driver/src/stm32f4xx_flash.c ****   assert_param(IS_FLASH_ADDRESS(Address));
 579:../STM32F4xx_StdPeriph_Driver/src/stm32f4xx_flash.c **** 
 580:../STM32F4xx_StdPeriph_Driver/src/stm32f4xx_flash.c ****   /* Wait for last operation to be completed */
 581:../STM32F4xx_StdPeriph_Driver/src/stm32f4xx_flash.c ****   status = FLASH_WaitForLastOperation();
 928              		.loc 1 581 0
 929 0592 FFF7FEFF 		bl	FLASH_WaitForLastOperation
 930 0596 0346     		mov	r3, r0
 931 0598 FB73     		strb	r3, [r7, #15]
 582:../STM32F4xx_StdPeriph_Driver/src/stm32f4xx_flash.c ****   
 583:../STM32F4xx_StdPeriph_Driver/src/stm32f4xx_flash.c ****   if(status == FLASH_COMPLETE)
 932              		.loc 1 583 0
 933 059a FB7B     		ldrb	r3, [r7, #15]	@ zero_extendqisi2
 934 059c 082B     		cmp	r3, #8
 935 059e 34D1     		bne	.L35
 584:../STM32F4xx_StdPeriph_Driver/src/stm32f4xx_flash.c ****   {
 585:../STM32F4xx_StdPeriph_Driver/src/stm32f4xx_flash.c ****     /* if the previous operation is completed, proceed to program the new data */
 586:../STM32F4xx_StdPeriph_Driver/src/stm32f4xx_flash.c ****     FLASH->CR &= CR_PSIZE_MASK;
 936              		.loc 1 586 0
 937 05a0 4FF47053 		mov	r3, #15360
 938 05a4 C4F20203 		movt	r3, 16386
 939 05a8 4FF47052 		mov	r2, #15360
 940 05ac C4F20202 		movt	r2, 16386
 941 05b0 1269     		ldr	r2, [r2, #16]
 942 05b2 22F44072 		bic	r2, r2, #768
 943 05b6 1A61     		str	r2, [r3, #16]
 587:../STM32F4xx_StdPeriph_Driver/src/stm32f4xx_flash.c ****     FLASH->CR |= FLASH_PSIZE_BYTE;
 944              		.loc 1 587 0
 945 05b8 4FF47053 		mov	r3, #15360
 946 05bc C4F20203 		movt	r3, 16386
 947 05c0 4FF47052 		mov	r2, #15360
 948 05c4 C4F20202 		movt	r2, 16386
 949 05c8 1269     		ldr	r2, [r2, #16]
 950 05ca 1A61     		str	r2, [r3, #16]
 588:../STM32F4xx_StdPeriph_Driver/src/stm32f4xx_flash.c ****     FLASH->CR |= FLASH_CR_PG;
 951              		.loc 1 588 0
 952 05cc 4FF47053 		mov	r3, #15360
 953 05d0 C4F20203 		movt	r3, 16386
 954 05d4 4FF47052 		mov	r2, #15360
 955 05d8 C4F20202 		movt	r2, 16386
 956 05dc 1269     		ldr	r2, [r2, #16]
 957 05de 42F00102 		orr	r2, r2, #1
 958 05e2 1A61     		str	r2, [r3, #16]
 589:../STM32F4xx_StdPeriph_Driver/src/stm32f4xx_flash.c ****   
 590:../STM32F4xx_StdPeriph_Driver/src/stm32f4xx_flash.c ****     *(__IO uint8_t*)Address = Data;
 959              		.loc 1 590 0
 960 05e4 7B68     		ldr	r3, [r7, #4]
 961 05e6 FA78     		ldrb	r2, [r7, #3]
 962 05e8 1A70     		strb	r2, [r3, #0]
 591:../STM32F4xx_StdPeriph_Driver/src/stm32f4xx_flash.c ****         
 592:../STM32F4xx_StdPeriph_Driver/src/stm32f4xx_flash.c ****     /* Wait for last operation to be completed */
 593:../STM32F4xx_StdPeriph_Driver/src/stm32f4xx_flash.c ****     status = FLASH_WaitForLastOperation();
 963              		.loc 1 593 0
 964 05ea FFF7FEFF 		bl	FLASH_WaitForLastOperation
 965 05ee 0346     		mov	r3, r0
 966 05f0 FB73     		strb	r3, [r7, #15]
 594:../STM32F4xx_StdPeriph_Driver/src/stm32f4xx_flash.c **** 
 595:../STM32F4xx_StdPeriph_Driver/src/stm32f4xx_flash.c ****     /* if the program operation is completed, disable the PG Bit */
 596:../STM32F4xx_StdPeriph_Driver/src/stm32f4xx_flash.c ****     FLASH->CR &= (~FLASH_CR_PG);
 967              		.loc 1 596 0
 968 05f2 4FF47053 		mov	r3, #15360
 969 05f6 C4F20203 		movt	r3, 16386
 970 05fa 4FF47052 		mov	r2, #15360
 971 05fe C4F20202 		movt	r2, 16386
 972 0602 1269     		ldr	r2, [r2, #16]
 973 0604 22F00102 		bic	r2, r2, #1
 974 0608 1A61     		str	r2, [r3, #16]
 975              	.L35:
 597:../STM32F4xx_StdPeriph_Driver/src/stm32f4xx_flash.c ****   } 
 598:../STM32F4xx_StdPeriph_Driver/src/stm32f4xx_flash.c **** 
 599:../STM32F4xx_StdPeriph_Driver/src/stm32f4xx_flash.c ****   /* Return the Program Status */
 600:../STM32F4xx_StdPeriph_Driver/src/stm32f4xx_flash.c ****   return status;
 976              		.loc 1 600 0
 977 060a FB7B     		ldrb	r3, [r7, #15]	@ zero_extendqisi2
 601:../STM32F4xx_StdPeriph_Driver/src/stm32f4xx_flash.c **** }
 978              		.loc 1 601 0
 979 060c 1846     		mov	r0, r3
 980 060e 07F11007 		add	r7, r7, #16
 981 0612 BD46     		mov	sp, r7
 982 0614 80BD     		pop	{r7, pc}
 983              		.cfi_endproc
 984              	.LFE123:
 986 0616 00BF     		.align	2
 987              		.global	FLASH_OB_Unlock
 988              		.thumb
 989              		.thumb_func
 991              	FLASH_OB_Unlock:
 992              	.LFB124:
 602:../STM32F4xx_StdPeriph_Driver/src/stm32f4xx_flash.c **** 
 603:../STM32F4xx_StdPeriph_Driver/src/stm32f4xx_flash.c **** /**
 604:../STM32F4xx_StdPeriph_Driver/src/stm32f4xx_flash.c ****   * @}
 605:../STM32F4xx_StdPeriph_Driver/src/stm32f4xx_flash.c ****   */
 606:../STM32F4xx_StdPeriph_Driver/src/stm32f4xx_flash.c **** 
 607:../STM32F4xx_StdPeriph_Driver/src/stm32f4xx_flash.c **** /** @defgroup FLASH_Group3 Option Bytes Programming functions
 608:../STM32F4xx_StdPeriph_Driver/src/stm32f4xx_flash.c ****  *  @brief   Option Bytes Programming functions 
 609:../STM32F4xx_StdPeriph_Driver/src/stm32f4xx_flash.c ****  *
 610:../STM32F4xx_StdPeriph_Driver/src/stm32f4xx_flash.c **** @verbatim   
 611:../STM32F4xx_StdPeriph_Driver/src/stm32f4xx_flash.c ****  ===============================================================================
 612:../STM32F4xx_StdPeriph_Driver/src/stm32f4xx_flash.c ****                         Option Bytes Programming functions
 613:../STM32F4xx_StdPeriph_Driver/src/stm32f4xx_flash.c ****  ===============================================================================  
 614:../STM32F4xx_StdPeriph_Driver/src/stm32f4xx_flash.c ****  
 615:../STM32F4xx_StdPeriph_Driver/src/stm32f4xx_flash.c ****    This group includes the following functions:
 616:../STM32F4xx_StdPeriph_Driver/src/stm32f4xx_flash.c ****    - void FLASH_OB_Unlock(void)
 617:../STM32F4xx_StdPeriph_Driver/src/stm32f4xx_flash.c ****    - void FLASH_OB_Lock(void)
 618:../STM32F4xx_StdPeriph_Driver/src/stm32f4xx_flash.c ****    - void FLASH_OB_WRPConfig(uint32_t OB_WRP, FunctionalState NewState)
 619:../STM32F4xx_StdPeriph_Driver/src/stm32f4xx_flash.c ****    - void FLASH_OB_RDPConfig(uint8_t OB_RDP)
 620:../STM32F4xx_StdPeriph_Driver/src/stm32f4xx_flash.c ****    - void FLASH_OB_UserConfig(uint8_t OB_IWDG, uint8_t OB_STOP, uint8_t OB_STDBY)
 621:../STM32F4xx_StdPeriph_Driver/src/stm32f4xx_flash.c ****    - void FLASH_OB_BORConfig(uint8_t OB_BOR)
 622:../STM32F4xx_StdPeriph_Driver/src/stm32f4xx_flash.c ****    - FLASH_Status FLASH_ProgramOTP(uint32_t Address, uint32_t Data)							
 623:../STM32F4xx_StdPeriph_Driver/src/stm32f4xx_flash.c ****    - FLASH_Status FLASH_OB_Launch(void)
 624:../STM32F4xx_StdPeriph_Driver/src/stm32f4xx_flash.c ****    - uint32_t FLASH_OB_GetUser(void)						
 625:../STM32F4xx_StdPeriph_Driver/src/stm32f4xx_flash.c ****    - uint8_t FLASH_OB_GetWRP(void)						
 626:../STM32F4xx_StdPeriph_Driver/src/stm32f4xx_flash.c ****    - uint8_t FLASH_OB_GetRDP(void)							
 627:../STM32F4xx_StdPeriph_Driver/src/stm32f4xx_flash.c ****    - uint8_t FLASH_OB_GetBOR(void)
 628:../STM32F4xx_StdPeriph_Driver/src/stm32f4xx_flash.c ****    
 629:../STM32F4xx_StdPeriph_Driver/src/stm32f4xx_flash.c ****    Any operation of erase or program should follow these steps:
 630:../STM32F4xx_StdPeriph_Driver/src/stm32f4xx_flash.c ****    1. Call the FLASH_OB_Unlock() function to enable the FLASH option control register access
 631:../STM32F4xx_StdPeriph_Driver/src/stm32f4xx_flash.c **** 
 632:../STM32F4xx_StdPeriph_Driver/src/stm32f4xx_flash.c ****    2. Call one or several functions to program the desired Option Bytes:
 633:../STM32F4xx_StdPeriph_Driver/src/stm32f4xx_flash.c ****       - void FLASH_OB_WRPConfig(uint32_t OB_WRP, FunctionalState NewState) => to Enable/Disable 
 634:../STM32F4xx_StdPeriph_Driver/src/stm32f4xx_flash.c ****         the desired sector write protection
 635:../STM32F4xx_StdPeriph_Driver/src/stm32f4xx_flash.c ****       - void FLASH_OB_RDPConfig(uint8_t OB_RDP) => to set the desired read Protection Level
 636:../STM32F4xx_StdPeriph_Driver/src/stm32f4xx_flash.c ****       - void FLASH_OB_UserConfig(uint8_t OB_IWDG, uint8_t OB_STOP, uint8_t OB_STDBY) => to configur
 637:../STM32F4xx_StdPeriph_Driver/src/stm32f4xx_flash.c ****         the user Option Bytes.
 638:../STM32F4xx_StdPeriph_Driver/src/stm32f4xx_flash.c ****       - void FLASH_OB_BORConfig(uint8_t OB_BOR) => to set the BOR Level 			 
 639:../STM32F4xx_StdPeriph_Driver/src/stm32f4xx_flash.c **** 
 640:../STM32F4xx_StdPeriph_Driver/src/stm32f4xx_flash.c ****    3. Once all needed Option Bytes to be programmed are correctly written, call the
 641:../STM32F4xx_StdPeriph_Driver/src/stm32f4xx_flash.c ****       FLASH_OB_Launch() function to launch the Option Bytes programming process.
 642:../STM32F4xx_StdPeriph_Driver/src/stm32f4xx_flash.c ****      
 643:../STM32F4xx_StdPeriph_Driver/src/stm32f4xx_flash.c ****      @note When changing the IWDG mode from HW to SW or from SW to HW, a system 
 644:../STM32F4xx_StdPeriph_Driver/src/stm32f4xx_flash.c ****            reset is needed to make the change effective.  
 645:../STM32F4xx_StdPeriph_Driver/src/stm32f4xx_flash.c **** 
 646:../STM32F4xx_StdPeriph_Driver/src/stm32f4xx_flash.c ****    4. Call the FLASH_OB_Lock() function to disable the FLASH option control register
 647:../STM32F4xx_StdPeriph_Driver/src/stm32f4xx_flash.c ****       access (recommended to protect the Option Bytes against possible unwanted operations)
 648:../STM32F4xx_StdPeriph_Driver/src/stm32f4xx_flash.c ****     
 649:../STM32F4xx_StdPeriph_Driver/src/stm32f4xx_flash.c **** @endverbatim
 650:../STM32F4xx_StdPeriph_Driver/src/stm32f4xx_flash.c ****   * @{
 651:../STM32F4xx_StdPeriph_Driver/src/stm32f4xx_flash.c ****   */
 652:../STM32F4xx_StdPeriph_Driver/src/stm32f4xx_flash.c **** 
 653:../STM32F4xx_StdPeriph_Driver/src/stm32f4xx_flash.c **** /**
 654:../STM32F4xx_StdPeriph_Driver/src/stm32f4xx_flash.c ****   * @brief  Unlocks the FLASH Option Control Registers access.
 655:../STM32F4xx_StdPeriph_Driver/src/stm32f4xx_flash.c ****   * @param  None
 656:../STM32F4xx_StdPeriph_Driver/src/stm32f4xx_flash.c ****   * @retval None
 657:../STM32F4xx_StdPeriph_Driver/src/stm32f4xx_flash.c ****   */
 658:../STM32F4xx_StdPeriph_Driver/src/stm32f4xx_flash.c **** void FLASH_OB_Unlock(void)
 659:../STM32F4xx_StdPeriph_Driver/src/stm32f4xx_flash.c **** {
 993              		.loc 1 659 0
 994              		.cfi_startproc
 995              		@ args = 0, pretend = 0, frame = 0
 996              		@ frame_needed = 1, uses_anonymous_args = 0
 997              		@ link register save eliminated.
 998 0618 80B4     		push	{r7}
 999              	.LCFI38:
 1000              		.cfi_def_cfa_offset 4
 1001              		.cfi_offset 7, -4
 1002 061a 00AF     		add	r7, sp, #0
 1003              	.LCFI39:
 1004              		.cfi_def_cfa_register 7
 660:../STM32F4xx_StdPeriph_Driver/src/stm32f4xx_flash.c ****   if((FLASH->OPTCR & FLASH_OPTCR_OPTLOCK) != RESET)
 1005              		.loc 1 660 0
 1006 061c 4FF47053 		mov	r3, #15360
 1007 0620 C4F20203 		movt	r3, 16386
 1008 0624 5B69     		ldr	r3, [r3, #20]
 1009 0626 03F00103 		and	r3, r3, #1
 1010 062a DBB2     		uxtb	r3, r3
 1011 062c 002B     		cmp	r3, #0
 1012 062e 11D0     		beq	.L36
 661:../STM32F4xx_StdPeriph_Driver/src/stm32f4xx_flash.c ****   {
 662:../STM32F4xx_StdPeriph_Driver/src/stm32f4xx_flash.c ****     /* Authorizes the Option Byte register programming */
 663:../STM32F4xx_StdPeriph_Driver/src/stm32f4xx_flash.c ****     FLASH->OPTKEYR = FLASH_OPT_KEY1;
 1013              		.loc 1 663 0
 1014 0630 4FF47053 		mov	r3, #15360
 1015 0634 C4F20203 		movt	r3, 16386
 1016 0638 42F63B22 		movw	r2, #10811
 1017 063c C0F61902 		movt	r2, 2073
 1018 0640 9A60     		str	r2, [r3, #8]
 664:../STM32F4xx_StdPeriph_Driver/src/stm32f4xx_flash.c ****     FLASH->OPTKEYR = FLASH_OPT_KEY2;
 1019              		.loc 1 664 0
 1020 0642 4FF47053 		mov	r3, #15360
 1021 0646 C4F20203 		movt	r3, 16386
 1022 064a 46F67F62 		movw	r2, #28287
 1023 064e C4F65D42 		movt	r2, 19549
 1024 0652 9A60     		str	r2, [r3, #8]
 1025              	.L36:
 665:../STM32F4xx_StdPeriph_Driver/src/stm32f4xx_flash.c ****   }  
 666:../STM32F4xx_StdPeriph_Driver/src/stm32f4xx_flash.c **** }
 1026              		.loc 1 666 0
 1027 0654 BD46     		mov	sp, r7
 1028 0656 80BC     		pop	{r7}
 1029 0658 7047     		bx	lr
 1030              		.cfi_endproc
 1031              	.LFE124:
 1033 065a 00BF     		.align	2
 1034              		.global	FLASH_OB_Lock
 1035              		.thumb
 1036              		.thumb_func
 1038              	FLASH_OB_Lock:
 1039              	.LFB125:
 667:../STM32F4xx_StdPeriph_Driver/src/stm32f4xx_flash.c **** 
 668:../STM32F4xx_StdPeriph_Driver/src/stm32f4xx_flash.c **** /**
 669:../STM32F4xx_StdPeriph_Driver/src/stm32f4xx_flash.c ****   * @brief  Locks the FLASH Option Control Registers access.
 670:../STM32F4xx_StdPeriph_Driver/src/stm32f4xx_flash.c ****   * @param  None
 671:../STM32F4xx_StdPeriph_Driver/src/stm32f4xx_flash.c ****   * @retval None
 672:../STM32F4xx_StdPeriph_Driver/src/stm32f4xx_flash.c ****   */
 673:../STM32F4xx_StdPeriph_Driver/src/stm32f4xx_flash.c **** void FLASH_OB_Lock(void)
 674:../STM32F4xx_StdPeriph_Driver/src/stm32f4xx_flash.c **** {
 1040              		.loc 1 674 0
 1041              		.cfi_startproc
 1042              		@ args = 0, pretend = 0, frame = 0
 1043              		@ frame_needed = 1, uses_anonymous_args = 0
 1044              		@ link register save eliminated.
 1045 065c 80B4     		push	{r7}
 1046              	.LCFI40:
 1047              		.cfi_def_cfa_offset 4
 1048              		.cfi_offset 7, -4
 1049 065e 00AF     		add	r7, sp, #0
 1050              	.LCFI41:
 1051              		.cfi_def_cfa_register 7
 675:../STM32F4xx_StdPeriph_Driver/src/stm32f4xx_flash.c ****   /* Set the OPTLOCK Bit to lock the FLASH Option Byte Registers access */
 676:../STM32F4xx_StdPeriph_Driver/src/stm32f4xx_flash.c ****   FLASH->OPTCR |= FLASH_OPTCR_OPTLOCK;
 1052              		.loc 1 676 0
 1053 0660 4FF47053 		mov	r3, #15360
 1054 0664 C4F20203 		movt	r3, 16386
 1055 0668 4FF47052 		mov	r2, #15360
 1056 066c C4F20202 		movt	r2, 16386
 1057 0670 5269     		ldr	r2, [r2, #20]
 1058 0672 42F00102 		orr	r2, r2, #1
 1059 0676 5A61     		str	r2, [r3, #20]
 677:../STM32F4xx_StdPeriph_Driver/src/stm32f4xx_flash.c **** }
 1060              		.loc 1 677 0
 1061 0678 BD46     		mov	sp, r7
 1062 067a 80BC     		pop	{r7}
 1063 067c 7047     		bx	lr
 1064              		.cfi_endproc
 1065              	.LFE125:
 1067 067e 00BF     		.align	2
 1068              		.global	FLASH_OB_WRPConfig
 1069              		.thumb
 1070              		.thumb_func
 1072              	FLASH_OB_WRPConfig:
 1073              	.LFB126:
 678:../STM32F4xx_StdPeriph_Driver/src/stm32f4xx_flash.c **** 
 679:../STM32F4xx_StdPeriph_Driver/src/stm32f4xx_flash.c **** /**
 680:../STM32F4xx_StdPeriph_Driver/src/stm32f4xx_flash.c ****   * @brief  Enables or disables the write protection of the desired sectors
 681:../STM32F4xx_StdPeriph_Driver/src/stm32f4xx_flash.c ****   * @param  OB_WRP: specifies the sector(s) to be write protected or unprotected.
 682:../STM32F4xx_StdPeriph_Driver/src/stm32f4xx_flash.c ****   *          This parameter can be one of the following values:
 683:../STM32F4xx_StdPeriph_Driver/src/stm32f4xx_flash.c ****   *            @arg OB_WRP: A value between OB_WRP_Sector0 and OB_WRP_Sector11                     
 684:../STM32F4xx_StdPeriph_Driver/src/stm32f4xx_flash.c ****   *            @arg OB_WRP_Sector_All
 685:../STM32F4xx_StdPeriph_Driver/src/stm32f4xx_flash.c ****   * @param  Newstate: new state of the Write Protection.
 686:../STM32F4xx_StdPeriph_Driver/src/stm32f4xx_flash.c ****   *          This parameter can be: ENABLE or DISABLE.
 687:../STM32F4xx_StdPeriph_Driver/src/stm32f4xx_flash.c ****   * @retval None  
 688:../STM32F4xx_StdPeriph_Driver/src/stm32f4xx_flash.c ****   */
 689:../STM32F4xx_StdPeriph_Driver/src/stm32f4xx_flash.c **** void FLASH_OB_WRPConfig(uint32_t OB_WRP, FunctionalState NewState)
 690:../STM32F4xx_StdPeriph_Driver/src/stm32f4xx_flash.c **** { 
 1074              		.loc 1 690 0
 1075              		.cfi_startproc
 1076              		@ args = 0, pretend = 0, frame = 16
 1077              		@ frame_needed = 1, uses_anonymous_args = 0
 1078 0680 80B5     		push	{r7, lr}
 1079              	.LCFI42:
 1080              		.cfi_def_cfa_offset 8
 1081              		.cfi_offset 14, -4
 1082              		.cfi_offset 7, -8
 1083 0682 84B0     		sub	sp, sp, #16
 1084              	.LCFI43:
 1085              		.cfi_def_cfa_offset 24
 1086 0684 00AF     		add	r7, sp, #0
 1087              	.LCFI44:
 1088              		.cfi_def_cfa_register 7
 1089 0686 7860     		str	r0, [r7, #4]
 1090 0688 0B46     		mov	r3, r1
 1091 068a FB70     		strb	r3, [r7, #3]
 691:../STM32F4xx_StdPeriph_Driver/src/stm32f4xx_flash.c ****   FLASH_Status status = FLASH_COMPLETE;
 1092              		.loc 1 691 0
 1093 068c 4FF00803 		mov	r3, #8
 1094 0690 FB73     		strb	r3, [r7, #15]
 692:../STM32F4xx_StdPeriph_Driver/src/stm32f4xx_flash.c ****   
 693:../STM32F4xx_StdPeriph_Driver/src/stm32f4xx_flash.c ****   /* Check the parameters */
 694:../STM32F4xx_StdPeriph_Driver/src/stm32f4xx_flash.c ****   assert_param(IS_OB_WRP(OB_WRP));
 695:../STM32F4xx_StdPeriph_Driver/src/stm32f4xx_flash.c ****   assert_param(IS_FUNCTIONAL_STATE(NewState));
 696:../STM32F4xx_StdPeriph_Driver/src/stm32f4xx_flash.c ****     
 697:../STM32F4xx_StdPeriph_Driver/src/stm32f4xx_flash.c ****   status = FLASH_WaitForLastOperation();
 1095              		.loc 1 697 0
 1096 0692 FFF7FEFF 		bl	FLASH_WaitForLastOperation
 1097 0696 0346     		mov	r3, r0
 1098 0698 FB73     		strb	r3, [r7, #15]
 698:../STM32F4xx_StdPeriph_Driver/src/stm32f4xx_flash.c **** 
 699:../STM32F4xx_StdPeriph_Driver/src/stm32f4xx_flash.c ****   if(status == FLASH_COMPLETE)
 1099              		.loc 1 699 0
 1100 069a FB7B     		ldrb	r3, [r7, #15]	@ zero_extendqisi2
 1101 069c 082B     		cmp	r3, #8
 1102 069e 24D1     		bne	.L39
 700:../STM32F4xx_StdPeriph_Driver/src/stm32f4xx_flash.c ****   { 
 701:../STM32F4xx_StdPeriph_Driver/src/stm32f4xx_flash.c ****     if(NewState != DISABLE)
 1103              		.loc 1 701 0
 1104 06a0 FB78     		ldrb	r3, [r7, #3]	@ zero_extendqisi2
 1105 06a2 002B     		cmp	r3, #0
 1106 06a4 12D0     		beq	.L41
 702:../STM32F4xx_StdPeriph_Driver/src/stm32f4xx_flash.c ****     {
 703:../STM32F4xx_StdPeriph_Driver/src/stm32f4xx_flash.c ****       *(__IO uint16_t*)OPTCR_BYTE2_ADDRESS &= (~OB_WRP);
 1107              		.loc 1 703 0
 1108 06a6 43F61643 		movw	r3, #15382
 1109 06aa C4F20203 		movt	r3, 16386
 1110 06ae 43F61642 		movw	r2, #15382
 1111 06b2 C4F20202 		movt	r2, 16386
 1112 06b6 1288     		ldrh	r2, [r2, #0]	@ movhi
 1113 06b8 91B2     		uxth	r1, r2
 1114 06ba 7A68     		ldr	r2, [r7, #4]
 1115 06bc 92B2     		uxth	r2, r2
 1116 06be 6FEA0202 		mvn	r2, r2
 1117 06c2 92B2     		uxth	r2, r2
 1118 06c4 0A40     		ands	r2, r2, r1
 1119 06c6 92B2     		uxth	r2, r2
 1120 06c8 1A80     		strh	r2, [r3, #0]	@ movhi
 1121 06ca 0EE0     		b	.L39
 1122              	.L41:
 704:../STM32F4xx_StdPeriph_Driver/src/stm32f4xx_flash.c ****     }
 705:../STM32F4xx_StdPeriph_Driver/src/stm32f4xx_flash.c ****     else
 706:../STM32F4xx_StdPeriph_Driver/src/stm32f4xx_flash.c ****     {
 707:../STM32F4xx_StdPeriph_Driver/src/stm32f4xx_flash.c ****       *(__IO uint16_t*)OPTCR_BYTE2_ADDRESS |= (uint16_t)OB_WRP;
 1123              		.loc 1 707 0
 1124 06cc 43F61643 		movw	r3, #15382
 1125 06d0 C4F20203 		movt	r3, 16386
 1126 06d4 43F61642 		movw	r2, #15382
 1127 06d8 C4F20202 		movt	r2, 16386
 1128 06dc 1288     		ldrh	r2, [r2, #0]	@ movhi
 1129 06de 91B2     		uxth	r1, r2
 1130 06e0 7A68     		ldr	r2, [r7, #4]
 1131 06e2 92B2     		uxth	r2, r2
 1132 06e4 0A43     		orrs	r2, r2, r1
 1133 06e6 92B2     		uxth	r2, r2
 1134 06e8 1A80     		strh	r2, [r3, #0]	@ movhi
 1135              	.L39:
 708:../STM32F4xx_StdPeriph_Driver/src/stm32f4xx_flash.c ****     }
 709:../STM32F4xx_StdPeriph_Driver/src/stm32f4xx_flash.c ****   }
 710:../STM32F4xx_StdPeriph_Driver/src/stm32f4xx_flash.c **** }
 1136              		.loc 1 710 0
 1137 06ea 07F11007 		add	r7, r7, #16
 1138 06ee BD46     		mov	sp, r7
 1139 06f0 80BD     		pop	{r7, pc}
 1140              		.cfi_endproc
 1141              	.LFE126:
 1143 06f2 00BF     		.align	2
 1144              		.global	FLASH_OB_RDPConfig
 1145              		.thumb
 1146              		.thumb_func
 1148              	FLASH_OB_RDPConfig:
 1149              	.LFB127:
 711:../STM32F4xx_StdPeriph_Driver/src/stm32f4xx_flash.c **** 
 712:../STM32F4xx_StdPeriph_Driver/src/stm32f4xx_flash.c **** /**
 713:../STM32F4xx_StdPeriph_Driver/src/stm32f4xx_flash.c ****   * @brief  Sets the read protection level.
 714:../STM32F4xx_StdPeriph_Driver/src/stm32f4xx_flash.c ****   * @param  OB_RDP: specifies the read protection level.
 715:../STM32F4xx_StdPeriph_Driver/src/stm32f4xx_flash.c ****   *          This parameter can be one of the following values:
 716:../STM32F4xx_StdPeriph_Driver/src/stm32f4xx_flash.c ****   *            @arg OB_RDP_Level_0: No protection
 717:../STM32F4xx_StdPeriph_Driver/src/stm32f4xx_flash.c ****   *            @arg OB_RDP_Level_1: Read protection of the memory
 718:../STM32F4xx_StdPeriph_Driver/src/stm32f4xx_flash.c ****   *            @arg OB_RDP_Level_2: Full chip protection
 719:../STM32F4xx_StdPeriph_Driver/src/stm32f4xx_flash.c ****   *   
 720:../STM32F4xx_StdPeriph_Driver/src/stm32f4xx_flash.c ****   * !!!Warning!!! When enabling OB_RDP level 2 it's no more possible to go back to level 1 or 0
 721:../STM32F4xx_StdPeriph_Driver/src/stm32f4xx_flash.c ****   *    
 722:../STM32F4xx_StdPeriph_Driver/src/stm32f4xx_flash.c ****   * @retval None
 723:../STM32F4xx_StdPeriph_Driver/src/stm32f4xx_flash.c ****   */
 724:../STM32F4xx_StdPeriph_Driver/src/stm32f4xx_flash.c **** void FLASH_OB_RDPConfig(uint8_t OB_RDP)
 725:../STM32F4xx_StdPeriph_Driver/src/stm32f4xx_flash.c **** {
 1150              		.loc 1 725 0
 1151              		.cfi_startproc
 1152              		@ args = 0, pretend = 0, frame = 16
 1153              		@ frame_needed = 1, uses_anonymous_args = 0
 1154 06f4 80B5     		push	{r7, lr}
 1155              	.LCFI45:
 1156              		.cfi_def_cfa_offset 8
 1157              		.cfi_offset 14, -4
 1158              		.cfi_offset 7, -8
 1159 06f6 84B0     		sub	sp, sp, #16
 1160              	.LCFI46:
 1161              		.cfi_def_cfa_offset 24
 1162 06f8 00AF     		add	r7, sp, #0
 1163              	.LCFI47:
 1164              		.cfi_def_cfa_register 7
 1165 06fa 0346     		mov	r3, r0
 1166 06fc FB71     		strb	r3, [r7, #7]
 726:../STM32F4xx_StdPeriph_Driver/src/stm32f4xx_flash.c ****   FLASH_Status status = FLASH_COMPLETE;
 1167              		.loc 1 726 0
 1168 06fe 4FF00803 		mov	r3, #8
 1169 0702 FB73     		strb	r3, [r7, #15]
 727:../STM32F4xx_StdPeriph_Driver/src/stm32f4xx_flash.c **** 
 728:../STM32F4xx_StdPeriph_Driver/src/stm32f4xx_flash.c ****   /* Check the parameters */
 729:../STM32F4xx_StdPeriph_Driver/src/stm32f4xx_flash.c ****   assert_param(IS_OB_RDP(OB_RDP));
 730:../STM32F4xx_StdPeriph_Driver/src/stm32f4xx_flash.c **** 
 731:../STM32F4xx_StdPeriph_Driver/src/stm32f4xx_flash.c ****   status = FLASH_WaitForLastOperation();
 1170              		.loc 1 731 0
 1171 0704 FFF7FEFF 		bl	FLASH_WaitForLastOperation
 1172 0708 0346     		mov	r3, r0
 1173 070a FB73     		strb	r3, [r7, #15]
 732:../STM32F4xx_StdPeriph_Driver/src/stm32f4xx_flash.c **** 
 733:../STM32F4xx_StdPeriph_Driver/src/stm32f4xx_flash.c ****   if(status == FLASH_COMPLETE)
 1174              		.loc 1 733 0
 1175 070c FB7B     		ldrb	r3, [r7, #15]	@ zero_extendqisi2
 1176 070e 082B     		cmp	r3, #8
 1177 0710 05D1     		bne	.L42
 734:../STM32F4xx_StdPeriph_Driver/src/stm32f4xx_flash.c ****   {
 735:../STM32F4xx_StdPeriph_Driver/src/stm32f4xx_flash.c ****     *(__IO uint8_t*)OPTCR_BYTE1_ADDRESS = OB_RDP;
 1178              		.loc 1 735 0
 1179 0712 43F61543 		movw	r3, #15381
 1180 0716 C4F20203 		movt	r3, 16386
 1181 071a FA79     		ldrb	r2, [r7, #7]
 1182 071c 1A70     		strb	r2, [r3, #0]
 1183              	.L42:
 736:../STM32F4xx_StdPeriph_Driver/src/stm32f4xx_flash.c **** 
 737:../STM32F4xx_StdPeriph_Driver/src/stm32f4xx_flash.c ****   }
 738:../STM32F4xx_StdPeriph_Driver/src/stm32f4xx_flash.c **** }
 1184              		.loc 1 738 0
 1185 071e 07F11007 		add	r7, r7, #16
 1186 0722 BD46     		mov	sp, r7
 1187 0724 80BD     		pop	{r7, pc}
 1188              		.cfi_endproc
 1189              	.LFE127:
 1191 0726 00BF     		.align	2
 1192              		.global	FLASH_OB_UserConfig
 1193              		.thumb
 1194              		.thumb_func
 1196              	FLASH_OB_UserConfig:
 1197              	.LFB128:
 739:../STM32F4xx_StdPeriph_Driver/src/stm32f4xx_flash.c **** 
 740:../STM32F4xx_StdPeriph_Driver/src/stm32f4xx_flash.c **** /**
 741:../STM32F4xx_StdPeriph_Driver/src/stm32f4xx_flash.c ****   * @brief  Programs the FLASH User Option Byte: IWDG_SW / RST_STOP / RST_STDBY.    
 742:../STM32F4xx_StdPeriph_Driver/src/stm32f4xx_flash.c ****   * @param  OB_IWDG: Selects the IWDG mode
 743:../STM32F4xx_StdPeriph_Driver/src/stm32f4xx_flash.c ****   *          This parameter can be one of the following values:
 744:../STM32F4xx_StdPeriph_Driver/src/stm32f4xx_flash.c ****   *            @arg OB_IWDG_SW: Software IWDG selected
 745:../STM32F4xx_StdPeriph_Driver/src/stm32f4xx_flash.c ****   *            @arg OB_IWDG_HW: Hardware IWDG selected
 746:../STM32F4xx_StdPeriph_Driver/src/stm32f4xx_flash.c ****   * @param  OB_STOP: Reset event when entering STOP mode.
 747:../STM32F4xx_StdPeriph_Driver/src/stm32f4xx_flash.c ****   *          This parameter  can be one of the following values:
 748:../STM32F4xx_StdPeriph_Driver/src/stm32f4xx_flash.c ****   *            @arg OB_STOP_NoRST: No reset generated when entering in STOP
 749:../STM32F4xx_StdPeriph_Driver/src/stm32f4xx_flash.c ****   *            @arg OB_STOP_RST: Reset generated when entering in STOP
 750:../STM32F4xx_StdPeriph_Driver/src/stm32f4xx_flash.c ****   * @param  OB_STDBY: Reset event when entering Standby mode.
 751:../STM32F4xx_StdPeriph_Driver/src/stm32f4xx_flash.c ****   *          This parameter  can be one of the following values:
 752:../STM32F4xx_StdPeriph_Driver/src/stm32f4xx_flash.c ****   *            @arg OB_STDBY_NoRST: No reset generated when entering in STANDBY
 753:../STM32F4xx_StdPeriph_Driver/src/stm32f4xx_flash.c ****   *            @arg OB_STDBY_RST: Reset generated when entering in STANDBY
 754:../STM32F4xx_StdPeriph_Driver/src/stm32f4xx_flash.c ****   * @retval None
 755:../STM32F4xx_StdPeriph_Driver/src/stm32f4xx_flash.c ****   */
 756:../STM32F4xx_StdPeriph_Driver/src/stm32f4xx_flash.c **** void FLASH_OB_UserConfig(uint8_t OB_IWDG, uint8_t OB_STOP, uint8_t OB_STDBY)
 757:../STM32F4xx_StdPeriph_Driver/src/stm32f4xx_flash.c **** {
 1198              		.loc 1 757 0
 1199              		.cfi_startproc
 1200              		@ args = 0, pretend = 0, frame = 16
 1201              		@ frame_needed = 1, uses_anonymous_args = 0
 1202 0728 80B5     		push	{r7, lr}
 1203              	.LCFI48:
 1204              		.cfi_def_cfa_offset 8
 1205              		.cfi_offset 14, -4
 1206              		.cfi_offset 7, -8
 1207 072a 84B0     		sub	sp, sp, #16
 1208              	.LCFI49:
 1209              		.cfi_def_cfa_offset 24
 1210 072c 00AF     		add	r7, sp, #0
 1211              	.LCFI50:
 1212              		.cfi_def_cfa_register 7
 1213 072e 1346     		mov	r3, r2
 1214 0730 0246     		mov	r2, r0
 1215 0732 FA71     		strb	r2, [r7, #7]
 1216 0734 0A46     		mov	r2, r1
 1217 0736 BA71     		strb	r2, [r7, #6]
 1218 0738 7B71     		strb	r3, [r7, #5]
 758:../STM32F4xx_StdPeriph_Driver/src/stm32f4xx_flash.c ****   uint8_t optiontmp = 0xFF;
 1219              		.loc 1 758 0
 1220 073a 4FF0FF03 		mov	r3, #255
 1221 073e FB73     		strb	r3, [r7, #15]
 759:../STM32F4xx_StdPeriph_Driver/src/stm32f4xx_flash.c ****   FLASH_Status status = FLASH_COMPLETE; 
 1222              		.loc 1 759 0
 1223 0740 4FF00803 		mov	r3, #8
 1224 0744 BB73     		strb	r3, [r7, #14]
 760:../STM32F4xx_StdPeriph_Driver/src/stm32f4xx_flash.c **** 
 761:../STM32F4xx_StdPeriph_Driver/src/stm32f4xx_flash.c ****   /* Check the parameters */
 762:../STM32F4xx_StdPeriph_Driver/src/stm32f4xx_flash.c ****   assert_param(IS_OB_IWDG_SOURCE(OB_IWDG));
 763:../STM32F4xx_StdPeriph_Driver/src/stm32f4xx_flash.c ****   assert_param(IS_OB_STOP_SOURCE(OB_STOP));
 764:../STM32F4xx_StdPeriph_Driver/src/stm32f4xx_flash.c ****   assert_param(IS_OB_STDBY_SOURCE(OB_STDBY));
 765:../STM32F4xx_StdPeriph_Driver/src/stm32f4xx_flash.c **** 
 766:../STM32F4xx_StdPeriph_Driver/src/stm32f4xx_flash.c ****   /* Wait for last operation to be completed */
 767:../STM32F4xx_StdPeriph_Driver/src/stm32f4xx_flash.c ****   status = FLASH_WaitForLastOperation();
 1225              		.loc 1 767 0
 1226 0746 FFF7FEFF 		bl	FLASH_WaitForLastOperation
 1227 074a 0346     		mov	r3, r0
 1228 074c BB73     		strb	r3, [r7, #14]
 768:../STM32F4xx_StdPeriph_Driver/src/stm32f4xx_flash.c ****   
 769:../STM32F4xx_StdPeriph_Driver/src/stm32f4xx_flash.c ****   if(status == FLASH_COMPLETE)
 1229              		.loc 1 769 0
 1230 074e BB7B     		ldrb	r3, [r7, #14]	@ zero_extendqisi2
 1231 0750 082B     		cmp	r3, #8
 1232 0752 17D1     		bne	.L44
 770:../STM32F4xx_StdPeriph_Driver/src/stm32f4xx_flash.c ****   { 
 771:../STM32F4xx_StdPeriph_Driver/src/stm32f4xx_flash.c ****     /* Mask OPTLOCK, OPTSTRT and BOR_LEV bits */
 772:../STM32F4xx_StdPeriph_Driver/src/stm32f4xx_flash.c ****     optiontmp =  (uint8_t)((*(__IO uint8_t *)OPTCR_BYTE0_ADDRESS) & (uint8_t)0x0F); 
 1233              		.loc 1 772 0
 1234 0754 43F61443 		movw	r3, #15380
 1235 0758 C4F20203 		movt	r3, 16386
 1236 075c 1B78     		ldrb	r3, [r3, #0]
 1237 075e DBB2     		uxtb	r3, r3
 1238 0760 03F00F03 		and	r3, r3, #15
 1239 0764 FB73     		strb	r3, [r7, #15]
 773:../STM32F4xx_StdPeriph_Driver/src/stm32f4xx_flash.c **** 
 774:../STM32F4xx_StdPeriph_Driver/src/stm32f4xx_flash.c ****     /* Update User Option Byte */
 775:../STM32F4xx_StdPeriph_Driver/src/stm32f4xx_flash.c ****     *(__IO uint8_t *)OPTCR_BYTE0_ADDRESS = OB_IWDG | (uint8_t)(OB_STDBY | (uint8_t)(OB_STOP | ((uin
 1240              		.loc 1 775 0
 1241 0766 43F61443 		movw	r3, #15380
 1242 076a C4F20203 		movt	r3, 16386
 1243 076e B979     		ldrb	r1, [r7, #6]
 1244 0770 FA7B     		ldrb	r2, [r7, #15]
 1245 0772 0A43     		orrs	r2, r2, r1
 1246 0774 D1B2     		uxtb	r1, r2
 1247 0776 7A79     		ldrb	r2, [r7, #5]
 1248 0778 0A43     		orrs	r2, r2, r1
 1249 077a D1B2     		uxtb	r1, r2
 1250 077c FA79     		ldrb	r2, [r7, #7]
 1251 077e 0A43     		orrs	r2, r2, r1
 1252 0780 D2B2     		uxtb	r2, r2
 1253 0782 1A70     		strb	r2, [r3, #0]
 1254              	.L44:
 776:../STM32F4xx_StdPeriph_Driver/src/stm32f4xx_flash.c ****   }  
 777:../STM32F4xx_StdPeriph_Driver/src/stm32f4xx_flash.c **** }
 1255              		.loc 1 777 0
 1256 0784 07F11007 		add	r7, r7, #16
 1257 0788 BD46     		mov	sp, r7
 1258 078a 80BD     		pop	{r7, pc}
 1259              		.cfi_endproc
 1260              	.LFE128:
 1262              		.align	2
 1263              		.global	FLASH_OB_BORConfig
 1264              		.thumb
 1265              		.thumb_func
 1267              	FLASH_OB_BORConfig:
 1268              	.LFB129:
 778:../STM32F4xx_StdPeriph_Driver/src/stm32f4xx_flash.c **** 
 779:../STM32F4xx_StdPeriph_Driver/src/stm32f4xx_flash.c **** /**
 780:../STM32F4xx_StdPeriph_Driver/src/stm32f4xx_flash.c ****   * @brief  Sets the BOR Level. 
 781:../STM32F4xx_StdPeriph_Driver/src/stm32f4xx_flash.c ****   * @param  OB_BOR: specifies the Option Bytes BOR Reset Level.
 782:../STM32F4xx_StdPeriph_Driver/src/stm32f4xx_flash.c ****   *          This parameter can be one of the following values:
 783:../STM32F4xx_StdPeriph_Driver/src/stm32f4xx_flash.c ****   *            @arg OB_BOR_LEVEL3: Supply voltage ranges from 2.7 to 3.6 V
 784:../STM32F4xx_StdPeriph_Driver/src/stm32f4xx_flash.c ****   *            @arg OB_BOR_LEVEL2: Supply voltage ranges from 2.4 to 2.7 V
 785:../STM32F4xx_StdPeriph_Driver/src/stm32f4xx_flash.c ****   *            @arg OB_BOR_LEVEL1: Supply voltage ranges from 2.1 to 2.4 V
 786:../STM32F4xx_StdPeriph_Driver/src/stm32f4xx_flash.c ****   *            @arg OB_BOR_OFF: Supply voltage ranges from 1.62 to 2.1 V
 787:../STM32F4xx_StdPeriph_Driver/src/stm32f4xx_flash.c ****   * @retval None
 788:../STM32F4xx_StdPeriph_Driver/src/stm32f4xx_flash.c ****   */
 789:../STM32F4xx_StdPeriph_Driver/src/stm32f4xx_flash.c **** void FLASH_OB_BORConfig(uint8_t OB_BOR)
 790:../STM32F4xx_StdPeriph_Driver/src/stm32f4xx_flash.c **** {
 1269              		.loc 1 790 0
 1270              		.cfi_startproc
 1271              		@ args = 0, pretend = 0, frame = 8
 1272              		@ frame_needed = 1, uses_anonymous_args = 0
 1273              		@ link register save eliminated.
 1274 078c 80B4     		push	{r7}
 1275              	.LCFI51:
 1276              		.cfi_def_cfa_offset 4
 1277              		.cfi_offset 7, -4
 1278 078e 83B0     		sub	sp, sp, #12
 1279              	.LCFI52:
 1280              		.cfi_def_cfa_offset 16
 1281 0790 00AF     		add	r7, sp, #0
 1282              	.LCFI53:
 1283              		.cfi_def_cfa_register 7
 1284 0792 0346     		mov	r3, r0
 1285 0794 FB71     		strb	r3, [r7, #7]
 791:../STM32F4xx_StdPeriph_Driver/src/stm32f4xx_flash.c ****   /* Check the parameters */
 792:../STM32F4xx_StdPeriph_Driver/src/stm32f4xx_flash.c ****   assert_param(IS_OB_BOR(OB_BOR));
 793:../STM32F4xx_StdPeriph_Driver/src/stm32f4xx_flash.c **** 
 794:../STM32F4xx_StdPeriph_Driver/src/stm32f4xx_flash.c ****   /* Set the BOR Level */
 795:../STM32F4xx_StdPeriph_Driver/src/stm32f4xx_flash.c ****   *(__IO uint8_t *)OPTCR_BYTE0_ADDRESS &= (~FLASH_OPTCR_BOR_LEV);
 1286              		.loc 1 795 0
 1287 0796 43F61443 		movw	r3, #15380
 1288 079a C4F20203 		movt	r3, 16386
 1289 079e 43F61442 		movw	r2, #15380
 1290 07a2 C4F20202 		movt	r2, 16386
 1291 07a6 1278     		ldrb	r2, [r2, #0]
 1292 07a8 D2B2     		uxtb	r2, r2
 1293 07aa 22F00C02 		bic	r2, r2, #12
 1294 07ae D2B2     		uxtb	r2, r2
 1295 07b0 1A70     		strb	r2, [r3, #0]
 796:../STM32F4xx_StdPeriph_Driver/src/stm32f4xx_flash.c ****   *(__IO uint8_t *)OPTCR_BYTE0_ADDRESS |= OB_BOR;
 1296              		.loc 1 796 0
 1297 07b2 43F61443 		movw	r3, #15380
 1298 07b6 C4F20203 		movt	r3, 16386
 1299 07ba 43F61442 		movw	r2, #15380
 1300 07be C4F20202 		movt	r2, 16386
 1301 07c2 1278     		ldrb	r2, [r2, #0]
 1302 07c4 D1B2     		uxtb	r1, r2
 1303 07c6 FA79     		ldrb	r2, [r7, #7]
 1304 07c8 0A43     		orrs	r2, r2, r1
 1305 07ca D2B2     		uxtb	r2, r2
 1306 07cc 1A70     		strb	r2, [r3, #0]
 797:../STM32F4xx_StdPeriph_Driver/src/stm32f4xx_flash.c **** 
 798:../STM32F4xx_StdPeriph_Driver/src/stm32f4xx_flash.c **** }
 1307              		.loc 1 798 0
 1308 07ce 07F10C07 		add	r7, r7, #12
 1309 07d2 BD46     		mov	sp, r7
 1310 07d4 80BC     		pop	{r7}
 1311 07d6 7047     		bx	lr
 1312              		.cfi_endproc
 1313              	.LFE129:
 1315              		.align	2
 1316              		.global	FLASH_OB_Launch
 1317              		.thumb
 1318              		.thumb_func
 1320              	FLASH_OB_Launch:
 1321              	.LFB130:
 799:../STM32F4xx_StdPeriph_Driver/src/stm32f4xx_flash.c **** 
 800:../STM32F4xx_StdPeriph_Driver/src/stm32f4xx_flash.c **** /**
 801:../STM32F4xx_StdPeriph_Driver/src/stm32f4xx_flash.c ****   * @brief  Launch the option byte loading.
 802:../STM32F4xx_StdPeriph_Driver/src/stm32f4xx_flash.c ****   * @param  None
 803:../STM32F4xx_StdPeriph_Driver/src/stm32f4xx_flash.c ****   * @retval FLASH Status: The returned value can be: FLASH_BUSY, FLASH_ERROR_PROGRAM,
 804:../STM32F4xx_StdPeriph_Driver/src/stm32f4xx_flash.c ****   *                       FLASH_ERROR_WRP, FLASH_ERROR_OPERATION or FLASH_COMPLETE.
 805:../STM32F4xx_StdPeriph_Driver/src/stm32f4xx_flash.c ****   */
 806:../STM32F4xx_StdPeriph_Driver/src/stm32f4xx_flash.c **** FLASH_Status FLASH_OB_Launch(void)
 807:../STM32F4xx_StdPeriph_Driver/src/stm32f4xx_flash.c **** {
 1322              		.loc 1 807 0
 1323              		.cfi_startproc
 1324              		@ args = 0, pretend = 0, frame = 8
 1325              		@ frame_needed = 1, uses_anonymous_args = 0
 1326 07d8 80B5     		push	{r7, lr}
 1327              	.LCFI54:
 1328              		.cfi_def_cfa_offset 8
 1329              		.cfi_offset 14, -4
 1330              		.cfi_offset 7, -8
 1331 07da 82B0     		sub	sp, sp, #8
 1332              	.LCFI55:
 1333              		.cfi_def_cfa_offset 16
 1334 07dc 00AF     		add	r7, sp, #0
 1335              	.LCFI56:
 1336              		.cfi_def_cfa_register 7
 808:../STM32F4xx_StdPeriph_Driver/src/stm32f4xx_flash.c ****   FLASH_Status status = FLASH_COMPLETE;
 1337              		.loc 1 808 0
 1338 07de 4FF00803 		mov	r3, #8
 1339 07e2 FB71     		strb	r3, [r7, #7]
 809:../STM32F4xx_StdPeriph_Driver/src/stm32f4xx_flash.c **** 
 810:../STM32F4xx_StdPeriph_Driver/src/stm32f4xx_flash.c ****   /* Set the OPTSTRT bit in OPTCR register */
 811:../STM32F4xx_StdPeriph_Driver/src/stm32f4xx_flash.c ****   *(__IO uint8_t *)OPTCR_BYTE0_ADDRESS |= FLASH_OPTCR_OPTSTRT;
 1340              		.loc 1 811 0
 1341 07e4 43F61443 		movw	r3, #15380
 1342 07e8 C4F20203 		movt	r3, 16386
 1343 07ec 43F61442 		movw	r2, #15380
 1344 07f0 C4F20202 		movt	r2, 16386
 1345 07f4 1278     		ldrb	r2, [r2, #0]
 1346 07f6 D2B2     		uxtb	r2, r2
 1347 07f8 42F00202 		orr	r2, r2, #2
 1348 07fc D2B2     		uxtb	r2, r2
 1349 07fe 1A70     		strb	r2, [r3, #0]
 812:../STM32F4xx_StdPeriph_Driver/src/stm32f4xx_flash.c **** 
 813:../STM32F4xx_StdPeriph_Driver/src/stm32f4xx_flash.c ****   /* Wait for last operation to be completed */
 814:../STM32F4xx_StdPeriph_Driver/src/stm32f4xx_flash.c ****   status = FLASH_WaitForLastOperation();
 1350              		.loc 1 814 0
 1351 0800 FFF7FEFF 		bl	FLASH_WaitForLastOperation
 1352 0804 0346     		mov	r3, r0
 1353 0806 FB71     		strb	r3, [r7, #7]
 815:../STM32F4xx_StdPeriph_Driver/src/stm32f4xx_flash.c **** 
 816:../STM32F4xx_StdPeriph_Driver/src/stm32f4xx_flash.c ****   return status;
 1354              		.loc 1 816 0
 1355 0808 FB79     		ldrb	r3, [r7, #7]	@ zero_extendqisi2
 817:../STM32F4xx_StdPeriph_Driver/src/stm32f4xx_flash.c **** }
 1356              		.loc 1 817 0
 1357 080a 1846     		mov	r0, r3
 1358 080c 07F10807 		add	r7, r7, #8
 1359 0810 BD46     		mov	sp, r7
 1360 0812 80BD     		pop	{r7, pc}
 1361              		.cfi_endproc
 1362              	.LFE130:
 1364              		.align	2
 1365              		.global	FLASH_OB_GetUser
 1366              		.thumb
 1367              		.thumb_func
 1369              	FLASH_OB_GetUser:
 1370              	.LFB131:
 818:../STM32F4xx_StdPeriph_Driver/src/stm32f4xx_flash.c **** 
 819:../STM32F4xx_StdPeriph_Driver/src/stm32f4xx_flash.c **** /**
 820:../STM32F4xx_StdPeriph_Driver/src/stm32f4xx_flash.c ****   * @brief  Returns the FLASH User Option Bytes values.
 821:../STM32F4xx_StdPeriph_Driver/src/stm32f4xx_flash.c ****   * @param  None
 822:../STM32F4xx_StdPeriph_Driver/src/stm32f4xx_flash.c ****   * @retval The FLASH User Option Bytes values: IWDG_SW(Bit0), RST_STOP(Bit1)
 823:../STM32F4xx_StdPeriph_Driver/src/stm32f4xx_flash.c ****   *         and RST_STDBY(Bit2).
 824:../STM32F4xx_StdPeriph_Driver/src/stm32f4xx_flash.c ****   */
 825:../STM32F4xx_StdPeriph_Driver/src/stm32f4xx_flash.c **** uint8_t FLASH_OB_GetUser(void)
 826:../STM32F4xx_StdPeriph_Driver/src/stm32f4xx_flash.c **** {
 1371              		.loc 1 826 0
 1372              		.cfi_startproc
 1373              		@ args = 0, pretend = 0, frame = 0
 1374              		@ frame_needed = 1, uses_anonymous_args = 0
 1375              		@ link register save eliminated.
 1376 0814 80B4     		push	{r7}
 1377              	.LCFI57:
 1378              		.cfi_def_cfa_offset 4
 1379              		.cfi_offset 7, -4
 1380 0816 00AF     		add	r7, sp, #0
 1381              	.LCFI58:
 1382              		.cfi_def_cfa_register 7
 827:../STM32F4xx_StdPeriph_Driver/src/stm32f4xx_flash.c ****   /* Return the User Option Byte */
 828:../STM32F4xx_StdPeriph_Driver/src/stm32f4xx_flash.c ****   return (uint8_t)(FLASH->OPTCR >> 5);
 1383              		.loc 1 828 0
 1384 0818 4FF47053 		mov	r3, #15360
 1385 081c C4F20203 		movt	r3, 16386
 1386 0820 5B69     		ldr	r3, [r3, #20]
 1387 0822 4FEA5313 		lsr	r3, r3, #5
 1388 0826 DBB2     		uxtb	r3, r3
 829:../STM32F4xx_StdPeriph_Driver/src/stm32f4xx_flash.c **** }
 1389              		.loc 1 829 0
 1390 0828 1846     		mov	r0, r3
 1391 082a BD46     		mov	sp, r7
 1392 082c 80BC     		pop	{r7}
 1393 082e 7047     		bx	lr
 1394              		.cfi_endproc
 1395              	.LFE131:
 1397              		.align	2
 1398              		.global	FLASH_OB_GetWRP
 1399              		.thumb
 1400              		.thumb_func
 1402              	FLASH_OB_GetWRP:
 1403              	.LFB132:
 830:../STM32F4xx_StdPeriph_Driver/src/stm32f4xx_flash.c **** 
 831:../STM32F4xx_StdPeriph_Driver/src/stm32f4xx_flash.c **** /**
 832:../STM32F4xx_StdPeriph_Driver/src/stm32f4xx_flash.c ****   * @brief  Returns the FLASH Write Protection Option Bytes value.
 833:../STM32F4xx_StdPeriph_Driver/src/stm32f4xx_flash.c ****   * @param  None
 834:../STM32F4xx_StdPeriph_Driver/src/stm32f4xx_flash.c ****   * @retval The FLASH Write Protection  Option Bytes value
 835:../STM32F4xx_StdPeriph_Driver/src/stm32f4xx_flash.c ****   */
 836:../STM32F4xx_StdPeriph_Driver/src/stm32f4xx_flash.c **** uint16_t FLASH_OB_GetWRP(void)
 837:../STM32F4xx_StdPeriph_Driver/src/stm32f4xx_flash.c **** {
 1404              		.loc 1 837 0
 1405              		.cfi_startproc
 1406              		@ args = 0, pretend = 0, frame = 0
 1407              		@ frame_needed = 1, uses_anonymous_args = 0
 1408              		@ link register save eliminated.
 1409 0830 80B4     		push	{r7}
 1410              	.LCFI59:
 1411              		.cfi_def_cfa_offset 4
 1412              		.cfi_offset 7, -4
 1413 0832 00AF     		add	r7, sp, #0
 1414              	.LCFI60:
 1415              		.cfi_def_cfa_register 7
 838:../STM32F4xx_StdPeriph_Driver/src/stm32f4xx_flash.c ****   /* Return the FLASH write protection Register value */
 839:../STM32F4xx_StdPeriph_Driver/src/stm32f4xx_flash.c ****   return (*(__IO uint16_t *)(OPTCR_BYTE2_ADDRESS));
 1416              		.loc 1 839 0
 1417 0834 43F61643 		movw	r3, #15382
 1418 0838 C4F20203 		movt	r3, 16386
 1419 083c 1B88     		ldrh	r3, [r3, #0]	@ movhi
 1420 083e 9BB2     		uxth	r3, r3
 840:../STM32F4xx_StdPeriph_Driver/src/stm32f4xx_flash.c **** }
 1421              		.loc 1 840 0
 1422 0840 1846     		mov	r0, r3
 1423 0842 BD46     		mov	sp, r7
 1424 0844 80BC     		pop	{r7}
 1425 0846 7047     		bx	lr
 1426              		.cfi_endproc
 1427              	.LFE132:
 1429              		.align	2
 1430              		.global	FLASH_OB_GetRDP
 1431              		.thumb
 1432              		.thumb_func
 1434              	FLASH_OB_GetRDP:
 1435              	.LFB133:
 841:../STM32F4xx_StdPeriph_Driver/src/stm32f4xx_flash.c **** 
 842:../STM32F4xx_StdPeriph_Driver/src/stm32f4xx_flash.c **** /**
 843:../STM32F4xx_StdPeriph_Driver/src/stm32f4xx_flash.c ****   * @brief  Returns the FLASH Read Protection level.
 844:../STM32F4xx_StdPeriph_Driver/src/stm32f4xx_flash.c ****   * @param  None
 845:../STM32F4xx_StdPeriph_Driver/src/stm32f4xx_flash.c ****   * @retval FLASH ReadOut Protection Status:
 846:../STM32F4xx_StdPeriph_Driver/src/stm32f4xx_flash.c ****   *           - SET, when OB_RDP_Level_1 or OB_RDP_Level_2 is set
 847:../STM32F4xx_StdPeriph_Driver/src/stm32f4xx_flash.c ****   *           - RESET, when OB_RDP_Level_0 is set
 848:../STM32F4xx_StdPeriph_Driver/src/stm32f4xx_flash.c ****   */
 849:../STM32F4xx_StdPeriph_Driver/src/stm32f4xx_flash.c **** FlagStatus FLASH_OB_GetRDP(void)
 850:../STM32F4xx_StdPeriph_Driver/src/stm32f4xx_flash.c **** {
 1436              		.loc 1 850 0
 1437              		.cfi_startproc
 1438              		@ args = 0, pretend = 0, frame = 8
 1439              		@ frame_needed = 1, uses_anonymous_args = 0
 1440              		@ link register save eliminated.
 1441 0848 80B4     		push	{r7}
 1442              	.LCFI61:
 1443              		.cfi_def_cfa_offset 4
 1444              		.cfi_offset 7, -4
 1445 084a 83B0     		sub	sp, sp, #12
 1446              	.LCFI62:
 1447              		.cfi_def_cfa_offset 16
 1448 084c 00AF     		add	r7, sp, #0
 1449              	.LCFI63:
 1450              		.cfi_def_cfa_register 7
 851:../STM32F4xx_StdPeriph_Driver/src/stm32f4xx_flash.c ****   FlagStatus readstatus = RESET;
 1451              		.loc 1 851 0
 1452 084e 4FF00003 		mov	r3, #0
 1453 0852 FB71     		strb	r3, [r7, #7]
 852:../STM32F4xx_StdPeriph_Driver/src/stm32f4xx_flash.c **** 
 853:../STM32F4xx_StdPeriph_Driver/src/stm32f4xx_flash.c ****   if ((*(__IO uint8_t*)(OPTCR_BYTE1_ADDRESS) != (uint8_t)OB_RDP_Level_0))
 1454              		.loc 1 853 0
 1455 0854 43F61543 		movw	r3, #15381
 1456 0858 C4F20203 		movt	r3, 16386
 1457 085c 1B78     		ldrb	r3, [r3, #0]
 1458 085e DBB2     		uxtb	r3, r3
 1459 0860 AA2B     		cmp	r3, #170
 1460 0862 03D0     		beq	.L51
 854:../STM32F4xx_StdPeriph_Driver/src/stm32f4xx_flash.c ****   {
 855:../STM32F4xx_StdPeriph_Driver/src/stm32f4xx_flash.c ****     readstatus = SET;
 1461              		.loc 1 855 0
 1462 0864 4FF00103 		mov	r3, #1
 1463 0868 FB71     		strb	r3, [r7, #7]
 1464 086a 02E0     		b	.L52
 1465              	.L51:
 856:../STM32F4xx_StdPeriph_Driver/src/stm32f4xx_flash.c ****   }
 857:../STM32F4xx_StdPeriph_Driver/src/stm32f4xx_flash.c ****   else
 858:../STM32F4xx_StdPeriph_Driver/src/stm32f4xx_flash.c ****   {
 859:../STM32F4xx_StdPeriph_Driver/src/stm32f4xx_flash.c ****     readstatus = RESET;
 1466              		.loc 1 859 0
 1467 086c 4FF00003 		mov	r3, #0
 1468 0870 FB71     		strb	r3, [r7, #7]
 1469              	.L52:
 860:../STM32F4xx_StdPeriph_Driver/src/stm32f4xx_flash.c ****   }
 861:../STM32F4xx_StdPeriph_Driver/src/stm32f4xx_flash.c ****   return readstatus;
 1470              		.loc 1 861 0
 1471 0872 FB79     		ldrb	r3, [r7, #7]	@ zero_extendqisi2
 862:../STM32F4xx_StdPeriph_Driver/src/stm32f4xx_flash.c **** }
 1472              		.loc 1 862 0
 1473 0874 1846     		mov	r0, r3
 1474 0876 07F10C07 		add	r7, r7, #12
 1475 087a BD46     		mov	sp, r7
 1476 087c 80BC     		pop	{r7}
 1477 087e 7047     		bx	lr
 1478              		.cfi_endproc
 1479              	.LFE133:
 1481              		.align	2
 1482              		.global	FLASH_OB_GetBOR
 1483              		.thumb
 1484              		.thumb_func
 1486              	FLASH_OB_GetBOR:
 1487              	.LFB134:
 863:../STM32F4xx_StdPeriph_Driver/src/stm32f4xx_flash.c **** 
 864:../STM32F4xx_StdPeriph_Driver/src/stm32f4xx_flash.c **** /**
 865:../STM32F4xx_StdPeriph_Driver/src/stm32f4xx_flash.c ****   * @brief  Returns the FLASH BOR level.
 866:../STM32F4xx_StdPeriph_Driver/src/stm32f4xx_flash.c ****   * @param  None
 867:../STM32F4xx_StdPeriph_Driver/src/stm32f4xx_flash.c ****   * @retval The FLASH BOR level:
 868:../STM32F4xx_StdPeriph_Driver/src/stm32f4xx_flash.c ****   *           - OB_BOR_LEVEL3: Supply voltage ranges from 2.7 to 3.6 V
 869:../STM32F4xx_StdPeriph_Driver/src/stm32f4xx_flash.c ****   *           - OB_BOR_LEVEL2: Supply voltage ranges from 2.4 to 2.7 V
 870:../STM32F4xx_StdPeriph_Driver/src/stm32f4xx_flash.c ****   *           - OB_BOR_LEVEL1: Supply voltage ranges from 2.1 to 2.4 V
 871:../STM32F4xx_StdPeriph_Driver/src/stm32f4xx_flash.c ****   *           - OB_BOR_OFF   : Supply voltage ranges from 1.62 to 2.1 V  
 872:../STM32F4xx_StdPeriph_Driver/src/stm32f4xx_flash.c ****   */
 873:../STM32F4xx_StdPeriph_Driver/src/stm32f4xx_flash.c **** uint8_t FLASH_OB_GetBOR(void)
 874:../STM32F4xx_StdPeriph_Driver/src/stm32f4xx_flash.c **** {
 1488              		.loc 1 874 0
 1489              		.cfi_startproc
 1490              		@ args = 0, pretend = 0, frame = 0
 1491              		@ frame_needed = 1, uses_anonymous_args = 0
 1492              		@ link register save eliminated.
 1493 0880 80B4     		push	{r7}
 1494              	.LCFI64:
 1495              		.cfi_def_cfa_offset 4
 1496              		.cfi_offset 7, -4
 1497 0882 00AF     		add	r7, sp, #0
 1498              	.LCFI65:
 1499              		.cfi_def_cfa_register 7
 875:../STM32F4xx_StdPeriph_Driver/src/stm32f4xx_flash.c ****   /* Return the FLASH BOR level */
 876:../STM32F4xx_StdPeriph_Driver/src/stm32f4xx_flash.c ****   return (uint8_t)(*(__IO uint8_t *)(OPTCR_BYTE0_ADDRESS) & (uint8_t)0x0C);
 1500              		.loc 1 876 0
 1501 0884 43F61443 		movw	r3, #15380
 1502 0888 C4F20203 		movt	r3, 16386
 1503 088c 1B78     		ldrb	r3, [r3, #0]
 1504 088e DBB2     		uxtb	r3, r3
 1505 0890 03F00C03 		and	r3, r3, #12
 1506 0894 DBB2     		uxtb	r3, r3
 877:../STM32F4xx_StdPeriph_Driver/src/stm32f4xx_flash.c **** }
 1507              		.loc 1 877 0
 1508 0896 1846     		mov	r0, r3
 1509 0898 BD46     		mov	sp, r7
 1510 089a 80BC     		pop	{r7}
 1511 089c 7047     		bx	lr
 1512              		.cfi_endproc
 1513              	.LFE134:
 1515 089e 00BF     		.align	2
 1516              		.global	FLASH_ITConfig
 1517              		.thumb
 1518              		.thumb_func
 1520              	FLASH_ITConfig:
 1521              	.LFB135:
 878:../STM32F4xx_StdPeriph_Driver/src/stm32f4xx_flash.c **** 
 879:../STM32F4xx_StdPeriph_Driver/src/stm32f4xx_flash.c **** /**
 880:../STM32F4xx_StdPeriph_Driver/src/stm32f4xx_flash.c ****   * @}
 881:../STM32F4xx_StdPeriph_Driver/src/stm32f4xx_flash.c ****   */
 882:../STM32F4xx_StdPeriph_Driver/src/stm32f4xx_flash.c **** 
 883:../STM32F4xx_StdPeriph_Driver/src/stm32f4xx_flash.c **** /** @defgroup FLASH_Group4 Interrupts and flags management functions
 884:../STM32F4xx_StdPeriph_Driver/src/stm32f4xx_flash.c ****  *  @brief   Interrupts and flags management functions
 885:../STM32F4xx_StdPeriph_Driver/src/stm32f4xx_flash.c ****  *
 886:../STM32F4xx_StdPeriph_Driver/src/stm32f4xx_flash.c **** @verbatim   
 887:../STM32F4xx_StdPeriph_Driver/src/stm32f4xx_flash.c ****  ===============================================================================
 888:../STM32F4xx_StdPeriph_Driver/src/stm32f4xx_flash.c ****                   Interrupts and flags management functions
 889:../STM32F4xx_StdPeriph_Driver/src/stm32f4xx_flash.c ****  ===============================================================================  
 890:../STM32F4xx_StdPeriph_Driver/src/stm32f4xx_flash.c **** 
 891:../STM32F4xx_StdPeriph_Driver/src/stm32f4xx_flash.c **** @endverbatim
 892:../STM32F4xx_StdPeriph_Driver/src/stm32f4xx_flash.c ****   * @{
 893:../STM32F4xx_StdPeriph_Driver/src/stm32f4xx_flash.c ****   */
 894:../STM32F4xx_StdPeriph_Driver/src/stm32f4xx_flash.c **** 
 895:../STM32F4xx_StdPeriph_Driver/src/stm32f4xx_flash.c **** /**
 896:../STM32F4xx_StdPeriph_Driver/src/stm32f4xx_flash.c ****   * @brief  Enables or disables the specified FLASH interrupts.
 897:../STM32F4xx_StdPeriph_Driver/src/stm32f4xx_flash.c ****   * @param  FLASH_IT: specifies the FLASH interrupt sources to be enabled or disabled.
 898:../STM32F4xx_StdPeriph_Driver/src/stm32f4xx_flash.c ****   *          This parameter can be any combination of the following values:
 899:../STM32F4xx_StdPeriph_Driver/src/stm32f4xx_flash.c ****   *            @arg FLASH_IT_ERR: FLASH Error Interrupt
 900:../STM32F4xx_StdPeriph_Driver/src/stm32f4xx_flash.c ****   *            @arg FLASH_IT_EOP: FLASH end of operation Interrupt
 901:../STM32F4xx_StdPeriph_Driver/src/stm32f4xx_flash.c ****   * @retval None 
 902:../STM32F4xx_StdPeriph_Driver/src/stm32f4xx_flash.c ****   */
 903:../STM32F4xx_StdPeriph_Driver/src/stm32f4xx_flash.c **** void FLASH_ITConfig(uint32_t FLASH_IT, FunctionalState NewState)
 904:../STM32F4xx_StdPeriph_Driver/src/stm32f4xx_flash.c **** {
 1522              		.loc 1 904 0
 1523              		.cfi_startproc
 1524              		@ args = 0, pretend = 0, frame = 8
 1525              		@ frame_needed = 1, uses_anonymous_args = 0
 1526              		@ link register save eliminated.
 1527 08a0 80B4     		push	{r7}
 1528              	.LCFI66:
 1529              		.cfi_def_cfa_offset 4
 1530              		.cfi_offset 7, -4
 1531 08a2 83B0     		sub	sp, sp, #12
 1532              	.LCFI67:
 1533              		.cfi_def_cfa_offset 16
 1534 08a4 00AF     		add	r7, sp, #0
 1535              	.LCFI68:
 1536              		.cfi_def_cfa_register 7
 1537 08a6 7860     		str	r0, [r7, #4]
 1538 08a8 0B46     		mov	r3, r1
 1539 08aa FB70     		strb	r3, [r7, #3]
 905:../STM32F4xx_StdPeriph_Driver/src/stm32f4xx_flash.c ****   /* Check the parameters */
 906:../STM32F4xx_StdPeriph_Driver/src/stm32f4xx_flash.c ****   assert_param(IS_FLASH_IT(FLASH_IT)); 
 907:../STM32F4xx_StdPeriph_Driver/src/stm32f4xx_flash.c ****   assert_param(IS_FUNCTIONAL_STATE(NewState));
 908:../STM32F4xx_StdPeriph_Driver/src/stm32f4xx_flash.c **** 
 909:../STM32F4xx_StdPeriph_Driver/src/stm32f4xx_flash.c ****   if(NewState != DISABLE)
 1540              		.loc 1 909 0
 1541 08ac FB78     		ldrb	r3, [r7, #3]	@ zero_extendqisi2
 1542 08ae 002B     		cmp	r3, #0
 1543 08b0 0DD0     		beq	.L55
 910:../STM32F4xx_StdPeriph_Driver/src/stm32f4xx_flash.c ****   {
 911:../STM32F4xx_StdPeriph_Driver/src/stm32f4xx_flash.c ****     /* Enable the interrupt sources */
 912:../STM32F4xx_StdPeriph_Driver/src/stm32f4xx_flash.c ****     FLASH->CR |= FLASH_IT;
 1544              		.loc 1 912 0
 1545 08b2 4FF47053 		mov	r3, #15360
 1546 08b6 C4F20203 		movt	r3, 16386
 1547 08ba 4FF47052 		mov	r2, #15360
 1548 08be C4F20202 		movt	r2, 16386
 1549 08c2 1269     		ldr	r2, [r2, #16]
 1550 08c4 1146     		mov	r1, r2
 1551 08c6 7A68     		ldr	r2, [r7, #4]
 1552 08c8 0A43     		orrs	r2, r2, r1
 1553 08ca 1A61     		str	r2, [r3, #16]
 1554 08cc 0EE0     		b	.L54
 1555              	.L55:
 913:../STM32F4xx_StdPeriph_Driver/src/stm32f4xx_flash.c ****   }
 914:../STM32F4xx_StdPeriph_Driver/src/stm32f4xx_flash.c ****   else
 915:../STM32F4xx_StdPeriph_Driver/src/stm32f4xx_flash.c ****   {
 916:../STM32F4xx_StdPeriph_Driver/src/stm32f4xx_flash.c ****     /* Disable the interrupt sources */
 917:../STM32F4xx_StdPeriph_Driver/src/stm32f4xx_flash.c ****     FLASH->CR &= ~(uint32_t)FLASH_IT;
 1556              		.loc 1 917 0
 1557 08ce 4FF47053 		mov	r3, #15360
 1558 08d2 C4F20203 		movt	r3, 16386
 1559 08d6 4FF47052 		mov	r2, #15360
 1560 08da C4F20202 		movt	r2, 16386
 1561 08de 1269     		ldr	r2, [r2, #16]
 1562 08e0 1146     		mov	r1, r2
 1563 08e2 7A68     		ldr	r2, [r7, #4]
 1564 08e4 6FEA0202 		mvn	r2, r2
 1565 08e8 0A40     		ands	r2, r2, r1
 1566 08ea 1A61     		str	r2, [r3, #16]
 1567              	.L54:
 918:../STM32F4xx_StdPeriph_Driver/src/stm32f4xx_flash.c ****   }
 919:../STM32F4xx_StdPeriph_Driver/src/stm32f4xx_flash.c **** }
 1568              		.loc 1 919 0
 1569 08ec 07F10C07 		add	r7, r7, #12
 1570 08f0 BD46     		mov	sp, r7
 1571 08f2 80BC     		pop	{r7}
 1572 08f4 7047     		bx	lr
 1573              		.cfi_endproc
 1574              	.LFE135:
 1576 08f6 00BF     		.align	2
 1577              		.global	FLASH_GetFlagStatus
 1578              		.thumb
 1579              		.thumb_func
 1581              	FLASH_GetFlagStatus:
 1582              	.LFB136:
 920:../STM32F4xx_StdPeriph_Driver/src/stm32f4xx_flash.c **** 
 921:../STM32F4xx_StdPeriph_Driver/src/stm32f4xx_flash.c **** /**
 922:../STM32F4xx_StdPeriph_Driver/src/stm32f4xx_flash.c ****   * @brief  Checks whether the specified FLASH flag is set or not.
 923:../STM32F4xx_StdPeriph_Driver/src/stm32f4xx_flash.c ****   * @param  FLASH_FLAG: specifies the FLASH flag to check.
 924:../STM32F4xx_StdPeriph_Driver/src/stm32f4xx_flash.c ****   *          This parameter can be one of the following values:
 925:../STM32F4xx_StdPeriph_Driver/src/stm32f4xx_flash.c ****   *            @arg FLASH_FLAG_EOP: FLASH End of Operation flag 
 926:../STM32F4xx_StdPeriph_Driver/src/stm32f4xx_flash.c ****   *            @arg FLASH_FLAG_OPERR: FLASH operation Error flag 
 927:../STM32F4xx_StdPeriph_Driver/src/stm32f4xx_flash.c ****   *            @arg FLASH_FLAG_WRPERR: FLASH Write protected error flag 
 928:../STM32F4xx_StdPeriph_Driver/src/stm32f4xx_flash.c ****   *            @arg FLASH_FLAG_PGAERR: FLASH Programming Alignment error flag
 929:../STM32F4xx_StdPeriph_Driver/src/stm32f4xx_flash.c ****   *            @arg FLASH_FLAG_PGPERR: FLASH Programming Parallelism error flag
 930:../STM32F4xx_StdPeriph_Driver/src/stm32f4xx_flash.c ****   *            @arg FLASH_FLAG_PGSERR: FLASH Programming Sequence error flag
 931:../STM32F4xx_StdPeriph_Driver/src/stm32f4xx_flash.c ****   *            @arg FLASH_FLAG_BSY: FLASH Busy flag
 932:../STM32F4xx_StdPeriph_Driver/src/stm32f4xx_flash.c ****   * @retval The new state of FLASH_FLAG (SET or RESET).
 933:../STM32F4xx_StdPeriph_Driver/src/stm32f4xx_flash.c ****   */
 934:../STM32F4xx_StdPeriph_Driver/src/stm32f4xx_flash.c **** FlagStatus FLASH_GetFlagStatus(uint32_t FLASH_FLAG)
 935:../STM32F4xx_StdPeriph_Driver/src/stm32f4xx_flash.c **** {
 1583              		.loc 1 935 0
 1584              		.cfi_startproc
 1585              		@ args = 0, pretend = 0, frame = 16
 1586              		@ frame_needed = 1, uses_anonymous_args = 0
 1587              		@ link register save eliminated.
 1588 08f8 80B4     		push	{r7}
 1589              	.LCFI69:
 1590              		.cfi_def_cfa_offset 4
 1591              		.cfi_offset 7, -4
 1592 08fa 85B0     		sub	sp, sp, #20
 1593              	.LCFI70:
 1594              		.cfi_def_cfa_offset 24
 1595 08fc 00AF     		add	r7, sp, #0
 1596              	.LCFI71:
 1597              		.cfi_def_cfa_register 7
 1598 08fe 7860     		str	r0, [r7, #4]
 936:../STM32F4xx_StdPeriph_Driver/src/stm32f4xx_flash.c ****   FlagStatus bitstatus = RESET;
 1599              		.loc 1 936 0
 1600 0900 4FF00003 		mov	r3, #0
 1601 0904 FB73     		strb	r3, [r7, #15]
 937:../STM32F4xx_StdPeriph_Driver/src/stm32f4xx_flash.c ****   /* Check the parameters */
 938:../STM32F4xx_StdPeriph_Driver/src/stm32f4xx_flash.c ****   assert_param(IS_FLASH_GET_FLAG(FLASH_FLAG));
 939:../STM32F4xx_StdPeriph_Driver/src/stm32f4xx_flash.c **** 
 940:../STM32F4xx_StdPeriph_Driver/src/stm32f4xx_flash.c ****   if((FLASH->SR & FLASH_FLAG) != (uint32_t)RESET)
 1602              		.loc 1 940 0
 1603 0906 4FF47053 		mov	r3, #15360
 1604 090a C4F20203 		movt	r3, 16386
 1605 090e DB68     		ldr	r3, [r3, #12]
 1606 0910 1A46     		mov	r2, r3
 1607 0912 7B68     		ldr	r3, [r7, #4]
 1608 0914 1340     		ands	r3, r3, r2
 1609 0916 002B     		cmp	r3, #0
 1610 0918 03D0     		beq	.L58
 941:../STM32F4xx_StdPeriph_Driver/src/stm32f4xx_flash.c ****   {
 942:../STM32F4xx_StdPeriph_Driver/src/stm32f4xx_flash.c ****     bitstatus = SET;
 1611              		.loc 1 942 0
 1612 091a 4FF00103 		mov	r3, #1
 1613 091e FB73     		strb	r3, [r7, #15]
 1614 0920 02E0     		b	.L59
 1615              	.L58:
 943:../STM32F4xx_StdPeriph_Driver/src/stm32f4xx_flash.c ****   }
 944:../STM32F4xx_StdPeriph_Driver/src/stm32f4xx_flash.c ****   else
 945:../STM32F4xx_StdPeriph_Driver/src/stm32f4xx_flash.c ****   {
 946:../STM32F4xx_StdPeriph_Driver/src/stm32f4xx_flash.c ****     bitstatus = RESET;
 1616              		.loc 1 946 0
 1617 0922 4FF00003 		mov	r3, #0
 1618 0926 FB73     		strb	r3, [r7, #15]
 1619              	.L59:
 947:../STM32F4xx_StdPeriph_Driver/src/stm32f4xx_flash.c ****   }
 948:../STM32F4xx_StdPeriph_Driver/src/stm32f4xx_flash.c ****   /* Return the new state of FLASH_FLAG (SET or RESET) */
 949:../STM32F4xx_StdPeriph_Driver/src/stm32f4xx_flash.c ****   return bitstatus; 
 1620              		.loc 1 949 0
 1621 0928 FB7B     		ldrb	r3, [r7, #15]	@ zero_extendqisi2
 950:../STM32F4xx_StdPeriph_Driver/src/stm32f4xx_flash.c **** }
 1622              		.loc 1 950 0
 1623 092a 1846     		mov	r0, r3
 1624 092c 07F11407 		add	r7, r7, #20
 1625 0930 BD46     		mov	sp, r7
 1626 0932 80BC     		pop	{r7}
 1627 0934 7047     		bx	lr
 1628              		.cfi_endproc
 1629              	.LFE136:
 1631 0936 00BF     		.align	2
 1632              		.global	FLASH_ClearFlag
 1633              		.thumb
 1634              		.thumb_func
 1636              	FLASH_ClearFlag:
 1637              	.LFB137:
 951:../STM32F4xx_StdPeriph_Driver/src/stm32f4xx_flash.c **** 
 952:../STM32F4xx_StdPeriph_Driver/src/stm32f4xx_flash.c **** /**
 953:../STM32F4xx_StdPeriph_Driver/src/stm32f4xx_flash.c ****   * @brief  Clears the FLASH's pending flags.
 954:../STM32F4xx_StdPeriph_Driver/src/stm32f4xx_flash.c ****   * @param  FLASH_FLAG: specifies the FLASH flags to clear.
 955:../STM32F4xx_StdPeriph_Driver/src/stm32f4xx_flash.c ****   *          This parameter can be any combination of the following values:
 956:../STM32F4xx_StdPeriph_Driver/src/stm32f4xx_flash.c ****   *            @arg FLASH_FLAG_EOP: FLASH End of Operation flag 
 957:../STM32F4xx_StdPeriph_Driver/src/stm32f4xx_flash.c ****   *            @arg FLASH_FLAG_OPERR: FLASH operation Error flag 
 958:../STM32F4xx_StdPeriph_Driver/src/stm32f4xx_flash.c ****   *            @arg FLASH_FLAG_WRPERR: FLASH Write protected error flag 
 959:../STM32F4xx_StdPeriph_Driver/src/stm32f4xx_flash.c ****   *            @arg FLASH_FLAG_PGAERR: FLASH Programming Alignment error flag 
 960:../STM32F4xx_StdPeriph_Driver/src/stm32f4xx_flash.c ****   *            @arg FLASH_FLAG_PGPERR: FLASH Programming Parallelism error flag
 961:../STM32F4xx_StdPeriph_Driver/src/stm32f4xx_flash.c ****   *            @arg FLASH_FLAG_PGSERR: FLASH Programming Sequence error flag
 962:../STM32F4xx_StdPeriph_Driver/src/stm32f4xx_flash.c ****   * @retval None
 963:../STM32F4xx_StdPeriph_Driver/src/stm32f4xx_flash.c ****   */
 964:../STM32F4xx_StdPeriph_Driver/src/stm32f4xx_flash.c **** void FLASH_ClearFlag(uint32_t FLASH_FLAG)
 965:../STM32F4xx_StdPeriph_Driver/src/stm32f4xx_flash.c **** {
 1638              		.loc 1 965 0
 1639              		.cfi_startproc
 1640              		@ args = 0, pretend = 0, frame = 8
 1641              		@ frame_needed = 1, uses_anonymous_args = 0
 1642              		@ link register save eliminated.
 1643 0938 80B4     		push	{r7}
 1644              	.LCFI72:
 1645              		.cfi_def_cfa_offset 4
 1646              		.cfi_offset 7, -4
 1647 093a 83B0     		sub	sp, sp, #12
 1648              	.LCFI73:
 1649              		.cfi_def_cfa_offset 16
 1650 093c 00AF     		add	r7, sp, #0
 1651              	.LCFI74:
 1652              		.cfi_def_cfa_register 7
 1653 093e 7860     		str	r0, [r7, #4]
 966:../STM32F4xx_StdPeriph_Driver/src/stm32f4xx_flash.c ****   /* Check the parameters */
 967:../STM32F4xx_StdPeriph_Driver/src/stm32f4xx_flash.c ****   assert_param(IS_FLASH_CLEAR_FLAG(FLASH_FLAG));
 968:../STM32F4xx_StdPeriph_Driver/src/stm32f4xx_flash.c ****   
 969:../STM32F4xx_StdPeriph_Driver/src/stm32f4xx_flash.c ****   /* Clear the flags */
 970:../STM32F4xx_StdPeriph_Driver/src/stm32f4xx_flash.c ****   FLASH->SR = FLASH_FLAG;
 1654              		.loc 1 970 0
 1655 0940 4FF47053 		mov	r3, #15360
 1656 0944 C4F20203 		movt	r3, 16386
 1657 0948 7A68     		ldr	r2, [r7, #4]
 1658 094a DA60     		str	r2, [r3, #12]
 971:../STM32F4xx_StdPeriph_Driver/src/stm32f4xx_flash.c **** }
 1659              		.loc 1 971 0
 1660 094c 07F10C07 		add	r7, r7, #12
 1661 0950 BD46     		mov	sp, r7
 1662 0952 80BC     		pop	{r7}
 1663 0954 7047     		bx	lr
 1664              		.cfi_endproc
 1665              	.LFE137:
 1667 0956 00BF     		.align	2
 1668              		.global	FLASH_GetStatus
 1669              		.thumb
 1670              		.thumb_func
 1672              	FLASH_GetStatus:
 1673              	.LFB138:
 972:../STM32F4xx_StdPeriph_Driver/src/stm32f4xx_flash.c **** 
 973:../STM32F4xx_StdPeriph_Driver/src/stm32f4xx_flash.c **** /**
 974:../STM32F4xx_StdPeriph_Driver/src/stm32f4xx_flash.c ****   * @brief  Returns the FLASH Status.
 975:../STM32F4xx_StdPeriph_Driver/src/stm32f4xx_flash.c ****   * @param  None
 976:../STM32F4xx_StdPeriph_Driver/src/stm32f4xx_flash.c ****   * @retval FLASH Status: The returned value can be: FLASH_BUSY, FLASH_ERROR_PROGRAM,
 977:../STM32F4xx_StdPeriph_Driver/src/stm32f4xx_flash.c ****   *                       FLASH_ERROR_WRP, FLASH_ERROR_OPERATION or FLASH_COMPLETE.
 978:../STM32F4xx_StdPeriph_Driver/src/stm32f4xx_flash.c ****   */
 979:../STM32F4xx_StdPeriph_Driver/src/stm32f4xx_flash.c **** FLASH_Status FLASH_GetStatus(void)
 980:../STM32F4xx_StdPeriph_Driver/src/stm32f4xx_flash.c **** {
 1674              		.loc 1 980 0
 1675              		.cfi_startproc
 1676              		@ args = 0, pretend = 0, frame = 8
 1677              		@ frame_needed = 1, uses_anonymous_args = 0
 1678              		@ link register save eliminated.
 1679 0958 80B4     		push	{r7}
 1680              	.LCFI75:
 1681              		.cfi_def_cfa_offset 4
 1682              		.cfi_offset 7, -4
 1683 095a 83B0     		sub	sp, sp, #12
 1684              	.LCFI76:
 1685              		.cfi_def_cfa_offset 16
 1686 095c 00AF     		add	r7, sp, #0
 1687              	.LCFI77:
 1688              		.cfi_def_cfa_register 7
 981:../STM32F4xx_StdPeriph_Driver/src/stm32f4xx_flash.c ****   FLASH_Status flashstatus = FLASH_COMPLETE;
 1689              		.loc 1 981 0
 1690 095e 4FF00803 		mov	r3, #8
 1691 0962 FB71     		strb	r3, [r7, #7]
 982:../STM32F4xx_StdPeriph_Driver/src/stm32f4xx_flash.c ****   
 983:../STM32F4xx_StdPeriph_Driver/src/stm32f4xx_flash.c ****   if((FLASH->SR & FLASH_FLAG_BSY) == FLASH_FLAG_BSY) 
 1692              		.loc 1 983 0
 1693 0964 4FF47053 		mov	r3, #15360
 1694 0968 C4F20203 		movt	r3, 16386
 1695 096c DB68     		ldr	r3, [r3, #12]
 1696 096e 03F48033 		and	r3, r3, #65536
 1697 0972 002B     		cmp	r3, #0
 1698 0974 03D0     		beq	.L62
 984:../STM32F4xx_StdPeriph_Driver/src/stm32f4xx_flash.c ****   {
 985:../STM32F4xx_StdPeriph_Driver/src/stm32f4xx_flash.c ****     flashstatus = FLASH_BUSY;
 1699              		.loc 1 985 0
 1700 0976 4FF00103 		mov	r3, #1
 1701 097a FB71     		strb	r3, [r7, #7]
 1702 097c 29E0     		b	.L63
 1703              	.L62:
 986:../STM32F4xx_StdPeriph_Driver/src/stm32f4xx_flash.c ****   }
 987:../STM32F4xx_StdPeriph_Driver/src/stm32f4xx_flash.c ****   else 
 988:../STM32F4xx_StdPeriph_Driver/src/stm32f4xx_flash.c ****   {  
 989:../STM32F4xx_StdPeriph_Driver/src/stm32f4xx_flash.c ****     if((FLASH->SR & FLASH_FLAG_WRPERR) != (uint32_t)0x00)
 1704              		.loc 1 989 0
 1705 097e 4FF47053 		mov	r3, #15360
 1706 0982 C4F20203 		movt	r3, 16386
 1707 0986 DB68     		ldr	r3, [r3, #12]
 1708 0988 03F01003 		and	r3, r3, #16
 1709 098c 002B     		cmp	r3, #0
 1710 098e 03D0     		beq	.L64
 990:../STM32F4xx_StdPeriph_Driver/src/stm32f4xx_flash.c ****     { 
 991:../STM32F4xx_StdPeriph_Driver/src/stm32f4xx_flash.c ****       flashstatus = FLASH_ERROR_WRP;
 1711              		.loc 1 991 0
 1712 0990 4FF00503 		mov	r3, #5
 1713 0994 FB71     		strb	r3, [r7, #7]
 1714 0996 1CE0     		b	.L63
 1715              	.L64:
 992:../STM32F4xx_StdPeriph_Driver/src/stm32f4xx_flash.c ****     }
 993:../STM32F4xx_StdPeriph_Driver/src/stm32f4xx_flash.c ****     else 
 994:../STM32F4xx_StdPeriph_Driver/src/stm32f4xx_flash.c ****     {
 995:../STM32F4xx_StdPeriph_Driver/src/stm32f4xx_flash.c ****       if((FLASH->SR & (uint32_t)0xEF) != (uint32_t)0x00)
 1716              		.loc 1 995 0
 1717 0998 4FF47053 		mov	r3, #15360
 1718 099c C4F20203 		movt	r3, 16386
 1719 09a0 DB68     		ldr	r3, [r3, #12]
 1720 09a2 03F0EF03 		and	r3, r3, #239
 1721 09a6 002B     		cmp	r3, #0
 1722 09a8 03D0     		beq	.L65
 996:../STM32F4xx_StdPeriph_Driver/src/stm32f4xx_flash.c ****       {
 997:../STM32F4xx_StdPeriph_Driver/src/stm32f4xx_flash.c ****         flashstatus = FLASH_ERROR_PROGRAM; 
 1723              		.loc 1 997 0
 1724 09aa 4FF00603 		mov	r3, #6
 1725 09ae FB71     		strb	r3, [r7, #7]
 1726 09b0 0FE0     		b	.L63
 1727              	.L65:
 998:../STM32F4xx_StdPeriph_Driver/src/stm32f4xx_flash.c ****       }
 999:../STM32F4xx_StdPeriph_Driver/src/stm32f4xx_flash.c ****       else
1000:../STM32F4xx_StdPeriph_Driver/src/stm32f4xx_flash.c ****       {
1001:../STM32F4xx_StdPeriph_Driver/src/stm32f4xx_flash.c ****         if((FLASH->SR & FLASH_FLAG_OPERR) != (uint32_t)0x00)
 1728              		.loc 1 1001 0
 1729 09b2 4FF47053 		mov	r3, #15360
 1730 09b6 C4F20203 		movt	r3, 16386
 1731 09ba DB68     		ldr	r3, [r3, #12]
 1732 09bc 03F00203 		and	r3, r3, #2
 1733 09c0 002B     		cmp	r3, #0
 1734 09c2 03D0     		beq	.L66
1002:../STM32F4xx_StdPeriph_Driver/src/stm32f4xx_flash.c ****         {
1003:../STM32F4xx_StdPeriph_Driver/src/stm32f4xx_flash.c ****           flashstatus = FLASH_ERROR_OPERATION;
 1735              		.loc 1 1003 0
 1736 09c4 4FF00703 		mov	r3, #7
 1737 09c8 FB71     		strb	r3, [r7, #7]
 1738 09ca 02E0     		b	.L63
 1739              	.L66:
1004:../STM32F4xx_StdPeriph_Driver/src/stm32f4xx_flash.c ****         }
1005:../STM32F4xx_StdPeriph_Driver/src/stm32f4xx_flash.c ****         else
1006:../STM32F4xx_StdPeriph_Driver/src/stm32f4xx_flash.c ****         {
1007:../STM32F4xx_StdPeriph_Driver/src/stm32f4xx_flash.c ****           flashstatus = FLASH_COMPLETE;
 1740              		.loc 1 1007 0
 1741 09cc 4FF00803 		mov	r3, #8
 1742 09d0 FB71     		strb	r3, [r7, #7]
 1743              	.L63:
1008:../STM32F4xx_StdPeriph_Driver/src/stm32f4xx_flash.c ****         }
1009:../STM32F4xx_StdPeriph_Driver/src/stm32f4xx_flash.c ****       }
1010:../STM32F4xx_StdPeriph_Driver/src/stm32f4xx_flash.c ****     }
1011:../STM32F4xx_StdPeriph_Driver/src/stm32f4xx_flash.c ****   }
1012:../STM32F4xx_StdPeriph_Driver/src/stm32f4xx_flash.c ****   /* Return the FLASH Status */
1013:../STM32F4xx_StdPeriph_Driver/src/stm32f4xx_flash.c ****   return flashstatus;
 1744              		.loc 1 1013 0
 1745 09d2 FB79     		ldrb	r3, [r7, #7]	@ zero_extendqisi2
1014:../STM32F4xx_StdPeriph_Driver/src/stm32f4xx_flash.c **** }
 1746              		.loc 1 1014 0
 1747 09d4 1846     		mov	r0, r3
 1748 09d6 07F10C07 		add	r7, r7, #12
 1749 09da BD46     		mov	sp, r7
 1750 09dc 80BC     		pop	{r7}
 1751 09de 7047     		bx	lr
 1752              		.cfi_endproc
 1753              	.LFE138:
 1755              		.align	2
 1756              		.global	FLASH_WaitForLastOperation
 1757              		.thumb
 1758              		.thumb_func
 1760              	FLASH_WaitForLastOperation:
 1761              	.LFB139:
1015:../STM32F4xx_StdPeriph_Driver/src/stm32f4xx_flash.c **** 
1016:../STM32F4xx_StdPeriph_Driver/src/stm32f4xx_flash.c **** /**
1017:../STM32F4xx_StdPeriph_Driver/src/stm32f4xx_flash.c ****   * @brief  Waits for a FLASH operation to complete.
1018:../STM32F4xx_StdPeriph_Driver/src/stm32f4xx_flash.c ****   * @param  None
1019:../STM32F4xx_StdPeriph_Driver/src/stm32f4xx_flash.c ****   * @retval FLASH Status: The returned value can be: FLASH_BUSY, FLASH_ERROR_PROGRAM,
1020:../STM32F4xx_StdPeriph_Driver/src/stm32f4xx_flash.c ****   *                       FLASH_ERROR_WRP, FLASH_ERROR_OPERATION or FLASH_COMPLETE.
1021:../STM32F4xx_StdPeriph_Driver/src/stm32f4xx_flash.c ****   */
1022:../STM32F4xx_StdPeriph_Driver/src/stm32f4xx_flash.c **** FLASH_Status FLASH_WaitForLastOperation(void)
1023:../STM32F4xx_StdPeriph_Driver/src/stm32f4xx_flash.c **** { 
 1762              		.loc 1 1023 0
 1763              		.cfi_startproc
 1764              		@ args = 0, pretend = 0, frame = 8
 1765              		@ frame_needed = 1, uses_anonymous_args = 0
 1766 09e0 80B5     		push	{r7, lr}
 1767              	.LCFI78:
 1768              		.cfi_def_cfa_offset 8
 1769              		.cfi_offset 14, -4
 1770              		.cfi_offset 7, -8
 1771 09e2 82B0     		sub	sp, sp, #8
 1772              	.LCFI79:
 1773              		.cfi_def_cfa_offset 16
 1774 09e4 00AF     		add	r7, sp, #0
 1775              	.LCFI80:
 1776              		.cfi_def_cfa_register 7
1024:../STM32F4xx_StdPeriph_Driver/src/stm32f4xx_flash.c ****   __IO FLASH_Status status = FLASH_COMPLETE;
 1777              		.loc 1 1024 0
 1778 09e6 4FF00803 		mov	r3, #8
 1779 09ea FB71     		strb	r3, [r7, #7]
1025:../STM32F4xx_StdPeriph_Driver/src/stm32f4xx_flash.c ****    
1026:../STM32F4xx_StdPeriph_Driver/src/stm32f4xx_flash.c ****   /* Check for the FLASH Status */
1027:../STM32F4xx_StdPeriph_Driver/src/stm32f4xx_flash.c ****   status = FLASH_GetStatus();
 1780              		.loc 1 1027 0
 1781 09ec FFF7FEFF 		bl	FLASH_GetStatus
 1782 09f0 0346     		mov	r3, r0
 1783 09f2 FB71     		strb	r3, [r7, #7]
1028:../STM32F4xx_StdPeriph_Driver/src/stm32f4xx_flash.c **** 
1029:../STM32F4xx_StdPeriph_Driver/src/stm32f4xx_flash.c ****   /* Wait for the FLASH operation to complete by polling on BUSY flag to be reset.
1030:../STM32F4xx_StdPeriph_Driver/src/stm32f4xx_flash.c ****      Even if the FLASH operation fails, the BUSY flag will be reset and an error
1031:../STM32F4xx_StdPeriph_Driver/src/stm32f4xx_flash.c ****      flag will be set */
1032:../STM32F4xx_StdPeriph_Driver/src/stm32f4xx_flash.c ****   while(status == FLASH_BUSY)
 1784              		.loc 1 1032 0
 1785 09f4 03E0     		b	.L68
 1786              	.L69:
1033:../STM32F4xx_StdPeriph_Driver/src/stm32f4xx_flash.c ****   {
1034:../STM32F4xx_StdPeriph_Driver/src/stm32f4xx_flash.c ****     status = FLASH_GetStatus();
 1787              		.loc 1 1034 0
 1788 09f6 FFF7FEFF 		bl	FLASH_GetStatus
 1789 09fa 0346     		mov	r3, r0
 1790 09fc FB71     		strb	r3, [r7, #7]
 1791              	.L68:
1032:../STM32F4xx_StdPeriph_Driver/src/stm32f4xx_flash.c ****   while(status == FLASH_BUSY)
 1792              		.loc 1 1032 0 discriminator 1
 1793 09fe FB79     		ldrb	r3, [r7, #7]
 1794 0a00 DBB2     		uxtb	r3, r3
 1795 0a02 012B     		cmp	r3, #1
 1796 0a04 F7D0     		beq	.L69
1035:../STM32F4xx_StdPeriph_Driver/src/stm32f4xx_flash.c ****   }
1036:../STM32F4xx_StdPeriph_Driver/src/stm32f4xx_flash.c ****   /* Return the operation status */
1037:../STM32F4xx_StdPeriph_Driver/src/stm32f4xx_flash.c ****   return status;
 1797              		.loc 1 1037 0
 1798 0a06 FB79     		ldrb	r3, [r7, #7]
 1799 0a08 DBB2     		uxtb	r3, r3
1038:../STM32F4xx_StdPeriph_Driver/src/stm32f4xx_flash.c **** }
 1800              		.loc 1 1038 0
 1801 0a0a 1846     		mov	r0, r3
 1802 0a0c 07F10807 		add	r7, r7, #8
 1803 0a10 BD46     		mov	sp, r7
 1804 0a12 80BD     		pop	{r7, pc}
 1805              		.cfi_endproc
 1806              	.LFE139:
 1808              	.Letext0:
 1809              		.file 2 "c:\\chibistudio\\tools\\gnu tools arm embedded\\4.6 2012q2\\bin\\../lib/gcc/arm-none-eabi
 1810              		.file 3 "E:\\Desktop\\thundercyer-the-alarm-clock\\CMSIS\\Device\\STM32F4xx\\Include/stm32f4xx.h"
 1811              		.file 4 "E:\\Desktop\\thundercyer-the-alarm-clock\\STM32F4xx_StdPeriph_Driver\\inc/stm32f4xx_flash
 1812              		.file 5 "E:\\Desktop\\thundercyer-the-alarm-clock\\CMSIS\\Include/core_cm4.h"