   1              		.syntax unified
   2              		.cpu cortex-m4
   3              		.eabi_attribute 27, 3
   4              		.fpu fpv4-sp-d16
   5              		.eabi_attribute 20, 1
   6              		.eabi_attribute 21, 1
   7              		.eabi_attribute 23, 3
   8              		.eabi_attribute 24, 1
   9              		.eabi_attribute 25, 1
  10              		.eabi_attribute 26, 1
  11              		.eabi_attribute 30, 6
  12              		.eabi_attribute 18, 4
  13              		.thumb
  14              		.file	"stm32f4xx_spi.c"
  15              		.text
  16              	.Ltext0:
  17              		.cfi_sections	.debug_frame
  18              		.align	2
  19              		.global	SPI_I2S_DeInit
  20              		.thumb
  21              		.thumb_func
  23              	SPI_I2S_DeInit:
  24              	.LFB110:
  25              		.file 1 "../STM32F4xx_StdPeriph_Driver/src/stm32f4xx_spi.c"
   1:../STM32F4xx_StdPeriph_Driver/src/stm32f4xx_spi.c **** /**
   2:../STM32F4xx_StdPeriph_Driver/src/stm32f4xx_spi.c ****   ******************************************************************************
   3:../STM32F4xx_StdPeriph_Driver/src/stm32f4xx_spi.c ****   * @file    stm32f4xx_spi.c
   4:../STM32F4xx_StdPeriph_Driver/src/stm32f4xx_spi.c ****   * @author  MCD Application Team
   5:../STM32F4xx_StdPeriph_Driver/src/stm32f4xx_spi.c ****   * @version V1.0.0
   6:../STM32F4xx_StdPeriph_Driver/src/stm32f4xx_spi.c ****   * @date    30-September-2011
   7:../STM32F4xx_StdPeriph_Driver/src/stm32f4xx_spi.c ****   * @brief   This file provides firmware functions to manage the following 
   8:../STM32F4xx_StdPeriph_Driver/src/stm32f4xx_spi.c ****   *          functionalities of the Serial peripheral interface (SPI):
   9:../STM32F4xx_StdPeriph_Driver/src/stm32f4xx_spi.c ****   *           - Initialization and Configuration
  10:../STM32F4xx_StdPeriph_Driver/src/stm32f4xx_spi.c ****   *           - Data transfers functions
  11:../STM32F4xx_StdPeriph_Driver/src/stm32f4xx_spi.c ****   *           - Hardware CRC Calculation
  12:../STM32F4xx_StdPeriph_Driver/src/stm32f4xx_spi.c ****   *           - DMA transfers management
  13:../STM32F4xx_StdPeriph_Driver/src/stm32f4xx_spi.c ****   *           - Interrupts and flags management 
  14:../STM32F4xx_StdPeriph_Driver/src/stm32f4xx_spi.c ****   *           
  15:../STM32F4xx_StdPeriph_Driver/src/stm32f4xx_spi.c ****   *  @verbatim
  16:../STM32F4xx_StdPeriph_Driver/src/stm32f4xx_spi.c ****   *          
  17:../STM32F4xx_StdPeriph_Driver/src/stm32f4xx_spi.c ****   *                    
  18:../STM32F4xx_StdPeriph_Driver/src/stm32f4xx_spi.c ****   *          ===================================================================
  19:../STM32F4xx_StdPeriph_Driver/src/stm32f4xx_spi.c ****   *                                 How to use this driver
  20:../STM32F4xx_StdPeriph_Driver/src/stm32f4xx_spi.c ****   *          ===================================================================
  21:../STM32F4xx_StdPeriph_Driver/src/stm32f4xx_spi.c ****   *    
  22:../STM32F4xx_StdPeriph_Driver/src/stm32f4xx_spi.c ****   *          1. Enable peripheral clock using the following functions 
  23:../STM32F4xx_StdPeriph_Driver/src/stm32f4xx_spi.c ****   *             RCC_APB2PeriphClockCmd(RCC_APB2Periph_SPI1, ENABLE) for SPI1
  24:../STM32F4xx_StdPeriph_Driver/src/stm32f4xx_spi.c ****   *             RCC_APB1PeriphClockCmd(RCC_APB1Periph_SPI2, ENABLE) for SPI2
  25:../STM32F4xx_StdPeriph_Driver/src/stm32f4xx_spi.c ****   *             RCC_APB1PeriphResetCmd(RCC_APB1Periph_SPI3, ENABLE) for SPI3.
  26:../STM32F4xx_StdPeriph_Driver/src/stm32f4xx_spi.c ****   *
  27:../STM32F4xx_StdPeriph_Driver/src/stm32f4xx_spi.c ****   *          2. Enable SCK, MOSI, MISO and NSS GPIO clocks using RCC_AHB1PeriphClockCmd()
  28:../STM32F4xx_StdPeriph_Driver/src/stm32f4xx_spi.c ****   *             function.
  29:../STM32F4xx_StdPeriph_Driver/src/stm32f4xx_spi.c ****   *             In I2S mode, if an external clock source is used then the I2S CKIN pin GPIO
  30:../STM32F4xx_StdPeriph_Driver/src/stm32f4xx_spi.c ****   *             clock should also be enabled.
  31:../STM32F4xx_StdPeriph_Driver/src/stm32f4xx_spi.c ****   *
  32:../STM32F4xx_StdPeriph_Driver/src/stm32f4xx_spi.c ****   *          3. Peripherals alternate function: 
  33:../STM32F4xx_StdPeriph_Driver/src/stm32f4xx_spi.c ****   *                 - Connect the pin to the desired peripherals' Alternate 
  34:../STM32F4xx_StdPeriph_Driver/src/stm32f4xx_spi.c ****   *                   Function (AF) using GPIO_PinAFConfig() function
  35:../STM32F4xx_StdPeriph_Driver/src/stm32f4xx_spi.c ****   *                 - Configure the desired pin in alternate function by:
  36:../STM32F4xx_StdPeriph_Driver/src/stm32f4xx_spi.c ****   *                   GPIO_InitStruct->GPIO_Mode = GPIO_Mode_AF
  37:../STM32F4xx_StdPeriph_Driver/src/stm32f4xx_spi.c ****   *                 - Select the type, pull-up/pull-down and output speed via 
  38:../STM32F4xx_StdPeriph_Driver/src/stm32f4xx_spi.c ****   *                   GPIO_PuPd, GPIO_OType and GPIO_Speed members
  39:../STM32F4xx_StdPeriph_Driver/src/stm32f4xx_spi.c ****   *                 - Call GPIO_Init() function
  40:../STM32F4xx_StdPeriph_Driver/src/stm32f4xx_spi.c ****   *              In I2S mode, if an external clock source is used then the I2S CKIN pin
  41:../STM32F4xx_StdPeriph_Driver/src/stm32f4xx_spi.c ****   *              should be also configured in Alternate function Push-pull pull-up mode. 
  42:../STM32F4xx_StdPeriph_Driver/src/stm32f4xx_spi.c ****   *        
  43:../STM32F4xx_StdPeriph_Driver/src/stm32f4xx_spi.c ****   *          4. Program the Polarity, Phase, First Data, Baud Rate Prescaler, Slave 
  44:../STM32F4xx_StdPeriph_Driver/src/stm32f4xx_spi.c ****   *             Management, Peripheral Mode and CRC Polynomial values using the SPI_Init()
  45:../STM32F4xx_StdPeriph_Driver/src/stm32f4xx_spi.c ****   *             function.
  46:../STM32F4xx_StdPeriph_Driver/src/stm32f4xx_spi.c ****   *             In I2S mode, program the Mode, Standard, Data Format, MCLK Output, Audio 
  47:../STM32F4xx_StdPeriph_Driver/src/stm32f4xx_spi.c ****   *             frequency and Polarity using I2S_Init() function.
  48:../STM32F4xx_StdPeriph_Driver/src/stm32f4xx_spi.c ****   *             For I2S mode, make sure that either:
  49:../STM32F4xx_StdPeriph_Driver/src/stm32f4xx_spi.c ****   *              - I2S PLL is configured using the functions RCC_I2SCLKConfig(RCC_I2S2CLKSource_PLL
  50:../STM32F4xx_StdPeriph_Driver/src/stm32f4xx_spi.c ****   *                RCC_PLLI2SCmd(ENABLE) and RCC_GetFlagStatus(RCC_FLAG_PLLI2SRDY).
  51:../STM32F4xx_StdPeriph_Driver/src/stm32f4xx_spi.c ****   *              or 
  52:../STM32F4xx_StdPeriph_Driver/src/stm32f4xx_spi.c ****   *              - External clock source is configured using the function 
  53:../STM32F4xx_StdPeriph_Driver/src/stm32f4xx_spi.c ****   *                RCC_I2SCLKConfig(RCC_I2S2CLKSource_Ext) and after setting correctly the define c
  54:../STM32F4xx_StdPeriph_Driver/src/stm32f4xx_spi.c ****   *                I2S_EXTERNAL_CLOCK_VAL in the stm32f4xx_conf.h file. 
  55:../STM32F4xx_StdPeriph_Driver/src/stm32f4xx_spi.c ****   *
  56:../STM32F4xx_StdPeriph_Driver/src/stm32f4xx_spi.c ****   *          5. Enable the NVIC and the corresponding interrupt using the function 
  57:../STM32F4xx_StdPeriph_Driver/src/stm32f4xx_spi.c ****   *             SPI_ITConfig() if you need to use interrupt mode. 
  58:../STM32F4xx_StdPeriph_Driver/src/stm32f4xx_spi.c ****   *
  59:../STM32F4xx_StdPeriph_Driver/src/stm32f4xx_spi.c ****   *          6. When using the DMA mode 
  60:../STM32F4xx_StdPeriph_Driver/src/stm32f4xx_spi.c ****   *                   - Configure the DMA using DMA_Init() function
  61:../STM32F4xx_StdPeriph_Driver/src/stm32f4xx_spi.c ****   *                   - Active the needed channel Request using SPI_I2S_DMACmd() function
  62:../STM32F4xx_StdPeriph_Driver/src/stm32f4xx_spi.c ****   * 
  63:../STM32F4xx_StdPeriph_Driver/src/stm32f4xx_spi.c ****   *          7. Enable the SPI using the SPI_Cmd() function or enable the I2S using
  64:../STM32F4xx_StdPeriph_Driver/src/stm32f4xx_spi.c ****   *             I2S_Cmd().
  65:../STM32F4xx_StdPeriph_Driver/src/stm32f4xx_spi.c ****   * 
  66:../STM32F4xx_StdPeriph_Driver/src/stm32f4xx_spi.c ****   *          8. Enable the DMA using the DMA_Cmd() function when using DMA mode. 
  67:../STM32F4xx_StdPeriph_Driver/src/stm32f4xx_spi.c ****   *
  68:../STM32F4xx_StdPeriph_Driver/src/stm32f4xx_spi.c ****   *          9. Optionally, you can enable/configure the following parameters without
  69:../STM32F4xx_StdPeriph_Driver/src/stm32f4xx_spi.c ****   *             re-initialization (i.e there is no need to call again SPI_Init() function):
  70:../STM32F4xx_StdPeriph_Driver/src/stm32f4xx_spi.c ****   *              - When bidirectional mode (SPI_Direction_1Line_Rx or SPI_Direction_1Line_Tx)
  71:../STM32F4xx_StdPeriph_Driver/src/stm32f4xx_spi.c ****   *                is programmed as Data direction parameter using the SPI_Init() function
  72:../STM32F4xx_StdPeriph_Driver/src/stm32f4xx_spi.c ****   *                it can be possible to switch between SPI_Direction_Tx or SPI_Direction_Rx
  73:../STM32F4xx_StdPeriph_Driver/src/stm32f4xx_spi.c ****   *                using the SPI_BiDirectionalLineConfig() function.
  74:../STM32F4xx_StdPeriph_Driver/src/stm32f4xx_spi.c ****   *              - When SPI_NSS_Soft is selected as Slave Select Management parameter 
  75:../STM32F4xx_StdPeriph_Driver/src/stm32f4xx_spi.c ****   *                using the SPI_Init() function it can be possible to manage the 
  76:../STM32F4xx_StdPeriph_Driver/src/stm32f4xx_spi.c ****   *                NSS internal signal using the SPI_NSSInternalSoftwareConfig() function.
  77:../STM32F4xx_StdPeriph_Driver/src/stm32f4xx_spi.c ****   *              - Reconfigure the data size using the SPI_DataSizeConfig() function  
  78:../STM32F4xx_StdPeriph_Driver/src/stm32f4xx_spi.c ****   *              - Enable or disable the SS output using the SPI_SSOutputCmd() function  
  79:../STM32F4xx_StdPeriph_Driver/src/stm32f4xx_spi.c ****   *          
  80:../STM32F4xx_StdPeriph_Driver/src/stm32f4xx_spi.c ****   *          10. To use the CRC Hardware calculation feature refer to the Peripheral 
  81:../STM32F4xx_StdPeriph_Driver/src/stm32f4xx_spi.c ****   *              CRC hardware Calculation subsection.
  82:../STM32F4xx_StdPeriph_Driver/src/stm32f4xx_spi.c ****   *   
  83:../STM32F4xx_StdPeriph_Driver/src/stm32f4xx_spi.c ****   *
  84:../STM32F4xx_StdPeriph_Driver/src/stm32f4xx_spi.c ****   *          It is possible to use SPI in I2S full duplex mode, in this case, each SPI 
  85:../STM32F4xx_StdPeriph_Driver/src/stm32f4xx_spi.c ****   *          peripheral is able to manage sending and receiving data simultaneously
  86:../STM32F4xx_StdPeriph_Driver/src/stm32f4xx_spi.c ****   *          using two data lines. Each SPI peripheral has an extended block called I2Sxext
  87:../STM32F4xx_StdPeriph_Driver/src/stm32f4xx_spi.c ****   *          (ie. I2S2ext for SPI2 and I2S3ext for SPI3).
  88:../STM32F4xx_StdPeriph_Driver/src/stm32f4xx_spi.c ****   *          The extension block is not a full SPI IP, it is used only as I2S slave to
  89:../STM32F4xx_StdPeriph_Driver/src/stm32f4xx_spi.c ****   *          implement full duplex mode. The extension block uses the same clock sources
  90:../STM32F4xx_StdPeriph_Driver/src/stm32f4xx_spi.c ****   *          as its master.          
  91:../STM32F4xx_StdPeriph_Driver/src/stm32f4xx_spi.c ****   *          To configure I2S full duplex you have to:
  92:../STM32F4xx_StdPeriph_Driver/src/stm32f4xx_spi.c ****   *            
  93:../STM32F4xx_StdPeriph_Driver/src/stm32f4xx_spi.c ****   *          1. Configure SPIx in I2S mode (I2S_Init() function) as described above. 
  94:../STM32F4xx_StdPeriph_Driver/src/stm32f4xx_spi.c ****   *           
  95:../STM32F4xx_StdPeriph_Driver/src/stm32f4xx_spi.c ****   *          2. Call the I2S_FullDuplexConfig() function using the same strucutre passed to  
  96:../STM32F4xx_StdPeriph_Driver/src/stm32f4xx_spi.c ****   *             I2S_Init() function.
  97:../STM32F4xx_StdPeriph_Driver/src/stm32f4xx_spi.c ****   *            
  98:../STM32F4xx_StdPeriph_Driver/src/stm32f4xx_spi.c ****   *          3. Call I2S_Cmd() for SPIx then for its extended block.
  99:../STM32F4xx_StdPeriph_Driver/src/stm32f4xx_spi.c ****   *          
 100:../STM32F4xx_StdPeriph_Driver/src/stm32f4xx_spi.c ****   *          4. To configure interrupts or DMA requests and to get/clear flag status, 
 101:../STM32F4xx_StdPeriph_Driver/src/stm32f4xx_spi.c ****   *             use I2Sxext instance for the extension block.
 102:../STM32F4xx_StdPeriph_Driver/src/stm32f4xx_spi.c ****   *             
 103:../STM32F4xx_StdPeriph_Driver/src/stm32f4xx_spi.c ****   *          Functions that can be called with I2Sxext instances are:
 104:../STM32F4xx_StdPeriph_Driver/src/stm32f4xx_spi.c ****   *          I2S_Cmd(), I2S_FullDuplexConfig(), SPI_I2S_ReceiveData(), SPI_I2S_SendData(), 
 105:../STM32F4xx_StdPeriph_Driver/src/stm32f4xx_spi.c ****   *          SPI_I2S_DMACmd(), SPI_I2S_ITConfig(), SPI_I2S_GetFlagStatus(), SPI_I2S_ClearFlag(),
 106:../STM32F4xx_StdPeriph_Driver/src/stm32f4xx_spi.c ****   *          SPI_I2S_GetITStatus() and SPI_I2S_ClearITPendingBit().
 107:../STM32F4xx_StdPeriph_Driver/src/stm32f4xx_spi.c ****   *                 
 108:../STM32F4xx_StdPeriph_Driver/src/stm32f4xx_spi.c ****   *          Example: To use SPI3 in Full duplex mode (SPI3 is Master Tx, I2S3ext is Slave Rx):
 109:../STM32F4xx_StdPeriph_Driver/src/stm32f4xx_spi.c ****   *            
 110:../STM32F4xx_StdPeriph_Driver/src/stm32f4xx_spi.c ****   *          RCC_APB1PeriphClockCmd(RCC_APB1Periph_SPI3, ENABLE);   
 111:../STM32F4xx_StdPeriph_Driver/src/stm32f4xx_spi.c ****   *          I2S_StructInit(&I2SInitStruct);
 112:../STM32F4xx_StdPeriph_Driver/src/stm32f4xx_spi.c ****   *          I2SInitStruct.Mode = I2S_Mode_MasterTx;     
 113:../STM32F4xx_StdPeriph_Driver/src/stm32f4xx_spi.c ****   *          I2S_Init(SPI3, &I2SInitStruct);
 114:../STM32F4xx_StdPeriph_Driver/src/stm32f4xx_spi.c ****   *          I2S_FullDuplexConfig(SPI3ext, &I2SInitStruct)
 115:../STM32F4xx_StdPeriph_Driver/src/stm32f4xx_spi.c ****   *          I2S_Cmd(SPI3, ENABLE);
 116:../STM32F4xx_StdPeriph_Driver/src/stm32f4xx_spi.c ****   *          I2S_Cmd(SPI3ext, ENABLE);
 117:../STM32F4xx_StdPeriph_Driver/src/stm32f4xx_spi.c ****   *          ...
 118:../STM32F4xx_StdPeriph_Driver/src/stm32f4xx_spi.c ****   *          while (SPI_I2S_GetFlagStatus(SPI2, SPI_FLAG_TXE) == RESET)
 119:../STM32F4xx_StdPeriph_Driver/src/stm32f4xx_spi.c ****   *          {}
 120:../STM32F4xx_StdPeriph_Driver/src/stm32f4xx_spi.c ****   *          SPI_I2S_SendData(SPI3, txdata[i]);
 121:../STM32F4xx_StdPeriph_Driver/src/stm32f4xx_spi.c ****   *          ...  
 122:../STM32F4xx_StdPeriph_Driver/src/stm32f4xx_spi.c ****   *          while (SPI_I2S_GetFlagStatus(I2S3ext, SPI_FLAG_RXNE) == RESET)
 123:../STM32F4xx_StdPeriph_Driver/src/stm32f4xx_spi.c ****   *          {}
 124:../STM32F4xx_StdPeriph_Driver/src/stm32f4xx_spi.c ****   *          rxdata[i] = SPI_I2S_ReceiveData(I2S3ext);
 125:../STM32F4xx_StdPeriph_Driver/src/stm32f4xx_spi.c ****   *          ...          
 126:../STM32F4xx_StdPeriph_Driver/src/stm32f4xx_spi.c ****   *              
 127:../STM32F4xx_StdPeriph_Driver/src/stm32f4xx_spi.c ****   *     
 128:../STM32F4xx_StdPeriph_Driver/src/stm32f4xx_spi.c ****   * @note    In I2S mode: if an external clock is used as source clock for the I2S,  
 129:../STM32F4xx_StdPeriph_Driver/src/stm32f4xx_spi.c ****   *          then the define I2S_EXTERNAL_CLOCK_VAL in file stm32f4xx_conf.h should 
 130:../STM32F4xx_StdPeriph_Driver/src/stm32f4xx_spi.c ****   *          be enabled and set to the value of the source clock frequency (in Hz).
 131:../STM32F4xx_StdPeriph_Driver/src/stm32f4xx_spi.c ****   * 
 132:../STM32F4xx_StdPeriph_Driver/src/stm32f4xx_spi.c ****   * @note    In SPI mode: To use the SPI TI mode, call the function SPI_TIModeCmd() 
 133:../STM32F4xx_StdPeriph_Driver/src/stm32f4xx_spi.c ****   *          just after calling the function SPI_Init().
 134:../STM32F4xx_StdPeriph_Driver/src/stm32f4xx_spi.c ****   *
 135:../STM32F4xx_StdPeriph_Driver/src/stm32f4xx_spi.c ****   *  @endverbatim  
 136:../STM32F4xx_StdPeriph_Driver/src/stm32f4xx_spi.c ****   *                                  
 137:../STM32F4xx_StdPeriph_Driver/src/stm32f4xx_spi.c ****   ******************************************************************************
 138:../STM32F4xx_StdPeriph_Driver/src/stm32f4xx_spi.c ****   * @attention
 139:../STM32F4xx_StdPeriph_Driver/src/stm32f4xx_spi.c ****   *
 140:../STM32F4xx_StdPeriph_Driver/src/stm32f4xx_spi.c ****   * THE PRESENT FIRMWARE WHICH IS FOR GUIDANCE ONLY AIMS AT PROVIDING CUSTOMERS
 141:../STM32F4xx_StdPeriph_Driver/src/stm32f4xx_spi.c ****   * WITH CODING INFORMATION REGARDING THEIR PRODUCTS IN ORDER FOR THEM TO SAVE
 142:../STM32F4xx_StdPeriph_Driver/src/stm32f4xx_spi.c ****   * TIME. AS A RESULT, STMICROELECTRONICS SHALL NOT BE HELD LIABLE FOR ANY
 143:../STM32F4xx_StdPeriph_Driver/src/stm32f4xx_spi.c ****   * DIRECT, INDIRECT OR CONSEQUENTIAL DAMAGES WITH RESPECT TO ANY CLAIMS ARISING
 144:../STM32F4xx_StdPeriph_Driver/src/stm32f4xx_spi.c ****   * FROM THE CONTENT OF SUCH FIRMWARE AND/OR THE USE MADE BY CUSTOMERS OF THE
 145:../STM32F4xx_StdPeriph_Driver/src/stm32f4xx_spi.c ****   * CODING INFORMATION CONTAINED HEREIN IN CONNECTION WITH THEIR PRODUCTS.
 146:../STM32F4xx_StdPeriph_Driver/src/stm32f4xx_spi.c ****   *
 147:../STM32F4xx_StdPeriph_Driver/src/stm32f4xx_spi.c ****   * <h2><center>&copy; COPYRIGHT 2011 STMicroelectronics</center></h2>
 148:../STM32F4xx_StdPeriph_Driver/src/stm32f4xx_spi.c ****   ******************************************************************************  
 149:../STM32F4xx_StdPeriph_Driver/src/stm32f4xx_spi.c ****   */ 
 150:../STM32F4xx_StdPeriph_Driver/src/stm32f4xx_spi.c **** 
 151:../STM32F4xx_StdPeriph_Driver/src/stm32f4xx_spi.c **** /* Includes ------------------------------------------------------------------*/
 152:../STM32F4xx_StdPeriph_Driver/src/stm32f4xx_spi.c **** #include "stm32f4xx_spi.h"
 153:../STM32F4xx_StdPeriph_Driver/src/stm32f4xx_spi.c **** #include "stm32f4xx_rcc.h"
 154:../STM32F4xx_StdPeriph_Driver/src/stm32f4xx_spi.c **** 
 155:../STM32F4xx_StdPeriph_Driver/src/stm32f4xx_spi.c **** /** @addtogroup STM32F4xx_StdPeriph_Driver
 156:../STM32F4xx_StdPeriph_Driver/src/stm32f4xx_spi.c ****   * @{
 157:../STM32F4xx_StdPeriph_Driver/src/stm32f4xx_spi.c ****   */
 158:../STM32F4xx_StdPeriph_Driver/src/stm32f4xx_spi.c **** 
 159:../STM32F4xx_StdPeriph_Driver/src/stm32f4xx_spi.c **** /** @defgroup SPI 
 160:../STM32F4xx_StdPeriph_Driver/src/stm32f4xx_spi.c ****   * @brief SPI driver modules
 161:../STM32F4xx_StdPeriph_Driver/src/stm32f4xx_spi.c ****   * @{
 162:../STM32F4xx_StdPeriph_Driver/src/stm32f4xx_spi.c ****   */ 
 163:../STM32F4xx_StdPeriph_Driver/src/stm32f4xx_spi.c **** 
 164:../STM32F4xx_StdPeriph_Driver/src/stm32f4xx_spi.c **** /* Private typedef -----------------------------------------------------------*/
 165:../STM32F4xx_StdPeriph_Driver/src/stm32f4xx_spi.c **** /* Private define ------------------------------------------------------------*/
 166:../STM32F4xx_StdPeriph_Driver/src/stm32f4xx_spi.c **** 
 167:../STM32F4xx_StdPeriph_Driver/src/stm32f4xx_spi.c **** /* SPI registers Masks */
 168:../STM32F4xx_StdPeriph_Driver/src/stm32f4xx_spi.c **** #define CR1_CLEAR_MASK            ((uint16_t)0x3040)
 169:../STM32F4xx_StdPeriph_Driver/src/stm32f4xx_spi.c **** #define I2SCFGR_CLEAR_MASK        ((uint16_t)0xF040)
 170:../STM32F4xx_StdPeriph_Driver/src/stm32f4xx_spi.c **** 
 171:../STM32F4xx_StdPeriph_Driver/src/stm32f4xx_spi.c **** /* RCC PLLs masks */
 172:../STM32F4xx_StdPeriph_Driver/src/stm32f4xx_spi.c **** #define PLLCFGR_PPLR_MASK         ((uint32_t)0x70000000)
 173:../STM32F4xx_StdPeriph_Driver/src/stm32f4xx_spi.c **** #define PLLCFGR_PPLN_MASK         ((uint32_t)0x00007FC0)
 174:../STM32F4xx_StdPeriph_Driver/src/stm32f4xx_spi.c **** 
 175:../STM32F4xx_StdPeriph_Driver/src/stm32f4xx_spi.c **** #define SPI_CR2_FRF               ((uint16_t)0x0010)
 176:../STM32F4xx_StdPeriph_Driver/src/stm32f4xx_spi.c **** #define SPI_SR_TIFRFE             ((uint16_t)0x0100)
 177:../STM32F4xx_StdPeriph_Driver/src/stm32f4xx_spi.c **** 
 178:../STM32F4xx_StdPeriph_Driver/src/stm32f4xx_spi.c **** /* Private macro -------------------------------------------------------------*/
 179:../STM32F4xx_StdPeriph_Driver/src/stm32f4xx_spi.c **** /* Private variables ---------------------------------------------------------*/
 180:../STM32F4xx_StdPeriph_Driver/src/stm32f4xx_spi.c **** /* Private function prototypes -----------------------------------------------*/
 181:../STM32F4xx_StdPeriph_Driver/src/stm32f4xx_spi.c **** /* Private functions ---------------------------------------------------------*/
 182:../STM32F4xx_StdPeriph_Driver/src/stm32f4xx_spi.c **** 
 183:../STM32F4xx_StdPeriph_Driver/src/stm32f4xx_spi.c **** /** @defgroup SPI_Private_Functions
 184:../STM32F4xx_StdPeriph_Driver/src/stm32f4xx_spi.c ****   * @{
 185:../STM32F4xx_StdPeriph_Driver/src/stm32f4xx_spi.c ****   */
 186:../STM32F4xx_StdPeriph_Driver/src/stm32f4xx_spi.c **** 
 187:../STM32F4xx_StdPeriph_Driver/src/stm32f4xx_spi.c **** /** @defgroup SPI_Group1 Initialization and Configuration functions
 188:../STM32F4xx_StdPeriph_Driver/src/stm32f4xx_spi.c ****  *  @brief   Initialization and Configuration functions 
 189:../STM32F4xx_StdPeriph_Driver/src/stm32f4xx_spi.c ****  *
 190:../STM32F4xx_StdPeriph_Driver/src/stm32f4xx_spi.c **** @verbatim   
 191:../STM32F4xx_StdPeriph_Driver/src/stm32f4xx_spi.c ****  ===============================================================================
 192:../STM32F4xx_StdPeriph_Driver/src/stm32f4xx_spi.c ****                   Initialization and Configuration functions
 193:../STM32F4xx_StdPeriph_Driver/src/stm32f4xx_spi.c ****  ===============================================================================  
 194:../STM32F4xx_StdPeriph_Driver/src/stm32f4xx_spi.c **** 
 195:../STM32F4xx_StdPeriph_Driver/src/stm32f4xx_spi.c ****   This section provides a set of functions allowing to initialize the SPI Direction,
 196:../STM32F4xx_StdPeriph_Driver/src/stm32f4xx_spi.c ****   SPI Mode, SPI Data Size, SPI Polarity, SPI Phase, SPI NSS Management, SPI Baud
 197:../STM32F4xx_StdPeriph_Driver/src/stm32f4xx_spi.c ****   Rate Prescaler, SPI First Bit and SPI CRC Polynomial.
 198:../STM32F4xx_StdPeriph_Driver/src/stm32f4xx_spi.c ****   
 199:../STM32F4xx_StdPeriph_Driver/src/stm32f4xx_spi.c ****   The SPI_Init() function follows the SPI configuration procedures for Master mode
 200:../STM32F4xx_StdPeriph_Driver/src/stm32f4xx_spi.c ****   and Slave mode (details for these procedures are available in reference manual
 201:../STM32F4xx_StdPeriph_Driver/src/stm32f4xx_spi.c ****   (RM0090)).
 202:../STM32F4xx_StdPeriph_Driver/src/stm32f4xx_spi.c ****   
 203:../STM32F4xx_StdPeriph_Driver/src/stm32f4xx_spi.c **** @endverbatim
 204:../STM32F4xx_StdPeriph_Driver/src/stm32f4xx_spi.c ****   * @{
 205:../STM32F4xx_StdPeriph_Driver/src/stm32f4xx_spi.c ****   */
 206:../STM32F4xx_StdPeriph_Driver/src/stm32f4xx_spi.c **** 
 207:../STM32F4xx_StdPeriph_Driver/src/stm32f4xx_spi.c **** /**
 208:../STM32F4xx_StdPeriph_Driver/src/stm32f4xx_spi.c ****   * @brief  Deinitialize the SPIx peripheral registers to their default reset values.
 209:../STM32F4xx_StdPeriph_Driver/src/stm32f4xx_spi.c ****   * @param  SPIx: To select the SPIx/I2Sx peripheral, where x can be: 1, 2 or 3 
 210:../STM32F4xx_StdPeriph_Driver/src/stm32f4xx_spi.c ****   *         in SPI mode or 2 or 3 in I2S mode.   
 211:../STM32F4xx_StdPeriph_Driver/src/stm32f4xx_spi.c ****   *         
 212:../STM32F4xx_StdPeriph_Driver/src/stm32f4xx_spi.c ****   * @note   The extended I2S blocks (ie. I2S2ext and I2S3ext blocks) are deinitialized
 213:../STM32F4xx_StdPeriph_Driver/src/stm32f4xx_spi.c ****   *         when the relative I2S peripheral is deinitialized (the extended block's clock
 214:../STM32F4xx_StdPeriph_Driver/src/stm32f4xx_spi.c ****   *         is managed by the I2S peripheral clock).
 215:../STM32F4xx_StdPeriph_Driver/src/stm32f4xx_spi.c ****   *             
 216:../STM32F4xx_StdPeriph_Driver/src/stm32f4xx_spi.c ****   * @retval None
 217:../STM32F4xx_StdPeriph_Driver/src/stm32f4xx_spi.c ****   */
 218:../STM32F4xx_StdPeriph_Driver/src/stm32f4xx_spi.c **** void SPI_I2S_DeInit(SPI_TypeDef* SPIx)
 219:../STM32F4xx_StdPeriph_Driver/src/stm32f4xx_spi.c **** {
  26              		.loc 1 219 0
  27              		.cfi_startproc
  28              		@ args = 0, pretend = 0, frame = 8
  29              		@ frame_needed = 1, uses_anonymous_args = 0
  30 0000 80B5     		push	{r7, lr}
  31              	.LCFI0:
  32              		.cfi_def_cfa_offset 8
  33              		.cfi_offset 14, -4
  34              		.cfi_offset 7, -8
  35 0002 82B0     		sub	sp, sp, #8
  36              	.LCFI1:
  37              		.cfi_def_cfa_offset 16
  38 0004 00AF     		add	r7, sp, #0
  39              	.LCFI2:
  40              		.cfi_def_cfa_register 7
  41 0006 7860     		str	r0, [r7, #4]
 220:../STM32F4xx_StdPeriph_Driver/src/stm32f4xx_spi.c ****   /* Check the parameters */
 221:../STM32F4xx_StdPeriph_Driver/src/stm32f4xx_spi.c ****   assert_param(IS_SPI_ALL_PERIPH(SPIx));
 222:../STM32F4xx_StdPeriph_Driver/src/stm32f4xx_spi.c **** 
 223:../STM32F4xx_StdPeriph_Driver/src/stm32f4xx_spi.c ****   if (SPIx == SPI1)
  42              		.loc 1 223 0
  43 0008 7A68     		ldr	r2, [r7, #4]
  44 000a 4FF44053 		mov	r3, #12288
  45 000e C4F20103 		movt	r3, 16385
  46 0012 9A42     		cmp	r2, r3
  47 0014 0CD1     		bne	.L2
 224:../STM32F4xx_StdPeriph_Driver/src/stm32f4xx_spi.c ****   {
 225:../STM32F4xx_StdPeriph_Driver/src/stm32f4xx_spi.c ****     /* Enable SPI1 reset state */
 226:../STM32F4xx_StdPeriph_Driver/src/stm32f4xx_spi.c ****     RCC_APB2PeriphResetCmd(RCC_APB2Periph_SPI1, ENABLE);
  48              		.loc 1 226 0
  49 0016 4FF48050 		mov	r0, #4096
  50 001a 4FF00101 		mov	r1, #1
  51 001e FFF7FEFF 		bl	RCC_APB2PeriphResetCmd
 227:../STM32F4xx_StdPeriph_Driver/src/stm32f4xx_spi.c ****     /* Release SPI1 from reset state */
 228:../STM32F4xx_StdPeriph_Driver/src/stm32f4xx_spi.c ****     RCC_APB2PeriphResetCmd(RCC_APB2Periph_SPI1, DISABLE);
  52              		.loc 1 228 0
  53 0022 4FF48050 		mov	r0, #4096
  54 0026 4FF00001 		mov	r1, #0
  55 002a FFF7FEFF 		bl	RCC_APB2PeriphResetCmd
  56 002e 26E0     		b	.L1
  57              	.L2:
 229:../STM32F4xx_StdPeriph_Driver/src/stm32f4xx_spi.c ****   }
 230:../STM32F4xx_StdPeriph_Driver/src/stm32f4xx_spi.c ****   else if (SPIx == SPI2)
  58              		.loc 1 230 0
  59 0030 7A68     		ldr	r2, [r7, #4]
  60 0032 4FF46053 		mov	r3, #14336
  61 0036 C4F20003 		movt	r3, 16384
  62 003a 9A42     		cmp	r2, r3
  63 003c 0CD1     		bne	.L4
 231:../STM32F4xx_StdPeriph_Driver/src/stm32f4xx_spi.c ****   {
 232:../STM32F4xx_StdPeriph_Driver/src/stm32f4xx_spi.c ****     /* Enable SPI2 reset state */
 233:../STM32F4xx_StdPeriph_Driver/src/stm32f4xx_spi.c ****     RCC_APB1PeriphResetCmd(RCC_APB1Periph_SPI2, ENABLE);
  64              		.loc 1 233 0
  65 003e 4FF48040 		mov	r0, #16384
  66 0042 4FF00101 		mov	r1, #1
  67 0046 FFF7FEFF 		bl	RCC_APB1PeriphResetCmd
 234:../STM32F4xx_StdPeriph_Driver/src/stm32f4xx_spi.c ****     /* Release SPI2 from reset state */
 235:../STM32F4xx_StdPeriph_Driver/src/stm32f4xx_spi.c ****     RCC_APB1PeriphResetCmd(RCC_APB1Periph_SPI2, DISABLE);
  68              		.loc 1 235 0
  69 004a 4FF48040 		mov	r0, #16384
  70 004e 4FF00001 		mov	r1, #0
  71 0052 FFF7FEFF 		bl	RCC_APB1PeriphResetCmd
  72 0056 12E0     		b	.L1
  73              	.L4:
 236:../STM32F4xx_StdPeriph_Driver/src/stm32f4xx_spi.c ****     }
 237:../STM32F4xx_StdPeriph_Driver/src/stm32f4xx_spi.c ****   else
 238:../STM32F4xx_StdPeriph_Driver/src/stm32f4xx_spi.c ****   {
 239:../STM32F4xx_StdPeriph_Driver/src/stm32f4xx_spi.c ****     if (SPIx == SPI3)
  74              		.loc 1 239 0
  75 0058 7A68     		ldr	r2, [r7, #4]
  76 005a 4FF47053 		mov	r3, #15360
  77 005e C4F20003 		movt	r3, 16384
  78 0062 9A42     		cmp	r2, r3
  79 0064 0BD1     		bne	.L1
 240:../STM32F4xx_StdPeriph_Driver/src/stm32f4xx_spi.c ****     {
 241:../STM32F4xx_StdPeriph_Driver/src/stm32f4xx_spi.c ****       /* Enable SPI3 reset state */
 242:../STM32F4xx_StdPeriph_Driver/src/stm32f4xx_spi.c ****       RCC_APB1PeriphResetCmd(RCC_APB1Periph_SPI3, ENABLE);
  80              		.loc 1 242 0
  81 0066 4FF40040 		mov	r0, #32768
  82 006a 4FF00101 		mov	r1, #1
  83 006e FFF7FEFF 		bl	RCC_APB1PeriphResetCmd
 243:../STM32F4xx_StdPeriph_Driver/src/stm32f4xx_spi.c ****       /* Release SPI3 from reset state */
 244:../STM32F4xx_StdPeriph_Driver/src/stm32f4xx_spi.c ****       RCC_APB1PeriphResetCmd(RCC_APB1Periph_SPI3, DISABLE);
  84              		.loc 1 244 0
  85 0072 4FF40040 		mov	r0, #32768
  86 0076 4FF00001 		mov	r1, #0
  87 007a FFF7FEFF 		bl	RCC_APB1PeriphResetCmd
  88              	.L1:
 245:../STM32F4xx_StdPeriph_Driver/src/stm32f4xx_spi.c ****     }
 246:../STM32F4xx_StdPeriph_Driver/src/stm32f4xx_spi.c ****   }
 247:../STM32F4xx_StdPeriph_Driver/src/stm32f4xx_spi.c **** }
  89              		.loc 1 247 0
  90 007e 07F10807 		add	r7, r7, #8
  91 0082 BD46     		mov	sp, r7
  92 0084 80BD     		pop	{r7, pc}
  93              		.cfi_endproc
  94              	.LFE110:
  96 0086 00BF     		.align	2
  97              		.global	SPI_Init
  98              		.thumb
  99              		.thumb_func
 101              	SPI_Init:
 102              	.LFB111:
 248:../STM32F4xx_StdPeriph_Driver/src/stm32f4xx_spi.c **** 
 249:../STM32F4xx_StdPeriph_Driver/src/stm32f4xx_spi.c **** /**
 250:../STM32F4xx_StdPeriph_Driver/src/stm32f4xx_spi.c ****   * @brief  Initializes the SPIx peripheral according to the specified 
 251:../STM32F4xx_StdPeriph_Driver/src/stm32f4xx_spi.c ****   *         parameters in the SPI_InitStruct.
 252:../STM32F4xx_StdPeriph_Driver/src/stm32f4xx_spi.c ****   * @param  SPIx: where x can be 1, 2 or 3 to select the SPI peripheral.
 253:../STM32F4xx_StdPeriph_Driver/src/stm32f4xx_spi.c ****   * @param  SPI_InitStruct: pointer to a SPI_InitTypeDef structure that
 254:../STM32F4xx_StdPeriph_Driver/src/stm32f4xx_spi.c ****   *         contains the configuration information for the specified SPI peripheral.
 255:../STM32F4xx_StdPeriph_Driver/src/stm32f4xx_spi.c ****   * @retval None
 256:../STM32F4xx_StdPeriph_Driver/src/stm32f4xx_spi.c ****   */
 257:../STM32F4xx_StdPeriph_Driver/src/stm32f4xx_spi.c **** void SPI_Init(SPI_TypeDef* SPIx, SPI_InitTypeDef* SPI_InitStruct)
 258:../STM32F4xx_StdPeriph_Driver/src/stm32f4xx_spi.c **** {
 103              		.loc 1 258 0
 104              		.cfi_startproc
 105              		@ args = 0, pretend = 0, frame = 16
 106              		@ frame_needed = 1, uses_anonymous_args = 0
 107              		@ link register save eliminated.
 108 0088 80B4     		push	{r7}
 109              	.LCFI3:
 110              		.cfi_def_cfa_offset 4
 111              		.cfi_offset 7, -4
 112 008a 85B0     		sub	sp, sp, #20
 113              	.LCFI4:
 114              		.cfi_def_cfa_offset 24
 115 008c 00AF     		add	r7, sp, #0
 116              	.LCFI5:
 117              		.cfi_def_cfa_register 7
 118 008e 7860     		str	r0, [r7, #4]
 119 0090 3960     		str	r1, [r7, #0]
 259:../STM32F4xx_StdPeriph_Driver/src/stm32f4xx_spi.c ****   uint16_t tmpreg = 0;
 120              		.loc 1 259 0
 121 0092 4FF00003 		mov	r3, #0
 122 0096 FB81     		strh	r3, [r7, #14]	@ movhi
 260:../STM32F4xx_StdPeriph_Driver/src/stm32f4xx_spi.c ****   
 261:../STM32F4xx_StdPeriph_Driver/src/stm32f4xx_spi.c ****   /* check the parameters */
 262:../STM32F4xx_StdPeriph_Driver/src/stm32f4xx_spi.c ****   assert_param(IS_SPI_ALL_PERIPH(SPIx));
 263:../STM32F4xx_StdPeriph_Driver/src/stm32f4xx_spi.c ****   
 264:../STM32F4xx_StdPeriph_Driver/src/stm32f4xx_spi.c ****   /* Check the SPI parameters */
 265:../STM32F4xx_StdPeriph_Driver/src/stm32f4xx_spi.c ****   assert_param(IS_SPI_DIRECTION_MODE(SPI_InitStruct->SPI_Direction));
 266:../STM32F4xx_StdPeriph_Driver/src/stm32f4xx_spi.c ****   assert_param(IS_SPI_MODE(SPI_InitStruct->SPI_Mode));
 267:../STM32F4xx_StdPeriph_Driver/src/stm32f4xx_spi.c ****   assert_param(IS_SPI_DATASIZE(SPI_InitStruct->SPI_DataSize));
 268:../STM32F4xx_StdPeriph_Driver/src/stm32f4xx_spi.c ****   assert_param(IS_SPI_CPOL(SPI_InitStruct->SPI_CPOL));
 269:../STM32F4xx_StdPeriph_Driver/src/stm32f4xx_spi.c ****   assert_param(IS_SPI_CPHA(SPI_InitStruct->SPI_CPHA));
 270:../STM32F4xx_StdPeriph_Driver/src/stm32f4xx_spi.c ****   assert_param(IS_SPI_NSS(SPI_InitStruct->SPI_NSS));
 271:../STM32F4xx_StdPeriph_Driver/src/stm32f4xx_spi.c ****   assert_param(IS_SPI_BAUDRATE_PRESCALER(SPI_InitStruct->SPI_BaudRatePrescaler));
 272:../STM32F4xx_StdPeriph_Driver/src/stm32f4xx_spi.c ****   assert_param(IS_SPI_FIRST_BIT(SPI_InitStruct->SPI_FirstBit));
 273:../STM32F4xx_StdPeriph_Driver/src/stm32f4xx_spi.c ****   assert_param(IS_SPI_CRC_POLYNOMIAL(SPI_InitStruct->SPI_CRCPolynomial));
 274:../STM32F4xx_StdPeriph_Driver/src/stm32f4xx_spi.c **** 
 275:../STM32F4xx_StdPeriph_Driver/src/stm32f4xx_spi.c **** /*---------------------------- SPIx CR1 Configuration ------------------------*/
 276:../STM32F4xx_StdPeriph_Driver/src/stm32f4xx_spi.c ****   /* Get the SPIx CR1 value */
 277:../STM32F4xx_StdPeriph_Driver/src/stm32f4xx_spi.c ****   tmpreg = SPIx->CR1;
 123              		.loc 1 277 0
 124 0098 7B68     		ldr	r3, [r7, #4]
 125 009a 1B88     		ldrh	r3, [r3, #0]	@ movhi
 126 009c FB81     		strh	r3, [r7, #14]	@ movhi
 278:../STM32F4xx_StdPeriph_Driver/src/stm32f4xx_spi.c ****   /* Clear BIDIMode, BIDIOE, RxONLY, SSM, SSI, LSBFirst, BR, MSTR, CPOL and CPHA bits */
 279:../STM32F4xx_StdPeriph_Driver/src/stm32f4xx_spi.c ****   tmpreg &= CR1_CLEAR_MASK;
 127              		.loc 1 279 0
 128 009e FB89     		ldrh	r3, [r7, #14]	@ movhi
 129 00a0 03F44153 		and	r3, r3, #12352
 130 00a4 FB81     		strh	r3, [r7, #14]	@ movhi
 280:../STM32F4xx_StdPeriph_Driver/src/stm32f4xx_spi.c ****   /* Configure SPIx: direction, NSS management, first transmitted bit, BaudRate prescaler
 281:../STM32F4xx_StdPeriph_Driver/src/stm32f4xx_spi.c ****      master/salve mode, CPOL and CPHA */
 282:../STM32F4xx_StdPeriph_Driver/src/stm32f4xx_spi.c ****   /* Set BIDImode, BIDIOE and RxONLY bits according to SPI_Direction value */
 283:../STM32F4xx_StdPeriph_Driver/src/stm32f4xx_spi.c ****   /* Set SSM, SSI and MSTR bits according to SPI_Mode and SPI_NSS values */
 284:../STM32F4xx_StdPeriph_Driver/src/stm32f4xx_spi.c ****   /* Set LSBFirst bit according to SPI_FirstBit value */
 285:../STM32F4xx_StdPeriph_Driver/src/stm32f4xx_spi.c ****   /* Set BR bits according to SPI_BaudRatePrescaler value */
 286:../STM32F4xx_StdPeriph_Driver/src/stm32f4xx_spi.c ****   /* Set CPOL bit according to SPI_CPOL value */
 287:../STM32F4xx_StdPeriph_Driver/src/stm32f4xx_spi.c ****   /* Set CPHA bit according to SPI_CPHA value */
 288:../STM32F4xx_StdPeriph_Driver/src/stm32f4xx_spi.c ****   tmpreg |= (uint16_t)((uint32_t)SPI_InitStruct->SPI_Direction | SPI_InitStruct->SPI_Mode |
 131              		.loc 1 288 0
 132 00a6 3B68     		ldr	r3, [r7, #0]
 133 00a8 1A88     		ldrh	r2, [r3, #0]
 134 00aa 3B68     		ldr	r3, [r7, #0]
 135 00ac 5B88     		ldrh	r3, [r3, #2]
 136 00ae 1343     		orrs	r3, r3, r2
 137 00b0 9AB2     		uxth	r2, r3
 289:../STM32F4xx_StdPeriph_Driver/src/stm32f4xx_spi.c ****                   SPI_InitStruct->SPI_DataSize | SPI_InitStruct->SPI_CPOL |  
 138              		.loc 1 289 0
 139 00b2 3B68     		ldr	r3, [r7, #0]
 140 00b4 9B88     		ldrh	r3, [r3, #4]
 288:../STM32F4xx_StdPeriph_Driver/src/stm32f4xx_spi.c ****   tmpreg |= (uint16_t)((uint32_t)SPI_InitStruct->SPI_Direction | SPI_InitStruct->SPI_Mode |
 141              		.loc 1 288 0
 142 00b6 1343     		orrs	r3, r3, r2
 143 00b8 9AB2     		uxth	r2, r3
 144              		.loc 1 289 0
 145 00ba 3B68     		ldr	r3, [r7, #0]
 146 00bc DB88     		ldrh	r3, [r3, #6]
 288:../STM32F4xx_StdPeriph_Driver/src/stm32f4xx_spi.c ****   tmpreg |= (uint16_t)((uint32_t)SPI_InitStruct->SPI_Direction | SPI_InitStruct->SPI_Mode |
 147              		.loc 1 288 0
 148 00be 1343     		orrs	r3, r3, r2
 149 00c0 9AB2     		uxth	r2, r3
 290:../STM32F4xx_StdPeriph_Driver/src/stm32f4xx_spi.c ****                   SPI_InitStruct->SPI_CPHA | SPI_InitStruct->SPI_NSS |  
 150              		.loc 1 290 0
 151 00c2 3B68     		ldr	r3, [r7, #0]
 152 00c4 1B89     		ldrh	r3, [r3, #8]
 288:../STM32F4xx_StdPeriph_Driver/src/stm32f4xx_spi.c ****   tmpreg |= (uint16_t)((uint32_t)SPI_InitStruct->SPI_Direction | SPI_InitStruct->SPI_Mode |
 153              		.loc 1 288 0
 154 00c6 1343     		orrs	r3, r3, r2
 155 00c8 9AB2     		uxth	r2, r3
 156              		.loc 1 290 0
 157 00ca 3B68     		ldr	r3, [r7, #0]
 158 00cc 5B89     		ldrh	r3, [r3, #10]
 288:../STM32F4xx_StdPeriph_Driver/src/stm32f4xx_spi.c ****   tmpreg |= (uint16_t)((uint32_t)SPI_InitStruct->SPI_Direction | SPI_InitStruct->SPI_Mode |
 159              		.loc 1 288 0
 160 00ce 1343     		orrs	r3, r3, r2
 161 00d0 9AB2     		uxth	r2, r3
 291:../STM32F4xx_StdPeriph_Driver/src/stm32f4xx_spi.c ****                   SPI_InitStruct->SPI_BaudRatePrescaler | SPI_InitStruct->SPI_FirstBit);
 162              		.loc 1 291 0
 163 00d2 3B68     		ldr	r3, [r7, #0]
 164 00d4 9B89     		ldrh	r3, [r3, #12]
 288:../STM32F4xx_StdPeriph_Driver/src/stm32f4xx_spi.c ****   tmpreg |= (uint16_t)((uint32_t)SPI_InitStruct->SPI_Direction | SPI_InitStruct->SPI_Mode |
 165              		.loc 1 288 0
 166 00d6 1343     		orrs	r3, r3, r2
 167 00d8 9AB2     		uxth	r2, r3
 168              		.loc 1 291 0
 169 00da 3B68     		ldr	r3, [r7, #0]
 170 00dc DB89     		ldrh	r3, [r3, #14]
 288:../STM32F4xx_StdPeriph_Driver/src/stm32f4xx_spi.c ****   tmpreg |= (uint16_t)((uint32_t)SPI_InitStruct->SPI_Direction | SPI_InitStruct->SPI_Mode |
 171              		.loc 1 288 0
 172 00de 1343     		orrs	r3, r3, r2
 173 00e0 9AB2     		uxth	r2, r3
 174 00e2 FB89     		ldrh	r3, [r7, #14]	@ movhi
 175 00e4 1343     		orrs	r3, r3, r2
 176 00e6 FB81     		strh	r3, [r7, #14]	@ movhi
 292:../STM32F4xx_StdPeriph_Driver/src/stm32f4xx_spi.c ****   /* Write to SPIx CR1 */
 293:../STM32F4xx_StdPeriph_Driver/src/stm32f4xx_spi.c ****   SPIx->CR1 = tmpreg;
 177              		.loc 1 293 0
 178 00e8 7B68     		ldr	r3, [r7, #4]
 179 00ea FA89     		ldrh	r2, [r7, #14]	@ movhi
 180 00ec 1A80     		strh	r2, [r3, #0]	@ movhi
 294:../STM32F4xx_StdPeriph_Driver/src/stm32f4xx_spi.c **** 
 295:../STM32F4xx_StdPeriph_Driver/src/stm32f4xx_spi.c ****   /* Activate the SPI mode (Reset I2SMOD bit in I2SCFGR register) */
 296:../STM32F4xx_StdPeriph_Driver/src/stm32f4xx_spi.c ****   SPIx->I2SCFGR &= (uint16_t)~((uint16_t)SPI_I2SCFGR_I2SMOD);
 181              		.loc 1 296 0
 182 00ee 7B68     		ldr	r3, [r7, #4]
 183 00f0 9B8B     		ldrh	r3, [r3, #28]	@ movhi
 184 00f2 9BB2     		uxth	r3, r3
 185 00f4 23F40063 		bic	r3, r3, #2048
 186 00f8 9AB2     		uxth	r2, r3
 187 00fa 7B68     		ldr	r3, [r7, #4]
 188 00fc 9A83     		strh	r2, [r3, #28]	@ movhi
 297:../STM32F4xx_StdPeriph_Driver/src/stm32f4xx_spi.c **** /*---------------------------- SPIx CRCPOLY Configuration --------------------*/
 298:../STM32F4xx_StdPeriph_Driver/src/stm32f4xx_spi.c ****   /* Write to SPIx CRCPOLY */
 299:../STM32F4xx_StdPeriph_Driver/src/stm32f4xx_spi.c ****   SPIx->CRCPR = SPI_InitStruct->SPI_CRCPolynomial;
 189              		.loc 1 299 0
 190 00fe 3B68     		ldr	r3, [r7, #0]
 191 0100 1A8A     		ldrh	r2, [r3, #16]
 192 0102 7B68     		ldr	r3, [r7, #4]
 193 0104 1A82     		strh	r2, [r3, #16]	@ movhi
 300:../STM32F4xx_StdPeriph_Driver/src/stm32f4xx_spi.c **** }
 194              		.loc 1 300 0
 195 0106 07F11407 		add	r7, r7, #20
 196 010a BD46     		mov	sp, r7
 197 010c 80BC     		pop	{r7}
 198 010e 7047     		bx	lr
 199              		.cfi_endproc
 200              	.LFE111:
 202              		.align	2
 203              		.global	I2S_Init
 204              		.thumb
 205              		.thumb_func
 207              	I2S_Init:
 208              	.LFB112:
 301:../STM32F4xx_StdPeriph_Driver/src/stm32f4xx_spi.c **** 
 302:../STM32F4xx_StdPeriph_Driver/src/stm32f4xx_spi.c **** /**
 303:../STM32F4xx_StdPeriph_Driver/src/stm32f4xx_spi.c ****   * @brief  Initializes the SPIx peripheral according to the specified 
 304:../STM32F4xx_StdPeriph_Driver/src/stm32f4xx_spi.c ****   *         parameters in the I2S_InitStruct.
 305:../STM32F4xx_StdPeriph_Driver/src/stm32f4xx_spi.c ****   * @param  SPIx: where x can be  2 or 3 to select the SPI peripheral (configured in I2S mode).
 306:../STM32F4xx_StdPeriph_Driver/src/stm32f4xx_spi.c ****   * @param  I2S_InitStruct: pointer to an I2S_InitTypeDef structure that
 307:../STM32F4xx_StdPeriph_Driver/src/stm32f4xx_spi.c ****   *         contains the configuration information for the specified SPI peripheral
 308:../STM32F4xx_StdPeriph_Driver/src/stm32f4xx_spi.c ****   *         configured in I2S mode.
 309:../STM32F4xx_StdPeriph_Driver/src/stm32f4xx_spi.c ****   *           
 310:../STM32F4xx_StdPeriph_Driver/src/stm32f4xx_spi.c ****   * @note   The function calculates the optimal prescaler needed to obtain the most 
 311:../STM32F4xx_StdPeriph_Driver/src/stm32f4xx_spi.c ****   *         accurate audio frequency (depending on the I2S clock source, the PLL values 
 312:../STM32F4xx_StdPeriph_Driver/src/stm32f4xx_spi.c ****   *         and the product configuration). But in case the prescaler value is greater 
 313:../STM32F4xx_StdPeriph_Driver/src/stm32f4xx_spi.c ****   *         than 511, the default value (0x02) will be configured instead.    
 314:../STM32F4xx_StdPeriph_Driver/src/stm32f4xx_spi.c ****   * 
 315:../STM32F4xx_StdPeriph_Driver/src/stm32f4xx_spi.c ****   * @note   if an external clock is used as source clock for the I2S, then the define
 316:../STM32F4xx_StdPeriph_Driver/src/stm32f4xx_spi.c ****   *         I2S_EXTERNAL_CLOCK_VAL in file stm32f4xx_conf.h should be enabled and set
 317:../STM32F4xx_StdPeriph_Driver/src/stm32f4xx_spi.c ****   *         to the value of the the source clock frequency (in Hz).
 318:../STM32F4xx_StdPeriph_Driver/src/stm32f4xx_spi.c ****   *  
 319:../STM32F4xx_StdPeriph_Driver/src/stm32f4xx_spi.c ****   * @retval None
 320:../STM32F4xx_StdPeriph_Driver/src/stm32f4xx_spi.c ****   */
 321:../STM32F4xx_StdPeriph_Driver/src/stm32f4xx_spi.c **** void I2S_Init(SPI_TypeDef* SPIx, I2S_InitTypeDef* I2S_InitStruct)
 322:../STM32F4xx_StdPeriph_Driver/src/stm32f4xx_spi.c **** {
 209              		.loc 1 322 0
 210              		.cfi_startproc
 211              		@ args = 0, pretend = 0, frame = 40
 212              		@ frame_needed = 1, uses_anonymous_args = 0
 213              		@ link register save eliminated.
 214 0110 80B4     		push	{r7}
 215              	.LCFI6:
 216              		.cfi_def_cfa_offset 4
 217              		.cfi_offset 7, -4
 218 0112 8BB0     		sub	sp, sp, #44
 219              	.LCFI7:
 220              		.cfi_def_cfa_offset 48
 221 0114 00AF     		add	r7, sp, #0
 222              	.LCFI8:
 223              		.cfi_def_cfa_register 7
 224 0116 7860     		str	r0, [r7, #4]
 225 0118 3960     		str	r1, [r7, #0]
 323:../STM32F4xx_StdPeriph_Driver/src/stm32f4xx_spi.c ****   uint16_t tmpreg = 0, i2sdiv = 2, i2sodd = 0, packetlength = 1;
 226              		.loc 1 323 0
 227 011a 4FF00003 		mov	r3, #0
 228 011e 7B83     		strh	r3, [r7, #26]	@ movhi
 229 0120 4FF00203 		mov	r3, #2
 230 0124 FB84     		strh	r3, [r7, #38]	@ movhi
 231 0126 4FF00003 		mov	r3, #0
 232 012a BB84     		strh	r3, [r7, #36]	@ movhi
 233 012c 4FF00103 		mov	r3, #1
 234 0130 7B84     		strh	r3, [r7, #34]	@ movhi
 324:../STM32F4xx_StdPeriph_Driver/src/stm32f4xx_spi.c ****   uint32_t tmp = 0, i2sclk = 0;
 235              		.loc 1 324 0
 236 0132 4FF00003 		mov	r3, #0
 237 0136 FB61     		str	r3, [r7, #28]
 238 0138 4FF00003 		mov	r3, #0
 239 013c 7B61     		str	r3, [r7, #20]
 325:../STM32F4xx_StdPeriph_Driver/src/stm32f4xx_spi.c **** #ifndef I2S_EXTERNAL_CLOCK_VAL
 326:../STM32F4xx_StdPeriph_Driver/src/stm32f4xx_spi.c ****   uint32_t pllm = 0, plln = 0, pllr = 0;
 240              		.loc 1 326 0
 241 013e 4FF00003 		mov	r3, #0
 242 0142 3B61     		str	r3, [r7, #16]
 243 0144 4FF00003 		mov	r3, #0
 244 0148 FB60     		str	r3, [r7, #12]
 245 014a 4FF00003 		mov	r3, #0
 246 014e BB60     		str	r3, [r7, #8]
 327:../STM32F4xx_StdPeriph_Driver/src/stm32f4xx_spi.c **** #endif /* I2S_EXTERNAL_CLOCK_VAL */
 328:../STM32F4xx_StdPeriph_Driver/src/stm32f4xx_spi.c ****   
 329:../STM32F4xx_StdPeriph_Driver/src/stm32f4xx_spi.c ****   /* Check the I2S parameters */
 330:../STM32F4xx_StdPeriph_Driver/src/stm32f4xx_spi.c ****   assert_param(IS_SPI_23_PERIPH(SPIx));
 331:../STM32F4xx_StdPeriph_Driver/src/stm32f4xx_spi.c ****   assert_param(IS_I2S_MODE(I2S_InitStruct->I2S_Mode));
 332:../STM32F4xx_StdPeriph_Driver/src/stm32f4xx_spi.c ****   assert_param(IS_I2S_STANDARD(I2S_InitStruct->I2S_Standard));
 333:../STM32F4xx_StdPeriph_Driver/src/stm32f4xx_spi.c ****   assert_param(IS_I2S_DATA_FORMAT(I2S_InitStruct->I2S_DataFormat));
 334:../STM32F4xx_StdPeriph_Driver/src/stm32f4xx_spi.c ****   assert_param(IS_I2S_MCLK_OUTPUT(I2S_InitStruct->I2S_MCLKOutput));
 335:../STM32F4xx_StdPeriph_Driver/src/stm32f4xx_spi.c ****   assert_param(IS_I2S_AUDIO_FREQ(I2S_InitStruct->I2S_AudioFreq));
 336:../STM32F4xx_StdPeriph_Driver/src/stm32f4xx_spi.c ****   assert_param(IS_I2S_CPOL(I2S_InitStruct->I2S_CPOL));  
 337:../STM32F4xx_StdPeriph_Driver/src/stm32f4xx_spi.c **** 
 338:../STM32F4xx_StdPeriph_Driver/src/stm32f4xx_spi.c **** /*----------------------- SPIx I2SCFGR & I2SPR Configuration -----------------*/
 339:../STM32F4xx_StdPeriph_Driver/src/stm32f4xx_spi.c ****   /* Clear I2SMOD, I2SE, I2SCFG, PCMSYNC, I2SSTD, CKPOL, DATLEN and CHLEN bits */
 340:../STM32F4xx_StdPeriph_Driver/src/stm32f4xx_spi.c ****   SPIx->I2SCFGR &= I2SCFGR_CLEAR_MASK; 
 247              		.loc 1 340 0
 248 0150 7B68     		ldr	r3, [r7, #4]
 249 0152 9B8B     		ldrh	r3, [r3, #28]	@ movhi
 250 0154 9BB2     		uxth	r3, r3
 251 0156 23F47A63 		bic	r3, r3, #4000
 252 015a 23F01F03 		bic	r3, r3, #31
 253 015e 9AB2     		uxth	r2, r3
 254 0160 7B68     		ldr	r3, [r7, #4]
 255 0162 9A83     		strh	r2, [r3, #28]	@ movhi
 341:../STM32F4xx_StdPeriph_Driver/src/stm32f4xx_spi.c ****   SPIx->I2SPR = 0x0002;
 256              		.loc 1 341 0
 257 0164 7B68     		ldr	r3, [r7, #4]
 258 0166 4FF00202 		mov	r2, #2
 259 016a 1A84     		strh	r2, [r3, #32]	@ movhi
 342:../STM32F4xx_StdPeriph_Driver/src/stm32f4xx_spi.c ****   
 343:../STM32F4xx_StdPeriph_Driver/src/stm32f4xx_spi.c ****   /* Get the I2SCFGR register value */
 344:../STM32F4xx_StdPeriph_Driver/src/stm32f4xx_spi.c ****   tmpreg = SPIx->I2SCFGR;
 260              		.loc 1 344 0
 261 016c 7B68     		ldr	r3, [r7, #4]
 262 016e 9B8B     		ldrh	r3, [r3, #28]	@ movhi
 263 0170 7B83     		strh	r3, [r7, #26]	@ movhi
 345:../STM32F4xx_StdPeriph_Driver/src/stm32f4xx_spi.c ****   
 346:../STM32F4xx_StdPeriph_Driver/src/stm32f4xx_spi.c ****   /* If the default value has to be written, reinitialize i2sdiv and i2sodd*/
 347:../STM32F4xx_StdPeriph_Driver/src/stm32f4xx_spi.c ****   if(I2S_InitStruct->I2S_AudioFreq == I2S_AudioFreq_Default)
 264              		.loc 1 347 0
 265 0172 3B68     		ldr	r3, [r7, #0]
 266 0174 9A68     		ldr	r2, [r3, #8]
 267 0176 4AF64443 		movw	r3, #44100
 268 017a 9A42     		cmp	r2, r3
 269 017c 06D1     		bne	.L7
 348:../STM32F4xx_StdPeriph_Driver/src/stm32f4xx_spi.c ****   {
 349:../STM32F4xx_StdPeriph_Driver/src/stm32f4xx_spi.c ****     i2sodd = (uint16_t)1;//0;  //changed due to calc issues
 270              		.loc 1 349 0
 271 017e 4FF00103 		mov	r3, #1
 272 0182 BB84     		strh	r3, [r7, #36]	@ movhi
 350:../STM32F4xx_StdPeriph_Driver/src/stm32f4xx_spi.c ****     i2sdiv = (uint16_t)53;//2;
 273              		.loc 1 350 0
 274 0184 4FF03503 		mov	r3, #53
 275 0188 FB84     		strh	r3, [r7, #38]	@ movhi
 276 018a A8E0     		b	.L8
 277              	.L7:
 351:../STM32F4xx_StdPeriph_Driver/src/stm32f4xx_spi.c ****   }else if(I2S_InitStruct->I2S_AudioFreq == I2S_AudioFreq_48k) {
 278              		.loc 1 351 0
 279 018c 3B68     		ldr	r3, [r7, #0]
 280 018e 9A68     		ldr	r2, [r3, #8]
 281 0190 4BF68033 		movw	r3, #48000
 282 0194 9A42     		cmp	r2, r3
 283 0196 06D1     		bne	.L9
 352:../STM32F4xx_StdPeriph_Driver/src/stm32f4xx_spi.c **** 	i2sodd = (uint16_t)1;
 284              		.loc 1 352 0
 285 0198 4FF00103 		mov	r3, #1
 286 019c BB84     		strh	r3, [r7, #36]	@ movhi
 353:../STM32F4xx_StdPeriph_Driver/src/stm32f4xx_spi.c **** 	i2sdiv = (uint16_t)12;
 287              		.loc 1 353 0
 288 019e 4FF00C03 		mov	r3, #12
 289 01a2 FB84     		strh	r3, [r7, #38]	@ movhi
 290 01a4 9BE0     		b	.L8
 291              	.L9:
 354:../STM32F4xx_StdPeriph_Driver/src/stm32f4xx_spi.c ****   }
 355:../STM32F4xx_StdPeriph_Driver/src/stm32f4xx_spi.c ****   /* If the requested audio frequency is not the default, compute the prescaler */
 356:../STM32F4xx_StdPeriph_Driver/src/stm32f4xx_spi.c ****   else
 357:../STM32F4xx_StdPeriph_Driver/src/stm32f4xx_spi.c ****   {
 358:../STM32F4xx_StdPeriph_Driver/src/stm32f4xx_spi.c ****     /* Check the frame length (For the Prescaler computing) *******************/
 359:../STM32F4xx_StdPeriph_Driver/src/stm32f4xx_spi.c ****     if(I2S_InitStruct->I2S_DataFormat == I2S_DataFormat_16b)
 292              		.loc 1 359 0
 293 01a6 3B68     		ldr	r3, [r7, #0]
 294 01a8 9B88     		ldrh	r3, [r3, #4]
 295 01aa 002B     		cmp	r3, #0
 296 01ac 03D1     		bne	.L10
 360:../STM32F4xx_StdPeriph_Driver/src/stm32f4xx_spi.c ****     {
 361:../STM32F4xx_StdPeriph_Driver/src/stm32f4xx_spi.c ****       /* Packet length is 16 bits */
 362:../STM32F4xx_StdPeriph_Driver/src/stm32f4xx_spi.c ****       packetlength = 1;
 297              		.loc 1 362 0
 298 01ae 4FF00103 		mov	r3, #1
 299 01b2 7B84     		strh	r3, [r7, #34]	@ movhi
 300 01b4 02E0     		b	.L11
 301              	.L10:
 363:../STM32F4xx_StdPeriph_Driver/src/stm32f4xx_spi.c ****     }
 364:../STM32F4xx_StdPeriph_Driver/src/stm32f4xx_spi.c ****     else
 365:../STM32F4xx_StdPeriph_Driver/src/stm32f4xx_spi.c ****     {
 366:../STM32F4xx_StdPeriph_Driver/src/stm32f4xx_spi.c ****       /* Packet length is 32 bits */
 367:../STM32F4xx_StdPeriph_Driver/src/stm32f4xx_spi.c ****       packetlength = 2;
 302              		.loc 1 367 0
 303 01b6 4FF00203 		mov	r3, #2
 304 01ba 7B84     		strh	r3, [r7, #34]	@ movhi
 305              	.L11:
 368:../STM32F4xx_StdPeriph_Driver/src/stm32f4xx_spi.c ****     }
 369:../STM32F4xx_StdPeriph_Driver/src/stm32f4xx_spi.c **** 
 370:../STM32F4xx_StdPeriph_Driver/src/stm32f4xx_spi.c ****     /* Get I2S source Clock frequency  ****************************************/
 371:../STM32F4xx_StdPeriph_Driver/src/stm32f4xx_spi.c ****       
 372:../STM32F4xx_StdPeriph_Driver/src/stm32f4xx_spi.c ****     /* If an external I2S clock has to be used, this define should be set  
 373:../STM32F4xx_StdPeriph_Driver/src/stm32f4xx_spi.c ****        in the project configuration or in the stm32f4xx_conf.h file */
 374:../STM32F4xx_StdPeriph_Driver/src/stm32f4xx_spi.c ****   #ifdef I2S_EXTERNAL_CLOCK_VAL     
 375:../STM32F4xx_StdPeriph_Driver/src/stm32f4xx_spi.c ****     /* Set external clock as I2S clock source */
 376:../STM32F4xx_StdPeriph_Driver/src/stm32f4xx_spi.c ****     if ((RCC->CFGR & RCC_CFGR_I2SSRC) == 0)
 377:../STM32F4xx_StdPeriph_Driver/src/stm32f4xx_spi.c ****     {
 378:../STM32F4xx_StdPeriph_Driver/src/stm32f4xx_spi.c ****       RCC->CFGR |= (uint32_t)RCC_CFGR_I2SSRC;
 379:../STM32F4xx_StdPeriph_Driver/src/stm32f4xx_spi.c ****     }
 380:../STM32F4xx_StdPeriph_Driver/src/stm32f4xx_spi.c ****     
 381:../STM32F4xx_StdPeriph_Driver/src/stm32f4xx_spi.c ****     /* Set the I2S clock to the external clock  value */
 382:../STM32F4xx_StdPeriph_Driver/src/stm32f4xx_spi.c ****     i2sclk = I2S_EXTERNAL_CLOCK_VAL;
 383:../STM32F4xx_StdPeriph_Driver/src/stm32f4xx_spi.c **** 
 384:../STM32F4xx_StdPeriph_Driver/src/stm32f4xx_spi.c ****   #else /* There is no define for External I2S clock source */
 385:../STM32F4xx_StdPeriph_Driver/src/stm32f4xx_spi.c ****     /* Set PLLI2S as I2S clock source */
 386:../STM32F4xx_StdPeriph_Driver/src/stm32f4xx_spi.c ****     if ((RCC->CFGR & RCC_CFGR_I2SSRC) != 0)
 306              		.loc 1 386 0
 307 01bc 4FF46053 		mov	r3, #14336
 308 01c0 C4F20203 		movt	r3, 16386
 309 01c4 9B68     		ldr	r3, [r3, #8]
 310 01c6 03F40003 		and	r3, r3, #8388608
 311 01ca 002B     		cmp	r3, #0
 312 01cc 0BD0     		beq	.L12
 387:../STM32F4xx_StdPeriph_Driver/src/stm32f4xx_spi.c ****     {
 388:../STM32F4xx_StdPeriph_Driver/src/stm32f4xx_spi.c ****       RCC->CFGR &= ~(uint32_t)RCC_CFGR_I2SSRC;
 313              		.loc 1 388 0
 314 01ce 4FF46053 		mov	r3, #14336
 315 01d2 C4F20203 		movt	r3, 16386
 316 01d6 4FF46052 		mov	r2, #14336
 317 01da C4F20202 		movt	r2, 16386
 318 01de 9268     		ldr	r2, [r2, #8]
 319 01e0 22F40002 		bic	r2, r2, #8388608
 320 01e4 9A60     		str	r2, [r3, #8]
 321              	.L12:
 389:../STM32F4xx_StdPeriph_Driver/src/stm32f4xx_spi.c ****     }    
 390:../STM32F4xx_StdPeriph_Driver/src/stm32f4xx_spi.c ****     
 391:../STM32F4xx_StdPeriph_Driver/src/stm32f4xx_spi.c ****     /* Get the PLLI2SN value */
 392:../STM32F4xx_StdPeriph_Driver/src/stm32f4xx_spi.c ****     plln = (uint32_t)(((RCC->PLLI2SCFGR & RCC_PLLI2SCFGR_PLLI2SN) >> 6) & \
 322              		.loc 1 392 0
 323 01e6 4FF46053 		mov	r3, #14336
 324 01ea C4F20203 		movt	r3, 16386
 325 01ee D3F88430 		ldr	r3, [r3, #132]
 326 01f2 1A46     		mov	r2, r3
 327 01f4 47F6C073 		movw	r3, #32704
 328 01f8 1340     		ands	r3, r3, r2
 329 01fa 4FEA9313 		lsr	r3, r3, #6
 330 01fe 4FEAC353 		lsl	r3, r3, #23
 331 0202 4FEAD353 		lsr	r3, r3, #23
 332 0206 FB60     		str	r3, [r7, #12]
 393:../STM32F4xx_StdPeriph_Driver/src/stm32f4xx_spi.c ****                       (RCC_PLLI2SCFGR_PLLI2SN >> 6));
 394:../STM32F4xx_StdPeriph_Driver/src/stm32f4xx_spi.c ****     
 395:../STM32F4xx_StdPeriph_Driver/src/stm32f4xx_spi.c ****     /* Get the PLLI2SR value */
 396:../STM32F4xx_StdPeriph_Driver/src/stm32f4xx_spi.c ****     pllr = (uint32_t)(((RCC->PLLI2SCFGR & RCC_PLLI2SCFGR_PLLI2SR) >> 28) & \
 333              		.loc 1 396 0
 334 0208 4FF46053 		mov	r3, #14336
 335 020c C4F20203 		movt	r3, 16386
 336 0210 D3F88430 		ldr	r3, [r3, #132]
 337 0214 03F0E043 		and	r3, r3, #1879048192
 338 0218 4FEA1373 		lsr	r3, r3, #28
 339 021c 03F00703 		and	r3, r3, #7
 340 0220 BB60     		str	r3, [r7, #8]
 397:../STM32F4xx_StdPeriph_Driver/src/stm32f4xx_spi.c ****                       (RCC_PLLI2SCFGR_PLLI2SR >> 28));
 398:../STM32F4xx_StdPeriph_Driver/src/stm32f4xx_spi.c ****     
 399:../STM32F4xx_StdPeriph_Driver/src/stm32f4xx_spi.c ****     /* Get the PLLM value */
 400:../STM32F4xx_StdPeriph_Driver/src/stm32f4xx_spi.c ****     pllm = (uint32_t)(RCC->PLLCFGR & RCC_PLLCFGR_PLLM);      
 341              		.loc 1 400 0
 342 0222 4FF46053 		mov	r3, #14336
 343 0226 C4F20203 		movt	r3, 16386
 344 022a 5B68     		ldr	r3, [r3, #4]
 345 022c 03F03F03 		and	r3, r3, #63
 346 0230 3B61     		str	r3, [r7, #16]
 401:../STM32F4xx_StdPeriph_Driver/src/stm32f4xx_spi.c ****     
 402:../STM32F4xx_StdPeriph_Driver/src/stm32f4xx_spi.c ****     /* Get the I2S source clock value */
 403:../STM32F4xx_StdPeriph_Driver/src/stm32f4xx_spi.c ****     i2sclk = (uint32_t)(((HSE_VALUE / pllm) * plln) / pllr);
 347              		.loc 1 403 0
 348 0232 4FF49053 		mov	r3, #4608
 349 0236 C0F27A03 		movt	r3, 122
 350 023a 3A69     		ldr	r2, [r7, #16]
 351 023c B3FBF2F3 		udiv	r3, r3, r2
 352 0240 FA68     		ldr	r2, [r7, #12]
 353 0242 02FB03F2 		mul	r2, r2, r3
 354 0246 BB68     		ldr	r3, [r7, #8]
 355 0248 B2FBF3F3 		udiv	r3, r2, r3
 356 024c 7B61     		str	r3, [r7, #20]
 404:../STM32F4xx_StdPeriph_Driver/src/stm32f4xx_spi.c ****   #endif /* I2S_EXTERNAL_CLOCK_VAL */
 405:../STM32F4xx_StdPeriph_Driver/src/stm32f4xx_spi.c ****     
 406:../STM32F4xx_StdPeriph_Driver/src/stm32f4xx_spi.c ****     /* Compute the Real divider depending on the MCLK output state, with a floating point */
 407:../STM32F4xx_StdPeriph_Driver/src/stm32f4xx_spi.c ****     if(I2S_InitStruct->I2S_MCLKOutput == I2S_MCLKOutput_Enable)
 357              		.loc 1 407 0
 358 024e 3B68     		ldr	r3, [r7, #0]
 359 0250 DB88     		ldrh	r3, [r3, #6]
 360 0252 B3F5007F 		cmp	r3, #512
 361 0256 13D1     		bne	.L13
 408:../STM32F4xx_StdPeriph_Driver/src/stm32f4xx_spi.c ****     {
 409:../STM32F4xx_StdPeriph_Driver/src/stm32f4xx_spi.c ****       /* MCLK output is enabled */
 410:../STM32F4xx_StdPeriph_Driver/src/stm32f4xx_spi.c ****       tmp = (uint16_t)(((((i2sclk / 256) * 10) / I2S_InitStruct->I2S_AudioFreq)) + 5);
 362              		.loc 1 410 0
 363 0258 7B69     		ldr	r3, [r7, #20]
 364 025a 4FEA1322 		lsr	r2, r3, #8
 365 025e 1346     		mov	r3, r2
 366 0260 4FEA8303 		lsl	r3, r3, #2
 367 0264 9B18     		adds	r3, r3, r2
 368 0266 4FEA4303 		lsl	r3, r3, #1
 369 026a 1A46     		mov	r2, r3
 370 026c 3B68     		ldr	r3, [r7, #0]
 371 026e 9B68     		ldr	r3, [r3, #8]
 372 0270 B2FBF3F3 		udiv	r3, r2, r3
 373 0274 9BB2     		uxth	r3, r3
 374 0276 03F10503 		add	r3, r3, #5
 375 027a 9BB2     		uxth	r3, r3
 376 027c FB61     		str	r3, [r7, #28]
 377 027e 15E0     		b	.L14
 378              	.L13:
 411:../STM32F4xx_StdPeriph_Driver/src/stm32f4xx_spi.c ****     }
 412:../STM32F4xx_StdPeriph_Driver/src/stm32f4xx_spi.c ****     else
 413:../STM32F4xx_StdPeriph_Driver/src/stm32f4xx_spi.c ****     {
 414:../STM32F4xx_StdPeriph_Driver/src/stm32f4xx_spi.c ****       /* MCLK output is disabled */
 415:../STM32F4xx_StdPeriph_Driver/src/stm32f4xx_spi.c ****       tmp = (uint16_t)(((((i2sclk / (32 * packetlength)) *10 ) / I2S_InitStruct->I2S_AudioFreq)) + 
 379              		.loc 1 415 0
 380 0280 7B8C     		ldrh	r3, [r7, #34]
 381 0282 4FEA4313 		lsl	r3, r3, #5
 382 0286 7A69     		ldr	r2, [r7, #20]
 383 0288 B2FBF3F2 		udiv	r2, r2, r3
 384 028c 1346     		mov	r3, r2
 385 028e 4FEA8303 		lsl	r3, r3, #2
 386 0292 9B18     		adds	r3, r3, r2
 387 0294 4FEA4303 		lsl	r3, r3, #1
 388 0298 1A46     		mov	r2, r3
 389 029a 3B68     		ldr	r3, [r7, #0]
 390 029c 9B68     		ldr	r3, [r3, #8]
 391 029e B2FBF3F3 		udiv	r3, r2, r3
 392 02a2 9BB2     		uxth	r3, r3
 393 02a4 03F10503 		add	r3, r3, #5
 394 02a8 9BB2     		uxth	r3, r3
 395 02aa FB61     		str	r3, [r7, #28]
 396              	.L14:
 416:../STM32F4xx_StdPeriph_Driver/src/stm32f4xx_spi.c ****     }
 417:../STM32F4xx_StdPeriph_Driver/src/stm32f4xx_spi.c ****     
 418:../STM32F4xx_StdPeriph_Driver/src/stm32f4xx_spi.c ****     /* Remove the flatting point */
 419:../STM32F4xx_StdPeriph_Driver/src/stm32f4xx_spi.c ****     tmp = tmp / 10;  
 397              		.loc 1 419 0
 398 02ac FA69     		ldr	r2, [r7, #28]
 399 02ae 4CF6CD43 		movw	r3, #52429
 400 02b2 CCF6CC43 		movt	r3, 52428
 401 02b6 A3FB0213 		umull	r1, r3, r3, r2
 402 02ba 4FEAD303 		lsr	r3, r3, #3
 403 02be FB61     		str	r3, [r7, #28]
 420:../STM32F4xx_StdPeriph_Driver/src/stm32f4xx_spi.c ****       
 421:../STM32F4xx_StdPeriph_Driver/src/stm32f4xx_spi.c ****     /* Check the parity of the divider */
 422:../STM32F4xx_StdPeriph_Driver/src/stm32f4xx_spi.c ****     i2sodd = (uint16_t)(tmp & (uint16_t)0x0001);
 404              		.loc 1 422 0
 405 02c0 FB69     		ldr	r3, [r7, #28]
 406 02c2 9BB2     		uxth	r3, r3
 407 02c4 03F00103 		and	r3, r3, #1
 408 02c8 BB84     		strh	r3, [r7, #36]	@ movhi
 423:../STM32F4xx_StdPeriph_Driver/src/stm32f4xx_spi.c ****    
 424:../STM32F4xx_StdPeriph_Driver/src/stm32f4xx_spi.c ****     /* Compute the i2sdiv prescaler */
 425:../STM32F4xx_StdPeriph_Driver/src/stm32f4xx_spi.c ****     i2sdiv = (uint16_t)((tmp - i2sodd) / 2);
 409              		.loc 1 425 0
 410 02ca BB8C     		ldrh	r3, [r7, #36]
 411 02cc FA69     		ldr	r2, [r7, #28]
 412 02ce D31A     		subs	r3, r2, r3
 413 02d0 4FEA5303 		lsr	r3, r3, #1
 414 02d4 FB84     		strh	r3, [r7, #38]	@ movhi
 426:../STM32F4xx_StdPeriph_Driver/src/stm32f4xx_spi.c ****    
 427:../STM32F4xx_StdPeriph_Driver/src/stm32f4xx_spi.c ****     /* Get the Mask for the Odd bit (SPI_I2SPR[8]) register */
 428:../STM32F4xx_StdPeriph_Driver/src/stm32f4xx_spi.c ****     i2sodd = (uint16_t) (i2sodd << 8);
 415              		.loc 1 428 0
 416 02d6 BB8C     		ldrh	r3, [r7, #36]	@ movhi
 417 02d8 4FEA0323 		lsl	r3, r3, #8
 418 02dc BB84     		strh	r3, [r7, #36]	@ movhi
 419              	.L8:
 429:../STM32F4xx_StdPeriph_Driver/src/stm32f4xx_spi.c ****   }
 430:../STM32F4xx_StdPeriph_Driver/src/stm32f4xx_spi.c **** 
 431:../STM32F4xx_StdPeriph_Driver/src/stm32f4xx_spi.c ****   /* Test if the divider is 1 or 0 or greater than 0xFF */
 432:../STM32F4xx_StdPeriph_Driver/src/stm32f4xx_spi.c ****   if ((i2sdiv < 2) || (i2sdiv > 0xFF))
 420              		.loc 1 432 0
 421 02de FB8C     		ldrh	r3, [r7, #38]
 422 02e0 012B     		cmp	r3, #1
 423 02e2 02D9     		bls	.L15
 424              		.loc 1 432 0 is_stmt 0 discriminator 1
 425 02e4 FB8C     		ldrh	r3, [r7, #38]
 426 02e6 FF2B     		cmp	r3, #255
 427 02e8 05D9     		bls	.L16
 428              	.L15:
 433:../STM32F4xx_StdPeriph_Driver/src/stm32f4xx_spi.c ****   {
 434:../STM32F4xx_StdPeriph_Driver/src/stm32f4xx_spi.c ****     /* Set the default values */
 435:../STM32F4xx_StdPeriph_Driver/src/stm32f4xx_spi.c ****     i2sdiv = 2;
 429              		.loc 1 435 0 is_stmt 1
 430 02ea 4FF00203 		mov	r3, #2
 431 02ee FB84     		strh	r3, [r7, #38]	@ movhi
 436:../STM32F4xx_StdPeriph_Driver/src/stm32f4xx_spi.c ****     i2sodd = 0;
 432              		.loc 1 436 0
 433 02f0 4FF00003 		mov	r3, #0
 434 02f4 BB84     		strh	r3, [r7, #36]	@ movhi
 435              	.L16:
 437:../STM32F4xx_StdPeriph_Driver/src/stm32f4xx_spi.c ****   }
 438:../STM32F4xx_StdPeriph_Driver/src/stm32f4xx_spi.c **** 
 439:../STM32F4xx_StdPeriph_Driver/src/stm32f4xx_spi.c ****   /* Write to SPIx I2SPR register the computed value */
 440:../STM32F4xx_StdPeriph_Driver/src/stm32f4xx_spi.c ****   SPIx->I2SPR = (uint16_t)((uint16_t)i2sdiv | (uint16_t)(i2sodd | (uint16_t)I2S_InitStruct->I2S_MCL
 436              		.loc 1 440 0
 437 02f6 3B68     		ldr	r3, [r7, #0]
 438 02f8 DA88     		ldrh	r2, [r3, #6]
 439 02fa BB8C     		ldrh	r3, [r7, #36]	@ movhi
 440 02fc 1343     		orrs	r3, r3, r2
 441 02fe 9AB2     		uxth	r2, r3
 442 0300 FB8C     		ldrh	r3, [r7, #38]	@ movhi
 443 0302 1343     		orrs	r3, r3, r2
 444 0304 9AB2     		uxth	r2, r3
 445 0306 7B68     		ldr	r3, [r7, #4]
 446 0308 1A84     		strh	r2, [r3, #32]	@ movhi
 441:../STM32F4xx_StdPeriph_Driver/src/stm32f4xx_spi.c ****  
 442:../STM32F4xx_StdPeriph_Driver/src/stm32f4xx_spi.c ****   /* Configure the I2S with the SPI_InitStruct values */
 443:../STM32F4xx_StdPeriph_Driver/src/stm32f4xx_spi.c ****   tmpreg |= (uint16_t)((uint16_t)SPI_I2SCFGR_I2SMOD | (uint16_t)(I2S_InitStruct->I2S_Mode | \
 447              		.loc 1 443 0
 448 030a 3B68     		ldr	r3, [r7, #0]
 449 030c 1A88     		ldrh	r2, [r3, #0]
 444:../STM32F4xx_StdPeriph_Driver/src/stm32f4xx_spi.c ****                   (uint16_t)(I2S_InitStruct->I2S_Standard | (uint16_t)(I2S_InitStruct->I2S_DataForm
 450              		.loc 1 444 0
 451 030e 3B68     		ldr	r3, [r7, #0]
 452 0310 5988     		ldrh	r1, [r3, #2]
 453 0312 3B68     		ldr	r3, [r7, #0]
 454 0314 9888     		ldrh	r0, [r3, #4]
 445:../STM32F4xx_StdPeriph_Driver/src/stm32f4xx_spi.c ****                   (uint16_t)I2S_InitStruct->I2S_CPOL))));
 455              		.loc 1 445 0
 456 0316 3B68     		ldr	r3, [r7, #0]
 457 0318 9B89     		ldrh	r3, [r3, #12]
 444:../STM32F4xx_StdPeriph_Driver/src/stm32f4xx_spi.c ****                   (uint16_t)(I2S_InitStruct->I2S_Standard | (uint16_t)(I2S_InitStruct->I2S_DataForm
 458              		.loc 1 444 0
 459 031a 0343     		orrs	r3, r3, r0
 460 031c 9BB2     		uxth	r3, r3
 461 031e 0B43     		orrs	r3, r3, r1
 462 0320 9BB2     		uxth	r3, r3
 443:../STM32F4xx_StdPeriph_Driver/src/stm32f4xx_spi.c ****   tmpreg |= (uint16_t)((uint16_t)SPI_I2SCFGR_I2SMOD | (uint16_t)(I2S_InitStruct->I2S_Mode | \
 463              		.loc 1 443 0
 464 0322 1343     		orrs	r3, r3, r2
 465 0324 9AB2     		uxth	r2, r3
 466 0326 7B8B     		ldrh	r3, [r7, #26]	@ movhi
 467 0328 1343     		orrs	r3, r3, r2
 468 032a 9BB2     		uxth	r3, r3
 469 032c 43F40063 		orr	r3, r3, #2048
 470 0330 7B83     		strh	r3, [r7, #26]	@ movhi
 446:../STM32F4xx_StdPeriph_Driver/src/stm32f4xx_spi.c ****  
 447:../STM32F4xx_StdPeriph_Driver/src/stm32f4xx_spi.c ****   /* Write to SPIx I2SCFGR */  
 448:../STM32F4xx_StdPeriph_Driver/src/stm32f4xx_spi.c ****   SPIx->I2SCFGR = tmpreg;
 471              		.loc 1 448 0
 472 0332 7B68     		ldr	r3, [r7, #4]
 473 0334 7A8B     		ldrh	r2, [r7, #26]	@ movhi
 474 0336 9A83     		strh	r2, [r3, #28]	@ movhi
 449:../STM32F4xx_StdPeriph_Driver/src/stm32f4xx_spi.c **** }
 475              		.loc 1 449 0
 476 0338 07F12C07 		add	r7, r7, #44
 477 033c BD46     		mov	sp, r7
 478 033e 80BC     		pop	{r7}
 479 0340 7047     		bx	lr
 480              		.cfi_endproc
 481              	.LFE112:
 483 0342 00BF     		.align	2
 484              		.global	SPI_StructInit
 485              		.thumb
 486              		.thumb_func
 488              	SPI_StructInit:
 489              	.LFB113:
 450:../STM32F4xx_StdPeriph_Driver/src/stm32f4xx_spi.c **** 
 451:../STM32F4xx_StdPeriph_Driver/src/stm32f4xx_spi.c **** /**
 452:../STM32F4xx_StdPeriph_Driver/src/stm32f4xx_spi.c ****   * @brief  Fills each SPI_InitStruct member with its default value.
 453:../STM32F4xx_StdPeriph_Driver/src/stm32f4xx_spi.c ****   * @param  SPI_InitStruct: pointer to a SPI_InitTypeDef structure which will be initialized.
 454:../STM32F4xx_StdPeriph_Driver/src/stm32f4xx_spi.c ****   * @retval None
 455:../STM32F4xx_StdPeriph_Driver/src/stm32f4xx_spi.c ****   */
 456:../STM32F4xx_StdPeriph_Driver/src/stm32f4xx_spi.c **** void SPI_StructInit(SPI_InitTypeDef* SPI_InitStruct)
 457:../STM32F4xx_StdPeriph_Driver/src/stm32f4xx_spi.c **** {
 490              		.loc 1 457 0
 491              		.cfi_startproc
 492              		@ args = 0, pretend = 0, frame = 8
 493              		@ frame_needed = 1, uses_anonymous_args = 0
 494              		@ link register save eliminated.
 495 0344 80B4     		push	{r7}
 496              	.LCFI9:
 497              		.cfi_def_cfa_offset 4
 498              		.cfi_offset 7, -4
 499 0346 83B0     		sub	sp, sp, #12
 500              	.LCFI10:
 501              		.cfi_def_cfa_offset 16
 502 0348 00AF     		add	r7, sp, #0
 503              	.LCFI11:
 504              		.cfi_def_cfa_register 7
 505 034a 7860     		str	r0, [r7, #4]
 458:../STM32F4xx_StdPeriph_Driver/src/stm32f4xx_spi.c **** /*--------------- Reset SPI init structure parameters values -----------------*/
 459:../STM32F4xx_StdPeriph_Driver/src/stm32f4xx_spi.c ****   /* Initialize the SPI_Direction member */
 460:../STM32F4xx_StdPeriph_Driver/src/stm32f4xx_spi.c ****   SPI_InitStruct->SPI_Direction = SPI_Direction_2Lines_FullDuplex;
 506              		.loc 1 460 0
 507 034c 7B68     		ldr	r3, [r7, #4]
 508 034e 4FF00002 		mov	r2, #0
 509 0352 1A80     		strh	r2, [r3, #0]	@ movhi
 461:../STM32F4xx_StdPeriph_Driver/src/stm32f4xx_spi.c ****   /* initialize the SPI_Mode member */
 462:../STM32F4xx_StdPeriph_Driver/src/stm32f4xx_spi.c ****   SPI_InitStruct->SPI_Mode = SPI_Mode_Slave;
 510              		.loc 1 462 0
 511 0354 7B68     		ldr	r3, [r7, #4]
 512 0356 4FF00002 		mov	r2, #0
 513 035a 5A80     		strh	r2, [r3, #2]	@ movhi
 463:../STM32F4xx_StdPeriph_Driver/src/stm32f4xx_spi.c ****   /* initialize the SPI_DataSize member */
 464:../STM32F4xx_StdPeriph_Driver/src/stm32f4xx_spi.c ****   SPI_InitStruct->SPI_DataSize = SPI_DataSize_8b;
 514              		.loc 1 464 0
 515 035c 7B68     		ldr	r3, [r7, #4]
 516 035e 4FF00002 		mov	r2, #0
 517 0362 9A80     		strh	r2, [r3, #4]	@ movhi
 465:../STM32F4xx_StdPeriph_Driver/src/stm32f4xx_spi.c ****   /* Initialize the SPI_CPOL member */
 466:../STM32F4xx_StdPeriph_Driver/src/stm32f4xx_spi.c ****   SPI_InitStruct->SPI_CPOL = SPI_CPOL_Low;
 518              		.loc 1 466 0
 519 0364 7B68     		ldr	r3, [r7, #4]
 520 0366 4FF00002 		mov	r2, #0
 521 036a DA80     		strh	r2, [r3, #6]	@ movhi
 467:../STM32F4xx_StdPeriph_Driver/src/stm32f4xx_spi.c ****   /* Initialize the SPI_CPHA member */
 468:../STM32F4xx_StdPeriph_Driver/src/stm32f4xx_spi.c ****   SPI_InitStruct->SPI_CPHA = SPI_CPHA_1Edge;
 522              		.loc 1 468 0
 523 036c 7B68     		ldr	r3, [r7, #4]
 524 036e 4FF00002 		mov	r2, #0
 525 0372 1A81     		strh	r2, [r3, #8]	@ movhi
 469:../STM32F4xx_StdPeriph_Driver/src/stm32f4xx_spi.c ****   /* Initialize the SPI_NSS member */
 470:../STM32F4xx_StdPeriph_Driver/src/stm32f4xx_spi.c ****   SPI_InitStruct->SPI_NSS = SPI_NSS_Hard;
 526              		.loc 1 470 0
 527 0374 7B68     		ldr	r3, [r7, #4]
 528 0376 4FF00002 		mov	r2, #0
 529 037a 5A81     		strh	r2, [r3, #10]	@ movhi
 471:../STM32F4xx_StdPeriph_Driver/src/stm32f4xx_spi.c ****   /* Initialize the SPI_BaudRatePrescaler member */
 472:../STM32F4xx_StdPeriph_Driver/src/stm32f4xx_spi.c ****   SPI_InitStruct->SPI_BaudRatePrescaler = SPI_BaudRatePrescaler_2;
 530              		.loc 1 472 0
 531 037c 7B68     		ldr	r3, [r7, #4]
 532 037e 4FF00002 		mov	r2, #0
 533 0382 9A81     		strh	r2, [r3, #12]	@ movhi
 473:../STM32F4xx_StdPeriph_Driver/src/stm32f4xx_spi.c ****   /* Initialize the SPI_FirstBit member */
 474:../STM32F4xx_StdPeriph_Driver/src/stm32f4xx_spi.c ****   SPI_InitStruct->SPI_FirstBit = SPI_FirstBit_MSB;
 534              		.loc 1 474 0
 535 0384 7B68     		ldr	r3, [r7, #4]
 536 0386 4FF00002 		mov	r2, #0
 537 038a DA81     		strh	r2, [r3, #14]	@ movhi
 475:../STM32F4xx_StdPeriph_Driver/src/stm32f4xx_spi.c ****   /* Initialize the SPI_CRCPolynomial member */
 476:../STM32F4xx_StdPeriph_Driver/src/stm32f4xx_spi.c ****   SPI_InitStruct->SPI_CRCPolynomial = 7;
 538              		.loc 1 476 0
 539 038c 7B68     		ldr	r3, [r7, #4]
 540 038e 4FF00702 		mov	r2, #7
 541 0392 1A82     		strh	r2, [r3, #16]	@ movhi
 477:../STM32F4xx_StdPeriph_Driver/src/stm32f4xx_spi.c **** }
 542              		.loc 1 477 0
 543 0394 07F10C07 		add	r7, r7, #12
 544 0398 BD46     		mov	sp, r7
 545 039a 80BC     		pop	{r7}
 546 039c 7047     		bx	lr
 547              		.cfi_endproc
 548              	.LFE113:
 550 039e 00BF     		.align	2
 551              		.global	I2S_StructInit
 552              		.thumb
 553              		.thumb_func
 555              	I2S_StructInit:
 556              	.LFB114:
 478:../STM32F4xx_StdPeriph_Driver/src/stm32f4xx_spi.c **** 
 479:../STM32F4xx_StdPeriph_Driver/src/stm32f4xx_spi.c **** /**
 480:../STM32F4xx_StdPeriph_Driver/src/stm32f4xx_spi.c ****   * @brief  Fills each I2S_InitStruct member with its default value.
 481:../STM32F4xx_StdPeriph_Driver/src/stm32f4xx_spi.c ****   * @param  I2S_InitStruct: pointer to a I2S_InitTypeDef structure which will be initialized.
 482:../STM32F4xx_StdPeriph_Driver/src/stm32f4xx_spi.c ****   * @retval None
 483:../STM32F4xx_StdPeriph_Driver/src/stm32f4xx_spi.c ****   */
 484:../STM32F4xx_StdPeriph_Driver/src/stm32f4xx_spi.c **** void I2S_StructInit(I2S_InitTypeDef* I2S_InitStruct)
 485:../STM32F4xx_StdPeriph_Driver/src/stm32f4xx_spi.c **** {
 557              		.loc 1 485 0
 558              		.cfi_startproc
 559              		@ args = 0, pretend = 0, frame = 8
 560              		@ frame_needed = 1, uses_anonymous_args = 0
 561              		@ link register save eliminated.
 562 03a0 80B4     		push	{r7}
 563              	.LCFI12:
 564              		.cfi_def_cfa_offset 4
 565              		.cfi_offset 7, -4
 566 03a2 83B0     		sub	sp, sp, #12
 567              	.LCFI13:
 568              		.cfi_def_cfa_offset 16
 569 03a4 00AF     		add	r7, sp, #0
 570              	.LCFI14:
 571              		.cfi_def_cfa_register 7
 572 03a6 7860     		str	r0, [r7, #4]
 486:../STM32F4xx_StdPeriph_Driver/src/stm32f4xx_spi.c **** /*--------------- Reset I2S init structure parameters values -----------------*/
 487:../STM32F4xx_StdPeriph_Driver/src/stm32f4xx_spi.c ****   /* Initialize the I2S_Mode member */
 488:../STM32F4xx_StdPeriph_Driver/src/stm32f4xx_spi.c ****   I2S_InitStruct->I2S_Mode = I2S_Mode_SlaveTx;
 573              		.loc 1 488 0
 574 03a8 7B68     		ldr	r3, [r7, #4]
 575 03aa 4FF00002 		mov	r2, #0
 576 03ae 1A80     		strh	r2, [r3, #0]	@ movhi
 489:../STM32F4xx_StdPeriph_Driver/src/stm32f4xx_spi.c ****   
 490:../STM32F4xx_StdPeriph_Driver/src/stm32f4xx_spi.c ****   /* Initialize the I2S_Standard member */
 491:../STM32F4xx_StdPeriph_Driver/src/stm32f4xx_spi.c ****   I2S_InitStruct->I2S_Standard = I2S_Standard_Phillips;
 577              		.loc 1 491 0
 578 03b0 7B68     		ldr	r3, [r7, #4]
 579 03b2 4FF00002 		mov	r2, #0
 580 03b6 5A80     		strh	r2, [r3, #2]	@ movhi
 492:../STM32F4xx_StdPeriph_Driver/src/stm32f4xx_spi.c ****   
 493:../STM32F4xx_StdPeriph_Driver/src/stm32f4xx_spi.c ****   /* Initialize the I2S_DataFormat member */
 494:../STM32F4xx_StdPeriph_Driver/src/stm32f4xx_spi.c ****   I2S_InitStruct->I2S_DataFormat = I2S_DataFormat_16b;
 581              		.loc 1 494 0
 582 03b8 7B68     		ldr	r3, [r7, #4]
 583 03ba 4FF00002 		mov	r2, #0
 584 03be 9A80     		strh	r2, [r3, #4]	@ movhi
 495:../STM32F4xx_StdPeriph_Driver/src/stm32f4xx_spi.c ****   
 496:../STM32F4xx_StdPeriph_Driver/src/stm32f4xx_spi.c ****   /* Initialize the I2S_MCLKOutput member */
 497:../STM32F4xx_StdPeriph_Driver/src/stm32f4xx_spi.c ****   I2S_InitStruct->I2S_MCLKOutput = I2S_MCLKOutput_Disable;
 585              		.loc 1 497 0
 586 03c0 7B68     		ldr	r3, [r7, #4]
 587 03c2 4FF00002 		mov	r2, #0
 588 03c6 DA80     		strh	r2, [r3, #6]	@ movhi
 498:../STM32F4xx_StdPeriph_Driver/src/stm32f4xx_spi.c ****   
 499:../STM32F4xx_StdPeriph_Driver/src/stm32f4xx_spi.c ****   /* Initialize the I2S_AudioFreq member */
 500:../STM32F4xx_StdPeriph_Driver/src/stm32f4xx_spi.c ****   I2S_InitStruct->I2S_AudioFreq = I2S_AudioFreq_Default;
 589              		.loc 1 500 0
 590 03c8 7B68     		ldr	r3, [r7, #4]
 591 03ca 4AF64442 		movw	r2, #44100
 592 03ce 9A60     		str	r2, [r3, #8]
 501:../STM32F4xx_StdPeriph_Driver/src/stm32f4xx_spi.c ****   
 502:../STM32F4xx_StdPeriph_Driver/src/stm32f4xx_spi.c ****   /* Initialize the I2S_CPOL member */
 503:../STM32F4xx_StdPeriph_Driver/src/stm32f4xx_spi.c ****   I2S_InitStruct->I2S_CPOL = I2S_CPOL_Low;
 593              		.loc 1 503 0
 594 03d0 7B68     		ldr	r3, [r7, #4]
 595 03d2 4FF00002 		mov	r2, #0
 596 03d6 9A81     		strh	r2, [r3, #12]	@ movhi
 504:../STM32F4xx_StdPeriph_Driver/src/stm32f4xx_spi.c **** }
 597              		.loc 1 504 0
 598 03d8 07F10C07 		add	r7, r7, #12
 599 03dc BD46     		mov	sp, r7
 600 03de 80BC     		pop	{r7}
 601 03e0 7047     		bx	lr
 602              		.cfi_endproc
 603              	.LFE114:
 605 03e2 00BF     		.align	2
 606              		.global	SPI_Cmd
 607              		.thumb
 608              		.thumb_func
 610              	SPI_Cmd:
 611              	.LFB115:
 505:../STM32F4xx_StdPeriph_Driver/src/stm32f4xx_spi.c **** 
 506:../STM32F4xx_StdPeriph_Driver/src/stm32f4xx_spi.c **** /**
 507:../STM32F4xx_StdPeriph_Driver/src/stm32f4xx_spi.c ****   * @brief  Enables or disables the specified SPI peripheral.
 508:../STM32F4xx_StdPeriph_Driver/src/stm32f4xx_spi.c ****   * @param  SPIx: where x can be 1, 2 or 3 to select the SPI peripheral.
 509:../STM32F4xx_StdPeriph_Driver/src/stm32f4xx_spi.c ****   * @param  NewState: new state of the SPIx peripheral. 
 510:../STM32F4xx_StdPeriph_Driver/src/stm32f4xx_spi.c ****   *          This parameter can be: ENABLE or DISABLE.
 511:../STM32F4xx_StdPeriph_Driver/src/stm32f4xx_spi.c ****   * @retval None
 512:../STM32F4xx_StdPeriph_Driver/src/stm32f4xx_spi.c ****   */
 513:../STM32F4xx_StdPeriph_Driver/src/stm32f4xx_spi.c **** void SPI_Cmd(SPI_TypeDef* SPIx, FunctionalState NewState)
 514:../STM32F4xx_StdPeriph_Driver/src/stm32f4xx_spi.c **** {
 612              		.loc 1 514 0
 613              		.cfi_startproc
 614              		@ args = 0, pretend = 0, frame = 8
 615              		@ frame_needed = 1, uses_anonymous_args = 0
 616              		@ link register save eliminated.
 617 03e4 80B4     		push	{r7}
 618              	.LCFI15:
 619              		.cfi_def_cfa_offset 4
 620              		.cfi_offset 7, -4
 621 03e6 83B0     		sub	sp, sp, #12
 622              	.LCFI16:
 623              		.cfi_def_cfa_offset 16
 624 03e8 00AF     		add	r7, sp, #0
 625              	.LCFI17:
 626              		.cfi_def_cfa_register 7
 627 03ea 7860     		str	r0, [r7, #4]
 628 03ec 0B46     		mov	r3, r1
 629 03ee FB70     		strb	r3, [r7, #3]
 515:../STM32F4xx_StdPeriph_Driver/src/stm32f4xx_spi.c ****   /* Check the parameters */
 516:../STM32F4xx_StdPeriph_Driver/src/stm32f4xx_spi.c ****   assert_param(IS_SPI_ALL_PERIPH(SPIx));
 517:../STM32F4xx_StdPeriph_Driver/src/stm32f4xx_spi.c ****   assert_param(IS_FUNCTIONAL_STATE(NewState));
 518:../STM32F4xx_StdPeriph_Driver/src/stm32f4xx_spi.c ****   if (NewState != DISABLE)
 630              		.loc 1 518 0
 631 03f0 FB78     		ldrb	r3, [r7, #3]	@ zero_extendqisi2
 632 03f2 002B     		cmp	r3, #0
 633 03f4 08D0     		beq	.L20
 519:../STM32F4xx_StdPeriph_Driver/src/stm32f4xx_spi.c ****   {
 520:../STM32F4xx_StdPeriph_Driver/src/stm32f4xx_spi.c ****     /* Enable the selected SPI peripheral */
 521:../STM32F4xx_StdPeriph_Driver/src/stm32f4xx_spi.c ****     SPIx->CR1 |= SPI_CR1_SPE;
 634              		.loc 1 521 0
 635 03f6 7B68     		ldr	r3, [r7, #4]
 636 03f8 1B88     		ldrh	r3, [r3, #0]	@ movhi
 637 03fa 9BB2     		uxth	r3, r3
 638 03fc 43F04003 		orr	r3, r3, #64
 639 0400 9AB2     		uxth	r2, r3
 640 0402 7B68     		ldr	r3, [r7, #4]
 641 0404 1A80     		strh	r2, [r3, #0]	@ movhi
 642 0406 07E0     		b	.L19
 643              	.L20:
 522:../STM32F4xx_StdPeriph_Driver/src/stm32f4xx_spi.c ****   }
 523:../STM32F4xx_StdPeriph_Driver/src/stm32f4xx_spi.c ****   else
 524:../STM32F4xx_StdPeriph_Driver/src/stm32f4xx_spi.c ****   {
 525:../STM32F4xx_StdPeriph_Driver/src/stm32f4xx_spi.c ****     /* Disable the selected SPI peripheral */
 526:../STM32F4xx_StdPeriph_Driver/src/stm32f4xx_spi.c ****     SPIx->CR1 &= (uint16_t)~((uint16_t)SPI_CR1_SPE);
 644              		.loc 1 526 0
 645 0408 7B68     		ldr	r3, [r7, #4]
 646 040a 1B88     		ldrh	r3, [r3, #0]	@ movhi
 647 040c 9BB2     		uxth	r3, r3
 648 040e 23F04003 		bic	r3, r3, #64
 649 0412 9AB2     		uxth	r2, r3
 650 0414 7B68     		ldr	r3, [r7, #4]
 651 0416 1A80     		strh	r2, [r3, #0]	@ movhi
 652              	.L19:
 527:../STM32F4xx_StdPeriph_Driver/src/stm32f4xx_spi.c ****   }
 528:../STM32F4xx_StdPeriph_Driver/src/stm32f4xx_spi.c **** }
 653              		.loc 1 528 0
 654 0418 07F10C07 		add	r7, r7, #12
 655 041c BD46     		mov	sp, r7
 656 041e 80BC     		pop	{r7}
 657 0420 7047     		bx	lr
 658              		.cfi_endproc
 659              	.LFE115:
 661 0422 00BF     		.align	2
 662              		.global	I2S_Cmd
 663              		.thumb
 664              		.thumb_func
 666              	I2S_Cmd:
 667              	.LFB116:
 529:../STM32F4xx_StdPeriph_Driver/src/stm32f4xx_spi.c **** 
 530:../STM32F4xx_StdPeriph_Driver/src/stm32f4xx_spi.c **** /**
 531:../STM32F4xx_StdPeriph_Driver/src/stm32f4xx_spi.c ****   * @brief  Enables or disables the specified SPI peripheral (in I2S mode).
 532:../STM32F4xx_StdPeriph_Driver/src/stm32f4xx_spi.c ****   * @param  SPIx: where x can be 2 or 3 to select the SPI peripheral (or I2Sxext 
 533:../STM32F4xx_StdPeriph_Driver/src/stm32f4xx_spi.c ****   *         for full duplex mode).
 534:../STM32F4xx_StdPeriph_Driver/src/stm32f4xx_spi.c ****   * @param  NewState: new state of the SPIx peripheral. 
 535:../STM32F4xx_StdPeriph_Driver/src/stm32f4xx_spi.c ****   *         This parameter can be: ENABLE or DISABLE.
 536:../STM32F4xx_StdPeriph_Driver/src/stm32f4xx_spi.c ****   * @retval None
 537:../STM32F4xx_StdPeriph_Driver/src/stm32f4xx_spi.c ****   */
 538:../STM32F4xx_StdPeriph_Driver/src/stm32f4xx_spi.c **** void I2S_Cmd(SPI_TypeDef* SPIx, FunctionalState NewState)
 539:../STM32F4xx_StdPeriph_Driver/src/stm32f4xx_spi.c **** {
 668              		.loc 1 539 0
 669              		.cfi_startproc
 670              		@ args = 0, pretend = 0, frame = 8
 671              		@ frame_needed = 1, uses_anonymous_args = 0
 672              		@ link register save eliminated.
 673 0424 80B4     		push	{r7}
 674              	.LCFI18:
 675              		.cfi_def_cfa_offset 4
 676              		.cfi_offset 7, -4
 677 0426 83B0     		sub	sp, sp, #12
 678              	.LCFI19:
 679              		.cfi_def_cfa_offset 16
 680 0428 00AF     		add	r7, sp, #0
 681              	.LCFI20:
 682              		.cfi_def_cfa_register 7
 683 042a 7860     		str	r0, [r7, #4]
 684 042c 0B46     		mov	r3, r1
 685 042e FB70     		strb	r3, [r7, #3]
 540:../STM32F4xx_StdPeriph_Driver/src/stm32f4xx_spi.c ****   /* Check the parameters */
 541:../STM32F4xx_StdPeriph_Driver/src/stm32f4xx_spi.c ****   assert_param(IS_SPI_23_PERIPH_EXT(SPIx));
 542:../STM32F4xx_StdPeriph_Driver/src/stm32f4xx_spi.c ****   assert_param(IS_FUNCTIONAL_STATE(NewState));
 543:../STM32F4xx_StdPeriph_Driver/src/stm32f4xx_spi.c ****   
 544:../STM32F4xx_StdPeriph_Driver/src/stm32f4xx_spi.c ****   if (NewState != DISABLE)
 686              		.loc 1 544 0
 687 0430 FB78     		ldrb	r3, [r7, #3]	@ zero_extendqisi2
 688 0432 002B     		cmp	r3, #0
 689 0434 08D0     		beq	.L23
 545:../STM32F4xx_StdPeriph_Driver/src/stm32f4xx_spi.c ****   {
 546:../STM32F4xx_StdPeriph_Driver/src/stm32f4xx_spi.c ****     /* Enable the selected SPI peripheral (in I2S mode) */
 547:../STM32F4xx_StdPeriph_Driver/src/stm32f4xx_spi.c ****     SPIx->I2SCFGR |= SPI_I2SCFGR_I2SE;
 690              		.loc 1 547 0
 691 0436 7B68     		ldr	r3, [r7, #4]
 692 0438 9B8B     		ldrh	r3, [r3, #28]	@ movhi
 693 043a 9BB2     		uxth	r3, r3
 694 043c 43F48063 		orr	r3, r3, #1024
 695 0440 9AB2     		uxth	r2, r3
 696 0442 7B68     		ldr	r3, [r7, #4]
 697 0444 9A83     		strh	r2, [r3, #28]	@ movhi
 698 0446 07E0     		b	.L22
 699              	.L23:
 548:../STM32F4xx_StdPeriph_Driver/src/stm32f4xx_spi.c ****   }
 549:../STM32F4xx_StdPeriph_Driver/src/stm32f4xx_spi.c ****   else
 550:../STM32F4xx_StdPeriph_Driver/src/stm32f4xx_spi.c ****   {
 551:../STM32F4xx_StdPeriph_Driver/src/stm32f4xx_spi.c ****     /* Disable the selected SPI peripheral in I2S mode */
 552:../STM32F4xx_StdPeriph_Driver/src/stm32f4xx_spi.c ****     SPIx->I2SCFGR &= (uint16_t)~((uint16_t)SPI_I2SCFGR_I2SE);
 700              		.loc 1 552 0
 701 0448 7B68     		ldr	r3, [r7, #4]
 702 044a 9B8B     		ldrh	r3, [r3, #28]	@ movhi
 703 044c 9BB2     		uxth	r3, r3
 704 044e 23F48063 		bic	r3, r3, #1024
 705 0452 9AB2     		uxth	r2, r3
 706 0454 7B68     		ldr	r3, [r7, #4]
 707 0456 9A83     		strh	r2, [r3, #28]	@ movhi
 708              	.L22:
 553:../STM32F4xx_StdPeriph_Driver/src/stm32f4xx_spi.c ****   }
 554:../STM32F4xx_StdPeriph_Driver/src/stm32f4xx_spi.c **** }
 709              		.loc 1 554 0
 710 0458 07F10C07 		add	r7, r7, #12
 711 045c BD46     		mov	sp, r7
 712 045e 80BC     		pop	{r7}
 713 0460 7047     		bx	lr
 714              		.cfi_endproc
 715              	.LFE116:
 717 0462 00BF     		.align	2
 718              		.global	SPI_DataSizeConfig
 719              		.thumb
 720              		.thumb_func
 722              	SPI_DataSizeConfig:
 723              	.LFB117:
 555:../STM32F4xx_StdPeriph_Driver/src/stm32f4xx_spi.c **** 
 556:../STM32F4xx_StdPeriph_Driver/src/stm32f4xx_spi.c **** /**
 557:../STM32F4xx_StdPeriph_Driver/src/stm32f4xx_spi.c ****   * @brief  Configures the data size for the selected SPI.
 558:../STM32F4xx_StdPeriph_Driver/src/stm32f4xx_spi.c ****   * @param  SPIx: where x can be 1, 2 or 3 to select the SPI peripheral.
 559:../STM32F4xx_StdPeriph_Driver/src/stm32f4xx_spi.c ****   * @param  SPI_DataSize: specifies the SPI data size.
 560:../STM32F4xx_StdPeriph_Driver/src/stm32f4xx_spi.c ****   *          This parameter can be one of the following values:
 561:../STM32F4xx_StdPeriph_Driver/src/stm32f4xx_spi.c ****   *            @arg SPI_DataSize_16b: Set data frame format to 16bit
 562:../STM32F4xx_StdPeriph_Driver/src/stm32f4xx_spi.c ****   *            @arg SPI_DataSize_8b: Set data frame format to 8bit
 563:../STM32F4xx_StdPeriph_Driver/src/stm32f4xx_spi.c ****   * @retval None
 564:../STM32F4xx_StdPeriph_Driver/src/stm32f4xx_spi.c ****   */
 565:../STM32F4xx_StdPeriph_Driver/src/stm32f4xx_spi.c **** void SPI_DataSizeConfig(SPI_TypeDef* SPIx, uint16_t SPI_DataSize)
 566:../STM32F4xx_StdPeriph_Driver/src/stm32f4xx_spi.c **** {
 724              		.loc 1 566 0
 725              		.cfi_startproc
 726              		@ args = 0, pretend = 0, frame = 8
 727              		@ frame_needed = 1, uses_anonymous_args = 0
 728              		@ link register save eliminated.
 729 0464 80B4     		push	{r7}
 730              	.LCFI21:
 731              		.cfi_def_cfa_offset 4
 732              		.cfi_offset 7, -4
 733 0466 83B0     		sub	sp, sp, #12
 734              	.LCFI22:
 735              		.cfi_def_cfa_offset 16
 736 0468 00AF     		add	r7, sp, #0
 737              	.LCFI23:
 738              		.cfi_def_cfa_register 7
 739 046a 7860     		str	r0, [r7, #4]
 740 046c 0B46     		mov	r3, r1
 741 046e 7B80     		strh	r3, [r7, #2]	@ movhi
 567:../STM32F4xx_StdPeriph_Driver/src/stm32f4xx_spi.c ****   /* Check the parameters */
 568:../STM32F4xx_StdPeriph_Driver/src/stm32f4xx_spi.c ****   assert_param(IS_SPI_ALL_PERIPH(SPIx));
 569:../STM32F4xx_StdPeriph_Driver/src/stm32f4xx_spi.c ****   assert_param(IS_SPI_DATASIZE(SPI_DataSize));
 570:../STM32F4xx_StdPeriph_Driver/src/stm32f4xx_spi.c ****   /* Clear DFF bit */
 571:../STM32F4xx_StdPeriph_Driver/src/stm32f4xx_spi.c ****   SPIx->CR1 &= (uint16_t)~SPI_DataSize_16b;
 742              		.loc 1 571 0
 743 0470 7B68     		ldr	r3, [r7, #4]
 744 0472 1B88     		ldrh	r3, [r3, #0]	@ movhi
 745 0474 9BB2     		uxth	r3, r3
 746 0476 23F40063 		bic	r3, r3, #2048
 747 047a 9AB2     		uxth	r2, r3
 748 047c 7B68     		ldr	r3, [r7, #4]
 749 047e 1A80     		strh	r2, [r3, #0]	@ movhi
 572:../STM32F4xx_StdPeriph_Driver/src/stm32f4xx_spi.c ****   /* Set new DFF bit value */
 573:../STM32F4xx_StdPeriph_Driver/src/stm32f4xx_spi.c ****   SPIx->CR1 |= SPI_DataSize;
 750              		.loc 1 573 0
 751 0480 7B68     		ldr	r3, [r7, #4]
 752 0482 1B88     		ldrh	r3, [r3, #0]	@ movhi
 753 0484 9AB2     		uxth	r2, r3
 754 0486 7B88     		ldrh	r3, [r7, #2]	@ movhi
 755 0488 1343     		orrs	r3, r3, r2
 756 048a 9AB2     		uxth	r2, r3
 757 048c 7B68     		ldr	r3, [r7, #4]
 758 048e 1A80     		strh	r2, [r3, #0]	@ movhi
 574:../STM32F4xx_StdPeriph_Driver/src/stm32f4xx_spi.c **** }
 759              		.loc 1 574 0
 760 0490 07F10C07 		add	r7, r7, #12
 761 0494 BD46     		mov	sp, r7
 762 0496 80BC     		pop	{r7}
 763 0498 7047     		bx	lr
 764              		.cfi_endproc
 765              	.LFE117:
 767 049a 00BF     		.align	2
 768              		.global	SPI_BiDirectionalLineConfig
 769              		.thumb
 770              		.thumb_func
 772              	SPI_BiDirectionalLineConfig:
 773              	.LFB118:
 575:../STM32F4xx_StdPeriph_Driver/src/stm32f4xx_spi.c **** 
 576:../STM32F4xx_StdPeriph_Driver/src/stm32f4xx_spi.c **** /**
 577:../STM32F4xx_StdPeriph_Driver/src/stm32f4xx_spi.c ****   * @brief  Selects the data transfer direction in bidirectional mode for the specified SPI.
 578:../STM32F4xx_StdPeriph_Driver/src/stm32f4xx_spi.c ****   * @param  SPIx: where x can be 1, 2 or 3 to select the SPI peripheral.
 579:../STM32F4xx_StdPeriph_Driver/src/stm32f4xx_spi.c ****   * @param  SPI_Direction: specifies the data transfer direction in bidirectional mode. 
 580:../STM32F4xx_StdPeriph_Driver/src/stm32f4xx_spi.c ****   *          This parameter can be one of the following values:
 581:../STM32F4xx_StdPeriph_Driver/src/stm32f4xx_spi.c ****   *            @arg SPI_Direction_Tx: Selects Tx transmission direction
 582:../STM32F4xx_StdPeriph_Driver/src/stm32f4xx_spi.c ****   *            @arg SPI_Direction_Rx: Selects Rx receive direction
 583:../STM32F4xx_StdPeriph_Driver/src/stm32f4xx_spi.c ****   * @retval None
 584:../STM32F4xx_StdPeriph_Driver/src/stm32f4xx_spi.c ****   */
 585:../STM32F4xx_StdPeriph_Driver/src/stm32f4xx_spi.c **** void SPI_BiDirectionalLineConfig(SPI_TypeDef* SPIx, uint16_t SPI_Direction)
 586:../STM32F4xx_StdPeriph_Driver/src/stm32f4xx_spi.c **** {
 774              		.loc 1 586 0
 775              		.cfi_startproc
 776              		@ args = 0, pretend = 0, frame = 8
 777              		@ frame_needed = 1, uses_anonymous_args = 0
 778              		@ link register save eliminated.
 779 049c 80B4     		push	{r7}
 780              	.LCFI24:
 781              		.cfi_def_cfa_offset 4
 782              		.cfi_offset 7, -4
 783 049e 83B0     		sub	sp, sp, #12
 784              	.LCFI25:
 785              		.cfi_def_cfa_offset 16
 786 04a0 00AF     		add	r7, sp, #0
 787              	.LCFI26:
 788              		.cfi_def_cfa_register 7
 789 04a2 7860     		str	r0, [r7, #4]
 790 04a4 0B46     		mov	r3, r1
 791 04a6 7B80     		strh	r3, [r7, #2]	@ movhi
 587:../STM32F4xx_StdPeriph_Driver/src/stm32f4xx_spi.c ****   /* Check the parameters */
 588:../STM32F4xx_StdPeriph_Driver/src/stm32f4xx_spi.c ****   assert_param(IS_SPI_ALL_PERIPH(SPIx));
 589:../STM32F4xx_StdPeriph_Driver/src/stm32f4xx_spi.c ****   assert_param(IS_SPI_DIRECTION(SPI_Direction));
 590:../STM32F4xx_StdPeriph_Driver/src/stm32f4xx_spi.c ****   if (SPI_Direction == SPI_Direction_Tx)
 792              		.loc 1 590 0
 793 04a8 7B88     		ldrh	r3, [r7, #2]
 794 04aa B3F5804F 		cmp	r3, #16384
 795 04ae 08D1     		bne	.L27
 591:../STM32F4xx_StdPeriph_Driver/src/stm32f4xx_spi.c ****   {
 592:../STM32F4xx_StdPeriph_Driver/src/stm32f4xx_spi.c ****     /* Set the Tx only mode */
 593:../STM32F4xx_StdPeriph_Driver/src/stm32f4xx_spi.c ****     SPIx->CR1 |= SPI_Direction_Tx;
 796              		.loc 1 593 0
 797 04b0 7B68     		ldr	r3, [r7, #4]
 798 04b2 1B88     		ldrh	r3, [r3, #0]	@ movhi
 799 04b4 9BB2     		uxth	r3, r3
 800 04b6 43F48043 		orr	r3, r3, #16384
 801 04ba 9AB2     		uxth	r2, r3
 802 04bc 7B68     		ldr	r3, [r7, #4]
 803 04be 1A80     		strh	r2, [r3, #0]	@ movhi
 804 04c0 07E0     		b	.L26
 805              	.L27:
 594:../STM32F4xx_StdPeriph_Driver/src/stm32f4xx_spi.c ****   }
 595:../STM32F4xx_StdPeriph_Driver/src/stm32f4xx_spi.c ****   else
 596:../STM32F4xx_StdPeriph_Driver/src/stm32f4xx_spi.c ****   {
 597:../STM32F4xx_StdPeriph_Driver/src/stm32f4xx_spi.c ****     /* Set the Rx only mode */
 598:../STM32F4xx_StdPeriph_Driver/src/stm32f4xx_spi.c ****     SPIx->CR1 &= SPI_Direction_Rx;
 806              		.loc 1 598 0
 807 04c2 7B68     		ldr	r3, [r7, #4]
 808 04c4 1B88     		ldrh	r3, [r3, #0]	@ movhi
 809 04c6 9BB2     		uxth	r3, r3
 810 04c8 23F48043 		bic	r3, r3, #16384
 811 04cc 9AB2     		uxth	r2, r3
 812 04ce 7B68     		ldr	r3, [r7, #4]
 813 04d0 1A80     		strh	r2, [r3, #0]	@ movhi
 814              	.L26:
 599:../STM32F4xx_StdPeriph_Driver/src/stm32f4xx_spi.c ****   }
 600:../STM32F4xx_StdPeriph_Driver/src/stm32f4xx_spi.c **** }
 815              		.loc 1 600 0
 816 04d2 07F10C07 		add	r7, r7, #12
 817 04d6 BD46     		mov	sp, r7
 818 04d8 80BC     		pop	{r7}
 819 04da 7047     		bx	lr
 820              		.cfi_endproc
 821              	.LFE118:
 823              		.align	2
 824              		.global	SPI_NSSInternalSoftwareConfig
 825              		.thumb
 826              		.thumb_func
 828              	SPI_NSSInternalSoftwareConfig:
 829              	.LFB119:
 601:../STM32F4xx_StdPeriph_Driver/src/stm32f4xx_spi.c **** 
 602:../STM32F4xx_StdPeriph_Driver/src/stm32f4xx_spi.c **** /**
 603:../STM32F4xx_StdPeriph_Driver/src/stm32f4xx_spi.c ****   * @brief  Configures internally by software the NSS pin for the selected SPI.
 604:../STM32F4xx_StdPeriph_Driver/src/stm32f4xx_spi.c ****   * @param  SPIx: where x can be 1, 2 or 3 to select the SPI peripheral.
 605:../STM32F4xx_StdPeriph_Driver/src/stm32f4xx_spi.c ****   * @param  SPI_NSSInternalSoft: specifies the SPI NSS internal state.
 606:../STM32F4xx_StdPeriph_Driver/src/stm32f4xx_spi.c ****   *          This parameter can be one of the following values:
 607:../STM32F4xx_StdPeriph_Driver/src/stm32f4xx_spi.c ****   *            @arg SPI_NSSInternalSoft_Set: Set NSS pin internally
 608:../STM32F4xx_StdPeriph_Driver/src/stm32f4xx_spi.c ****   *            @arg SPI_NSSInternalSoft_Reset: Reset NSS pin internally
 609:../STM32F4xx_StdPeriph_Driver/src/stm32f4xx_spi.c ****   * @retval None
 610:../STM32F4xx_StdPeriph_Driver/src/stm32f4xx_spi.c ****   */
 611:../STM32F4xx_StdPeriph_Driver/src/stm32f4xx_spi.c **** void SPI_NSSInternalSoftwareConfig(SPI_TypeDef* SPIx, uint16_t SPI_NSSInternalSoft)
 612:../STM32F4xx_StdPeriph_Driver/src/stm32f4xx_spi.c **** {
 830              		.loc 1 612 0
 831              		.cfi_startproc
 832              		@ args = 0, pretend = 0, frame = 8
 833              		@ frame_needed = 1, uses_anonymous_args = 0
 834              		@ link register save eliminated.
 835 04dc 80B4     		push	{r7}
 836              	.LCFI27:
 837              		.cfi_def_cfa_offset 4
 838              		.cfi_offset 7, -4
 839 04de 83B0     		sub	sp, sp, #12
 840              	.LCFI28:
 841              		.cfi_def_cfa_offset 16
 842 04e0 00AF     		add	r7, sp, #0
 843              	.LCFI29:
 844              		.cfi_def_cfa_register 7
 845 04e2 7860     		str	r0, [r7, #4]
 846 04e4 0B46     		mov	r3, r1
 847 04e6 7B80     		strh	r3, [r7, #2]	@ movhi
 613:../STM32F4xx_StdPeriph_Driver/src/stm32f4xx_spi.c ****   /* Check the parameters */
 614:../STM32F4xx_StdPeriph_Driver/src/stm32f4xx_spi.c ****   assert_param(IS_SPI_ALL_PERIPH(SPIx));
 615:../STM32F4xx_StdPeriph_Driver/src/stm32f4xx_spi.c ****   assert_param(IS_SPI_NSS_INTERNAL(SPI_NSSInternalSoft));
 616:../STM32F4xx_StdPeriph_Driver/src/stm32f4xx_spi.c ****   if (SPI_NSSInternalSoft != SPI_NSSInternalSoft_Reset)
 848              		.loc 1 616 0
 849 04e8 7A88     		ldrh	r2, [r7, #2]
 850 04ea 4FF6FF63 		movw	r3, #65279
 851 04ee 9A42     		cmp	r2, r3
 852 04f0 08D0     		beq	.L30
 617:../STM32F4xx_StdPeriph_Driver/src/stm32f4xx_spi.c ****   {
 618:../STM32F4xx_StdPeriph_Driver/src/stm32f4xx_spi.c ****     /* Set NSS pin internally by software */
 619:../STM32F4xx_StdPeriph_Driver/src/stm32f4xx_spi.c ****     SPIx->CR1 |= SPI_NSSInternalSoft_Set;
 853              		.loc 1 619 0
 854 04f2 7B68     		ldr	r3, [r7, #4]
 855 04f4 1B88     		ldrh	r3, [r3, #0]	@ movhi
 856 04f6 9BB2     		uxth	r3, r3
 857 04f8 43F48073 		orr	r3, r3, #256
 858 04fc 9AB2     		uxth	r2, r3
 859 04fe 7B68     		ldr	r3, [r7, #4]
 860 0500 1A80     		strh	r2, [r3, #0]	@ movhi
 861 0502 07E0     		b	.L29
 862              	.L30:
 620:../STM32F4xx_StdPeriph_Driver/src/stm32f4xx_spi.c ****   }
 621:../STM32F4xx_StdPeriph_Driver/src/stm32f4xx_spi.c ****   else
 622:../STM32F4xx_StdPeriph_Driver/src/stm32f4xx_spi.c ****   {
 623:../STM32F4xx_StdPeriph_Driver/src/stm32f4xx_spi.c ****     /* Reset NSS pin internally by software */
 624:../STM32F4xx_StdPeriph_Driver/src/stm32f4xx_spi.c ****     SPIx->CR1 &= SPI_NSSInternalSoft_Reset;
 863              		.loc 1 624 0
 864 0504 7B68     		ldr	r3, [r7, #4]
 865 0506 1B88     		ldrh	r3, [r3, #0]	@ movhi
 866 0508 9BB2     		uxth	r3, r3
 867 050a 23F48073 		bic	r3, r3, #256
 868 050e 9AB2     		uxth	r2, r3
 869 0510 7B68     		ldr	r3, [r7, #4]
 870 0512 1A80     		strh	r2, [r3, #0]	@ movhi
 871              	.L29:
 625:../STM32F4xx_StdPeriph_Driver/src/stm32f4xx_spi.c ****   }
 626:../STM32F4xx_StdPeriph_Driver/src/stm32f4xx_spi.c **** }
 872              		.loc 1 626 0
 873 0514 07F10C07 		add	r7, r7, #12
 874 0518 BD46     		mov	sp, r7
 875 051a 80BC     		pop	{r7}
 876 051c 7047     		bx	lr
 877              		.cfi_endproc
 878              	.LFE119:
 880 051e 00BF     		.align	2
 881              		.global	SPI_SSOutputCmd
 882              		.thumb
 883              		.thumb_func
 885              	SPI_SSOutputCmd:
 886              	.LFB120:
 627:../STM32F4xx_StdPeriph_Driver/src/stm32f4xx_spi.c **** 
 628:../STM32F4xx_StdPeriph_Driver/src/stm32f4xx_spi.c **** /**
 629:../STM32F4xx_StdPeriph_Driver/src/stm32f4xx_spi.c ****   * @brief  Enables or disables the SS output for the selected SPI.
 630:../STM32F4xx_StdPeriph_Driver/src/stm32f4xx_spi.c ****   * @param  SPIx: where x can be 1, 2 or 3 to select the SPI peripheral.
 631:../STM32F4xx_StdPeriph_Driver/src/stm32f4xx_spi.c ****   * @param  NewState: new state of the SPIx SS output. 
 632:../STM32F4xx_StdPeriph_Driver/src/stm32f4xx_spi.c ****   *          This parameter can be: ENABLE or DISABLE.
 633:../STM32F4xx_StdPeriph_Driver/src/stm32f4xx_spi.c ****   * @retval None
 634:../STM32F4xx_StdPeriph_Driver/src/stm32f4xx_spi.c ****   */
 635:../STM32F4xx_StdPeriph_Driver/src/stm32f4xx_spi.c **** void SPI_SSOutputCmd(SPI_TypeDef* SPIx, FunctionalState NewState)
 636:../STM32F4xx_StdPeriph_Driver/src/stm32f4xx_spi.c **** {
 887              		.loc 1 636 0
 888              		.cfi_startproc
 889              		@ args = 0, pretend = 0, frame = 8
 890              		@ frame_needed = 1, uses_anonymous_args = 0
 891              		@ link register save eliminated.
 892 0520 80B4     		push	{r7}
 893              	.LCFI30:
 894              		.cfi_def_cfa_offset 4
 895              		.cfi_offset 7, -4
 896 0522 83B0     		sub	sp, sp, #12
 897              	.LCFI31:
 898              		.cfi_def_cfa_offset 16
 899 0524 00AF     		add	r7, sp, #0
 900              	.LCFI32:
 901              		.cfi_def_cfa_register 7
 902 0526 7860     		str	r0, [r7, #4]
 903 0528 0B46     		mov	r3, r1
 904 052a FB70     		strb	r3, [r7, #3]
 637:../STM32F4xx_StdPeriph_Driver/src/stm32f4xx_spi.c ****   /* Check the parameters */
 638:../STM32F4xx_StdPeriph_Driver/src/stm32f4xx_spi.c ****   assert_param(IS_SPI_ALL_PERIPH(SPIx));
 639:../STM32F4xx_StdPeriph_Driver/src/stm32f4xx_spi.c ****   assert_param(IS_FUNCTIONAL_STATE(NewState));
 640:../STM32F4xx_StdPeriph_Driver/src/stm32f4xx_spi.c ****   if (NewState != DISABLE)
 905              		.loc 1 640 0
 906 052c FB78     		ldrb	r3, [r7, #3]	@ zero_extendqisi2
 907 052e 002B     		cmp	r3, #0
 908 0530 08D0     		beq	.L33
 641:../STM32F4xx_StdPeriph_Driver/src/stm32f4xx_spi.c ****   {
 642:../STM32F4xx_StdPeriph_Driver/src/stm32f4xx_spi.c ****     /* Enable the selected SPI SS output */
 643:../STM32F4xx_StdPeriph_Driver/src/stm32f4xx_spi.c ****     SPIx->CR2 |= (uint16_t)SPI_CR2_SSOE;
 909              		.loc 1 643 0
 910 0532 7B68     		ldr	r3, [r7, #4]
 911 0534 9B88     		ldrh	r3, [r3, #4]	@ movhi
 912 0536 9BB2     		uxth	r3, r3
 913 0538 43F00403 		orr	r3, r3, #4
 914 053c 9AB2     		uxth	r2, r3
 915 053e 7B68     		ldr	r3, [r7, #4]
 916 0540 9A80     		strh	r2, [r3, #4]	@ movhi
 917 0542 07E0     		b	.L32
 918              	.L33:
 644:../STM32F4xx_StdPeriph_Driver/src/stm32f4xx_spi.c ****   }
 645:../STM32F4xx_StdPeriph_Driver/src/stm32f4xx_spi.c ****   else
 646:../STM32F4xx_StdPeriph_Driver/src/stm32f4xx_spi.c ****   {
 647:../STM32F4xx_StdPeriph_Driver/src/stm32f4xx_spi.c ****     /* Disable the selected SPI SS output */
 648:../STM32F4xx_StdPeriph_Driver/src/stm32f4xx_spi.c ****     SPIx->CR2 &= (uint16_t)~((uint16_t)SPI_CR2_SSOE);
 919              		.loc 1 648 0
 920 0544 7B68     		ldr	r3, [r7, #4]
 921 0546 9B88     		ldrh	r3, [r3, #4]	@ movhi
 922 0548 9BB2     		uxth	r3, r3
 923 054a 23F00403 		bic	r3, r3, #4
 924 054e 9AB2     		uxth	r2, r3
 925 0550 7B68     		ldr	r3, [r7, #4]
 926 0552 9A80     		strh	r2, [r3, #4]	@ movhi
 927              	.L32:
 649:../STM32F4xx_StdPeriph_Driver/src/stm32f4xx_spi.c ****   }
 650:../STM32F4xx_StdPeriph_Driver/src/stm32f4xx_spi.c **** }
 928              		.loc 1 650 0
 929 0554 07F10C07 		add	r7, r7, #12
 930 0558 BD46     		mov	sp, r7
 931 055a 80BC     		pop	{r7}
 932 055c 7047     		bx	lr
 933              		.cfi_endproc
 934              	.LFE120:
 936 055e 00BF     		.align	2
 937              		.global	SPI_TIModeCmd
 938              		.thumb
 939              		.thumb_func
 941              	SPI_TIModeCmd:
 942              	.LFB121:
 651:../STM32F4xx_StdPeriph_Driver/src/stm32f4xx_spi.c **** 
 652:../STM32F4xx_StdPeriph_Driver/src/stm32f4xx_spi.c **** /**
 653:../STM32F4xx_StdPeriph_Driver/src/stm32f4xx_spi.c ****   * @brief  Enables or disables the SPIx/I2Sx DMA interface.
 654:../STM32F4xx_StdPeriph_Driver/src/stm32f4xx_spi.c ****   *   
 655:../STM32F4xx_StdPeriph_Driver/src/stm32f4xx_spi.c ****   * @note   This function can be called only after the SPI_Init() function has 
 656:../STM32F4xx_StdPeriph_Driver/src/stm32f4xx_spi.c ****   *         been called. 
 657:../STM32F4xx_StdPeriph_Driver/src/stm32f4xx_spi.c ****   * @note   When TI mode is selected, the control bits SSM, SSI, CPOL and CPHA 
 658:../STM32F4xx_StdPeriph_Driver/src/stm32f4xx_spi.c ****   *         are not taken into consideration and are configured by hardware
 659:../STM32F4xx_StdPeriph_Driver/src/stm32f4xx_spi.c ****   *         respectively to the TI mode requirements.  
 660:../STM32F4xx_StdPeriph_Driver/src/stm32f4xx_spi.c ****   * 
 661:../STM32F4xx_StdPeriph_Driver/src/stm32f4xx_spi.c ****   * @param  SPIx: where x can be 1, 2 or 3 
 662:../STM32F4xx_StdPeriph_Driver/src/stm32f4xx_spi.c ****   * @param  NewState: new state of the selected SPI TI communication mode.
 663:../STM32F4xx_StdPeriph_Driver/src/stm32f4xx_spi.c ****   *          This parameter can be: ENABLE or DISABLE.
 664:../STM32F4xx_StdPeriph_Driver/src/stm32f4xx_spi.c ****   * @retval None
 665:../STM32F4xx_StdPeriph_Driver/src/stm32f4xx_spi.c ****   */
 666:../STM32F4xx_StdPeriph_Driver/src/stm32f4xx_spi.c **** void SPI_TIModeCmd(SPI_TypeDef* SPIx, FunctionalState NewState)
 667:../STM32F4xx_StdPeriph_Driver/src/stm32f4xx_spi.c **** {
 943              		.loc 1 667 0
 944              		.cfi_startproc
 945              		@ args = 0, pretend = 0, frame = 8
 946              		@ frame_needed = 1, uses_anonymous_args = 0
 947              		@ link register save eliminated.
 948 0560 80B4     		push	{r7}
 949              	.LCFI33:
 950              		.cfi_def_cfa_offset 4
 951              		.cfi_offset 7, -4
 952 0562 83B0     		sub	sp, sp, #12
 953              	.LCFI34:
 954              		.cfi_def_cfa_offset 16
 955 0564 00AF     		add	r7, sp, #0
 956              	.LCFI35:
 957              		.cfi_def_cfa_register 7
 958 0566 7860     		str	r0, [r7, #4]
 959 0568 0B46     		mov	r3, r1
 960 056a FB70     		strb	r3, [r7, #3]
 668:../STM32F4xx_StdPeriph_Driver/src/stm32f4xx_spi.c ****   /* Check the parameters */
 669:../STM32F4xx_StdPeriph_Driver/src/stm32f4xx_spi.c ****   assert_param(IS_SPI_ALL_PERIPH(SPIx));
 670:../STM32F4xx_StdPeriph_Driver/src/stm32f4xx_spi.c ****   assert_param(IS_FUNCTIONAL_STATE(NewState));
 671:../STM32F4xx_StdPeriph_Driver/src/stm32f4xx_spi.c **** 
 672:../STM32F4xx_StdPeriph_Driver/src/stm32f4xx_spi.c ****   if (NewState != DISABLE)
 961              		.loc 1 672 0
 962 056c FB78     		ldrb	r3, [r7, #3]	@ zero_extendqisi2
 963 056e 002B     		cmp	r3, #0
 964 0570 08D0     		beq	.L36
 673:../STM32F4xx_StdPeriph_Driver/src/stm32f4xx_spi.c ****   {
 674:../STM32F4xx_StdPeriph_Driver/src/stm32f4xx_spi.c ****     /* Enable the TI mode for the selected SPI peripheral */
 675:../STM32F4xx_StdPeriph_Driver/src/stm32f4xx_spi.c ****     SPIx->CR2 |= SPI_CR2_FRF;
 965              		.loc 1 675 0
 966 0572 7B68     		ldr	r3, [r7, #4]
 967 0574 9B88     		ldrh	r3, [r3, #4]	@ movhi
 968 0576 9BB2     		uxth	r3, r3
 969 0578 43F01003 		orr	r3, r3, #16
 970 057c 9AB2     		uxth	r2, r3
 971 057e 7B68     		ldr	r3, [r7, #4]
 972 0580 9A80     		strh	r2, [r3, #4]	@ movhi
 973 0582 07E0     		b	.L35
 974              	.L36:
 676:../STM32F4xx_StdPeriph_Driver/src/stm32f4xx_spi.c ****   }
 677:../STM32F4xx_StdPeriph_Driver/src/stm32f4xx_spi.c ****   else
 678:../STM32F4xx_StdPeriph_Driver/src/stm32f4xx_spi.c ****   {
 679:../STM32F4xx_StdPeriph_Driver/src/stm32f4xx_spi.c ****     /* Disable the TI mode for the selected SPI peripheral */
 680:../STM32F4xx_StdPeriph_Driver/src/stm32f4xx_spi.c ****     SPIx->CR2 &= (uint16_t)~SPI_CR2_FRF;
 975              		.loc 1 680 0
 976 0584 7B68     		ldr	r3, [r7, #4]
 977 0586 9B88     		ldrh	r3, [r3, #4]	@ movhi
 978 0588 9BB2     		uxth	r3, r3
 979 058a 23F01003 		bic	r3, r3, #16
 980 058e 9AB2     		uxth	r2, r3
 981 0590 7B68     		ldr	r3, [r7, #4]
 982 0592 9A80     		strh	r2, [r3, #4]	@ movhi
 983              	.L35:
 681:../STM32F4xx_StdPeriph_Driver/src/stm32f4xx_spi.c ****   }
 682:../STM32F4xx_StdPeriph_Driver/src/stm32f4xx_spi.c **** }
 984              		.loc 1 682 0
 985 0594 07F10C07 		add	r7, r7, #12
 986 0598 BD46     		mov	sp, r7
 987 059a 80BC     		pop	{r7}
 988 059c 7047     		bx	lr
 989              		.cfi_endproc
 990              	.LFE121:
 992 059e 00BF     		.align	2
 993              		.global	I2S_FullDuplexConfig
 994              		.thumb
 995              		.thumb_func
 997              	I2S_FullDuplexConfig:
 998              	.LFB122:
 683:../STM32F4xx_StdPeriph_Driver/src/stm32f4xx_spi.c **** 
 684:../STM32F4xx_StdPeriph_Driver/src/stm32f4xx_spi.c **** /**
 685:../STM32F4xx_StdPeriph_Driver/src/stm32f4xx_spi.c ****   * @brief  Configures the full duplex mode for the I2Sx peripheral using its
 686:../STM32F4xx_StdPeriph_Driver/src/stm32f4xx_spi.c ****   *         extension I2Sxext according to the specified parameters in the 
 687:../STM32F4xx_StdPeriph_Driver/src/stm32f4xx_spi.c ****   *         I2S_InitStruct.
 688:../STM32F4xx_StdPeriph_Driver/src/stm32f4xx_spi.c ****   * @param  I2Sxext: where x can be  2 or 3 to select the I2S peripheral extension block.
 689:../STM32F4xx_StdPeriph_Driver/src/stm32f4xx_spi.c ****   * @param  I2S_InitStruct: pointer to an I2S_InitTypeDef structure that
 690:../STM32F4xx_StdPeriph_Driver/src/stm32f4xx_spi.c ****   *         contains the configuration information for the specified I2S peripheral
 691:../STM32F4xx_StdPeriph_Driver/src/stm32f4xx_spi.c ****   *         extension.
 692:../STM32F4xx_StdPeriph_Driver/src/stm32f4xx_spi.c ****   * 
 693:../STM32F4xx_StdPeriph_Driver/src/stm32f4xx_spi.c ****   * @note   The structure pointed by I2S_InitStruct parameter should be the same
 694:../STM32F4xx_StdPeriph_Driver/src/stm32f4xx_spi.c ****   *         used for the master I2S peripheral. In this case, if the master is 
 695:../STM32F4xx_StdPeriph_Driver/src/stm32f4xx_spi.c ****   *         configured as transmitter, the slave will be receiver and vice versa.
 696:../STM32F4xx_StdPeriph_Driver/src/stm32f4xx_spi.c ****   *         Or you can force a different mode by modifying the field I2S_Mode to the
 697:../STM32F4xx_StdPeriph_Driver/src/stm32f4xx_spi.c ****   *         value I2S_SlaveRx or I2S_SlaveTx indepedently of the master configuration.    
 698:../STM32F4xx_StdPeriph_Driver/src/stm32f4xx_spi.c ****   *         
 699:../STM32F4xx_StdPeriph_Driver/src/stm32f4xx_spi.c ****   * @note   The I2S full duplex extension can be configured in slave mode only.    
 700:../STM32F4xx_StdPeriph_Driver/src/stm32f4xx_spi.c ****   *  
 701:../STM32F4xx_StdPeriph_Driver/src/stm32f4xx_spi.c ****   * @retval None
 702:../STM32F4xx_StdPeriph_Driver/src/stm32f4xx_spi.c ****   */
 703:../STM32F4xx_StdPeriph_Driver/src/stm32f4xx_spi.c **** void I2S_FullDuplexConfig(SPI_TypeDef* I2Sxext, I2S_InitTypeDef* I2S_InitStruct)
 704:../STM32F4xx_StdPeriph_Driver/src/stm32f4xx_spi.c **** {
 999              		.loc 1 704 0
 1000              		.cfi_startproc
 1001              		@ args = 0, pretend = 0, frame = 16
 1002              		@ frame_needed = 1, uses_anonymous_args = 0
 1003              		@ link register save eliminated.
 1004 05a0 80B4     		push	{r7}
 1005              	.LCFI36:
 1006              		.cfi_def_cfa_offset 4
 1007              		.cfi_offset 7, -4
 1008 05a2 85B0     		sub	sp, sp, #20
 1009              	.LCFI37:
 1010              		.cfi_def_cfa_offset 24
 1011 05a4 00AF     		add	r7, sp, #0
 1012              	.LCFI38:
 1013              		.cfi_def_cfa_register 7
 1014 05a6 7860     		str	r0, [r7, #4]
 1015 05a8 3960     		str	r1, [r7, #0]
 705:../STM32F4xx_StdPeriph_Driver/src/stm32f4xx_spi.c ****   uint16_t tmpreg = 0, tmp = 0;
 1016              		.loc 1 705 0
 1017 05aa 4FF00003 		mov	r3, #0
 1018 05ae BB81     		strh	r3, [r7, #12]	@ movhi
 1019 05b0 4FF00003 		mov	r3, #0
 1020 05b4 FB81     		strh	r3, [r7, #14]	@ movhi
 706:../STM32F4xx_StdPeriph_Driver/src/stm32f4xx_spi.c ****   
 707:../STM32F4xx_StdPeriph_Driver/src/stm32f4xx_spi.c ****   /* Check the I2S parameters */
 708:../STM32F4xx_StdPeriph_Driver/src/stm32f4xx_spi.c ****   assert_param(IS_I2S_EXT_PERIPH(I2Sxext));
 709:../STM32F4xx_StdPeriph_Driver/src/stm32f4xx_spi.c ****   assert_param(IS_I2S_MODE(I2S_InitStruct->I2S_Mode));
 710:../STM32F4xx_StdPeriph_Driver/src/stm32f4xx_spi.c ****   assert_param(IS_I2S_STANDARD(I2S_InitStruct->I2S_Standard));
 711:../STM32F4xx_StdPeriph_Driver/src/stm32f4xx_spi.c ****   assert_param(IS_I2S_DATA_FORMAT(I2S_InitStruct->I2S_DataFormat));
 712:../STM32F4xx_StdPeriph_Driver/src/stm32f4xx_spi.c ****   assert_param(IS_I2S_CPOL(I2S_InitStruct->I2S_CPOL));  
 713:../STM32F4xx_StdPeriph_Driver/src/stm32f4xx_spi.c **** 
 714:../STM32F4xx_StdPeriph_Driver/src/stm32f4xx_spi.c **** /*----------------------- SPIx I2SCFGR & I2SPR Configuration -----------------*/
 715:../STM32F4xx_StdPeriph_Driver/src/stm32f4xx_spi.c ****   /* Clear I2SMOD, I2SE, I2SCFG, PCMSYNC, I2SSTD, CKPOL, DATLEN and CHLEN bits */
 716:../STM32F4xx_StdPeriph_Driver/src/stm32f4xx_spi.c ****   I2Sxext->I2SCFGR &= I2SCFGR_CLEAR_MASK; 
 1021              		.loc 1 716 0
 1022 05b6 7B68     		ldr	r3, [r7, #4]
 1023 05b8 9B8B     		ldrh	r3, [r3, #28]	@ movhi
 1024 05ba 9BB2     		uxth	r3, r3
 1025 05bc 23F47A63 		bic	r3, r3, #4000
 1026 05c0 23F01F03 		bic	r3, r3, #31
 1027 05c4 9AB2     		uxth	r2, r3
 1028 05c6 7B68     		ldr	r3, [r7, #4]
 1029 05c8 9A83     		strh	r2, [r3, #28]	@ movhi
 717:../STM32F4xx_StdPeriph_Driver/src/stm32f4xx_spi.c ****   I2Sxext->I2SPR = 0x0002;
 1030              		.loc 1 717 0
 1031 05ca 7B68     		ldr	r3, [r7, #4]
 1032 05cc 4FF00202 		mov	r2, #2
 1033 05d0 1A84     		strh	r2, [r3, #32]	@ movhi
 718:../STM32F4xx_StdPeriph_Driver/src/stm32f4xx_spi.c ****   
 719:../STM32F4xx_StdPeriph_Driver/src/stm32f4xx_spi.c ****   /* Get the I2SCFGR register value */
 720:../STM32F4xx_StdPeriph_Driver/src/stm32f4xx_spi.c ****   tmpreg = I2Sxext->I2SCFGR;
 1034              		.loc 1 720 0
 1035 05d2 7B68     		ldr	r3, [r7, #4]
 1036 05d4 9B8B     		ldrh	r3, [r3, #28]	@ movhi
 1037 05d6 BB81     		strh	r3, [r7, #12]	@ movhi
 721:../STM32F4xx_StdPeriph_Driver/src/stm32f4xx_spi.c ****   
 722:../STM32F4xx_StdPeriph_Driver/src/stm32f4xx_spi.c ****   /* Get the mode to be configured for the extended I2S */
 723:../STM32F4xx_StdPeriph_Driver/src/stm32f4xx_spi.c ****   if ((I2S_InitStruct->I2S_Mode == I2S_Mode_MasterTx) || (I2S_InitStruct->I2S_Mode == I2S_Mode_Slav
 1038              		.loc 1 723 0
 1039 05d8 3B68     		ldr	r3, [r7, #0]
 1040 05da 1B88     		ldrh	r3, [r3, #0]
 1041 05dc B3F5007F 		cmp	r3, #512
 1042 05e0 03D0     		beq	.L39
 1043              		.loc 1 723 0 is_stmt 0 discriminator 1
 1044 05e2 3B68     		ldr	r3, [r7, #0]
 1045 05e4 1B88     		ldrh	r3, [r3, #0]
 1046 05e6 002B     		cmp	r3, #0
 1047 05e8 03D1     		bne	.L40
 1048              	.L39:
 724:../STM32F4xx_StdPeriph_Driver/src/stm32f4xx_spi.c ****   {
 725:../STM32F4xx_StdPeriph_Driver/src/stm32f4xx_spi.c ****     tmp = I2S_Mode_SlaveRx;
 1049              		.loc 1 725 0 is_stmt 1
 1050 05ea 4FF48073 		mov	r3, #256
 1051 05ee FB81     		strh	r3, [r7, #14]	@ movhi
 1052 05f0 0CE0     		b	.L41
 1053              	.L40:
 726:../STM32F4xx_StdPeriph_Driver/src/stm32f4xx_spi.c ****   }
 727:../STM32F4xx_StdPeriph_Driver/src/stm32f4xx_spi.c ****   else
 728:../STM32F4xx_StdPeriph_Driver/src/stm32f4xx_spi.c ****   {
 729:../STM32F4xx_StdPeriph_Driver/src/stm32f4xx_spi.c ****     if ((I2S_InitStruct->I2S_Mode == I2S_Mode_MasterRx) || (I2S_InitStruct->I2S_Mode == I2S_Mode_Sl
 1054              		.loc 1 729 0
 1055 05f2 3B68     		ldr	r3, [r7, #0]
 1056 05f4 1B88     		ldrh	r3, [r3, #0]
 1057 05f6 B3F5407F 		cmp	r3, #768
 1058 05fa 04D0     		beq	.L42
 1059              		.loc 1 729 0 is_stmt 0 discriminator 1
 1060 05fc 3B68     		ldr	r3, [r7, #0]
 1061 05fe 1B88     		ldrh	r3, [r3, #0]
 1062 0600 B3F5807F 		cmp	r3, #256
 1063 0604 02D1     		bne	.L41
 1064              	.L42:
 730:../STM32F4xx_StdPeriph_Driver/src/stm32f4xx_spi.c ****     {
 731:../STM32F4xx_StdPeriph_Driver/src/stm32f4xx_spi.c ****       tmp = I2S_Mode_SlaveTx;
 1065              		.loc 1 731 0 is_stmt 1
 1066 0606 4FF00003 		mov	r3, #0
 1067 060a FB81     		strh	r3, [r7, #14]	@ movhi
 1068              	.L41:
 732:../STM32F4xx_StdPeriph_Driver/src/stm32f4xx_spi.c ****     }
 733:../STM32F4xx_StdPeriph_Driver/src/stm32f4xx_spi.c ****   }
 734:../STM32F4xx_StdPeriph_Driver/src/stm32f4xx_spi.c **** 
 735:../STM32F4xx_StdPeriph_Driver/src/stm32f4xx_spi.c ****  
 736:../STM32F4xx_StdPeriph_Driver/src/stm32f4xx_spi.c ****   /* Configure the I2S with the SPI_InitStruct values */
 737:../STM32F4xx_StdPeriph_Driver/src/stm32f4xx_spi.c ****   tmpreg |= (uint16_t)((uint16_t)SPI_I2SCFGR_I2SMOD | (uint16_t)(tmp | \
 738:../STM32F4xx_StdPeriph_Driver/src/stm32f4xx_spi.c ****                   (uint16_t)(I2S_InitStruct->I2S_Standard | (uint16_t)(I2S_InitStruct->I2S_DataForm
 1069              		.loc 1 738 0
 1070 060c 3B68     		ldr	r3, [r7, #0]
 1071 060e 5A88     		ldrh	r2, [r3, #2]
 1072 0610 3B68     		ldr	r3, [r7, #0]
 1073 0612 9988     		ldrh	r1, [r3, #4]
 739:../STM32F4xx_StdPeriph_Driver/src/stm32f4xx_spi.c ****                   (uint16_t)I2S_InitStruct->I2S_CPOL))));
 1074              		.loc 1 739 0
 1075 0614 3B68     		ldr	r3, [r7, #0]
 1076 0616 9B89     		ldrh	r3, [r3, #12]
 738:../STM32F4xx_StdPeriph_Driver/src/stm32f4xx_spi.c ****                   (uint16_t)(I2S_InitStruct->I2S_Standard | (uint16_t)(I2S_InitStruct->I2S_DataForm
 1077              		.loc 1 738 0
 1078 0618 0B43     		orrs	r3, r3, r1
 1079 061a 9BB2     		uxth	r3, r3
 1080 061c 1343     		orrs	r3, r3, r2
 1081 061e 9AB2     		uxth	r2, r3
 737:../STM32F4xx_StdPeriph_Driver/src/stm32f4xx_spi.c ****   tmpreg |= (uint16_t)((uint16_t)SPI_I2SCFGR_I2SMOD | (uint16_t)(tmp | \
 1082              		.loc 1 737 0
 1083 0620 FB89     		ldrh	r3, [r7, #14]	@ movhi
 1084 0622 1343     		orrs	r3, r3, r2
 1085 0624 9AB2     		uxth	r2, r3
 1086 0626 BB89     		ldrh	r3, [r7, #12]	@ movhi
 1087 0628 1343     		orrs	r3, r3, r2
 1088 062a 9BB2     		uxth	r3, r3
 1089 062c 43F40063 		orr	r3, r3, #2048
 1090 0630 BB81     		strh	r3, [r7, #12]	@ movhi
 740:../STM32F4xx_StdPeriph_Driver/src/stm32f4xx_spi.c ****  
 741:../STM32F4xx_StdPeriph_Driver/src/stm32f4xx_spi.c ****   /* Write to SPIx I2SCFGR */  
 742:../STM32F4xx_StdPeriph_Driver/src/stm32f4xx_spi.c ****   I2Sxext->I2SCFGR = tmpreg;
 1091              		.loc 1 742 0
 1092 0632 7B68     		ldr	r3, [r7, #4]
 1093 0634 BA89     		ldrh	r2, [r7, #12]	@ movhi
 1094 0636 9A83     		strh	r2, [r3, #28]	@ movhi
 743:../STM32F4xx_StdPeriph_Driver/src/stm32f4xx_spi.c **** }
 1095              		.loc 1 743 0
 1096 0638 07F11407 		add	r7, r7, #20
 1097 063c BD46     		mov	sp, r7
 1098 063e 80BC     		pop	{r7}
 1099 0640 7047     		bx	lr
 1100              		.cfi_endproc
 1101              	.LFE122:
 1103 0642 00BF     		.align	2
 1104              		.global	SPI_I2S_ReceiveData
 1105              		.thumb
 1106              		.thumb_func
 1108              	SPI_I2S_ReceiveData:
 1109              	.LFB123:
 744:../STM32F4xx_StdPeriph_Driver/src/stm32f4xx_spi.c **** 
 745:../STM32F4xx_StdPeriph_Driver/src/stm32f4xx_spi.c **** /**
 746:../STM32F4xx_StdPeriph_Driver/src/stm32f4xx_spi.c ****   * @}
 747:../STM32F4xx_StdPeriph_Driver/src/stm32f4xx_spi.c ****   */
 748:../STM32F4xx_StdPeriph_Driver/src/stm32f4xx_spi.c **** 
 749:../STM32F4xx_StdPeriph_Driver/src/stm32f4xx_spi.c **** /** @defgroup SPI_Group2 Data transfers functions
 750:../STM32F4xx_StdPeriph_Driver/src/stm32f4xx_spi.c ****  *  @brief   Data transfers functions
 751:../STM32F4xx_StdPeriph_Driver/src/stm32f4xx_spi.c ****  *
 752:../STM32F4xx_StdPeriph_Driver/src/stm32f4xx_spi.c **** @verbatim   
 753:../STM32F4xx_StdPeriph_Driver/src/stm32f4xx_spi.c ****  ===============================================================================
 754:../STM32F4xx_StdPeriph_Driver/src/stm32f4xx_spi.c ****                          Data transfers functions
 755:../STM32F4xx_StdPeriph_Driver/src/stm32f4xx_spi.c ****  ===============================================================================  
 756:../STM32F4xx_StdPeriph_Driver/src/stm32f4xx_spi.c **** 
 757:../STM32F4xx_StdPeriph_Driver/src/stm32f4xx_spi.c ****   This section provides a set of functions allowing to manage the SPI data transfers
 758:../STM32F4xx_StdPeriph_Driver/src/stm32f4xx_spi.c ****   
 759:../STM32F4xx_StdPeriph_Driver/src/stm32f4xx_spi.c ****   In reception, data are received and then stored into an internal Rx buffer while 
 760:../STM32F4xx_StdPeriph_Driver/src/stm32f4xx_spi.c ****   In transmission, data are first stored into an internal Tx buffer before being 
 761:../STM32F4xx_StdPeriph_Driver/src/stm32f4xx_spi.c ****   transmitted.
 762:../STM32F4xx_StdPeriph_Driver/src/stm32f4xx_spi.c **** 
 763:../STM32F4xx_StdPeriph_Driver/src/stm32f4xx_spi.c ****   The read access of the SPI_DR register can be done using the SPI_I2S_ReceiveData()
 764:../STM32F4xx_StdPeriph_Driver/src/stm32f4xx_spi.c ****   function and returns the Rx buffered value. Whereas a write access to the SPI_DR 
 765:../STM32F4xx_StdPeriph_Driver/src/stm32f4xx_spi.c ****   can be done using SPI_I2S_SendData() function and stores the written data into 
 766:../STM32F4xx_StdPeriph_Driver/src/stm32f4xx_spi.c ****   Tx buffer.
 767:../STM32F4xx_StdPeriph_Driver/src/stm32f4xx_spi.c **** 
 768:../STM32F4xx_StdPeriph_Driver/src/stm32f4xx_spi.c **** @endverbatim
 769:../STM32F4xx_StdPeriph_Driver/src/stm32f4xx_spi.c ****   * @{
 770:../STM32F4xx_StdPeriph_Driver/src/stm32f4xx_spi.c ****   */
 771:../STM32F4xx_StdPeriph_Driver/src/stm32f4xx_spi.c **** 
 772:../STM32F4xx_StdPeriph_Driver/src/stm32f4xx_spi.c **** /**
 773:../STM32F4xx_StdPeriph_Driver/src/stm32f4xx_spi.c ****   * @brief  Returns the most recent received data by the SPIx/I2Sx peripheral. 
 774:../STM32F4xx_StdPeriph_Driver/src/stm32f4xx_spi.c ****   * @param  SPIx: To select the SPIx/I2Sx peripheral, where x can be: 1, 2 or 3 
 775:../STM32F4xx_StdPeriph_Driver/src/stm32f4xx_spi.c ****   *         in SPI mode or 2 or 3 in I2S mode or I2Sxext for I2S full duplex mode. 
 776:../STM32F4xx_StdPeriph_Driver/src/stm32f4xx_spi.c ****   * @retval The value of the received data.
 777:../STM32F4xx_StdPeriph_Driver/src/stm32f4xx_spi.c ****   */
 778:../STM32F4xx_StdPeriph_Driver/src/stm32f4xx_spi.c **** uint16_t SPI_I2S_ReceiveData(SPI_TypeDef* SPIx)
 779:../STM32F4xx_StdPeriph_Driver/src/stm32f4xx_spi.c **** {
 1110              		.loc 1 779 0
 1111              		.cfi_startproc
 1112              		@ args = 0, pretend = 0, frame = 8
 1113              		@ frame_needed = 1, uses_anonymous_args = 0
 1114              		@ link register save eliminated.
 1115 0644 80B4     		push	{r7}
 1116              	.LCFI39:
 1117              		.cfi_def_cfa_offset 4
 1118              		.cfi_offset 7, -4
 1119 0646 83B0     		sub	sp, sp, #12
 1120              	.LCFI40:
 1121              		.cfi_def_cfa_offset 16
 1122 0648 00AF     		add	r7, sp, #0
 1123              	.LCFI41:
 1124              		.cfi_def_cfa_register 7
 1125 064a 7860     		str	r0, [r7, #4]
 780:../STM32F4xx_StdPeriph_Driver/src/stm32f4xx_spi.c ****   /* Check the parameters */
 781:../STM32F4xx_StdPeriph_Driver/src/stm32f4xx_spi.c ****   assert_param(IS_SPI_ALL_PERIPH_EXT(SPIx));
 782:../STM32F4xx_StdPeriph_Driver/src/stm32f4xx_spi.c ****   
 783:../STM32F4xx_StdPeriph_Driver/src/stm32f4xx_spi.c ****   /* Return the data in the DR register */
 784:../STM32F4xx_StdPeriph_Driver/src/stm32f4xx_spi.c ****   return SPIx->DR;
 1126              		.loc 1 784 0
 1127 064c 7B68     		ldr	r3, [r7, #4]
 1128 064e 9B89     		ldrh	r3, [r3, #12]	@ movhi
 1129 0650 9BB2     		uxth	r3, r3
 785:../STM32F4xx_StdPeriph_Driver/src/stm32f4xx_spi.c **** }
 1130              		.loc 1 785 0
 1131 0652 1846     		mov	r0, r3
 1132 0654 07F10C07 		add	r7, r7, #12
 1133 0658 BD46     		mov	sp, r7
 1134 065a 80BC     		pop	{r7}
 1135 065c 7047     		bx	lr
 1136              		.cfi_endproc
 1137              	.LFE123:
 1139 065e 00BF     		.align	2
 1140              		.global	SPI_I2S_SendData
 1141              		.thumb
 1142              		.thumb_func
 1144              	SPI_I2S_SendData:
 1145              	.LFB124:
 786:../STM32F4xx_StdPeriph_Driver/src/stm32f4xx_spi.c **** 
 787:../STM32F4xx_StdPeriph_Driver/src/stm32f4xx_spi.c **** /**
 788:../STM32F4xx_StdPeriph_Driver/src/stm32f4xx_spi.c ****   * @brief  Transmits a Data through the SPIx/I2Sx peripheral.
 789:../STM32F4xx_StdPeriph_Driver/src/stm32f4xx_spi.c ****   * @param  SPIx: To select the SPIx/I2Sx peripheral, where x can be: 1, 2 or 3 
 790:../STM32F4xx_StdPeriph_Driver/src/stm32f4xx_spi.c ****   *         in SPI mode or 2 or 3 in I2S mode or I2Sxext for I2S full duplex mode.     
 791:../STM32F4xx_StdPeriph_Driver/src/stm32f4xx_spi.c ****   * @param  Data: Data to be transmitted.
 792:../STM32F4xx_StdPeriph_Driver/src/stm32f4xx_spi.c ****   * @retval None
 793:../STM32F4xx_StdPeriph_Driver/src/stm32f4xx_spi.c ****   */
 794:../STM32F4xx_StdPeriph_Driver/src/stm32f4xx_spi.c **** void SPI_I2S_SendData(SPI_TypeDef* SPIx, uint16_t Data)
 795:../STM32F4xx_StdPeriph_Driver/src/stm32f4xx_spi.c **** {
 1146              		.loc 1 795 0
 1147              		.cfi_startproc
 1148              		@ args = 0, pretend = 0, frame = 8
 1149              		@ frame_needed = 1, uses_anonymous_args = 0
 1150              		@ link register save eliminated.
 1151 0660 80B4     		push	{r7}
 1152              	.LCFI42:
 1153              		.cfi_def_cfa_offset 4
 1154              		.cfi_offset 7, -4
 1155 0662 83B0     		sub	sp, sp, #12
 1156              	.LCFI43:
 1157              		.cfi_def_cfa_offset 16
 1158 0664 00AF     		add	r7, sp, #0
 1159              	.LCFI44:
 1160              		.cfi_def_cfa_register 7
 1161 0666 7860     		str	r0, [r7, #4]
 1162 0668 0B46     		mov	r3, r1
 1163 066a 7B80     		strh	r3, [r7, #2]	@ movhi
 796:../STM32F4xx_StdPeriph_Driver/src/stm32f4xx_spi.c ****   /* Check the parameters */
 797:../STM32F4xx_StdPeriph_Driver/src/stm32f4xx_spi.c ****   assert_param(IS_SPI_ALL_PERIPH_EXT(SPIx));
 798:../STM32F4xx_StdPeriph_Driver/src/stm32f4xx_spi.c ****   
 799:../STM32F4xx_StdPeriph_Driver/src/stm32f4xx_spi.c ****   /* Write in the DR register the data to be sent */
 800:../STM32F4xx_StdPeriph_Driver/src/stm32f4xx_spi.c ****   SPIx->DR = Data;
 1164              		.loc 1 800 0
 1165 066c 7B68     		ldr	r3, [r7, #4]
 1166 066e 7A88     		ldrh	r2, [r7, #2]	@ movhi
 1167 0670 9A81     		strh	r2, [r3, #12]	@ movhi
 801:../STM32F4xx_StdPeriph_Driver/src/stm32f4xx_spi.c **** }
 1168              		.loc 1 801 0
 1169 0672 07F10C07 		add	r7, r7, #12
 1170 0676 BD46     		mov	sp, r7
 1171 0678 80BC     		pop	{r7}
 1172 067a 7047     		bx	lr
 1173              		.cfi_endproc
 1174              	.LFE124:
 1176              		.align	2
 1177              		.global	SPI_CalculateCRC
 1178              		.thumb
 1179              		.thumb_func
 1181              	SPI_CalculateCRC:
 1182              	.LFB125:
 802:../STM32F4xx_StdPeriph_Driver/src/stm32f4xx_spi.c **** 
 803:../STM32F4xx_StdPeriph_Driver/src/stm32f4xx_spi.c **** /**
 804:../STM32F4xx_StdPeriph_Driver/src/stm32f4xx_spi.c ****   * @}
 805:../STM32F4xx_StdPeriph_Driver/src/stm32f4xx_spi.c ****   */
 806:../STM32F4xx_StdPeriph_Driver/src/stm32f4xx_spi.c **** 
 807:../STM32F4xx_StdPeriph_Driver/src/stm32f4xx_spi.c **** /** @defgroup SPI_Group3 Hardware CRC Calculation functions
 808:../STM32F4xx_StdPeriph_Driver/src/stm32f4xx_spi.c ****  *  @brief   Hardware CRC Calculation functions
 809:../STM32F4xx_StdPeriph_Driver/src/stm32f4xx_spi.c ****  *
 810:../STM32F4xx_StdPeriph_Driver/src/stm32f4xx_spi.c **** @verbatim   
 811:../STM32F4xx_StdPeriph_Driver/src/stm32f4xx_spi.c ****  ===============================================================================
 812:../STM32F4xx_StdPeriph_Driver/src/stm32f4xx_spi.c ****                          Hardware CRC Calculation functions
 813:../STM32F4xx_StdPeriph_Driver/src/stm32f4xx_spi.c ****  ===============================================================================  
 814:../STM32F4xx_StdPeriph_Driver/src/stm32f4xx_spi.c **** 
 815:../STM32F4xx_StdPeriph_Driver/src/stm32f4xx_spi.c ****   This section provides a set of functions allowing to manage the SPI CRC hardware 
 816:../STM32F4xx_StdPeriph_Driver/src/stm32f4xx_spi.c ****   calculation
 817:../STM32F4xx_StdPeriph_Driver/src/stm32f4xx_spi.c **** 
 818:../STM32F4xx_StdPeriph_Driver/src/stm32f4xx_spi.c ****   SPI communication using CRC is possible through the following procedure:
 819:../STM32F4xx_StdPeriph_Driver/src/stm32f4xx_spi.c ****      1. Program the Data direction, Polarity, Phase, First Data, Baud Rate Prescaler, 
 820:../STM32F4xx_StdPeriph_Driver/src/stm32f4xx_spi.c ****         Slave Management, Peripheral Mode and CRC Polynomial values using the SPI_Init()
 821:../STM32F4xx_StdPeriph_Driver/src/stm32f4xx_spi.c ****         function.
 822:../STM32F4xx_StdPeriph_Driver/src/stm32f4xx_spi.c ****      2. Enable the CRC calculation using the SPI_CalculateCRC() function.
 823:../STM32F4xx_StdPeriph_Driver/src/stm32f4xx_spi.c ****      3. Enable the SPI using the SPI_Cmd() function
 824:../STM32F4xx_StdPeriph_Driver/src/stm32f4xx_spi.c ****      4. Before writing the last data to the TX buffer, set the CRCNext bit using the 
 825:../STM32F4xx_StdPeriph_Driver/src/stm32f4xx_spi.c ****       SPI_TransmitCRC() function to indicate that after transmission of the last 
 826:../STM32F4xx_StdPeriph_Driver/src/stm32f4xx_spi.c ****       data, the CRC should be transmitted.
 827:../STM32F4xx_StdPeriph_Driver/src/stm32f4xx_spi.c ****      5. After transmitting the last data, the SPI transmits the CRC. The SPI_CR1_CRCNEXT
 828:../STM32F4xx_StdPeriph_Driver/src/stm32f4xx_spi.c ****         bit is reset. The CRC is also received and compared against the SPI_RXCRCR 
 829:../STM32F4xx_StdPeriph_Driver/src/stm32f4xx_spi.c ****         value. 
 830:../STM32F4xx_StdPeriph_Driver/src/stm32f4xx_spi.c ****         If the value does not match, the SPI_FLAG_CRCERR flag is set and an interrupt
 831:../STM32F4xx_StdPeriph_Driver/src/stm32f4xx_spi.c ****         can be generated when the SPI_I2S_IT_ERR interrupt is enabled.
 832:../STM32F4xx_StdPeriph_Driver/src/stm32f4xx_spi.c **** 
 833:../STM32F4xx_StdPeriph_Driver/src/stm32f4xx_spi.c **** @note It is advised not to read the calculated CRC values during the communication.
 834:../STM32F4xx_StdPeriph_Driver/src/stm32f4xx_spi.c **** 
 835:../STM32F4xx_StdPeriph_Driver/src/stm32f4xx_spi.c **** @note When the SPI is in slave mode, be careful to enable CRC calculation only 
 836:../STM32F4xx_StdPeriph_Driver/src/stm32f4xx_spi.c ****       when the clock is stable, that is, when the clock is in the steady state. 
 837:../STM32F4xx_StdPeriph_Driver/src/stm32f4xx_spi.c ****       If not, a wrong CRC calculation may be done. In fact, the CRC is sensitive 
 838:../STM32F4xx_StdPeriph_Driver/src/stm32f4xx_spi.c ****       to the SCK slave input clock as soon as CRCEN is set, and this, whatever 
 839:../STM32F4xx_StdPeriph_Driver/src/stm32f4xx_spi.c ****       the value of the SPE bit.
 840:../STM32F4xx_StdPeriph_Driver/src/stm32f4xx_spi.c **** 
 841:../STM32F4xx_StdPeriph_Driver/src/stm32f4xx_spi.c **** @note With high bitrate frequencies, be careful when transmitting the CRC.
 842:../STM32F4xx_StdPeriph_Driver/src/stm32f4xx_spi.c ****       As the number of used CPU cycles has to be as low as possible in the CRC 
 843:../STM32F4xx_StdPeriph_Driver/src/stm32f4xx_spi.c ****       transfer phase, it is forbidden to call software functions in the CRC 
 844:../STM32F4xx_StdPeriph_Driver/src/stm32f4xx_spi.c ****       transmission sequence to avoid errors in the last data and CRC reception. 
 845:../STM32F4xx_StdPeriph_Driver/src/stm32f4xx_spi.c ****       In fact, CRCNEXT bit has to be written before the end of the transmission/reception 
 846:../STM32F4xx_StdPeriph_Driver/src/stm32f4xx_spi.c ****       of the last data.
 847:../STM32F4xx_StdPeriph_Driver/src/stm32f4xx_spi.c **** 
 848:../STM32F4xx_StdPeriph_Driver/src/stm32f4xx_spi.c **** @note For high bit rate frequencies, it is advised to use the DMA mode to avoid the
 849:../STM32F4xx_StdPeriph_Driver/src/stm32f4xx_spi.c ****       degradation of the SPI speed performance due to CPU accesses impacting the 
 850:../STM32F4xx_StdPeriph_Driver/src/stm32f4xx_spi.c ****       SPI bandwidth.
 851:../STM32F4xx_StdPeriph_Driver/src/stm32f4xx_spi.c **** 
 852:../STM32F4xx_StdPeriph_Driver/src/stm32f4xx_spi.c **** @note When the STM32F4xx is configured as slave and the NSS hardware mode is 
 853:../STM32F4xx_StdPeriph_Driver/src/stm32f4xx_spi.c ****       used, the NSS pin needs to be kept low between the data phase and the CRC 
 854:../STM32F4xx_StdPeriph_Driver/src/stm32f4xx_spi.c ****       phase.
 855:../STM32F4xx_StdPeriph_Driver/src/stm32f4xx_spi.c **** 
 856:../STM32F4xx_StdPeriph_Driver/src/stm32f4xx_spi.c **** @note When the SPI is configured in slave mode with the CRC feature enabled, CRC
 857:../STM32F4xx_StdPeriph_Driver/src/stm32f4xx_spi.c ****       calculation takes place even if a high level is applied on the NSS pin. 
 858:../STM32F4xx_StdPeriph_Driver/src/stm32f4xx_spi.c ****       This may happen for example in case of a multi-slave environment where the 
 859:../STM32F4xx_StdPeriph_Driver/src/stm32f4xx_spi.c ****       communication master addresses slaves alternately.
 860:../STM32F4xx_StdPeriph_Driver/src/stm32f4xx_spi.c **** 
 861:../STM32F4xx_StdPeriph_Driver/src/stm32f4xx_spi.c **** @note Between a slave de-selection (high level on NSS) and a new slave selection 
 862:../STM32F4xx_StdPeriph_Driver/src/stm32f4xx_spi.c ****       (low level on NSS), the CRC value should be cleared on both master and slave
 863:../STM32F4xx_StdPeriph_Driver/src/stm32f4xx_spi.c ****       sides in order to resynchronize the master and slave for their respective 
 864:../STM32F4xx_StdPeriph_Driver/src/stm32f4xx_spi.c ****       CRC calculation.
 865:../STM32F4xx_StdPeriph_Driver/src/stm32f4xx_spi.c **** 
 866:../STM32F4xx_StdPeriph_Driver/src/stm32f4xx_spi.c **** @note To clear the CRC, follow the procedure below:
 867:../STM32F4xx_StdPeriph_Driver/src/stm32f4xx_spi.c ****         1. Disable SPI using the SPI_Cmd() function
 868:../STM32F4xx_StdPeriph_Driver/src/stm32f4xx_spi.c ****         2. Disable the CRC calculation using the SPI_CalculateCRC() function.
 869:../STM32F4xx_StdPeriph_Driver/src/stm32f4xx_spi.c ****         3. Enable the CRC calculation using the SPI_CalculateCRC() function.
 870:../STM32F4xx_StdPeriph_Driver/src/stm32f4xx_spi.c ****         4. Enable SPI using the SPI_Cmd() function.
 871:../STM32F4xx_StdPeriph_Driver/src/stm32f4xx_spi.c **** 
 872:../STM32F4xx_StdPeriph_Driver/src/stm32f4xx_spi.c **** @endverbatim
 873:../STM32F4xx_StdPeriph_Driver/src/stm32f4xx_spi.c ****   * @{
 874:../STM32F4xx_StdPeriph_Driver/src/stm32f4xx_spi.c ****   */
 875:../STM32F4xx_StdPeriph_Driver/src/stm32f4xx_spi.c **** 
 876:../STM32F4xx_StdPeriph_Driver/src/stm32f4xx_spi.c **** /**
 877:../STM32F4xx_StdPeriph_Driver/src/stm32f4xx_spi.c ****   * @brief  Enables or disables the CRC value calculation of the transferred bytes.
 878:../STM32F4xx_StdPeriph_Driver/src/stm32f4xx_spi.c ****   * @param  SPIx: where x can be 1, 2 or 3 to select the SPI peripheral.
 879:../STM32F4xx_StdPeriph_Driver/src/stm32f4xx_spi.c ****   * @param  NewState: new state of the SPIx CRC value calculation.
 880:../STM32F4xx_StdPeriph_Driver/src/stm32f4xx_spi.c ****   *          This parameter can be: ENABLE or DISABLE.
 881:../STM32F4xx_StdPeriph_Driver/src/stm32f4xx_spi.c ****   * @retval None
 882:../STM32F4xx_StdPeriph_Driver/src/stm32f4xx_spi.c ****   */
 883:../STM32F4xx_StdPeriph_Driver/src/stm32f4xx_spi.c **** void SPI_CalculateCRC(SPI_TypeDef* SPIx, FunctionalState NewState)
 884:../STM32F4xx_StdPeriph_Driver/src/stm32f4xx_spi.c **** {
 1183              		.loc 1 884 0
 1184              		.cfi_startproc
 1185              		@ args = 0, pretend = 0, frame = 8
 1186              		@ frame_needed = 1, uses_anonymous_args = 0
 1187              		@ link register save eliminated.
 1188 067c 80B4     		push	{r7}
 1189              	.LCFI45:
 1190              		.cfi_def_cfa_offset 4
 1191              		.cfi_offset 7, -4
 1192 067e 83B0     		sub	sp, sp, #12
 1193              	.LCFI46:
 1194              		.cfi_def_cfa_offset 16
 1195 0680 00AF     		add	r7, sp, #0
 1196              	.LCFI47:
 1197              		.cfi_def_cfa_register 7
 1198 0682 7860     		str	r0, [r7, #4]
 1199 0684 0B46     		mov	r3, r1
 1200 0686 FB70     		strb	r3, [r7, #3]
 885:../STM32F4xx_StdPeriph_Driver/src/stm32f4xx_spi.c ****   /* Check the parameters */
 886:../STM32F4xx_StdPeriph_Driver/src/stm32f4xx_spi.c ****   assert_param(IS_SPI_ALL_PERIPH(SPIx));
 887:../STM32F4xx_StdPeriph_Driver/src/stm32f4xx_spi.c ****   assert_param(IS_FUNCTIONAL_STATE(NewState));
 888:../STM32F4xx_StdPeriph_Driver/src/stm32f4xx_spi.c ****   if (NewState != DISABLE)
 1201              		.loc 1 888 0
 1202 0688 FB78     		ldrb	r3, [r7, #3]	@ zero_extendqisi2
 1203 068a 002B     		cmp	r3, #0
 1204 068c 08D0     		beq	.L46
 889:../STM32F4xx_StdPeriph_Driver/src/stm32f4xx_spi.c ****   {
 890:../STM32F4xx_StdPeriph_Driver/src/stm32f4xx_spi.c ****     /* Enable the selected SPI CRC calculation */
 891:../STM32F4xx_StdPeriph_Driver/src/stm32f4xx_spi.c ****     SPIx->CR1 |= SPI_CR1_CRCEN;
 1205              		.loc 1 891 0
 1206 068e 7B68     		ldr	r3, [r7, #4]
 1207 0690 1B88     		ldrh	r3, [r3, #0]	@ movhi
 1208 0692 9BB2     		uxth	r3, r3
 1209 0694 43F40053 		orr	r3, r3, #8192
 1210 0698 9AB2     		uxth	r2, r3
 1211 069a 7B68     		ldr	r3, [r7, #4]
 1212 069c 1A80     		strh	r2, [r3, #0]	@ movhi
 1213 069e 07E0     		b	.L45
 1214              	.L46:
 892:../STM32F4xx_StdPeriph_Driver/src/stm32f4xx_spi.c ****   }
 893:../STM32F4xx_StdPeriph_Driver/src/stm32f4xx_spi.c ****   else
 894:../STM32F4xx_StdPeriph_Driver/src/stm32f4xx_spi.c ****   {
 895:../STM32F4xx_StdPeriph_Driver/src/stm32f4xx_spi.c ****     /* Disable the selected SPI CRC calculation */
 896:../STM32F4xx_StdPeriph_Driver/src/stm32f4xx_spi.c ****     SPIx->CR1 &= (uint16_t)~((uint16_t)SPI_CR1_CRCEN);
 1215              		.loc 1 896 0
 1216 06a0 7B68     		ldr	r3, [r7, #4]
 1217 06a2 1B88     		ldrh	r3, [r3, #0]	@ movhi
 1218 06a4 9BB2     		uxth	r3, r3
 1219 06a6 23F40053 		bic	r3, r3, #8192
 1220 06aa 9AB2     		uxth	r2, r3
 1221 06ac 7B68     		ldr	r3, [r7, #4]
 1222 06ae 1A80     		strh	r2, [r3, #0]	@ movhi
 1223              	.L45:
 897:../STM32F4xx_StdPeriph_Driver/src/stm32f4xx_spi.c ****   }
 898:../STM32F4xx_StdPeriph_Driver/src/stm32f4xx_spi.c **** }
 1224              		.loc 1 898 0
 1225 06b0 07F10C07 		add	r7, r7, #12
 1226 06b4 BD46     		mov	sp, r7
 1227 06b6 80BC     		pop	{r7}
 1228 06b8 7047     		bx	lr
 1229              		.cfi_endproc
 1230              	.LFE125:
 1232 06ba 00BF     		.align	2
 1233              		.global	SPI_TransmitCRC
 1234              		.thumb
 1235              		.thumb_func
 1237              	SPI_TransmitCRC:
 1238              	.LFB126:
 899:../STM32F4xx_StdPeriph_Driver/src/stm32f4xx_spi.c **** 
 900:../STM32F4xx_StdPeriph_Driver/src/stm32f4xx_spi.c **** /**
 901:../STM32F4xx_StdPeriph_Driver/src/stm32f4xx_spi.c ****   * @brief  Transmit the SPIx CRC value.
 902:../STM32F4xx_StdPeriph_Driver/src/stm32f4xx_spi.c ****   * @param  SPIx: where x can be 1, 2 or 3 to select the SPI peripheral.
 903:../STM32F4xx_StdPeriph_Driver/src/stm32f4xx_spi.c ****   * @retval None
 904:../STM32F4xx_StdPeriph_Driver/src/stm32f4xx_spi.c ****   */
 905:../STM32F4xx_StdPeriph_Driver/src/stm32f4xx_spi.c **** void SPI_TransmitCRC(SPI_TypeDef* SPIx)
 906:../STM32F4xx_StdPeriph_Driver/src/stm32f4xx_spi.c **** {
 1239              		.loc 1 906 0
 1240              		.cfi_startproc
 1241              		@ args = 0, pretend = 0, frame = 8
 1242              		@ frame_needed = 1, uses_anonymous_args = 0
 1243              		@ link register save eliminated.
 1244 06bc 80B4     		push	{r7}
 1245              	.LCFI48:
 1246              		.cfi_def_cfa_offset 4
 1247              		.cfi_offset 7, -4
 1248 06be 83B0     		sub	sp, sp, #12
 1249              	.LCFI49:
 1250              		.cfi_def_cfa_offset 16
 1251 06c0 00AF     		add	r7, sp, #0
 1252              	.LCFI50:
 1253              		.cfi_def_cfa_register 7
 1254 06c2 7860     		str	r0, [r7, #4]
 907:../STM32F4xx_StdPeriph_Driver/src/stm32f4xx_spi.c ****   /* Check the parameters */
 908:../STM32F4xx_StdPeriph_Driver/src/stm32f4xx_spi.c ****   assert_param(IS_SPI_ALL_PERIPH(SPIx));
 909:../STM32F4xx_StdPeriph_Driver/src/stm32f4xx_spi.c ****   
 910:../STM32F4xx_StdPeriph_Driver/src/stm32f4xx_spi.c ****   /* Enable the selected SPI CRC transmission */
 911:../STM32F4xx_StdPeriph_Driver/src/stm32f4xx_spi.c ****   SPIx->CR1 |= SPI_CR1_CRCNEXT;
 1255              		.loc 1 911 0
 1256 06c4 7B68     		ldr	r3, [r7, #4]
 1257 06c6 1B88     		ldrh	r3, [r3, #0]	@ movhi
 1258 06c8 9BB2     		uxth	r3, r3
 1259 06ca 43F48053 		orr	r3, r3, #4096
 1260 06ce 9AB2     		uxth	r2, r3
 1261 06d0 7B68     		ldr	r3, [r7, #4]
 1262 06d2 1A80     		strh	r2, [r3, #0]	@ movhi
 912:../STM32F4xx_StdPeriph_Driver/src/stm32f4xx_spi.c **** }
 1263              		.loc 1 912 0
 1264 06d4 07F10C07 		add	r7, r7, #12
 1265 06d8 BD46     		mov	sp, r7
 1266 06da 80BC     		pop	{r7}
 1267 06dc 7047     		bx	lr
 1268              		.cfi_endproc
 1269              	.LFE126:
 1271 06de 00BF     		.align	2
 1272              		.global	SPI_GetCRC
 1273              		.thumb
 1274              		.thumb_func
 1276              	SPI_GetCRC:
 1277              	.LFB127:
 913:../STM32F4xx_StdPeriph_Driver/src/stm32f4xx_spi.c **** 
 914:../STM32F4xx_StdPeriph_Driver/src/stm32f4xx_spi.c **** /**
 915:../STM32F4xx_StdPeriph_Driver/src/stm32f4xx_spi.c ****   * @brief  Returns the transmit or the receive CRC register value for the specified SPI.
 916:../STM32F4xx_StdPeriph_Driver/src/stm32f4xx_spi.c ****   * @param  SPIx: where x can be 1, 2 or 3 to select the SPI peripheral.
 917:../STM32F4xx_StdPeriph_Driver/src/stm32f4xx_spi.c ****   * @param  SPI_CRC: specifies the CRC register to be read.
 918:../STM32F4xx_StdPeriph_Driver/src/stm32f4xx_spi.c ****   *          This parameter can be one of the following values:
 919:../STM32F4xx_StdPeriph_Driver/src/stm32f4xx_spi.c ****   *            @arg SPI_CRC_Tx: Selects Tx CRC register
 920:../STM32F4xx_StdPeriph_Driver/src/stm32f4xx_spi.c ****   *            @arg SPI_CRC_Rx: Selects Rx CRC register
 921:../STM32F4xx_StdPeriph_Driver/src/stm32f4xx_spi.c ****   * @retval The selected CRC register value..
 922:../STM32F4xx_StdPeriph_Driver/src/stm32f4xx_spi.c ****   */
 923:../STM32F4xx_StdPeriph_Driver/src/stm32f4xx_spi.c **** uint16_t SPI_GetCRC(SPI_TypeDef* SPIx, uint8_t SPI_CRC)
 924:../STM32F4xx_StdPeriph_Driver/src/stm32f4xx_spi.c **** {
 1278              		.loc 1 924 0
 1279              		.cfi_startproc
 1280              		@ args = 0, pretend = 0, frame = 16
 1281              		@ frame_needed = 1, uses_anonymous_args = 0
 1282              		@ link register save eliminated.
 1283 06e0 80B4     		push	{r7}
 1284              	.LCFI51:
 1285              		.cfi_def_cfa_offset 4
 1286              		.cfi_offset 7, -4
 1287 06e2 85B0     		sub	sp, sp, #20
 1288              	.LCFI52:
 1289              		.cfi_def_cfa_offset 24
 1290 06e4 00AF     		add	r7, sp, #0
 1291              	.LCFI53:
 1292              		.cfi_def_cfa_register 7
 1293 06e6 7860     		str	r0, [r7, #4]
 1294 06e8 0B46     		mov	r3, r1
 1295 06ea FB70     		strb	r3, [r7, #3]
 925:../STM32F4xx_StdPeriph_Driver/src/stm32f4xx_spi.c ****   uint16_t crcreg = 0;
 1296              		.loc 1 925 0
 1297 06ec 4FF00003 		mov	r3, #0
 1298 06f0 FB81     		strh	r3, [r7, #14]	@ movhi
 926:../STM32F4xx_StdPeriph_Driver/src/stm32f4xx_spi.c ****   /* Check the parameters */
 927:../STM32F4xx_StdPeriph_Driver/src/stm32f4xx_spi.c ****   assert_param(IS_SPI_ALL_PERIPH(SPIx));
 928:../STM32F4xx_StdPeriph_Driver/src/stm32f4xx_spi.c ****   assert_param(IS_SPI_CRC(SPI_CRC));
 929:../STM32F4xx_StdPeriph_Driver/src/stm32f4xx_spi.c ****   if (SPI_CRC != SPI_CRC_Rx)
 1299              		.loc 1 929 0
 1300 06f2 FB78     		ldrb	r3, [r7, #3]	@ zero_extendqisi2
 1301 06f4 012B     		cmp	r3, #1
 1302 06f6 03D0     		beq	.L50
 930:../STM32F4xx_StdPeriph_Driver/src/stm32f4xx_spi.c ****   {
 931:../STM32F4xx_StdPeriph_Driver/src/stm32f4xx_spi.c ****     /* Get the Tx CRC register */
 932:../STM32F4xx_StdPeriph_Driver/src/stm32f4xx_spi.c ****     crcreg = SPIx->TXCRCR;
 1303              		.loc 1 932 0
 1304 06f8 7B68     		ldr	r3, [r7, #4]
 1305 06fa 1B8B     		ldrh	r3, [r3, #24]	@ movhi
 1306 06fc FB81     		strh	r3, [r7, #14]	@ movhi
 1307 06fe 02E0     		b	.L51
 1308              	.L50:
 933:../STM32F4xx_StdPeriph_Driver/src/stm32f4xx_spi.c ****   }
 934:../STM32F4xx_StdPeriph_Driver/src/stm32f4xx_spi.c ****   else
 935:../STM32F4xx_StdPeriph_Driver/src/stm32f4xx_spi.c ****   {
 936:../STM32F4xx_StdPeriph_Driver/src/stm32f4xx_spi.c ****     /* Get the Rx CRC register */
 937:../STM32F4xx_StdPeriph_Driver/src/stm32f4xx_spi.c ****     crcreg = SPIx->RXCRCR;
 1309              		.loc 1 937 0
 1310 0700 7B68     		ldr	r3, [r7, #4]
 1311 0702 9B8A     		ldrh	r3, [r3, #20]	@ movhi
 1312 0704 FB81     		strh	r3, [r7, #14]	@ movhi
 1313              	.L51:
 938:../STM32F4xx_StdPeriph_Driver/src/stm32f4xx_spi.c ****   }
 939:../STM32F4xx_StdPeriph_Driver/src/stm32f4xx_spi.c ****   /* Return the selected CRC register */
 940:../STM32F4xx_StdPeriph_Driver/src/stm32f4xx_spi.c ****   return crcreg;
 1314              		.loc 1 940 0
 1315 0706 FB89     		ldrh	r3, [r7, #14]
 941:../STM32F4xx_StdPeriph_Driver/src/stm32f4xx_spi.c **** }
 1316              		.loc 1 941 0
 1317 0708 1846     		mov	r0, r3
 1318 070a 07F11407 		add	r7, r7, #20
 1319 070e BD46     		mov	sp, r7
 1320 0710 80BC     		pop	{r7}
 1321 0712 7047     		bx	lr
 1322              		.cfi_endproc
 1323              	.LFE127:
 1325              		.align	2
 1326              		.global	SPI_GetCRCPolynomial
 1327              		.thumb
 1328              		.thumb_func
 1330              	SPI_GetCRCPolynomial:
 1331              	.LFB128:
 942:../STM32F4xx_StdPeriph_Driver/src/stm32f4xx_spi.c **** 
 943:../STM32F4xx_StdPeriph_Driver/src/stm32f4xx_spi.c **** /**
 944:../STM32F4xx_StdPeriph_Driver/src/stm32f4xx_spi.c ****   * @brief  Returns the CRC Polynomial register value for the specified SPI.
 945:../STM32F4xx_StdPeriph_Driver/src/stm32f4xx_spi.c ****   * @param  SPIx: where x can be 1, 2 or 3 to select the SPI peripheral.
 946:../STM32F4xx_StdPeriph_Driver/src/stm32f4xx_spi.c ****   * @retval The CRC Polynomial register value.
 947:../STM32F4xx_StdPeriph_Driver/src/stm32f4xx_spi.c ****   */
 948:../STM32F4xx_StdPeriph_Driver/src/stm32f4xx_spi.c **** uint16_t SPI_GetCRCPolynomial(SPI_TypeDef* SPIx)
 949:../STM32F4xx_StdPeriph_Driver/src/stm32f4xx_spi.c **** {
 1332              		.loc 1 949 0
 1333              		.cfi_startproc
 1334              		@ args = 0, pretend = 0, frame = 8
 1335              		@ frame_needed = 1, uses_anonymous_args = 0
 1336              		@ link register save eliminated.
 1337 0714 80B4     		push	{r7}
 1338              	.LCFI54:
 1339              		.cfi_def_cfa_offset 4
 1340              		.cfi_offset 7, -4
 1341 0716 83B0     		sub	sp, sp, #12
 1342              	.LCFI55:
 1343              		.cfi_def_cfa_offset 16
 1344 0718 00AF     		add	r7, sp, #0
 1345              	.LCFI56:
 1346              		.cfi_def_cfa_register 7
 1347 071a 7860     		str	r0, [r7, #4]
 950:../STM32F4xx_StdPeriph_Driver/src/stm32f4xx_spi.c ****   /* Check the parameters */
 951:../STM32F4xx_StdPeriph_Driver/src/stm32f4xx_spi.c ****   assert_param(IS_SPI_ALL_PERIPH(SPIx));
 952:../STM32F4xx_StdPeriph_Driver/src/stm32f4xx_spi.c ****   
 953:../STM32F4xx_StdPeriph_Driver/src/stm32f4xx_spi.c ****   /* Return the CRC polynomial register */
 954:../STM32F4xx_StdPeriph_Driver/src/stm32f4xx_spi.c ****   return SPIx->CRCPR;
 1348              		.loc 1 954 0
 1349 071c 7B68     		ldr	r3, [r7, #4]
 1350 071e 1B8A     		ldrh	r3, [r3, #16]	@ movhi
 1351 0720 9BB2     		uxth	r3, r3
 955:../STM32F4xx_StdPeriph_Driver/src/stm32f4xx_spi.c **** }
 1352              		.loc 1 955 0
 1353 0722 1846     		mov	r0, r3
 1354 0724 07F10C07 		add	r7, r7, #12
 1355 0728 BD46     		mov	sp, r7
 1356 072a 80BC     		pop	{r7}
 1357 072c 7047     		bx	lr
 1358              		.cfi_endproc
 1359              	.LFE128:
 1361 072e 00BF     		.align	2
 1362              		.global	SPI_I2S_DMACmd
 1363              		.thumb
 1364              		.thumb_func
 1366              	SPI_I2S_DMACmd:
 1367              	.LFB129:
 956:../STM32F4xx_StdPeriph_Driver/src/stm32f4xx_spi.c **** 
 957:../STM32F4xx_StdPeriph_Driver/src/stm32f4xx_spi.c **** /**
 958:../STM32F4xx_StdPeriph_Driver/src/stm32f4xx_spi.c ****   * @}
 959:../STM32F4xx_StdPeriph_Driver/src/stm32f4xx_spi.c ****   */
 960:../STM32F4xx_StdPeriph_Driver/src/stm32f4xx_spi.c **** 
 961:../STM32F4xx_StdPeriph_Driver/src/stm32f4xx_spi.c **** /** @defgroup SPI_Group4 DMA transfers management functions
 962:../STM32F4xx_StdPeriph_Driver/src/stm32f4xx_spi.c ****  *  @brief   DMA transfers management functions
 963:../STM32F4xx_StdPeriph_Driver/src/stm32f4xx_spi.c ****   *
 964:../STM32F4xx_StdPeriph_Driver/src/stm32f4xx_spi.c **** @verbatim   
 965:../STM32F4xx_StdPeriph_Driver/src/stm32f4xx_spi.c ****  ===============================================================================
 966:../STM32F4xx_StdPeriph_Driver/src/stm32f4xx_spi.c ****                          DMA transfers management functions
 967:../STM32F4xx_StdPeriph_Driver/src/stm32f4xx_spi.c ****  ===============================================================================  
 968:../STM32F4xx_StdPeriph_Driver/src/stm32f4xx_spi.c **** 
 969:../STM32F4xx_StdPeriph_Driver/src/stm32f4xx_spi.c **** @endverbatim
 970:../STM32F4xx_StdPeriph_Driver/src/stm32f4xx_spi.c ****   * @{
 971:../STM32F4xx_StdPeriph_Driver/src/stm32f4xx_spi.c ****   */
 972:../STM32F4xx_StdPeriph_Driver/src/stm32f4xx_spi.c **** 
 973:../STM32F4xx_StdPeriph_Driver/src/stm32f4xx_spi.c **** /**
 974:../STM32F4xx_StdPeriph_Driver/src/stm32f4xx_spi.c ****   * @brief  Enables or disables the SPIx/I2Sx DMA interface.
 975:../STM32F4xx_StdPeriph_Driver/src/stm32f4xx_spi.c ****   * @param  SPIx: To select the SPIx/I2Sx peripheral, where x can be: 1, 2 or 3 
 976:../STM32F4xx_StdPeriph_Driver/src/stm32f4xx_spi.c ****   *         in SPI mode or 2 or 3 in I2S mode or I2Sxext for I2S full duplex mode. 
 977:../STM32F4xx_StdPeriph_Driver/src/stm32f4xx_spi.c ****   * @param  SPI_I2S_DMAReq: specifies the SPI DMA transfer request to be enabled or disabled. 
 978:../STM32F4xx_StdPeriph_Driver/src/stm32f4xx_spi.c ****   *          This parameter can be any combination of the following values:
 979:../STM32F4xx_StdPeriph_Driver/src/stm32f4xx_spi.c ****   *            @arg SPI_I2S_DMAReq_Tx: Tx buffer DMA transfer request
 980:../STM32F4xx_StdPeriph_Driver/src/stm32f4xx_spi.c ****   *            @arg SPI_I2S_DMAReq_Rx: Rx buffer DMA transfer request
 981:../STM32F4xx_StdPeriph_Driver/src/stm32f4xx_spi.c ****   * @param  NewState: new state of the selected SPI DMA transfer request.
 982:../STM32F4xx_StdPeriph_Driver/src/stm32f4xx_spi.c ****   *          This parameter can be: ENABLE or DISABLE.
 983:../STM32F4xx_StdPeriph_Driver/src/stm32f4xx_spi.c ****   * @retval None
 984:../STM32F4xx_StdPeriph_Driver/src/stm32f4xx_spi.c ****   */
 985:../STM32F4xx_StdPeriph_Driver/src/stm32f4xx_spi.c **** void SPI_I2S_DMACmd(SPI_TypeDef* SPIx, uint16_t SPI_I2S_DMAReq, FunctionalState NewState)
 986:../STM32F4xx_StdPeriph_Driver/src/stm32f4xx_spi.c **** {
 1368              		.loc 1 986 0
 1369              		.cfi_startproc
 1370              		@ args = 0, pretend = 0, frame = 8
 1371              		@ frame_needed = 1, uses_anonymous_args = 0
 1372              		@ link register save eliminated.
 1373 0730 80B4     		push	{r7}
 1374              	.LCFI57:
 1375              		.cfi_def_cfa_offset 4
 1376              		.cfi_offset 7, -4
 1377 0732 83B0     		sub	sp, sp, #12
 1378              	.LCFI58:
 1379              		.cfi_def_cfa_offset 16
 1380 0734 00AF     		add	r7, sp, #0
 1381              	.LCFI59:
 1382              		.cfi_def_cfa_register 7
 1383 0736 7860     		str	r0, [r7, #4]
 1384 0738 1346     		mov	r3, r2
 1385 073a 0A46     		mov	r2, r1	@ movhi
 1386 073c 7A80     		strh	r2, [r7, #2]	@ movhi
 1387 073e 7B70     		strb	r3, [r7, #1]
 987:../STM32F4xx_StdPeriph_Driver/src/stm32f4xx_spi.c ****   /* Check the parameters */
 988:../STM32F4xx_StdPeriph_Driver/src/stm32f4xx_spi.c ****   assert_param(IS_SPI_ALL_PERIPH_EXT(SPIx));
 989:../STM32F4xx_StdPeriph_Driver/src/stm32f4xx_spi.c ****   assert_param(IS_FUNCTIONAL_STATE(NewState));
 990:../STM32F4xx_StdPeriph_Driver/src/stm32f4xx_spi.c ****   assert_param(IS_SPI_I2S_DMAREQ(SPI_I2S_DMAReq));
 991:../STM32F4xx_StdPeriph_Driver/src/stm32f4xx_spi.c **** 
 992:../STM32F4xx_StdPeriph_Driver/src/stm32f4xx_spi.c ****   if (NewState != DISABLE)
 1388              		.loc 1 992 0
 1389 0740 7B78     		ldrb	r3, [r7, #1]	@ zero_extendqisi2
 1390 0742 002B     		cmp	r3, #0
 1391 0744 08D0     		beq	.L54
 993:../STM32F4xx_StdPeriph_Driver/src/stm32f4xx_spi.c ****   {
 994:../STM32F4xx_StdPeriph_Driver/src/stm32f4xx_spi.c ****     /* Enable the selected SPI DMA requests */
 995:../STM32F4xx_StdPeriph_Driver/src/stm32f4xx_spi.c ****     SPIx->CR2 |= SPI_I2S_DMAReq;
 1392              		.loc 1 995 0
 1393 0746 7B68     		ldr	r3, [r7, #4]
 1394 0748 9B88     		ldrh	r3, [r3, #4]	@ movhi
 1395 074a 9AB2     		uxth	r2, r3
 1396 074c 7B88     		ldrh	r3, [r7, #2]	@ movhi
 1397 074e 1343     		orrs	r3, r3, r2
 1398 0750 9AB2     		uxth	r2, r3
 1399 0752 7B68     		ldr	r3, [r7, #4]
 1400 0754 9A80     		strh	r2, [r3, #4]	@ movhi
 1401 0756 0AE0     		b	.L53
 1402              	.L54:
 996:../STM32F4xx_StdPeriph_Driver/src/stm32f4xx_spi.c ****   }
 997:../STM32F4xx_StdPeriph_Driver/src/stm32f4xx_spi.c ****   else
 998:../STM32F4xx_StdPeriph_Driver/src/stm32f4xx_spi.c ****   {
 999:../STM32F4xx_StdPeriph_Driver/src/stm32f4xx_spi.c ****     /* Disable the selected SPI DMA requests */
1000:../STM32F4xx_StdPeriph_Driver/src/stm32f4xx_spi.c ****     SPIx->CR2 &= (uint16_t)~SPI_I2S_DMAReq;
 1403              		.loc 1 1000 0
 1404 0758 7B68     		ldr	r3, [r7, #4]
 1405 075a 9B88     		ldrh	r3, [r3, #4]	@ movhi
 1406 075c 9AB2     		uxth	r2, r3
 1407 075e 7B88     		ldrh	r3, [r7, #2]	@ movhi
 1408 0760 6FEA0303 		mvn	r3, r3
 1409 0764 9BB2     		uxth	r3, r3
 1410 0766 1340     		ands	r3, r3, r2
 1411 0768 9AB2     		uxth	r2, r3
 1412 076a 7B68     		ldr	r3, [r7, #4]
 1413 076c 9A80     		strh	r2, [r3, #4]	@ movhi
 1414              	.L53:
1001:../STM32F4xx_StdPeriph_Driver/src/stm32f4xx_spi.c ****   }
1002:../STM32F4xx_StdPeriph_Driver/src/stm32f4xx_spi.c **** }
 1415              		.loc 1 1002 0
 1416 076e 07F10C07 		add	r7, r7, #12
 1417 0772 BD46     		mov	sp, r7
 1418 0774 80BC     		pop	{r7}
 1419 0776 7047     		bx	lr
 1420              		.cfi_endproc
 1421              	.LFE129:
 1423              		.align	2
 1424              		.global	SPI_I2S_ITConfig
 1425              		.thumb
 1426              		.thumb_func
 1428              	SPI_I2S_ITConfig:
 1429              	.LFB130:
1003:../STM32F4xx_StdPeriph_Driver/src/stm32f4xx_spi.c **** 
1004:../STM32F4xx_StdPeriph_Driver/src/stm32f4xx_spi.c **** /**
1005:../STM32F4xx_StdPeriph_Driver/src/stm32f4xx_spi.c ****   * @}
1006:../STM32F4xx_StdPeriph_Driver/src/stm32f4xx_spi.c ****   */
1007:../STM32F4xx_StdPeriph_Driver/src/stm32f4xx_spi.c **** 
1008:../STM32F4xx_StdPeriph_Driver/src/stm32f4xx_spi.c **** /** @defgroup SPI_Group5 Interrupts and flags management functions
1009:../STM32F4xx_StdPeriph_Driver/src/stm32f4xx_spi.c ****  *  @brief   Interrupts and flags management functions
1010:../STM32F4xx_StdPeriph_Driver/src/stm32f4xx_spi.c ****   *
1011:../STM32F4xx_StdPeriph_Driver/src/stm32f4xx_spi.c **** @verbatim   
1012:../STM32F4xx_StdPeriph_Driver/src/stm32f4xx_spi.c ****  ===============================================================================
1013:../STM32F4xx_StdPeriph_Driver/src/stm32f4xx_spi.c ****                          Interrupts and flags management functions
1014:../STM32F4xx_StdPeriph_Driver/src/stm32f4xx_spi.c ****  ===============================================================================  
1015:../STM32F4xx_StdPeriph_Driver/src/stm32f4xx_spi.c **** 
1016:../STM32F4xx_StdPeriph_Driver/src/stm32f4xx_spi.c ****   This section provides a set of functions allowing to configure the SPI Interrupts 
1017:../STM32F4xx_StdPeriph_Driver/src/stm32f4xx_spi.c ****   sources and check or clear the flags or pending bits status.
1018:../STM32F4xx_StdPeriph_Driver/src/stm32f4xx_spi.c ****   The user should identify which mode will be used in his application to manage 
1019:../STM32F4xx_StdPeriph_Driver/src/stm32f4xx_spi.c ****   the communication: Polling mode, Interrupt mode or DMA mode. 
1020:../STM32F4xx_StdPeriph_Driver/src/stm32f4xx_spi.c ****     
1021:../STM32F4xx_StdPeriph_Driver/src/stm32f4xx_spi.c ****   Polling Mode
1022:../STM32F4xx_StdPeriph_Driver/src/stm32f4xx_spi.c ****   =============
1023:../STM32F4xx_StdPeriph_Driver/src/stm32f4xx_spi.c ****   In Polling Mode, the SPI/I2S communication can be managed by 9 flags:
1024:../STM32F4xx_StdPeriph_Driver/src/stm32f4xx_spi.c ****      1. SPI_I2S_FLAG_TXE : to indicate the status of the transmit buffer register
1025:../STM32F4xx_StdPeriph_Driver/src/stm32f4xx_spi.c ****      2. SPI_I2S_FLAG_RXNE : to indicate the status of the receive buffer register
1026:../STM32F4xx_StdPeriph_Driver/src/stm32f4xx_spi.c ****      3. SPI_I2S_FLAG_BSY : to indicate the state of the communication layer of the SPI.
1027:../STM32F4xx_StdPeriph_Driver/src/stm32f4xx_spi.c ****      4. SPI_FLAG_CRCERR : to indicate if a CRC Calculation error occur              
1028:../STM32F4xx_StdPeriph_Driver/src/stm32f4xx_spi.c ****      5. SPI_FLAG_MODF : to indicate if a Mode Fault error occur
1029:../STM32F4xx_StdPeriph_Driver/src/stm32f4xx_spi.c ****      6. SPI_I2S_FLAG_OVR : to indicate if an Overrun error occur
1030:../STM32F4xx_StdPeriph_Driver/src/stm32f4xx_spi.c ****      7. I2S_FLAG_TIFRFE: to indicate a Frame Format error occurs.
1031:../STM32F4xx_StdPeriph_Driver/src/stm32f4xx_spi.c ****      8. I2S_FLAG_UDR: to indicate an Underrun error occurs.
1032:../STM32F4xx_StdPeriph_Driver/src/stm32f4xx_spi.c ****      9. I2S_FLAG_CHSIDE: to indicate Channel Side.
1033:../STM32F4xx_StdPeriph_Driver/src/stm32f4xx_spi.c **** 
1034:../STM32F4xx_StdPeriph_Driver/src/stm32f4xx_spi.c **** @note Do not use the BSY flag to handle each data transmission or reception.  It is
1035:../STM32F4xx_StdPeriph_Driver/src/stm32f4xx_spi.c ****       better to use the TXE and RXNE flags instead.
1036:../STM32F4xx_StdPeriph_Driver/src/stm32f4xx_spi.c **** 
1037:../STM32F4xx_StdPeriph_Driver/src/stm32f4xx_spi.c ****   In this Mode it is advised to use the following functions:
1038:../STM32F4xx_StdPeriph_Driver/src/stm32f4xx_spi.c ****      - FlagStatus SPI_I2S_GetFlagStatus(SPI_TypeDef* SPIx, uint16_t SPI_I2S_FLAG);
1039:../STM32F4xx_StdPeriph_Driver/src/stm32f4xx_spi.c ****      - void SPI_I2S_ClearFlag(SPI_TypeDef* SPIx, uint16_t SPI_I2S_FLAG);
1040:../STM32F4xx_StdPeriph_Driver/src/stm32f4xx_spi.c **** 
1041:../STM32F4xx_StdPeriph_Driver/src/stm32f4xx_spi.c ****   Interrupt Mode
1042:../STM32F4xx_StdPeriph_Driver/src/stm32f4xx_spi.c ****   ===============
1043:../STM32F4xx_StdPeriph_Driver/src/stm32f4xx_spi.c ****   In Interrupt Mode, the SPI communication can be managed by 3 interrupt sources
1044:../STM32F4xx_StdPeriph_Driver/src/stm32f4xx_spi.c ****   and 7 pending bits: 
1045:../STM32F4xx_StdPeriph_Driver/src/stm32f4xx_spi.c ****   Pending Bits:
1046:../STM32F4xx_StdPeriph_Driver/src/stm32f4xx_spi.c ****   ------------- 
1047:../STM32F4xx_StdPeriph_Driver/src/stm32f4xx_spi.c ****      1. SPI_I2S_IT_TXE : to indicate the status of the transmit buffer register
1048:../STM32F4xx_StdPeriph_Driver/src/stm32f4xx_spi.c ****      2. SPI_I2S_IT_RXNE : to indicate the status of the receive buffer register
1049:../STM32F4xx_StdPeriph_Driver/src/stm32f4xx_spi.c ****      3. SPI_IT_CRCERR : to indicate if a CRC Calculation error occur (available in SPI mode only)  
1050:../STM32F4xx_StdPeriph_Driver/src/stm32f4xx_spi.c ****      4. SPI_IT_MODF : to indicate if a Mode Fault error occur (available in SPI mode only)
1051:../STM32F4xx_StdPeriph_Driver/src/stm32f4xx_spi.c ****      5. SPI_I2S_IT_OVR : to indicate if an Overrun error occur
1052:../STM32F4xx_StdPeriph_Driver/src/stm32f4xx_spi.c ****      6. I2S_IT_UDR : to indicate an Underrun Error occurs (available in I2S mode only).
1053:../STM32F4xx_StdPeriph_Driver/src/stm32f4xx_spi.c ****      7. I2S_FLAG_TIFRFE : to indicate a Frame Format error occurs (available in TI mode only).
1054:../STM32F4xx_StdPeriph_Driver/src/stm32f4xx_spi.c **** 
1055:../STM32F4xx_StdPeriph_Driver/src/stm32f4xx_spi.c ****   Interrupt Source:
1056:../STM32F4xx_StdPeriph_Driver/src/stm32f4xx_spi.c ****   -----------------
1057:../STM32F4xx_StdPeriph_Driver/src/stm32f4xx_spi.c ****      1. SPI_I2S_IT_TXE: specifies the interrupt source for the Tx buffer empty 
1058:../STM32F4xx_StdPeriph_Driver/src/stm32f4xx_spi.c ****                         interrupt.  
1059:../STM32F4xx_StdPeriph_Driver/src/stm32f4xx_spi.c ****      2. SPI_I2S_IT_RXNE : specifies the interrupt source for the Rx buffer not 
1060:../STM32F4xx_StdPeriph_Driver/src/stm32f4xx_spi.c ****                           empty interrupt.
1061:../STM32F4xx_StdPeriph_Driver/src/stm32f4xx_spi.c ****      3. SPI_I2S_IT_ERR : specifies the interrupt source for the errors interrupt.
1062:../STM32F4xx_StdPeriph_Driver/src/stm32f4xx_spi.c **** 
1063:../STM32F4xx_StdPeriph_Driver/src/stm32f4xx_spi.c ****   In this Mode it is advised to use the following functions:
1064:../STM32F4xx_StdPeriph_Driver/src/stm32f4xx_spi.c ****      - void SPI_I2S_ITConfig(SPI_TypeDef* SPIx, uint8_t SPI_I2S_IT, FunctionalState NewState);
1065:../STM32F4xx_StdPeriph_Driver/src/stm32f4xx_spi.c ****      - ITStatus SPI_I2S_GetITStatus(SPI_TypeDef* SPIx, uint8_t SPI_I2S_IT);
1066:../STM32F4xx_StdPeriph_Driver/src/stm32f4xx_spi.c ****      - void SPI_I2S_ClearITPendingBit(SPI_TypeDef* SPIx, uint8_t SPI_I2S_IT);
1067:../STM32F4xx_StdPeriph_Driver/src/stm32f4xx_spi.c **** 
1068:../STM32F4xx_StdPeriph_Driver/src/stm32f4xx_spi.c ****   DMA Mode
1069:../STM32F4xx_StdPeriph_Driver/src/stm32f4xx_spi.c ****   ========
1070:../STM32F4xx_StdPeriph_Driver/src/stm32f4xx_spi.c ****   In DMA Mode, the SPI communication can be managed by 2 DMA Channel requests:
1071:../STM32F4xx_StdPeriph_Driver/src/stm32f4xx_spi.c ****      1. SPI_I2S_DMAReq_Tx: specifies the Tx buffer DMA transfer request
1072:../STM32F4xx_StdPeriph_Driver/src/stm32f4xx_spi.c ****      2. SPI_I2S_DMAReq_Rx: specifies the Rx buffer DMA transfer request
1073:../STM32F4xx_StdPeriph_Driver/src/stm32f4xx_spi.c **** 
1074:../STM32F4xx_StdPeriph_Driver/src/stm32f4xx_spi.c ****   In this Mode it is advised to use the following function:
1075:../STM32F4xx_StdPeriph_Driver/src/stm32f4xx_spi.c ****     - void SPI_I2S_DMACmd(SPI_TypeDef* SPIx, uint16_t SPI_I2S_DMAReq, FunctionalState NewState);
1076:../STM32F4xx_StdPeriph_Driver/src/stm32f4xx_spi.c **** 
1077:../STM32F4xx_StdPeriph_Driver/src/stm32f4xx_spi.c **** @endverbatim
1078:../STM32F4xx_StdPeriph_Driver/src/stm32f4xx_spi.c ****   * @{
1079:../STM32F4xx_StdPeriph_Driver/src/stm32f4xx_spi.c ****   */
1080:../STM32F4xx_StdPeriph_Driver/src/stm32f4xx_spi.c **** 
1081:../STM32F4xx_StdPeriph_Driver/src/stm32f4xx_spi.c **** /**
1082:../STM32F4xx_StdPeriph_Driver/src/stm32f4xx_spi.c ****   * @brief  Enables or disables the specified SPI/I2S interrupts.
1083:../STM32F4xx_StdPeriph_Driver/src/stm32f4xx_spi.c ****   * @param  SPIx: To select the SPIx/I2Sx peripheral, where x can be: 1, 2 or 3 
1084:../STM32F4xx_StdPeriph_Driver/src/stm32f4xx_spi.c ****   *         in SPI mode or 2 or 3 in I2S mode or I2Sxext for I2S full duplex mode. 
1085:../STM32F4xx_StdPeriph_Driver/src/stm32f4xx_spi.c ****   * @param  SPI_I2S_IT: specifies the SPI interrupt source to be enabled or disabled. 
1086:../STM32F4xx_StdPeriph_Driver/src/stm32f4xx_spi.c ****   *          This parameter can be one of the following values:
1087:../STM32F4xx_StdPeriph_Driver/src/stm32f4xx_spi.c ****   *            @arg SPI_I2S_IT_TXE: Tx buffer empty interrupt mask
1088:../STM32F4xx_StdPeriph_Driver/src/stm32f4xx_spi.c ****   *            @arg SPI_I2S_IT_RXNE: Rx buffer not empty interrupt mask
1089:../STM32F4xx_StdPeriph_Driver/src/stm32f4xx_spi.c ****   *            @arg SPI_I2S_IT_ERR: Error interrupt mask
1090:../STM32F4xx_StdPeriph_Driver/src/stm32f4xx_spi.c ****   * @param  NewState: new state of the specified SPI interrupt.
1091:../STM32F4xx_StdPeriph_Driver/src/stm32f4xx_spi.c ****   *          This parameter can be: ENABLE or DISABLE.
1092:../STM32F4xx_StdPeriph_Driver/src/stm32f4xx_spi.c ****   * @retval None
1093:../STM32F4xx_StdPeriph_Driver/src/stm32f4xx_spi.c ****   */
1094:../STM32F4xx_StdPeriph_Driver/src/stm32f4xx_spi.c **** void SPI_I2S_ITConfig(SPI_TypeDef* SPIx, uint8_t SPI_I2S_IT, FunctionalState NewState)
1095:../STM32F4xx_StdPeriph_Driver/src/stm32f4xx_spi.c **** {
 1430              		.loc 1 1095 0
 1431              		.cfi_startproc
 1432              		@ args = 0, pretend = 0, frame = 16
 1433              		@ frame_needed = 1, uses_anonymous_args = 0
 1434              		@ link register save eliminated.
 1435 0778 80B4     		push	{r7}
 1436              	.LCFI60:
 1437              		.cfi_def_cfa_offset 4
 1438              		.cfi_offset 7, -4
 1439 077a 85B0     		sub	sp, sp, #20
 1440              	.LCFI61:
 1441              		.cfi_def_cfa_offset 24
 1442 077c 00AF     		add	r7, sp, #0
 1443              	.LCFI62:
 1444              		.cfi_def_cfa_register 7
 1445 077e 7860     		str	r0, [r7, #4]
 1446 0780 1346     		mov	r3, r2
 1447 0782 0A46     		mov	r2, r1
 1448 0784 FA70     		strb	r2, [r7, #3]
 1449 0786 BB70     		strb	r3, [r7, #2]
1096:../STM32F4xx_StdPeriph_Driver/src/stm32f4xx_spi.c ****   uint16_t itpos = 0, itmask = 0 ;
 1450              		.loc 1 1096 0
 1451 0788 4FF00003 		mov	r3, #0
 1452 078c FB81     		strh	r3, [r7, #14]	@ movhi
 1453 078e 4FF00003 		mov	r3, #0
 1454 0792 BB81     		strh	r3, [r7, #12]	@ movhi
1097:../STM32F4xx_StdPeriph_Driver/src/stm32f4xx_spi.c ****   
1098:../STM32F4xx_StdPeriph_Driver/src/stm32f4xx_spi.c ****   /* Check the parameters */
1099:../STM32F4xx_StdPeriph_Driver/src/stm32f4xx_spi.c ****   assert_param(IS_SPI_ALL_PERIPH_EXT(SPIx));
1100:../STM32F4xx_StdPeriph_Driver/src/stm32f4xx_spi.c ****   assert_param(IS_FUNCTIONAL_STATE(NewState));
1101:../STM32F4xx_StdPeriph_Driver/src/stm32f4xx_spi.c ****   assert_param(IS_SPI_I2S_CONFIG_IT(SPI_I2S_IT));
1102:../STM32F4xx_StdPeriph_Driver/src/stm32f4xx_spi.c **** 
1103:../STM32F4xx_StdPeriph_Driver/src/stm32f4xx_spi.c ****   /* Get the SPI IT index */
1104:../STM32F4xx_StdPeriph_Driver/src/stm32f4xx_spi.c ****   itpos = SPI_I2S_IT >> 4;
 1455              		.loc 1 1104 0
 1456 0794 FB78     		ldrb	r3, [r7, #3]	@ zero_extendqisi2
 1457 0796 4FEA1313 		lsr	r3, r3, #4
 1458 079a DBB2     		uxtb	r3, r3
 1459 079c FB81     		strh	r3, [r7, #14]	@ movhi
1105:../STM32F4xx_StdPeriph_Driver/src/stm32f4xx_spi.c **** 
1106:../STM32F4xx_StdPeriph_Driver/src/stm32f4xx_spi.c ****   /* Set the IT mask */
1107:../STM32F4xx_StdPeriph_Driver/src/stm32f4xx_spi.c ****   itmask = (uint16_t)1 << (uint16_t)itpos;
 1460              		.loc 1 1107 0
 1461 079e FB89     		ldrh	r3, [r7, #14]
 1462 07a0 4FF00102 		mov	r2, #1
 1463 07a4 02FA03F3 		lsl	r3, r2, r3
 1464 07a8 BB81     		strh	r3, [r7, #12]	@ movhi
1108:../STM32F4xx_StdPeriph_Driver/src/stm32f4xx_spi.c **** 
1109:../STM32F4xx_StdPeriph_Driver/src/stm32f4xx_spi.c ****   if (NewState != DISABLE)
 1465              		.loc 1 1109 0
 1466 07aa BB78     		ldrb	r3, [r7, #2]	@ zero_extendqisi2
 1467 07ac 002B     		cmp	r3, #0
 1468 07ae 08D0     		beq	.L57
1110:../STM32F4xx_StdPeriph_Driver/src/stm32f4xx_spi.c ****   {
1111:../STM32F4xx_StdPeriph_Driver/src/stm32f4xx_spi.c ****     /* Enable the selected SPI interrupt */
1112:../STM32F4xx_StdPeriph_Driver/src/stm32f4xx_spi.c ****     SPIx->CR2 |= itmask;
 1469              		.loc 1 1112 0
 1470 07b0 7B68     		ldr	r3, [r7, #4]
 1471 07b2 9B88     		ldrh	r3, [r3, #4]	@ movhi
 1472 07b4 9AB2     		uxth	r2, r3
 1473 07b6 BB89     		ldrh	r3, [r7, #12]	@ movhi
 1474 07b8 1343     		orrs	r3, r3, r2
 1475 07ba 9AB2     		uxth	r2, r3
 1476 07bc 7B68     		ldr	r3, [r7, #4]
 1477 07be 9A80     		strh	r2, [r3, #4]	@ movhi
 1478 07c0 0AE0     		b	.L56
 1479              	.L57:
1113:../STM32F4xx_StdPeriph_Driver/src/stm32f4xx_spi.c ****   }
1114:../STM32F4xx_StdPeriph_Driver/src/stm32f4xx_spi.c ****   else
1115:../STM32F4xx_StdPeriph_Driver/src/stm32f4xx_spi.c ****   {
1116:../STM32F4xx_StdPeriph_Driver/src/stm32f4xx_spi.c ****     /* Disable the selected SPI interrupt */
1117:../STM32F4xx_StdPeriph_Driver/src/stm32f4xx_spi.c ****     SPIx->CR2 &= (uint16_t)~itmask;
 1480              		.loc 1 1117 0
 1481 07c2 7B68     		ldr	r3, [r7, #4]
 1482 07c4 9B88     		ldrh	r3, [r3, #4]	@ movhi
 1483 07c6 9AB2     		uxth	r2, r3
 1484 07c8 BB89     		ldrh	r3, [r7, #12]	@ movhi
 1485 07ca 6FEA0303 		mvn	r3, r3
 1486 07ce 9BB2     		uxth	r3, r3
 1487 07d0 1340     		ands	r3, r3, r2
 1488 07d2 9AB2     		uxth	r2, r3
 1489 07d4 7B68     		ldr	r3, [r7, #4]
 1490 07d6 9A80     		strh	r2, [r3, #4]	@ movhi
 1491              	.L56:
1118:../STM32F4xx_StdPeriph_Driver/src/stm32f4xx_spi.c ****   }
1119:../STM32F4xx_StdPeriph_Driver/src/stm32f4xx_spi.c **** }
 1492              		.loc 1 1119 0
 1493 07d8 07F11407 		add	r7, r7, #20
 1494 07dc BD46     		mov	sp, r7
 1495 07de 80BC     		pop	{r7}
 1496 07e0 7047     		bx	lr
 1497              		.cfi_endproc
 1498              	.LFE130:
 1500 07e2 00BF     		.align	2
 1501              		.global	SPI_I2S_GetFlagStatus
 1502              		.thumb
 1503              		.thumb_func
 1505              	SPI_I2S_GetFlagStatus:
 1506              	.LFB131:
1120:../STM32F4xx_StdPeriph_Driver/src/stm32f4xx_spi.c **** 
1121:../STM32F4xx_StdPeriph_Driver/src/stm32f4xx_spi.c **** /**
1122:../STM32F4xx_StdPeriph_Driver/src/stm32f4xx_spi.c ****   * @brief  Checks whether the specified SPIx/I2Sx flag is set or not.
1123:../STM32F4xx_StdPeriph_Driver/src/stm32f4xx_spi.c ****   * @param  SPIx: To select the SPIx/I2Sx peripheral, where x can be: 1, 2 or 3 
1124:../STM32F4xx_StdPeriph_Driver/src/stm32f4xx_spi.c ****   *         in SPI mode or 2 or 3 in I2S mode or I2Sxext for I2S full duplex mode. 
1125:../STM32F4xx_StdPeriph_Driver/src/stm32f4xx_spi.c ****   * @param  SPI_I2S_FLAG: specifies the SPI flag to check. 
1126:../STM32F4xx_StdPeriph_Driver/src/stm32f4xx_spi.c ****   *          This parameter can be one of the following values:
1127:../STM32F4xx_StdPeriph_Driver/src/stm32f4xx_spi.c ****   *            @arg SPI_I2S_FLAG_TXE: Transmit buffer empty flag.
1128:../STM32F4xx_StdPeriph_Driver/src/stm32f4xx_spi.c ****   *            @arg SPI_I2S_FLAG_RXNE: Receive buffer not empty flag.
1129:../STM32F4xx_StdPeriph_Driver/src/stm32f4xx_spi.c ****   *            @arg SPI_I2S_FLAG_BSY: Busy flag.
1130:../STM32F4xx_StdPeriph_Driver/src/stm32f4xx_spi.c ****   *            @arg SPI_I2S_FLAG_OVR: Overrun flag.
1131:../STM32F4xx_StdPeriph_Driver/src/stm32f4xx_spi.c ****   *            @arg SPI_FLAG_MODF: Mode Fault flag.
1132:../STM32F4xx_StdPeriph_Driver/src/stm32f4xx_spi.c ****   *            @arg SPI_FLAG_CRCERR: CRC Error flag.
1133:../STM32F4xx_StdPeriph_Driver/src/stm32f4xx_spi.c ****   *            @arg SPI_I2S_FLAG_TIFRFE: Format Error.
1134:../STM32F4xx_StdPeriph_Driver/src/stm32f4xx_spi.c ****   *            @arg I2S_FLAG_UDR: Underrun Error flag.
1135:../STM32F4xx_StdPeriph_Driver/src/stm32f4xx_spi.c ****   *            @arg I2S_FLAG_CHSIDE: Channel Side flag.  
1136:../STM32F4xx_StdPeriph_Driver/src/stm32f4xx_spi.c ****   * @retval The new state of SPI_I2S_FLAG (SET or RESET).
1137:../STM32F4xx_StdPeriph_Driver/src/stm32f4xx_spi.c ****   */
1138:../STM32F4xx_StdPeriph_Driver/src/stm32f4xx_spi.c **** FlagStatus SPI_I2S_GetFlagStatus(SPI_TypeDef* SPIx, uint16_t SPI_I2S_FLAG)
1139:../STM32F4xx_StdPeriph_Driver/src/stm32f4xx_spi.c **** {
 1507              		.loc 1 1139 0
 1508              		.cfi_startproc
 1509              		@ args = 0, pretend = 0, frame = 16
 1510              		@ frame_needed = 1, uses_anonymous_args = 0
 1511              		@ link register save eliminated.
 1512 07e4 80B4     		push	{r7}
 1513              	.LCFI63:
 1514              		.cfi_def_cfa_offset 4
 1515              		.cfi_offset 7, -4
 1516 07e6 85B0     		sub	sp, sp, #20
 1517              	.LCFI64:
 1518              		.cfi_def_cfa_offset 24
 1519 07e8 00AF     		add	r7, sp, #0
 1520              	.LCFI65:
 1521              		.cfi_def_cfa_register 7
 1522 07ea 7860     		str	r0, [r7, #4]
 1523 07ec 0B46     		mov	r3, r1
 1524 07ee 7B80     		strh	r3, [r7, #2]	@ movhi
1140:../STM32F4xx_StdPeriph_Driver/src/stm32f4xx_spi.c ****   FlagStatus bitstatus = RESET;
 1525              		.loc 1 1140 0
 1526 07f0 4FF00003 		mov	r3, #0
 1527 07f4 FB73     		strb	r3, [r7, #15]
1141:../STM32F4xx_StdPeriph_Driver/src/stm32f4xx_spi.c ****   /* Check the parameters */
1142:../STM32F4xx_StdPeriph_Driver/src/stm32f4xx_spi.c ****   assert_param(IS_SPI_ALL_PERIPH_EXT(SPIx));
1143:../STM32F4xx_StdPeriph_Driver/src/stm32f4xx_spi.c ****   assert_param(IS_SPI_I2S_GET_FLAG(SPI_I2S_FLAG));
1144:../STM32F4xx_StdPeriph_Driver/src/stm32f4xx_spi.c ****   
1145:../STM32F4xx_StdPeriph_Driver/src/stm32f4xx_spi.c ****   /* Check the status of the specified SPI flag */
1146:../STM32F4xx_StdPeriph_Driver/src/stm32f4xx_spi.c ****   if ((SPIx->SR & SPI_I2S_FLAG) != (uint16_t)RESET)
 1528              		.loc 1 1146 0
 1529 07f6 7B68     		ldr	r3, [r7, #4]
 1530 07f8 1B89     		ldrh	r3, [r3, #8]	@ movhi
 1531 07fa 9AB2     		uxth	r2, r3
 1532 07fc 7B88     		ldrh	r3, [r7, #2]	@ movhi
 1533 07fe 1340     		ands	r3, r3, r2
 1534 0800 9BB2     		uxth	r3, r3
 1535 0802 002B     		cmp	r3, #0
 1536 0804 03D0     		beq	.L60
1147:../STM32F4xx_StdPeriph_Driver/src/stm32f4xx_spi.c ****   {
1148:../STM32F4xx_StdPeriph_Driver/src/stm32f4xx_spi.c ****     /* SPI_I2S_FLAG is set */
1149:../STM32F4xx_StdPeriph_Driver/src/stm32f4xx_spi.c ****     bitstatus = SET;
 1537              		.loc 1 1149 0
 1538 0806 4FF00103 		mov	r3, #1
 1539 080a FB73     		strb	r3, [r7, #15]
 1540 080c 02E0     		b	.L61
 1541              	.L60:
1150:../STM32F4xx_StdPeriph_Driver/src/stm32f4xx_spi.c ****   }
1151:../STM32F4xx_StdPeriph_Driver/src/stm32f4xx_spi.c ****   else
1152:../STM32F4xx_StdPeriph_Driver/src/stm32f4xx_spi.c ****   {
1153:../STM32F4xx_StdPeriph_Driver/src/stm32f4xx_spi.c ****     /* SPI_I2S_FLAG is reset */
1154:../STM32F4xx_StdPeriph_Driver/src/stm32f4xx_spi.c ****     bitstatus = RESET;
 1542              		.loc 1 1154 0
 1543 080e 4FF00003 		mov	r3, #0
 1544 0812 FB73     		strb	r3, [r7, #15]
 1545              	.L61:
1155:../STM32F4xx_StdPeriph_Driver/src/stm32f4xx_spi.c ****   }
1156:../STM32F4xx_StdPeriph_Driver/src/stm32f4xx_spi.c ****   /* Return the SPI_I2S_FLAG status */
1157:../STM32F4xx_StdPeriph_Driver/src/stm32f4xx_spi.c ****   return  bitstatus;
 1546              		.loc 1 1157 0
 1547 0814 FB7B     		ldrb	r3, [r7, #15]	@ zero_extendqisi2
1158:../STM32F4xx_StdPeriph_Driver/src/stm32f4xx_spi.c **** }
 1548              		.loc 1 1158 0
 1549 0816 1846     		mov	r0, r3
 1550 0818 07F11407 		add	r7, r7, #20
 1551 081c BD46     		mov	sp, r7
 1552 081e 80BC     		pop	{r7}
 1553 0820 7047     		bx	lr
 1554              		.cfi_endproc
 1555              	.LFE131:
 1557 0822 00BF     		.align	2
 1558              		.global	SPI_I2S_ClearFlag
 1559              		.thumb
 1560              		.thumb_func
 1562              	SPI_I2S_ClearFlag:
 1563              	.LFB132:
1159:../STM32F4xx_StdPeriph_Driver/src/stm32f4xx_spi.c **** 
1160:../STM32F4xx_StdPeriph_Driver/src/stm32f4xx_spi.c **** /**
1161:../STM32F4xx_StdPeriph_Driver/src/stm32f4xx_spi.c ****   * @brief  Clears the SPIx CRC Error (CRCERR) flag.
1162:../STM32F4xx_StdPeriph_Driver/src/stm32f4xx_spi.c ****   * @param  SPIx: To select the SPIx/I2Sx peripheral, where x can be: 1, 2 or 3 
1163:../STM32F4xx_StdPeriph_Driver/src/stm32f4xx_spi.c ****   *         in SPI mode or 2 or 3 in I2S mode or I2Sxext for I2S full duplex mode. 
1164:../STM32F4xx_StdPeriph_Driver/src/stm32f4xx_spi.c ****   * @param  SPI_I2S_FLAG: specifies the SPI flag to clear. 
1165:../STM32F4xx_StdPeriph_Driver/src/stm32f4xx_spi.c ****   *          This function clears only CRCERR flag.
1166:../STM32F4xx_StdPeriph_Driver/src/stm32f4xx_spi.c ****   *            @arg SPI_FLAG_CRCERR: CRC Error flag.  
1167:../STM32F4xx_StdPeriph_Driver/src/stm32f4xx_spi.c ****   *  
1168:../STM32F4xx_StdPeriph_Driver/src/stm32f4xx_spi.c ****   * @note   OVR (OverRun error) flag is cleared by software sequence: a read 
1169:../STM32F4xx_StdPeriph_Driver/src/stm32f4xx_spi.c ****   *          operation to SPI_DR register (SPI_I2S_ReceiveData()) followed by a read 
1170:../STM32F4xx_StdPeriph_Driver/src/stm32f4xx_spi.c ****   *          operation to SPI_SR register (SPI_I2S_GetFlagStatus()).
1171:../STM32F4xx_StdPeriph_Driver/src/stm32f4xx_spi.c ****   * @note   UDR (UnderRun error) flag is cleared by a read operation to 
1172:../STM32F4xx_StdPeriph_Driver/src/stm32f4xx_spi.c ****   *          SPI_SR register (SPI_I2S_GetFlagStatus()).   
1173:../STM32F4xx_StdPeriph_Driver/src/stm32f4xx_spi.c ****   * @note   MODF (Mode Fault) flag is cleared by software sequence: a read/write 
1174:../STM32F4xx_StdPeriph_Driver/src/stm32f4xx_spi.c ****   *          operation to SPI_SR register (SPI_I2S_GetFlagStatus()) followed by a 
1175:../STM32F4xx_StdPeriph_Driver/src/stm32f4xx_spi.c ****   *          write operation to SPI_CR1 register (SPI_Cmd() to enable the SPI).
1176:../STM32F4xx_StdPeriph_Driver/src/stm32f4xx_spi.c ****   *  
1177:../STM32F4xx_StdPeriph_Driver/src/stm32f4xx_spi.c ****   * @retval None
1178:../STM32F4xx_StdPeriph_Driver/src/stm32f4xx_spi.c ****   */
1179:../STM32F4xx_StdPeriph_Driver/src/stm32f4xx_spi.c **** void SPI_I2S_ClearFlag(SPI_TypeDef* SPIx, uint16_t SPI_I2S_FLAG)
1180:../STM32F4xx_StdPeriph_Driver/src/stm32f4xx_spi.c **** {
 1564              		.loc 1 1180 0
 1565              		.cfi_startproc
 1566              		@ args = 0, pretend = 0, frame = 8
 1567              		@ frame_needed = 1, uses_anonymous_args = 0
 1568              		@ link register save eliminated.
 1569 0824 80B4     		push	{r7}
 1570              	.LCFI66:
 1571              		.cfi_def_cfa_offset 4
 1572              		.cfi_offset 7, -4
 1573 0826 83B0     		sub	sp, sp, #12
 1574              	.LCFI67:
 1575              		.cfi_def_cfa_offset 16
 1576 0828 00AF     		add	r7, sp, #0
 1577              	.LCFI68:
 1578              		.cfi_def_cfa_register 7
 1579 082a 7860     		str	r0, [r7, #4]
 1580 082c 0B46     		mov	r3, r1
 1581 082e 7B80     		strh	r3, [r7, #2]	@ movhi
1181:../STM32F4xx_StdPeriph_Driver/src/stm32f4xx_spi.c ****   /* Check the parameters */
1182:../STM32F4xx_StdPeriph_Driver/src/stm32f4xx_spi.c ****   assert_param(IS_SPI_ALL_PERIPH_EXT(SPIx));
1183:../STM32F4xx_StdPeriph_Driver/src/stm32f4xx_spi.c ****   assert_param(IS_SPI_I2S_CLEAR_FLAG(SPI_I2S_FLAG));
1184:../STM32F4xx_StdPeriph_Driver/src/stm32f4xx_spi.c ****     
1185:../STM32F4xx_StdPeriph_Driver/src/stm32f4xx_spi.c ****   /* Clear the selected SPI CRC Error (CRCERR) flag */
1186:../STM32F4xx_StdPeriph_Driver/src/stm32f4xx_spi.c ****   SPIx->SR = (uint16_t)~SPI_I2S_FLAG;
 1582              		.loc 1 1186 0
 1583 0830 7B88     		ldrh	r3, [r7, #2]	@ movhi
 1584 0832 6FEA0303 		mvn	r3, r3
 1585 0836 9AB2     		uxth	r2, r3
 1586 0838 7B68     		ldr	r3, [r7, #4]
 1587 083a 1A81     		strh	r2, [r3, #8]	@ movhi
1187:../STM32F4xx_StdPeriph_Driver/src/stm32f4xx_spi.c **** }
 1588              		.loc 1 1187 0
 1589 083c 07F10C07 		add	r7, r7, #12
 1590 0840 BD46     		mov	sp, r7
 1591 0842 80BC     		pop	{r7}
 1592 0844 7047     		bx	lr
 1593              		.cfi_endproc
 1594              	.LFE132:
 1596 0846 00BF     		.align	2
 1597              		.global	SPI_I2S_GetITStatus
 1598              		.thumb
 1599              		.thumb_func
 1601              	SPI_I2S_GetITStatus:
 1602              	.LFB133:
1188:../STM32F4xx_StdPeriph_Driver/src/stm32f4xx_spi.c **** 
1189:../STM32F4xx_StdPeriph_Driver/src/stm32f4xx_spi.c **** /**
1190:../STM32F4xx_StdPeriph_Driver/src/stm32f4xx_spi.c ****   * @brief  Checks whether the specified SPIx/I2Sx interrupt has occurred or not.
1191:../STM32F4xx_StdPeriph_Driver/src/stm32f4xx_spi.c ****   * @param  SPIx: To select the SPIx/I2Sx peripheral, where x can be: 1, 2 or 3 
1192:../STM32F4xx_StdPeriph_Driver/src/stm32f4xx_spi.c ****   *         in SPI mode or 2 or 3 in I2S mode or I2Sxext for I2S full duplex mode.  
1193:../STM32F4xx_StdPeriph_Driver/src/stm32f4xx_spi.c ****   * @param  SPI_I2S_IT: specifies the SPI interrupt source to check. 
1194:../STM32F4xx_StdPeriph_Driver/src/stm32f4xx_spi.c ****   *          This parameter can be one of the following values:
1195:../STM32F4xx_StdPeriph_Driver/src/stm32f4xx_spi.c ****   *            @arg SPI_I2S_IT_TXE: Transmit buffer empty interrupt.
1196:../STM32F4xx_StdPeriph_Driver/src/stm32f4xx_spi.c ****   *            @arg SPI_I2S_IT_RXNE: Receive buffer not empty interrupt.
1197:../STM32F4xx_StdPeriph_Driver/src/stm32f4xx_spi.c ****   *            @arg SPI_I2S_IT_OVR: Overrun interrupt.
1198:../STM32F4xx_StdPeriph_Driver/src/stm32f4xx_spi.c ****   *            @arg SPI_IT_MODF: Mode Fault interrupt.
1199:../STM32F4xx_StdPeriph_Driver/src/stm32f4xx_spi.c ****   *            @arg SPI_IT_CRCERR: CRC Error interrupt.
1200:../STM32F4xx_StdPeriph_Driver/src/stm32f4xx_spi.c ****   *            @arg I2S_IT_UDR: Underrun interrupt.  
1201:../STM32F4xx_StdPeriph_Driver/src/stm32f4xx_spi.c ****   *            @arg SPI_I2S_IT_TIFRFE: Format Error interrupt.  
1202:../STM32F4xx_StdPeriph_Driver/src/stm32f4xx_spi.c ****   * @retval The new state of SPI_I2S_IT (SET or RESET).
1203:../STM32F4xx_StdPeriph_Driver/src/stm32f4xx_spi.c ****   */
1204:../STM32F4xx_StdPeriph_Driver/src/stm32f4xx_spi.c **** ITStatus SPI_I2S_GetITStatus(SPI_TypeDef* SPIx, uint8_t SPI_I2S_IT)
1205:../STM32F4xx_StdPeriph_Driver/src/stm32f4xx_spi.c **** {
 1603              		.loc 1 1205 0
 1604              		.cfi_startproc
 1605              		@ args = 0, pretend = 0, frame = 16
 1606              		@ frame_needed = 1, uses_anonymous_args = 0
 1607              		@ link register save eliminated.
 1608 0848 80B4     		push	{r7}
 1609              	.LCFI69:
 1610              		.cfi_def_cfa_offset 4
 1611              		.cfi_offset 7, -4
 1612 084a 85B0     		sub	sp, sp, #20
 1613              	.LCFI70:
 1614              		.cfi_def_cfa_offset 24
 1615 084c 00AF     		add	r7, sp, #0
 1616              	.LCFI71:
 1617              		.cfi_def_cfa_register 7
 1618 084e 7860     		str	r0, [r7, #4]
 1619 0850 0B46     		mov	r3, r1
 1620 0852 FB70     		strb	r3, [r7, #3]
1206:../STM32F4xx_StdPeriph_Driver/src/stm32f4xx_spi.c ****   ITStatus bitstatus = RESET;
 1621              		.loc 1 1206 0
 1622 0854 4FF00003 		mov	r3, #0
 1623 0858 FB73     		strb	r3, [r7, #15]
1207:../STM32F4xx_StdPeriph_Driver/src/stm32f4xx_spi.c ****   uint16_t itpos = 0, itmask = 0, enablestatus = 0;
 1624              		.loc 1 1207 0
 1625 085a 4FF00003 		mov	r3, #0
 1626 085e BB81     		strh	r3, [r7, #12]	@ movhi
 1627 0860 4FF00003 		mov	r3, #0
 1628 0864 7B81     		strh	r3, [r7, #10]	@ movhi
 1629 0866 4FF00003 		mov	r3, #0
 1630 086a 3B81     		strh	r3, [r7, #8]	@ movhi
1208:../STM32F4xx_StdPeriph_Driver/src/stm32f4xx_spi.c **** 
1209:../STM32F4xx_StdPeriph_Driver/src/stm32f4xx_spi.c ****   /* Check the parameters */
1210:../STM32F4xx_StdPeriph_Driver/src/stm32f4xx_spi.c ****   assert_param(IS_SPI_ALL_PERIPH_EXT(SPIx));
1211:../STM32F4xx_StdPeriph_Driver/src/stm32f4xx_spi.c ****   assert_param(IS_SPI_I2S_GET_IT(SPI_I2S_IT));
1212:../STM32F4xx_StdPeriph_Driver/src/stm32f4xx_spi.c **** 
1213:../STM32F4xx_StdPeriph_Driver/src/stm32f4xx_spi.c ****   /* Get the SPI_I2S_IT index */
1214:../STM32F4xx_StdPeriph_Driver/src/stm32f4xx_spi.c ****   itpos = 0x01 << (SPI_I2S_IT & 0x0F);
 1631              		.loc 1 1214 0
 1632 086c FB78     		ldrb	r3, [r7, #3]	@ zero_extendqisi2
 1633 086e 03F00F03 		and	r3, r3, #15
 1634 0872 4FF00102 		mov	r2, #1
 1635 0876 02FA03F3 		lsl	r3, r2, r3
 1636 087a BB81     		strh	r3, [r7, #12]	@ movhi
1215:../STM32F4xx_StdPeriph_Driver/src/stm32f4xx_spi.c **** 
1216:../STM32F4xx_StdPeriph_Driver/src/stm32f4xx_spi.c ****   /* Get the SPI_I2S_IT IT mask */
1217:../STM32F4xx_StdPeriph_Driver/src/stm32f4xx_spi.c ****   itmask = SPI_I2S_IT >> 4;
 1637              		.loc 1 1217 0
 1638 087c FB78     		ldrb	r3, [r7, #3]	@ zero_extendqisi2
 1639 087e 4FEA1313 		lsr	r3, r3, #4
 1640 0882 DBB2     		uxtb	r3, r3
 1641 0884 7B81     		strh	r3, [r7, #10]	@ movhi
1218:../STM32F4xx_StdPeriph_Driver/src/stm32f4xx_spi.c **** 
1219:../STM32F4xx_StdPeriph_Driver/src/stm32f4xx_spi.c ****   /* Set the IT mask */
1220:../STM32F4xx_StdPeriph_Driver/src/stm32f4xx_spi.c ****   itmask = 0x01 << itmask;
 1642              		.loc 1 1220 0
 1643 0886 7B89     		ldrh	r3, [r7, #10]
 1644 0888 4FF00102 		mov	r2, #1
 1645 088c 02FA03F3 		lsl	r3, r2, r3
 1646 0890 7B81     		strh	r3, [r7, #10]	@ movhi
1221:../STM32F4xx_StdPeriph_Driver/src/stm32f4xx_spi.c **** 
1222:../STM32F4xx_StdPeriph_Driver/src/stm32f4xx_spi.c ****   /* Get the SPI_I2S_IT enable bit status */
1223:../STM32F4xx_StdPeriph_Driver/src/stm32f4xx_spi.c ****   enablestatus = (SPIx->CR2 & itmask) ;
 1647              		.loc 1 1223 0
 1648 0892 7B68     		ldr	r3, [r7, #4]
 1649 0894 9B88     		ldrh	r3, [r3, #4]	@ movhi
 1650 0896 9AB2     		uxth	r2, r3
 1651 0898 7B89     		ldrh	r3, [r7, #10]	@ movhi
 1652 089a 1340     		ands	r3, r3, r2
 1653 089c 3B81     		strh	r3, [r7, #8]	@ movhi
1224:../STM32F4xx_StdPeriph_Driver/src/stm32f4xx_spi.c **** 
1225:../STM32F4xx_StdPeriph_Driver/src/stm32f4xx_spi.c ****   /* Check the status of the specified SPI interrupt */
1226:../STM32F4xx_StdPeriph_Driver/src/stm32f4xx_spi.c ****   if (((SPIx->SR & itpos) != (uint16_t)RESET) && enablestatus)
 1654              		.loc 1 1226 0
 1655 089e 7B68     		ldr	r3, [r7, #4]
 1656 08a0 1B89     		ldrh	r3, [r3, #8]	@ movhi
 1657 08a2 9AB2     		uxth	r2, r3
 1658 08a4 BB89     		ldrh	r3, [r7, #12]	@ movhi
 1659 08a6 1340     		ands	r3, r3, r2
 1660 08a8 9BB2     		uxth	r3, r3
 1661 08aa 002B     		cmp	r3, #0
 1662 08ac 06D0     		beq	.L64
 1663              		.loc 1 1226 0 is_stmt 0 discriminator 1
 1664 08ae 3B89     		ldrh	r3, [r7, #8]
 1665 08b0 002B     		cmp	r3, #0
 1666 08b2 03D0     		beq	.L64
1227:../STM32F4xx_StdPeriph_Driver/src/stm32f4xx_spi.c ****   {
1228:../STM32F4xx_StdPeriph_Driver/src/stm32f4xx_spi.c ****     /* SPI_I2S_IT is set */
1229:../STM32F4xx_StdPeriph_Driver/src/stm32f4xx_spi.c ****     bitstatus = SET;
 1667              		.loc 1 1229 0 is_stmt 1
 1668 08b4 4FF00103 		mov	r3, #1
 1669 08b8 FB73     		strb	r3, [r7, #15]
 1670 08ba 02E0     		b	.L65
 1671              	.L64:
1230:../STM32F4xx_StdPeriph_Driver/src/stm32f4xx_spi.c ****   }
1231:../STM32F4xx_StdPeriph_Driver/src/stm32f4xx_spi.c ****   else
1232:../STM32F4xx_StdPeriph_Driver/src/stm32f4xx_spi.c ****   {
1233:../STM32F4xx_StdPeriph_Driver/src/stm32f4xx_spi.c ****     /* SPI_I2S_IT is reset */
1234:../STM32F4xx_StdPeriph_Driver/src/stm32f4xx_spi.c ****     bitstatus = RESET;
 1672              		.loc 1 1234 0
 1673 08bc 4FF00003 		mov	r3, #0
 1674 08c0 FB73     		strb	r3, [r7, #15]
 1675              	.L65:
1235:../STM32F4xx_StdPeriph_Driver/src/stm32f4xx_spi.c ****   }
1236:../STM32F4xx_StdPeriph_Driver/src/stm32f4xx_spi.c ****   /* Return the SPI_I2S_IT status */
1237:../STM32F4xx_StdPeriph_Driver/src/stm32f4xx_spi.c ****   return bitstatus;
 1676              		.loc 1 1237 0
 1677 08c2 FB7B     		ldrb	r3, [r7, #15]	@ zero_extendqisi2
1238:../STM32F4xx_StdPeriph_Driver/src/stm32f4xx_spi.c **** }
 1678              		.loc 1 1238 0
 1679 08c4 1846     		mov	r0, r3
 1680 08c6 07F11407 		add	r7, r7, #20
 1681 08ca BD46     		mov	sp, r7
 1682 08cc 80BC     		pop	{r7}
 1683 08ce 7047     		bx	lr
 1684              		.cfi_endproc
 1685              	.LFE133:
 1687              		.align	2
 1688              		.global	SPI_I2S_ClearITPendingBit
 1689              		.thumb
 1690              		.thumb_func
 1692              	SPI_I2S_ClearITPendingBit:
 1693              	.LFB134:
1239:../STM32F4xx_StdPeriph_Driver/src/stm32f4xx_spi.c **** 
1240:../STM32F4xx_StdPeriph_Driver/src/stm32f4xx_spi.c **** /**
1241:../STM32F4xx_StdPeriph_Driver/src/stm32f4xx_spi.c ****   * @brief  Clears the SPIx CRC Error (CRCERR) interrupt pending bit.
1242:../STM32F4xx_StdPeriph_Driver/src/stm32f4xx_spi.c ****   * @param  SPIx: To select the SPIx/I2Sx peripheral, where x can be: 1, 2 or 3 
1243:../STM32F4xx_StdPeriph_Driver/src/stm32f4xx_spi.c ****   *         in SPI mode or 2 or 3 in I2S mode or I2Sxext for I2S full duplex mode.  
1244:../STM32F4xx_StdPeriph_Driver/src/stm32f4xx_spi.c ****   * @param  SPI_I2S_IT: specifies the SPI interrupt pending bit to clear.
1245:../STM32F4xx_StdPeriph_Driver/src/stm32f4xx_spi.c ****   *         This function clears only CRCERR interrupt pending bit.   
1246:../STM32F4xx_StdPeriph_Driver/src/stm32f4xx_spi.c ****   *            @arg SPI_IT_CRCERR: CRC Error interrupt.
1247:../STM32F4xx_StdPeriph_Driver/src/stm32f4xx_spi.c ****   *   
1248:../STM32F4xx_StdPeriph_Driver/src/stm32f4xx_spi.c ****   * @note   OVR (OverRun Error) interrupt pending bit is cleared by software 
1249:../STM32F4xx_StdPeriph_Driver/src/stm32f4xx_spi.c ****   *          sequence: a read operation to SPI_DR register (SPI_I2S_ReceiveData()) 
1250:../STM32F4xx_StdPeriph_Driver/src/stm32f4xx_spi.c ****   *          followed by a read operation to SPI_SR register (SPI_I2S_GetITStatus()).
1251:../STM32F4xx_StdPeriph_Driver/src/stm32f4xx_spi.c ****   * @note   UDR (UnderRun Error) interrupt pending bit is cleared by a read 
1252:../STM32F4xx_StdPeriph_Driver/src/stm32f4xx_spi.c ****   *          operation to SPI_SR register (SPI_I2S_GetITStatus()).   
1253:../STM32F4xx_StdPeriph_Driver/src/stm32f4xx_spi.c ****   * @note   MODF (Mode Fault) interrupt pending bit is cleared by software sequence:
1254:../STM32F4xx_StdPeriph_Driver/src/stm32f4xx_spi.c ****   *          a read/write operation to SPI_SR register (SPI_I2S_GetITStatus()) 
1255:../STM32F4xx_StdPeriph_Driver/src/stm32f4xx_spi.c ****   *          followed by a write operation to SPI_CR1 register (SPI_Cmd() to enable 
1256:../STM32F4xx_StdPeriph_Driver/src/stm32f4xx_spi.c ****   *          the SPI).
1257:../STM32F4xx_StdPeriph_Driver/src/stm32f4xx_spi.c ****   * @retval None
1258:../STM32F4xx_StdPeriph_Driver/src/stm32f4xx_spi.c ****   */
1259:../STM32F4xx_StdPeriph_Driver/src/stm32f4xx_spi.c **** void SPI_I2S_ClearITPendingBit(SPI_TypeDef* SPIx, uint8_t SPI_I2S_IT)
1260:../STM32F4xx_StdPeriph_Driver/src/stm32f4xx_spi.c **** {
 1694              		.loc 1 1260 0
 1695              		.cfi_startproc
 1696              		@ args = 0, pretend = 0, frame = 16
 1697              		@ frame_needed = 1, uses_anonymous_args = 0
 1698              		@ link register save eliminated.
 1699 08d0 80B4     		push	{r7}
 1700              	.LCFI72:
 1701              		.cfi_def_cfa_offset 4
 1702              		.cfi_offset 7, -4
 1703 08d2 85B0     		sub	sp, sp, #20
 1704              	.LCFI73:
 1705              		.cfi_def_cfa_offset 24
 1706 08d4 00AF     		add	r7, sp, #0
 1707              	.LCFI74:
 1708              		.cfi_def_cfa_register 7
 1709 08d6 7860     		str	r0, [r7, #4]
 1710 08d8 0B46     		mov	r3, r1
 1711 08da FB70     		strb	r3, [r7, #3]
1261:../STM32F4xx_StdPeriph_Driver/src/stm32f4xx_spi.c ****   uint16_t itpos = 0;
 1712              		.loc 1 1261 0
 1713 08dc 4FF00003 		mov	r3, #0
 1714 08e0 FB81     		strh	r3, [r7, #14]	@ movhi
1262:../STM32F4xx_StdPeriph_Driver/src/stm32f4xx_spi.c ****   /* Check the parameters */
1263:../STM32F4xx_StdPeriph_Driver/src/stm32f4xx_spi.c ****   assert_param(IS_SPI_ALL_PERIPH_EXT(SPIx));
1264:../STM32F4xx_StdPeriph_Driver/src/stm32f4xx_spi.c ****   assert_param(IS_SPI_I2S_CLEAR_IT(SPI_I2S_IT));
1265:../STM32F4xx_StdPeriph_Driver/src/stm32f4xx_spi.c **** 
1266:../STM32F4xx_StdPeriph_Driver/src/stm32f4xx_spi.c ****   /* Get the SPI_I2S IT index */
1267:../STM32F4xx_StdPeriph_Driver/src/stm32f4xx_spi.c ****   itpos = 0x01 << (SPI_I2S_IT & 0x0F);
 1715              		.loc 1 1267 0
 1716 08e2 FB78     		ldrb	r3, [r7, #3]	@ zero_extendqisi2
 1717 08e4 03F00F03 		and	r3, r3, #15
 1718 08e8 4FF00102 		mov	r2, #1
 1719 08ec 02FA03F3 		lsl	r3, r2, r3
 1720 08f0 FB81     		strh	r3, [r7, #14]	@ movhi
1268:../STM32F4xx_StdPeriph_Driver/src/stm32f4xx_spi.c **** 
1269:../STM32F4xx_StdPeriph_Driver/src/stm32f4xx_spi.c ****   /* Clear the selected SPI CRC Error (CRCERR) interrupt pending bit */
1270:../STM32F4xx_StdPeriph_Driver/src/stm32f4xx_spi.c ****   SPIx->SR = (uint16_t)~itpos;
 1721              		.loc 1 1270 0
 1722 08f2 FB89     		ldrh	r3, [r7, #14]	@ movhi
 1723 08f4 6FEA0303 		mvn	r3, r3
 1724 08f8 9AB2     		uxth	r2, r3
 1725 08fa 7B68     		ldr	r3, [r7, #4]
 1726 08fc 1A81     		strh	r2, [r3, #8]	@ movhi
1271:../STM32F4xx_StdPeriph_Driver/src/stm32f4xx_spi.c **** }
 1727              		.loc 1 1271 0
 1728 08fe 07F11407 		add	r7, r7, #20
 1729 0902 BD46     		mov	sp, r7
 1730 0904 80BC     		pop	{r7}
 1731 0906 7047     		bx	lr
 1732              		.cfi_endproc
 1733              	.LFE134:
 1735              	.Letext0:
 1736              		.file 2 "d:/elektronik/ides/eclipse/yagarto/lib/gcc/../../arm-none-eabi/sys-include/stdint.h"
 1737              		.file 3 "C:\\Dokumente und Einstellungen\\brand\\Desktop\\thundercyer-the-alarm-clock\\CMSIS\\Devi
 1738              		.file 4 "C:\\Dokumente und Einstellungen\\brand\\Desktop\\thundercyer-the-alarm-clock\\STM32F4xx_S
 1739              		.file 5 "C:\\Dokumente und Einstellungen\\brand\\Desktop\\thundercyer-the-alarm-clock\\CMSIS\\Incl