   1              		.syntax unified
   2              		.cpu cortex-m4
   3              		.eabi_attribute 27, 3
   4              		.fpu fpv4-sp-d16
   5              		.eabi_attribute 20, 1
   6              		.eabi_attribute 21, 1
   7              		.eabi_attribute 23, 3
   8              		.eabi_attribute 24, 1
   9              		.eabi_attribute 25, 1
  10              		.eabi_attribute 26, 1
  11              		.eabi_attribute 30, 6
  12              		.eabi_attribute 18, 4
  13              		.thumb
  14              		.file	"stm32f4_discovery_audio_codec.c"
  15              		.text
  16              	.Ltext0:
  17              		.cfi_sections	.debug_frame
  18              		.comm	DMA_InitStructure,60,4
  19              		.comm	AUDIO_MAL_DMA_InitStructure,60,4
  20              		.global	AudioTotalSize
  21              		.data
  22              		.align	2
  25              	AudioTotalSize:
  26 0000 FFFF0000 		.word	65535
  27              		.global	AudioRemSize
  28              		.align	2
  31              	AudioRemSize:
  32 0004 FFFF0000 		.word	65535
  33              		.comm	CurrentPos,4,4
  34              		.global	CODECTimeout
  35              		.align	2
  38              	CODECTimeout:
  39 0008 00C01200 		.word	1228800
  40              		.global	OutputDev
  41              		.bss
  44              	OutputDev:
  45 0000 00       		.space	1
  46              		.global	CurrAudioInterface
  47              		.data
  48              		.align	2
  51              	CurrAudioInterface:
  52 000c 01000000 		.word	1
  53              		.global	AUDIO_MAL_DMA_CLOCK
  54              		.align	2
  57              	AUDIO_MAL_DMA_CLOCK:
  58 0010 00002000 		.word	2097152
  59              		.global	AUDIO_MAL_DMA_STREAM
  60              		.align	2
  63              	AUDIO_MAL_DMA_STREAM:
  64 0014 B8600240 		.word	1073897656
  65              		.global	AUDIO_MAL_DMA_DREG
  66              		.align	2
  69              	AUDIO_MAL_DMA_DREG:
  70 0018 0C3C0040 		.word	1073757196
  71              		.global	AUDIO_MAL_DMA_CHANNEL
  72              		.bss
  73 0001 000000   		.align	2
  76              	AUDIO_MAL_DMA_CHANNEL:
  77 0004 00000000 		.space	4
  78              		.global	AUDIO_MAL_DMA_IRQ
  79              		.data
  80              		.align	2
  83              	AUDIO_MAL_DMA_IRQ:
  84 001c 2F000000 		.word	47
  85              		.global	AUDIO_MAL_DMA_FLAG_TC
  86              		.align	2
  89              	AUDIO_MAL_DMA_FLAG_TC:
  90 0020 00000028 		.word	671088640
  91              		.global	AUDIO_MAL_DMA_FLAG_HT
  92              		.align	2
  95              	AUDIO_MAL_DMA_FLAG_HT:
  96 0024 00000024 		.word	603979776
  97              		.global	AUDIO_MAL_DMA_FLAG_FE
  98              		.align	2
 101              	AUDIO_MAL_DMA_FLAG_FE:
 102 0028 00004020 		.word	541065216
 103              		.global	AUDIO_MAL_DMA_FLAG_TE
 104              		.align	2
 107              	AUDIO_MAL_DMA_FLAG_TE:
 108 002c 00000022 		.word	570425344
 109              		.global	AUDIO_MAL_DMA_FLAG_DME
 110              		.align	2
 113              	AUDIO_MAL_DMA_FLAG_DME:
 114 0030 00000021 		.word	553648128
 115              		.text
 116              		.align	2
 117              		.global	EVAL_AUDIO_SetAudioInterface
 118              		.thumb
 119              		.thumb_func
 121              	EVAL_AUDIO_SetAudioInterface:
 122              	.LFB110:
 123              		.file 1 "../STM32F4-Discovery/stm32f4_discovery_audio_codec.c"
   1:../STM32F4-Discovery/stm32f4_discovery_audio_codec.c **** /**
   2:../STM32F4-Discovery/stm32f4_discovery_audio_codec.c ****   ******************************************************************************
   3:../STM32F4-Discovery/stm32f4_discovery_audio_codec.c ****   * @file    stm32f4_discovery_audio_codec.c
   4:../STM32F4-Discovery/stm32f4_discovery_audio_codec.c ****   * @author  MCD Application Team
   5:../STM32F4-Discovery/stm32f4_discovery_audio_codec.c ****   * @version V1.1.0
   6:../STM32F4-Discovery/stm32f4_discovery_audio_codec.c ****   * @date    28-October-2011
   7:../STM32F4-Discovery/stm32f4_discovery_audio_codec.c ****   * @brief   This file includes the low layer driver for CS43L22 Audio Codec
   8:../STM32F4-Discovery/stm32f4_discovery_audio_codec.c ****   *          available on STM32F4-Discovery Kit.  
   9:../STM32F4-Discovery/stm32f4_discovery_audio_codec.c ****   ******************************************************************************
  10:../STM32F4-Discovery/stm32f4_discovery_audio_codec.c ****   * @attention
  11:../STM32F4-Discovery/stm32f4_discovery_audio_codec.c ****   *
  12:../STM32F4-Discovery/stm32f4_discovery_audio_codec.c ****   * THE PRESENT FIRMWARE WHICH IS FOR GUIDANCE ONLY AIMS AT PROVIDING CUSTOMERS
  13:../STM32F4-Discovery/stm32f4_discovery_audio_codec.c ****   * WITH CODING INFORMATION REGARDING THEIR PRODUCTS IN ORDER FOR THEM TO SAVE
  14:../STM32F4-Discovery/stm32f4_discovery_audio_codec.c ****   * TIME. AS A RESULT, STMICROELECTRONICS SHALL NOT BE HELD LIABLE FOR ANY
  15:../STM32F4-Discovery/stm32f4_discovery_audio_codec.c ****   * DIRECT, INDIRECT OR CONSEQUENTIAL DAMAGES WITH RESPECT TO ANY CLAIMS ARISING
  16:../STM32F4-Discovery/stm32f4_discovery_audio_codec.c ****   * FROM THE CONTENT OF SUCH FIRMWARE AND/OR THE USE MADE BY CUSTOMERS OF THE
  17:../STM32F4-Discovery/stm32f4_discovery_audio_codec.c ****   * CODING INFORMATION CONTAINED HEREIN IN CONNECTION WITH THEIR PRODUCTS.
  18:../STM32F4-Discovery/stm32f4_discovery_audio_codec.c ****   *
  19:../STM32F4-Discovery/stm32f4_discovery_audio_codec.c ****   * <h2><center>&copy; COPYRIGHT 2011 STMicroelectronics</center></h2>
  20:../STM32F4-Discovery/stm32f4_discovery_audio_codec.c ****   ******************************************************************************  
  21:../STM32F4-Discovery/stm32f4_discovery_audio_codec.c ****   */
  22:../STM32F4-Discovery/stm32f4_discovery_audio_codec.c **** 
  23:../STM32F4-Discovery/stm32f4_discovery_audio_codec.c **** /*=================================================================================================
  24:../STM32F4-Discovery/stm32f4_discovery_audio_codec.c ****                                              User NOTES
  25:../STM32F4-Discovery/stm32f4_discovery_audio_codec.c **** 1. How To use this driver:
  26:../STM32F4-Discovery/stm32f4_discovery_audio_codec.c **** --------------------------
  27:../STM32F4-Discovery/stm32f4_discovery_audio_codec.c ****    - This driver supports STM32F4xx devices on STM32F4-Discovery Kit.
  28:../STM32F4-Discovery/stm32f4_discovery_audio_codec.c **** 
  29:../STM32F4-Discovery/stm32f4_discovery_audio_codec.c ****    - Configure the options in file stm32f4_discovery_audio_codec.h in the section CONFIGURATION.
  30:../STM32F4-Discovery/stm32f4_discovery_audio_codec.c ****       Refer to the sections 2 and 3 to have more details on the possible configurations.
  31:../STM32F4-Discovery/stm32f4_discovery_audio_codec.c **** 
  32:../STM32F4-Discovery/stm32f4_discovery_audio_codec.c ****    - Call the function EVAL_AUDIO_Init(
  33:../STM32F4-Discovery/stm32f4_discovery_audio_codec.c ****                                     OutputDevice: physical output mode (OUTPUT_DEVICE_SPEAKER, 
  34:../STM32F4-Discovery/stm32f4_discovery_audio_codec.c ****                                                  OUTPUT_DEVICE_HEADPHONE, OUTPUT_DEVICE_AUTO or 
  35:../STM32F4-Discovery/stm32f4_discovery_audio_codec.c ****                                                  OUTPUT_DEVICE_BOTH)
  36:../STM32F4-Discovery/stm32f4_discovery_audio_codec.c ****                                     Volume: initial volume to be set (0 is min (mute), 100 is max (
  37:../STM32F4-Discovery/stm32f4_discovery_audio_codec.c ****                                     AudioFreq: Audio frequency in Hz (8000, 16000, 22500, 32000 ...
  38:../STM32F4-Discovery/stm32f4_discovery_audio_codec.c ****                                     this parameter is relative to the audio file/stream type.
  39:../STM32F4-Discovery/stm32f4_discovery_audio_codec.c ****                                    )
  40:../STM32F4-Discovery/stm32f4_discovery_audio_codec.c ****       This function configures all the hardware required for the audio application (codec, I2C, I2S
  41:../STM32F4-Discovery/stm32f4_discovery_audio_codec.c ****       GPIOs, DMA and interrupt if needed). This function returns 0 if configuration is OK.
  42:../STM32F4-Discovery/stm32f4_discovery_audio_codec.c ****       if the returned value is different from 0 or the function is stuck then the communication wit
  43:../STM32F4-Discovery/stm32f4_discovery_audio_codec.c ****       the codec (try to un-plug the power or reset device in this case).
  44:../STM32F4-Discovery/stm32f4_discovery_audio_codec.c ****       + OUTPUT_DEVICE_SPEAKER: only speaker will be set as output for the audio stream.
  45:../STM32F4-Discovery/stm32f4_discovery_audio_codec.c ****       + OUTPUT_DEVICE_HEADPHONE: only headphones will be set as output for the audio stream.
  46:../STM32F4-Discovery/stm32f4_discovery_audio_codec.c ****       + OUTPUT_DEVICE_AUTO: Selection of output device is made through external switch (implemented
  47:../STM32F4-Discovery/stm32f4_discovery_audio_codec.c ****          into the audio jack on the evaluation board). When the Headphone is connected it is used
  48:../STM32F4-Discovery/stm32f4_discovery_audio_codec.c ****          as output. When the headphone is disconnected from the audio jack, the output is
  49:../STM32F4-Discovery/stm32f4_discovery_audio_codec.c ****          automatically switched to Speaker.
  50:../STM32F4-Discovery/stm32f4_discovery_audio_codec.c ****       + OUTPUT_DEVICE_BOTH: both Speaker and Headphone are used as outputs for the audio stream
  51:../STM32F4-Discovery/stm32f4_discovery_audio_codec.c ****          at the same time.
  52:../STM32F4-Discovery/stm32f4_discovery_audio_codec.c **** 
  53:../STM32F4-Discovery/stm32f4_discovery_audio_codec.c ****    - Call the function EVAL_AUDIO_Play(
  54:../STM32F4-Discovery/stm32f4_discovery_audio_codec.c ****                                   pBuffer: pointer to the audio data file address
  55:../STM32F4-Discovery/stm32f4_discovery_audio_codec.c ****                                   Size: size of the buffer to be sent in Bytes
  56:../STM32F4-Discovery/stm32f4_discovery_audio_codec.c ****                                  )
  57:../STM32F4-Discovery/stm32f4_discovery_audio_codec.c ****       to start playing (for the first time) from the audio file/stream.
  58:../STM32F4-Discovery/stm32f4_discovery_audio_codec.c **** 
  59:../STM32F4-Discovery/stm32f4_discovery_audio_codec.c ****    - Call the function EVAL_AUDIO_PauseResume(
  60:../STM32F4-Discovery/stm32f4_discovery_audio_codec.c ****                                          Cmd: AUDIO_PAUSE (or 0) to pause playing or AUDIO_RESUME (
  61:../STM32F4-Discovery/stm32f4_discovery_audio_codec.c ****                                                any value different from 0) to resume playing.
  62:../STM32F4-Discovery/stm32f4_discovery_audio_codec.c ****                                          )
  63:../STM32F4-Discovery/stm32f4_discovery_audio_codec.c ****        Note. After calling EVAL_AUDIO_PauseResume() function for pause, only EVAL_AUDIO_PauseResume
  64:../STM32F4-Discovery/stm32f4_discovery_audio_codec.c ****           for resume (it is not allowed to call EVAL_AUDIO_Play() in this case).
  65:../STM32F4-Discovery/stm32f4_discovery_audio_codec.c ****        Note. This function should be called only when the audio file is played or paused (not stopp
  66:../STM32F4-Discovery/stm32f4_discovery_audio_codec.c **** 
  67:../STM32F4-Discovery/stm32f4_discovery_audio_codec.c ****    - For each mode, you may need to implement the relative callback functions into your code.
  68:../STM32F4-Discovery/stm32f4_discovery_audio_codec.c ****       The Callback functions are named EVAL_AUDIO_XXX_CallBack() and only their prototypes are decl
  69:../STM32F4-Discovery/stm32f4_discovery_audio_codec.c ****       the stm32f4_discovery_audio_codec.h file. (refer to the example for more details on the callb
  70:../STM32F4-Discovery/stm32f4_discovery_audio_codec.c **** 
  71:../STM32F4-Discovery/stm32f4_discovery_audio_codec.c ****    - To Stop playing, to modify the volume level or to mute, use the functions
  72:../STM32F4-Discovery/stm32f4_discovery_audio_codec.c ****        EVAL_AUDIO_Stop(), EVAL_AUDIO_VolumeCtl() and EVAL_AUDIO_Mute().
  73:../STM32F4-Discovery/stm32f4_discovery_audio_codec.c **** 
  74:../STM32F4-Discovery/stm32f4_discovery_audio_codec.c ****    - The driver API and the callback functions are at the end of the stm32f4_discovery_audio_codec.
  75:../STM32F4-Discovery/stm32f4_discovery_audio_codec.c ****  
  76:../STM32F4-Discovery/stm32f4_discovery_audio_codec.c **** 
  77:../STM32F4-Discovery/stm32f4_discovery_audio_codec.c ****  Driver architecture:
  78:../STM32F4-Discovery/stm32f4_discovery_audio_codec.c ****  --------------------
  79:../STM32F4-Discovery/stm32f4_discovery_audio_codec.c ****  This driver is composed of three main layers:
  80:../STM32F4-Discovery/stm32f4_discovery_audio_codec.c ****    o High Audio Layer: consists of the function API exported in the stm32f4_discovery_audio_codec.h
  81:../STM32F4-Discovery/stm32f4_discovery_audio_codec.c ****      (EVAL_AUDIO_Init(), EVAL_AUDIO_Play() ...)
  82:../STM32F4-Discovery/stm32f4_discovery_audio_codec.c ****    o Codec Control layer: consists of the functions API controlling the audio codec (CS43L22) and 
  83:../STM32F4-Discovery/stm32f4_discovery_audio_codec.c ****      included as local functions in file stm32f4_discovery_audio_codec.c (Codec_Init(), Codec_Play(
  84:../STM32F4-Discovery/stm32f4_discovery_audio_codec.c ****    o Media Access Layer (MAL): which consists of functions allowing to access the media containing/
  85:../STM32F4-Discovery/stm32f4_discovery_audio_codec.c ****      providing the audio file/stream. These functions are also included as local functions into
  86:../STM32F4-Discovery/stm32f4_discovery_audio_codec.c ****      the stm32f4_discovery_audio_codec.c file (Audio_MAL_Init(), Audio_MAL_Play() ...)
  87:../STM32F4-Discovery/stm32f4_discovery_audio_codec.c ****   Each set of functions (layer) may be implemented independently of the others and customized when 
  88:../STM32F4-Discovery/stm32f4_discovery_audio_codec.c ****   needed.    
  89:../STM32F4-Discovery/stm32f4_discovery_audio_codec.c **** 
  90:../STM32F4-Discovery/stm32f4_discovery_audio_codec.c **** 2. Modes description:
  91:../STM32F4-Discovery/stm32f4_discovery_audio_codec.c **** ---------------------
  92:../STM32F4-Discovery/stm32f4_discovery_audio_codec.c ****      + AUDIO_MAL_MODE_NORMAL : is suitable when the audio file is in a memory location.
  93:../STM32F4-Discovery/stm32f4_discovery_audio_codec.c ****      + AUDIO_MAL_MODE_CIRCULAR: is suitable when the audio data are read either from a 
  94:../STM32F4-Discovery/stm32f4_discovery_audio_codec.c ****         memory location or from a device at real time (double buffer could be used).
  95:../STM32F4-Discovery/stm32f4_discovery_audio_codec.c **** 
  96:../STM32F4-Discovery/stm32f4_discovery_audio_codec.c **** 3. DMA interrupts description:
  97:../STM32F4-Discovery/stm32f4_discovery_audio_codec.c **** ------------------------------
  98:../STM32F4-Discovery/stm32f4_discovery_audio_codec.c ****      + EVAL_AUDIO_IT_TC_ENABLE: Enable this define to use the DMA end of transfer interrupt.
  99:../STM32F4-Discovery/stm32f4_discovery_audio_codec.c ****         then, a callback should be implemented by user to perform specific actions
 100:../STM32F4-Discovery/stm32f4_discovery_audio_codec.c ****         when the DMA has finished the transfer.
 101:../STM32F4-Discovery/stm32f4_discovery_audio_codec.c ****      + EVAL_AUDIO_IT_HT_ENABLE: Enable this define to use the DMA end of half transfer interrupt.
 102:../STM32F4-Discovery/stm32f4_discovery_audio_codec.c ****         then, a callback should be implemented by user to perform specific actions
 103:../STM32F4-Discovery/stm32f4_discovery_audio_codec.c ****         when the DMA has reached the half of the buffer transfer (generally, it is useful 
 104:../STM32F4-Discovery/stm32f4_discovery_audio_codec.c ****         to load the first half of buffer while DMA is loading from the second half).
 105:../STM32F4-Discovery/stm32f4_discovery_audio_codec.c ****      + EVAL_AUDIO_IT_ER_ENABLE: Enable this define to manage the cases of error on DMA transfer.
 106:../STM32F4-Discovery/stm32f4_discovery_audio_codec.c **** 
 107:../STM32F4-Discovery/stm32f4_discovery_audio_codec.c **** 4. Known Limitations:
 108:../STM32F4-Discovery/stm32f4_discovery_audio_codec.c **** ---------------------
 109:../STM32F4-Discovery/stm32f4_discovery_audio_codec.c ****    1- When using the Speaker, if the audio file quality is not high enough, the speaker output
 110:../STM32F4-Discovery/stm32f4_discovery_audio_codec.c ****       may produce high and uncomfortable noise level. To avoid this issue, to use speaker
 111:../STM32F4-Discovery/stm32f4_discovery_audio_codec.c ****       output properly, try to increase audio file sampling rate (typically higher than 48KHz).
 112:../STM32F4-Discovery/stm32f4_discovery_audio_codec.c ****       This operation will lead to larger file size.
 113:../STM32F4-Discovery/stm32f4_discovery_audio_codec.c ****    2- Communication with the audio codec (through I2C) may be corrupted if it is interrupted by som
 114:../STM32F4-Discovery/stm32f4_discovery_audio_codec.c ****       user interrupt routines (in this case, interrupts could be disabled just before the start of 
 115:../STM32F4-Discovery/stm32f4_discovery_audio_codec.c ****       communication then re-enabled when it is over). Note that this communication is only done at
 116:../STM32F4-Discovery/stm32f4_discovery_audio_codec.c ****       the configuration phase (EVAL_AUDIO_Init() or EVAL_AUDIO_Stop()) and when Volume control modi
 117:../STM32F4-Discovery/stm32f4_discovery_audio_codec.c ****       performed (EVAL_AUDIO_VolumeCtl() or EVAL_AUDIO_Mute()). When the audio data is played, no co
 118:../STM32F4-Discovery/stm32f4_discovery_audio_codec.c ****       required with the audio codec.
 119:../STM32F4-Discovery/stm32f4_discovery_audio_codec.c ****   3- Parsing of audio file is not implemented (in order to determine audio file properties: Mono/St
 120:../STM32F4-Discovery/stm32f4_discovery_audio_codec.c ****      File size, Audio Frequency, Audio Data header size ...). The configuration is fixed for the gi
 121:../STM32F4-Discovery/stm32f4_discovery_audio_codec.c ****   4- Mono audio streaming is not supported (in order to play mono audio streams, each data should b
 122:../STM32F4-Discovery/stm32f4_discovery_audio_codec.c ****      on the I2S or should be duplicated on the source buffer. Or convert the stream in stereo befor
 123:../STM32F4-Discovery/stm32f4_discovery_audio_codec.c ****   5- Supports only 16-bit audio data size.
 124:../STM32F4-Discovery/stm32f4_discovery_audio_codec.c **** ===================================================================================================
 125:../STM32F4-Discovery/stm32f4_discovery_audio_codec.c **** 
 126:../STM32F4-Discovery/stm32f4_discovery_audio_codec.c **** 
 127:../STM32F4-Discovery/stm32f4_discovery_audio_codec.c **** /* Includes ------------------------------------------------------------------*/
 128:../STM32F4-Discovery/stm32f4_discovery_audio_codec.c **** #include "stm32f4_discovery_audio_codec.h"
 129:../STM32F4-Discovery/stm32f4_discovery_audio_codec.c **** 
 130:../STM32F4-Discovery/stm32f4_discovery_audio_codec.c **** /** @addtogroup Utilities
 131:../STM32F4-Discovery/stm32f4_discovery_audio_codec.c ****   * @{
 132:../STM32F4-Discovery/stm32f4_discovery_audio_codec.c ****   */
 133:../STM32F4-Discovery/stm32f4_discovery_audio_codec.c ****   
 134:../STM32F4-Discovery/stm32f4_discovery_audio_codec.c **** /** @addtogroup STM32F4_DISCOVERY
 135:../STM32F4-Discovery/stm32f4_discovery_audio_codec.c ****   * @{
 136:../STM32F4-Discovery/stm32f4_discovery_audio_codec.c ****   */
 137:../STM32F4-Discovery/stm32f4_discovery_audio_codec.c **** 
 138:../STM32F4-Discovery/stm32f4_discovery_audio_codec.c **** /** @addtogroup STM32F4_DISCOVERY_AUDIO_CODEC
 139:../STM32F4-Discovery/stm32f4_discovery_audio_codec.c ****   * @brief       This file includes the low layer driver for CS43L22 Audio Codec
 140:../STM32F4-Discovery/stm32f4_discovery_audio_codec.c ****   *              available on STM32F4-Discovery Kit.
 141:../STM32F4-Discovery/stm32f4_discovery_audio_codec.c ****   * @{
 142:../STM32F4-Discovery/stm32f4_discovery_audio_codec.c ****   */ 
 143:../STM32F4-Discovery/stm32f4_discovery_audio_codec.c **** 
 144:../STM32F4-Discovery/stm32f4_discovery_audio_codec.c **** /** @defgroup STM32F4_DISCOVERY_AUDIO_CODEC_Private_Types
 145:../STM32F4-Discovery/stm32f4_discovery_audio_codec.c ****   * @{
 146:../STM32F4-Discovery/stm32f4_discovery_audio_codec.c ****   */ 
 147:../STM32F4-Discovery/stm32f4_discovery_audio_codec.c **** /**
 148:../STM32F4-Discovery/stm32f4_discovery_audio_codec.c ****   * @}
 149:../STM32F4-Discovery/stm32f4_discovery_audio_codec.c ****   */ 
 150:../STM32F4-Discovery/stm32f4_discovery_audio_codec.c ****   
 151:../STM32F4-Discovery/stm32f4_discovery_audio_codec.c **** /** @defgroup STM32F4_DISCOVERY_AUDIO_CODEC_Private_Defines
 152:../STM32F4-Discovery/stm32f4_discovery_audio_codec.c ****   * @{
 153:../STM32F4-Discovery/stm32f4_discovery_audio_codec.c ****   */ 
 154:../STM32F4-Discovery/stm32f4_discovery_audio_codec.c **** 
 155:../STM32F4-Discovery/stm32f4_discovery_audio_codec.c **** /* Mask for the bit EN of the I2S CFGR register */
 156:../STM32F4-Discovery/stm32f4_discovery_audio_codec.c **** #define I2S_ENABLE_MASK                 0x0400
 157:../STM32F4-Discovery/stm32f4_discovery_audio_codec.c **** 
 158:../STM32F4-Discovery/stm32f4_discovery_audio_codec.c **** /* Delay for the Codec to be correctly reset */
 159:../STM32F4-Discovery/stm32f4_discovery_audio_codec.c **** #define CODEC_RESET_DELAY               0x4FFF
 160:../STM32F4-Discovery/stm32f4_discovery_audio_codec.c **** 
 161:../STM32F4-Discovery/stm32f4_discovery_audio_codec.c **** /* Codec audio Standards */
 162:../STM32F4-Discovery/stm32f4_discovery_audio_codec.c **** #ifdef I2S_STANDARD_PHILLIPS
 163:../STM32F4-Discovery/stm32f4_discovery_audio_codec.c ****  #define  CODEC_STANDARD                0x04
 164:../STM32F4-Discovery/stm32f4_discovery_audio_codec.c ****  #define I2S_STANDARD                   I2S_Standard_Phillips         
 165:../STM32F4-Discovery/stm32f4_discovery_audio_codec.c **** #elif defined(I2S_STANDARD_MSB)
 166:../STM32F4-Discovery/stm32f4_discovery_audio_codec.c ****  #define  CODEC_STANDARD                0x00
 167:../STM32F4-Discovery/stm32f4_discovery_audio_codec.c ****  #define I2S_STANDARD                   I2S_Standard_MSB    
 168:../STM32F4-Discovery/stm32f4_discovery_audio_codec.c **** #elif defined(I2S_STANDARD_LSB)
 169:../STM32F4-Discovery/stm32f4_discovery_audio_codec.c ****  #define  CODEC_STANDARD                0x08
 170:../STM32F4-Discovery/stm32f4_discovery_audio_codec.c ****  #define I2S_STANDARD                   I2S_Standard_LSB    
 171:../STM32F4-Discovery/stm32f4_discovery_audio_codec.c **** #else 
 172:../STM32F4-Discovery/stm32f4_discovery_audio_codec.c ****  #error "Error: No audio communication standard selected !"
 173:../STM32F4-Discovery/stm32f4_discovery_audio_codec.c **** #endif /* I2S_STANDARD */
 174:../STM32F4-Discovery/stm32f4_discovery_audio_codec.c **** 
 175:../STM32F4-Discovery/stm32f4_discovery_audio_codec.c **** /* The 7 bits Codec address (sent through I2C interface) */
 176:../STM32F4-Discovery/stm32f4_discovery_audio_codec.c **** #define CODEC_ADDRESS                   0x94  /* b00100111 */
 177:../STM32F4-Discovery/stm32f4_discovery_audio_codec.c **** /**
 178:../STM32F4-Discovery/stm32f4_discovery_audio_codec.c ****   * @}
 179:../STM32F4-Discovery/stm32f4_discovery_audio_codec.c ****   */ 
 180:../STM32F4-Discovery/stm32f4_discovery_audio_codec.c **** 
 181:../STM32F4-Discovery/stm32f4_discovery_audio_codec.c **** /** @defgroup STM32F4_DISCOVERY_AUDIO_CODEC_Private_Macros
 182:../STM32F4-Discovery/stm32f4_discovery_audio_codec.c ****   * @{
 183:../STM32F4-Discovery/stm32f4_discovery_audio_codec.c ****   */
 184:../STM32F4-Discovery/stm32f4_discovery_audio_codec.c **** /**
 185:../STM32F4-Discovery/stm32f4_discovery_audio_codec.c ****   * @}
 186:../STM32F4-Discovery/stm32f4_discovery_audio_codec.c ****   */ 
 187:../STM32F4-Discovery/stm32f4_discovery_audio_codec.c ****   
 188:../STM32F4-Discovery/stm32f4_discovery_audio_codec.c **** /** @defgroup STM32F4_DISCOVERY_AUDIO_CODEC_Private_Variables
 189:../STM32F4-Discovery/stm32f4_discovery_audio_codec.c ****   * @{
 190:../STM32F4-Discovery/stm32f4_discovery_audio_codec.c ****   */
 191:../STM32F4-Discovery/stm32f4_discovery_audio_codec.c **** /* This structure is declared global because it is handled by two different functions */
 192:../STM32F4-Discovery/stm32f4_discovery_audio_codec.c **** DMA_InitTypeDef DMA_InitStructure; 
 193:../STM32F4-Discovery/stm32f4_discovery_audio_codec.c **** DMA_InitTypeDef AUDIO_MAL_DMA_InitStructure;
 194:../STM32F4-Discovery/stm32f4_discovery_audio_codec.c **** 
 195:../STM32F4-Discovery/stm32f4_discovery_audio_codec.c **** uint32_t AudioTotalSize = 0xFFFF; /* This variable holds the total size of the audio file */
 196:../STM32F4-Discovery/stm32f4_discovery_audio_codec.c **** uint32_t AudioRemSize   = 0xFFFF; /* This variable holds the remaining data in audio file */
 197:../STM32F4-Discovery/stm32f4_discovery_audio_codec.c **** uint16_t *CurrentPos ;             /* This variable holds the current position of audio pointer */
 198:../STM32F4-Discovery/stm32f4_discovery_audio_codec.c **** 
 199:../STM32F4-Discovery/stm32f4_discovery_audio_codec.c **** __IO uint32_t  CODECTimeout = CODEC_LONG_TIMEOUT;   
 200:../STM32F4-Discovery/stm32f4_discovery_audio_codec.c **** __IO uint8_t OutputDev = 0;
 201:../STM32F4-Discovery/stm32f4_discovery_audio_codec.c **** 
 202:../STM32F4-Discovery/stm32f4_discovery_audio_codec.c **** 
 203:../STM32F4-Discovery/stm32f4_discovery_audio_codec.c **** __IO uint32_t CurrAudioInterface = AUDIO_INTERFACE_I2S; //AUDIO_INTERFACE_DAC
 204:../STM32F4-Discovery/stm32f4_discovery_audio_codec.c **** /**
 205:../STM32F4-Discovery/stm32f4_discovery_audio_codec.c ****   * @}
 206:../STM32F4-Discovery/stm32f4_discovery_audio_codec.c ****   */ 
 207:../STM32F4-Discovery/stm32f4_discovery_audio_codec.c **** 
 208:../STM32F4-Discovery/stm32f4_discovery_audio_codec.c **** /** @defgroup STM32F4_DISCOVERY_AUDIO_CODEC_Private_Function_Prototypes
 209:../STM32F4-Discovery/stm32f4_discovery_audio_codec.c ****   * @{
 210:../STM32F4-Discovery/stm32f4_discovery_audio_codec.c ****   */ 
 211:../STM32F4-Discovery/stm32f4_discovery_audio_codec.c **** /**
 212:../STM32F4-Discovery/stm32f4_discovery_audio_codec.c ****   * @}
 213:../STM32F4-Discovery/stm32f4_discovery_audio_codec.c ****   */ 
 214:../STM32F4-Discovery/stm32f4_discovery_audio_codec.c **** 
 215:../STM32F4-Discovery/stm32f4_discovery_audio_codec.c **** /** @defgroup STM32F4_DISCOVERY_AUDIO_CODEC_Private_Functions
 216:../STM32F4-Discovery/stm32f4_discovery_audio_codec.c ****   * @{
 217:../STM32F4-Discovery/stm32f4_discovery_audio_codec.c ****   */ 
 218:../STM32F4-Discovery/stm32f4_discovery_audio_codec.c **** static void Audio_MAL_IRQHandler(void);
 219:../STM32F4-Discovery/stm32f4_discovery_audio_codec.c **** /*-----------------------------------
 220:../STM32F4-Discovery/stm32f4_discovery_audio_codec.c ****                            Audio Codec functions 
 221:../STM32F4-Discovery/stm32f4_discovery_audio_codec.c ****                                     ------------------------------------------*/
 222:../STM32F4-Discovery/stm32f4_discovery_audio_codec.c **** /* High Layer codec functions */
 223:../STM32F4-Discovery/stm32f4_discovery_audio_codec.c **** static uint32_t Codec_Init(uint16_t OutputDevice, uint8_t Volume, uint32_t AudioFreq);
 224:../STM32F4-Discovery/stm32f4_discovery_audio_codec.c **** static uint32_t Codec_DeInit(void);
 225:../STM32F4-Discovery/stm32f4_discovery_audio_codec.c **** static uint32_t Codec_Play(void);
 226:../STM32F4-Discovery/stm32f4_discovery_audio_codec.c **** static uint32_t Codec_PauseResume(uint32_t Cmd);
 227:../STM32F4-Discovery/stm32f4_discovery_audio_codec.c **** static uint32_t Codec_Stop(uint32_t Cmd);
 228:../STM32F4-Discovery/stm32f4_discovery_audio_codec.c **** static uint32_t Codec_VolumeCtrl(uint8_t Volume);
 229:../STM32F4-Discovery/stm32f4_discovery_audio_codec.c **** static uint32_t Codec_Mute(uint32_t Cmd);
 230:../STM32F4-Discovery/stm32f4_discovery_audio_codec.c **** /* Low layer codec functions */
 231:../STM32F4-Discovery/stm32f4_discovery_audio_codec.c **** static void     Codec_CtrlInterface_Init(void);
 232:../STM32F4-Discovery/stm32f4_discovery_audio_codec.c **** static void     Codec_CtrlInterface_DeInit(void);
 233:../STM32F4-Discovery/stm32f4_discovery_audio_codec.c **** static void     Codec_AudioInterface_Init(uint32_t AudioFreq);
 234:../STM32F4-Discovery/stm32f4_discovery_audio_codec.c **** static void     Codec_AudioInterface_DeInit(void);
 235:../STM32F4-Discovery/stm32f4_discovery_audio_codec.c **** static void     Codec_Reset(void);
 236:../STM32F4-Discovery/stm32f4_discovery_audio_codec.c **** static uint32_t Codec_WriteRegister(uint8_t RegisterAddr, uint8_t RegisterValue);
 237:../STM32F4-Discovery/stm32f4_discovery_audio_codec.c **** static uint32_t Codec_ReadRegister(uint8_t RegisterAddr);
 238:../STM32F4-Discovery/stm32f4_discovery_audio_codec.c **** static void     Codec_GPIO_Init(void);
 239:../STM32F4-Discovery/stm32f4_discovery_audio_codec.c **** static void     Codec_GPIO_DeInit(void);
 240:../STM32F4-Discovery/stm32f4_discovery_audio_codec.c **** static void     Delay(__IO uint32_t nCount);
 241:../STM32F4-Discovery/stm32f4_discovery_audio_codec.c **** /*----------------------------------------------------------------------------*/
 242:../STM32F4-Discovery/stm32f4_discovery_audio_codec.c **** 
 243:../STM32F4-Discovery/stm32f4_discovery_audio_codec.c **** /*-----------------------------------
 244:../STM32F4-Discovery/stm32f4_discovery_audio_codec.c ****                    MAL (Media Access Layer) functions 
 245:../STM32F4-Discovery/stm32f4_discovery_audio_codec.c ****                                     ------------------------------------------*/
 246:../STM32F4-Discovery/stm32f4_discovery_audio_codec.c **** /* Peripherals configuration functions */
 247:../STM32F4-Discovery/stm32f4_discovery_audio_codec.c **** static void     Audio_MAL_Init(void);
 248:../STM32F4-Discovery/stm32f4_discovery_audio_codec.c **** static void     Audio_MAL_DeInit(void);
 249:../STM32F4-Discovery/stm32f4_discovery_audio_codec.c **** static void     Audio_MAL_PauseResume(uint32_t Cmd, uint32_t Addr);
 250:../STM32F4-Discovery/stm32f4_discovery_audio_codec.c **** static void     Audio_MAL_Stop(void);
 251:../STM32F4-Discovery/stm32f4_discovery_audio_codec.c **** /*----------------------------------------------------------------------------*/
 252:../STM32F4-Discovery/stm32f4_discovery_audio_codec.c **** 
 253:../STM32F4-Discovery/stm32f4_discovery_audio_codec.c ****  /* DMA Stream definitions */
 254:../STM32F4-Discovery/stm32f4_discovery_audio_codec.c ****  uint32_t AUDIO_MAL_DMA_CLOCK    = AUDIO_I2S_DMA_CLOCK;
 255:../STM32F4-Discovery/stm32f4_discovery_audio_codec.c ****  DMA_Stream_TypeDef * AUDIO_MAL_DMA_STREAM   = AUDIO_I2S_DMA_STREAM ;       
 256:../STM32F4-Discovery/stm32f4_discovery_audio_codec.c ****  uint32_t AUDIO_MAL_DMA_DREG     = AUDIO_I2S_DMA_DREG;
 257:../STM32F4-Discovery/stm32f4_discovery_audio_codec.c ****  uint32_t AUDIO_MAL_DMA_CHANNEL  = AUDIO_I2S_DMA_CHANNEL;
 258:../STM32F4-Discovery/stm32f4_discovery_audio_codec.c ****  uint32_t AUDIO_MAL_DMA_IRQ      = AUDIO_I2S_DMA_IRQ  ;
 259:../STM32F4-Discovery/stm32f4_discovery_audio_codec.c ****  uint32_t AUDIO_MAL_DMA_FLAG_TC  = AUDIO_I2S_DMA_FLAG_TC;
 260:../STM32F4-Discovery/stm32f4_discovery_audio_codec.c ****  uint32_t AUDIO_MAL_DMA_FLAG_HT  = AUDIO_I2S_DMA_FLAG_HT;
 261:../STM32F4-Discovery/stm32f4_discovery_audio_codec.c ****  uint32_t AUDIO_MAL_DMA_FLAG_FE  = AUDIO_I2S_DMA_FLAG_FE;
 262:../STM32F4-Discovery/stm32f4_discovery_audio_codec.c ****  uint32_t AUDIO_MAL_DMA_FLAG_TE  = AUDIO_I2S_DMA_FLAG_TE;
 263:../STM32F4-Discovery/stm32f4_discovery_audio_codec.c ****  uint32_t AUDIO_MAL_DMA_FLAG_DME = AUDIO_I2S_DMA_FLAG_DME;
 264:../STM32F4-Discovery/stm32f4_discovery_audio_codec.c **** 
 265:../STM32F4-Discovery/stm32f4_discovery_audio_codec.c **** /**
 266:../STM32F4-Discovery/stm32f4_discovery_audio_codec.c ****   * @brief  Set the current audio interface (I2S or DAC).
 267:../STM32F4-Discovery/stm32f4_discovery_audio_codec.c ****   * @param  Interface: AUDIO_INTERFACE_I2S or AUDIO_INTERFACE_DAC
 268:../STM32F4-Discovery/stm32f4_discovery_audio_codec.c ****   * @retval None
 269:../STM32F4-Discovery/stm32f4_discovery_audio_codec.c ****   */
 270:../STM32F4-Discovery/stm32f4_discovery_audio_codec.c **** void EVAL_AUDIO_SetAudioInterface(uint32_t Interface)
 271:../STM32F4-Discovery/stm32f4_discovery_audio_codec.c **** {    
 124              		.loc 1 271 0
 125              		.cfi_startproc
 126              		@ args = 0, pretend = 0, frame = 8
 127              		@ frame_needed = 1, uses_anonymous_args = 0
 128              		@ link register save eliminated.
 129 0000 80B4     		push	{r7}
 130              	.LCFI0:
 131              		.cfi_def_cfa_offset 4
 132              		.cfi_offset 7, -4
 133 0002 83B0     		sub	sp, sp, #12
 134              	.LCFI1:
 135              		.cfi_def_cfa_offset 16
 136 0004 00AF     		add	r7, sp, #0
 137              	.LCFI2:
 138              		.cfi_def_cfa_register 7
 139 0006 7860     		str	r0, [r7, #4]
 272:../STM32F4-Discovery/stm32f4_discovery_audio_codec.c ****   CurrAudioInterface = Interface;
 140              		.loc 1 272 0
 141 0008 40F20003 		movw	r3, #:lower16:CurrAudioInterface
 142 000c C0F20003 		movt	r3, #:upper16:CurrAudioInterface
 143 0010 7A68     		ldr	r2, [r7, #4]
 144 0012 1A60     		str	r2, [r3, #0]
 273:../STM32F4-Discovery/stm32f4_discovery_audio_codec.c ****   
 274:../STM32F4-Discovery/stm32f4_discovery_audio_codec.c ****   if (CurrAudioInterface == AUDIO_INTERFACE_I2S)
 145              		.loc 1 274 0
 146 0014 40F20003 		movw	r3, #:lower16:CurrAudioInterface
 147 0018 C0F20003 		movt	r3, #:upper16:CurrAudioInterface
 148 001c 1B68     		ldr	r3, [r3, #0]
 149 001e 012B     		cmp	r3, #1
 150 0020 4AD1     		bne	.L2
 275:../STM32F4-Discovery/stm32f4_discovery_audio_codec.c ****   {
 276:../STM32F4-Discovery/stm32f4_discovery_audio_codec.c ****     /* DMA Stream definitions */
 277:../STM32F4-Discovery/stm32f4_discovery_audio_codec.c ****     AUDIO_MAL_DMA_CLOCK    = AUDIO_I2S_DMA_CLOCK;
 151              		.loc 1 277 0
 152 0022 40F20003 		movw	r3, #:lower16:AUDIO_MAL_DMA_CLOCK
 153 0026 C0F20003 		movt	r3, #:upper16:AUDIO_MAL_DMA_CLOCK
 154 002a 4FF40012 		mov	r2, #2097152
 155 002e 1A60     		str	r2, [r3, #0]
 278:../STM32F4-Discovery/stm32f4_discovery_audio_codec.c ****     AUDIO_MAL_DMA_STREAM   = AUDIO_I2S_DMA_STREAM;        
 156              		.loc 1 278 0
 157 0030 40F20003 		movw	r3, #:lower16:AUDIO_MAL_DMA_STREAM
 158 0034 C0F20003 		movt	r3, #:upper16:AUDIO_MAL_DMA_STREAM
 159 0038 46F2B802 		movw	r2, #24760
 160 003c C4F20202 		movt	r2, 16386
 161 0040 1A60     		str	r2, [r3, #0]
 279:../STM32F4-Discovery/stm32f4_discovery_audio_codec.c ****     AUDIO_MAL_DMA_DREG     = AUDIO_I2S_DMA_DREG;
 162              		.loc 1 279 0
 163 0042 40F20003 		movw	r3, #:lower16:AUDIO_MAL_DMA_DREG
 164 0046 C0F20003 		movt	r3, #:upper16:AUDIO_MAL_DMA_DREG
 165 004a 43F60C42 		movw	r2, #15372
 166 004e C4F20002 		movt	r2, 16384
 167 0052 1A60     		str	r2, [r3, #0]
 280:../STM32F4-Discovery/stm32f4_discovery_audio_codec.c ****     AUDIO_MAL_DMA_CHANNEL  = AUDIO_I2S_DMA_CHANNEL;
 168              		.loc 1 280 0
 169 0054 40F20003 		movw	r3, #:lower16:AUDIO_MAL_DMA_CHANNEL
 170 0058 C0F20003 		movt	r3, #:upper16:AUDIO_MAL_DMA_CHANNEL
 171 005c 4FF00002 		mov	r2, #0
 172 0060 1A60     		str	r2, [r3, #0]
 281:../STM32F4-Discovery/stm32f4_discovery_audio_codec.c ****     AUDIO_MAL_DMA_IRQ      = AUDIO_I2S_DMA_IRQ  ;
 173              		.loc 1 281 0
 174 0062 40F20003 		movw	r3, #:lower16:AUDIO_MAL_DMA_IRQ
 175 0066 C0F20003 		movt	r3, #:upper16:AUDIO_MAL_DMA_IRQ
 176 006a 4FF02F02 		mov	r2, #47
 177 006e 1A60     		str	r2, [r3, #0]
 282:../STM32F4-Discovery/stm32f4_discovery_audio_codec.c ****     AUDIO_MAL_DMA_FLAG_TC  = AUDIO_I2S_DMA_FLAG_TC;
 178              		.loc 1 282 0
 179 0070 40F20003 		movw	r3, #:lower16:AUDIO_MAL_DMA_FLAG_TC
 180 0074 C0F20003 		movt	r3, #:upper16:AUDIO_MAL_DMA_FLAG_TC
 181 0078 4FF02052 		mov	r2, #671088640
 182 007c 1A60     		str	r2, [r3, #0]
 283:../STM32F4-Discovery/stm32f4_discovery_audio_codec.c ****     AUDIO_MAL_DMA_FLAG_HT  = AUDIO_I2S_DMA_FLAG_HT;
 183              		.loc 1 283 0
 184 007e 40F20003 		movw	r3, #:lower16:AUDIO_MAL_DMA_FLAG_HT
 185 0082 C0F20003 		movt	r3, #:upper16:AUDIO_MAL_DMA_FLAG_HT
 186 0086 4FF01052 		mov	r2, #603979776
 187 008a 1A60     		str	r2, [r3, #0]
 284:../STM32F4-Discovery/stm32f4_discovery_audio_codec.c ****     AUDIO_MAL_DMA_FLAG_FE  = AUDIO_I2S_DMA_FLAG_FE;
 188              		.loc 1 284 0
 189 008c 40F20003 		movw	r3, #:lower16:AUDIO_MAL_DMA_FLAG_FE
 190 0090 C0F20003 		movt	r3, #:upper16:AUDIO_MAL_DMA_FLAG_FE
 191 0094 4FF00152 		mov	r2, #541065216
 192 0098 1A60     		str	r2, [r3, #0]
 285:../STM32F4-Discovery/stm32f4_discovery_audio_codec.c ****     AUDIO_MAL_DMA_FLAG_TE  = AUDIO_I2S_DMA_FLAG_TE;
 193              		.loc 1 285 0
 194 009a 40F20003 		movw	r3, #:lower16:AUDIO_MAL_DMA_FLAG_TE
 195 009e C0F20003 		movt	r3, #:upper16:AUDIO_MAL_DMA_FLAG_TE
 196 00a2 4FF00852 		mov	r2, #570425344
 197 00a6 1A60     		str	r2, [r3, #0]
 286:../STM32F4-Discovery/stm32f4_discovery_audio_codec.c ****     AUDIO_MAL_DMA_FLAG_DME = AUDIO_I2S_DMA_FLAG_DME;
 198              		.loc 1 286 0
 199 00a8 40F20003 		movw	r3, #:lower16:AUDIO_MAL_DMA_FLAG_DME
 200 00ac C0F20003 		movt	r3, #:upper16:AUDIO_MAL_DMA_FLAG_DME
 201 00b0 4FF00452 		mov	r2, #553648128
 202 00b4 1A60     		str	r2, [r3, #0]
 203 00b6 56E0     		b	.L1
 204              	.L2:
 287:../STM32F4-Discovery/stm32f4_discovery_audio_codec.c ****   }
 288:../STM32F4-Discovery/stm32f4_discovery_audio_codec.c ****   else if (Interface == AUDIO_INTERFACE_DAC)
 205              		.loc 1 288 0
 206 00b8 7B68     		ldr	r3, [r7, #4]
 207 00ba 022B     		cmp	r3, #2
 208 00bc 53D1     		bne	.L1
 289:../STM32F4-Discovery/stm32f4_discovery_audio_codec.c ****   {
 290:../STM32F4-Discovery/stm32f4_discovery_audio_codec.c ****     /* DMA Stream definitions */
 291:../STM32F4-Discovery/stm32f4_discovery_audio_codec.c ****     AUDIO_MAL_DMA_CLOCK    = AUDIO_DAC_DMA_CLOCK;
 209              		.loc 1 291 0
 210 00be 40F20003 		movw	r3, #:lower16:AUDIO_MAL_DMA_CLOCK
 211 00c2 C0F20003 		movt	r3, #:upper16:AUDIO_MAL_DMA_CLOCK
 212 00c6 4FF40012 		mov	r2, #2097152
 213 00ca 1A60     		str	r2, [r3, #0]
 292:../STM32F4-Discovery/stm32f4_discovery_audio_codec.c ****     AUDIO_MAL_DMA_STREAM   = AUDIO_DAC_DMA_STREAM;        
 214              		.loc 1 292 0
 215 00cc 40F20003 		movw	r3, #:lower16:AUDIO_MAL_DMA_STREAM
 216 00d0 C0F20003 		movt	r3, #:upper16:AUDIO_MAL_DMA_STREAM
 217 00d4 46F21002 		movw	r2, #24592
 218 00d8 C4F20202 		movt	r2, 16386
 219 00dc 1A60     		str	r2, [r3, #0]
 293:../STM32F4-Discovery/stm32f4_discovery_audio_codec.c ****     AUDIO_MAL_DMA_DREG     = AUDIO_DAC_DMA_DREG;
 220              		.loc 1 293 0
 221 00de 40F20003 		movw	r3, #:lower16:AUDIO_MAL_DMA_DREG
 222 00e2 C0F20003 		movt	r3, #:upper16:AUDIO_MAL_DMA_DREG
 223 00e6 47F20C42 		movw	r2, #29708
 224 00ea C4F20002 		movt	r2, 16384
 225 00ee 1A60     		str	r2, [r3, #0]
 294:../STM32F4-Discovery/stm32f4_discovery_audio_codec.c ****     AUDIO_MAL_DMA_CHANNEL  = AUDIO_DAC_DMA_CHANNEL;
 226              		.loc 1 294 0
 227 00f0 40F20003 		movw	r3, #:lower16:AUDIO_MAL_DMA_CHANNEL
 228 00f4 C0F20003 		movt	r3, #:upper16:AUDIO_MAL_DMA_CHANNEL
 229 00f8 4FF00002 		mov	r2, #0
 230 00fc 1A60     		str	r2, [r3, #0]
 295:../STM32F4-Discovery/stm32f4_discovery_audio_codec.c ****     AUDIO_MAL_DMA_IRQ      = AUDIO_DAC_DMA_IRQ  ;
 231              		.loc 1 295 0
 232 00fe 40F20003 		movw	r3, #:lower16:AUDIO_MAL_DMA_IRQ
 233 0102 C0F20003 		movt	r3, #:upper16:AUDIO_MAL_DMA_IRQ
 234 0106 4FF00B02 		mov	r2, #11
 235 010a 1A60     		str	r2, [r3, #0]
 296:../STM32F4-Discovery/stm32f4_discovery_audio_codec.c ****     AUDIO_MAL_DMA_FLAG_TC  = AUDIO_DAC_DMA_FLAG_TC;
 236              		.loc 1 296 0
 237 010c 40F20003 		movw	r3, #:lower16:AUDIO_MAL_DMA_FLAG_TC
 238 0110 C0F20003 		movt	r3, #:upper16:AUDIO_MAL_DMA_FLAG_TC
 239 0114 4FF02002 		mov	r2, #32
 240 0118 C1F20002 		movt	r2, 4096
 241 011c 1A60     		str	r2, [r3, #0]
 297:../STM32F4-Discovery/stm32f4_discovery_audio_codec.c ****     AUDIO_MAL_DMA_FLAG_HT  = AUDIO_DAC_DMA_FLAG_HT;
 242              		.loc 1 297 0
 243 011e 40F20003 		movw	r3, #:lower16:AUDIO_MAL_DMA_FLAG_HT
 244 0122 C0F20003 		movt	r3, #:upper16:AUDIO_MAL_DMA_FLAG_HT
 245 0126 4FF01002 		mov	r2, #16
 246 012a C1F20002 		movt	r2, 4096
 247 012e 1A60     		str	r2, [r3, #0]
 298:../STM32F4-Discovery/stm32f4_discovery_audio_codec.c ****     AUDIO_MAL_DMA_FLAG_FE  = AUDIO_DAC_DMA_FLAG_FE;
 248              		.loc 1 298 0
 249 0130 40F20003 		movw	r3, #:lower16:AUDIO_MAL_DMA_FLAG_FE
 250 0134 C0F20003 		movt	r3, #:upper16:AUDIO_MAL_DMA_FLAG_FE
 251 0138 4FF00102 		mov	r2, #1
 252 013c C1F28002 		movt	r2, 4224
 253 0140 1A60     		str	r2, [r3, #0]
 299:../STM32F4-Discovery/stm32f4_discovery_audio_codec.c ****     AUDIO_MAL_DMA_FLAG_TE  = AUDIO_DAC_DMA_FLAG_TE;
 254              		.loc 1 299 0
 255 0142 40F20003 		movw	r3, #:lower16:AUDIO_MAL_DMA_FLAG_TE
 256 0146 C0F20003 		movt	r3, #:upper16:AUDIO_MAL_DMA_FLAG_TE
 257 014a 4FF00802 		mov	r2, #8
 258 014e C1F20002 		movt	r2, 4096
 259 0152 1A60     		str	r2, [r3, #0]
 300:../STM32F4-Discovery/stm32f4_discovery_audio_codec.c ****     AUDIO_MAL_DMA_FLAG_DME = AUDIO_DAC_DMA_FLAG_DME;    
 260              		.loc 1 300 0
 261 0154 40F20003 		movw	r3, #:lower16:AUDIO_MAL_DMA_FLAG_DME
 262 0158 C0F20003 		movt	r3, #:upper16:AUDIO_MAL_DMA_FLAG_DME
 263 015c 4FF00402 		mov	r2, #4
 264 0160 C1F28002 		movt	r2, 4224
 265 0164 1A60     		str	r2, [r3, #0]
 266              	.L1:
 301:../STM32F4-Discovery/stm32f4_discovery_audio_codec.c ****   }
 302:../STM32F4-Discovery/stm32f4_discovery_audio_codec.c **** }
 267              		.loc 1 302 0
 268 0166 07F10C07 		add	r7, r7, #12
 269 016a BD46     		mov	sp, r7
 270 016c 80BC     		pop	{r7}
 271 016e 7047     		bx	lr
 272              		.cfi_endproc
 273              	.LFE110:
 275              		.align	2
 276              		.global	EVAL_AUDIO_Init
 277              		.thumb
 278              		.thumb_func
 280              	EVAL_AUDIO_Init:
 281              	.LFB111:
 303:../STM32F4-Discovery/stm32f4_discovery_audio_codec.c **** 
 304:../STM32F4-Discovery/stm32f4_discovery_audio_codec.c **** /**
 305:../STM32F4-Discovery/stm32f4_discovery_audio_codec.c ****   * @brief  Configure the audio peripherals.
 306:../STM32F4-Discovery/stm32f4_discovery_audio_codec.c ****   * @param  OutputDevice: OUTPUT_DEVICE_SPEAKER, OUTPUT_DEVICE_HEADPHONE,
 307:../STM32F4-Discovery/stm32f4_discovery_audio_codec.c ****   *                       OUTPUT_DEVICE_BOTH or OUTPUT_DEVICE_AUTO .
 308:../STM32F4-Discovery/stm32f4_discovery_audio_codec.c ****   * @param  Volume: Initial volume level (from 0 (Mute) to 100 (Max))
 309:../STM32F4-Discovery/stm32f4_discovery_audio_codec.c ****   * @param  AudioFreq: Audio frequency used to play the audio stream.
 310:../STM32F4-Discovery/stm32f4_discovery_audio_codec.c ****   * @retval 0 if correct communication, else wrong communication
 311:../STM32F4-Discovery/stm32f4_discovery_audio_codec.c ****   */
 312:../STM32F4-Discovery/stm32f4_discovery_audio_codec.c **** uint32_t EVAL_AUDIO_Init(uint16_t OutputDevice, uint8_t Volume, uint32_t AudioFreq)
 313:../STM32F4-Discovery/stm32f4_discovery_audio_codec.c **** {    
 282              		.loc 1 313 0
 283              		.cfi_startproc
 284              		@ args = 0, pretend = 0, frame = 8
 285              		@ frame_needed = 1, uses_anonymous_args = 0
 286 0170 80B5     		push	{r7, lr}
 287              	.LCFI3:
 288              		.cfi_def_cfa_offset 8
 289              		.cfi_offset 14, -4
 290              		.cfi_offset 7, -8
 291 0172 82B0     		sub	sp, sp, #8
 292              	.LCFI4:
 293              		.cfi_def_cfa_offset 16
 294 0174 00AF     		add	r7, sp, #0
 295              	.LCFI5:
 296              		.cfi_def_cfa_register 7
 297 0176 0B46     		mov	r3, r1
 298 0178 3A60     		str	r2, [r7, #0]
 299 017a 0246     		mov	r2, r0	@ movhi
 300 017c FA80     		strh	r2, [r7, #6]	@ movhi
 301 017e 7B71     		strb	r3, [r7, #5]
 314:../STM32F4-Discovery/stm32f4_discovery_audio_codec.c ****   /* Perform low layer Codec initialization */
 315:../STM32F4-Discovery/stm32f4_discovery_audio_codec.c ****   if (Codec_Init(OutputDevice, VOLUME_CONVERT(Volume), AudioFreq) != 0)
 302              		.loc 1 315 0
 303 0180 7B79     		ldrb	r3, [r7, #5]	@ zero_extendqisi2
 304 0182 642B     		cmp	r3, #100
 305 0184 11D8     		bhi	.L5
 306              		.loc 1 315 0 is_stmt 0 discriminator 1
 307 0186 7A79     		ldrb	r2, [r7, #5]	@ zero_extendqisi2
 308 0188 1346     		mov	r3, r2
 309 018a 4FEA0323 		lsl	r3, r3, #8
 310 018e 9A1A     		subs	r2, r3, r2
 311 0190 48F21F53 		movw	r3, #34079
 312 0194 C5F2EB13 		movt	r3, 20971
 313 0198 83FB0213 		smull	r1, r3, r3, r2
 314 019c 4FEA6311 		asr	r1, r3, #5
 315 01a0 4FEAE273 		asr	r3, r2, #31
 316 01a4 CB1A     		subs	r3, r1, r3
 317 01a6 DBB2     		uxtb	r3, r3
 318 01a8 01E0     		b	.L6
 319              	.L5:
 320              		.loc 1 315 0 discriminator 2
 321 01aa 4FF06403 		mov	r3, #100
 322              	.L6:
 323              		.loc 1 315 0 discriminator 3
 324 01ae FA88     		ldrh	r2, [r7, #6]
 325 01b0 1046     		mov	r0, r2
 326 01b2 1946     		mov	r1, r3
 327 01b4 3A68     		ldr	r2, [r7, #0]
 328 01b6 00F0C7F9 		bl	Codec_Init
 329 01ba 0346     		mov	r3, r0
 330 01bc 002B     		cmp	r3, #0
 331 01be 02D0     		beq	.L7
 316:../STM32F4-Discovery/stm32f4_discovery_audio_codec.c ****   {
 317:../STM32F4-Discovery/stm32f4_discovery_audio_codec.c ****     return 1;                
 332              		.loc 1 317 0 is_stmt 1
 333 01c0 4FF00103 		mov	r3, #1
 334 01c4 03E0     		b	.L8
 335              	.L7:
 318:../STM32F4-Discovery/stm32f4_discovery_audio_codec.c ****   }
 319:../STM32F4-Discovery/stm32f4_discovery_audio_codec.c ****   else
 320:../STM32F4-Discovery/stm32f4_discovery_audio_codec.c ****   {    
 321:../STM32F4-Discovery/stm32f4_discovery_audio_codec.c ****     /* I2S data transfer preparation:
 322:../STM32F4-Discovery/stm32f4_discovery_audio_codec.c ****     Prepare the Media to be used for the audio transfer from memory to I2S peripheral */
 323:../STM32F4-Discovery/stm32f4_discovery_audio_codec.c ****     Audio_MAL_Init();
 336              		.loc 1 323 0
 337 01c6 01F08FF8 		bl	Audio_MAL_Init
 324:../STM32F4-Discovery/stm32f4_discovery_audio_codec.c ****     
 325:../STM32F4-Discovery/stm32f4_discovery_audio_codec.c ****     /* Return 0 when all operations are OK */
 326:../STM32F4-Discovery/stm32f4_discovery_audio_codec.c ****     return 0;
 338              		.loc 1 326 0
 339 01ca 4FF00003 		mov	r3, #0
 340              	.L8:
 327:../STM32F4-Discovery/stm32f4_discovery_audio_codec.c ****   }
 328:../STM32F4-Discovery/stm32f4_discovery_audio_codec.c **** }
 341              		.loc 1 328 0
 342 01ce 1846     		mov	r0, r3
 343 01d0 07F10807 		add	r7, r7, #8
 344 01d4 BD46     		mov	sp, r7
 345 01d6 80BD     		pop	{r7, pc}
 346              		.cfi_endproc
 347              	.LFE111:
 349              		.align	2
 350              		.global	EVAL_AUDIO_DeInit
 351              		.thumb
 352              		.thumb_func
 354              	EVAL_AUDIO_DeInit:
 355              	.LFB112:
 329:../STM32F4-Discovery/stm32f4_discovery_audio_codec.c **** 
 330:../STM32F4-Discovery/stm32f4_discovery_audio_codec.c **** /**
 331:../STM32F4-Discovery/stm32f4_discovery_audio_codec.c ****   * @brief  Deinitializes all the resources used by the codec (those initialized
 332:../STM32F4-Discovery/stm32f4_discovery_audio_codec.c ****   *         by EVAL_AUDIO_Init() function). 
 333:../STM32F4-Discovery/stm32f4_discovery_audio_codec.c ****   * @param  None
 334:../STM32F4-Discovery/stm32f4_discovery_audio_codec.c ****   * @retval 0 if correct communication, else wrong communication
 335:../STM32F4-Discovery/stm32f4_discovery_audio_codec.c ****   */
 336:../STM32F4-Discovery/stm32f4_discovery_audio_codec.c **** uint32_t EVAL_AUDIO_DeInit(void)
 337:../STM32F4-Discovery/stm32f4_discovery_audio_codec.c **** { 
 356              		.loc 1 337 0
 357              		.cfi_startproc
 358              		@ args = 0, pretend = 0, frame = 0
 359              		@ frame_needed = 1, uses_anonymous_args = 0
 360 01d8 80B5     		push	{r7, lr}
 361              	.LCFI6:
 362              		.cfi_def_cfa_offset 8
 363              		.cfi_offset 14, -4
 364              		.cfi_offset 7, -8
 365 01da 00AF     		add	r7, sp, #0
 366              	.LCFI7:
 367              		.cfi_def_cfa_register 7
 338:../STM32F4-Discovery/stm32f4_discovery_audio_codec.c ****   /* DeInitialize the Media layer */
 339:../STM32F4-Discovery/stm32f4_discovery_audio_codec.c ****   Audio_MAL_DeInit();
 368              		.loc 1 339 0
 369 01dc 01F07AF9 		bl	Audio_MAL_DeInit
 340:../STM32F4-Discovery/stm32f4_discovery_audio_codec.c ****   
 341:../STM32F4-Discovery/stm32f4_discovery_audio_codec.c ****   /* DeInitialize Codec */  
 342:../STM32F4-Discovery/stm32f4_discovery_audio_codec.c ****   Codec_DeInit();  
 370              		.loc 1 342 0
 371 01e0 00F086FA 		bl	Codec_DeInit
 343:../STM32F4-Discovery/stm32f4_discovery_audio_codec.c ****   
 344:../STM32F4-Discovery/stm32f4_discovery_audio_codec.c ****   return 0;
 372              		.loc 1 344 0
 373 01e4 4FF00003 		mov	r3, #0
 345:../STM32F4-Discovery/stm32f4_discovery_audio_codec.c **** }
 374              		.loc 1 345 0
 375 01e8 1846     		mov	r0, r3
 376 01ea 80BD     		pop	{r7, pc}
 377              		.cfi_endproc
 378              	.LFE112:
 380              		.align	2
 381              		.global	EVAL_AUDIO_Play
 382              		.thumb
 383              		.thumb_func
 385              	EVAL_AUDIO_Play:
 386              	.LFB113:
 346:../STM32F4-Discovery/stm32f4_discovery_audio_codec.c **** 
 347:../STM32F4-Discovery/stm32f4_discovery_audio_codec.c **** /**
 348:../STM32F4-Discovery/stm32f4_discovery_audio_codec.c ****   * @brief  Starts playing audio stream from a data buffer for a determined size. 
 349:../STM32F4-Discovery/stm32f4_discovery_audio_codec.c ****   * @param  pBuffer: Pointer to the buffer 
 350:../STM32F4-Discovery/stm32f4_discovery_audio_codec.c ****   * @param  Size: Number of audio data BYTES.
 351:../STM32F4-Discovery/stm32f4_discovery_audio_codec.c ****   * @retval 0 if correct communication, else wrong communication
 352:../STM32F4-Discovery/stm32f4_discovery_audio_codec.c ****   */
 353:../STM32F4-Discovery/stm32f4_discovery_audio_codec.c **** uint32_t EVAL_AUDIO_Play(uint16_t* pBuffer, uint32_t Size)
 354:../STM32F4-Discovery/stm32f4_discovery_audio_codec.c **** {
 387              		.loc 1 354 0
 388              		.cfi_startproc
 389              		@ args = 0, pretend = 0, frame = 8
 390              		@ frame_needed = 1, uses_anonymous_args = 0
 391 01ec 80B5     		push	{r7, lr}
 392              	.LCFI8:
 393              		.cfi_def_cfa_offset 8
 394              		.cfi_offset 14, -4
 395              		.cfi_offset 7, -8
 396 01ee 82B0     		sub	sp, sp, #8
 397              	.LCFI9:
 398              		.cfi_def_cfa_offset 16
 399 01f0 00AF     		add	r7, sp, #0
 400              	.LCFI10:
 401              		.cfi_def_cfa_register 7
 402 01f2 7860     		str	r0, [r7, #4]
 403 01f4 3960     		str	r1, [r7, #0]
 355:../STM32F4-Discovery/stm32f4_discovery_audio_codec.c ****   /* Set the total number of data to be played (count in half-word) */
 356:../STM32F4-Discovery/stm32f4_discovery_audio_codec.c ****   AudioTotalSize = Size;
 404              		.loc 1 356 0
 405 01f6 40F20003 		movw	r3, #:lower16:AudioTotalSize
 406 01fa C0F20003 		movt	r3, #:upper16:AudioTotalSize
 407 01fe 3A68     		ldr	r2, [r7, #0]
 408 0200 1A60     		str	r2, [r3, #0]
 357:../STM32F4-Discovery/stm32f4_discovery_audio_codec.c **** 
 358:../STM32F4-Discovery/stm32f4_discovery_audio_codec.c ****   /* Call the audio Codec Play function */
 359:../STM32F4-Discovery/stm32f4_discovery_audio_codec.c ****   Codec_Play();
 409              		.loc 1 359 0
 410 0202 00F093FA 		bl	Codec_Play
 360:../STM32F4-Discovery/stm32f4_discovery_audio_codec.c ****   
 361:../STM32F4-Discovery/stm32f4_discovery_audio_codec.c ****   /* Update the Media layer and enable it for play */  
 362:../STM32F4-Discovery/stm32f4_discovery_audio_codec.c ****   Audio_MAL_Play((uint32_t)pBuffer, (uint32_t)(DMA_MAX(Size/4)));
 411              		.loc 1 362 0
 412 0206 7A68     		ldr	r2, [r7, #4]
 413 0208 3968     		ldr	r1, [r7, #0]
 414 020a 4FF6FF73 		movw	r3, #65535
 415 020e C0F20303 		movt	r3, 3
 416 0212 9942     		cmp	r1, r3
 417 0214 03D8     		bhi	.L11
 418              		.loc 1 362 0 is_stmt 0 discriminator 1
 419 0216 3B68     		ldr	r3, [r7, #0]
 420 0218 4FEA9303 		lsr	r3, r3, #2
 421 021c 01E0     		b	.L12
 422              	.L11:
 423              		.loc 1 362 0 discriminator 2
 424 021e 4FF6FF73 		movw	r3, #65535
 425              	.L12:
 426              		.loc 1 362 0 discriminator 3
 427 0222 1046     		mov	r0, r2
 428 0224 1946     		mov	r1, r3
 429 0226 FFF7FEFF 		bl	Audio_MAL_Play
 363:../STM32F4-Discovery/stm32f4_discovery_audio_codec.c ****   
 364:../STM32F4-Discovery/stm32f4_discovery_audio_codec.c ****   /* Update the remaining number of data to be played */
 365:../STM32F4-Discovery/stm32f4_discovery_audio_codec.c ****   AudioRemSize = (Size/2) - DMA_MAX(AudioTotalSize);
 430              		.loc 1 365 0 is_stmt 1 discriminator 3
 431 022a 3B68     		ldr	r3, [r7, #0]
 432 022c 4FEA5302 		lsr	r2, r3, #1
 433 0230 40F20003 		movw	r3, #:lower16:AudioTotalSize
 434 0234 C0F20003 		movt	r3, #:upper16:AudioTotalSize
 435 0238 1968     		ldr	r1, [r3, #0]
 436 023a 4FF6FF73 		movw	r3, #65535
 437 023e 9942     		cmp	r1, r3
 438 0240 38BF     		it	cc
 439 0242 0B46     		movcc	r3, r1
 440 0244 D21A     		subs	r2, r2, r3
 441 0246 40F20003 		movw	r3, #:lower16:AudioRemSize
 442 024a C0F20003 		movt	r3, #:upper16:AudioRemSize
 443 024e 1A60     		str	r2, [r3, #0]
 366:../STM32F4-Discovery/stm32f4_discovery_audio_codec.c ****   
 367:../STM32F4-Discovery/stm32f4_discovery_audio_codec.c ****   /* Update the current audio pointer position */
 368:../STM32F4-Discovery/stm32f4_discovery_audio_codec.c ****   CurrentPos = pBuffer + DMA_MAX(AudioTotalSize);
 444              		.loc 1 368 0 discriminator 3
 445 0250 40F20003 		movw	r3, #:lower16:AudioTotalSize
 446 0254 C0F20003 		movt	r3, #:upper16:AudioTotalSize
 447 0258 1A68     		ldr	r2, [r3, #0]
 448 025a 4FF6FF73 		movw	r3, #65535
 449 025e 9A42     		cmp	r2, r3
 450 0260 38BF     		it	cc
 451 0262 1346     		movcc	r3, r2
 452 0264 4FEA4303 		lsl	r3, r3, #1
 453 0268 7A68     		ldr	r2, [r7, #4]
 454 026a D218     		adds	r2, r2, r3
 455 026c 40F20003 		movw	r3, #:lower16:CurrentPos
 456 0270 C0F20003 		movt	r3, #:upper16:CurrentPos
 457 0274 1A60     		str	r2, [r3, #0]
 369:../STM32F4-Discovery/stm32f4_discovery_audio_codec.c ****   
 370:../STM32F4-Discovery/stm32f4_discovery_audio_codec.c ****   return 0;
 458              		.loc 1 370 0 discriminator 3
 459 0276 4FF00003 		mov	r3, #0
 371:../STM32F4-Discovery/stm32f4_discovery_audio_codec.c **** }
 460              		.loc 1 371 0 discriminator 3
 461 027a 1846     		mov	r0, r3
 462 027c 07F10807 		add	r7, r7, #8
 463 0280 BD46     		mov	sp, r7
 464 0282 80BD     		pop	{r7, pc}
 465              		.cfi_endproc
 466              	.LFE113:
 468              		.align	2
 469              		.global	EVAL_AUDIO_PauseResume
 470              		.thumb
 471              		.thumb_func
 473              	EVAL_AUDIO_PauseResume:
 474              	.LFB114:
 372:../STM32F4-Discovery/stm32f4_discovery_audio_codec.c **** 
 373:../STM32F4-Discovery/stm32f4_discovery_audio_codec.c **** /**
 374:../STM32F4-Discovery/stm32f4_discovery_audio_codec.c ****   * @brief  This function Pauses or Resumes the audio file stream. In case
 375:../STM32F4-Discovery/stm32f4_discovery_audio_codec.c ****   *         of using DMA, the DMA Pause feature is used. In all cases the I2S 
 376:../STM32F4-Discovery/stm32f4_discovery_audio_codec.c ****   *         peripheral is disabled. 
 377:../STM32F4-Discovery/stm32f4_discovery_audio_codec.c ****   * 
 378:../STM32F4-Discovery/stm32f4_discovery_audio_codec.c ****   * @WARNING When calling EVAL_AUDIO_PauseResume() function for pause, only
 379:../STM32F4-Discovery/stm32f4_discovery_audio_codec.c ****   *          this function should be called for resume (use of EVAL_AUDIO_Play() 
 380:../STM32F4-Discovery/stm32f4_discovery_audio_codec.c ****   *          function for resume could lead to unexpected behavior).
 381:../STM32F4-Discovery/stm32f4_discovery_audio_codec.c ****   * 
 382:../STM32F4-Discovery/stm32f4_discovery_audio_codec.c ****   * @param  Cmd: AUDIO_PAUSE (or 0) to pause, AUDIO_RESUME (or any value different
 383:../STM32F4-Discovery/stm32f4_discovery_audio_codec.c ****   *         from 0) to resume. 
 384:../STM32F4-Discovery/stm32f4_discovery_audio_codec.c ****   * @retval 0 if correct communication, else wrong communication
 385:../STM32F4-Discovery/stm32f4_discovery_audio_codec.c ****   */
 386:../STM32F4-Discovery/stm32f4_discovery_audio_codec.c **** uint32_t EVAL_AUDIO_PauseResume(uint32_t Cmd)
 387:../STM32F4-Discovery/stm32f4_discovery_audio_codec.c **** {    
 475              		.loc 1 387 0
 476              		.cfi_startproc
 477              		@ args = 0, pretend = 0, frame = 8
 478              		@ frame_needed = 1, uses_anonymous_args = 0
 479 0284 80B5     		push	{r7, lr}
 480              	.LCFI11:
 481              		.cfi_def_cfa_offset 8
 482              		.cfi_offset 14, -4
 483              		.cfi_offset 7, -8
 484 0286 82B0     		sub	sp, sp, #8
 485              	.LCFI12:
 486              		.cfi_def_cfa_offset 16
 487 0288 00AF     		add	r7, sp, #0
 488              	.LCFI13:
 489              		.cfi_def_cfa_register 7
 490 028a 7860     		str	r0, [r7, #4]
 388:../STM32F4-Discovery/stm32f4_discovery_audio_codec.c ****   /* Call the Audio Codec Pause/Resume function */
 389:../STM32F4-Discovery/stm32f4_discovery_audio_codec.c ****   if (Codec_PauseResume(Cmd) != 0)
 491              		.loc 1 389 0
 492 028c 7868     		ldr	r0, [r7, #4]
 493 028e 00F055FA 		bl	Codec_PauseResume
 494 0292 0346     		mov	r3, r0
 495 0294 002B     		cmp	r3, #0
 496 0296 02D0     		beq	.L14
 390:../STM32F4-Discovery/stm32f4_discovery_audio_codec.c ****   {
 391:../STM32F4-Discovery/stm32f4_discovery_audio_codec.c ****     return 1;
 497              		.loc 1 391 0
 498 0298 4FF00103 		mov	r3, #1
 499 029c 06E0     		b	.L15
 500              	.L14:
 392:../STM32F4-Discovery/stm32f4_discovery_audio_codec.c ****   }
 393:../STM32F4-Discovery/stm32f4_discovery_audio_codec.c ****   else
 394:../STM32F4-Discovery/stm32f4_discovery_audio_codec.c ****   {
 395:../STM32F4-Discovery/stm32f4_discovery_audio_codec.c ****     /* Call the Media layer pause/resume function */
 396:../STM32F4-Discovery/stm32f4_discovery_audio_codec.c ****     Audio_MAL_PauseResume(Cmd, 0);
 501              		.loc 1 396 0
 502 029e 7868     		ldr	r0, [r7, #4]
 503 02a0 4FF00001 		mov	r1, #0
 504 02a4 01F0AEF9 		bl	Audio_MAL_PauseResume
 397:../STM32F4-Discovery/stm32f4_discovery_audio_codec.c ****     
 398:../STM32F4-Discovery/stm32f4_discovery_audio_codec.c ****     /* Return 0 if all operations are OK */
 399:../STM32F4-Discovery/stm32f4_discovery_audio_codec.c ****     return 0;
 505              		.loc 1 399 0
 506 02a8 4FF00003 		mov	r3, #0
 507              	.L15:
 400:../STM32F4-Discovery/stm32f4_discovery_audio_codec.c ****   }
 401:../STM32F4-Discovery/stm32f4_discovery_audio_codec.c **** }
 508              		.loc 1 401 0
 509 02ac 1846     		mov	r0, r3
 510 02ae 07F10807 		add	r7, r7, #8
 511 02b2 BD46     		mov	sp, r7
 512 02b4 80BD     		pop	{r7, pc}
 513              		.cfi_endproc
 514              	.LFE114:
 516 02b6 00BF     		.align	2
 517              		.global	EVAL_AUDIO_Stop
 518              		.thumb
 519              		.thumb_func
 521              	EVAL_AUDIO_Stop:
 522              	.LFB115:
 402:../STM32F4-Discovery/stm32f4_discovery_audio_codec.c **** 
 403:../STM32F4-Discovery/stm32f4_discovery_audio_codec.c **** /**
 404:../STM32F4-Discovery/stm32f4_discovery_audio_codec.c ****   * @brief  Stops audio playing and Power down the Audio Codec. 
 405:../STM32F4-Discovery/stm32f4_discovery_audio_codec.c ****   * @param  Option: could be one of the following parameters 
 406:../STM32F4-Discovery/stm32f4_discovery_audio_codec.c ****   *           - CODEC_PDWN_SW: for software power off (by writing registers). 
 407:../STM32F4-Discovery/stm32f4_discovery_audio_codec.c ****   *                            Then no need to reconfigure the Codec after power on.
 408:../STM32F4-Discovery/stm32f4_discovery_audio_codec.c ****   *           - CODEC_PDWN_HW: completely shut down the codec (physically). 
 409:../STM32F4-Discovery/stm32f4_discovery_audio_codec.c ****   *                            Then need to reconfigure the Codec after power on.  
 410:../STM32F4-Discovery/stm32f4_discovery_audio_codec.c ****   * @retval 0 if correct communication, else wrong communication
 411:../STM32F4-Discovery/stm32f4_discovery_audio_codec.c ****   */
 412:../STM32F4-Discovery/stm32f4_discovery_audio_codec.c **** uint32_t EVAL_AUDIO_Stop(uint32_t Option)
 413:../STM32F4-Discovery/stm32f4_discovery_audio_codec.c **** {
 523              		.loc 1 413 0
 524              		.cfi_startproc
 525              		@ args = 0, pretend = 0, frame = 8
 526              		@ frame_needed = 1, uses_anonymous_args = 0
 527 02b8 80B5     		push	{r7, lr}
 528              	.LCFI14:
 529              		.cfi_def_cfa_offset 8
 530              		.cfi_offset 14, -4
 531              		.cfi_offset 7, -8
 532 02ba 82B0     		sub	sp, sp, #8
 533              	.LCFI15:
 534              		.cfi_def_cfa_offset 16
 535 02bc 00AF     		add	r7, sp, #0
 536              	.LCFI16:
 537              		.cfi_def_cfa_register 7
 538 02be 7860     		str	r0, [r7, #4]
 414:../STM32F4-Discovery/stm32f4_discovery_audio_codec.c ****   /* Call Audio Codec Stop function */
 415:../STM32F4-Discovery/stm32f4_discovery_audio_codec.c ****   if (Codec_Stop(Option) != 0)
 539              		.loc 1 415 0
 540 02c0 7868     		ldr	r0, [r7, #4]
 541 02c2 00F07FFA 		bl	Codec_Stop
 542 02c6 0346     		mov	r3, r0
 543 02c8 002B     		cmp	r3, #0
 544 02ca 02D0     		beq	.L17
 416:../STM32F4-Discovery/stm32f4_discovery_audio_codec.c ****   {
 417:../STM32F4-Discovery/stm32f4_discovery_audio_codec.c ****     return 1;
 545              		.loc 1 417 0
 546 02cc 4FF00103 		mov	r3, #1
 547 02d0 0DE0     		b	.L18
 548              	.L17:
 418:../STM32F4-Discovery/stm32f4_discovery_audio_codec.c ****   }
 419:../STM32F4-Discovery/stm32f4_discovery_audio_codec.c ****   else
 420:../STM32F4-Discovery/stm32f4_discovery_audio_codec.c ****   {
 421:../STM32F4-Discovery/stm32f4_discovery_audio_codec.c ****     /* Call Media layer Stop function */
 422:../STM32F4-Discovery/stm32f4_discovery_audio_codec.c ****     Audio_MAL_Stop();
 549              		.loc 1 422 0
 550 02d2 01F0DFF9 		bl	Audio_MAL_Stop
 423:../STM32F4-Discovery/stm32f4_discovery_audio_codec.c ****     
 424:../STM32F4-Discovery/stm32f4_discovery_audio_codec.c ****     /* Update the remaining data number */
 425:../STM32F4-Discovery/stm32f4_discovery_audio_codec.c ****     AudioRemSize = AudioTotalSize;    
 551              		.loc 1 425 0
 552 02d6 40F20003 		movw	r3, #:lower16:AudioTotalSize
 553 02da C0F20003 		movt	r3, #:upper16:AudioTotalSize
 554 02de 1A68     		ldr	r2, [r3, #0]
 555 02e0 40F20003 		movw	r3, #:lower16:AudioRemSize
 556 02e4 C0F20003 		movt	r3, #:upper16:AudioRemSize
 557 02e8 1A60     		str	r2, [r3, #0]
 426:../STM32F4-Discovery/stm32f4_discovery_audio_codec.c ****     
 427:../STM32F4-Discovery/stm32f4_discovery_audio_codec.c ****     /* Return 0 when all operations are correctly done */
 428:../STM32F4-Discovery/stm32f4_discovery_audio_codec.c ****     return 0;
 558              		.loc 1 428 0
 559 02ea 4FF00003 		mov	r3, #0
 560              	.L18:
 429:../STM32F4-Discovery/stm32f4_discovery_audio_codec.c ****   }
 430:../STM32F4-Discovery/stm32f4_discovery_audio_codec.c **** }
 561              		.loc 1 430 0
 562 02ee 1846     		mov	r0, r3
 563 02f0 07F10807 		add	r7, r7, #8
 564 02f4 BD46     		mov	sp, r7
 565 02f6 80BD     		pop	{r7, pc}
 566              		.cfi_endproc
 567              	.LFE115:
 569              		.align	2
 570              		.global	EVAL_AUDIO_VolumeCtl
 571              		.thumb
 572              		.thumb_func
 574              	EVAL_AUDIO_VolumeCtl:
 575              	.LFB116:
 431:../STM32F4-Discovery/stm32f4_discovery_audio_codec.c **** 
 432:../STM32F4-Discovery/stm32f4_discovery_audio_codec.c **** /**
 433:../STM32F4-Discovery/stm32f4_discovery_audio_codec.c ****   * @brief  Controls the current audio volume level. 
 434:../STM32F4-Discovery/stm32f4_discovery_audio_codec.c ****   * @param  Volume: Volume level to be set in percentage from 0% to 100% (0 for 
 435:../STM32F4-Discovery/stm32f4_discovery_audio_codec.c ****   *         Mute and 100 for Max volume level).
 436:../STM32F4-Discovery/stm32f4_discovery_audio_codec.c ****   * @retval 0 if correct communication, else wrong communication
 437:../STM32F4-Discovery/stm32f4_discovery_audio_codec.c ****   */
 438:../STM32F4-Discovery/stm32f4_discovery_audio_codec.c **** uint32_t EVAL_AUDIO_VolumeCtl(uint8_t Volume)
 439:../STM32F4-Discovery/stm32f4_discovery_audio_codec.c **** {
 576              		.loc 1 439 0
 577              		.cfi_startproc
 578              		@ args = 0, pretend = 0, frame = 8
 579              		@ frame_needed = 1, uses_anonymous_args = 0
 580 02f8 80B5     		push	{r7, lr}
 581              	.LCFI17:
 582              		.cfi_def_cfa_offset 8
 583              		.cfi_offset 14, -4
 584              		.cfi_offset 7, -8
 585 02fa 82B0     		sub	sp, sp, #8
 586              	.LCFI18:
 587              		.cfi_def_cfa_offset 16
 588 02fc 00AF     		add	r7, sp, #0
 589              	.LCFI19:
 590              		.cfi_def_cfa_register 7
 591 02fe 0346     		mov	r3, r0
 592 0300 FB71     		strb	r3, [r7, #7]
 440:../STM32F4-Discovery/stm32f4_discovery_audio_codec.c ****   /* Call the codec volume control function with converted volume value */
 441:../STM32F4-Discovery/stm32f4_discovery_audio_codec.c ****   return (Codec_VolumeCtrl(VOLUME_CONVERT(Volume)));
 593              		.loc 1 441 0
 594 0302 FB79     		ldrb	r3, [r7, #7]	@ zero_extendqisi2
 595 0304 642B     		cmp	r3, #100
 596 0306 11D8     		bhi	.L20
 597              		.loc 1 441 0 is_stmt 0 discriminator 1
 598 0308 FA79     		ldrb	r2, [r7, #7]	@ zero_extendqisi2
 599 030a 1346     		mov	r3, r2
 600 030c 4FEA0323 		lsl	r3, r3, #8
 601 0310 9A1A     		subs	r2, r3, r2
 602 0312 48F21F53 		movw	r3, #34079
 603 0316 C5F2EB13 		movt	r3, 20971
 604 031a 83FB0213 		smull	r1, r3, r3, r2
 605 031e 4FEA6311 		asr	r1, r3, #5
 606 0322 4FEAE273 		asr	r3, r2, #31
 607 0326 CB1A     		subs	r3, r1, r3
 608 0328 DBB2     		uxtb	r3, r3
 609 032a 01E0     		b	.L21
 610              	.L20:
 611              		.loc 1 441 0 discriminator 2
 612 032c 4FF06403 		mov	r3, #100
 613              	.L21:
 614              		.loc 1 441 0 discriminator 3
 615 0330 1846     		mov	r0, r3
 616 0332 00F07FFA 		bl	Codec_VolumeCtrl
 617 0336 0346     		mov	r3, r0
 442:../STM32F4-Discovery/stm32f4_discovery_audio_codec.c **** }
 618              		.loc 1 442 0 is_stmt 1 discriminator 3
 619 0338 1846     		mov	r0, r3
 620 033a 07F10807 		add	r7, r7, #8
 621 033e BD46     		mov	sp, r7
 622 0340 80BD     		pop	{r7, pc}
 623              		.cfi_endproc
 624              	.LFE116:
 626 0342 00BF     		.align	2
 627              		.global	EVAL_AUDIO_Mute
 628              		.thumb
 629              		.thumb_func
 631              	EVAL_AUDIO_Mute:
 632              	.LFB117:
 443:../STM32F4-Discovery/stm32f4_discovery_audio_codec.c **** 
 444:../STM32F4-Discovery/stm32f4_discovery_audio_codec.c **** /**
 445:../STM32F4-Discovery/stm32f4_discovery_audio_codec.c ****   * @brief  Enables or disables the MUTE mode by software 
 446:../STM32F4-Discovery/stm32f4_discovery_audio_codec.c ****   * @param  Command: could be AUDIO_MUTE_ON to mute sound or AUDIO_MUTE_OFF to 
 447:../STM32F4-Discovery/stm32f4_discovery_audio_codec.c ****   *         unmute the codec and restore previous volume level.
 448:../STM32F4-Discovery/stm32f4_discovery_audio_codec.c ****   * @retval 0 if correct communication, else wrong communication
 449:../STM32F4-Discovery/stm32f4_discovery_audio_codec.c ****   */
 450:../STM32F4-Discovery/stm32f4_discovery_audio_codec.c **** uint32_t EVAL_AUDIO_Mute(uint32_t Cmd)
 451:../STM32F4-Discovery/stm32f4_discovery_audio_codec.c **** { 
 633              		.loc 1 451 0
 634              		.cfi_startproc
 635              		@ args = 0, pretend = 0, frame = 8
 636              		@ frame_needed = 1, uses_anonymous_args = 0
 637 0344 80B5     		push	{r7, lr}
 638              	.LCFI20:
 639              		.cfi_def_cfa_offset 8
 640              		.cfi_offset 14, -4
 641              		.cfi_offset 7, -8
 642 0346 82B0     		sub	sp, sp, #8
 643              	.LCFI21:
 644              		.cfi_def_cfa_offset 16
 645 0348 00AF     		add	r7, sp, #0
 646              	.LCFI22:
 647              		.cfi_def_cfa_register 7
 648 034a 7860     		str	r0, [r7, #4]
 452:../STM32F4-Discovery/stm32f4_discovery_audio_codec.c ****   /* Call the Codec Mute function */
 453:../STM32F4-Discovery/stm32f4_discovery_audio_codec.c ****   return (Codec_Mute(Cmd));
 649              		.loc 1 453 0
 650 034c 7868     		ldr	r0, [r7, #4]
 651 034e 00F0B7FA 		bl	Codec_Mute
 652 0352 0346     		mov	r3, r0
 454:../STM32F4-Discovery/stm32f4_discovery_audio_codec.c **** }
 653              		.loc 1 454 0
 654 0354 1846     		mov	r0, r3
 655 0356 07F10807 		add	r7, r7, #8
 656 035a BD46     		mov	sp, r7
 657 035c 80BD     		pop	{r7, pc}
 658              		.cfi_endproc
 659              	.LFE117:
 661 035e 00BF     		.align	2
 662              		.thumb
 663              		.thumb_func
 665              	Audio_MAL_IRQHandler:
 666              	.LFB118:
 455:../STM32F4-Discovery/stm32f4_discovery_audio_codec.c **** 
 456:../STM32F4-Discovery/stm32f4_discovery_audio_codec.c **** /**
 457:../STM32F4-Discovery/stm32f4_discovery_audio_codec.c ****   * @brief  This function handles main Media layer interrupt. 
 458:../STM32F4-Discovery/stm32f4_discovery_audio_codec.c ****   * @param  None
 459:../STM32F4-Discovery/stm32f4_discovery_audio_codec.c ****   * @retval 0 if correct communication, else wrong communication
 460:../STM32F4-Discovery/stm32f4_discovery_audio_codec.c ****   */
 461:../STM32F4-Discovery/stm32f4_discovery_audio_codec.c **** static void Audio_MAL_IRQHandler(void)
 462:../STM32F4-Discovery/stm32f4_discovery_audio_codec.c **** {    
 667              		.loc 1 462 0
 668              		.cfi_startproc
 669              		@ args = 0, pretend = 0, frame = 0
 670              		@ frame_needed = 1, uses_anonymous_args = 0
 671 0360 80B5     		push	{r7, lr}
 672              	.LCFI23:
 673              		.cfi_def_cfa_offset 8
 674              		.cfi_offset 14, -4
 675              		.cfi_offset 7, -8
 676 0362 00AF     		add	r7, sp, #0
 677              	.LCFI24:
 678              		.cfi_def_cfa_register 7
 463:../STM32F4-Discovery/stm32f4_discovery_audio_codec.c **** #ifndef AUDIO_MAL_MODE_NORMAL
 464:../STM32F4-Discovery/stm32f4_discovery_audio_codec.c ****   uint16_t *pAddr = (uint16_t *)CurrentPos;
 465:../STM32F4-Discovery/stm32f4_discovery_audio_codec.c ****   uint32_t Size = AudioRemSize;
 466:../STM32F4-Discovery/stm32f4_discovery_audio_codec.c **** #endif /* AUDIO_MAL_MODE_NORMAL */
 467:../STM32F4-Discovery/stm32f4_discovery_audio_codec.c ****   
 468:../STM32F4-Discovery/stm32f4_discovery_audio_codec.c **** #ifdef AUDIO_MAL_DMA_IT_TC_EN
 469:../STM32F4-Discovery/stm32f4_discovery_audio_codec.c ****   /* Transfer complete interrupt */
 470:../STM32F4-Discovery/stm32f4_discovery_audio_codec.c ****   if (DMA_GetFlagStatus(AUDIO_MAL_DMA_STREAM, AUDIO_MAL_DMA_FLAG_TC) != RESET)
 679              		.loc 1 470 0
 680 0364 40F20003 		movw	r3, #:lower16:AUDIO_MAL_DMA_STREAM
 681 0368 C0F20003 		movt	r3, #:upper16:AUDIO_MAL_DMA_STREAM
 682 036c 1A68     		ldr	r2, [r3, #0]
 683 036e 40F20003 		movw	r3, #:lower16:AUDIO_MAL_DMA_FLAG_TC
 684 0372 C0F20003 		movt	r3, #:upper16:AUDIO_MAL_DMA_FLAG_TC
 685 0376 1B68     		ldr	r3, [r3, #0]
 686 0378 1046     		mov	r0, r2
 687 037a 1946     		mov	r1, r3
 688 037c FFF7FEFF 		bl	DMA_GetFlagStatus
 689 0380 0346     		mov	r3, r0
 690 0382 002B     		cmp	r3, #0
 691 0384 00F0AB80 		beq	.L23
 471:../STM32F4-Discovery/stm32f4_discovery_audio_codec.c ****   {         
 472:../STM32F4-Discovery/stm32f4_discovery_audio_codec.c ****  #ifdef AUDIO_MAL_MODE_NORMAL
 473:../STM32F4-Discovery/stm32f4_discovery_audio_codec.c ****     /* Check if the end of file has been reached */
 474:../STM32F4-Discovery/stm32f4_discovery_audio_codec.c ****     if (AudioRemSize > 0)
 692              		.loc 1 474 0
 693 0388 40F20003 		movw	r3, #:lower16:AudioRemSize
 694 038c C0F20003 		movt	r3, #:upper16:AudioRemSize
 695 0390 1B68     		ldr	r3, [r3, #0]
 696 0392 002B     		cmp	r3, #0
 697 0394 00F08180 		beq	.L25
 475:../STM32F4-Discovery/stm32f4_discovery_audio_codec.c ****     {      
 476:../STM32F4-Discovery/stm32f4_discovery_audio_codec.c ****       /* Wait the DMA Stream to be effectively disabled */
 477:../STM32F4-Discovery/stm32f4_discovery_audio_codec.c ****       while (DMA_GetCmdStatus(AUDIO_MAL_DMA_STREAM) != DISABLE)
 698              		.loc 1 477 0
 699 0398 00BF     		nop
 700              	.L26:
 701              		.loc 1 477 0 is_stmt 0 discriminator 1
 702 039a 40F20003 		movw	r3, #:lower16:AUDIO_MAL_DMA_STREAM
 703 039e C0F20003 		movt	r3, #:upper16:AUDIO_MAL_DMA_STREAM
 704 03a2 1B68     		ldr	r3, [r3, #0]
 705 03a4 1846     		mov	r0, r3
 706 03a6 FFF7FEFF 		bl	DMA_GetCmdStatus
 707 03aa 0346     		mov	r3, r0
 708 03ac 002B     		cmp	r3, #0
 709 03ae F4D1     		bne	.L26
 478:../STM32F4-Discovery/stm32f4_discovery_audio_codec.c ****       {}
 479:../STM32F4-Discovery/stm32f4_discovery_audio_codec.c ****       
 480:../STM32F4-Discovery/stm32f4_discovery_audio_codec.c ****       /* Clear the Interrupt flag */
 481:../STM32F4-Discovery/stm32f4_discovery_audio_codec.c ****       DMA_ClearFlag(AUDIO_MAL_DMA_STREAM, AUDIO_MAL_DMA_FLAG_TC); 
 710              		.loc 1 481 0 is_stmt 1
 711 03b0 40F20003 		movw	r3, #:lower16:AUDIO_MAL_DMA_STREAM
 712 03b4 C0F20003 		movt	r3, #:upper16:AUDIO_MAL_DMA_STREAM
 713 03b8 1A68     		ldr	r2, [r3, #0]
 714 03ba 40F20003 		movw	r3, #:lower16:AUDIO_MAL_DMA_FLAG_TC
 715 03be C0F20003 		movt	r3, #:upper16:AUDIO_MAL_DMA_FLAG_TC
 716 03c2 1B68     		ldr	r3, [r3, #0]
 717 03c4 1046     		mov	r0, r2
 718 03c6 1946     		mov	r1, r3
 719 03c8 FFF7FEFF 		bl	DMA_ClearFlag
 482:../STM32F4-Discovery/stm32f4_discovery_audio_codec.c ****            
 483:../STM32F4-Discovery/stm32f4_discovery_audio_codec.c ****       /* Re-Configure the buffer address and size */
 484:../STM32F4-Discovery/stm32f4_discovery_audio_codec.c ****       DMA_InitStructure.DMA_Memory0BaseAddr = (uint32_t) CurrentPos;
 720              		.loc 1 484 0
 721 03cc 40F20003 		movw	r3, #:lower16:CurrentPos
 722 03d0 C0F20003 		movt	r3, #:upper16:CurrentPos
 723 03d4 1B68     		ldr	r3, [r3, #0]
 724 03d6 1A46     		mov	r2, r3
 725 03d8 40F20003 		movw	r3, #:lower16:DMA_InitStructure
 726 03dc C0F20003 		movt	r3, #:upper16:DMA_InitStructure
 727 03e0 9A60     		str	r2, [r3, #8]
 485:../STM32F4-Discovery/stm32f4_discovery_audio_codec.c ****       DMA_InitStructure.DMA_BufferSize = (uint32_t) (DMA_MAX(AudioRemSize));
 728              		.loc 1 485 0
 729 03e2 40F20003 		movw	r3, #:lower16:AudioRemSize
 730 03e6 C0F20003 		movt	r3, #:upper16:AudioRemSize
 731 03ea 1A68     		ldr	r2, [r3, #0]
 732 03ec 4FF6FF73 		movw	r3, #65535
 733 03f0 9A42     		cmp	r2, r3
 734 03f2 28BF     		it	cs
 735 03f4 1A46     		movcs	r2, r3
 736 03f6 40F20003 		movw	r3, #:lower16:DMA_InitStructure
 737 03fa C0F20003 		movt	r3, #:upper16:DMA_InitStructure
 738 03fe 1A61     		str	r2, [r3, #16]
 486:../STM32F4-Discovery/stm32f4_discovery_audio_codec.c ****             
 487:../STM32F4-Discovery/stm32f4_discovery_audio_codec.c ****       /* Configure the DMA Stream with the new parameters */
 488:../STM32F4-Discovery/stm32f4_discovery_audio_codec.c ****       DMA_Init(AUDIO_MAL_DMA_STREAM, &DMA_InitStructure);
 739              		.loc 1 488 0
 740 0400 40F20003 		movw	r3, #:lower16:AUDIO_MAL_DMA_STREAM
 741 0404 C0F20003 		movt	r3, #:upper16:AUDIO_MAL_DMA_STREAM
 742 0408 1B68     		ldr	r3, [r3, #0]
 743 040a 1846     		mov	r0, r3
 744 040c 40F20001 		movw	r1, #:lower16:DMA_InitStructure
 745 0410 C0F20001 		movt	r1, #:upper16:DMA_InitStructure
 746 0414 FFF7FEFF 		bl	DMA_Init
 489:../STM32F4-Discovery/stm32f4_discovery_audio_codec.c ****       
 490:../STM32F4-Discovery/stm32f4_discovery_audio_codec.c ****       /* Enable the I2S DMA Stream*/
 491:../STM32F4-Discovery/stm32f4_discovery_audio_codec.c ****       DMA_Cmd(AUDIO_MAL_DMA_STREAM, ENABLE);    
 747              		.loc 1 491 0
 748 0418 40F20003 		movw	r3, #:lower16:AUDIO_MAL_DMA_STREAM
 749 041c C0F20003 		movt	r3, #:upper16:AUDIO_MAL_DMA_STREAM
 750 0420 1B68     		ldr	r3, [r3, #0]
 751 0422 1846     		mov	r0, r3
 752 0424 4FF00101 		mov	r1, #1
 753 0428 FFF7FEFF 		bl	DMA_Cmd
 492:../STM32F4-Discovery/stm32f4_discovery_audio_codec.c ****       
 493:../STM32F4-Discovery/stm32f4_discovery_audio_codec.c ****       /* Update the current pointer position */
 494:../STM32F4-Discovery/stm32f4_discovery_audio_codec.c ****       CurrentPos += DMA_MAX(AudioRemSize);        
 754              		.loc 1 494 0
 755 042c 40F20003 		movw	r3, #:lower16:CurrentPos
 756 0430 C0F20003 		movt	r3, #:upper16:CurrentPos
 757 0434 1A68     		ldr	r2, [r3, #0]
 758 0436 40F20003 		movw	r3, #:lower16:AudioRemSize
 759 043a C0F20003 		movt	r3, #:upper16:AudioRemSize
 760 043e 1968     		ldr	r1, [r3, #0]
 761 0440 4FF6FF73 		movw	r3, #65535
 762 0444 9942     		cmp	r1, r3
 763 0446 38BF     		it	cc
 764 0448 0B46     		movcc	r3, r1
 765 044a 4FEA4303 		lsl	r3, r3, #1
 766 044e D218     		adds	r2, r2, r3
 767 0450 40F20003 		movw	r3, #:lower16:CurrentPos
 768 0454 C0F20003 		movt	r3, #:upper16:CurrentPos
 769 0458 1A60     		str	r2, [r3, #0]
 495:../STM32F4-Discovery/stm32f4_discovery_audio_codec.c ****       
 496:../STM32F4-Discovery/stm32f4_discovery_audio_codec.c ****       /* Update the remaining number of data to be played */
 497:../STM32F4-Discovery/stm32f4_discovery_audio_codec.c ****       AudioRemSize -= DMA_MAX(AudioRemSize);   
 770              		.loc 1 497 0
 771 045a 40F20003 		movw	r3, #:lower16:AudioRemSize
 772 045e C0F20003 		movt	r3, #:upper16:AudioRemSize
 773 0462 1A68     		ldr	r2, [r3, #0]
 774 0464 40F20003 		movw	r3, #:lower16:AudioRemSize
 775 0468 C0F20003 		movt	r3, #:upper16:AudioRemSize
 776 046c 1968     		ldr	r1, [r3, #0]
 777 046e 4FF6FF73 		movw	r3, #65535
 778 0472 9942     		cmp	r1, r3
 779 0474 38BF     		it	cc
 780 0476 0B46     		movcc	r3, r1
 781 0478 D21A     		subs	r2, r2, r3
 782 047a 40F20003 		movw	r3, #:lower16:AudioRemSize
 783 047e C0F20003 		movt	r3, #:upper16:AudioRemSize
 784 0482 1A60     		str	r2, [r3, #0]
 498:../STM32F4-Discovery/stm32f4_discovery_audio_codec.c ****         /* Enable the I2S DMA Stream*/
 499:../STM32F4-Discovery/stm32f4_discovery_audio_codec.c ****       DMA_Cmd(AUDIO_MAL_DMA_STREAM, ENABLE); 
 785              		.loc 1 499 0
 786 0484 40F20003 		movw	r3, #:lower16:AUDIO_MAL_DMA_STREAM
 787 0488 C0F20003 		movt	r3, #:upper16:AUDIO_MAL_DMA_STREAM
 788 048c 1B68     		ldr	r3, [r3, #0]
 789 048e 1846     		mov	r0, r3
 790 0490 4FF00101 		mov	r1, #1
 791 0494 FFF7FEFF 		bl	DMA_Cmd
 792 0498 21E0     		b	.L23
 793              	.L25:
 500:../STM32F4-Discovery/stm32f4_discovery_audio_codec.c ****     }
 501:../STM32F4-Discovery/stm32f4_discovery_audio_codec.c ****     else
 502:../STM32F4-Discovery/stm32f4_discovery_audio_codec.c ****     {
 503:../STM32F4-Discovery/stm32f4_discovery_audio_codec.c ****       /* Disable the I2S DMA Stream*/
 504:../STM32F4-Discovery/stm32f4_discovery_audio_codec.c ****       DMA_Cmd(AUDIO_MAL_DMA_STREAM, DISABLE);   
 794              		.loc 1 504 0
 795 049a 40F20003 		movw	r3, #:lower16:AUDIO_MAL_DMA_STREAM
 796 049e C0F20003 		movt	r3, #:upper16:AUDIO_MAL_DMA_STREAM
 797 04a2 1B68     		ldr	r3, [r3, #0]
 798 04a4 1846     		mov	r0, r3
 799 04a6 4FF00001 		mov	r1, #0
 800 04aa FFF7FEFF 		bl	DMA_Cmd
 505:../STM32F4-Discovery/stm32f4_discovery_audio_codec.c ****       
 506:../STM32F4-Discovery/stm32f4_discovery_audio_codec.c ****       /* Clear the Interrupt flag */
 507:../STM32F4-Discovery/stm32f4_discovery_audio_codec.c ****       DMA_ClearFlag(AUDIO_MAL_DMA_STREAM, AUDIO_MAL_DMA_FLAG_TC);       
 801              		.loc 1 507 0
 802 04ae 40F20003 		movw	r3, #:lower16:AUDIO_MAL_DMA_STREAM
 803 04b2 C0F20003 		movt	r3, #:upper16:AUDIO_MAL_DMA_STREAM
 804 04b6 1A68     		ldr	r2, [r3, #0]
 805 04b8 40F20003 		movw	r3, #:lower16:AUDIO_MAL_DMA_FLAG_TC
 806 04bc C0F20003 		movt	r3, #:upper16:AUDIO_MAL_DMA_FLAG_TC
 807 04c0 1B68     		ldr	r3, [r3, #0]
 808 04c2 1046     		mov	r0, r2
 809 04c4 1946     		mov	r1, r3
 810 04c6 FFF7FEFF 		bl	DMA_ClearFlag
 508:../STM32F4-Discovery/stm32f4_discovery_audio_codec.c ****       
 509:../STM32F4-Discovery/stm32f4_discovery_audio_codec.c ****       /* Manage the remaining file size and new address offset: This function 
 510:../STM32F4-Discovery/stm32f4_discovery_audio_codec.c ****       should be coded by user (its prototype is already declared in stm32f4_discovery_audio_codec.h
 511:../STM32F4-Discovery/stm32f4_discovery_audio_codec.c ****       EVAL_AUDIO_TransferComplete_CallBack((uint32_t)CurrentPos, 0);       
 811              		.loc 1 511 0
 812 04ca 40F20003 		movw	r3, #:lower16:CurrentPos
 813 04ce C0F20003 		movt	r3, #:upper16:CurrentPos
 814 04d2 1B68     		ldr	r3, [r3, #0]
 815 04d4 1846     		mov	r0, r3
 816 04d6 4FF00001 		mov	r1, #0
 817 04da FFF7FEFF 		bl	EVAL_AUDIO_TransferComplete_CallBack
 818              	.L23:
 512:../STM32F4-Discovery/stm32f4_discovery_audio_codec.c ****     }
 513:../STM32F4-Discovery/stm32f4_discovery_audio_codec.c ****     
 514:../STM32F4-Discovery/stm32f4_discovery_audio_codec.c ****  #elif defined(AUDIO_MAL_MODE_CIRCULAR)
 515:../STM32F4-Discovery/stm32f4_discovery_audio_codec.c ****     /* Manage the remaining file size and new address offset: This function 
 516:../STM32F4-Discovery/stm32f4_discovery_audio_codec.c ****        should be coded by user (its prototype is already declared in stm32f4_discovery_audio_codec.
 517:../STM32F4-Discovery/stm32f4_discovery_audio_codec.c ****     EVAL_AUDIO_TransferComplete_CallBack(pAddr, Size);    
 518:../STM32F4-Discovery/stm32f4_discovery_audio_codec.c ****     
 519:../STM32F4-Discovery/stm32f4_discovery_audio_codec.c ****     /* Clear the Interrupt flag */
 520:../STM32F4-Discovery/stm32f4_discovery_audio_codec.c ****     DMA_ClearFlag(AUDIO_MAL_DMA_STREAM, AUDIO_MAL_DMA_FLAG_TC);
 521:../STM32F4-Discovery/stm32f4_discovery_audio_codec.c ****  #endif /* AUDIO_MAL_MODE_NORMAL */  
 522:../STM32F4-Discovery/stm32f4_discovery_audio_codec.c ****   }
 523:../STM32F4-Discovery/stm32f4_discovery_audio_codec.c **** #endif /* AUDIO_MAL_DMA_IT_TC_EN */
 524:../STM32F4-Discovery/stm32f4_discovery_audio_codec.c **** 
 525:../STM32F4-Discovery/stm32f4_discovery_audio_codec.c **** #ifdef AUDIO_MAL_DMA_IT_HT_EN  
 526:../STM32F4-Discovery/stm32f4_discovery_audio_codec.c ****   /* Half Transfer complete interrupt */
 527:../STM32F4-Discovery/stm32f4_discovery_audio_codec.c ****   if (DMA_GetFlagStatus(AUDIO_MAL_DMA_STREAM, AUDIO_MAL_DMA_FLAG_HT) != RESET)
 528:../STM32F4-Discovery/stm32f4_discovery_audio_codec.c ****   {
 529:../STM32F4-Discovery/stm32f4_discovery_audio_codec.c ****     /* Manage the remaining file size and new address offset: This function 
 530:../STM32F4-Discovery/stm32f4_discovery_audio_codec.c ****        should be coded by user (its prototype is already declared in stm32f4_discovery_audio_codec.
 531:../STM32F4-Discovery/stm32f4_discovery_audio_codec.c ****     EVAL_AUDIO_HalfTransfer_CallBack((uint32_t)pAddr, Size);    
 532:../STM32F4-Discovery/stm32f4_discovery_audio_codec.c ****    
 533:../STM32F4-Discovery/stm32f4_discovery_audio_codec.c ****     /* Clear the Interrupt flag */
 534:../STM32F4-Discovery/stm32f4_discovery_audio_codec.c ****     DMA_ClearFlag(AUDIO_MAL_DMA_STREAM, AUDIO_MAL_DMA_FLAG_HT);    
 535:../STM32F4-Discovery/stm32f4_discovery_audio_codec.c ****   }
 536:../STM32F4-Discovery/stm32f4_discovery_audio_codec.c **** #endif /* AUDIO_MAL_DMA_IT_HT_EN */
 537:../STM32F4-Discovery/stm32f4_discovery_audio_codec.c ****   
 538:../STM32F4-Discovery/stm32f4_discovery_audio_codec.c **** #ifdef AUDIO_MAL_DMA_IT_TE_EN  
 539:../STM32F4-Discovery/stm32f4_discovery_audio_codec.c ****   /* FIFO Error interrupt */
 540:../STM32F4-Discovery/stm32f4_discovery_audio_codec.c ****   if ((DMA_GetFlagStatus(AUDIO_MAL_DMA_STREAM, AUDIO_MAL_DMA_FLAG_TE) != RESET) || \
 541:../STM32F4-Discovery/stm32f4_discovery_audio_codec.c ****      (DMA_GetFlagStatus(AUDIO_MAL_DMA_STREAM, AUDIO_MAL_DMA_FLAG_FE) != RESET) || \
 542:../STM32F4-Discovery/stm32f4_discovery_audio_codec.c ****      (DMA_GetFlagStatus(AUDIO_MAL_DMA_STREAM, AUDIO_MAL_DMA_FLAG_DME) != RESET))
 543:../STM32F4-Discovery/stm32f4_discovery_audio_codec.c ****     
 544:../STM32F4-Discovery/stm32f4_discovery_audio_codec.c ****   {
 545:../STM32F4-Discovery/stm32f4_discovery_audio_codec.c ****     /* Manage the error generated on DMA FIFO: This function 
 546:../STM32F4-Discovery/stm32f4_discovery_audio_codec.c ****        should be coded by user (its prototype is already declared in stm32f4_discovery_audio_codec.
 547:../STM32F4-Discovery/stm32f4_discovery_audio_codec.c ****     EVAL_AUDIO_Error_CallBack((uint32_t*)&pAddr);    
 548:../STM32F4-Discovery/stm32f4_discovery_audio_codec.c ****     
 549:../STM32F4-Discovery/stm32f4_discovery_audio_codec.c ****     /* Clear the Interrupt flag */
 550:../STM32F4-Discovery/stm32f4_discovery_audio_codec.c ****     DMA_ClearFlag(AUDIO_MAL_DMA_STREAM, AUDIO_MAL_DMA_FLAG_TE | AUDIO_MAL_DMA_FLAG_FE | \
 551:../STM32F4-Discovery/stm32f4_discovery_audio_codec.c ****                                         AUDIO_MAL_DMA_FLAG_DME);
 552:../STM32F4-Discovery/stm32f4_discovery_audio_codec.c ****   }  
 553:../STM32F4-Discovery/stm32f4_discovery_audio_codec.c **** #endif /* AUDIO_MAL_DMA_IT_TE_EN */
 554:../STM32F4-Discovery/stm32f4_discovery_audio_codec.c **** }
 819              		.loc 1 554 0
 820 04de 80BD     		pop	{r7, pc}
 821              		.cfi_endproc
 822              	.LFE118:
 824              		.align	2
 825              		.global	DMA1_Stream7_IRQHandler
 826              		.thumb
 827              		.thumb_func
 829              	DMA1_Stream7_IRQHandler:
 830              	.LFB119:
 555:../STM32F4-Discovery/stm32f4_discovery_audio_codec.c **** 
 556:../STM32F4-Discovery/stm32f4_discovery_audio_codec.c **** /**
 557:../STM32F4-Discovery/stm32f4_discovery_audio_codec.c ****   * @brief  This function handles main I2S interrupt. 
 558:../STM32F4-Discovery/stm32f4_discovery_audio_codec.c ****   * @param  None
 559:../STM32F4-Discovery/stm32f4_discovery_audio_codec.c ****   * @retval 0 if correct communication, else wrong communication
 560:../STM32F4-Discovery/stm32f4_discovery_audio_codec.c ****   */
 561:../STM32F4-Discovery/stm32f4_discovery_audio_codec.c **** void Audio_MAL_I2S_IRQHandler(void)
 562:../STM32F4-Discovery/stm32f4_discovery_audio_codec.c **** { 
 831              		.loc 1 562 0
 832              		.cfi_startproc
 833              		@ args = 0, pretend = 0, frame = 0
 834              		@ frame_needed = 1, uses_anonymous_args = 0
 835 04e0 80B5     		push	{r7, lr}
 836              	.LCFI25:
 837              		.cfi_def_cfa_offset 8
 838              		.cfi_offset 14, -4
 839              		.cfi_offset 7, -8
 840 04e2 00AF     		add	r7, sp, #0
 841              	.LCFI26:
 842              		.cfi_def_cfa_register 7
 563:../STM32F4-Discovery/stm32f4_discovery_audio_codec.c ****   Audio_MAL_IRQHandler();
 843              		.loc 1 563 0
 844 04e4 FFF73CFF 		bl	Audio_MAL_IRQHandler
 564:../STM32F4-Discovery/stm32f4_discovery_audio_codec.c **** }
 845              		.loc 1 564 0
 846 04e8 80BD     		pop	{r7, pc}
 847              		.cfi_endproc
 848              	.LFE119:
 850 04ea 00BF     		.align	2
 851              		.global	DMA1_Stream0_IRQHandler
 852              		.thumb
 853              		.thumb_func
 855              	DMA1_Stream0_IRQHandler:
 856              	.LFB120:
 565:../STM32F4-Discovery/stm32f4_discovery_audio_codec.c **** 
 566:../STM32F4-Discovery/stm32f4_discovery_audio_codec.c **** /**
 567:../STM32F4-Discovery/stm32f4_discovery_audio_codec.c ****   * @brief  This function handles main DAC interrupt. 
 568:../STM32F4-Discovery/stm32f4_discovery_audio_codec.c ****   * @param  None
 569:../STM32F4-Discovery/stm32f4_discovery_audio_codec.c ****   * @retval 0 if correct communication, else wrong communication
 570:../STM32F4-Discovery/stm32f4_discovery_audio_codec.c ****   */
 571:../STM32F4-Discovery/stm32f4_discovery_audio_codec.c **** void Audio_MAL_DAC_IRQHandler(void)
 572:../STM32F4-Discovery/stm32f4_discovery_audio_codec.c **** { 
 857              		.loc 1 572 0
 858              		.cfi_startproc
 859              		@ args = 0, pretend = 0, frame = 0
 860              		@ frame_needed = 1, uses_anonymous_args = 0
 861 04ec 80B5     		push	{r7, lr}
 862              	.LCFI27:
 863              		.cfi_def_cfa_offset 8
 864              		.cfi_offset 14, -4
 865              		.cfi_offset 7, -8
 866 04ee 00AF     		add	r7, sp, #0
 867              	.LCFI28:
 868              		.cfi_def_cfa_register 7
 573:../STM32F4-Discovery/stm32f4_discovery_audio_codec.c ****   Audio_MAL_IRQHandler();
 869              		.loc 1 573 0
 870 04f0 FFF736FF 		bl	Audio_MAL_IRQHandler
 574:../STM32F4-Discovery/stm32f4_discovery_audio_codec.c **** }
 871              		.loc 1 574 0
 872 04f4 80BD     		pop	{r7, pc}
 873              		.cfi_endproc
 874              	.LFE120:
 876 04f6 00BF     		.align	2
 877              		.global	SPI3_IRQHandler
 878              		.thumb
 879              		.thumb_func
 881              	SPI3_IRQHandler:
 882              	.LFB121:
 575:../STM32F4-Discovery/stm32f4_discovery_audio_codec.c **** 
 576:../STM32F4-Discovery/stm32f4_discovery_audio_codec.c **** /**
 577:../STM32F4-Discovery/stm32f4_discovery_audio_codec.c ****   * @brief  I2S interrupt management
 578:../STM32F4-Discovery/stm32f4_discovery_audio_codec.c ****   * @param  None
 579:../STM32F4-Discovery/stm32f4_discovery_audio_codec.c ****   * @retval None
 580:../STM32F4-Discovery/stm32f4_discovery_audio_codec.c ****   */
 581:../STM32F4-Discovery/stm32f4_discovery_audio_codec.c **** void Audio_I2S_IRQHandler(void)
 582:../STM32F4-Discovery/stm32f4_discovery_audio_codec.c **** {
 883              		.loc 1 582 0
 884              		.cfi_startproc
 885              		@ args = 0, pretend = 0, frame = 0
 886              		@ frame_needed = 1, uses_anonymous_args = 0
 887 04f8 80B5     		push	{r7, lr}
 888              	.LCFI29:
 889              		.cfi_def_cfa_offset 8
 890              		.cfi_offset 14, -4
 891              		.cfi_offset 7, -8
 892 04fa 00AF     		add	r7, sp, #0
 893              	.LCFI30:
 894              		.cfi_def_cfa_register 7
 583:../STM32F4-Discovery/stm32f4_discovery_audio_codec.c ****   /* Check on the I2S TXE flag */  
 584:../STM32F4-Discovery/stm32f4_discovery_audio_codec.c ****   if (SPI_I2S_GetFlagStatus(SPI3, SPI_I2S_FLAG_TXE) != RESET)
 895              		.loc 1 584 0
 896 04fc 4FF47050 		mov	r0, #15360
 897 0500 C4F20000 		movt	r0, 16384
 898 0504 4FF00201 		mov	r1, #2
 899 0508 FFF7FEFF 		bl	SPI_I2S_GetFlagStatus
 900 050c 0346     		mov	r3, r0
 901 050e 002B     		cmp	r3, #0
 902 0510 18D0     		beq	.L29
 585:../STM32F4-Discovery/stm32f4_discovery_audio_codec.c ****   { 
 586:../STM32F4-Discovery/stm32f4_discovery_audio_codec.c ****     if (CurrAudioInterface == AUDIO_INTERFACE_DAC)
 903              		.loc 1 586 0
 904 0512 40F20003 		movw	r3, #:lower16:CurrAudioInterface
 905 0516 C0F20003 		movt	r3, #:upper16:CurrAudioInterface
 906 051a 1B68     		ldr	r3, [r3, #0]
 907 051c 022B     		cmp	r3, #2
 908 051e 07D1     		bne	.L31
 587:../STM32F4-Discovery/stm32f4_discovery_audio_codec.c ****     {
 588:../STM32F4-Discovery/stm32f4_discovery_audio_codec.c ****       /* Wirte data to the DAC interface */
 589:../STM32F4-Discovery/stm32f4_discovery_audio_codec.c ****       DAC_SetChannel1Data(DAC_Align_12b_L, EVAL_AUDIO_GetSampleCallBack()); 
 909              		.loc 1 589 0
 910 0520 FFF7FEFF 		bl	EVAL_AUDIO_GetSampleCallBack
 911 0524 0346     		mov	r3, r0
 912 0526 4FF00400 		mov	r0, #4
 913 052a 1946     		mov	r1, r3
 914 052c FFF7FEFF 		bl	DAC_SetChannel1Data
 915              	.L31:
 590:../STM32F4-Discovery/stm32f4_discovery_audio_codec.c ****     }
 591:../STM32F4-Discovery/stm32f4_discovery_audio_codec.c ****     
 592:../STM32F4-Discovery/stm32f4_discovery_audio_codec.c ****     /* Send dummy data on I2S to avoid the underrun condition */
 593:../STM32F4-Discovery/stm32f4_discovery_audio_codec.c ****     SPI_I2S_SendData(CODEC_I2S, EVAL_AUDIO_GetSampleCallBack()); 
 916              		.loc 1 593 0
 917 0530 FFF7FEFF 		bl	EVAL_AUDIO_GetSampleCallBack
 918 0534 0346     		mov	r3, r0
 919 0536 4FF47050 		mov	r0, #15360
 920 053a C4F20000 		movt	r0, 16384
 921 053e 1946     		mov	r1, r3
 922 0540 FFF7FEFF 		bl	SPI_I2S_SendData
 923              	.L29:
 594:../STM32F4-Discovery/stm32f4_discovery_audio_codec.c ****   }
 595:../STM32F4-Discovery/stm32f4_discovery_audio_codec.c **** }
 924              		.loc 1 595 0
 925 0544 80BD     		pop	{r7, pc}
 926              		.cfi_endproc
 927              	.LFE121:
 929 0546 00BF     		.align	2
 930              		.thumb
 931              		.thumb_func
 933              	Codec_Init:
 934              	.LFB122:
 596:../STM32F4-Discovery/stm32f4_discovery_audio_codec.c **** /*========================
 597:../STM32F4-Discovery/stm32f4_discovery_audio_codec.c **** 
 598:../STM32F4-Discovery/stm32f4_discovery_audio_codec.c ****                 CS43L22 Audio Codec Control Functions
 599:../STM32F4-Discovery/stm32f4_discovery_audio_codec.c ****                                                 ==============================*/
 600:../STM32F4-Discovery/stm32f4_discovery_audio_codec.c **** /**
 601:../STM32F4-Discovery/stm32f4_discovery_audio_codec.c ****   * @brief  Initializes the audio codec and all related interfaces (control 
 602:../STM32F4-Discovery/stm32f4_discovery_audio_codec.c ****   *         interface: I2C and audio interface: I2S)
 603:../STM32F4-Discovery/stm32f4_discovery_audio_codec.c ****   * @param  OutputDevice: can be OUTPUT_DEVICE_SPEAKER, OUTPUT_DEVICE_HEADPHONE,
 604:../STM32F4-Discovery/stm32f4_discovery_audio_codec.c ****   *                       OUTPUT_DEVICE_BOTH or OUTPUT_DEVICE_AUTO .
 605:../STM32F4-Discovery/stm32f4_discovery_audio_codec.c ****   * @param  Volume: Initial volume level (from 0 (Mute) to 100 (Max))
 606:../STM32F4-Discovery/stm32f4_discovery_audio_codec.c ****   * @param  AudioFreq: Audio frequency used to play the audio stream.
 607:../STM32F4-Discovery/stm32f4_discovery_audio_codec.c ****   * @retval 0 if correct communication, else wrong communication
 608:../STM32F4-Discovery/stm32f4_discovery_audio_codec.c ****   */
 609:../STM32F4-Discovery/stm32f4_discovery_audio_codec.c **** static uint32_t Codec_Init(uint16_t OutputDevice, uint8_t Volume, uint32_t AudioFreq)
 610:../STM32F4-Discovery/stm32f4_discovery_audio_codec.c **** {
 935              		.loc 1 610 0
 936              		.cfi_startproc
 937              		@ args = 0, pretend = 0, frame = 16
 938              		@ frame_needed = 1, uses_anonymous_args = 0
 939 0548 80B5     		push	{r7, lr}
 940              	.LCFI31:
 941              		.cfi_def_cfa_offset 8
 942              		.cfi_offset 14, -4
 943              		.cfi_offset 7, -8
 944 054a 84B0     		sub	sp, sp, #16
 945              	.LCFI32:
 946              		.cfi_def_cfa_offset 24
 947 054c 00AF     		add	r7, sp, #0
 948              	.LCFI33:
 949              		.cfi_def_cfa_register 7
 950 054e 0B46     		mov	r3, r1
 951 0550 3A60     		str	r2, [r7, #0]
 952 0552 0246     		mov	r2, r0	@ movhi
 953 0554 FA80     		strh	r2, [r7, #6]	@ movhi
 954 0556 7B71     		strb	r3, [r7, #5]
 611:../STM32F4-Discovery/stm32f4_discovery_audio_codec.c ****   uint32_t counter = 0; 
 955              		.loc 1 611 0
 956 0558 4FF00003 		mov	r3, #0
 957 055c FB60     		str	r3, [r7, #12]
 612:../STM32F4-Discovery/stm32f4_discovery_audio_codec.c **** 
 613:../STM32F4-Discovery/stm32f4_discovery_audio_codec.c ****   /* Configure the Codec related IOs */
 614:../STM32F4-Discovery/stm32f4_discovery_audio_codec.c ****   Codec_GPIO_Init();   
 958              		.loc 1 614 0
 959 055e 00F07FFD 		bl	Codec_GPIO_Init
 615:../STM32F4-Discovery/stm32f4_discovery_audio_codec.c ****   
 616:../STM32F4-Discovery/stm32f4_discovery_audio_codec.c ****   /* Reset the Codec Registers */
 617:../STM32F4-Discovery/stm32f4_discovery_audio_codec.c ****   Codec_Reset();
 960              		.loc 1 617 0
 961 0562 00F0D7F9 		bl	Codec_Reset
 618:../STM32F4-Discovery/stm32f4_discovery_audio_codec.c **** 
 619:../STM32F4-Discovery/stm32f4_discovery_audio_codec.c ****   /* Initialize the Control interface of the Audio Codec */
 620:../STM32F4-Discovery/stm32f4_discovery_audio_codec.c ****   Codec_CtrlInterface_Init();     
 962              		.loc 1 620 0
 963 0566 00F0D3FC 		bl	Codec_CtrlInterface_Init
 621:../STM32F4-Discovery/stm32f4_discovery_audio_codec.c ****   
 622:../STM32F4-Discovery/stm32f4_discovery_audio_codec.c ****   /* Keep Codec powered OFF */
 623:../STM32F4-Discovery/stm32f4_discovery_audio_codec.c ****   counter += Codec_WriteRegister(0x02, 0x01);  
 964              		.loc 1 623 0
 965 056a 4FF00200 		mov	r0, #2
 966 056e 4FF00101 		mov	r1, #1
 967 0572 00F0EBF9 		bl	Codec_WriteRegister
 968 0576 0346     		mov	r3, r0
 969 0578 FA68     		ldr	r2, [r7, #12]
 970 057a D318     		adds	r3, r2, r3
 971 057c FB60     		str	r3, [r7, #12]
 624:../STM32F4-Discovery/stm32f4_discovery_audio_codec.c ****       
 625:../STM32F4-Discovery/stm32f4_discovery_audio_codec.c ****   counter += Codec_WriteRegister(0x04, 0xAF); /* SPK always OFF & HP always ON */
 972              		.loc 1 625 0
 973 057e 4FF00400 		mov	r0, #4
 974 0582 4FF0AF01 		mov	r1, #175
 975 0586 00F0E1F9 		bl	Codec_WriteRegister
 976 058a 0346     		mov	r3, r0
 977 058c FA68     		ldr	r2, [r7, #12]
 978 058e D318     		adds	r3, r2, r3
 979 0590 FB60     		str	r3, [r7, #12]
 626:../STM32F4-Discovery/stm32f4_discovery_audio_codec.c ****   OutputDev = 0xAF;
 980              		.loc 1 626 0
 981 0592 40F20003 		movw	r3, #:lower16:OutputDev
 982 0596 C0F20003 		movt	r3, #:upper16:OutputDev
 983 059a 4FF0AF02 		mov	r2, #175
 984 059e 1A70     		strb	r2, [r3, #0]
 627:../STM32F4-Discovery/stm32f4_discovery_audio_codec.c ****   
 628:../STM32F4-Discovery/stm32f4_discovery_audio_codec.c ****   /* Clock configuration: Auto detection */  
 629:../STM32F4-Discovery/stm32f4_discovery_audio_codec.c ****   counter += Codec_WriteRegister(0x05, 0x81);
 985              		.loc 1 629 0
 986 05a0 4FF00500 		mov	r0, #5
 987 05a4 4FF08101 		mov	r1, #129
 988 05a8 00F0D0F9 		bl	Codec_WriteRegister
 989 05ac 0346     		mov	r3, r0
 990 05ae FA68     		ldr	r2, [r7, #12]
 991 05b0 D318     		adds	r3, r2, r3
 992 05b2 FB60     		str	r3, [r7, #12]
 630:../STM32F4-Discovery/stm32f4_discovery_audio_codec.c ****   
 631:../STM32F4-Discovery/stm32f4_discovery_audio_codec.c ****   /* Set the Slave Mode and the audio Standard */  
 632:../STM32F4-Discovery/stm32f4_discovery_audio_codec.c ****   counter += Codec_WriteRegister(0x06, CODEC_STANDARD);
 993              		.loc 1 632 0
 994 05b4 4FF00600 		mov	r0, #6
 995 05b8 4FF00401 		mov	r1, #4
 996 05bc 00F0C6F9 		bl	Codec_WriteRegister
 997 05c0 0346     		mov	r3, r0
 998 05c2 FA68     		ldr	r2, [r7, #12]
 999 05c4 D318     		adds	r3, r2, r3
 1000 05c6 FB60     		str	r3, [r7, #12]
 633:../STM32F4-Discovery/stm32f4_discovery_audio_codec.c ****       
 634:../STM32F4-Discovery/stm32f4_discovery_audio_codec.c ****   /* Set the Master volume */
 635:../STM32F4-Discovery/stm32f4_discovery_audio_codec.c ****   Codec_VolumeCtrl(Volume);
 1001              		.loc 1 635 0
 1002 05c8 7B79     		ldrb	r3, [r7, #5]	@ zero_extendqisi2
 1003 05ca 1846     		mov	r0, r3
 1004 05cc 00F032F9 		bl	Codec_VolumeCtrl
 636:../STM32F4-Discovery/stm32f4_discovery_audio_codec.c ****   
 637:../STM32F4-Discovery/stm32f4_discovery_audio_codec.c ****   if (CurrAudioInterface == AUDIO_INTERFACE_DAC)
 1005              		.loc 1 637 0
 1006 05d0 40F20003 		movw	r3, #:lower16:CurrAudioInterface
 1007 05d4 C0F20003 		movt	r3, #:upper16:CurrAudioInterface
 1008 05d8 1B68     		ldr	r3, [r3, #0]
 1009 05da 022B     		cmp	r3, #2
 1010 05dc 31D1     		bne	.L33
 638:../STM32F4-Discovery/stm32f4_discovery_audio_codec.c ****   {
 639:../STM32F4-Discovery/stm32f4_discovery_audio_codec.c ****     /* Enable the PassThrough on AIN1A and AIN1B */
 640:../STM32F4-Discovery/stm32f4_discovery_audio_codec.c ****     counter += Codec_WriteRegister(0x08, 0x01);
 1011              		.loc 1 640 0
 1012 05de 4FF00800 		mov	r0, #8
 1013 05e2 4FF00101 		mov	r1, #1
 1014 05e6 00F0B1F9 		bl	Codec_WriteRegister
 1015 05ea 0346     		mov	r3, r0
 1016 05ec FA68     		ldr	r2, [r7, #12]
 1017 05ee D318     		adds	r3, r2, r3
 1018 05f0 FB60     		str	r3, [r7, #12]
 641:../STM32F4-Discovery/stm32f4_discovery_audio_codec.c ****     counter += Codec_WriteRegister(0x09, 0x01);
 1019              		.loc 1 641 0
 1020 05f2 4FF00900 		mov	r0, #9
 1021 05f6 4FF00101 		mov	r1, #1
 1022 05fa 00F0A7F9 		bl	Codec_WriteRegister
 1023 05fe 0346     		mov	r3, r0
 1024 0600 FA68     		ldr	r2, [r7, #12]
 1025 0602 D318     		adds	r3, r2, r3
 1026 0604 FB60     		str	r3, [r7, #12]
 642:../STM32F4-Discovery/stm32f4_discovery_audio_codec.c ****     
 643:../STM32F4-Discovery/stm32f4_discovery_audio_codec.c ****     /* Route the analog input to the HP line */
 644:../STM32F4-Discovery/stm32f4_discovery_audio_codec.c ****     counter += Codec_WriteRegister(0x0E, 0xC0);
 1027              		.loc 1 644 0
 1028 0606 4FF00E00 		mov	r0, #14
 1029 060a 4FF0C001 		mov	r1, #192
 1030 060e 00F09DF9 		bl	Codec_WriteRegister
 1031 0612 0346     		mov	r3, r0
 1032 0614 FA68     		ldr	r2, [r7, #12]
 1033 0616 D318     		adds	r3, r2, r3
 1034 0618 FB60     		str	r3, [r7, #12]
 645:../STM32F4-Discovery/stm32f4_discovery_audio_codec.c ****     
 646:../STM32F4-Discovery/stm32f4_discovery_audio_codec.c ****     /* Set the Passthough volume */
 647:../STM32F4-Discovery/stm32f4_discovery_audio_codec.c ****     counter += Codec_WriteRegister(0x14, 0x00);
 1035              		.loc 1 647 0
 1036 061a 4FF01400 		mov	r0, #20
 1037 061e 4FF00001 		mov	r1, #0
 1038 0622 00F093F9 		bl	Codec_WriteRegister
 1039 0626 0346     		mov	r3, r0
 1040 0628 FA68     		ldr	r2, [r7, #12]
 1041 062a D318     		adds	r3, r2, r3
 1042 062c FB60     		str	r3, [r7, #12]
 648:../STM32F4-Discovery/stm32f4_discovery_audio_codec.c ****     counter += Codec_WriteRegister(0x15, 0x00);
 1043              		.loc 1 648 0
 1044 062e 4FF01500 		mov	r0, #21
 1045 0632 4FF00001 		mov	r1, #0
 1046 0636 00F089F9 		bl	Codec_WriteRegister
 1047 063a 0346     		mov	r3, r0
 1048 063c FA68     		ldr	r2, [r7, #12]
 1049 063e D318     		adds	r3, r2, r3
 1050 0640 FB60     		str	r3, [r7, #12]
 1051              	.L33:
 649:../STM32F4-Discovery/stm32f4_discovery_audio_codec.c ****   }
 650:../STM32F4-Discovery/stm32f4_discovery_audio_codec.c **** 
 651:../STM32F4-Discovery/stm32f4_discovery_audio_codec.c ****   /* Power on the Codec */
 652:../STM32F4-Discovery/stm32f4_discovery_audio_codec.c ****   counter += Codec_WriteRegister(0x02, 0x9E);  
 1052              		.loc 1 652 0
 1053 0642 4FF00200 		mov	r0, #2
 1054 0646 4FF09E01 		mov	r1, #158
 1055 064a 00F07FF9 		bl	Codec_WriteRegister
 1056 064e 0346     		mov	r3, r0
 1057 0650 FA68     		ldr	r2, [r7, #12]
 1058 0652 D318     		adds	r3, r2, r3
 1059 0654 FB60     		str	r3, [r7, #12]
 653:../STM32F4-Discovery/stm32f4_discovery_audio_codec.c ****   
 654:../STM32F4-Discovery/stm32f4_discovery_audio_codec.c ****   /* Additional configuration for the CODEC. These configurations are done to reduce
 655:../STM32F4-Discovery/stm32f4_discovery_audio_codec.c ****       the time needed for the Codec to power off. If these configurations are removed, 
 656:../STM32F4-Discovery/stm32f4_discovery_audio_codec.c ****       then a long delay should be added between powering off the Codec and switching 
 657:../STM32F4-Discovery/stm32f4_discovery_audio_codec.c ****       off the I2S peripheral MCLK clock (which is the operating clock for Codec).
 658:../STM32F4-Discovery/stm32f4_discovery_audio_codec.c ****       If this delay is not inserted, then the codec will not shut down properly and
 659:../STM32F4-Discovery/stm32f4_discovery_audio_codec.c ****       it results in high noise after shut down. */
 660:../STM32F4-Discovery/stm32f4_discovery_audio_codec.c ****   
 661:../STM32F4-Discovery/stm32f4_discovery_audio_codec.c ****   /* Disable the analog soft ramp */
 662:../STM32F4-Discovery/stm32f4_discovery_audio_codec.c ****   counter += Codec_WriteRegister(0x0A, 0x00);
 1060              		.loc 1 662 0
 1061 0656 4FF00A00 		mov	r0, #10
 1062 065a 4FF00001 		mov	r1, #0
 1063 065e 00F075F9 		bl	Codec_WriteRegister
 1064 0662 0346     		mov	r3, r0
 1065 0664 FA68     		ldr	r2, [r7, #12]
 1066 0666 D318     		adds	r3, r2, r3
 1067 0668 FB60     		str	r3, [r7, #12]
 663:../STM32F4-Discovery/stm32f4_discovery_audio_codec.c ****   if (CurrAudioInterface != AUDIO_INTERFACE_DAC)
 1068              		.loc 1 663 0
 1069 066a 40F20003 		movw	r3, #:lower16:CurrAudioInterface
 1070 066e C0F20003 		movt	r3, #:upper16:CurrAudioInterface
 1071 0672 1B68     		ldr	r3, [r3, #0]
 1072 0674 022B     		cmp	r3, #2
 1073 0676 09D0     		beq	.L34
 664:../STM32F4-Discovery/stm32f4_discovery_audio_codec.c ****   {  
 665:../STM32F4-Discovery/stm32f4_discovery_audio_codec.c ****     /* Disable the digital soft ramp */
 666:../STM32F4-Discovery/stm32f4_discovery_audio_codec.c ****     counter += Codec_WriteRegister(0x0E, 0x04);
 1074              		.loc 1 666 0
 1075 0678 4FF00E00 		mov	r0, #14
 1076 067c 4FF00401 		mov	r1, #4
 1077 0680 00F064F9 		bl	Codec_WriteRegister
 1078 0684 0346     		mov	r3, r0
 1079 0686 FA68     		ldr	r2, [r7, #12]
 1080 0688 D318     		adds	r3, r2, r3
 1081 068a FB60     		str	r3, [r7, #12]
 1082              	.L34:
 667:../STM32F4-Discovery/stm32f4_discovery_audio_codec.c ****   }
 668:../STM32F4-Discovery/stm32f4_discovery_audio_codec.c ****   /* Disable the limiter attack level */
 669:../STM32F4-Discovery/stm32f4_discovery_audio_codec.c ****   counter += Codec_WriteRegister(0x27, 0x00);
 1083              		.loc 1 669 0
 1084 068c 4FF02700 		mov	r0, #39
 1085 0690 4FF00001 		mov	r1, #0
 1086 0694 00F05AF9 		bl	Codec_WriteRegister
 1087 0698 0346     		mov	r3, r0
 1088 069a FA68     		ldr	r2, [r7, #12]
 1089 069c D318     		adds	r3, r2, r3
 1090 069e FB60     		str	r3, [r7, #12]
 670:../STM32F4-Discovery/stm32f4_discovery_audio_codec.c ****   /* Adjust Bass and Treble levels */
 671:../STM32F4-Discovery/stm32f4_discovery_audio_codec.c ****   counter += Codec_WriteRegister(0x1F, 0x0F);
 1091              		.loc 1 671 0
 1092 06a0 4FF01F00 		mov	r0, #31
 1093 06a4 4FF00F01 		mov	r1, #15
 1094 06a8 00F050F9 		bl	Codec_WriteRegister
 1095 06ac 0346     		mov	r3, r0
 1096 06ae FA68     		ldr	r2, [r7, #12]
 1097 06b0 D318     		adds	r3, r2, r3
 1098 06b2 FB60     		str	r3, [r7, #12]
 672:../STM32F4-Discovery/stm32f4_discovery_audio_codec.c ****   /* Adjust PCM volume level */
 673:../STM32F4-Discovery/stm32f4_discovery_audio_codec.c ****   counter += Codec_WriteRegister(0x1A, 0x0A);
 1099              		.loc 1 673 0
 1100 06b4 4FF01A00 		mov	r0, #26
 1101 06b8 4FF00A01 		mov	r1, #10
 1102 06bc 00F046F9 		bl	Codec_WriteRegister
 1103 06c0 0346     		mov	r3, r0
 1104 06c2 FA68     		ldr	r2, [r7, #12]
 1105 06c4 D318     		adds	r3, r2, r3
 1106 06c6 FB60     		str	r3, [r7, #12]
 674:../STM32F4-Discovery/stm32f4_discovery_audio_codec.c ****   counter += Codec_WriteRegister(0x1B, 0x0A);
 1107              		.loc 1 674 0
 1108 06c8 4FF01B00 		mov	r0, #27
 1109 06cc 4FF00A01 		mov	r1, #10
 1110 06d0 00F03CF9 		bl	Codec_WriteRegister
 1111 06d4 0346     		mov	r3, r0
 1112 06d6 FA68     		ldr	r2, [r7, #12]
 1113 06d8 D318     		adds	r3, r2, r3
 1114 06da FB60     		str	r3, [r7, #12]
 675:../STM32F4-Discovery/stm32f4_discovery_audio_codec.c **** 
 676:../STM32F4-Discovery/stm32f4_discovery_audio_codec.c ****   /* Configure the I2S peripheral */
 677:../STM32F4-Discovery/stm32f4_discovery_audio_codec.c ****   Codec_AudioInterface_Init(AudioFreq);  
 1115              		.loc 1 677 0
 1116 06dc 3868     		ldr	r0, [r7, #0]
 1117 06de 00F055FC 		bl	Codec_AudioInterface_Init
 678:../STM32F4-Discovery/stm32f4_discovery_audio_codec.c ****   
 679:../STM32F4-Discovery/stm32f4_discovery_audio_codec.c ****   /* Return communication control value */
 680:../STM32F4-Discovery/stm32f4_discovery_audio_codec.c ****   return counter;  
 1118              		.loc 1 680 0
 1119 06e2 FB68     		ldr	r3, [r7, #12]
 681:../STM32F4-Discovery/stm32f4_discovery_audio_codec.c **** }
 1120              		.loc 1 681 0
 1121 06e4 1846     		mov	r0, r3
 1122 06e6 07F11007 		add	r7, r7, #16
 1123 06ea BD46     		mov	sp, r7
 1124 06ec 80BD     		pop	{r7, pc}
 1125              		.cfi_endproc
 1126              	.LFE122:
 1128 06ee 00BF     		.align	2
 1129              		.thumb
 1130              		.thumb_func
 1132              	Codec_DeInit:
 1133              	.LFB123:
 682:../STM32F4-Discovery/stm32f4_discovery_audio_codec.c **** 
 683:../STM32F4-Discovery/stm32f4_discovery_audio_codec.c **** /**
 684:../STM32F4-Discovery/stm32f4_discovery_audio_codec.c ****   * @brief  Restore the audio codec state to default state and free all used 
 685:../STM32F4-Discovery/stm32f4_discovery_audio_codec.c ****   *         resources.
 686:../STM32F4-Discovery/stm32f4_discovery_audio_codec.c ****   * @param  None
 687:../STM32F4-Discovery/stm32f4_discovery_audio_codec.c ****   * @retval 0 if correct communication, else wrong communication
 688:../STM32F4-Discovery/stm32f4_discovery_audio_codec.c ****   */
 689:../STM32F4-Discovery/stm32f4_discovery_audio_codec.c **** static uint32_t Codec_DeInit(void)
 690:../STM32F4-Discovery/stm32f4_discovery_audio_codec.c **** {
 1134              		.loc 1 690 0
 1135              		.cfi_startproc
 1136              		@ args = 0, pretend = 0, frame = 8
 1137              		@ frame_needed = 1, uses_anonymous_args = 0
 1138 06f0 80B5     		push	{r7, lr}
 1139              	.LCFI34:
 1140              		.cfi_def_cfa_offset 8
 1141              		.cfi_offset 14, -4
 1142              		.cfi_offset 7, -8
 1143 06f2 82B0     		sub	sp, sp, #8
 1144              	.LCFI35:
 1145              		.cfi_def_cfa_offset 16
 1146 06f4 00AF     		add	r7, sp, #0
 1147              	.LCFI36:
 1148              		.cfi_def_cfa_register 7
 691:../STM32F4-Discovery/stm32f4_discovery_audio_codec.c ****   uint32_t counter = 0; 
 1149              		.loc 1 691 0
 1150 06f6 4FF00003 		mov	r3, #0
 1151 06fa 7B60     		str	r3, [r7, #4]
 692:../STM32F4-Discovery/stm32f4_discovery_audio_codec.c **** 
 693:../STM32F4-Discovery/stm32f4_discovery_audio_codec.c ****   /* Reset the Codec Registers */
 694:../STM32F4-Discovery/stm32f4_discovery_audio_codec.c ****   Codec_Reset();  
 1152              		.loc 1 694 0
 1153 06fc 00F00AF9 		bl	Codec_Reset
 695:../STM32F4-Discovery/stm32f4_discovery_audio_codec.c ****   
 696:../STM32F4-Discovery/stm32f4_discovery_audio_codec.c ****   /* Keep Codec powered OFF */
 697:../STM32F4-Discovery/stm32f4_discovery_audio_codec.c ****   counter += Codec_WriteRegister(0x02, 0x01);    
 1154              		.loc 1 697 0
 1155 0700 4FF00200 		mov	r0, #2
 1156 0704 4FF00101 		mov	r1, #1
 1157 0708 00F020F9 		bl	Codec_WriteRegister
 1158 070c 0346     		mov	r3, r0
 1159 070e 7A68     		ldr	r2, [r7, #4]
 1160 0710 D318     		adds	r3, r2, r3
 1161 0712 7B60     		str	r3, [r7, #4]
 698:../STM32F4-Discovery/stm32f4_discovery_audio_codec.c ****   
 699:../STM32F4-Discovery/stm32f4_discovery_audio_codec.c ****   /* Deinitialize all use GPIOs */
 700:../STM32F4-Discovery/stm32f4_discovery_audio_codec.c ****   Codec_GPIO_DeInit();
 1162              		.loc 1 700 0
 1163 0714 00F07AFD 		bl	Codec_GPIO_DeInit
 701:../STM32F4-Discovery/stm32f4_discovery_audio_codec.c **** 
 702:../STM32F4-Discovery/stm32f4_discovery_audio_codec.c ****   /* Disable the Codec control interface */
 703:../STM32F4-Discovery/stm32f4_discovery_audio_codec.c ****   Codec_CtrlInterface_DeInit();
 1164              		.loc 1 703 0
 1165 0718 00F032FC 		bl	Codec_CtrlInterface_DeInit
 704:../STM32F4-Discovery/stm32f4_discovery_audio_codec.c ****   
 705:../STM32F4-Discovery/stm32f4_discovery_audio_codec.c ****   /* Deinitialize the Codec audio interface (I2S) */
 706:../STM32F4-Discovery/stm32f4_discovery_audio_codec.c ****   Codec_AudioInterface_DeInit(); 
 1166              		.loc 1 706 0
 1167 071c 00F088FC 		bl	Codec_AudioInterface_DeInit
 707:../STM32F4-Discovery/stm32f4_discovery_audio_codec.c ****   
 708:../STM32F4-Discovery/stm32f4_discovery_audio_codec.c ****   /* Return communication control value */
 709:../STM32F4-Discovery/stm32f4_discovery_audio_codec.c ****   return counter;  
 1168              		.loc 1 709 0
 1169 0720 7B68     		ldr	r3, [r7, #4]
 710:../STM32F4-Discovery/stm32f4_discovery_audio_codec.c **** }
 1170              		.loc 1 710 0
 1171 0722 1846     		mov	r0, r3
 1172 0724 07F10807 		add	r7, r7, #8
 1173 0728 BD46     		mov	sp, r7
 1174 072a 80BD     		pop	{r7, pc}
 1175              		.cfi_endproc
 1176              	.LFE123:
 1178              		.align	2
 1179              		.thumb
 1180              		.thumb_func
 1182              	Codec_Play:
 1183              	.LFB124:
 711:../STM32F4-Discovery/stm32f4_discovery_audio_codec.c **** 
 712:../STM32F4-Discovery/stm32f4_discovery_audio_codec.c **** /**
 713:../STM32F4-Discovery/stm32f4_discovery_audio_codec.c ****   * @brief  Start the audio Codec play feature.
 714:../STM32F4-Discovery/stm32f4_discovery_audio_codec.c ****   * @note   For this codec no Play options are required.
 715:../STM32F4-Discovery/stm32f4_discovery_audio_codec.c ****   * @param  None
 716:../STM32F4-Discovery/stm32f4_discovery_audio_codec.c ****   * @retval 0 if correct communication, else wrong communication
 717:../STM32F4-Discovery/stm32f4_discovery_audio_codec.c ****   */
 718:../STM32F4-Discovery/stm32f4_discovery_audio_codec.c **** static uint32_t Codec_Play(void)
 719:../STM32F4-Discovery/stm32f4_discovery_audio_codec.c **** {
 1184              		.loc 1 719 0
 1185              		.cfi_startproc
 1186              		@ args = 0, pretend = 0, frame = 0
 1187              		@ frame_needed = 1, uses_anonymous_args = 0
 1188              		@ link register save eliminated.
 1189 072c 80B4     		push	{r7}
 1190              	.LCFI37:
 1191              		.cfi_def_cfa_offset 4
 1192              		.cfi_offset 7, -4
 1193 072e 00AF     		add	r7, sp, #0
 1194              	.LCFI38:
 1195              		.cfi_def_cfa_register 7
 720:../STM32F4-Discovery/stm32f4_discovery_audio_codec.c ****   /* 
 721:../STM32F4-Discovery/stm32f4_discovery_audio_codec.c ****      No actions required on Codec level for play command
 722:../STM32F4-Discovery/stm32f4_discovery_audio_codec.c ****      */  
 723:../STM32F4-Discovery/stm32f4_discovery_audio_codec.c **** 
 724:../STM32F4-Discovery/stm32f4_discovery_audio_codec.c ****   /* Return communication control value */
 725:../STM32F4-Discovery/stm32f4_discovery_audio_codec.c ****   return 0;  
 1196              		.loc 1 725 0
 1197 0730 4FF00003 		mov	r3, #0
 726:../STM32F4-Discovery/stm32f4_discovery_audio_codec.c **** }
 1198              		.loc 1 726 0
 1199 0734 1846     		mov	r0, r3
 1200 0736 BD46     		mov	sp, r7
 1201 0738 80BC     		pop	{r7}
 1202 073a 7047     		bx	lr
 1203              		.cfi_endproc
 1204              	.LFE124:
 1206              		.align	2
 1207              		.thumb
 1208              		.thumb_func
 1210              	Codec_PauseResume:
 1211              	.LFB125:
 727:../STM32F4-Discovery/stm32f4_discovery_audio_codec.c **** 
 728:../STM32F4-Discovery/stm32f4_discovery_audio_codec.c **** /**
 729:../STM32F4-Discovery/stm32f4_discovery_audio_codec.c ****   * @brief  Pauses and resumes playing on the audio codec.
 730:../STM32F4-Discovery/stm32f4_discovery_audio_codec.c ****   * @param  Cmd: AUDIO_PAUSE (or 0) to pause, AUDIO_RESUME (or any value different
 731:../STM32F4-Discovery/stm32f4_discovery_audio_codec.c ****   *         from 0) to resume. 
 732:../STM32F4-Discovery/stm32f4_discovery_audio_codec.c ****   * @retval 0 if correct communication, else wrong communication
 733:../STM32F4-Discovery/stm32f4_discovery_audio_codec.c ****   */
 734:../STM32F4-Discovery/stm32f4_discovery_audio_codec.c **** static uint32_t Codec_PauseResume(uint32_t Cmd)
 735:../STM32F4-Discovery/stm32f4_discovery_audio_codec.c **** {
 1212              		.loc 1 735 0
 1213              		.cfi_startproc
 1214              		@ args = 0, pretend = 0, frame = 16
 1215              		@ frame_needed = 1, uses_anonymous_args = 0
 1216 073c 80B5     		push	{r7, lr}
 1217              	.LCFI39:
 1218              		.cfi_def_cfa_offset 8
 1219              		.cfi_offset 14, -4
 1220              		.cfi_offset 7, -8
 1221 073e 84B0     		sub	sp, sp, #16
 1222              	.LCFI40:
 1223              		.cfi_def_cfa_offset 24
 1224 0740 00AF     		add	r7, sp, #0
 1225              	.LCFI41:
 1226              		.cfi_def_cfa_register 7
 1227 0742 7860     		str	r0, [r7, #4]
 736:../STM32F4-Discovery/stm32f4_discovery_audio_codec.c ****   uint32_t counter = 0;   
 1228              		.loc 1 736 0
 1229 0744 4FF00003 		mov	r3, #0
 1230 0748 FB60     		str	r3, [r7, #12]
 737:../STM32F4-Discovery/stm32f4_discovery_audio_codec.c ****   
 738:../STM32F4-Discovery/stm32f4_discovery_audio_codec.c ****   /* Pause the audio file playing */
 739:../STM32F4-Discovery/stm32f4_discovery_audio_codec.c ****   if (Cmd == AUDIO_PAUSE)
 1231              		.loc 1 739 0
 1232 074a 7B68     		ldr	r3, [r7, #4]
 1233 074c 002B     		cmp	r3, #0
 1234 074e 12D1     		bne	.L38
 740:../STM32F4-Discovery/stm32f4_discovery_audio_codec.c ****   { 
 741:../STM32F4-Discovery/stm32f4_discovery_audio_codec.c ****     /* Mute the output first */
 742:../STM32F4-Discovery/stm32f4_discovery_audio_codec.c ****     counter += Codec_Mute(AUDIO_MUTE_ON);
 1235              		.loc 1 742 0
 1236 0750 4FF00100 		mov	r0, #1
 1237 0754 00F0B4F8 		bl	Codec_Mute
 1238 0758 0346     		mov	r3, r0
 1239 075a FA68     		ldr	r2, [r7, #12]
 1240 075c D318     		adds	r3, r2, r3
 1241 075e FB60     		str	r3, [r7, #12]
 743:../STM32F4-Discovery/stm32f4_discovery_audio_codec.c **** 
 744:../STM32F4-Discovery/stm32f4_discovery_audio_codec.c ****     /* Put the Codec in Power save mode */    
 745:../STM32F4-Discovery/stm32f4_discovery_audio_codec.c ****     counter += Codec_WriteRegister(0x02, 0x01);    
 1242              		.loc 1 745 0
 1243 0760 4FF00200 		mov	r0, #2
 1244 0764 4FF00101 		mov	r1, #1
 1245 0768 00F0F0F8 		bl	Codec_WriteRegister
 1246 076c 0346     		mov	r3, r0
 1247 076e FA68     		ldr	r2, [r7, #12]
 1248 0770 D318     		adds	r3, r2, r3
 1249 0772 FB60     		str	r3, [r7, #12]
 1250 0774 20E0     		b	.L39
 1251              	.L38:
 746:../STM32F4-Discovery/stm32f4_discovery_audio_codec.c ****   }
 747:../STM32F4-Discovery/stm32f4_discovery_audio_codec.c ****   else /* AUDIO_RESUME */
 748:../STM32F4-Discovery/stm32f4_discovery_audio_codec.c ****   {
 749:../STM32F4-Discovery/stm32f4_discovery_audio_codec.c ****     /* Unmute the output first */
 750:../STM32F4-Discovery/stm32f4_discovery_audio_codec.c ****     counter += Codec_Mute(AUDIO_MUTE_OFF);
 1252              		.loc 1 750 0
 1253 0776 4FF00000 		mov	r0, #0
 1254 077a 00F0A1F8 		bl	Codec_Mute
 1255 077e 0346     		mov	r3, r0
 1256 0780 FA68     		ldr	r2, [r7, #12]
 1257 0782 D318     		adds	r3, r2, r3
 1258 0784 FB60     		str	r3, [r7, #12]
 751:../STM32F4-Discovery/stm32f4_discovery_audio_codec.c ****     
 752:../STM32F4-Discovery/stm32f4_discovery_audio_codec.c ****     counter += Codec_WriteRegister(0x04, OutputDev);
 1259              		.loc 1 752 0
 1260 0786 40F20003 		movw	r3, #:lower16:OutputDev
 1261 078a C0F20003 		movt	r3, #:upper16:OutputDev
 1262 078e 1B78     		ldrb	r3, [r3, #0]
 1263 0790 DBB2     		uxtb	r3, r3
 1264 0792 4FF00400 		mov	r0, #4
 1265 0796 1946     		mov	r1, r3
 1266 0798 00F0D8F8 		bl	Codec_WriteRegister
 1267 079c 0346     		mov	r3, r0
 1268 079e FA68     		ldr	r2, [r7, #12]
 1269 07a0 D318     		adds	r3, r2, r3
 1270 07a2 FB60     		str	r3, [r7, #12]
 753:../STM32F4-Discovery/stm32f4_discovery_audio_codec.c ****     
 754:../STM32F4-Discovery/stm32f4_discovery_audio_codec.c ****     /* Exit the Power save mode */
 755:../STM32F4-Discovery/stm32f4_discovery_audio_codec.c ****     counter += Codec_WriteRegister(0x02, 0x9E); 
 1271              		.loc 1 755 0
 1272 07a4 4FF00200 		mov	r0, #2
 1273 07a8 4FF09E01 		mov	r1, #158
 1274 07ac 00F0CEF8 		bl	Codec_WriteRegister
 1275 07b0 0346     		mov	r3, r0
 1276 07b2 FA68     		ldr	r2, [r7, #12]
 1277 07b4 D318     		adds	r3, r2, r3
 1278 07b6 FB60     		str	r3, [r7, #12]
 1279              	.L39:
 756:../STM32F4-Discovery/stm32f4_discovery_audio_codec.c ****   }
 757:../STM32F4-Discovery/stm32f4_discovery_audio_codec.c **** 
 758:../STM32F4-Discovery/stm32f4_discovery_audio_codec.c ****   return counter;
 1280              		.loc 1 758 0
 1281 07b8 FB68     		ldr	r3, [r7, #12]
 759:../STM32F4-Discovery/stm32f4_discovery_audio_codec.c **** }
 1282              		.loc 1 759 0
 1283 07ba 1846     		mov	r0, r3
 1284 07bc 07F11007 		add	r7, r7, #16
 1285 07c0 BD46     		mov	sp, r7
 1286 07c2 80BD     		pop	{r7, pc}
 1287              		.cfi_endproc
 1288              	.LFE125:
 1290              		.align	2
 1291              		.thumb
 1292              		.thumb_func
 1294              	Codec_Stop:
 1295              	.LFB126:
 760:../STM32F4-Discovery/stm32f4_discovery_audio_codec.c **** 
 761:../STM32F4-Discovery/stm32f4_discovery_audio_codec.c **** /**
 762:../STM32F4-Discovery/stm32f4_discovery_audio_codec.c ****   * @brief  Stops audio Codec playing. It powers down the codec.
 763:../STM32F4-Discovery/stm32f4_discovery_audio_codec.c ****   * @param  CodecPdwnMode: selects the  power down mode.
 764:../STM32F4-Discovery/stm32f4_discovery_audio_codec.c ****   *          - CODEC_PDWN_SW: only mutes the audio codec. When resuming from this 
 765:../STM32F4-Discovery/stm32f4_discovery_audio_codec.c ****   *                           mode the codec keeps the previous initialization
 766:../STM32F4-Discovery/stm32f4_discovery_audio_codec.c ****   *                           (no need to re-Initialize the codec registers).
 767:../STM32F4-Discovery/stm32f4_discovery_audio_codec.c ****   *          - CODEC_PDWN_HW: Physically power down the codec. When resuming from this
 768:../STM32F4-Discovery/stm32f4_discovery_audio_codec.c ****   *                           mode, the codec is set to default configuration 
 769:../STM32F4-Discovery/stm32f4_discovery_audio_codec.c ****   *                           (user should re-Initialize the codec in order to 
 770:../STM32F4-Discovery/stm32f4_discovery_audio_codec.c ****   *                            play again the audio stream).
 771:../STM32F4-Discovery/stm32f4_discovery_audio_codec.c ****   * @retval 0 if correct communication, else wrong communication
 772:../STM32F4-Discovery/stm32f4_discovery_audio_codec.c ****   */
 773:../STM32F4-Discovery/stm32f4_discovery_audio_codec.c **** static uint32_t Codec_Stop(uint32_t CodecPdwnMode)
 774:../STM32F4-Discovery/stm32f4_discovery_audio_codec.c **** {
 1296              		.loc 1 774 0
 1297              		.cfi_startproc
 1298              		@ args = 0, pretend = 0, frame = 16
 1299              		@ frame_needed = 1, uses_anonymous_args = 0
 1300 07c4 80B5     		push	{r7, lr}
 1301              	.LCFI42:
 1302              		.cfi_def_cfa_offset 8
 1303              		.cfi_offset 14, -4
 1304              		.cfi_offset 7, -8
 1305 07c6 84B0     		sub	sp, sp, #16
 1306              	.LCFI43:
 1307              		.cfi_def_cfa_offset 24
 1308 07c8 00AF     		add	r7, sp, #0
 1309              	.LCFI44:
 1310              		.cfi_def_cfa_register 7
 1311 07ca 7860     		str	r0, [r7, #4]
 775:../STM32F4-Discovery/stm32f4_discovery_audio_codec.c ****   uint32_t counter = 0;   
 1312              		.loc 1 775 0
 1313 07cc 4FF00003 		mov	r3, #0
 1314 07d0 FB60     		str	r3, [r7, #12]
 776:../STM32F4-Discovery/stm32f4_discovery_audio_codec.c **** 
 777:../STM32F4-Discovery/stm32f4_discovery_audio_codec.c ****   /* Mute the output first */
 778:../STM32F4-Discovery/stm32f4_discovery_audio_codec.c ****   Codec_Mute(AUDIO_MUTE_ON);
 1315              		.loc 1 778 0
 1316 07d2 4FF00100 		mov	r0, #1
 1317 07d6 00F073F8 		bl	Codec_Mute
 779:../STM32F4-Discovery/stm32f4_discovery_audio_codec.c ****   
 780:../STM32F4-Discovery/stm32f4_discovery_audio_codec.c ****   if (CodecPdwnMode == CODEC_PDWN_SW)
 1318              		.loc 1 780 0
 1319 07da 7B68     		ldr	r3, [r7, #4]
 1320 07dc 022B     		cmp	r3, #2
 1321 07de 0AD1     		bne	.L41
 781:../STM32F4-Discovery/stm32f4_discovery_audio_codec.c ****   {    
 782:../STM32F4-Discovery/stm32f4_discovery_audio_codec.c ****     /* Power down the DAC and the speaker (PMDAC and PMSPK bits)*/
 783:../STM32F4-Discovery/stm32f4_discovery_audio_codec.c ****     counter += Codec_WriteRegister(0x02, 0x9F);
 1322              		.loc 1 783 0
 1323 07e0 4FF00200 		mov	r0, #2
 1324 07e4 4FF09F01 		mov	r1, #159
 1325 07e8 00F0B0F8 		bl	Codec_WriteRegister
 1326 07ec 0346     		mov	r3, r0
 1327 07ee FA68     		ldr	r2, [r7, #12]
 1328 07f0 D318     		adds	r3, r2, r3
 1329 07f2 FB60     		str	r3, [r7, #12]
 1330 07f4 17E0     		b	.L42
 1331              	.L41:
 784:../STM32F4-Discovery/stm32f4_discovery_audio_codec.c ****   }
 785:../STM32F4-Discovery/stm32f4_discovery_audio_codec.c ****   else /* CODEC_PDWN_HW */
 786:../STM32F4-Discovery/stm32f4_discovery_audio_codec.c ****   { 
 787:../STM32F4-Discovery/stm32f4_discovery_audio_codec.c ****     /* Power down the DAC components */
 788:../STM32F4-Discovery/stm32f4_discovery_audio_codec.c ****     counter += Codec_WriteRegister(0x02, 0x9F);
 1332              		.loc 1 788 0
 1333 07f6 4FF00200 		mov	r0, #2
 1334 07fa 4FF09F01 		mov	r1, #159
 1335 07fe 00F0A5F8 		bl	Codec_WriteRegister
 1336 0802 0346     		mov	r3, r0
 1337 0804 FA68     		ldr	r2, [r7, #12]
 1338 0806 D318     		adds	r3, r2, r3
 1339 0808 FB60     		str	r3, [r7, #12]
 789:../STM32F4-Discovery/stm32f4_discovery_audio_codec.c ****     
 790:../STM32F4-Discovery/stm32f4_discovery_audio_codec.c ****     /* Wait at least 100us */
 791:../STM32F4-Discovery/stm32f4_discovery_audio_codec.c ****     Delay(0xFFF);
 1340              		.loc 1 791 0
 1341 080a 40F6FF70 		movw	r0, #4095
 1342 080e 00F059FD 		bl	Delay
 792:../STM32F4-Discovery/stm32f4_discovery_audio_codec.c ****     
 793:../STM32F4-Discovery/stm32f4_discovery_audio_codec.c ****     /* Reset The pin */
 794:../STM32F4-Discovery/stm32f4_discovery_audio_codec.c ****     GPIO_WriteBit(AUDIO_RESET_GPIO, AUDIO_RESET_PIN, Bit_RESET);
 1343              		.loc 1 794 0
 1344 0812 4FF44060 		mov	r0, #3072
 1345 0816 C4F20200 		movt	r0, 16386
 1346 081a 4FF01001 		mov	r1, #16
 1347 081e 4FF00002 		mov	r2, #0
 1348 0822 FFF7FEFF 		bl	GPIO_WriteBit
 1349              	.L42:
 795:../STM32F4-Discovery/stm32f4_discovery_audio_codec.c ****   }
 796:../STM32F4-Discovery/stm32f4_discovery_audio_codec.c ****   
 797:../STM32F4-Discovery/stm32f4_discovery_audio_codec.c ****   return counter;    
 1350              		.loc 1 797 0
 1351 0826 FB68     		ldr	r3, [r7, #12]
 798:../STM32F4-Discovery/stm32f4_discovery_audio_codec.c **** }
 1352              		.loc 1 798 0
 1353 0828 1846     		mov	r0, r3
 1354 082a 07F11007 		add	r7, r7, #16
 1355 082e BD46     		mov	sp, r7
 1356 0830 80BD     		pop	{r7, pc}
 1357              		.cfi_endproc
 1358              	.LFE126:
 1360 0832 00BF     		.align	2
 1361              		.thumb
 1362              		.thumb_func
 1364              	Codec_VolumeCtrl:
 1365              	.LFB127:
 799:../STM32F4-Discovery/stm32f4_discovery_audio_codec.c **** 
 800:../STM32F4-Discovery/stm32f4_discovery_audio_codec.c **** /**
 801:../STM32F4-Discovery/stm32f4_discovery_audio_codec.c ****   * @brief  Sets higher or lower the codec volume level.
 802:../STM32F4-Discovery/stm32f4_discovery_audio_codec.c ****   * @param  Volume: a byte value from 0 to 255 (refer to codec registers 
 803:../STM32F4-Discovery/stm32f4_discovery_audio_codec.c ****   *         description for more details).
 804:../STM32F4-Discovery/stm32f4_discovery_audio_codec.c ****   * @retval 0 if correct communication, else wrong communication
 805:../STM32F4-Discovery/stm32f4_discovery_audio_codec.c ****   */
 806:../STM32F4-Discovery/stm32f4_discovery_audio_codec.c **** static uint32_t Codec_VolumeCtrl(uint8_t Volume)
 807:../STM32F4-Discovery/stm32f4_discovery_audio_codec.c **** {
 1366              		.loc 1 807 0
 1367              		.cfi_startproc
 1368              		@ args = 0, pretend = 0, frame = 16
 1369              		@ frame_needed = 1, uses_anonymous_args = 0
 1370 0834 80B5     		push	{r7, lr}
 1371              	.LCFI45:
 1372              		.cfi_def_cfa_offset 8
 1373              		.cfi_offset 14, -4
 1374              		.cfi_offset 7, -8
 1375 0836 84B0     		sub	sp, sp, #16
 1376              	.LCFI46:
 1377              		.cfi_def_cfa_offset 24
 1378 0838 00AF     		add	r7, sp, #0
 1379              	.LCFI47:
 1380              		.cfi_def_cfa_register 7
 1381 083a 0346     		mov	r3, r0
 1382 083c FB71     		strb	r3, [r7, #7]
 808:../STM32F4-Discovery/stm32f4_discovery_audio_codec.c ****   uint32_t counter = 0;
 1383              		.loc 1 808 0
 1384 083e 4FF00003 		mov	r3, #0
 1385 0842 FB60     		str	r3, [r7, #12]
 809:../STM32F4-Discovery/stm32f4_discovery_audio_codec.c ****   
 810:../STM32F4-Discovery/stm32f4_discovery_audio_codec.c ****   if (Volume > 0xE6)
 1386              		.loc 1 810 0
 1387 0844 FB79     		ldrb	r3, [r7, #7]	@ zero_extendqisi2
 1388 0846 E62B     		cmp	r3, #230
 1389 0848 1AD9     		bls	.L44
 811:../STM32F4-Discovery/stm32f4_discovery_audio_codec.c ****   {
 812:../STM32F4-Discovery/stm32f4_discovery_audio_codec.c ****     /* Set the Master volume */
 813:../STM32F4-Discovery/stm32f4_discovery_audio_codec.c ****     counter += Codec_WriteRegister(0x20, Volume - 0xE7); 
 1390              		.loc 1 813 0
 1391 084a FB79     		ldrb	r3, [r7, #7]
 1392 084c 03F11903 		add	r3, r3, #25
 1393 0850 DBB2     		uxtb	r3, r3
 1394 0852 4FF02000 		mov	r0, #32
 1395 0856 1946     		mov	r1, r3
 1396 0858 00F078F8 		bl	Codec_WriteRegister
 1397 085c 0346     		mov	r3, r0
 1398 085e FA68     		ldr	r2, [r7, #12]
 1399 0860 D318     		adds	r3, r2, r3
 1400 0862 FB60     		str	r3, [r7, #12]
 814:../STM32F4-Discovery/stm32f4_discovery_audio_codec.c ****     counter += Codec_WriteRegister(0x21, Volume - 0xE7);     
 1401              		.loc 1 814 0
 1402 0864 FB79     		ldrb	r3, [r7, #7]
 1403 0866 03F11903 		add	r3, r3, #25
 1404 086a DBB2     		uxtb	r3, r3
 1405 086c 4FF02100 		mov	r0, #33
 1406 0870 1946     		mov	r1, r3
 1407 0872 00F06BF8 		bl	Codec_WriteRegister
 1408 0876 0346     		mov	r3, r0
 1409 0878 FA68     		ldr	r2, [r7, #12]
 1410 087a D318     		adds	r3, r2, r3
 1411 087c FB60     		str	r3, [r7, #12]
 1412 087e 19E0     		b	.L45
 1413              	.L44:
 815:../STM32F4-Discovery/stm32f4_discovery_audio_codec.c ****   }
 816:../STM32F4-Discovery/stm32f4_discovery_audio_codec.c ****   else
 817:../STM32F4-Discovery/stm32f4_discovery_audio_codec.c ****   {
 818:../STM32F4-Discovery/stm32f4_discovery_audio_codec.c ****     /* Set the Master volume */
 819:../STM32F4-Discovery/stm32f4_discovery_audio_codec.c ****     counter += Codec_WriteRegister(0x20, Volume + 0x19); 
 1414              		.loc 1 819 0
 1415 0880 FB79     		ldrb	r3, [r7, #7]
 1416 0882 03F11903 		add	r3, r3, #25
 1417 0886 DBB2     		uxtb	r3, r3
 1418 0888 4FF02000 		mov	r0, #32
 1419 088c 1946     		mov	r1, r3
 1420 088e 00F05DF8 		bl	Codec_WriteRegister
 1421 0892 0346     		mov	r3, r0
 1422 0894 FA68     		ldr	r2, [r7, #12]
 1423 0896 D318     		adds	r3, r2, r3
 1424 0898 FB60     		str	r3, [r7, #12]
 820:../STM32F4-Discovery/stm32f4_discovery_audio_codec.c ****     counter += Codec_WriteRegister(0x21, Volume + 0x19); 
 1425              		.loc 1 820 0
 1426 089a FB79     		ldrb	r3, [r7, #7]
 1427 089c 03F11903 		add	r3, r3, #25
 1428 08a0 DBB2     		uxtb	r3, r3
 1429 08a2 4FF02100 		mov	r0, #33
 1430 08a6 1946     		mov	r1, r3
 1431 08a8 00F050F8 		bl	Codec_WriteRegister
 1432 08ac 0346     		mov	r3, r0
 1433 08ae FA68     		ldr	r2, [r7, #12]
 1434 08b0 D318     		adds	r3, r2, r3
 1435 08b2 FB60     		str	r3, [r7, #12]
 1436              	.L45:
 821:../STM32F4-Discovery/stm32f4_discovery_audio_codec.c ****   }
 822:../STM32F4-Discovery/stm32f4_discovery_audio_codec.c **** 
 823:../STM32F4-Discovery/stm32f4_discovery_audio_codec.c ****   return counter;  
 1437              		.loc 1 823 0
 1438 08b4 FB68     		ldr	r3, [r7, #12]
 824:../STM32F4-Discovery/stm32f4_discovery_audio_codec.c **** }
 1439              		.loc 1 824 0
 1440 08b6 1846     		mov	r0, r3
 1441 08b8 07F11007 		add	r7, r7, #16
 1442 08bc BD46     		mov	sp, r7
 1443 08be 80BD     		pop	{r7, pc}
 1444              		.cfi_endproc
 1445              	.LFE127:
 1447              		.align	2
 1448              		.thumb
 1449              		.thumb_func
 1451              	Codec_Mute:
 1452              	.LFB128:
 825:../STM32F4-Discovery/stm32f4_discovery_audio_codec.c **** 
 826:../STM32F4-Discovery/stm32f4_discovery_audio_codec.c **** /**
 827:../STM32F4-Discovery/stm32f4_discovery_audio_codec.c ****   * @brief  Enables or disables the mute feature on the audio codec.
 828:../STM32F4-Discovery/stm32f4_discovery_audio_codec.c ****   * @param  Cmd: AUDIO_MUTE_ON to enable the mute or AUDIO_MUTE_OFF to disable the
 829:../STM32F4-Discovery/stm32f4_discovery_audio_codec.c ****   *             mute mode.
 830:../STM32F4-Discovery/stm32f4_discovery_audio_codec.c ****   * @retval 0 if correct communication, else wrong communication
 831:../STM32F4-Discovery/stm32f4_discovery_audio_codec.c ****   */
 832:../STM32F4-Discovery/stm32f4_discovery_audio_codec.c **** static uint32_t Codec_Mute(uint32_t Cmd)
 833:../STM32F4-Discovery/stm32f4_discovery_audio_codec.c **** {
 1453              		.loc 1 833 0
 1454              		.cfi_startproc
 1455              		@ args = 0, pretend = 0, frame = 16
 1456              		@ frame_needed = 1, uses_anonymous_args = 0
 1457 08c0 80B5     		push	{r7, lr}
 1458              	.LCFI48:
 1459              		.cfi_def_cfa_offset 8
 1460              		.cfi_offset 14, -4
 1461              		.cfi_offset 7, -8
 1462 08c2 84B0     		sub	sp, sp, #16
 1463              	.LCFI49:
 1464              		.cfi_def_cfa_offset 24
 1465 08c4 00AF     		add	r7, sp, #0
 1466              	.LCFI50:
 1467              		.cfi_def_cfa_register 7
 1468 08c6 7860     		str	r0, [r7, #4]
 834:../STM32F4-Discovery/stm32f4_discovery_audio_codec.c ****   uint32_t counter = 0;  
 1469              		.loc 1 834 0
 1470 08c8 4FF00003 		mov	r3, #0
 1471 08cc FB60     		str	r3, [r7, #12]
 835:../STM32F4-Discovery/stm32f4_discovery_audio_codec.c ****   
 836:../STM32F4-Discovery/stm32f4_discovery_audio_codec.c ****   /* Set the Mute mode */
 837:../STM32F4-Discovery/stm32f4_discovery_audio_codec.c ****   if (Cmd == AUDIO_MUTE_ON)
 1472              		.loc 1 837 0
 1473 08ce 7B68     		ldr	r3, [r7, #4]
 1474 08d0 012B     		cmp	r3, #1
 1475 08d2 0AD1     		bne	.L47
 838:../STM32F4-Discovery/stm32f4_discovery_audio_codec.c ****   {
 839:../STM32F4-Discovery/stm32f4_discovery_audio_codec.c ****     counter += Codec_WriteRegister(0x04, 0xFF);
 1476              		.loc 1 839 0
 1477 08d4 4FF00400 		mov	r0, #4
 1478 08d8 4FF0FF01 		mov	r1, #255
 1479 08dc 00F036F8 		bl	Codec_WriteRegister
 1480 08e0 0346     		mov	r3, r0
 1481 08e2 FA68     		ldr	r2, [r7, #12]
 1482 08e4 D318     		adds	r3, r2, r3
 1483 08e6 FB60     		str	r3, [r7, #12]
 1484 08e8 0EE0     		b	.L48
 1485              	.L47:
 840:../STM32F4-Discovery/stm32f4_discovery_audio_codec.c ****   }
 841:../STM32F4-Discovery/stm32f4_discovery_audio_codec.c ****   else /* AUDIO_MUTE_OFF Disable the Mute */
 842:../STM32F4-Discovery/stm32f4_discovery_audio_codec.c ****   {
 843:../STM32F4-Discovery/stm32f4_discovery_audio_codec.c ****     counter += Codec_WriteRegister(0x04, OutputDev);
 1486              		.loc 1 843 0
 1487 08ea 40F20003 		movw	r3, #:lower16:OutputDev
 1488 08ee C0F20003 		movt	r3, #:upper16:OutputDev
 1489 08f2 1B78     		ldrb	r3, [r3, #0]
 1490 08f4 DBB2     		uxtb	r3, r3
 1491 08f6 4FF00400 		mov	r0, #4
 1492 08fa 1946     		mov	r1, r3
 1493 08fc 00F026F8 		bl	Codec_WriteRegister
 1494 0900 0346     		mov	r3, r0
 1495 0902 FA68     		ldr	r2, [r7, #12]
 1496 0904 D318     		adds	r3, r2, r3
 1497 0906 FB60     		str	r3, [r7, #12]
 1498              	.L48:
 844:../STM32F4-Discovery/stm32f4_discovery_audio_codec.c ****   }
 845:../STM32F4-Discovery/stm32f4_discovery_audio_codec.c ****   
 846:../STM32F4-Discovery/stm32f4_discovery_audio_codec.c ****   return counter; 
 1499              		.loc 1 846 0
 1500 0908 FB68     		ldr	r3, [r7, #12]
 847:../STM32F4-Discovery/stm32f4_discovery_audio_codec.c **** }
 1501              		.loc 1 847 0
 1502 090a 1846     		mov	r0, r3
 1503 090c 07F11007 		add	r7, r7, #16
 1504 0910 BD46     		mov	sp, r7
 1505 0912 80BD     		pop	{r7, pc}
 1506              		.cfi_endproc
 1507              	.LFE128:
 1509              		.align	2
 1510              		.thumb
 1511              		.thumb_func
 1513              	Codec_Reset:
 1514              	.LFB129:
 848:../STM32F4-Discovery/stm32f4_discovery_audio_codec.c **** 
 849:../STM32F4-Discovery/stm32f4_discovery_audio_codec.c **** /**
 850:../STM32F4-Discovery/stm32f4_discovery_audio_codec.c ****   * @brief  Resets the audio codec. It restores the default configuration of the 
 851:../STM32F4-Discovery/stm32f4_discovery_audio_codec.c ****   *         codec (this function shall be called before initializing the codec).
 852:../STM32F4-Discovery/stm32f4_discovery_audio_codec.c ****   * @note   This function calls an external driver function: The IO Expander driver.
 853:../STM32F4-Discovery/stm32f4_discovery_audio_codec.c ****   * @param  None
 854:../STM32F4-Discovery/stm32f4_discovery_audio_codec.c ****   * @retval None
 855:../STM32F4-Discovery/stm32f4_discovery_audio_codec.c ****   */
 856:../STM32F4-Discovery/stm32f4_discovery_audio_codec.c **** static void Codec_Reset(void)
 857:../STM32F4-Discovery/stm32f4_discovery_audio_codec.c **** {
 1515              		.loc 1 857 0
 1516              		.cfi_startproc
 1517              		@ args = 0, pretend = 0, frame = 0
 1518              		@ frame_needed = 1, uses_anonymous_args = 0
 1519 0914 80B5     		push	{r7, lr}
 1520              	.LCFI51:
 1521              		.cfi_def_cfa_offset 8
 1522              		.cfi_offset 14, -4
 1523              		.cfi_offset 7, -8
 1524 0916 00AF     		add	r7, sp, #0
 1525              	.LCFI52:
 1526              		.cfi_def_cfa_register 7
 858:../STM32F4-Discovery/stm32f4_discovery_audio_codec.c ****   /* Power Down the codec */
 859:../STM32F4-Discovery/stm32f4_discovery_audio_codec.c ****   GPIO_WriteBit(AUDIO_RESET_GPIO, AUDIO_RESET_PIN, Bit_RESET);
 1527              		.loc 1 859 0
 1528 0918 4FF44060 		mov	r0, #3072
 1529 091c C4F20200 		movt	r0, 16386
 1530 0920 4FF01001 		mov	r1, #16
 1531 0924 4FF00002 		mov	r2, #0
 1532 0928 FFF7FEFF 		bl	GPIO_WriteBit
 860:../STM32F4-Discovery/stm32f4_discovery_audio_codec.c **** 
 861:../STM32F4-Discovery/stm32f4_discovery_audio_codec.c ****   /* wait for a delay to insure registers erasing */
 862:../STM32F4-Discovery/stm32f4_discovery_audio_codec.c ****   Delay(CODEC_RESET_DELAY); 
 1533              		.loc 1 862 0
 1534 092c 44F6FF70 		movw	r0, #20479
 1535 0930 00F0C8FC 		bl	Delay
 863:../STM32F4-Discovery/stm32f4_discovery_audio_codec.c ****   
 864:../STM32F4-Discovery/stm32f4_discovery_audio_codec.c ****   /* Power on the codec */
 865:../STM32F4-Discovery/stm32f4_discovery_audio_codec.c ****   GPIO_WriteBit(AUDIO_RESET_GPIO, AUDIO_RESET_PIN, Bit_SET);
 1536              		.loc 1 865 0
 1537 0934 4FF44060 		mov	r0, #3072
 1538 0938 C4F20200 		movt	r0, 16386
 1539 093c 4FF01001 		mov	r1, #16
 1540 0940 4FF00102 		mov	r2, #1
 1541 0944 FFF7FEFF 		bl	GPIO_WriteBit
 866:../STM32F4-Discovery/stm32f4_discovery_audio_codec.c **** }
 1542              		.loc 1 866 0
 1543 0948 80BD     		pop	{r7, pc}
 1544              		.cfi_endproc
 1545              	.LFE129:
 1547 094a 00BF     		.align	2
 1548              		.thumb
 1549              		.thumb_func
 1551              	Codec_WriteRegister:
 1552              	.LFB130:
 867:../STM32F4-Discovery/stm32f4_discovery_audio_codec.c **** 
 868:../STM32F4-Discovery/stm32f4_discovery_audio_codec.c **** /**
 869:../STM32F4-Discovery/stm32f4_discovery_audio_codec.c ****   * @brief  Writes a Byte to a given register into the audio codec through the 
 870:../STM32F4-Discovery/stm32f4_discovery_audio_codec.c ****             control interface (I2C)
 871:../STM32F4-Discovery/stm32f4_discovery_audio_codec.c ****   * @param  RegisterAddr: The address (location) of the register to be written.
 872:../STM32F4-Discovery/stm32f4_discovery_audio_codec.c ****   * @param  RegisterValue: the Byte value to be written into destination register.
 873:../STM32F4-Discovery/stm32f4_discovery_audio_codec.c ****   * @retval 0 if correct communication, else wrong communication
 874:../STM32F4-Discovery/stm32f4_discovery_audio_codec.c ****   */
 875:../STM32F4-Discovery/stm32f4_discovery_audio_codec.c **** static uint32_t Codec_WriteRegister(uint8_t RegisterAddr, uint8_t RegisterValue)
 876:../STM32F4-Discovery/stm32f4_discovery_audio_codec.c **** {
 1553              		.loc 1 876 0
 1554              		.cfi_startproc
 1555              		@ args = 0, pretend = 0, frame = 16
 1556              		@ frame_needed = 1, uses_anonymous_args = 0
 1557 094c 80B5     		push	{r7, lr}
 1558              	.LCFI53:
 1559              		.cfi_def_cfa_offset 8
 1560              		.cfi_offset 14, -4
 1561              		.cfi_offset 7, -8
 1562 094e 84B0     		sub	sp, sp, #16
 1563              	.LCFI54:
 1564              		.cfi_def_cfa_offset 24
 1565 0950 00AF     		add	r7, sp, #0
 1566              	.LCFI55:
 1567              		.cfi_def_cfa_register 7
 1568 0952 0246     		mov	r2, r0
 1569 0954 0B46     		mov	r3, r1
 1570 0956 FA71     		strb	r2, [r7, #7]
 1571 0958 BB71     		strb	r3, [r7, #6]
 877:../STM32F4-Discovery/stm32f4_discovery_audio_codec.c ****   uint32_t result = 0;
 1572              		.loc 1 877 0
 1573 095a 4FF00003 		mov	r3, #0
 1574 095e FB60     		str	r3, [r7, #12]
 878:../STM32F4-Discovery/stm32f4_discovery_audio_codec.c **** 
 879:../STM32F4-Discovery/stm32f4_discovery_audio_codec.c ****   /*!< While the bus is busy */
 880:../STM32F4-Discovery/stm32f4_discovery_audio_codec.c ****   CODECTimeout = CODEC_LONG_TIMEOUT;
 1575              		.loc 1 880 0
 1576 0960 40F20003 		movw	r3, #:lower16:CODECTimeout
 1577 0964 C0F20003 		movt	r3, #:upper16:CODECTimeout
 1578 0968 4FF49612 		mov	r2, #1228800
 1579 096c 1A60     		str	r2, [r3, #0]
 881:../STM32F4-Discovery/stm32f4_discovery_audio_codec.c ****   while(I2C_GetFlagStatus(CODEC_I2C, I2C_FLAG_BUSY))
 1580              		.loc 1 881 0
 1581 096e 16E0     		b	.L51
 1582              	.L53:
 882:../STM32F4-Discovery/stm32f4_discovery_audio_codec.c ****   {
 883:../STM32F4-Discovery/stm32f4_discovery_audio_codec.c ****     if((CODECTimeout--) == 0) return Codec_TIMEOUT_UserCallback();
 1583              		.loc 1 883 0
 1584 0970 40F20003 		movw	r3, #:lower16:CODECTimeout
 1585 0974 C0F20003 		movt	r3, #:upper16:CODECTimeout
 1586 0978 1B68     		ldr	r3, [r3, #0]
 1587 097a 002B     		cmp	r3, #0
 1588 097c 14BF     		ite	ne
 1589 097e 0022     		movne	r2, #0
 1590 0980 0122     		moveq	r2, #1
 1591 0982 D2B2     		uxtb	r2, r2
 1592 0984 03F1FF31 		add	r1, r3, #-1
 1593 0988 40F20003 		movw	r3, #:lower16:CODECTimeout
 1594 098c C0F20003 		movt	r3, #:upper16:CODECTimeout
 1595 0990 1960     		str	r1, [r3, #0]
 1596 0992 002A     		cmp	r2, #0
 1597 0994 03D0     		beq	.L51
 1598              		.loc 1 883 0 is_stmt 0 discriminator 1
 1599 0996 FFF7FEFF 		bl	Codec_TIMEOUT_UserCallback
 1600 099a 0346     		mov	r3, r0
 1601 099c EEE0     		b	.L52
 1602              	.L51:
 881:../STM32F4-Discovery/stm32f4_discovery_audio_codec.c ****   while(I2C_GetFlagStatus(CODEC_I2C, I2C_FLAG_BUSY))
 1603              		.loc 1 881 0 is_stmt 1 discriminator 1
 1604 099e 4FF4A840 		mov	r0, #21504
 1605 09a2 C4F20000 		movt	r0, 16384
 1606 09a6 4FF40031 		mov	r1, #131072
 1607 09aa FFF7FEFF 		bl	I2C_GetFlagStatus
 1608 09ae 0346     		mov	r3, r0
 1609 09b0 002B     		cmp	r3, #0
 1610 09b2 DDD1     		bne	.L53
 884:../STM32F4-Discovery/stm32f4_discovery_audio_codec.c ****   }
 885:../STM32F4-Discovery/stm32f4_discovery_audio_codec.c ****   
 886:../STM32F4-Discovery/stm32f4_discovery_audio_codec.c ****   /* Start the config sequence */
 887:../STM32F4-Discovery/stm32f4_discovery_audio_codec.c ****   I2C_GenerateSTART(CODEC_I2C, ENABLE);
 1611              		.loc 1 887 0
 1612 09b4 4FF4A840 		mov	r0, #21504
 1613 09b8 C4F20000 		movt	r0, 16384
 1614 09bc 4FF00101 		mov	r1, #1
 1615 09c0 FFF7FEFF 		bl	I2C_GenerateSTART
 888:../STM32F4-Discovery/stm32f4_discovery_audio_codec.c **** 
 889:../STM32F4-Discovery/stm32f4_discovery_audio_codec.c ****   /* Test on EV5 and clear it */
 890:../STM32F4-Discovery/stm32f4_discovery_audio_codec.c ****   CODECTimeout = CODEC_FLAG_TIMEOUT;
 1616              		.loc 1 890 0
 1617 09c4 40F20003 		movw	r3, #:lower16:CODECTimeout
 1618 09c8 C0F20003 		movt	r3, #:upper16:CODECTimeout
 1619 09cc 4FF48052 		mov	r2, #4096
 1620 09d0 1A60     		str	r2, [r3, #0]
 891:../STM32F4-Discovery/stm32f4_discovery_audio_codec.c ****   while (!I2C_CheckEvent(CODEC_I2C, I2C_EVENT_MASTER_MODE_SELECT))
 1621              		.loc 1 891 0
 1622 09d2 16E0     		b	.L54
 1623              	.L55:
 892:../STM32F4-Discovery/stm32f4_discovery_audio_codec.c ****   {
 893:../STM32F4-Discovery/stm32f4_discovery_audio_codec.c ****     if((CODECTimeout--) == 0) return Codec_TIMEOUT_UserCallback();
 1624              		.loc 1 893 0
 1625 09d4 40F20003 		movw	r3, #:lower16:CODECTimeout
 1626 09d8 C0F20003 		movt	r3, #:upper16:CODECTimeout
 1627 09dc 1B68     		ldr	r3, [r3, #0]
 1628 09de 002B     		cmp	r3, #0
 1629 09e0 14BF     		ite	ne
 1630 09e2 0022     		movne	r2, #0
 1631 09e4 0122     		moveq	r2, #1
 1632 09e6 D2B2     		uxtb	r2, r2
 1633 09e8 03F1FF31 		add	r1, r3, #-1
 1634 09ec 40F20003 		movw	r3, #:lower16:CODECTimeout
 1635 09f0 C0F20003 		movt	r3, #:upper16:CODECTimeout
 1636 09f4 1960     		str	r1, [r3, #0]
 1637 09f6 002A     		cmp	r2, #0
 1638 09f8 03D0     		beq	.L54
 1639              		.loc 1 893 0 is_stmt 0 discriminator 1
 1640 09fa FFF7FEFF 		bl	Codec_TIMEOUT_UserCallback
 1641 09fe 0346     		mov	r3, r0
 1642 0a00 BCE0     		b	.L52
 1643              	.L54:
 891:../STM32F4-Discovery/stm32f4_discovery_audio_codec.c ****   while (!I2C_CheckEvent(CODEC_I2C, I2C_EVENT_MASTER_MODE_SELECT))
 1644              		.loc 1 891 0 is_stmt 1 discriminator 1
 1645 0a02 4FF4A840 		mov	r0, #21504
 1646 0a06 C4F20000 		movt	r0, 16384
 1647 0a0a 4FF00101 		mov	r1, #1
 1648 0a0e C0F20301 		movt	r1, 3
 1649 0a12 FFF7FEFF 		bl	I2C_CheckEvent
 1650 0a16 0346     		mov	r3, r0
 1651 0a18 002B     		cmp	r3, #0
 1652 0a1a DBD0     		beq	.L55
 894:../STM32F4-Discovery/stm32f4_discovery_audio_codec.c ****   }
 895:../STM32F4-Discovery/stm32f4_discovery_audio_codec.c ****   
 896:../STM32F4-Discovery/stm32f4_discovery_audio_codec.c ****   /* Transmit the slave address and enable writing operation */
 897:../STM32F4-Discovery/stm32f4_discovery_audio_codec.c ****   I2C_Send7bitAddress(CODEC_I2C, CODEC_ADDRESS, I2C_Direction_Transmitter);
 1653              		.loc 1 897 0
 1654 0a1c 4FF4A840 		mov	r0, #21504
 1655 0a20 C4F20000 		movt	r0, 16384
 1656 0a24 4FF09401 		mov	r1, #148
 1657 0a28 4FF00002 		mov	r2, #0
 1658 0a2c FFF7FEFF 		bl	I2C_Send7bitAddress
 898:../STM32F4-Discovery/stm32f4_discovery_audio_codec.c **** 
 899:../STM32F4-Discovery/stm32f4_discovery_audio_codec.c ****   /* Test on EV6 and clear it */
 900:../STM32F4-Discovery/stm32f4_discovery_audio_codec.c ****   CODECTimeout = CODEC_FLAG_TIMEOUT;
 1659              		.loc 1 900 0
 1660 0a30 40F20003 		movw	r3, #:lower16:CODECTimeout
 1661 0a34 C0F20003 		movt	r3, #:upper16:CODECTimeout
 1662 0a38 4FF48052 		mov	r2, #4096
 1663 0a3c 1A60     		str	r2, [r3, #0]
 901:../STM32F4-Discovery/stm32f4_discovery_audio_codec.c ****   while (!I2C_CheckEvent(CODEC_I2C, I2C_EVENT_MASTER_TRANSMITTER_MODE_SELECTED))
 1664              		.loc 1 901 0
 1665 0a3e 16E0     		b	.L56
 1666              	.L57:
 902:../STM32F4-Discovery/stm32f4_discovery_audio_codec.c ****   {
 903:../STM32F4-Discovery/stm32f4_discovery_audio_codec.c ****     if((CODECTimeout--) == 0) return Codec_TIMEOUT_UserCallback();
 1667              		.loc 1 903 0
 1668 0a40 40F20003 		movw	r3, #:lower16:CODECTimeout
 1669 0a44 C0F20003 		movt	r3, #:upper16:CODECTimeout
 1670 0a48 1B68     		ldr	r3, [r3, #0]
 1671 0a4a 002B     		cmp	r3, #0
 1672 0a4c 14BF     		ite	ne
 1673 0a4e 0022     		movne	r2, #0
 1674 0a50 0122     		moveq	r2, #1
 1675 0a52 D2B2     		uxtb	r2, r2
 1676 0a54 03F1FF31 		add	r1, r3, #-1
 1677 0a58 40F20003 		movw	r3, #:lower16:CODECTimeout
 1678 0a5c C0F20003 		movt	r3, #:upper16:CODECTimeout
 1679 0a60 1960     		str	r1, [r3, #0]
 1680 0a62 002A     		cmp	r2, #0
 1681 0a64 03D0     		beq	.L56
 1682              		.loc 1 903 0 is_stmt 0 discriminator 1
 1683 0a66 FFF7FEFF 		bl	Codec_TIMEOUT_UserCallback
 1684 0a6a 0346     		mov	r3, r0
 1685 0a6c 86E0     		b	.L52
 1686              	.L56:
 901:../STM32F4-Discovery/stm32f4_discovery_audio_codec.c ****   while (!I2C_CheckEvent(CODEC_I2C, I2C_EVENT_MASTER_TRANSMITTER_MODE_SELECTED))
 1687              		.loc 1 901 0 is_stmt 1 discriminator 1
 1688 0a6e 4FF4A840 		mov	r0, #21504
 1689 0a72 C4F20000 		movt	r0, 16384
 1690 0a76 4FF08201 		mov	r1, #130
 1691 0a7a C0F20701 		movt	r1, 7
 1692 0a7e FFF7FEFF 		bl	I2C_CheckEvent
 1693 0a82 0346     		mov	r3, r0
 1694 0a84 002B     		cmp	r3, #0
 1695 0a86 DBD0     		beq	.L57
 904:../STM32F4-Discovery/stm32f4_discovery_audio_codec.c ****   }
 905:../STM32F4-Discovery/stm32f4_discovery_audio_codec.c **** 
 906:../STM32F4-Discovery/stm32f4_discovery_audio_codec.c ****   /* Transmit the first address for write operation */
 907:../STM32F4-Discovery/stm32f4_discovery_audio_codec.c ****   I2C_SendData(CODEC_I2C, RegisterAddr);
 1696              		.loc 1 907 0
 1697 0a88 FB79     		ldrb	r3, [r7, #7]	@ zero_extendqisi2
 1698 0a8a 4FF4A840 		mov	r0, #21504
 1699 0a8e C4F20000 		movt	r0, 16384
 1700 0a92 1946     		mov	r1, r3
 1701 0a94 FFF7FEFF 		bl	I2C_SendData
 908:../STM32F4-Discovery/stm32f4_discovery_audio_codec.c **** 
 909:../STM32F4-Discovery/stm32f4_discovery_audio_codec.c ****   /* Test on EV8 and clear it */
 910:../STM32F4-Discovery/stm32f4_discovery_audio_codec.c ****   CODECTimeout = CODEC_FLAG_TIMEOUT;
 1702              		.loc 1 910 0
 1703 0a98 40F20003 		movw	r3, #:lower16:CODECTimeout
 1704 0a9c C0F20003 		movt	r3, #:upper16:CODECTimeout
 1705 0aa0 4FF48052 		mov	r2, #4096
 1706 0aa4 1A60     		str	r2, [r3, #0]
 911:../STM32F4-Discovery/stm32f4_discovery_audio_codec.c ****   while (!I2C_CheckEvent(CODEC_I2C, I2C_EVENT_MASTER_BYTE_TRANSMITTING))
 1707              		.loc 1 911 0
 1708 0aa6 16E0     		b	.L58
 1709              	.L59:
 912:../STM32F4-Discovery/stm32f4_discovery_audio_codec.c ****   {
 913:../STM32F4-Discovery/stm32f4_discovery_audio_codec.c ****     if((CODECTimeout--) == 0) return Codec_TIMEOUT_UserCallback();
 1710              		.loc 1 913 0
 1711 0aa8 40F20003 		movw	r3, #:lower16:CODECTimeout
 1712 0aac C0F20003 		movt	r3, #:upper16:CODECTimeout
 1713 0ab0 1B68     		ldr	r3, [r3, #0]
 1714 0ab2 002B     		cmp	r3, #0
 1715 0ab4 14BF     		ite	ne
 1716 0ab6 0022     		movne	r2, #0
 1717 0ab8 0122     		moveq	r2, #1
 1718 0aba D2B2     		uxtb	r2, r2
 1719 0abc 03F1FF31 		add	r1, r3, #-1
 1720 0ac0 40F20003 		movw	r3, #:lower16:CODECTimeout
 1721 0ac4 C0F20003 		movt	r3, #:upper16:CODECTimeout
 1722 0ac8 1960     		str	r1, [r3, #0]
 1723 0aca 002A     		cmp	r2, #0
 1724 0acc 03D0     		beq	.L58
 1725              		.loc 1 913 0 is_stmt 0 discriminator 1
 1726 0ace FFF7FEFF 		bl	Codec_TIMEOUT_UserCallback
 1727 0ad2 0346     		mov	r3, r0
 1728 0ad4 52E0     		b	.L52
 1729              	.L58:
 911:../STM32F4-Discovery/stm32f4_discovery_audio_codec.c ****   while (!I2C_CheckEvent(CODEC_I2C, I2C_EVENT_MASTER_BYTE_TRANSMITTING))
 1730              		.loc 1 911 0 is_stmt 1 discriminator 1
 1731 0ad6 4FF4A840 		mov	r0, #21504
 1732 0ada C4F20000 		movt	r0, 16384
 1733 0ade 4FF08001 		mov	r1, #128
 1734 0ae2 C0F20701 		movt	r1, 7
 1735 0ae6 FFF7FEFF 		bl	I2C_CheckEvent
 1736 0aea 0346     		mov	r3, r0
 1737 0aec 002B     		cmp	r3, #0
 1738 0aee DBD0     		beq	.L59
 914:../STM32F4-Discovery/stm32f4_discovery_audio_codec.c ****   }
 915:../STM32F4-Discovery/stm32f4_discovery_audio_codec.c ****   
 916:../STM32F4-Discovery/stm32f4_discovery_audio_codec.c ****   /* Prepare the register value to be sent */
 917:../STM32F4-Discovery/stm32f4_discovery_audio_codec.c ****   I2C_SendData(CODEC_I2C, RegisterValue);
 1739              		.loc 1 917 0
 1740 0af0 BB79     		ldrb	r3, [r7, #6]	@ zero_extendqisi2
 1741 0af2 4FF4A840 		mov	r0, #21504
 1742 0af6 C4F20000 		movt	r0, 16384
 1743 0afa 1946     		mov	r1, r3
 1744 0afc FFF7FEFF 		bl	I2C_SendData
 918:../STM32F4-Discovery/stm32f4_discovery_audio_codec.c ****   
 919:../STM32F4-Discovery/stm32f4_discovery_audio_codec.c ****   /*!< Wait till all data have been physically transferred on the bus */
 920:../STM32F4-Discovery/stm32f4_discovery_audio_codec.c ****   CODECTimeout = CODEC_LONG_TIMEOUT;
 1745              		.loc 1 920 0
 1746 0b00 40F20003 		movw	r3, #:lower16:CODECTimeout
 1747 0b04 C0F20003 		movt	r3, #:upper16:CODECTimeout
 1748 0b08 4FF49612 		mov	r2, #1228800
 1749 0b0c 1A60     		str	r2, [r3, #0]
 921:../STM32F4-Discovery/stm32f4_discovery_audio_codec.c ****   while(!I2C_GetFlagStatus(CODEC_I2C, I2C_FLAG_BTF))
 1750              		.loc 1 921 0
 1751 0b0e 14E0     		b	.L60
 1752              	.L61:
 922:../STM32F4-Discovery/stm32f4_discovery_audio_codec.c ****   {
 923:../STM32F4-Discovery/stm32f4_discovery_audio_codec.c ****     if((CODECTimeout--) == 0) Codec_TIMEOUT_UserCallback();
 1753              		.loc 1 923 0
 1754 0b10 40F20003 		movw	r3, #:lower16:CODECTimeout
 1755 0b14 C0F20003 		movt	r3, #:upper16:CODECTimeout
 1756 0b18 1B68     		ldr	r3, [r3, #0]
 1757 0b1a 002B     		cmp	r3, #0
 1758 0b1c 14BF     		ite	ne
 1759 0b1e 0022     		movne	r2, #0
 1760 0b20 0122     		moveq	r2, #1
 1761 0b22 D2B2     		uxtb	r2, r2
 1762 0b24 03F1FF31 		add	r1, r3, #-1
 1763 0b28 40F20003 		movw	r3, #:lower16:CODECTimeout
 1764 0b2c C0F20003 		movt	r3, #:upper16:CODECTimeout
 1765 0b30 1960     		str	r1, [r3, #0]
 1766 0b32 002A     		cmp	r2, #0
 1767 0b34 01D0     		beq	.L60
 1768              		.loc 1 923 0 is_stmt 0 discriminator 1
 1769 0b36 FFF7FEFF 		bl	Codec_TIMEOUT_UserCallback
 1770              	.L60:
 921:../STM32F4-Discovery/stm32f4_discovery_audio_codec.c ****   while(!I2C_GetFlagStatus(CODEC_I2C, I2C_FLAG_BTF))
 1771              		.loc 1 921 0 is_stmt 1 discriminator 1
 1772 0b3a 4FF4A840 		mov	r0, #21504
 1773 0b3e C4F20000 		movt	r0, 16384
 1774 0b42 4FF00401 		mov	r1, #4
 1775 0b46 C1F20001 		movt	r1, 4096
 1776 0b4a FFF7FEFF 		bl	I2C_GetFlagStatus
 1777 0b4e 0346     		mov	r3, r0
 1778 0b50 002B     		cmp	r3, #0
 1779 0b52 DDD0     		beq	.L61
 924:../STM32F4-Discovery/stm32f4_discovery_audio_codec.c ****   }
 925:../STM32F4-Discovery/stm32f4_discovery_audio_codec.c ****   
 926:../STM32F4-Discovery/stm32f4_discovery_audio_codec.c ****   /* End the configuration sequence */
 927:../STM32F4-Discovery/stm32f4_discovery_audio_codec.c ****   I2C_GenerateSTOP(CODEC_I2C, ENABLE);  
 1780              		.loc 1 927 0
 1781 0b54 4FF4A840 		mov	r0, #21504
 1782 0b58 C4F20000 		movt	r0, 16384
 1783 0b5c 4FF00101 		mov	r1, #1
 1784 0b60 FFF7FEFF 		bl	I2C_GenerateSTOP
 928:../STM32F4-Discovery/stm32f4_discovery_audio_codec.c ****   
 929:../STM32F4-Discovery/stm32f4_discovery_audio_codec.c **** #ifdef VERIFY_WRITTENDATA
 930:../STM32F4-Discovery/stm32f4_discovery_audio_codec.c ****   /* Verify that the data has been correctly written */  
 931:../STM32F4-Discovery/stm32f4_discovery_audio_codec.c ****   result = (Codec_ReadRegister(RegisterAddr) == RegisterValue)? 0:1;
 1785              		.loc 1 931 0
 1786 0b64 FB79     		ldrb	r3, [r7, #7]	@ zero_extendqisi2
 1787 0b66 1846     		mov	r0, r3
 1788 0b68 00F00EF8 		bl	Codec_ReadRegister
 1789 0b6c 0246     		mov	r2, r0
 1790 0b6e BB79     		ldrb	r3, [r7, #6]	@ zero_extendqisi2
 1791 0b70 9A42     		cmp	r2, r3
 1792 0b72 0CBF     		ite	eq
 1793 0b74 0023     		moveq	r3, #0
 1794 0b76 0123     		movne	r3, #1
 1795 0b78 FB60     		str	r3, [r7, #12]
 932:../STM32F4-Discovery/stm32f4_discovery_audio_codec.c **** #endif /* VERIFY_WRITTENDATA */
 933:../STM32F4-Discovery/stm32f4_discovery_audio_codec.c **** 
 934:../STM32F4-Discovery/stm32f4_discovery_audio_codec.c ****   /* Return the verifying value: 0 (Passed) or 1 (Failed) */
 935:../STM32F4-Discovery/stm32f4_discovery_audio_codec.c ****   return result;  
 1796              		.loc 1 935 0
 1797 0b7a FB68     		ldr	r3, [r7, #12]
 1798              	.L52:
 936:../STM32F4-Discovery/stm32f4_discovery_audio_codec.c **** }
 1799              		.loc 1 936 0
 1800 0b7c 1846     		mov	r0, r3
 1801 0b7e 07F11007 		add	r7, r7, #16
 1802 0b82 BD46     		mov	sp, r7
 1803 0b84 80BD     		pop	{r7, pc}
 1804              		.cfi_endproc
 1805              	.LFE130:
 1807 0b86 00BF     		.align	2
 1808              		.thumb
 1809              		.thumb_func
 1811              	Codec_ReadRegister:
 1812              	.LFB131:
 937:../STM32F4-Discovery/stm32f4_discovery_audio_codec.c **** 
 938:../STM32F4-Discovery/stm32f4_discovery_audio_codec.c **** /**
 939:../STM32F4-Discovery/stm32f4_discovery_audio_codec.c ****   * @brief  Reads and returns the value of an audio codec register through the
 940:../STM32F4-Discovery/stm32f4_discovery_audio_codec.c ****   *         control interface (I2C).
 941:../STM32F4-Discovery/stm32f4_discovery_audio_codec.c ****   * @param  RegisterAddr: Address of the register to be read.
 942:../STM32F4-Discovery/stm32f4_discovery_audio_codec.c ****   * @retval Value of the register to be read or dummy value if the communication
 943:../STM32F4-Discovery/stm32f4_discovery_audio_codec.c ****   *         fails.
 944:../STM32F4-Discovery/stm32f4_discovery_audio_codec.c ****   */
 945:../STM32F4-Discovery/stm32f4_discovery_audio_codec.c **** static uint32_t Codec_ReadRegister(uint8_t RegisterAddr)
 946:../STM32F4-Discovery/stm32f4_discovery_audio_codec.c **** {
 1813              		.loc 1 946 0
 1814              		.cfi_startproc
 1815              		@ args = 0, pretend = 0, frame = 16
 1816              		@ frame_needed = 1, uses_anonymous_args = 0
 1817 0b88 80B5     		push	{r7, lr}
 1818              	.LCFI56:
 1819              		.cfi_def_cfa_offset 8
 1820              		.cfi_offset 14, -4
 1821              		.cfi_offset 7, -8
 1822 0b8a 84B0     		sub	sp, sp, #16
 1823              	.LCFI57:
 1824              		.cfi_def_cfa_offset 24
 1825 0b8c 00AF     		add	r7, sp, #0
 1826              	.LCFI58:
 1827              		.cfi_def_cfa_register 7
 1828 0b8e 0346     		mov	r3, r0
 1829 0b90 FB71     		strb	r3, [r7, #7]
 947:../STM32F4-Discovery/stm32f4_discovery_audio_codec.c ****   uint32_t result = 0;
 1830              		.loc 1 947 0
 1831 0b92 4FF00003 		mov	r3, #0
 1832 0b96 FB60     		str	r3, [r7, #12]
 948:../STM32F4-Discovery/stm32f4_discovery_audio_codec.c **** 
 949:../STM32F4-Discovery/stm32f4_discovery_audio_codec.c ****   /*!< While the bus is busy */
 950:../STM32F4-Discovery/stm32f4_discovery_audio_codec.c ****   CODECTimeout = CODEC_LONG_TIMEOUT;
 1833              		.loc 1 950 0
 1834 0b98 40F20003 		movw	r3, #:lower16:CODECTimeout
 1835 0b9c C0F20003 		movt	r3, #:upper16:CODECTimeout
 1836 0ba0 4FF49612 		mov	r2, #1228800
 1837 0ba4 1A60     		str	r2, [r3, #0]
 951:../STM32F4-Discovery/stm32f4_discovery_audio_codec.c ****   while(I2C_GetFlagStatus(CODEC_I2C, I2C_FLAG_BUSY))
 1838              		.loc 1 951 0
 1839 0ba6 16E0     		b	.L63
 1840              	.L65:
 952:../STM32F4-Discovery/stm32f4_discovery_audio_codec.c ****   {
 953:../STM32F4-Discovery/stm32f4_discovery_audio_codec.c ****     if((CODECTimeout--) == 0) return Codec_TIMEOUT_UserCallback();
 1841              		.loc 1 953 0
 1842 0ba8 40F20003 		movw	r3, #:lower16:CODECTimeout
 1843 0bac C0F20003 		movt	r3, #:upper16:CODECTimeout
 1844 0bb0 1B68     		ldr	r3, [r3, #0]
 1845 0bb2 002B     		cmp	r3, #0
 1846 0bb4 14BF     		ite	ne
 1847 0bb6 0022     		movne	r2, #0
 1848 0bb8 0122     		moveq	r2, #1
 1849 0bba D2B2     		uxtb	r2, r2
 1850 0bbc 03F1FF31 		add	r1, r3, #-1
 1851 0bc0 40F20003 		movw	r3, #:lower16:CODECTimeout
 1852 0bc4 C0F20003 		movt	r3, #:upper16:CODECTimeout
 1853 0bc8 1960     		str	r1, [r3, #0]
 1854 0bca 002A     		cmp	r2, #0
 1855 0bcc 03D0     		beq	.L63
 1856              		.loc 1 953 0 is_stmt 0 discriminator 1
 1857 0bce FFF7FEFF 		bl	Codec_TIMEOUT_UserCallback
 1858 0bd2 0346     		mov	r3, r0
 1859 0bd4 97E1     		b	.L64
 1860              	.L63:
 951:../STM32F4-Discovery/stm32f4_discovery_audio_codec.c ****   while(I2C_GetFlagStatus(CODEC_I2C, I2C_FLAG_BUSY))
 1861              		.loc 1 951 0 is_stmt 1 discriminator 1
 1862 0bd6 4FF4A840 		mov	r0, #21504
 1863 0bda C4F20000 		movt	r0, 16384
 1864 0bde 4FF40031 		mov	r1, #131072
 1865 0be2 FFF7FEFF 		bl	I2C_GetFlagStatus
 1866 0be6 0346     		mov	r3, r0
 1867 0be8 002B     		cmp	r3, #0
 1868 0bea DDD1     		bne	.L65
 954:../STM32F4-Discovery/stm32f4_discovery_audio_codec.c ****   }
 955:../STM32F4-Discovery/stm32f4_discovery_audio_codec.c ****   
 956:../STM32F4-Discovery/stm32f4_discovery_audio_codec.c ****   /* Start the config sequence */
 957:../STM32F4-Discovery/stm32f4_discovery_audio_codec.c ****   I2C_GenerateSTART(CODEC_I2C, ENABLE);
 1869              		.loc 1 957 0
 1870 0bec 4FF4A840 		mov	r0, #21504
 1871 0bf0 C4F20000 		movt	r0, 16384
 1872 0bf4 4FF00101 		mov	r1, #1
 1873 0bf8 FFF7FEFF 		bl	I2C_GenerateSTART
 958:../STM32F4-Discovery/stm32f4_discovery_audio_codec.c **** 
 959:../STM32F4-Discovery/stm32f4_discovery_audio_codec.c ****   /* Test on EV5 and clear it */
 960:../STM32F4-Discovery/stm32f4_discovery_audio_codec.c ****   CODECTimeout = CODEC_FLAG_TIMEOUT;
 1874              		.loc 1 960 0
 1875 0bfc 40F20003 		movw	r3, #:lower16:CODECTimeout
 1876 0c00 C0F20003 		movt	r3, #:upper16:CODECTimeout
 1877 0c04 4FF48052 		mov	r2, #4096
 1878 0c08 1A60     		str	r2, [r3, #0]
 961:../STM32F4-Discovery/stm32f4_discovery_audio_codec.c ****   while (!I2C_CheckEvent(CODEC_I2C, I2C_EVENT_MASTER_MODE_SELECT))
 1879              		.loc 1 961 0
 1880 0c0a 16E0     		b	.L66
 1881              	.L67:
 962:../STM32F4-Discovery/stm32f4_discovery_audio_codec.c ****   {
 963:../STM32F4-Discovery/stm32f4_discovery_audio_codec.c ****     if((CODECTimeout--) == 0) return Codec_TIMEOUT_UserCallback();
 1882              		.loc 1 963 0
 1883 0c0c 40F20003 		movw	r3, #:lower16:CODECTimeout
 1884 0c10 C0F20003 		movt	r3, #:upper16:CODECTimeout
 1885 0c14 1B68     		ldr	r3, [r3, #0]
 1886 0c16 002B     		cmp	r3, #0
 1887 0c18 14BF     		ite	ne
 1888 0c1a 0022     		movne	r2, #0
 1889 0c1c 0122     		moveq	r2, #1
 1890 0c1e D2B2     		uxtb	r2, r2
 1891 0c20 03F1FF31 		add	r1, r3, #-1
 1892 0c24 40F20003 		movw	r3, #:lower16:CODECTimeout
 1893 0c28 C0F20003 		movt	r3, #:upper16:CODECTimeout
 1894 0c2c 1960     		str	r1, [r3, #0]
 1895 0c2e 002A     		cmp	r2, #0
 1896 0c30 03D0     		beq	.L66
 1897              		.loc 1 963 0 is_stmt 0 discriminator 1
 1898 0c32 FFF7FEFF 		bl	Codec_TIMEOUT_UserCallback
 1899 0c36 0346     		mov	r3, r0
 1900 0c38 65E1     		b	.L64
 1901              	.L66:
 961:../STM32F4-Discovery/stm32f4_discovery_audio_codec.c ****   while (!I2C_CheckEvent(CODEC_I2C, I2C_EVENT_MASTER_MODE_SELECT))
 1902              		.loc 1 961 0 is_stmt 1 discriminator 1
 1903 0c3a 4FF4A840 		mov	r0, #21504
 1904 0c3e C4F20000 		movt	r0, 16384
 1905 0c42 4FF00101 		mov	r1, #1
 1906 0c46 C0F20301 		movt	r1, 3
 1907 0c4a FFF7FEFF 		bl	I2C_CheckEvent
 1908 0c4e 0346     		mov	r3, r0
 1909 0c50 002B     		cmp	r3, #0
 1910 0c52 DBD0     		beq	.L67
 964:../STM32F4-Discovery/stm32f4_discovery_audio_codec.c ****   }
 965:../STM32F4-Discovery/stm32f4_discovery_audio_codec.c ****   
 966:../STM32F4-Discovery/stm32f4_discovery_audio_codec.c ****   /* Transmit the slave address and enable writing operation */
 967:../STM32F4-Discovery/stm32f4_discovery_audio_codec.c ****   I2C_Send7bitAddress(CODEC_I2C, CODEC_ADDRESS, I2C_Direction_Transmitter);
 1911              		.loc 1 967 0
 1912 0c54 4FF4A840 		mov	r0, #21504
 1913 0c58 C4F20000 		movt	r0, 16384
 1914 0c5c 4FF09401 		mov	r1, #148
 1915 0c60 4FF00002 		mov	r2, #0
 1916 0c64 FFF7FEFF 		bl	I2C_Send7bitAddress
 968:../STM32F4-Discovery/stm32f4_discovery_audio_codec.c **** 
 969:../STM32F4-Discovery/stm32f4_discovery_audio_codec.c ****   /* Test on EV6 and clear it */
 970:../STM32F4-Discovery/stm32f4_discovery_audio_codec.c ****   CODECTimeout = CODEC_FLAG_TIMEOUT;
 1917              		.loc 1 970 0
 1918 0c68 40F20003 		movw	r3, #:lower16:CODECTimeout
 1919 0c6c C0F20003 		movt	r3, #:upper16:CODECTimeout
 1920 0c70 4FF48052 		mov	r2, #4096
 1921 0c74 1A60     		str	r2, [r3, #0]
 971:../STM32F4-Discovery/stm32f4_discovery_audio_codec.c ****   while (!I2C_CheckEvent(CODEC_I2C, I2C_EVENT_MASTER_TRANSMITTER_MODE_SELECTED))
 1922              		.loc 1 971 0
 1923 0c76 16E0     		b	.L68
 1924              	.L69:
 972:../STM32F4-Discovery/stm32f4_discovery_audio_codec.c ****   {
 973:../STM32F4-Discovery/stm32f4_discovery_audio_codec.c ****     if((CODECTimeout--) == 0) return Codec_TIMEOUT_UserCallback();
 1925              		.loc 1 973 0
 1926 0c78 40F20003 		movw	r3, #:lower16:CODECTimeout
 1927 0c7c C0F20003 		movt	r3, #:upper16:CODECTimeout
 1928 0c80 1B68     		ldr	r3, [r3, #0]
 1929 0c82 002B     		cmp	r3, #0
 1930 0c84 14BF     		ite	ne
 1931 0c86 0022     		movne	r2, #0
 1932 0c88 0122     		moveq	r2, #1
 1933 0c8a D2B2     		uxtb	r2, r2
 1934 0c8c 03F1FF31 		add	r1, r3, #-1
 1935 0c90 40F20003 		movw	r3, #:lower16:CODECTimeout
 1936 0c94 C0F20003 		movt	r3, #:upper16:CODECTimeout
 1937 0c98 1960     		str	r1, [r3, #0]
 1938 0c9a 002A     		cmp	r2, #0
 1939 0c9c 03D0     		beq	.L68
 1940              		.loc 1 973 0 is_stmt 0 discriminator 1
 1941 0c9e FFF7FEFF 		bl	Codec_TIMEOUT_UserCallback
 1942 0ca2 0346     		mov	r3, r0
 1943 0ca4 2FE1     		b	.L64
 1944              	.L68:
 971:../STM32F4-Discovery/stm32f4_discovery_audio_codec.c ****   while (!I2C_CheckEvent(CODEC_I2C, I2C_EVENT_MASTER_TRANSMITTER_MODE_SELECTED))
 1945              		.loc 1 971 0 is_stmt 1 discriminator 1
 1946 0ca6 4FF4A840 		mov	r0, #21504
 1947 0caa C4F20000 		movt	r0, 16384
 1948 0cae 4FF08201 		mov	r1, #130
 1949 0cb2 C0F20701 		movt	r1, 7
 1950 0cb6 FFF7FEFF 		bl	I2C_CheckEvent
 1951 0cba 0346     		mov	r3, r0
 1952 0cbc 002B     		cmp	r3, #0
 1953 0cbe DBD0     		beq	.L69
 974:../STM32F4-Discovery/stm32f4_discovery_audio_codec.c ****   }
 975:../STM32F4-Discovery/stm32f4_discovery_audio_codec.c **** 
 976:../STM32F4-Discovery/stm32f4_discovery_audio_codec.c ****   /* Transmit the register address to be read */
 977:../STM32F4-Discovery/stm32f4_discovery_audio_codec.c ****   I2C_SendData(CODEC_I2C, RegisterAddr);
 1954              		.loc 1 977 0
 1955 0cc0 FB79     		ldrb	r3, [r7, #7]	@ zero_extendqisi2
 1956 0cc2 4FF4A840 		mov	r0, #21504
 1957 0cc6 C4F20000 		movt	r0, 16384
 1958 0cca 1946     		mov	r1, r3
 1959 0ccc FFF7FEFF 		bl	I2C_SendData
 978:../STM32F4-Discovery/stm32f4_discovery_audio_codec.c **** 
 979:../STM32F4-Discovery/stm32f4_discovery_audio_codec.c ****   /* Test on EV8 and clear it */
 980:../STM32F4-Discovery/stm32f4_discovery_audio_codec.c ****   CODECTimeout = CODEC_FLAG_TIMEOUT;
 1960              		.loc 1 980 0
 1961 0cd0 40F20003 		movw	r3, #:lower16:CODECTimeout
 1962 0cd4 C0F20003 		movt	r3, #:upper16:CODECTimeout
 1963 0cd8 4FF48052 		mov	r2, #4096
 1964 0cdc 1A60     		str	r2, [r3, #0]
 981:../STM32F4-Discovery/stm32f4_discovery_audio_codec.c ****   while (I2C_GetFlagStatus(CODEC_I2C, I2C_FLAG_BTF) == RESET)
 1965              		.loc 1 981 0
 1966 0cde 16E0     		b	.L70
 1967              	.L71:
 982:../STM32F4-Discovery/stm32f4_discovery_audio_codec.c ****   {
 983:../STM32F4-Discovery/stm32f4_discovery_audio_codec.c ****     if((CODECTimeout--) == 0) return Codec_TIMEOUT_UserCallback();
 1968              		.loc 1 983 0
 1969 0ce0 40F20003 		movw	r3, #:lower16:CODECTimeout
 1970 0ce4 C0F20003 		movt	r3, #:upper16:CODECTimeout
 1971 0ce8 1B68     		ldr	r3, [r3, #0]
 1972 0cea 002B     		cmp	r3, #0
 1973 0cec 14BF     		ite	ne
 1974 0cee 0022     		movne	r2, #0
 1975 0cf0 0122     		moveq	r2, #1
 1976 0cf2 D2B2     		uxtb	r2, r2
 1977 0cf4 03F1FF31 		add	r1, r3, #-1
 1978 0cf8 40F20003 		movw	r3, #:lower16:CODECTimeout
 1979 0cfc C0F20003 		movt	r3, #:upper16:CODECTimeout
 1980 0d00 1960     		str	r1, [r3, #0]
 1981 0d02 002A     		cmp	r2, #0
 1982 0d04 03D0     		beq	.L70
 1983              		.loc 1 983 0 is_stmt 0 discriminator 1
 1984 0d06 FFF7FEFF 		bl	Codec_TIMEOUT_UserCallback
 1985 0d0a 0346     		mov	r3, r0
 1986 0d0c FBE0     		b	.L64
 1987              	.L70:
 981:../STM32F4-Discovery/stm32f4_discovery_audio_codec.c ****   while (I2C_GetFlagStatus(CODEC_I2C, I2C_FLAG_BTF) == RESET)
 1988              		.loc 1 981 0 is_stmt 1 discriminator 1
 1989 0d0e 4FF4A840 		mov	r0, #21504
 1990 0d12 C4F20000 		movt	r0, 16384
 1991 0d16 4FF00401 		mov	r1, #4
 1992 0d1a C1F20001 		movt	r1, 4096
 1993 0d1e FFF7FEFF 		bl	I2C_GetFlagStatus
 1994 0d22 0346     		mov	r3, r0
 1995 0d24 002B     		cmp	r3, #0
 1996 0d26 DBD0     		beq	.L71
 984:../STM32F4-Discovery/stm32f4_discovery_audio_codec.c ****   }
 985:../STM32F4-Discovery/stm32f4_discovery_audio_codec.c ****   
 986:../STM32F4-Discovery/stm32f4_discovery_audio_codec.c ****   /*!< Send START condition a second time */  
 987:../STM32F4-Discovery/stm32f4_discovery_audio_codec.c ****   I2C_GenerateSTART(CODEC_I2C, ENABLE);
 1997              		.loc 1 987 0
 1998 0d28 4FF4A840 		mov	r0, #21504
 1999 0d2c C4F20000 		movt	r0, 16384
 2000 0d30 4FF00101 		mov	r1, #1
 2001 0d34 FFF7FEFF 		bl	I2C_GenerateSTART
 988:../STM32F4-Discovery/stm32f4_discovery_audio_codec.c ****   
 989:../STM32F4-Discovery/stm32f4_discovery_audio_codec.c ****   /*!< Test on EV5 and clear it (cleared by reading SR1 then writing to DR) */
 990:../STM32F4-Discovery/stm32f4_discovery_audio_codec.c ****   CODECTimeout = CODEC_FLAG_TIMEOUT;
 2002              		.loc 1 990 0
 2003 0d38 40F20003 		movw	r3, #:lower16:CODECTimeout
 2004 0d3c C0F20003 		movt	r3, #:upper16:CODECTimeout
 2005 0d40 4FF48052 		mov	r2, #4096
 2006 0d44 1A60     		str	r2, [r3, #0]
 991:../STM32F4-Discovery/stm32f4_discovery_audio_codec.c ****   while(!I2C_CheckEvent(CODEC_I2C, I2C_EVENT_MASTER_MODE_SELECT))
 2007              		.loc 1 991 0
 2008 0d46 16E0     		b	.L72
 2009              	.L73:
 992:../STM32F4-Discovery/stm32f4_discovery_audio_codec.c ****   {
 993:../STM32F4-Discovery/stm32f4_discovery_audio_codec.c ****     if((CODECTimeout--) == 0) return Codec_TIMEOUT_UserCallback();
 2010              		.loc 1 993 0
 2011 0d48 40F20003 		movw	r3, #:lower16:CODECTimeout
 2012 0d4c C0F20003 		movt	r3, #:upper16:CODECTimeout
 2013 0d50 1B68     		ldr	r3, [r3, #0]
 2014 0d52 002B     		cmp	r3, #0
 2015 0d54 14BF     		ite	ne
 2016 0d56 0022     		movne	r2, #0
 2017 0d58 0122     		moveq	r2, #1
 2018 0d5a D2B2     		uxtb	r2, r2
 2019 0d5c 03F1FF31 		add	r1, r3, #-1
 2020 0d60 40F20003 		movw	r3, #:lower16:CODECTimeout
 2021 0d64 C0F20003 		movt	r3, #:upper16:CODECTimeout
 2022 0d68 1960     		str	r1, [r3, #0]
 2023 0d6a 002A     		cmp	r2, #0
 2024 0d6c 03D0     		beq	.L72
 2025              		.loc 1 993 0 is_stmt 0 discriminator 1
 2026 0d6e FFF7FEFF 		bl	Codec_TIMEOUT_UserCallback
 2027 0d72 0346     		mov	r3, r0
 2028 0d74 C7E0     		b	.L64
 2029              	.L72:
 991:../STM32F4-Discovery/stm32f4_discovery_audio_codec.c ****   while(!I2C_CheckEvent(CODEC_I2C, I2C_EVENT_MASTER_MODE_SELECT))
 2030              		.loc 1 991 0 is_stmt 1 discriminator 1
 2031 0d76 4FF4A840 		mov	r0, #21504
 2032 0d7a C4F20000 		movt	r0, 16384
 2033 0d7e 4FF00101 		mov	r1, #1
 2034 0d82 C0F20301 		movt	r1, 3
 2035 0d86 FFF7FEFF 		bl	I2C_CheckEvent
 2036 0d8a 0346     		mov	r3, r0
 2037 0d8c 002B     		cmp	r3, #0
 2038 0d8e DBD0     		beq	.L73
 994:../STM32F4-Discovery/stm32f4_discovery_audio_codec.c ****   } 
 995:../STM32F4-Discovery/stm32f4_discovery_audio_codec.c ****   
 996:../STM32F4-Discovery/stm32f4_discovery_audio_codec.c ****   /*!< Send Codec address for read */
 997:../STM32F4-Discovery/stm32f4_discovery_audio_codec.c ****   I2C_Send7bitAddress(CODEC_I2C, CODEC_ADDRESS, I2C_Direction_Receiver);  
 2039              		.loc 1 997 0
 2040 0d90 4FF4A840 		mov	r0, #21504
 2041 0d94 C4F20000 		movt	r0, 16384
 2042 0d98 4FF09401 		mov	r1, #148
 2043 0d9c 4FF00102 		mov	r2, #1
 2044 0da0 FFF7FEFF 		bl	I2C_Send7bitAddress
 998:../STM32F4-Discovery/stm32f4_discovery_audio_codec.c ****   
 999:../STM32F4-Discovery/stm32f4_discovery_audio_codec.c ****   /* Wait on ADDR flag to be set (ADDR is still not cleared at this level */
1000:../STM32F4-Discovery/stm32f4_discovery_audio_codec.c ****   CODECTimeout = CODEC_FLAG_TIMEOUT;
 2045              		.loc 1 1000 0
 2046 0da4 40F20003 		movw	r3, #:lower16:CODECTimeout
 2047 0da8 C0F20003 		movt	r3, #:upper16:CODECTimeout
 2048 0dac 4FF48052 		mov	r2, #4096
 2049 0db0 1A60     		str	r2, [r3, #0]
1001:../STM32F4-Discovery/stm32f4_discovery_audio_codec.c ****   while(I2C_GetFlagStatus(CODEC_I2C, I2C_FLAG_ADDR) == RESET)
 2050              		.loc 1 1001 0
 2051 0db2 16E0     		b	.L74
 2052              	.L75:
1002:../STM32F4-Discovery/stm32f4_discovery_audio_codec.c ****   {
1003:../STM32F4-Discovery/stm32f4_discovery_audio_codec.c ****     if((CODECTimeout--) == 0) return Codec_TIMEOUT_UserCallback();
 2053              		.loc 1 1003 0
 2054 0db4 40F20003 		movw	r3, #:lower16:CODECTimeout
 2055 0db8 C0F20003 		movt	r3, #:upper16:CODECTimeout
 2056 0dbc 1B68     		ldr	r3, [r3, #0]
 2057 0dbe 002B     		cmp	r3, #0
 2058 0dc0 14BF     		ite	ne
 2059 0dc2 0022     		movne	r2, #0
 2060 0dc4 0122     		moveq	r2, #1
 2061 0dc6 D2B2     		uxtb	r2, r2
 2062 0dc8 03F1FF31 		add	r1, r3, #-1
 2063 0dcc 40F20003 		movw	r3, #:lower16:CODECTimeout
 2064 0dd0 C0F20003 		movt	r3, #:upper16:CODECTimeout
 2065 0dd4 1960     		str	r1, [r3, #0]
 2066 0dd6 002A     		cmp	r2, #0
 2067 0dd8 03D0     		beq	.L74
 2068              		.loc 1 1003 0 is_stmt 0 discriminator 1
 2069 0dda FFF7FEFF 		bl	Codec_TIMEOUT_UserCallback
 2070 0dde 0346     		mov	r3, r0
 2071 0de0 91E0     		b	.L64
 2072              	.L74:
1001:../STM32F4-Discovery/stm32f4_discovery_audio_codec.c ****   while(I2C_GetFlagStatus(CODEC_I2C, I2C_FLAG_ADDR) == RESET)
 2073              		.loc 1 1001 0 is_stmt 1 discriminator 1
 2074 0de2 4FF4A840 		mov	r0, #21504
 2075 0de6 C4F20000 		movt	r0, 16384
 2076 0dea 4FF00201 		mov	r1, #2
 2077 0dee C1F20001 		movt	r1, 4096
 2078 0df2 FFF7FEFF 		bl	I2C_GetFlagStatus
 2079 0df6 0346     		mov	r3, r0
 2080 0df8 002B     		cmp	r3, #0
 2081 0dfa DBD0     		beq	.L75
1004:../STM32F4-Discovery/stm32f4_discovery_audio_codec.c ****   }     
1005:../STM32F4-Discovery/stm32f4_discovery_audio_codec.c ****   
1006:../STM32F4-Discovery/stm32f4_discovery_audio_codec.c ****   /*!< Disable Acknowledgment */
1007:../STM32F4-Discovery/stm32f4_discovery_audio_codec.c ****   I2C_AcknowledgeConfig(CODEC_I2C, DISABLE);   
 2082              		.loc 1 1007 0
 2083 0dfc 4FF4A840 		mov	r0, #21504
 2084 0e00 C4F20000 		movt	r0, 16384
 2085 0e04 4FF00001 		mov	r1, #0
 2086 0e08 FFF7FEFF 		bl	I2C_AcknowledgeConfig
1008:../STM32F4-Discovery/stm32f4_discovery_audio_codec.c ****   
1009:../STM32F4-Discovery/stm32f4_discovery_audio_codec.c ****   /* Clear ADDR register by reading SR1 then SR2 register (SR1 has already been read) */
1010:../STM32F4-Discovery/stm32f4_discovery_audio_codec.c ****   (void)CODEC_I2C->SR2;
 2087              		.loc 1 1010 0
 2088 0e0c 4FF4A843 		mov	r3, #21504
 2089 0e10 C4F20003 		movt	r3, 16384
 2090 0e14 1B8B     		ldrh	r3, [r3, #24]	@ movhi
1011:../STM32F4-Discovery/stm32f4_discovery_audio_codec.c ****   
1012:../STM32F4-Discovery/stm32f4_discovery_audio_codec.c ****   /*!< Send STOP Condition */
1013:../STM32F4-Discovery/stm32f4_discovery_audio_codec.c ****   I2C_GenerateSTOP(CODEC_I2C, ENABLE);
 2091              		.loc 1 1013 0
 2092 0e16 4FF4A840 		mov	r0, #21504
 2093 0e1a C4F20000 		movt	r0, 16384
 2094 0e1e 4FF00101 		mov	r1, #1
 2095 0e22 FFF7FEFF 		bl	I2C_GenerateSTOP
1014:../STM32F4-Discovery/stm32f4_discovery_audio_codec.c ****   
1015:../STM32F4-Discovery/stm32f4_discovery_audio_codec.c ****   /* Wait for the byte to be received */
1016:../STM32F4-Discovery/stm32f4_discovery_audio_codec.c ****   CODECTimeout = CODEC_FLAG_TIMEOUT;
 2096              		.loc 1 1016 0
 2097 0e26 40F20003 		movw	r3, #:lower16:CODECTimeout
 2098 0e2a C0F20003 		movt	r3, #:upper16:CODECTimeout
 2099 0e2e 4FF48052 		mov	r2, #4096
 2100 0e32 1A60     		str	r2, [r3, #0]
1017:../STM32F4-Discovery/stm32f4_discovery_audio_codec.c ****   while(I2C_GetFlagStatus(CODEC_I2C, I2C_FLAG_RXNE) == RESET)
 2101              		.loc 1 1017 0
 2102 0e34 16E0     		b	.L76
 2103              	.L77:
1018:../STM32F4-Discovery/stm32f4_discovery_audio_codec.c ****   {
1019:../STM32F4-Discovery/stm32f4_discovery_audio_codec.c ****     if((CODECTimeout--) == 0) return Codec_TIMEOUT_UserCallback();
 2104              		.loc 1 1019 0
 2105 0e36 40F20003 		movw	r3, #:lower16:CODECTimeout
 2106 0e3a C0F20003 		movt	r3, #:upper16:CODECTimeout
 2107 0e3e 1B68     		ldr	r3, [r3, #0]
 2108 0e40 002B     		cmp	r3, #0
 2109 0e42 14BF     		ite	ne
 2110 0e44 0022     		movne	r2, #0
 2111 0e46 0122     		moveq	r2, #1
 2112 0e48 D2B2     		uxtb	r2, r2
 2113 0e4a 03F1FF31 		add	r1, r3, #-1
 2114 0e4e 40F20003 		movw	r3, #:lower16:CODECTimeout
 2115 0e52 C0F20003 		movt	r3, #:upper16:CODECTimeout
 2116 0e56 1960     		str	r1, [r3, #0]
 2117 0e58 002A     		cmp	r2, #0
 2118 0e5a 03D0     		beq	.L76
 2119              		.loc 1 1019 0 is_stmt 0 discriminator 1
 2120 0e5c FFF7FEFF 		bl	Codec_TIMEOUT_UserCallback
 2121 0e60 0346     		mov	r3, r0
 2122 0e62 50E0     		b	.L64
 2123              	.L76:
1017:../STM32F4-Discovery/stm32f4_discovery_audio_codec.c ****   while(I2C_GetFlagStatus(CODEC_I2C, I2C_FLAG_RXNE) == RESET)
 2124              		.loc 1 1017 0 is_stmt 1 discriminator 1
 2125 0e64 4FF4A840 		mov	r0, #21504
 2126 0e68 C4F20000 		movt	r0, 16384
 2127 0e6c 4FF04001 		mov	r1, #64
 2128 0e70 C1F20001 		movt	r1, 4096
 2129 0e74 FFF7FEFF 		bl	I2C_GetFlagStatus
 2130 0e78 0346     		mov	r3, r0
 2131 0e7a 002B     		cmp	r3, #0
 2132 0e7c DBD0     		beq	.L77
1020:../STM32F4-Discovery/stm32f4_discovery_audio_codec.c ****   }
1021:../STM32F4-Discovery/stm32f4_discovery_audio_codec.c ****   
1022:../STM32F4-Discovery/stm32f4_discovery_audio_codec.c ****   /*!< Read the byte received from the Codec */
1023:../STM32F4-Discovery/stm32f4_discovery_audio_codec.c ****   result = I2C_ReceiveData(CODEC_I2C);
 2133              		.loc 1 1023 0
 2134 0e7e 4FF4A840 		mov	r0, #21504
 2135 0e82 C4F20000 		movt	r0, 16384
 2136 0e86 FFF7FEFF 		bl	I2C_ReceiveData
 2137 0e8a 0346     		mov	r3, r0
 2138 0e8c FB60     		str	r3, [r7, #12]
1024:../STM32F4-Discovery/stm32f4_discovery_audio_codec.c ****   
1025:../STM32F4-Discovery/stm32f4_discovery_audio_codec.c ****   /* Wait to make sure that STOP flag has been cleared */
1026:../STM32F4-Discovery/stm32f4_discovery_audio_codec.c ****   CODECTimeout = CODEC_FLAG_TIMEOUT;
 2139              		.loc 1 1026 0
 2140 0e8e 40F20003 		movw	r3, #:lower16:CODECTimeout
 2141 0e92 C0F20003 		movt	r3, #:upper16:CODECTimeout
 2142 0e96 4FF48052 		mov	r2, #4096
 2143 0e9a 1A60     		str	r2, [r3, #0]
1027:../STM32F4-Discovery/stm32f4_discovery_audio_codec.c ****   while(CODEC_I2C->CR1 & I2C_CR1_STOP)
 2144              		.loc 1 1027 0
 2145 0e9c 16E0     		b	.L78
 2146              	.L79:
1028:../STM32F4-Discovery/stm32f4_discovery_audio_codec.c ****   {
1029:../STM32F4-Discovery/stm32f4_discovery_audio_codec.c ****     if((CODECTimeout--) == 0) return Codec_TIMEOUT_UserCallback();
 2147              		.loc 1 1029 0
 2148 0e9e 40F20003 		movw	r3, #:lower16:CODECTimeout
 2149 0ea2 C0F20003 		movt	r3, #:upper16:CODECTimeout
 2150 0ea6 1B68     		ldr	r3, [r3, #0]
 2151 0ea8 002B     		cmp	r3, #0
 2152 0eaa 14BF     		ite	ne
 2153 0eac 0022     		movne	r2, #0
 2154 0eae 0122     		moveq	r2, #1
 2155 0eb0 D2B2     		uxtb	r2, r2
 2156 0eb2 03F1FF31 		add	r1, r3, #-1
 2157 0eb6 40F20003 		movw	r3, #:lower16:CODECTimeout
 2158 0eba C0F20003 		movt	r3, #:upper16:CODECTimeout
 2159 0ebe 1960     		str	r1, [r3, #0]
 2160 0ec0 002A     		cmp	r2, #0
 2161 0ec2 03D0     		beq	.L78
 2162              		.loc 1 1029 0 is_stmt 0 discriminator 1
 2163 0ec4 FFF7FEFF 		bl	Codec_TIMEOUT_UserCallback
 2164 0ec8 0346     		mov	r3, r0
 2165 0eca 1CE0     		b	.L64
 2166              	.L78:
1027:../STM32F4-Discovery/stm32f4_discovery_audio_codec.c ****   while(CODEC_I2C->CR1 & I2C_CR1_STOP)
 2167              		.loc 1 1027 0 is_stmt 1 discriminator 1
 2168 0ecc 4FF4A843 		mov	r3, #21504
 2169 0ed0 C4F20003 		movt	r3, 16384
 2170 0ed4 1B88     		ldrh	r3, [r3, #0]	@ movhi
 2171 0ed6 9BB2     		uxth	r3, r3
 2172 0ed8 03F40073 		and	r3, r3, #512
 2173 0edc 002B     		cmp	r3, #0
 2174 0ede DED1     		bne	.L79
1030:../STM32F4-Discovery/stm32f4_discovery_audio_codec.c ****   }  
1031:../STM32F4-Discovery/stm32f4_discovery_audio_codec.c ****   
1032:../STM32F4-Discovery/stm32f4_discovery_audio_codec.c ****   /*!< Re-Enable Acknowledgment to be ready for another reception */
1033:../STM32F4-Discovery/stm32f4_discovery_audio_codec.c ****   I2C_AcknowledgeConfig(CODEC_I2C, ENABLE);  
 2175              		.loc 1 1033 0
 2176 0ee0 4FF4A840 		mov	r0, #21504
 2177 0ee4 C4F20000 		movt	r0, 16384
 2178 0ee8 4FF00101 		mov	r1, #1
 2179 0eec FFF7FEFF 		bl	I2C_AcknowledgeConfig
1034:../STM32F4-Discovery/stm32f4_discovery_audio_codec.c ****   
1035:../STM32F4-Discovery/stm32f4_discovery_audio_codec.c ****   /* Clear AF flag for next communication */
1036:../STM32F4-Discovery/stm32f4_discovery_audio_codec.c ****   I2C_ClearFlag(CODEC_I2C, I2C_FLAG_AF); 
 2180              		.loc 1 1036 0
 2181 0ef0 4FF4A840 		mov	r0, #21504
 2182 0ef4 C4F20000 		movt	r0, 16384
 2183 0ef8 4FF48061 		mov	r1, #1024
 2184 0efc C1F20001 		movt	r1, 4096
 2185 0f00 FFF7FEFF 		bl	I2C_ClearFlag
1037:../STM32F4-Discovery/stm32f4_discovery_audio_codec.c ****   
1038:../STM32F4-Discovery/stm32f4_discovery_audio_codec.c ****   /* Return the byte read from Codec */
1039:../STM32F4-Discovery/stm32f4_discovery_audio_codec.c ****   return result;
 2186              		.loc 1 1039 0
 2187 0f04 FB68     		ldr	r3, [r7, #12]
 2188              	.L64:
1040:../STM32F4-Discovery/stm32f4_discovery_audio_codec.c **** }
 2189              		.loc 1 1040 0
 2190 0f06 1846     		mov	r0, r3
 2191 0f08 07F11007 		add	r7, r7, #16
 2192 0f0c BD46     		mov	sp, r7
 2193 0f0e 80BD     		pop	{r7, pc}
 2194              		.cfi_endproc
 2195              	.LFE131:
 2197              		.align	2
 2198              		.thumb
 2199              		.thumb_func
 2201              	Codec_CtrlInterface_Init:
 2202              	.LFB132:
1041:../STM32F4-Discovery/stm32f4_discovery_audio_codec.c **** 
1042:../STM32F4-Discovery/stm32f4_discovery_audio_codec.c **** /**
1043:../STM32F4-Discovery/stm32f4_discovery_audio_codec.c ****   * @brief  Initializes the Audio Codec control interface (I2C).
1044:../STM32F4-Discovery/stm32f4_discovery_audio_codec.c ****   * @param  None
1045:../STM32F4-Discovery/stm32f4_discovery_audio_codec.c ****   * @retval None
1046:../STM32F4-Discovery/stm32f4_discovery_audio_codec.c ****   */
1047:../STM32F4-Discovery/stm32f4_discovery_audio_codec.c **** static void Codec_CtrlInterface_Init(void)
1048:../STM32F4-Discovery/stm32f4_discovery_audio_codec.c **** {
 2203              		.loc 1 1048 0
 2204              		.cfi_startproc
 2205              		@ args = 0, pretend = 0, frame = 16
 2206              		@ frame_needed = 1, uses_anonymous_args = 0
 2207 0f10 80B5     		push	{r7, lr}
 2208              	.LCFI59:
 2209              		.cfi_def_cfa_offset 8
 2210              		.cfi_offset 14, -4
 2211              		.cfi_offset 7, -8
 2212 0f12 84B0     		sub	sp, sp, #16
 2213              	.LCFI60:
 2214              		.cfi_def_cfa_offset 24
 2215 0f14 00AF     		add	r7, sp, #0
 2216              	.LCFI61:
 2217              		.cfi_def_cfa_register 7
1049:../STM32F4-Discovery/stm32f4_discovery_audio_codec.c ****   I2C_InitTypeDef I2C_InitStructure;
1050:../STM32F4-Discovery/stm32f4_discovery_audio_codec.c ****   
1051:../STM32F4-Discovery/stm32f4_discovery_audio_codec.c ****   /* Enable the CODEC_I2C peripheral clock */
1052:../STM32F4-Discovery/stm32f4_discovery_audio_codec.c ****   RCC_APB1PeriphClockCmd(CODEC_I2C_CLK, ENABLE);
 2218              		.loc 1 1052 0
 2219 0f16 4FF40010 		mov	r0, #2097152
 2220 0f1a 4FF00101 		mov	r1, #1
 2221 0f1e FFF7FEFF 		bl	RCC_APB1PeriphClockCmd
1053:../STM32F4-Discovery/stm32f4_discovery_audio_codec.c ****   
1054:../STM32F4-Discovery/stm32f4_discovery_audio_codec.c ****   /* CODEC_I2C peripheral configuration */
1055:../STM32F4-Discovery/stm32f4_discovery_audio_codec.c ****   I2C_DeInit(CODEC_I2C);
 2222              		.loc 1 1055 0
 2223 0f22 4FF4A840 		mov	r0, #21504
 2224 0f26 C4F20000 		movt	r0, 16384
 2225 0f2a FFF7FEFF 		bl	I2C_DeInit
1056:../STM32F4-Discovery/stm32f4_discovery_audio_codec.c ****   I2C_InitStructure.I2C_Mode = I2C_Mode_I2C;
 2226              		.loc 1 1056 0
 2227 0f2e 4FF00003 		mov	r3, #0
 2228 0f32 BB80     		strh	r3, [r7, #4]	@ movhi
1057:../STM32F4-Discovery/stm32f4_discovery_audio_codec.c ****   I2C_InitStructure.I2C_DutyCycle = I2C_DutyCycle_2;
 2229              		.loc 1 1057 0
 2230 0f34 4BF6FF73 		movw	r3, #49151
 2231 0f38 FB80     		strh	r3, [r7, #6]	@ movhi
1058:../STM32F4-Discovery/stm32f4_discovery_audio_codec.c ****   I2C_InitStructure.I2C_OwnAddress1 = 0x33;
 2232              		.loc 1 1058 0
 2233 0f3a 4FF03303 		mov	r3, #51
 2234 0f3e 3B81     		strh	r3, [r7, #8]	@ movhi
1059:../STM32F4-Discovery/stm32f4_discovery_audio_codec.c ****   I2C_InitStructure.I2C_Ack = I2C_Ack_Enable;
 2235              		.loc 1 1059 0
 2236 0f40 4FF48063 		mov	r3, #1024
 2237 0f44 7B81     		strh	r3, [r7, #10]	@ movhi
1060:../STM32F4-Discovery/stm32f4_discovery_audio_codec.c ****   I2C_InitStructure.I2C_AcknowledgedAddress = I2C_AcknowledgedAddress_7bit;
 2238              		.loc 1 1060 0
 2239 0f46 4FF48043 		mov	r3, #16384
 2240 0f4a BB81     		strh	r3, [r7, #12]	@ movhi
1061:../STM32F4-Discovery/stm32f4_discovery_audio_codec.c ****   I2C_InitStructure.I2C_ClockSpeed = I2C_SPEED;
 2241              		.loc 1 1061 0
 2242 0f4c 48F2A063 		movw	r3, #34464
 2243 0f50 C0F20103 		movt	r3, 1
 2244 0f54 3B60     		str	r3, [r7, #0]
1062:../STM32F4-Discovery/stm32f4_discovery_audio_codec.c ****   /* Enable the I2C peripheral */
1063:../STM32F4-Discovery/stm32f4_discovery_audio_codec.c ****   I2C_Cmd(CODEC_I2C, ENABLE);  
 2245              		.loc 1 1063 0
 2246 0f56 4FF4A840 		mov	r0, #21504
 2247 0f5a C4F20000 		movt	r0, 16384
 2248 0f5e 4FF00101 		mov	r1, #1
 2249 0f62 FFF7FEFF 		bl	I2C_Cmd
1064:../STM32F4-Discovery/stm32f4_discovery_audio_codec.c ****   I2C_Init(CODEC_I2C, &I2C_InitStructure);
 2250              		.loc 1 1064 0
 2251 0f66 3B46     		mov	r3, r7
 2252 0f68 4FF4A840 		mov	r0, #21504
 2253 0f6c C4F20000 		movt	r0, 16384
 2254 0f70 1946     		mov	r1, r3
 2255 0f72 FFF7FEFF 		bl	I2C_Init
1065:../STM32F4-Discovery/stm32f4_discovery_audio_codec.c **** }
 2256              		.loc 1 1065 0
 2257 0f76 07F11007 		add	r7, r7, #16
 2258 0f7a BD46     		mov	sp, r7
 2259 0f7c 80BD     		pop	{r7, pc}
 2260              		.cfi_endproc
 2261              	.LFE132:
 2263 0f7e 00BF     		.align	2
 2264              		.thumb
 2265              		.thumb_func
 2267              	Codec_CtrlInterface_DeInit:
 2268              	.LFB133:
1066:../STM32F4-Discovery/stm32f4_discovery_audio_codec.c **** 
1067:../STM32F4-Discovery/stm32f4_discovery_audio_codec.c **** /**
1068:../STM32F4-Discovery/stm32f4_discovery_audio_codec.c ****   * @brief  Restore the Audio Codec control interface to its default state.
1069:../STM32F4-Discovery/stm32f4_discovery_audio_codec.c ****   *         This function doesn't de-initialize the I2C because the I2C peripheral
1070:../STM32F4-Discovery/stm32f4_discovery_audio_codec.c ****   *         may be used by other modules.
1071:../STM32F4-Discovery/stm32f4_discovery_audio_codec.c ****   * @param  None
1072:../STM32F4-Discovery/stm32f4_discovery_audio_codec.c ****   * @retval None
1073:../STM32F4-Discovery/stm32f4_discovery_audio_codec.c ****   */
1074:../STM32F4-Discovery/stm32f4_discovery_audio_codec.c **** static void Codec_CtrlInterface_DeInit(void)
1075:../STM32F4-Discovery/stm32f4_discovery_audio_codec.c **** {
 2269              		.loc 1 1075 0
 2270              		.cfi_startproc
 2271              		@ args = 0, pretend = 0, frame = 0
 2272              		@ frame_needed = 1, uses_anonymous_args = 0
 2273              		@ link register save eliminated.
 2274 0f80 80B4     		push	{r7}
 2275              	.LCFI62:
 2276              		.cfi_def_cfa_offset 4
 2277              		.cfi_offset 7, -4
 2278 0f82 00AF     		add	r7, sp, #0
 2279              	.LCFI63:
 2280              		.cfi_def_cfa_register 7
1076:../STM32F4-Discovery/stm32f4_discovery_audio_codec.c ****   /* Disable the I2C peripheral */ /* This step is not done here because 
1077:../STM32F4-Discovery/stm32f4_discovery_audio_codec.c ****      the I2C interface can be used by other modules */
1078:../STM32F4-Discovery/stm32f4_discovery_audio_codec.c ****   /* I2C_DeInit(CODEC_I2C); */
1079:../STM32F4-Discovery/stm32f4_discovery_audio_codec.c **** }
 2281              		.loc 1 1079 0
 2282 0f84 BD46     		mov	sp, r7
 2283 0f86 80BC     		pop	{r7}
 2284 0f88 7047     		bx	lr
 2285              		.cfi_endproc
 2286              	.LFE133:
 2288 0f8a 00BF     		.align	2
 2289              		.thumb
 2290              		.thumb_func
 2292              	Codec_AudioInterface_Init:
 2293              	.LFB134:
1080:../STM32F4-Discovery/stm32f4_discovery_audio_codec.c **** 
1081:../STM32F4-Discovery/stm32f4_discovery_audio_codec.c **** /**
1082:../STM32F4-Discovery/stm32f4_discovery_audio_codec.c ****   * @brief  Initializes the Audio Codec audio interface (I2S)
1083:../STM32F4-Discovery/stm32f4_discovery_audio_codec.c ****   * @note   This function assumes that the I2S input clock (through PLL_R in 
1084:../STM32F4-Discovery/stm32f4_discovery_audio_codec.c ****   *         Devices RevA/Z and through dedicated PLLI2S_R in Devices RevB/Y)
1085:../STM32F4-Discovery/stm32f4_discovery_audio_codec.c ****   *         is already configured and ready to be used.    
1086:../STM32F4-Discovery/stm32f4_discovery_audio_codec.c ****   * @param  AudioFreq: Audio frequency to be configured for the I2S peripheral. 
1087:../STM32F4-Discovery/stm32f4_discovery_audio_codec.c ****   * @retval None
1088:../STM32F4-Discovery/stm32f4_discovery_audio_codec.c ****   */
1089:../STM32F4-Discovery/stm32f4_discovery_audio_codec.c **** static void Codec_AudioInterface_Init(uint32_t AudioFreq)
1090:../STM32F4-Discovery/stm32f4_discovery_audio_codec.c **** {
 2294              		.loc 1 1090 0
 2295              		.cfi_startproc
 2296              		@ args = 0, pretend = 0, frame = 40
 2297              		@ frame_needed = 1, uses_anonymous_args = 0
 2298 0f8c 80B5     		push	{r7, lr}
 2299              	.LCFI64:
 2300              		.cfi_def_cfa_offset 8
 2301              		.cfi_offset 14, -4
 2302              		.cfi_offset 7, -8
 2303 0f8e 8AB0     		sub	sp, sp, #40
 2304              	.LCFI65:
 2305              		.cfi_def_cfa_offset 48
 2306 0f90 00AF     		add	r7, sp, #0
 2307              	.LCFI66:
 2308              		.cfi_def_cfa_register 7
 2309 0f92 7860     		str	r0, [r7, #4]
1091:../STM32F4-Discovery/stm32f4_discovery_audio_codec.c ****   I2S_InitTypeDef I2S_InitStructure;
1092:../STM32F4-Discovery/stm32f4_discovery_audio_codec.c ****   DAC_InitTypeDef  DAC_InitStructure;
1093:../STM32F4-Discovery/stm32f4_discovery_audio_codec.c **** 
1094:../STM32F4-Discovery/stm32f4_discovery_audio_codec.c ****   /* Enable the CODEC_I2S peripheral clock */
1095:../STM32F4-Discovery/stm32f4_discovery_audio_codec.c ****   RCC_APB1PeriphClockCmd(CODEC_I2S_CLK, ENABLE);
 2310              		.loc 1 1095 0
 2311 0f94 4FF40040 		mov	r0, #32768
 2312 0f98 4FF00101 		mov	r1, #1
 2313 0f9c FFF7FEFF 		bl	RCC_APB1PeriphClockCmd
1096:../STM32F4-Discovery/stm32f4_discovery_audio_codec.c ****   
1097:../STM32F4-Discovery/stm32f4_discovery_audio_codec.c ****   /* CODEC_I2S peripheral configuration */
1098:../STM32F4-Discovery/stm32f4_discovery_audio_codec.c ****   SPI_I2S_DeInit(CODEC_I2S);
 2314              		.loc 1 1098 0
 2315 0fa0 4FF47050 		mov	r0, #15360
 2316 0fa4 C4F20000 		movt	r0, 16384
 2317 0fa8 FFF7FEFF 		bl	SPI_I2S_DeInit
1099:../STM32F4-Discovery/stm32f4_discovery_audio_codec.c ****   I2S_InitStructure.I2S_AudioFreq = AudioFreq;
 2318              		.loc 1 1099 0
 2319 0fac 7B68     		ldr	r3, [r7, #4]
 2320 0fae 3B62     		str	r3, [r7, #32]
1100:../STM32F4-Discovery/stm32f4_discovery_audio_codec.c ****   I2S_InitStructure.I2S_Standard = I2S_STANDARD;
 2321              		.loc 1 1100 0
 2322 0fb0 4FF00003 		mov	r3, #0
 2323 0fb4 7B83     		strh	r3, [r7, #26]	@ movhi
1101:../STM32F4-Discovery/stm32f4_discovery_audio_codec.c ****   I2S_InitStructure.I2S_DataFormat = I2S_DataFormat_16b;
 2324              		.loc 1 1101 0
 2325 0fb6 4FF00003 		mov	r3, #0
 2326 0fba BB83     		strh	r3, [r7, #28]	@ movhi
1102:../STM32F4-Discovery/stm32f4_discovery_audio_codec.c ****   I2S_InitStructure.I2S_CPOL = I2S_CPOL_Low;
 2327              		.loc 1 1102 0
 2328 0fbc 4FF00003 		mov	r3, #0
 2329 0fc0 BB84     		strh	r3, [r7, #36]	@ movhi
1103:../STM32F4-Discovery/stm32f4_discovery_audio_codec.c **** #ifdef DAC_USE_I2S_DMA
1104:../STM32F4-Discovery/stm32f4_discovery_audio_codec.c ****   if (CurrAudioInterface == AUDIO_INTERFACE_DAC)
1105:../STM32F4-Discovery/stm32f4_discovery_audio_codec.c ****   {  
1106:../STM32F4-Discovery/stm32f4_discovery_audio_codec.c ****     I2S_InitStructure.I2S_Mode = I2S_Mode_MasterRx;
1107:../STM32F4-Discovery/stm32f4_discovery_audio_codec.c ****   }
1108:../STM32F4-Discovery/stm32f4_discovery_audio_codec.c ****   else
1109:../STM32F4-Discovery/stm32f4_discovery_audio_codec.c ****   {
1110:../STM32F4-Discovery/stm32f4_discovery_audio_codec.c **** #else
1111:../STM32F4-Discovery/stm32f4_discovery_audio_codec.c ****    I2S_InitStructure.I2S_Mode = I2S_Mode_MasterTx;
 2330              		.loc 1 1111 0
 2331 0fc2 4FF40073 		mov	r3, #512
 2332 0fc6 3B83     		strh	r3, [r7, #24]	@ movhi
1112:../STM32F4-Discovery/stm32f4_discovery_audio_codec.c **** #endif
1113:../STM32F4-Discovery/stm32f4_discovery_audio_codec.c **** #ifdef DAC_USE_I2S_DMA
1114:../STM32F4-Discovery/stm32f4_discovery_audio_codec.c ****   }
1115:../STM32F4-Discovery/stm32f4_discovery_audio_codec.c **** #endif /* DAC_USE_I2S_DMA */
1116:../STM32F4-Discovery/stm32f4_discovery_audio_codec.c **** #ifdef CODEC_MCLK_ENABLED
1117:../STM32F4-Discovery/stm32f4_discovery_audio_codec.c ****   I2S_InitStructure.I2S_MCLKOutput = I2S_MCLKOutput_Enable;
 2333              		.loc 1 1117 0
 2334 0fc8 4FF40073 		mov	r3, #512
 2335 0fcc FB83     		strh	r3, [r7, #30]	@ movhi
1118:../STM32F4-Discovery/stm32f4_discovery_audio_codec.c **** #elif defined(CODEC_MCLK_DISABLED)
1119:../STM32F4-Discovery/stm32f4_discovery_audio_codec.c ****   I2S_InitStructure.I2S_MCLKOutput = I2S_MCLKOutput_Disable;
1120:../STM32F4-Discovery/stm32f4_discovery_audio_codec.c **** #else
1121:../STM32F4-Discovery/stm32f4_discovery_audio_codec.c **** #error "No selection for the MCLK output has been defined !"
1122:../STM32F4-Discovery/stm32f4_discovery_audio_codec.c **** #endif /* CODEC_MCLK_ENABLED */
1123:../STM32F4-Discovery/stm32f4_discovery_audio_codec.c ****   
1124:../STM32F4-Discovery/stm32f4_discovery_audio_codec.c ****   /* Initialize the I2S peripheral with the structure above */
1125:../STM32F4-Discovery/stm32f4_discovery_audio_codec.c ****   I2S_Init(CODEC_I2S, &I2S_InitStructure);
 2336              		.loc 1 1125 0
 2337 0fce 07F11803 		add	r3, r7, #24
 2338 0fd2 4FF47050 		mov	r0, #15360
 2339 0fd6 C4F20000 		movt	r0, 16384
 2340 0fda 1946     		mov	r1, r3
 2341 0fdc FFF7FEFF 		bl	I2S_Init
1126:../STM32F4-Discovery/stm32f4_discovery_audio_codec.c **** 
1127:../STM32F4-Discovery/stm32f4_discovery_audio_codec.c **** 
1128:../STM32F4-Discovery/stm32f4_discovery_audio_codec.c ****   /* Configure the DAC interface */
1129:../STM32F4-Discovery/stm32f4_discovery_audio_codec.c ****   if (CurrAudioInterface == AUDIO_INTERFACE_DAC)
 2342              		.loc 1 1129 0
 2343 0fe0 40F20003 		movw	r3, #:lower16:CurrAudioInterface
 2344 0fe4 C0F20003 		movt	r3, #:upper16:CurrAudioInterface
 2345 0fe8 1B68     		ldr	r3, [r3, #0]
 2346 0fea 022B     		cmp	r3, #2
 2347 0fec 1BD1     		bne	.L82
1130:../STM32F4-Discovery/stm32f4_discovery_audio_codec.c ****   {    
1131:../STM32F4-Discovery/stm32f4_discovery_audio_codec.c ****     /* DAC Periph clock enable */
1132:../STM32F4-Discovery/stm32f4_discovery_audio_codec.c ****     RCC_APB1PeriphClockCmd(RCC_APB1Periph_DAC, ENABLE);
 2348              		.loc 1 1132 0
 2349 0fee 4FF00050 		mov	r0, #536870912
 2350 0ff2 4FF00101 		mov	r1, #1
 2351 0ff6 FFF7FEFF 		bl	RCC_APB1PeriphClockCmd
1133:../STM32F4-Discovery/stm32f4_discovery_audio_codec.c ****     
1134:../STM32F4-Discovery/stm32f4_discovery_audio_codec.c ****     /* DAC channel1 Configuration */
1135:../STM32F4-Discovery/stm32f4_discovery_audio_codec.c ****     DAC_InitStructure.DAC_Trigger = DAC_Trigger_None;
 2352              		.loc 1 1135 0
 2353 0ffa 4FF00003 		mov	r3, #0
 2354 0ffe BB60     		str	r3, [r7, #8]
1136:../STM32F4-Discovery/stm32f4_discovery_audio_codec.c ****     DAC_InitStructure.DAC_WaveGeneration = DAC_WaveGeneration_None;
 2355              		.loc 1 1136 0
 2356 1000 4FF00003 		mov	r3, #0
 2357 1004 FB60     		str	r3, [r7, #12]
1137:../STM32F4-Discovery/stm32f4_discovery_audio_codec.c ****     DAC_InitStructure.DAC_OutputBuffer = DAC_OutputBuffer_Enable;
 2358              		.loc 1 1137 0
 2359 1006 4FF00003 		mov	r3, #0
 2360 100a 7B61     		str	r3, [r7, #20]
1138:../STM32F4-Discovery/stm32f4_discovery_audio_codec.c ****     DAC_Init(AUDIO_DAC_CHANNEL, &DAC_InitStructure);
 2361              		.loc 1 1138 0
 2362 100c 07F10803 		add	r3, r7, #8
 2363 1010 4FF00000 		mov	r0, #0
 2364 1014 1946     		mov	r1, r3
 2365 1016 FFF7FEFF 		bl	DAC_Init
1139:../STM32F4-Discovery/stm32f4_discovery_audio_codec.c ****     
1140:../STM32F4-Discovery/stm32f4_discovery_audio_codec.c ****     /* Enable DAC Channel1 */
1141:../STM32F4-Discovery/stm32f4_discovery_audio_codec.c ****     DAC_Cmd(AUDIO_DAC_CHANNEL, ENABLE);  
 2366              		.loc 1 1141 0
 2367 101a 4FF00000 		mov	r0, #0
 2368 101e 4FF00101 		mov	r1, #1
 2369 1022 FFF7FEFF 		bl	DAC_Cmd
 2370              	.L82:
1142:../STM32F4-Discovery/stm32f4_discovery_audio_codec.c ****   }
1143:../STM32F4-Discovery/stm32f4_discovery_audio_codec.c ****   
1144:../STM32F4-Discovery/stm32f4_discovery_audio_codec.c ****   /* The I2S peripheral will be enabled only in the EVAL_AUDIO_Play() function 
1145:../STM32F4-Discovery/stm32f4_discovery_audio_codec.c ****        or by user functions if DMA mode not enabled */  
1146:../STM32F4-Discovery/stm32f4_discovery_audio_codec.c **** }
 2371              		.loc 1 1146 0
 2372 1026 07F12807 		add	r7, r7, #40
 2373 102a BD46     		mov	sp, r7
 2374 102c 80BD     		pop	{r7, pc}
 2375              		.cfi_endproc
 2376              	.LFE134:
 2378 102e 00BF     		.align	2
 2379              		.thumb
 2380              		.thumb_func
 2382              	Codec_AudioInterface_DeInit:
 2383              	.LFB135:
1147:../STM32F4-Discovery/stm32f4_discovery_audio_codec.c **** 
1148:../STM32F4-Discovery/stm32f4_discovery_audio_codec.c **** /**
1149:../STM32F4-Discovery/stm32f4_discovery_audio_codec.c ****   * @brief  Restores the Audio Codec audio interface to its default state.
1150:../STM32F4-Discovery/stm32f4_discovery_audio_codec.c ****   * @param  None
1151:../STM32F4-Discovery/stm32f4_discovery_audio_codec.c ****   * @retval None
1152:../STM32F4-Discovery/stm32f4_discovery_audio_codec.c ****   */
1153:../STM32F4-Discovery/stm32f4_discovery_audio_codec.c **** static void Codec_AudioInterface_DeInit(void)
1154:../STM32F4-Discovery/stm32f4_discovery_audio_codec.c **** {
 2384              		.loc 1 1154 0
 2385              		.cfi_startproc
 2386              		@ args = 0, pretend = 0, frame = 0
 2387              		@ frame_needed = 1, uses_anonymous_args = 0
 2388 1030 80B5     		push	{r7, lr}
 2389              	.LCFI67:
 2390              		.cfi_def_cfa_offset 8
 2391              		.cfi_offset 14, -4
 2392              		.cfi_offset 7, -8
 2393 1032 00AF     		add	r7, sp, #0
 2394              	.LCFI68:
 2395              		.cfi_def_cfa_register 7
1155:../STM32F4-Discovery/stm32f4_discovery_audio_codec.c ****   /* Disable the CODEC_I2S peripheral (in case it hasn't already been disabled) */
1156:../STM32F4-Discovery/stm32f4_discovery_audio_codec.c ****   I2S_Cmd(CODEC_I2S, DISABLE);
 2396              		.loc 1 1156 0
 2397 1034 4FF47050 		mov	r0, #15360
 2398 1038 C4F20000 		movt	r0, 16384
 2399 103c 4FF00001 		mov	r1, #0
 2400 1040 FFF7FEFF 		bl	I2S_Cmd
1157:../STM32F4-Discovery/stm32f4_discovery_audio_codec.c ****   
1158:../STM32F4-Discovery/stm32f4_discovery_audio_codec.c ****   /* Deinitialize the CODEC_I2S peripheral */
1159:../STM32F4-Discovery/stm32f4_discovery_audio_codec.c ****   SPI_I2S_DeInit(CODEC_I2S);
 2401              		.loc 1 1159 0
 2402 1044 4FF47050 		mov	r0, #15360
 2403 1048 C4F20000 		movt	r0, 16384
 2404 104c FFF7FEFF 		bl	SPI_I2S_DeInit
1160:../STM32F4-Discovery/stm32f4_discovery_audio_codec.c ****   
1161:../STM32F4-Discovery/stm32f4_discovery_audio_codec.c ****   /* Disable the CODEC_I2S peripheral clock */
1162:../STM32F4-Discovery/stm32f4_discovery_audio_codec.c ****   RCC_APB1PeriphClockCmd(CODEC_I2S_CLK, DISABLE); 
 2405              		.loc 1 1162 0
 2406 1050 4FF40040 		mov	r0, #32768
 2407 1054 4FF00001 		mov	r1, #0
 2408 1058 FFF7FEFF 		bl	RCC_APB1PeriphClockCmd
1163:../STM32F4-Discovery/stm32f4_discovery_audio_codec.c **** }
 2409              		.loc 1 1163 0
 2410 105c 80BD     		pop	{r7, pc}
 2411              		.cfi_endproc
 2412              	.LFE135:
 2414 105e 00BF     		.align	2
 2415              		.thumb
 2416              		.thumb_func
 2418              	Codec_GPIO_Init:
 2419              	.LFB136:
1164:../STM32F4-Discovery/stm32f4_discovery_audio_codec.c **** 
1165:../STM32F4-Discovery/stm32f4_discovery_audio_codec.c **** /**
1166:../STM32F4-Discovery/stm32f4_discovery_audio_codec.c ****   * @brief Initializes IOs used by the Audio Codec (on the control and audio 
1167:../STM32F4-Discovery/stm32f4_discovery_audio_codec.c ****   *        interfaces).
1168:../STM32F4-Discovery/stm32f4_discovery_audio_codec.c ****   * @param  None
1169:../STM32F4-Discovery/stm32f4_discovery_audio_codec.c ****   * @retval None
1170:../STM32F4-Discovery/stm32f4_discovery_audio_codec.c ****   */
1171:../STM32F4-Discovery/stm32f4_discovery_audio_codec.c **** static void Codec_GPIO_Init(void)
1172:../STM32F4-Discovery/stm32f4_discovery_audio_codec.c **** {
 2420              		.loc 1 1172 0
 2421              		.cfi_startproc
 2422              		@ args = 0, pretend = 0, frame = 8
 2423              		@ frame_needed = 1, uses_anonymous_args = 0
 2424 1060 80B5     		push	{r7, lr}
 2425              	.LCFI69:
 2426              		.cfi_def_cfa_offset 8
 2427              		.cfi_offset 14, -4
 2428              		.cfi_offset 7, -8
 2429 1062 82B0     		sub	sp, sp, #8
 2430              	.LCFI70:
 2431              		.cfi_def_cfa_offset 16
 2432 1064 00AF     		add	r7, sp, #0
 2433              	.LCFI71:
 2434              		.cfi_def_cfa_register 7
1173:../STM32F4-Discovery/stm32f4_discovery_audio_codec.c ****   GPIO_InitTypeDef GPIO_InitStructure;
1174:../STM32F4-Discovery/stm32f4_discovery_audio_codec.c ****   
1175:../STM32F4-Discovery/stm32f4_discovery_audio_codec.c ****   /* Enable Reset GPIO Clock */
1176:../STM32F4-Discovery/stm32f4_discovery_audio_codec.c ****   RCC_AHB1PeriphClockCmd(AUDIO_RESET_GPIO_CLK,ENABLE);
 2435              		.loc 1 1176 0
 2436 1066 4FF00800 		mov	r0, #8
 2437 106a 4FF00101 		mov	r1, #1
 2438 106e FFF7FEFF 		bl	RCC_AHB1PeriphClockCmd
1177:../STM32F4-Discovery/stm32f4_discovery_audio_codec.c ****   
1178:../STM32F4-Discovery/stm32f4_discovery_audio_codec.c ****   /* Audio reset pin configuration -------------------------------------------------*/
1179:../STM32F4-Discovery/stm32f4_discovery_audio_codec.c ****   GPIO_InitStructure.GPIO_Pin = AUDIO_RESET_PIN; 
 2439              		.loc 1 1179 0
 2440 1072 4FF01003 		mov	r3, #16
 2441 1076 3B60     		str	r3, [r7, #0]
1180:../STM32F4-Discovery/stm32f4_discovery_audio_codec.c ****   GPIO_InitStructure.GPIO_Mode = GPIO_Mode_OUT;
 2442              		.loc 1 1180 0
 2443 1078 4FF00103 		mov	r3, #1
 2444 107c 3B71     		strb	r3, [r7, #4]
1181:../STM32F4-Discovery/stm32f4_discovery_audio_codec.c ****   GPIO_InitStructure.GPIO_Speed = GPIO_Speed_50MHz;
 2445              		.loc 1 1181 0
 2446 107e 4FF00203 		mov	r3, #2
 2447 1082 7B71     		strb	r3, [r7, #5]
1182:../STM32F4-Discovery/stm32f4_discovery_audio_codec.c ****   GPIO_InitStructure.GPIO_OType = GPIO_OType_PP;
 2448              		.loc 1 1182 0
 2449 1084 4FF00003 		mov	r3, #0
 2450 1088 BB71     		strb	r3, [r7, #6]
1183:../STM32F4-Discovery/stm32f4_discovery_audio_codec.c ****   GPIO_InitStructure.GPIO_PuPd  = GPIO_PuPd_NOPULL;
 2451              		.loc 1 1183 0
 2452 108a 4FF00003 		mov	r3, #0
 2453 108e FB71     		strb	r3, [r7, #7]
1184:../STM32F4-Discovery/stm32f4_discovery_audio_codec.c ****   GPIO_Init(AUDIO_RESET_GPIO, &GPIO_InitStructure);    
 2454              		.loc 1 1184 0
 2455 1090 3B46     		mov	r3, r7
 2456 1092 4FF44060 		mov	r0, #3072
 2457 1096 C4F20200 		movt	r0, 16386
 2458 109a 1946     		mov	r1, r3
 2459 109c FFF7FEFF 		bl	GPIO_Init
1185:../STM32F4-Discovery/stm32f4_discovery_audio_codec.c ****   
1186:../STM32F4-Discovery/stm32f4_discovery_audio_codec.c ****   /* Enable I2S and I2C GPIO clocks */
1187:../STM32F4-Discovery/stm32f4_discovery_audio_codec.c ****   RCC_AHB1PeriphClockCmd(CODEC_I2C_GPIO_CLOCK | CODEC_I2S_GPIO_CLOCK, ENABLE);
 2460              		.loc 1 1187 0
 2461 10a0 4FF00700 		mov	r0, #7
 2462 10a4 4FF00101 		mov	r1, #1
 2463 10a8 FFF7FEFF 		bl	RCC_AHB1PeriphClockCmd
1188:../STM32F4-Discovery/stm32f4_discovery_audio_codec.c **** 
1189:../STM32F4-Discovery/stm32f4_discovery_audio_codec.c ****   /* CODEC_I2C SCL and SDA pins configuration -------------------------------------*/
1190:../STM32F4-Discovery/stm32f4_discovery_audio_codec.c ****   GPIO_InitStructure.GPIO_Pin = CODEC_I2C_SCL_PIN | CODEC_I2C_SDA_PIN; 
 2464              		.loc 1 1190 0
 2465 10ac 4FF41073 		mov	r3, #576
 2466 10b0 3B60     		str	r3, [r7, #0]
1191:../STM32F4-Discovery/stm32f4_discovery_audio_codec.c ****   GPIO_InitStructure.GPIO_Mode = GPIO_Mode_AF;
 2467              		.loc 1 1191 0
 2468 10b2 4FF00203 		mov	r3, #2
 2469 10b6 3B71     		strb	r3, [r7, #4]
1192:../STM32F4-Discovery/stm32f4_discovery_audio_codec.c ****   GPIO_InitStructure.GPIO_Speed = GPIO_Speed_50MHz;
 2470              		.loc 1 1192 0
 2471 10b8 4FF00203 		mov	r3, #2
 2472 10bc 7B71     		strb	r3, [r7, #5]
1193:../STM32F4-Discovery/stm32f4_discovery_audio_codec.c ****   GPIO_InitStructure.GPIO_OType = GPIO_OType_OD;
 2473              		.loc 1 1193 0
 2474 10be 4FF00103 		mov	r3, #1
 2475 10c2 BB71     		strb	r3, [r7, #6]
1194:../STM32F4-Discovery/stm32f4_discovery_audio_codec.c ****   GPIO_InitStructure.GPIO_PuPd  = GPIO_PuPd_NOPULL;
 2476              		.loc 1 1194 0
 2477 10c4 4FF00003 		mov	r3, #0
 2478 10c8 FB71     		strb	r3, [r7, #7]
1195:../STM32F4-Discovery/stm32f4_discovery_audio_codec.c ****   GPIO_Init(CODEC_I2C_GPIO, &GPIO_InitStructure);     
 2479              		.loc 1 1195 0
 2480 10ca 3B46     		mov	r3, r7
 2481 10cc 4FF48060 		mov	r0, #1024
 2482 10d0 C4F20200 		movt	r0, 16386
 2483 10d4 1946     		mov	r1, r3
 2484 10d6 FFF7FEFF 		bl	GPIO_Init
1196:../STM32F4-Discovery/stm32f4_discovery_audio_codec.c ****   /* Connect pins to I2C peripheral */
1197:../STM32F4-Discovery/stm32f4_discovery_audio_codec.c ****   GPIO_PinAFConfig(CODEC_I2C_GPIO, CODEC_I2S_SCL_PINSRC, CODEC_I2C_GPIO_AF);  
 2485              		.loc 1 1197 0
 2486 10da 4FF48060 		mov	r0, #1024
 2487 10de C4F20200 		movt	r0, 16386
 2488 10e2 4FF00601 		mov	r1, #6
 2489 10e6 4FF00402 		mov	r2, #4
 2490 10ea FFF7FEFF 		bl	GPIO_PinAFConfig
1198:../STM32F4-Discovery/stm32f4_discovery_audio_codec.c ****   GPIO_PinAFConfig(CODEC_I2C_GPIO, CODEC_I2S_SDA_PINSRC, CODEC_I2C_GPIO_AF);  
 2491              		.loc 1 1198 0
 2492 10ee 4FF48060 		mov	r0, #1024
 2493 10f2 C4F20200 		movt	r0, 16386
 2494 10f6 4FF00901 		mov	r1, #9
 2495 10fa 4FF00402 		mov	r2, #4
 2496 10fe FFF7FEFF 		bl	GPIO_PinAFConfig
1199:../STM32F4-Discovery/stm32f4_discovery_audio_codec.c **** 
1200:../STM32F4-Discovery/stm32f4_discovery_audio_codec.c ****   /* CODEC_I2S pins configuration: WS, SCK and SD pins -----------------------------*/
1201:../STM32F4-Discovery/stm32f4_discovery_audio_codec.c ****   GPIO_InitStructure.GPIO_Pin = CODEC_I2S_SCK_PIN | CODEC_I2S_SD_PIN; 
 2497              		.loc 1 1201 0
 2498 1102 4FF4A053 		mov	r3, #5120
 2499 1106 3B60     		str	r3, [r7, #0]
1202:../STM32F4-Discovery/stm32f4_discovery_audio_codec.c ****   GPIO_InitStructure.GPIO_Mode = GPIO_Mode_AF;
 2500              		.loc 1 1202 0
 2501 1108 4FF00203 		mov	r3, #2
 2502 110c 3B71     		strb	r3, [r7, #4]
1203:../STM32F4-Discovery/stm32f4_discovery_audio_codec.c ****   GPIO_InitStructure.GPIO_Speed = GPIO_Speed_50MHz;
 2503              		.loc 1 1203 0
 2504 110e 4FF00203 		mov	r3, #2
 2505 1112 7B71     		strb	r3, [r7, #5]
1204:../STM32F4-Discovery/stm32f4_discovery_audio_codec.c ****   GPIO_InitStructure.GPIO_OType = GPIO_OType_PP;
 2506              		.loc 1 1204 0
 2507 1114 4FF00003 		mov	r3, #0
 2508 1118 BB71     		strb	r3, [r7, #6]
1205:../STM32F4-Discovery/stm32f4_discovery_audio_codec.c ****   GPIO_InitStructure.GPIO_PuPd = GPIO_PuPd_NOPULL;
 2509              		.loc 1 1205 0
 2510 111a 4FF00003 		mov	r3, #0
 2511 111e FB71     		strb	r3, [r7, #7]
1206:../STM32F4-Discovery/stm32f4_discovery_audio_codec.c ****   GPIO_Init(CODEC_I2S_GPIO, &GPIO_InitStructure);
 2512              		.loc 1 1206 0
 2513 1120 3B46     		mov	r3, r7
 2514 1122 4FF40060 		mov	r0, #2048
 2515 1126 C4F20200 		movt	r0, 16386
 2516 112a 1946     		mov	r1, r3
 2517 112c FFF7FEFF 		bl	GPIO_Init
1207:../STM32F4-Discovery/stm32f4_discovery_audio_codec.c ****   
1208:../STM32F4-Discovery/stm32f4_discovery_audio_codec.c ****   /* Connect pins to I2S peripheral  */
1209:../STM32F4-Discovery/stm32f4_discovery_audio_codec.c ****   GPIO_PinAFConfig(CODEC_I2S_WS_GPIO, CODEC_I2S_WS_PINSRC, CODEC_I2S_GPIO_AF);  
 2518              		.loc 1 1209 0
 2519 1130 4FF00000 		mov	r0, #0
 2520 1134 C4F20200 		movt	r0, 16386
 2521 1138 4FF00401 		mov	r1, #4
 2522 113c 4FF00602 		mov	r2, #6
 2523 1140 FFF7FEFF 		bl	GPIO_PinAFConfig
1210:../STM32F4-Discovery/stm32f4_discovery_audio_codec.c ****   GPIO_PinAFConfig(CODEC_I2S_GPIO, CODEC_I2S_SCK_PINSRC, CODEC_I2S_GPIO_AF);
 2524              		.loc 1 1210 0
 2525 1144 4FF40060 		mov	r0, #2048
 2526 1148 C4F20200 		movt	r0, 16386
 2527 114c 4FF00A01 		mov	r1, #10
 2528 1150 4FF00602 		mov	r2, #6
 2529 1154 FFF7FEFF 		bl	GPIO_PinAFConfig
1211:../STM32F4-Discovery/stm32f4_discovery_audio_codec.c **** 
1212:../STM32F4-Discovery/stm32f4_discovery_audio_codec.c ****   if (CurrAudioInterface != AUDIO_INTERFACE_DAC) 
 2530              		.loc 1 1212 0
 2531 1158 40F20003 		movw	r3, #:lower16:CurrAudioInterface
 2532 115c C0F20003 		movt	r3, #:upper16:CurrAudioInterface
 2533 1160 1B68     		ldr	r3, [r3, #0]
 2534 1162 022B     		cmp	r3, #2
 2535 1164 15D0     		beq	.L86
1213:../STM32F4-Discovery/stm32f4_discovery_audio_codec.c ****   {
1214:../STM32F4-Discovery/stm32f4_discovery_audio_codec.c ****     GPIO_InitStructure.GPIO_Pin = CODEC_I2S_WS_PIN ;
 2536              		.loc 1 1214 0
 2537 1166 4FF01003 		mov	r3, #16
 2538 116a 3B60     		str	r3, [r7, #0]
1215:../STM32F4-Discovery/stm32f4_discovery_audio_codec.c ****     GPIO_Init(CODEC_I2S_WS_GPIO, &GPIO_InitStructure); 
 2539              		.loc 1 1215 0
 2540 116c 3B46     		mov	r3, r7
 2541 116e 4FF00000 		mov	r0, #0
 2542 1172 C4F20200 		movt	r0, 16386
 2543 1176 1946     		mov	r1, r3
 2544 1178 FFF7FEFF 		bl	GPIO_Init
1216:../STM32F4-Discovery/stm32f4_discovery_audio_codec.c ****     GPIO_PinAFConfig(CODEC_I2S_GPIO, CODEC_I2S_SD_PINSRC, CODEC_I2S_GPIO_AF);
 2545              		.loc 1 1216 0
 2546 117c 4FF40060 		mov	r0, #2048
 2547 1180 C4F20200 		movt	r0, 16386
 2548 1184 4FF00C01 		mov	r1, #12
 2549 1188 4FF00602 		mov	r2, #6
 2550 118c FFF7FEFF 		bl	GPIO_PinAFConfig
 2551 1190 16E0     		b	.L87
 2552              	.L86:
1217:../STM32F4-Discovery/stm32f4_discovery_audio_codec.c ****   }
1218:../STM32F4-Discovery/stm32f4_discovery_audio_codec.c ****   else
1219:../STM32F4-Discovery/stm32f4_discovery_audio_codec.c ****   {
1220:../STM32F4-Discovery/stm32f4_discovery_audio_codec.c ****     /* GPIOA clock enable (to be used with DAC) */
1221:../STM32F4-Discovery/stm32f4_discovery_audio_codec.c ****     RCC_AHB1PeriphClockCmd(RCC_AHB1Periph_GPIOA, ENABLE);
 2553              		.loc 1 1221 0
 2554 1192 4FF00100 		mov	r0, #1
 2555 1196 4FF00101 		mov	r1, #1
 2556 119a FFF7FEFF 		bl	RCC_AHB1PeriphClockCmd
1222:../STM32F4-Discovery/stm32f4_discovery_audio_codec.c ****    
1223:../STM32F4-Discovery/stm32f4_discovery_audio_codec.c ****     /* DAC channel 1 & 2 (DAC_OUT1 = PA.4) configuration */
1224:../STM32F4-Discovery/stm32f4_discovery_audio_codec.c ****     GPIO_InitStructure.GPIO_Pin = GPIO_Pin_4;
 2557              		.loc 1 1224 0
 2558 119e 4FF01003 		mov	r3, #16
 2559 11a2 3B60     		str	r3, [r7, #0]
1225:../STM32F4-Discovery/stm32f4_discovery_audio_codec.c ****     GPIO_InitStructure.GPIO_Mode = GPIO_Mode_AN;
 2560              		.loc 1 1225 0
 2561 11a4 4FF00303 		mov	r3, #3
 2562 11a8 3B71     		strb	r3, [r7, #4]
1226:../STM32F4-Discovery/stm32f4_discovery_audio_codec.c ****     GPIO_InitStructure.GPIO_PuPd = GPIO_PuPd_NOPULL;
 2563              		.loc 1 1226 0
 2564 11aa 4FF00003 		mov	r3, #0
 2565 11ae FB71     		strb	r3, [r7, #7]
1227:../STM32F4-Discovery/stm32f4_discovery_audio_codec.c ****     GPIO_Init(GPIOA, &GPIO_InitStructure);
 2566              		.loc 1 1227 0
 2567 11b0 3B46     		mov	r3, r7
 2568 11b2 4FF00000 		mov	r0, #0
 2569 11b6 C4F20200 		movt	r0, 16386
 2570 11ba 1946     		mov	r1, r3
 2571 11bc FFF7FEFF 		bl	GPIO_Init
 2572              	.L87:
1228:../STM32F4-Discovery/stm32f4_discovery_audio_codec.c ****   }
1229:../STM32F4-Discovery/stm32f4_discovery_audio_codec.c **** 
1230:../STM32F4-Discovery/stm32f4_discovery_audio_codec.c **** #ifdef CODEC_MCLK_ENABLED
1231:../STM32F4-Discovery/stm32f4_discovery_audio_codec.c ****   /* CODEC_I2S pins configuration: MCK pin */
1232:../STM32F4-Discovery/stm32f4_discovery_audio_codec.c ****   GPIO_InitStructure.GPIO_Pin = CODEC_I2S_MCK_PIN; 
 2573              		.loc 1 1232 0
 2574 11c0 4FF08003 		mov	r3, #128
 2575 11c4 3B60     		str	r3, [r7, #0]
1233:../STM32F4-Discovery/stm32f4_discovery_audio_codec.c ****   GPIO_InitStructure.GPIO_Mode = GPIO_Mode_AF;
 2576              		.loc 1 1233 0
 2577 11c6 4FF00203 		mov	r3, #2
 2578 11ca 3B71     		strb	r3, [r7, #4]
1234:../STM32F4-Discovery/stm32f4_discovery_audio_codec.c ****   GPIO_InitStructure.GPIO_Speed = GPIO_Speed_50MHz;
 2579              		.loc 1 1234 0
 2580 11cc 4FF00203 		mov	r3, #2
 2581 11d0 7B71     		strb	r3, [r7, #5]
1235:../STM32F4-Discovery/stm32f4_discovery_audio_codec.c ****   GPIO_InitStructure.GPIO_OType = GPIO_OType_PP;
 2582              		.loc 1 1235 0
 2583 11d2 4FF00003 		mov	r3, #0
 2584 11d6 BB71     		strb	r3, [r7, #6]
1236:../STM32F4-Discovery/stm32f4_discovery_audio_codec.c ****   GPIO_InitStructure.GPIO_PuPd = GPIO_PuPd_NOPULL;
 2585              		.loc 1 1236 0
 2586 11d8 4FF00003 		mov	r3, #0
 2587 11dc FB71     		strb	r3, [r7, #7]
1237:../STM32F4-Discovery/stm32f4_discovery_audio_codec.c ****   GPIO_Init(CODEC_I2S_MCK_GPIO, &GPIO_InitStructure);   
 2588              		.loc 1 1237 0
 2589 11de 3B46     		mov	r3, r7
 2590 11e0 4FF40060 		mov	r0, #2048
 2591 11e4 C4F20200 		movt	r0, 16386
 2592 11e8 1946     		mov	r1, r3
 2593 11ea FFF7FEFF 		bl	GPIO_Init
1238:../STM32F4-Discovery/stm32f4_discovery_audio_codec.c ****   /* Connect pins to I2S peripheral  */
1239:../STM32F4-Discovery/stm32f4_discovery_audio_codec.c ****   GPIO_PinAFConfig(CODEC_I2S_MCK_GPIO, CODEC_I2S_MCK_PINSRC, CODEC_I2S_GPIO_AF); 
 2594              		.loc 1 1239 0
 2595 11ee 4FF40060 		mov	r0, #2048
 2596 11f2 C4F20200 		movt	r0, 16386
 2597 11f6 4FF00701 		mov	r1, #7
 2598 11fa 4FF00602 		mov	r2, #6
 2599 11fe FFF7FEFF 		bl	GPIO_PinAFConfig
1240:../STM32F4-Discovery/stm32f4_discovery_audio_codec.c **** #endif /* CODEC_MCLK_ENABLED */ 
1241:../STM32F4-Discovery/stm32f4_discovery_audio_codec.c **** }
 2600              		.loc 1 1241 0
 2601 1202 07F10807 		add	r7, r7, #8
 2602 1206 BD46     		mov	sp, r7
 2603 1208 80BD     		pop	{r7, pc}
 2604              		.cfi_endproc
 2605              	.LFE136:
 2607 120a 00BF     		.align	2
 2608              		.thumb
 2609              		.thumb_func
 2611              	Codec_GPIO_DeInit:
 2612              	.LFB137:
1242:../STM32F4-Discovery/stm32f4_discovery_audio_codec.c **** 
1243:../STM32F4-Discovery/stm32f4_discovery_audio_codec.c **** /**
1244:../STM32F4-Discovery/stm32f4_discovery_audio_codec.c ****   * @brief  Restores the IOs used by the Audio Codec interface to their default state.
1245:../STM32F4-Discovery/stm32f4_discovery_audio_codec.c ****   * @param  None
1246:../STM32F4-Discovery/stm32f4_discovery_audio_codec.c ****   * @retval None
1247:../STM32F4-Discovery/stm32f4_discovery_audio_codec.c ****   */
1248:../STM32F4-Discovery/stm32f4_discovery_audio_codec.c **** static void Codec_GPIO_DeInit(void)
1249:../STM32F4-Discovery/stm32f4_discovery_audio_codec.c **** {
 2613              		.loc 1 1249 0
 2614              		.cfi_startproc
 2615              		@ args = 0, pretend = 0, frame = 8
 2616              		@ frame_needed = 1, uses_anonymous_args = 0
 2617 120c 80B5     		push	{r7, lr}
 2618              	.LCFI72:
 2619              		.cfi_def_cfa_offset 8
 2620              		.cfi_offset 14, -4
 2621              		.cfi_offset 7, -8
 2622 120e 82B0     		sub	sp, sp, #8
 2623              	.LCFI73:
 2624              		.cfi_def_cfa_offset 16
 2625 1210 00AF     		add	r7, sp, #0
 2626              	.LCFI74:
 2627              		.cfi_def_cfa_register 7
1250:../STM32F4-Discovery/stm32f4_discovery_audio_codec.c ****   GPIO_InitTypeDef GPIO_InitStructure;
1251:../STM32F4-Discovery/stm32f4_discovery_audio_codec.c ****   
1252:../STM32F4-Discovery/stm32f4_discovery_audio_codec.c ****   /* Deinitialize all the GPIOs used by the driver */
1253:../STM32F4-Discovery/stm32f4_discovery_audio_codec.c ****   GPIO_InitStructure.GPIO_Pin =  CODEC_I2S_SCK_PIN | CODEC_I2S_SD_PIN;
 2628              		.loc 1 1253 0
 2629 1212 4FF4A053 		mov	r3, #5120
 2630 1216 3B60     		str	r3, [r7, #0]
1254:../STM32F4-Discovery/stm32f4_discovery_audio_codec.c ****   GPIO_InitStructure.GPIO_Mode = GPIO_Mode_IN;
 2631              		.loc 1 1254 0
 2632 1218 4FF00003 		mov	r3, #0
 2633 121c 3B71     		strb	r3, [r7, #4]
1255:../STM32F4-Discovery/stm32f4_discovery_audio_codec.c ****   GPIO_InitStructure.GPIO_Speed = GPIO_Speed_2MHz;
 2634              		.loc 1 1255 0
 2635 121e 4FF00003 		mov	r3, #0
 2636 1222 7B71     		strb	r3, [r7, #5]
1256:../STM32F4-Discovery/stm32f4_discovery_audio_codec.c ****   GPIO_InitStructure.GPIO_OType = GPIO_OType_PP;
 2637              		.loc 1 1256 0
 2638 1224 4FF00003 		mov	r3, #0
 2639 1228 BB71     		strb	r3, [r7, #6]
1257:../STM32F4-Discovery/stm32f4_discovery_audio_codec.c ****   GPIO_InitStructure.GPIO_PuPd  = GPIO_PuPd_NOPULL;
 2640              		.loc 1 1257 0
 2641 122a 4FF00003 		mov	r3, #0
 2642 122e FB71     		strb	r3, [r7, #7]
1258:../STM32F4-Discovery/stm32f4_discovery_audio_codec.c ****   GPIO_Init(CODEC_I2S_GPIO, &GPIO_InitStructure);  
 2643              		.loc 1 1258 0
 2644 1230 3B46     		mov	r3, r7
 2645 1232 4FF40060 		mov	r0, #2048
 2646 1236 C4F20200 		movt	r0, 16386
 2647 123a 1946     		mov	r1, r3
 2648 123c FFF7FEFF 		bl	GPIO_Init
1259:../STM32F4-Discovery/stm32f4_discovery_audio_codec.c ****   
1260:../STM32F4-Discovery/stm32f4_discovery_audio_codec.c ****   GPIO_InitStructure.GPIO_Pin = CODEC_I2S_WS_PIN ;
 2649              		.loc 1 1260 0
 2650 1240 4FF01003 		mov	r3, #16
 2651 1244 3B60     		str	r3, [r7, #0]
1261:../STM32F4-Discovery/stm32f4_discovery_audio_codec.c ****   GPIO_Init(CODEC_I2S_WS_GPIO, &GPIO_InitStructure); 
 2652              		.loc 1 1261 0
 2653 1246 3B46     		mov	r3, r7
 2654 1248 4FF00000 		mov	r0, #0
 2655 124c C4F20200 		movt	r0, 16386
 2656 1250 1946     		mov	r1, r3
 2657 1252 FFF7FEFF 		bl	GPIO_Init
1262:../STM32F4-Discovery/stm32f4_discovery_audio_codec.c ****      
1263:../STM32F4-Discovery/stm32f4_discovery_audio_codec.c ****   /* Disconnect pins from I2S peripheral  */
1264:../STM32F4-Discovery/stm32f4_discovery_audio_codec.c ****   GPIO_PinAFConfig(CODEC_I2S_WS_GPIO, CODEC_I2S_WS_PINSRC, 0x00);  
 2658              		.loc 1 1264 0
 2659 1256 4FF00000 		mov	r0, #0
 2660 125a C4F20200 		movt	r0, 16386
 2661 125e 4FF00401 		mov	r1, #4
 2662 1262 4FF00002 		mov	r2, #0
 2663 1266 FFF7FEFF 		bl	GPIO_PinAFConfig
1265:../STM32F4-Discovery/stm32f4_discovery_audio_codec.c ****   GPIO_PinAFConfig(CODEC_I2S_GPIO, CODEC_I2S_SCK_PINSRC, 0x00);
 2664              		.loc 1 1265 0
 2665 126a 4FF40060 		mov	r0, #2048
 2666 126e C4F20200 		movt	r0, 16386
 2667 1272 4FF00A01 		mov	r1, #10
 2668 1276 4FF00002 		mov	r2, #0
 2669 127a FFF7FEFF 		bl	GPIO_PinAFConfig
1266:../STM32F4-Discovery/stm32f4_discovery_audio_codec.c ****   GPIO_PinAFConfig(CODEC_I2S_GPIO, CODEC_I2S_SD_PINSRC, 0x00);  
 2670              		.loc 1 1266 0
 2671 127e 4FF40060 		mov	r0, #2048
 2672 1282 C4F20200 		movt	r0, 16386
 2673 1286 4FF00C01 		mov	r1, #12
 2674 128a 4FF00002 		mov	r2, #0
 2675 128e FFF7FEFF 		bl	GPIO_PinAFConfig
1267:../STM32F4-Discovery/stm32f4_discovery_audio_codec.c ****   
1268:../STM32F4-Discovery/stm32f4_discovery_audio_codec.c **** #ifdef CODEC_MCLK_ENABLED
1269:../STM32F4-Discovery/stm32f4_discovery_audio_codec.c ****   /* CODEC_I2S pins deinitialization: MCK pin */
1270:../STM32F4-Discovery/stm32f4_discovery_audio_codec.c ****   GPIO_InitStructure.GPIO_Pin = CODEC_I2S_MCK_PIN; 
 2676              		.loc 1 1270 0
 2677 1292 4FF08003 		mov	r3, #128
 2678 1296 3B60     		str	r3, [r7, #0]
1271:../STM32F4-Discovery/stm32f4_discovery_audio_codec.c ****   GPIO_Init(CODEC_I2S_MCK_GPIO, &GPIO_InitStructure);   
 2679              		.loc 1 1271 0
 2680 1298 3B46     		mov	r3, r7
 2681 129a 4FF40060 		mov	r0, #2048
 2682 129e C4F20200 		movt	r0, 16386
 2683 12a2 1946     		mov	r1, r3
 2684 12a4 FFF7FEFF 		bl	GPIO_Init
1272:../STM32F4-Discovery/stm32f4_discovery_audio_codec.c ****   /* Disconnect pins from I2S peripheral  */
1273:../STM32F4-Discovery/stm32f4_discovery_audio_codec.c ****   GPIO_PinAFConfig(CODEC_I2S_MCK_GPIO, CODEC_I2S_MCK_PINSRC, CODEC_I2S_GPIO_AF); 
 2685              		.loc 1 1273 0
 2686 12a8 4FF40060 		mov	r0, #2048
 2687 12ac C4F20200 		movt	r0, 16386
 2688 12b0 4FF00701 		mov	r1, #7
 2689 12b4 4FF00602 		mov	r2, #6
 2690 12b8 FFF7FEFF 		bl	GPIO_PinAFConfig
1274:../STM32F4-Discovery/stm32f4_discovery_audio_codec.c **** #endif /* CODEC_MCLK_ENABLED */    
1275:../STM32F4-Discovery/stm32f4_discovery_audio_codec.c **** }
 2691              		.loc 1 1275 0
 2692 12bc 07F10807 		add	r7, r7, #8
 2693 12c0 BD46     		mov	sp, r7
 2694 12c2 80BD     		pop	{r7, pc}
 2695              		.cfi_endproc
 2696              	.LFE137:
 2698              		.align	2
 2699              		.thumb
 2700              		.thumb_func
 2702              	Delay:
 2703              	.LFB138:
1276:../STM32F4-Discovery/stm32f4_discovery_audio_codec.c **** 
1277:../STM32F4-Discovery/stm32f4_discovery_audio_codec.c **** /**
1278:../STM32F4-Discovery/stm32f4_discovery_audio_codec.c ****   * @brief  Inserts a delay time (not accurate timing).
1279:../STM32F4-Discovery/stm32f4_discovery_audio_codec.c ****   * @param  nCount: specifies the delay time length.
1280:../STM32F4-Discovery/stm32f4_discovery_audio_codec.c ****   * @retval None
1281:../STM32F4-Discovery/stm32f4_discovery_audio_codec.c ****   */
1282:../STM32F4-Discovery/stm32f4_discovery_audio_codec.c **** static void Delay( __IO uint32_t nCount)
1283:../STM32F4-Discovery/stm32f4_discovery_audio_codec.c **** {
 2704              		.loc 1 1283 0
 2705              		.cfi_startproc
 2706              		@ args = 0, pretend = 0, frame = 8
 2707              		@ frame_needed = 1, uses_anonymous_args = 0
 2708              		@ link register save eliminated.
 2709 12c4 80B4     		push	{r7}
 2710              	.LCFI75:
 2711              		.cfi_def_cfa_offset 4
 2712              		.cfi_offset 7, -4
 2713 12c6 83B0     		sub	sp, sp, #12
 2714              	.LCFI76:
 2715              		.cfi_def_cfa_offset 16
 2716 12c8 00AF     		add	r7, sp, #0
 2717              	.LCFI77:
 2718              		.cfi_def_cfa_register 7
 2719 12ca 7860     		str	r0, [r7, #4]
1284:../STM32F4-Discovery/stm32f4_discovery_audio_codec.c ****   for (; nCount != 0; nCount--);
 2720              		.loc 1 1284 0
 2721 12cc 03E0     		b	.L90
 2722              	.L91:
 2723              		.loc 1 1284 0 is_stmt 0 discriminator 2
 2724 12ce 7B68     		ldr	r3, [r7, #4]
 2725 12d0 03F1FF33 		add	r3, r3, #-1
 2726 12d4 7B60     		str	r3, [r7, #4]
 2727              	.L90:
 2728              		.loc 1 1284 0 discriminator 1
 2729 12d6 7B68     		ldr	r3, [r7, #4]
 2730 12d8 002B     		cmp	r3, #0
 2731 12da F8D1     		bne	.L91
1285:../STM32F4-Discovery/stm32f4_discovery_audio_codec.c **** }
 2732              		.loc 1 1285 0 is_stmt 1
 2733 12dc 07F10C07 		add	r7, r7, #12
 2734 12e0 BD46     		mov	sp, r7
 2735 12e2 80BC     		pop	{r7}
 2736 12e4 7047     		bx	lr
 2737              		.cfi_endproc
 2738              	.LFE138:
 2740 12e6 00BF     		.align	2
 2741              		.thumb
 2742              		.thumb_func
 2744              	Audio_MAL_Init:
 2745              	.LFB139:
1286:../STM32F4-Discovery/stm32f4_discovery_audio_codec.c **** 
1287:../STM32F4-Discovery/stm32f4_discovery_audio_codec.c **** #ifdef USE_DEFAULT_TIMEOUT_CALLBACK
1288:../STM32F4-Discovery/stm32f4_discovery_audio_codec.c **** /**
1289:../STM32F4-Discovery/stm32f4_discovery_audio_codec.c ****   * @brief  Basic management of the timeout situation.
1290:../STM32F4-Discovery/stm32f4_discovery_audio_codec.c ****   * @param  None
1291:../STM32F4-Discovery/stm32f4_discovery_audio_codec.c ****   * @retval None
1292:../STM32F4-Discovery/stm32f4_discovery_audio_codec.c ****   */
1293:../STM32F4-Discovery/stm32f4_discovery_audio_codec.c **** uint32_t Codec_TIMEOUT_UserCallback(void)
1294:../STM32F4-Discovery/stm32f4_discovery_audio_codec.c **** {
1295:../STM32F4-Discovery/stm32f4_discovery_audio_codec.c ****   /* Block communication and all processes */
1296:../STM32F4-Discovery/stm32f4_discovery_audio_codec.c ****   while (1)
1297:../STM32F4-Discovery/stm32f4_discovery_audio_codec.c ****   {   
1298:../STM32F4-Discovery/stm32f4_discovery_audio_codec.c ****   }
1299:../STM32F4-Discovery/stm32f4_discovery_audio_codec.c **** }
1300:../STM32F4-Discovery/stm32f4_discovery_audio_codec.c **** #endif /* USE_DEFAULT_TIMEOUT_CALLBACK */
1301:../STM32F4-Discovery/stm32f4_discovery_audio_codec.c **** /*========================
1302:../STM32F4-Discovery/stm32f4_discovery_audio_codec.c **** 
1303:../STM32F4-Discovery/stm32f4_discovery_audio_codec.c ****                 Audio MAL Interface Control Functions
1304:../STM32F4-Discovery/stm32f4_discovery_audio_codec.c **** 
1305:../STM32F4-Discovery/stm32f4_discovery_audio_codec.c ****                                                 ==============================*/
1306:../STM32F4-Discovery/stm32f4_discovery_audio_codec.c **** 
1307:../STM32F4-Discovery/stm32f4_discovery_audio_codec.c **** /**
1308:../STM32F4-Discovery/stm32f4_discovery_audio_codec.c ****   * @brief  Initializes and prepares the Media to perform audio data transfer 
1309:../STM32F4-Discovery/stm32f4_discovery_audio_codec.c ****   *         from Media to the I2S peripheral.
1310:../STM32F4-Discovery/stm32f4_discovery_audio_codec.c ****   * @param  None
1311:../STM32F4-Discovery/stm32f4_discovery_audio_codec.c ****   * @retval None
1312:../STM32F4-Discovery/stm32f4_discovery_audio_codec.c ****   */
1313:../STM32F4-Discovery/stm32f4_discovery_audio_codec.c **** static void Audio_MAL_Init(void)  
1314:../STM32F4-Discovery/stm32f4_discovery_audio_codec.c **** { 
 2746              		.loc 1 1314 0
 2747              		.cfi_startproc
 2748              		@ args = 0, pretend = 0, frame = 8
 2749              		@ frame_needed = 1, uses_anonymous_args = 0
 2750 12e8 80B5     		push	{r7, lr}
 2751              	.LCFI78:
 2752              		.cfi_def_cfa_offset 8
 2753              		.cfi_offset 14, -4
 2754              		.cfi_offset 7, -8
 2755 12ea 82B0     		sub	sp, sp, #8
 2756              	.LCFI79:
 2757              		.cfi_def_cfa_offset 16
 2758 12ec 00AF     		add	r7, sp, #0
 2759              	.LCFI80:
 2760              		.cfi_def_cfa_register 7
1315:../STM32F4-Discovery/stm32f4_discovery_audio_codec.c ****   
1316:../STM32F4-Discovery/stm32f4_discovery_audio_codec.c **** #ifdef I2S_INTERRUPT  
1317:../STM32F4-Discovery/stm32f4_discovery_audio_codec.c ****   NVIC_InitTypeDef   NVIC_InitStructure;
1318:../STM32F4-Discovery/stm32f4_discovery_audio_codec.c **** 
1319:../STM32F4-Discovery/stm32f4_discovery_audio_codec.c ****   NVIC_InitStructure.NVIC_IRQChannel = SPI3_IRQn;
1320:../STM32F4-Discovery/stm32f4_discovery_audio_codec.c ****   NVIC_InitStructure.NVIC_IRQChannelPreemptionPriority = 0;
1321:../STM32F4-Discovery/stm32f4_discovery_audio_codec.c ****   NVIC_InitStructure.NVIC_IRQChannelSubPriority =0;
1322:../STM32F4-Discovery/stm32f4_discovery_audio_codec.c ****   NVIC_InitStructure.NVIC_IRQChannelCmd = ENABLE;
1323:../STM32F4-Discovery/stm32f4_discovery_audio_codec.c ****   NVIC_Init(&NVIC_InitStructure);
1324:../STM32F4-Discovery/stm32f4_discovery_audio_codec.c ****   
1325:../STM32F4-Discovery/stm32f4_discovery_audio_codec.c ****   SPI_I2S_ITConfig(SPI3, SPI_I2S_IT_TXE, ENABLE);
1326:../STM32F4-Discovery/stm32f4_discovery_audio_codec.c **** 
1327:../STM32F4-Discovery/stm32f4_discovery_audio_codec.c ****   I2S_Cmd(SPI3, ENABLE); 
1328:../STM32F4-Discovery/stm32f4_discovery_audio_codec.c **** #else  
1329:../STM32F4-Discovery/stm32f4_discovery_audio_codec.c **** #if defined(AUDIO_MAL_DMA_IT_TC_EN) || defined(AUDIO_MAL_DMA_IT_HT_EN) || defined(AUDIO_MAL_DMA_IT_
1330:../STM32F4-Discovery/stm32f4_discovery_audio_codec.c ****   NVIC_InitTypeDef NVIC_InitStructure;
1331:../STM32F4-Discovery/stm32f4_discovery_audio_codec.c **** #endif
1332:../STM32F4-Discovery/stm32f4_discovery_audio_codec.c **** 
1333:../STM32F4-Discovery/stm32f4_discovery_audio_codec.c ****   if (CurrAudioInterface == AUDIO_INTERFACE_I2S)
 2761              		.loc 1 1333 0
 2762 12ee 40F20003 		movw	r3, #:lower16:CurrAudioInterface
 2763 12f2 C0F20003 		movt	r3, #:upper16:CurrAudioInterface
 2764 12f6 1B68     		ldr	r3, [r3, #0]
 2765 12f8 012B     		cmp	r3, #1
 2766 12fa 40F0B880 		bne	.L93
1334:../STM32F4-Discovery/stm32f4_discovery_audio_codec.c ****   {
1335:../STM32F4-Discovery/stm32f4_discovery_audio_codec.c ****     /* Enable the DMA clock */
1336:../STM32F4-Discovery/stm32f4_discovery_audio_codec.c ****     RCC_AHB1PeriphClockCmd(AUDIO_MAL_DMA_CLOCK, ENABLE); 
 2767              		.loc 1 1336 0
 2768 12fe 40F20003 		movw	r3, #:lower16:AUDIO_MAL_DMA_CLOCK
 2769 1302 C0F20003 		movt	r3, #:upper16:AUDIO_MAL_DMA_CLOCK
 2770 1306 1B68     		ldr	r3, [r3, #0]
 2771 1308 1846     		mov	r0, r3
 2772 130a 4FF00101 		mov	r1, #1
 2773 130e FFF7FEFF 		bl	RCC_AHB1PeriphClockCmd
1337:../STM32F4-Discovery/stm32f4_discovery_audio_codec.c ****     
1338:../STM32F4-Discovery/stm32f4_discovery_audio_codec.c ****     /* Configure the DMA Stream */
1339:../STM32F4-Discovery/stm32f4_discovery_audio_codec.c ****     DMA_Cmd(AUDIO_MAL_DMA_STREAM, DISABLE);
 2774              		.loc 1 1339 0
 2775 1312 40F20003 		movw	r3, #:lower16:AUDIO_MAL_DMA_STREAM
 2776 1316 C0F20003 		movt	r3, #:upper16:AUDIO_MAL_DMA_STREAM
 2777 131a 1B68     		ldr	r3, [r3, #0]
 2778 131c 1846     		mov	r0, r3
 2779 131e 4FF00001 		mov	r1, #0
 2780 1322 FFF7FEFF 		bl	DMA_Cmd
1340:../STM32F4-Discovery/stm32f4_discovery_audio_codec.c ****     DMA_DeInit(AUDIO_MAL_DMA_STREAM);
 2781              		.loc 1 1340 0
 2782 1326 40F20003 		movw	r3, #:lower16:AUDIO_MAL_DMA_STREAM
 2783 132a C0F20003 		movt	r3, #:upper16:AUDIO_MAL_DMA_STREAM
 2784 132e 1B68     		ldr	r3, [r3, #0]
 2785 1330 1846     		mov	r0, r3
 2786 1332 FFF7FEFF 		bl	DMA_DeInit
1341:../STM32F4-Discovery/stm32f4_discovery_audio_codec.c ****     /* Set the parameters to be configured */
1342:../STM32F4-Discovery/stm32f4_discovery_audio_codec.c ****     DMA_InitStructure.DMA_Channel = AUDIO_MAL_DMA_CHANNEL;  
 2787              		.loc 1 1342 0
 2788 1336 40F20003 		movw	r3, #:lower16:AUDIO_MAL_DMA_CHANNEL
 2789 133a C0F20003 		movt	r3, #:upper16:AUDIO_MAL_DMA_CHANNEL
 2790 133e 1A68     		ldr	r2, [r3, #0]
 2791 1340 40F20003 		movw	r3, #:lower16:DMA_InitStructure
 2792 1344 C0F20003 		movt	r3, #:upper16:DMA_InitStructure
 2793 1348 1A60     		str	r2, [r3, #0]
1343:../STM32F4-Discovery/stm32f4_discovery_audio_codec.c ****     DMA_InitStructure.DMA_PeripheralBaseAddr = AUDIO_MAL_DMA_DREG;
 2794              		.loc 1 1343 0
 2795 134a 40F20003 		movw	r3, #:lower16:AUDIO_MAL_DMA_DREG
 2796 134e C0F20003 		movt	r3, #:upper16:AUDIO_MAL_DMA_DREG
 2797 1352 1A68     		ldr	r2, [r3, #0]
 2798 1354 40F20003 		movw	r3, #:lower16:DMA_InitStructure
 2799 1358 C0F20003 		movt	r3, #:upper16:DMA_InitStructure
 2800 135c 5A60     		str	r2, [r3, #4]
1344:../STM32F4-Discovery/stm32f4_discovery_audio_codec.c ****     DMA_InitStructure.DMA_Memory0BaseAddr = (uint32_t)0;      /* This field will be configured in p
 2801              		.loc 1 1344 0
 2802 135e 40F20003 		movw	r3, #:lower16:DMA_InitStructure
 2803 1362 C0F20003 		movt	r3, #:upper16:DMA_InitStructure
 2804 1366 4FF00002 		mov	r2, #0
 2805 136a 9A60     		str	r2, [r3, #8]
1345:../STM32F4-Discovery/stm32f4_discovery_audio_codec.c ****     DMA_InitStructure.DMA_DIR = DMA_DIR_MemoryToPeripheral;
 2806              		.loc 1 1345 0
 2807 136c 40F20003 		movw	r3, #:lower16:DMA_InitStructure
 2808 1370 C0F20003 		movt	r3, #:upper16:DMA_InitStructure
 2809 1374 4FF04002 		mov	r2, #64
 2810 1378 DA60     		str	r2, [r3, #12]
1346:../STM32F4-Discovery/stm32f4_discovery_audio_codec.c ****     DMA_InitStructure.DMA_BufferSize = (uint32_t)0xFFFE;      /* This field will be configured in p
 2811              		.loc 1 1346 0
 2812 137a 40F20003 		movw	r3, #:lower16:DMA_InitStructure
 2813 137e C0F20003 		movt	r3, #:upper16:DMA_InitStructure
 2814 1382 4FF6FE72 		movw	r2, #65534
 2815 1386 1A61     		str	r2, [r3, #16]
1347:../STM32F4-Discovery/stm32f4_discovery_audio_codec.c ****     DMA_InitStructure.DMA_PeripheralInc = DMA_PeripheralInc_Disable;
 2816              		.loc 1 1347 0
 2817 1388 40F20003 		movw	r3, #:lower16:DMA_InitStructure
 2818 138c C0F20003 		movt	r3, #:upper16:DMA_InitStructure
 2819 1390 4FF00002 		mov	r2, #0
 2820 1394 5A61     		str	r2, [r3, #20]
1348:../STM32F4-Discovery/stm32f4_discovery_audio_codec.c ****     DMA_InitStructure.DMA_MemoryInc = DMA_MemoryInc_Enable;
 2821              		.loc 1 1348 0
 2822 1396 40F20003 		movw	r3, #:lower16:DMA_InitStructure
 2823 139a C0F20003 		movt	r3, #:upper16:DMA_InitStructure
 2824 139e 4FF48062 		mov	r2, #1024
 2825 13a2 9A61     		str	r2, [r3, #24]
1349:../STM32F4-Discovery/stm32f4_discovery_audio_codec.c ****     DMA_InitStructure.DMA_PeripheralDataSize = AUDIO_MAL_DMA_PERIPH_DATA_SIZE;
 2826              		.loc 1 1349 0
 2827 13a4 40F20003 		movw	r3, #:lower16:DMA_InitStructure
 2828 13a8 C0F20003 		movt	r3, #:upper16:DMA_InitStructure
 2829 13ac 4FF40062 		mov	r2, #2048
 2830 13b0 DA61     		str	r2, [r3, #28]
1350:../STM32F4-Discovery/stm32f4_discovery_audio_codec.c ****     DMA_InitStructure.DMA_MemoryDataSize = AUDIO_MAL_DMA_MEM_DATA_SIZE; 
 2831              		.loc 1 1350 0
 2832 13b2 40F20003 		movw	r3, #:lower16:DMA_InitStructure
 2833 13b6 C0F20003 		movt	r3, #:upper16:DMA_InitStructure
 2834 13ba 4FF40052 		mov	r2, #8192
 2835 13be 1A62     		str	r2, [r3, #32]
1351:../STM32F4-Discovery/stm32f4_discovery_audio_codec.c **** #ifdef AUDIO_MAL_MODE_NORMAL
1352:../STM32F4-Discovery/stm32f4_discovery_audio_codec.c ****     DMA_InitStructure.DMA_Mode = DMA_Mode_Normal;
 2836              		.loc 1 1352 0
 2837 13c0 40F20003 		movw	r3, #:lower16:DMA_InitStructure
 2838 13c4 C0F20003 		movt	r3, #:upper16:DMA_InitStructure
 2839 13c8 4FF00002 		mov	r2, #0
 2840 13cc 5A62     		str	r2, [r3, #36]
1353:../STM32F4-Discovery/stm32f4_discovery_audio_codec.c **** #elif defined(AUDIO_MAL_MODE_CIRCULAR)
1354:../STM32F4-Discovery/stm32f4_discovery_audio_codec.c ****     DMA_InitStructure.DMA_Mode = DMA_Mode_Circular;
1355:../STM32F4-Discovery/stm32f4_discovery_audio_codec.c **** #else
1356:../STM32F4-Discovery/stm32f4_discovery_audio_codec.c **** #error "AUDIO_MAL_MODE_NORMAL or AUDIO_MAL_MODE_CIRCULAR should be selected !!"
1357:../STM32F4-Discovery/stm32f4_discovery_audio_codec.c **** #endif /* AUDIO_MAL_MODE_NORMAL */  
1358:../STM32F4-Discovery/stm32f4_discovery_audio_codec.c ****     DMA_InitStructure.DMA_Priority = DMA_Priority_High;
 2841              		.loc 1 1358 0
 2842 13ce 40F20003 		movw	r3, #:lower16:DMA_InitStructure
 2843 13d2 C0F20003 		movt	r3, #:upper16:DMA_InitStructure
 2844 13d6 4FF40032 		mov	r2, #131072
 2845 13da 9A62     		str	r2, [r3, #40]
1359:../STM32F4-Discovery/stm32f4_discovery_audio_codec.c ****     DMA_InitStructure.DMA_FIFOMode = DMA_FIFOMode_Disable;         
 2846              		.loc 1 1359 0
 2847 13dc 40F20003 		movw	r3, #:lower16:DMA_InitStructure
 2848 13e0 C0F20003 		movt	r3, #:upper16:DMA_InitStructure
 2849 13e4 4FF00002 		mov	r2, #0
 2850 13e8 DA62     		str	r2, [r3, #44]
1360:../STM32F4-Discovery/stm32f4_discovery_audio_codec.c ****     DMA_InitStructure.DMA_FIFOThreshold = DMA_FIFOThreshold_1QuarterFull;
 2851              		.loc 1 1360 0
 2852 13ea 40F20003 		movw	r3, #:lower16:DMA_InitStructure
 2853 13ee C0F20003 		movt	r3, #:upper16:DMA_InitStructure
 2854 13f2 4FF00002 		mov	r2, #0
 2855 13f6 1A63     		str	r2, [r3, #48]
1361:../STM32F4-Discovery/stm32f4_discovery_audio_codec.c ****     DMA_InitStructure.DMA_MemoryBurst = DMA_MemoryBurst_Single;
 2856              		.loc 1 1361 0
 2857 13f8 40F20003 		movw	r3, #:lower16:DMA_InitStructure
 2858 13fc C0F20003 		movt	r3, #:upper16:DMA_InitStructure
 2859 1400 4FF00002 		mov	r2, #0
 2860 1404 5A63     		str	r2, [r3, #52]
1362:../STM32F4-Discovery/stm32f4_discovery_audio_codec.c ****     DMA_InitStructure.DMA_PeripheralBurst = DMA_PeripheralBurst_Single;  
 2861              		.loc 1 1362 0
 2862 1406 40F20003 		movw	r3, #:lower16:DMA_InitStructure
 2863 140a C0F20003 		movt	r3, #:upper16:DMA_InitStructure
 2864 140e 4FF00002 		mov	r2, #0
 2865 1412 9A63     		str	r2, [r3, #56]
1363:../STM32F4-Discovery/stm32f4_discovery_audio_codec.c ****     DMA_Init(AUDIO_MAL_DMA_STREAM, &DMA_InitStructure);  
 2866              		.loc 1 1363 0
 2867 1414 40F20003 		movw	r3, #:lower16:AUDIO_MAL_DMA_STREAM
 2868 1418 C0F20003 		movt	r3, #:upper16:AUDIO_MAL_DMA_STREAM
 2869 141c 1B68     		ldr	r3, [r3, #0]
 2870 141e 1846     		mov	r0, r3
 2871 1420 40F20001 		movw	r1, #:lower16:DMA_InitStructure
 2872 1424 C0F20001 		movt	r1, #:upper16:DMA_InitStructure
 2873 1428 FFF7FEFF 		bl	DMA_Init
1364:../STM32F4-Discovery/stm32f4_discovery_audio_codec.c ****     
1365:../STM32F4-Discovery/stm32f4_discovery_audio_codec.c ****     /* Enable the selected DMA interrupts (selected in "stm32f4_discovery_eval_audio_codec.h" defin
1366:../STM32F4-Discovery/stm32f4_discovery_audio_codec.c **** #ifdef AUDIO_MAL_DMA_IT_TC_EN
1367:../STM32F4-Discovery/stm32f4_discovery_audio_codec.c ****     DMA_ITConfig(AUDIO_MAL_DMA_STREAM, DMA_IT_TC, ENABLE);
 2874              		.loc 1 1367 0
 2875 142c 40F20003 		movw	r3, #:lower16:AUDIO_MAL_DMA_STREAM
 2876 1430 C0F20003 		movt	r3, #:upper16:AUDIO_MAL_DMA_STREAM
 2877 1434 1B68     		ldr	r3, [r3, #0]
 2878 1436 1846     		mov	r0, r3
 2879 1438 4FF01001 		mov	r1, #16
 2880 143c 4FF00102 		mov	r2, #1
 2881 1440 FFF7FEFF 		bl	DMA_ITConfig
1368:../STM32F4-Discovery/stm32f4_discovery_audio_codec.c **** #endif /* AUDIO_MAL_DMA_IT_TC_EN */
1369:../STM32F4-Discovery/stm32f4_discovery_audio_codec.c **** #ifdef AUDIO_MAL_DMA_IT_HT_EN
1370:../STM32F4-Discovery/stm32f4_discovery_audio_codec.c ****     DMA_ITConfig(AUDIO_MAL_DMA_STREAM, DMA_IT_HT, ENABLE);
1371:../STM32F4-Discovery/stm32f4_discovery_audio_codec.c **** #endif /* AUDIO_MAL_DMA_IT_HT_EN */
1372:../STM32F4-Discovery/stm32f4_discovery_audio_codec.c **** #ifdef AUDIO_MAL_DMA_IT_TE_EN
1373:../STM32F4-Discovery/stm32f4_discovery_audio_codec.c ****     DMA_ITConfig(AUDIO_MAL_DMA_STREAM, DMA_IT_TE | DMA_IT_FE | DMA_IT_DME, ENABLE);
1374:../STM32F4-Discovery/stm32f4_discovery_audio_codec.c **** #endif /* AUDIO_MAL_DMA_IT_TE_EN */
1375:../STM32F4-Discovery/stm32f4_discovery_audio_codec.c ****     
1376:../STM32F4-Discovery/stm32f4_discovery_audio_codec.c **** #if defined(AUDIO_MAL_DMA_IT_TC_EN) || defined(AUDIO_MAL_DMA_IT_HT_EN) || defined(AUDIO_MAL_DMA_IT_
1377:../STM32F4-Discovery/stm32f4_discovery_audio_codec.c ****     /* I2S DMA IRQ Channel configuration */
1378:../STM32F4-Discovery/stm32f4_discovery_audio_codec.c ****     NVIC_InitStructure.NVIC_IRQChannel = AUDIO_MAL_DMA_IRQ;
 2882              		.loc 1 1378 0
 2883 1444 40F20003 		movw	r3, #:lower16:AUDIO_MAL_DMA_IRQ
 2884 1448 C0F20003 		movt	r3, #:upper16:AUDIO_MAL_DMA_IRQ
 2885 144c 1B68     		ldr	r3, [r3, #0]
 2886 144e DBB2     		uxtb	r3, r3
 2887 1450 3B71     		strb	r3, [r7, #4]
1379:../STM32F4-Discovery/stm32f4_discovery_audio_codec.c ****     NVIC_InitStructure.NVIC_IRQChannelPreemptionPriority = EVAL_AUDIO_IRQ_PREPRIO;
 2888              		.loc 1 1379 0
 2889 1452 4FF00003 		mov	r3, #0
 2890 1456 7B71     		strb	r3, [r7, #5]
1380:../STM32F4-Discovery/stm32f4_discovery_audio_codec.c ****     NVIC_InitStructure.NVIC_IRQChannelSubPriority = EVAL_AUDIO_IRQ_SUBRIO;
 2891              		.loc 1 1380 0
 2892 1458 4FF00003 		mov	r3, #0
 2893 145c BB71     		strb	r3, [r7, #6]
1381:../STM32F4-Discovery/stm32f4_discovery_audio_codec.c ****     NVIC_InitStructure.NVIC_IRQChannelCmd = ENABLE;
 2894              		.loc 1 1381 0
 2895 145e 4FF00103 		mov	r3, #1
 2896 1462 FB71     		strb	r3, [r7, #7]
1382:../STM32F4-Discovery/stm32f4_discovery_audio_codec.c ****     NVIC_Init(&NVIC_InitStructure);
 2897              		.loc 1 1382 0
 2898 1464 07F10403 		add	r3, r7, #4
 2899 1468 1846     		mov	r0, r3
 2900 146a FFF7FEFF 		bl	NVIC_Init
 2901              	.L93:
1383:../STM32F4-Discovery/stm32f4_discovery_audio_codec.c **** #endif     
1384:../STM32F4-Discovery/stm32f4_discovery_audio_codec.c ****   }
1385:../STM32F4-Discovery/stm32f4_discovery_audio_codec.c **** 
1386:../STM32F4-Discovery/stm32f4_discovery_audio_codec.c **** #ifdef DAC_USE_I2S_DMA
1387:../STM32F4-Discovery/stm32f4_discovery_audio_codec.c ****   else
1388:../STM32F4-Discovery/stm32f4_discovery_audio_codec.c ****   {
1389:../STM32F4-Discovery/stm32f4_discovery_audio_codec.c ****     /* Enable the DMA clock */
1390:../STM32F4-Discovery/stm32f4_discovery_audio_codec.c ****     RCC_AHB1PeriphClockCmd(AUDIO_MAL_DMA_CLOCK, ENABLE); 
1391:../STM32F4-Discovery/stm32f4_discovery_audio_codec.c ****     
1392:../STM32F4-Discovery/stm32f4_discovery_audio_codec.c ****     /* Configure the DMA Stream */
1393:../STM32F4-Discovery/stm32f4_discovery_audio_codec.c ****     DMA_Cmd(AUDIO_MAL_DMA_STREAM, DISABLE);
1394:../STM32F4-Discovery/stm32f4_discovery_audio_codec.c ****     DMA_DeInit(AUDIO_MAL_DMA_STREAM);
1395:../STM32F4-Discovery/stm32f4_discovery_audio_codec.c ****     /* Set the parameters to be configured */
1396:../STM32F4-Discovery/stm32f4_discovery_audio_codec.c ****     DMA_InitStructure.DMA_Channel = AUDIO_MAL_DMA_CHANNEL;  
1397:../STM32F4-Discovery/stm32f4_discovery_audio_codec.c ****     DMA_InitStructure.DMA_PeripheralBaseAddr = AUDIO_MAL_DMA_DREG;
1398:../STM32F4-Discovery/stm32f4_discovery_audio_codec.c ****     DMA_InitStructure.DMA_Memory0BaseAddr = (uint32_t)0;      /* This field will be configured in p
1399:../STM32F4-Discovery/stm32f4_discovery_audio_codec.c ****     DMA_InitStructure.DMA_DIR = DMA_DIR_MemoryToPeripheral;
1400:../STM32F4-Discovery/stm32f4_discovery_audio_codec.c ****     DMA_InitStructure.DMA_BufferSize = (uint32_t)0xFFFE;      /* This field will be configured in p
1401:../STM32F4-Discovery/stm32f4_discovery_audio_codec.c ****     DMA_InitStructure.DMA_PeripheralInc = DMA_PeripheralInc_Disable;
1402:../STM32F4-Discovery/stm32f4_discovery_audio_codec.c ****     DMA_InitStructure.DMA_MemoryInc = DMA_MemoryInc_Enable;
1403:../STM32F4-Discovery/stm32f4_discovery_audio_codec.c ****     DMA_InitStructure.DMA_PeripheralDataSize = AUDIO_MAL_DMA_PERIPH_DATA_SIZE;
1404:../STM32F4-Discovery/stm32f4_discovery_audio_codec.c ****     DMA_InitStructure.DMA_MemoryDataSize = AUDIO_MAL_DMA_MEM_DATA_SIZE; 
1405:../STM32F4-Discovery/stm32f4_discovery_audio_codec.c **** #ifdef AUDIO_MAL_MODE_NORMAL
1406:../STM32F4-Discovery/stm32f4_discovery_audio_codec.c ****     DMA_InitStructure.DMA_Mode = DMA_Mode_Normal;
1407:../STM32F4-Discovery/stm32f4_discovery_audio_codec.c **** #elif defined(AUDIO_MAL_MODE_CIRCULAR)
1408:../STM32F4-Discovery/stm32f4_discovery_audio_codec.c ****     DMA_InitStructure.DMA_Mode = DMA_Mode_Circular;
1409:../STM32F4-Discovery/stm32f4_discovery_audio_codec.c **** #else
1410:../STM32F4-Discovery/stm32f4_discovery_audio_codec.c **** #error "AUDIO_MAL_MODE_NORMAL or AUDIO_MAL_MODE_CIRCULAR should be selected !!"
1411:../STM32F4-Discovery/stm32f4_discovery_audio_codec.c **** #endif /* AUDIO_MAL_MODE_NORMAL */  
1412:../STM32F4-Discovery/stm32f4_discovery_audio_codec.c ****     DMA_InitStructure.DMA_Priority = DMA_Priority_High;
1413:../STM32F4-Discovery/stm32f4_discovery_audio_codec.c ****     DMA_InitStructure.DMA_FIFOMode = DMA_FIFOMode_Enable;         
1414:../STM32F4-Discovery/stm32f4_discovery_audio_codec.c ****     DMA_InitStructure.DMA_FIFOThreshold = DMA_FIFOThreshold_Full;
1415:../STM32F4-Discovery/stm32f4_discovery_audio_codec.c ****     DMA_InitStructure.DMA_MemoryBurst = DMA_MemoryBurst_Single;
1416:../STM32F4-Discovery/stm32f4_discovery_audio_codec.c ****     DMA_InitStructure.DMA_PeripheralBurst = DMA_PeripheralBurst_Single;  
1417:../STM32F4-Discovery/stm32f4_discovery_audio_codec.c ****     DMA_Init(AUDIO_MAL_DMA_STREAM, &DMA_InitStructure);  
1418:../STM32F4-Discovery/stm32f4_discovery_audio_codec.c ****     
1419:../STM32F4-Discovery/stm32f4_discovery_audio_codec.c ****     /* Enable the selected DMA interrupts (selected in "stm32f4_discovery_eval_audio_codec.h" defin
1420:../STM32F4-Discovery/stm32f4_discovery_audio_codec.c **** #ifdef AUDIO_MAL_DMA_IT_TC_EN
1421:../STM32F4-Discovery/stm32f4_discovery_audio_codec.c ****     DMA_ITConfig(AUDIO_MAL_DMA_STREAM, DMA_IT_TC, ENABLE);
1422:../STM32F4-Discovery/stm32f4_discovery_audio_codec.c **** #endif /* AUDIO_MAL_DMA_IT_TC_EN */
1423:../STM32F4-Discovery/stm32f4_discovery_audio_codec.c **** #ifdef AUDIO_MAL_DMA_IT_HT_EN
1424:../STM32F4-Discovery/stm32f4_discovery_audio_codec.c ****     DMA_ITConfig(AUDIO_MAL_DMA_STREAM, DMA_IT_HT, ENABLE);
1425:../STM32F4-Discovery/stm32f4_discovery_audio_codec.c **** #endif /* AUDIO_MAL_DMA_IT_HT_EN */
1426:../STM32F4-Discovery/stm32f4_discovery_audio_codec.c **** #ifdef AUDIO_MAL_DMA_IT_TE_EN
1427:../STM32F4-Discovery/stm32f4_discovery_audio_codec.c ****     DMA_ITConfig(AUDIO_MAL_DMA_STREAM, DMA_IT_TE | DMA_IT_FE | DMA_IT_DME, ENABLE);
1428:../STM32F4-Discovery/stm32f4_discovery_audio_codec.c **** #endif /* AUDIO_MAL_DMA_IT_TE_EN */
1429:../STM32F4-Discovery/stm32f4_discovery_audio_codec.c ****     
1430:../STM32F4-Discovery/stm32f4_discovery_audio_codec.c **** #if defined(AUDIO_MAL_DMA_IT_TC_EN) || defined(AUDIO_MAL_DMA_IT_HT_EN) || defined(AUDIO_MAL_DMA_IT_
1431:../STM32F4-Discovery/stm32f4_discovery_audio_codec.c ****     /* I2S DMA IRQ Channel configuration */
1432:../STM32F4-Discovery/stm32f4_discovery_audio_codec.c ****     NVIC_InitStructure.NVIC_IRQChannel = AUDIO_MAL_DMA_IRQ;
1433:../STM32F4-Discovery/stm32f4_discovery_audio_codec.c ****     NVIC_InitStructure.NVIC_IRQChannelPreemptionPriority = EVAL_AUDIO_IRQ_PREPRIO;
1434:../STM32F4-Discovery/stm32f4_discovery_audio_codec.c ****     NVIC_InitStructure.NVIC_IRQChannelSubPriority = EVAL_AUDIO_IRQ_SUBRIO;
1435:../STM32F4-Discovery/stm32f4_discovery_audio_codec.c ****     NVIC_InitStructure.NVIC_IRQChannelCmd = ENABLE;
1436:../STM32F4-Discovery/stm32f4_discovery_audio_codec.c ****     NVIC_Init(&NVIC_InitStructure);
1437:../STM32F4-Discovery/stm32f4_discovery_audio_codec.c **** #endif 
1438:../STM32F4-Discovery/stm32f4_discovery_audio_codec.c ****   }
1439:../STM32F4-Discovery/stm32f4_discovery_audio_codec.c **** #endif /* DAC_USE_I2S_DMA */
1440:../STM32F4-Discovery/stm32f4_discovery_audio_codec.c ****   
1441:../STM32F4-Discovery/stm32f4_discovery_audio_codec.c ****   if (CurrAudioInterface == AUDIO_INTERFACE_I2S)
 2902              		.loc 1 1441 0
 2903 146e 40F20003 		movw	r3, #:lower16:CurrAudioInterface
 2904 1472 C0F20003 		movt	r3, #:upper16:CurrAudioInterface
 2905 1476 1B68     		ldr	r3, [r3, #0]
 2906 1478 012B     		cmp	r3, #1
 2907 147a 0AD1     		bne	.L94
1442:../STM32F4-Discovery/stm32f4_discovery_audio_codec.c ****   {
1443:../STM32F4-Discovery/stm32f4_discovery_audio_codec.c ****     /* Enable the I2S DMA request */
1444:../STM32F4-Discovery/stm32f4_discovery_audio_codec.c ****     SPI_I2S_DMACmd(CODEC_I2S, SPI_I2S_DMAReq_Tx, ENABLE);  
 2908              		.loc 1 1444 0
 2909 147c 4FF47050 		mov	r0, #15360
 2910 1480 C4F20000 		movt	r0, 16384
 2911 1484 4FF00201 		mov	r1, #2
 2912 1488 4FF00102 		mov	r2, #1
 2913 148c FFF7FEFF 		bl	SPI_I2S_DMACmd
 2914 1490 1CE0     		b	.L92
 2915              	.L94:
1445:../STM32F4-Discovery/stm32f4_discovery_audio_codec.c ****   }
1446:../STM32F4-Discovery/stm32f4_discovery_audio_codec.c ****   else
1447:../STM32F4-Discovery/stm32f4_discovery_audio_codec.c ****   {
1448:../STM32F4-Discovery/stm32f4_discovery_audio_codec.c ****     /* Configure the STM32 DAC to geenrate audio analog signal */
1449:../STM32F4-Discovery/stm32f4_discovery_audio_codec.c ****     DAC_Config();
 2916              		.loc 1 1449 0
 2917 1492 FFF7FEFF 		bl	DAC_Config
1450:../STM32F4-Discovery/stm32f4_discovery_audio_codec.c ****     
1451:../STM32F4-Discovery/stm32f4_discovery_audio_codec.c **** #ifndef DAC_USE_I2S_DMA
1452:../STM32F4-Discovery/stm32f4_discovery_audio_codec.c ****     /* Enable the I2S interrupt used to write into the DAC register */
1453:../STM32F4-Discovery/stm32f4_discovery_audio_codec.c ****     SPI_I2S_ITConfig(SPI3, SPI_I2S_IT_TXE, ENABLE);
 2918              		.loc 1 1453 0
 2919 1496 4FF47050 		mov	r0, #15360
 2920 149a C4F20000 		movt	r0, 16384
 2921 149e 4FF07101 		mov	r1, #113
 2922 14a2 4FF00102 		mov	r2, #1
 2923 14a6 FFF7FEFF 		bl	SPI_I2S_ITConfig
1454:../STM32F4-Discovery/stm32f4_discovery_audio_codec.c ****     
1455:../STM32F4-Discovery/stm32f4_discovery_audio_codec.c ****     /* I2S DMA IRQ Channel configuration */
1456:../STM32F4-Discovery/stm32f4_discovery_audio_codec.c ****     NVIC_InitStructure.NVIC_IRQChannel = CODEC_I2S_IRQ;
 2924              		.loc 1 1456 0
 2925 14aa 4FF03303 		mov	r3, #51
 2926 14ae 3B71     		strb	r3, [r7, #4]
1457:../STM32F4-Discovery/stm32f4_discovery_audio_codec.c ****     NVIC_InitStructure.NVIC_IRQChannelPreemptionPriority = EVAL_AUDIO_IRQ_PREPRIO;
 2927              		.loc 1 1457 0
 2928 14b0 4FF00003 		mov	r3, #0
 2929 14b4 7B71     		strb	r3, [r7, #5]
1458:../STM32F4-Discovery/stm32f4_discovery_audio_codec.c ****     NVIC_InitStructure.NVIC_IRQChannelSubPriority = EVAL_AUDIO_IRQ_SUBRIO;
 2930              		.loc 1 1458 0
 2931 14b6 4FF00003 		mov	r3, #0
 2932 14ba BB71     		strb	r3, [r7, #6]
1459:../STM32F4-Discovery/stm32f4_discovery_audio_codec.c ****     NVIC_InitStructure.NVIC_IRQChannelCmd = ENABLE;
 2933              		.loc 1 1459 0
 2934 14bc 4FF00103 		mov	r3, #1
 2935 14c0 FB71     		strb	r3, [r7, #7]
1460:../STM32F4-Discovery/stm32f4_discovery_audio_codec.c ****     NVIC_Init(&NVIC_InitStructure); 
 2936              		.loc 1 1460 0
 2937 14c2 07F10403 		add	r3, r7, #4
 2938 14c6 1846     		mov	r0, r3
 2939 14c8 FFF7FEFF 		bl	NVIC_Init
 2940              	.L92:
1461:../STM32F4-Discovery/stm32f4_discovery_audio_codec.c **** #else
1462:../STM32F4-Discovery/stm32f4_discovery_audio_codec.c ****     /* Enable the I2S DMA request */
1463:../STM32F4-Discovery/stm32f4_discovery_audio_codec.c ****     SPI_I2S_DMACmd(CODEC_I2S, SPI_I2S_DMAReq_Rx, ENABLE);   
1464:../STM32F4-Discovery/stm32f4_discovery_audio_codec.c **** #endif /* DAC_USE_I2S_DMA */
1465:../STM32F4-Discovery/stm32f4_discovery_audio_codec.c ****   }
1466:../STM32F4-Discovery/stm32f4_discovery_audio_codec.c **** #endif
1467:../STM32F4-Discovery/stm32f4_discovery_audio_codec.c **** }
 2941              		.loc 1 1467 0
 2942 14cc 07F10807 		add	r7, r7, #8
 2943 14d0 BD46     		mov	sp, r7
 2944 14d2 80BD     		pop	{r7, pc}
 2945              		.cfi_endproc
 2946              	.LFE139:
 2948              		.align	2
 2949              		.thumb
 2950              		.thumb_func
 2952              	Audio_MAL_DeInit:
 2953              	.LFB140:
1468:../STM32F4-Discovery/stm32f4_discovery_audio_codec.c **** 
1469:../STM32F4-Discovery/stm32f4_discovery_audio_codec.c **** /**
1470:../STM32F4-Discovery/stm32f4_discovery_audio_codec.c ****   * @brief  Restore default state of the used Media.
1471:../STM32F4-Discovery/stm32f4_discovery_audio_codec.c ****   * @param  None
1472:../STM32F4-Discovery/stm32f4_discovery_audio_codec.c ****   * @retval None
1473:../STM32F4-Discovery/stm32f4_discovery_audio_codec.c ****   */
1474:../STM32F4-Discovery/stm32f4_discovery_audio_codec.c **** static void Audio_MAL_DeInit(void)  
1475:../STM32F4-Discovery/stm32f4_discovery_audio_codec.c **** {   
 2954              		.loc 1 1475 0
 2955              		.cfi_startproc
 2956              		@ args = 0, pretend = 0, frame = 8
 2957              		@ frame_needed = 1, uses_anonymous_args = 0
 2958 14d4 80B5     		push	{r7, lr}
 2959              	.LCFI81:
 2960              		.cfi_def_cfa_offset 8
 2961              		.cfi_offset 14, -4
 2962              		.cfi_offset 7, -8
 2963 14d6 82B0     		sub	sp, sp, #8
 2964              	.LCFI82:
 2965              		.cfi_def_cfa_offset 16
 2966 14d8 00AF     		add	r7, sp, #0
 2967              	.LCFI83:
 2968              		.cfi_def_cfa_register 7
1476:../STM32F4-Discovery/stm32f4_discovery_audio_codec.c **** #if defined(AUDIO_MAL_DMA_IT_TC_EN) || defined(AUDIO_MAL_DMA_IT_HT_EN) || defined(AUDIO_MAL_DMA_IT_
1477:../STM32F4-Discovery/stm32f4_discovery_audio_codec.c ****   NVIC_InitTypeDef NVIC_InitStructure;  
1478:../STM32F4-Discovery/stm32f4_discovery_audio_codec.c ****   
1479:../STM32F4-Discovery/stm32f4_discovery_audio_codec.c ****   /* Deinitialize the NVIC interrupt for the I2S DMA Stream */
1480:../STM32F4-Discovery/stm32f4_discovery_audio_codec.c ****   NVIC_InitStructure.NVIC_IRQChannel = AUDIO_MAL_DMA_IRQ;
 2969              		.loc 1 1480 0
 2970 14da 40F20003 		movw	r3, #:lower16:AUDIO_MAL_DMA_IRQ
 2971 14de C0F20003 		movt	r3, #:upper16:AUDIO_MAL_DMA_IRQ
 2972 14e2 1B68     		ldr	r3, [r3, #0]
 2973 14e4 DBB2     		uxtb	r3, r3
 2974 14e6 3B71     		strb	r3, [r7, #4]
1481:../STM32F4-Discovery/stm32f4_discovery_audio_codec.c ****   NVIC_InitStructure.NVIC_IRQChannelPreemptionPriority = EVAL_AUDIO_IRQ_PREPRIO;
 2975              		.loc 1 1481 0
 2976 14e8 4FF00003 		mov	r3, #0
 2977 14ec 7B71     		strb	r3, [r7, #5]
1482:../STM32F4-Discovery/stm32f4_discovery_audio_codec.c ****   NVIC_InitStructure.NVIC_IRQChannelSubPriority = EVAL_AUDIO_IRQ_SUBRIO;
 2978              		.loc 1 1482 0
 2979 14ee 4FF00003 		mov	r3, #0
 2980 14f2 BB71     		strb	r3, [r7, #6]
1483:../STM32F4-Discovery/stm32f4_discovery_audio_codec.c ****   NVIC_InitStructure.NVIC_IRQChannelCmd = DISABLE;
 2981              		.loc 1 1483 0
 2982 14f4 4FF00003 		mov	r3, #0
 2983 14f8 FB71     		strb	r3, [r7, #7]
1484:../STM32F4-Discovery/stm32f4_discovery_audio_codec.c ****   NVIC_Init(&NVIC_InitStructure);  
 2984              		.loc 1 1484 0
 2985 14fa 07F10403 		add	r3, r7, #4
 2986 14fe 1846     		mov	r0, r3
 2987 1500 FFF7FEFF 		bl	NVIC_Init
1485:../STM32F4-Discovery/stm32f4_discovery_audio_codec.c **** #endif 
1486:../STM32F4-Discovery/stm32f4_discovery_audio_codec.c ****   
1487:../STM32F4-Discovery/stm32f4_discovery_audio_codec.c ****   /* Disable the DMA stream before the deinit */
1488:../STM32F4-Discovery/stm32f4_discovery_audio_codec.c ****   DMA_Cmd(AUDIO_MAL_DMA_STREAM, DISABLE);
 2988              		.loc 1 1488 0
 2989 1504 40F20003 		movw	r3, #:lower16:AUDIO_MAL_DMA_STREAM
 2990 1508 C0F20003 		movt	r3, #:upper16:AUDIO_MAL_DMA_STREAM
 2991 150c 1B68     		ldr	r3, [r3, #0]
 2992 150e 1846     		mov	r0, r3
 2993 1510 4FF00001 		mov	r1, #0
 2994 1514 FFF7FEFF 		bl	DMA_Cmd
1489:../STM32F4-Discovery/stm32f4_discovery_audio_codec.c ****   
1490:../STM32F4-Discovery/stm32f4_discovery_audio_codec.c ****   /* Dinitialize the DMA Stream */
1491:../STM32F4-Discovery/stm32f4_discovery_audio_codec.c ****   DMA_DeInit(AUDIO_MAL_DMA_STREAM);
 2995              		.loc 1 1491 0
 2996 1518 40F20003 		movw	r3, #:lower16:AUDIO_MAL_DMA_STREAM
 2997 151c C0F20003 		movt	r3, #:upper16:AUDIO_MAL_DMA_STREAM
 2998 1520 1B68     		ldr	r3, [r3, #0]
 2999 1522 1846     		mov	r0, r3
 3000 1524 FFF7FEFF 		bl	DMA_DeInit
1492:../STM32F4-Discovery/stm32f4_discovery_audio_codec.c ****   
1493:../STM32F4-Discovery/stm32f4_discovery_audio_codec.c ****   /* 
1494:../STM32F4-Discovery/stm32f4_discovery_audio_codec.c ****      The DMA clock is not disabled, since it can be used by other streams 
1495:../STM32F4-Discovery/stm32f4_discovery_audio_codec.c ****                                                                           */ 
1496:../STM32F4-Discovery/stm32f4_discovery_audio_codec.c **** }
 3001              		.loc 1 1496 0
 3002 1528 07F10807 		add	r7, r7, #8
 3003 152c BD46     		mov	sp, r7
 3004 152e 80BD     		pop	{r7, pc}
 3005              		.cfi_endproc
 3006              	.LFE140:
 3008              		.align	2
 3009              		.global	Audio_MAL_Play
 3010              		.thumb
 3011              		.thumb_func
 3013              	Audio_MAL_Play:
 3014              	.LFB141:
1497:../STM32F4-Discovery/stm32f4_discovery_audio_codec.c **** 
1498:../STM32F4-Discovery/stm32f4_discovery_audio_codec.c **** /**
1499:../STM32F4-Discovery/stm32f4_discovery_audio_codec.c ****   * @brief  Starts playing audio stream from the audio Media.
1500:../STM32F4-Discovery/stm32f4_discovery_audio_codec.c ****   * @param  None
1501:../STM32F4-Discovery/stm32f4_discovery_audio_codec.c ****   * @retval None
1502:../STM32F4-Discovery/stm32f4_discovery_audio_codec.c ****   */
1503:../STM32F4-Discovery/stm32f4_discovery_audio_codec.c **** void Audio_MAL_Play(uint32_t Addr, uint32_t Size)
1504:../STM32F4-Discovery/stm32f4_discovery_audio_codec.c **** {         
 3015              		.loc 1 1504 0
 3016              		.cfi_startproc
 3017              		@ args = 0, pretend = 0, frame = 8
 3018              		@ frame_needed = 1, uses_anonymous_args = 0
 3019 1530 80B5     		push	{r7, lr}
 3020              	.LCFI84:
 3021              		.cfi_def_cfa_offset 8
 3022              		.cfi_offset 14, -4
 3023              		.cfi_offset 7, -8
 3024 1532 82B0     		sub	sp, sp, #8
 3025              	.LCFI85:
 3026              		.cfi_def_cfa_offset 16
 3027 1534 00AF     		add	r7, sp, #0
 3028              	.LCFI86:
 3029              		.cfi_def_cfa_register 7
 3030 1536 7860     		str	r0, [r7, #4]
 3031 1538 3960     		str	r1, [r7, #0]
1505:../STM32F4-Discovery/stm32f4_discovery_audio_codec.c ****   if (CurrAudioInterface == AUDIO_INTERFACE_I2S)
 3032              		.loc 1 1505 0
 3033 153a 40F20003 		movw	r3, #:lower16:CurrAudioInterface
 3034 153e C0F20003 		movt	r3, #:upper16:CurrAudioInterface
 3035 1542 1B68     		ldr	r3, [r3, #0]
 3036 1544 012B     		cmp	r3, #1
 3037 1546 24D1     		bne	.L98
1506:../STM32F4-Discovery/stm32f4_discovery_audio_codec.c ****   {
1507:../STM32F4-Discovery/stm32f4_discovery_audio_codec.c ****     /* Configure the buffer address and size */
1508:../STM32F4-Discovery/stm32f4_discovery_audio_codec.c ****     DMA_InitStructure.DMA_Memory0BaseAddr = (uint32_t)Addr;
 3038              		.loc 1 1508 0
 3039 1548 40F20003 		movw	r3, #:lower16:DMA_InitStructure
 3040 154c C0F20003 		movt	r3, #:upper16:DMA_InitStructure
 3041 1550 7A68     		ldr	r2, [r7, #4]
 3042 1552 9A60     		str	r2, [r3, #8]
1509:../STM32F4-Discovery/stm32f4_discovery_audio_codec.c ****     DMA_InitStructure.DMA_BufferSize = (uint32_t)Size/2;
 3043              		.loc 1 1509 0
 3044 1554 3B68     		ldr	r3, [r7, #0]
 3045 1556 4FEA5302 		lsr	r2, r3, #1
 3046 155a 40F20003 		movw	r3, #:lower16:DMA_InitStructure
 3047 155e C0F20003 		movt	r3, #:upper16:DMA_InitStructure
 3048 1562 1A61     		str	r2, [r3, #16]
1510:../STM32F4-Discovery/stm32f4_discovery_audio_codec.c ****     
1511:../STM32F4-Discovery/stm32f4_discovery_audio_codec.c ****     /* Configure the DMA Stream with the new parameters */
1512:../STM32F4-Discovery/stm32f4_discovery_audio_codec.c ****     DMA_Init(AUDIO_MAL_DMA_STREAM, &DMA_InitStructure);
 3049              		.loc 1 1512 0
 3050 1564 40F20003 		movw	r3, #:lower16:AUDIO_MAL_DMA_STREAM
 3051 1568 C0F20003 		movt	r3, #:upper16:AUDIO_MAL_DMA_STREAM
 3052 156c 1B68     		ldr	r3, [r3, #0]
 3053 156e 1846     		mov	r0, r3
 3054 1570 40F20001 		movw	r1, #:lower16:DMA_InitStructure
 3055 1574 C0F20001 		movt	r1, #:upper16:DMA_InitStructure
 3056 1578 FFF7FEFF 		bl	DMA_Init
1513:../STM32F4-Discovery/stm32f4_discovery_audio_codec.c ****     
1514:../STM32F4-Discovery/stm32f4_discovery_audio_codec.c ****     /* Enable the I2S DMA Stream*/
1515:../STM32F4-Discovery/stm32f4_discovery_audio_codec.c ****     DMA_Cmd(AUDIO_MAL_DMA_STREAM, ENABLE);   
 3057              		.loc 1 1515 0
 3058 157c 40F20003 		movw	r3, #:lower16:AUDIO_MAL_DMA_STREAM
 3059 1580 C0F20003 		movt	r3, #:upper16:AUDIO_MAL_DMA_STREAM
 3060 1584 1B68     		ldr	r3, [r3, #0]
 3061 1586 1846     		mov	r0, r3
 3062 1588 4FF00101 		mov	r1, #1
 3063 158c FFF7FEFF 		bl	DMA_Cmd
 3064 1590 21E0     		b	.L99
 3065              	.L98:
1516:../STM32F4-Discovery/stm32f4_discovery_audio_codec.c ****   }
1517:../STM32F4-Discovery/stm32f4_discovery_audio_codec.c **** #ifndef DAC_USE_I2S_DMA
1518:../STM32F4-Discovery/stm32f4_discovery_audio_codec.c ****   else
1519:../STM32F4-Discovery/stm32f4_discovery_audio_codec.c ****   {
1520:../STM32F4-Discovery/stm32f4_discovery_audio_codec.c ****     /* Configure the buffer address and size */
1521:../STM32F4-Discovery/stm32f4_discovery_audio_codec.c ****     DMA_InitStructure.DMA_Memory0BaseAddr = (uint32_t)Addr;
 3066              		.loc 1 1521 0
 3067 1592 40F20003 		movw	r3, #:lower16:DMA_InitStructure
 3068 1596 C0F20003 		movt	r3, #:upper16:DMA_InitStructure
 3069 159a 7A68     		ldr	r2, [r7, #4]
 3070 159c 9A60     		str	r2, [r3, #8]
1522:../STM32F4-Discovery/stm32f4_discovery_audio_codec.c ****     DMA_InitStructure.DMA_BufferSize = (uint32_t)Size;
 3071              		.loc 1 1522 0
 3072 159e 40F20003 		movw	r3, #:lower16:DMA_InitStructure
 3073 15a2 C0F20003 		movt	r3, #:upper16:DMA_InitStructure
 3074 15a6 3A68     		ldr	r2, [r7, #0]
 3075 15a8 1A61     		str	r2, [r3, #16]
1523:../STM32F4-Discovery/stm32f4_discovery_audio_codec.c ****     
1524:../STM32F4-Discovery/stm32f4_discovery_audio_codec.c ****     /* Configure the DMA Stream with the new parameters */
1525:../STM32F4-Discovery/stm32f4_discovery_audio_codec.c ****     DMA_Init(AUDIO_MAL_DMA_STREAM, &DMA_InitStructure);
 3076              		.loc 1 1525 0
 3077 15aa 40F20003 		movw	r3, #:lower16:AUDIO_MAL_DMA_STREAM
 3078 15ae C0F20003 		movt	r3, #:upper16:AUDIO_MAL_DMA_STREAM
 3079 15b2 1B68     		ldr	r3, [r3, #0]
 3080 15b4 1846     		mov	r0, r3
 3081 15b6 40F20001 		movw	r1, #:lower16:DMA_InitStructure
 3082 15ba C0F20001 		movt	r1, #:upper16:DMA_InitStructure
 3083 15be FFF7FEFF 		bl	DMA_Init
1526:../STM32F4-Discovery/stm32f4_discovery_audio_codec.c ****     
1527:../STM32F4-Discovery/stm32f4_discovery_audio_codec.c ****     /* Enable the I2S DMA Stream*/
1528:../STM32F4-Discovery/stm32f4_discovery_audio_codec.c ****     DMA_Cmd(AUDIO_MAL_DMA_STREAM, ENABLE);
 3084              		.loc 1 1528 0
 3085 15c2 40F20003 		movw	r3, #:lower16:AUDIO_MAL_DMA_STREAM
 3086 15c6 C0F20003 		movt	r3, #:upper16:AUDIO_MAL_DMA_STREAM
 3087 15ca 1B68     		ldr	r3, [r3, #0]
 3088 15cc 1846     		mov	r0, r3
 3089 15ce 4FF00101 		mov	r1, #1
 3090 15d2 FFF7FEFF 		bl	DMA_Cmd
 3091              	.L99:
1529:../STM32F4-Discovery/stm32f4_discovery_audio_codec.c ****   }
1530:../STM32F4-Discovery/stm32f4_discovery_audio_codec.c **** #endif /* DAC_USE_I2S_DMA */
1531:../STM32F4-Discovery/stm32f4_discovery_audio_codec.c ****   
1532:../STM32F4-Discovery/stm32f4_discovery_audio_codec.c ****   /* If the I2S peripheral is still not enabled, enable it */
1533:../STM32F4-Discovery/stm32f4_discovery_audio_codec.c ****   if ((CODEC_I2S->I2SCFGR & I2S_ENABLE_MASK) == 0)
 3092              		.loc 1 1533 0
 3093 15d6 4FF47053 		mov	r3, #15360
 3094 15da C4F20003 		movt	r3, 16384
 3095 15de 9B8B     		ldrh	r3, [r3, #28]	@ movhi
 3096 15e0 9BB2     		uxth	r3, r3
 3097 15e2 03F48063 		and	r3, r3, #1024
 3098 15e6 002B     		cmp	r3, #0
 3099 15e8 07D1     		bne	.L97
1534:../STM32F4-Discovery/stm32f4_discovery_audio_codec.c ****   {
1535:../STM32F4-Discovery/stm32f4_discovery_audio_codec.c ****     I2S_Cmd(CODEC_I2S, ENABLE);
 3100              		.loc 1 1535 0
 3101 15ea 4FF47050 		mov	r0, #15360
 3102 15ee C4F20000 		movt	r0, 16384
 3103 15f2 4FF00101 		mov	r1, #1
 3104 15f6 FFF7FEFF 		bl	I2S_Cmd
 3105              	.L97:
1536:../STM32F4-Discovery/stm32f4_discovery_audio_codec.c ****   }
1537:../STM32F4-Discovery/stm32f4_discovery_audio_codec.c **** }
 3106              		.loc 1 1537 0
 3107 15fa 07F10807 		add	r7, r7, #8
 3108 15fe BD46     		mov	sp, r7
 3109 1600 80BD     		pop	{r7, pc}
 3110              		.cfi_endproc
 3111              	.LFE141:
 3113 1602 00BF     		.align	2
 3114              		.thumb
 3115              		.thumb_func
 3117              	Audio_MAL_PauseResume:
 3118              	.LFB142:
1538:../STM32F4-Discovery/stm32f4_discovery_audio_codec.c **** 
1539:../STM32F4-Discovery/stm32f4_discovery_audio_codec.c **** /**
1540:../STM32F4-Discovery/stm32f4_discovery_audio_codec.c ****   * @brief  Pauses or Resumes the audio stream playing from the Media.
1541:../STM32F4-Discovery/stm32f4_discovery_audio_codec.c ****   * @param  Cmd: AUDIO_PAUSE (or 0) to pause, AUDIO_RESUME (or any value different
1542:../STM32F4-Discovery/stm32f4_discovery_audio_codec.c ****   *              from 0) to resume. 
1543:../STM32F4-Discovery/stm32f4_discovery_audio_codec.c ****   * @param  Addr: Address from/at which the audio stream should resume/pause.
1544:../STM32F4-Discovery/stm32f4_discovery_audio_codec.c ****   * @retval None
1545:../STM32F4-Discovery/stm32f4_discovery_audio_codec.c ****   */
1546:../STM32F4-Discovery/stm32f4_discovery_audio_codec.c **** static void Audio_MAL_PauseResume(uint32_t Cmd, uint32_t Addr)
1547:../STM32F4-Discovery/stm32f4_discovery_audio_codec.c **** {
 3119              		.loc 1 1547 0
 3120              		.cfi_startproc
 3121              		@ args = 0, pretend = 0, frame = 8
 3122              		@ frame_needed = 1, uses_anonymous_args = 0
 3123 1604 80B5     		push	{r7, lr}
 3124              	.LCFI87:
 3125              		.cfi_def_cfa_offset 8
 3126              		.cfi_offset 14, -4
 3127              		.cfi_offset 7, -8
 3128 1606 82B0     		sub	sp, sp, #8
 3129              	.LCFI88:
 3130              		.cfi_def_cfa_offset 16
 3131 1608 00AF     		add	r7, sp, #0
 3132              	.LCFI89:
 3133              		.cfi_def_cfa_register 7
 3134 160a 7860     		str	r0, [r7, #4]
 3135 160c 3960     		str	r1, [r7, #0]
1548:../STM32F4-Discovery/stm32f4_discovery_audio_codec.c ****   /* Pause the audio file playing */
1549:../STM32F4-Discovery/stm32f4_discovery_audio_codec.c ****   if (Cmd == AUDIO_PAUSE)
 3136              		.loc 1 1549 0
 3137 160e 7B68     		ldr	r3, [r7, #4]
 3138 1610 002B     		cmp	r3, #0
 3139 1612 14D1     		bne	.L102
1550:../STM32F4-Discovery/stm32f4_discovery_audio_codec.c ****   {   
1551:../STM32F4-Discovery/stm32f4_discovery_audio_codec.c ****     /* Disable the I2S DMA request */
1552:../STM32F4-Discovery/stm32f4_discovery_audio_codec.c ****     SPI_I2S_DMACmd(CODEC_I2S, SPI_I2S_DMAReq_Tx, DISABLE);
 3140              		.loc 1 1552 0
 3141 1614 4FF47050 		mov	r0, #15360
 3142 1618 C4F20000 		movt	r0, 16384
 3143 161c 4FF00201 		mov	r1, #2
 3144 1620 4FF00002 		mov	r2, #0
 3145 1624 FFF7FEFF 		bl	SPI_I2S_DMACmd
1553:../STM32F4-Discovery/stm32f4_discovery_audio_codec.c **** 
1554:../STM32F4-Discovery/stm32f4_discovery_audio_codec.c ****     /* Pause the I2S DMA Stream 
1555:../STM32F4-Discovery/stm32f4_discovery_audio_codec.c ****         Note. For the STM32F40x devices, the DMA implements a pause feature, 
1556:../STM32F4-Discovery/stm32f4_discovery_audio_codec.c ****               by disabling the stream, all configuration is preserved and data 
1557:../STM32F4-Discovery/stm32f4_discovery_audio_codec.c ****               transfer is paused till the next enable of the stream.
1558:../STM32F4-Discovery/stm32f4_discovery_audio_codec.c ****               This feature is not available on STM32F40x devices. */
1559:../STM32F4-Discovery/stm32f4_discovery_audio_codec.c ****     DMA_Cmd(AUDIO_MAL_DMA_STREAM, DISABLE);
 3146              		.loc 1 1559 0
 3147 1628 40F20003 		movw	r3, #:lower16:AUDIO_MAL_DMA_STREAM
 3148 162c C0F20003 		movt	r3, #:upper16:AUDIO_MAL_DMA_STREAM
 3149 1630 1B68     		ldr	r3, [r3, #0]
 3150 1632 1846     		mov	r0, r3
 3151 1634 4FF00001 		mov	r1, #0
 3152 1638 FFF7FEFF 		bl	DMA_Cmd
 3153 163c 25E0     		b	.L101
 3154              	.L102:
1560:../STM32F4-Discovery/stm32f4_discovery_audio_codec.c ****   }
1561:../STM32F4-Discovery/stm32f4_discovery_audio_codec.c ****   else /* AUDIO_RESUME */
1562:../STM32F4-Discovery/stm32f4_discovery_audio_codec.c ****   {
1563:../STM32F4-Discovery/stm32f4_discovery_audio_codec.c ****     /* Enable the I2S DMA request */
1564:../STM32F4-Discovery/stm32f4_discovery_audio_codec.c ****     SPI_I2S_DMACmd(CODEC_I2S, SPI_I2S_DMAReq_Tx, ENABLE);
 3155              		.loc 1 1564 0
 3156 163e 4FF47050 		mov	r0, #15360
 3157 1642 C4F20000 		movt	r0, 16384
 3158 1646 4FF00201 		mov	r1, #2
 3159 164a 4FF00102 		mov	r2, #1
 3160 164e FFF7FEFF 		bl	SPI_I2S_DMACmd
1565:../STM32F4-Discovery/stm32f4_discovery_audio_codec.c ****   
1566:../STM32F4-Discovery/stm32f4_discovery_audio_codec.c ****     /* Resume the I2S DMA Stream 
1567:../STM32F4-Discovery/stm32f4_discovery_audio_codec.c ****         Note. For the STM32F40x devices, the DMA implements a pause feature, 
1568:../STM32F4-Discovery/stm32f4_discovery_audio_codec.c ****               by disabling the stream, all configuration is preserved and data 
1569:../STM32F4-Discovery/stm32f4_discovery_audio_codec.c ****               transfer is paused till the next enable of the stream.
1570:../STM32F4-Discovery/stm32f4_discovery_audio_codec.c ****               This feature is not available on STM32F40x devices. */
1571:../STM32F4-Discovery/stm32f4_discovery_audio_codec.c ****     DMA_Cmd(AUDIO_MAL_DMA_STREAM, ENABLE);
 3161              		.loc 1 1571 0
 3162 1652 40F20003 		movw	r3, #:lower16:AUDIO_MAL_DMA_STREAM
 3163 1656 C0F20003 		movt	r3, #:upper16:AUDIO_MAL_DMA_STREAM
 3164 165a 1B68     		ldr	r3, [r3, #0]
 3165 165c 1846     		mov	r0, r3
 3166 165e 4FF00101 		mov	r1, #1
 3167 1662 FFF7FEFF 		bl	DMA_Cmd
1572:../STM32F4-Discovery/stm32f4_discovery_audio_codec.c ****     
1573:../STM32F4-Discovery/stm32f4_discovery_audio_codec.c ****     /* If the I2S peripheral is still not enabled, enable it */
1574:../STM32F4-Discovery/stm32f4_discovery_audio_codec.c ****     if ((CODEC_I2S->I2SCFGR & I2S_ENABLE_MASK) == 0)
 3168              		.loc 1 1574 0
 3169 1666 4FF47053 		mov	r3, #15360
 3170 166a C4F20003 		movt	r3, 16384
 3171 166e 9B8B     		ldrh	r3, [r3, #28]	@ movhi
 3172 1670 9BB2     		uxth	r3, r3
 3173 1672 03F48063 		and	r3, r3, #1024
 3174 1676 002B     		cmp	r3, #0
 3175 1678 07D1     		bne	.L101
1575:../STM32F4-Discovery/stm32f4_discovery_audio_codec.c ****     {
1576:../STM32F4-Discovery/stm32f4_discovery_audio_codec.c ****       I2S_Cmd(CODEC_I2S, ENABLE);
 3176              		.loc 1 1576 0
 3177 167a 4FF47050 		mov	r0, #15360
 3178 167e C4F20000 		movt	r0, 16384
 3179 1682 4FF00101 		mov	r1, #1
 3180 1686 FFF7FEFF 		bl	I2S_Cmd
 3181              	.L101:
1577:../STM32F4-Discovery/stm32f4_discovery_audio_codec.c ****     }    
1578:../STM32F4-Discovery/stm32f4_discovery_audio_codec.c ****   } 
1579:../STM32F4-Discovery/stm32f4_discovery_audio_codec.c **** }
 3182              		.loc 1 1579 0
 3183 168a 07F10807 		add	r7, r7, #8
 3184 168e BD46     		mov	sp, r7
 3185 1690 80BD     		pop	{r7, pc}
 3186              		.cfi_endproc
 3187              	.LFE142:
 3189 1692 00BF     		.align	2
 3190              		.thumb
 3191              		.thumb_func
 3193              	Audio_MAL_Stop:
 3194              	.LFB143:
1580:../STM32F4-Discovery/stm32f4_discovery_audio_codec.c **** 
1581:../STM32F4-Discovery/stm32f4_discovery_audio_codec.c **** /**
1582:../STM32F4-Discovery/stm32f4_discovery_audio_codec.c ****   * @brief  Stops audio stream playing on the used Media.
1583:../STM32F4-Discovery/stm32f4_discovery_audio_codec.c ****   * @param  None
1584:../STM32F4-Discovery/stm32f4_discovery_audio_codec.c ****   * @retval None
1585:../STM32F4-Discovery/stm32f4_discovery_audio_codec.c ****   */
1586:../STM32F4-Discovery/stm32f4_discovery_audio_codec.c **** static void Audio_MAL_Stop(void)
1587:../STM32F4-Discovery/stm32f4_discovery_audio_codec.c **** {   
 3195              		.loc 1 1587 0
 3196              		.cfi_startproc
 3197              		@ args = 0, pretend = 0, frame = 0
 3198              		@ frame_needed = 1, uses_anonymous_args = 0
 3199 1694 80B5     		push	{r7, lr}
 3200              	.LCFI90:
 3201              		.cfi_def_cfa_offset 8
 3202              		.cfi_offset 14, -4
 3203              		.cfi_offset 7, -8
 3204 1696 00AF     		add	r7, sp, #0
 3205              	.LCFI91:
 3206              		.cfi_def_cfa_register 7
1588:../STM32F4-Discovery/stm32f4_discovery_audio_codec.c ****   /* Stop the Transfer on the I2S side: Stop and disable the DMA stream */
1589:../STM32F4-Discovery/stm32f4_discovery_audio_codec.c ****   DMA_Cmd(AUDIO_MAL_DMA_STREAM, DISABLE);
 3207              		.loc 1 1589 0
 3208 1698 40F20003 		movw	r3, #:lower16:AUDIO_MAL_DMA_STREAM
 3209 169c C0F20003 		movt	r3, #:upper16:AUDIO_MAL_DMA_STREAM
 3210 16a0 1B68     		ldr	r3, [r3, #0]
 3211 16a2 1846     		mov	r0, r3
 3212 16a4 4FF00001 		mov	r1, #0
 3213 16a8 FFF7FEFF 		bl	DMA_Cmd
1590:../STM32F4-Discovery/stm32f4_discovery_audio_codec.c **** 
1591:../STM32F4-Discovery/stm32f4_discovery_audio_codec.c ****   /* Clear all the DMA flags for the next transfer */
1592:../STM32F4-Discovery/stm32f4_discovery_audio_codec.c ****   DMA_ClearFlag(AUDIO_MAL_DMA_STREAM, AUDIO_MAL_DMA_FLAG_TC |AUDIO_MAL_DMA_FLAG_HT | \
 3214              		.loc 1 1592 0
 3215 16ac 40F20003 		movw	r3, #:lower16:AUDIO_MAL_DMA_STREAM
 3216 16b0 C0F20003 		movt	r3, #:upper16:AUDIO_MAL_DMA_STREAM
 3217 16b4 1A68     		ldr	r2, [r3, #0]
 3218 16b6 40F20003 		movw	r3, #:lower16:AUDIO_MAL_DMA_FLAG_TC
 3219 16ba C0F20003 		movt	r3, #:upper16:AUDIO_MAL_DMA_FLAG_TC
 3220 16be 1968     		ldr	r1, [r3, #0]
 3221 16c0 40F20003 		movw	r3, #:lower16:AUDIO_MAL_DMA_FLAG_HT
 3222 16c4 C0F20003 		movt	r3, #:upper16:AUDIO_MAL_DMA_FLAG_HT
 3223 16c8 1B68     		ldr	r3, [r3, #0]
 3224 16ca 1943     		orrs	r1, r1, r3
 3225 16cc 40F20003 		movw	r3, #:lower16:AUDIO_MAL_DMA_FLAG_FE
 3226 16d0 C0F20003 		movt	r3, #:upper16:AUDIO_MAL_DMA_FLAG_FE
 3227 16d4 1B68     		ldr	r3, [r3, #0]
 3228 16d6 1943     		orrs	r1, r1, r3
 3229 16d8 40F20003 		movw	r3, #:lower16:AUDIO_MAL_DMA_FLAG_TE
 3230 16dc C0F20003 		movt	r3, #:upper16:AUDIO_MAL_DMA_FLAG_TE
 3231 16e0 1B68     		ldr	r3, [r3, #0]
 3232 16e2 0B43     		orrs	r3, r3, r1
 3233 16e4 1046     		mov	r0, r2
 3234 16e6 1946     		mov	r1, r3
 3235 16e8 FFF7FEFF 		bl	DMA_ClearFlag
1593:../STM32F4-Discovery/stm32f4_discovery_audio_codec.c ****                                   AUDIO_MAL_DMA_FLAG_FE | AUDIO_MAL_DMA_FLAG_TE);
1594:../STM32F4-Discovery/stm32f4_discovery_audio_codec.c ****   
1595:../STM32F4-Discovery/stm32f4_discovery_audio_codec.c ****   /*  
1596:../STM32F4-Discovery/stm32f4_discovery_audio_codec.c ****            The I2S DMA requests are not disabled here.
1597:../STM32F4-Discovery/stm32f4_discovery_audio_codec.c ****                                                             */
1598:../STM32F4-Discovery/stm32f4_discovery_audio_codec.c ****   
1599:../STM32F4-Discovery/stm32f4_discovery_audio_codec.c ****   /* In all modes, disable the I2S peripheral */
1600:../STM32F4-Discovery/stm32f4_discovery_audio_codec.c ****   I2S_Cmd(CODEC_I2S, DISABLE);
 3236              		.loc 1 1600 0
 3237 16ec 4FF47050 		mov	r0, #15360
 3238 16f0 C4F20000 		movt	r0, 16384
 3239 16f4 4FF00001 		mov	r1, #0
 3240 16f8 FFF7FEFF 		bl	I2S_Cmd
1601:../STM32F4-Discovery/stm32f4_discovery_audio_codec.c **** }
 3241              		.loc 1 1601 0
 3242 16fc 80BD     		pop	{r7, pc}
 3243              		.cfi_endproc
 3244              	.LFE143:
 3246 16fe 00BF     		.align	2
 3247              		.global	DAC_Config
 3248              		.thumb
 3249              		.thumb_func
 3251              	DAC_Config:
 3252              	.LFB144:
1602:../STM32F4-Discovery/stm32f4_discovery_audio_codec.c **** 
1603:../STM32F4-Discovery/stm32f4_discovery_audio_codec.c **** /**
1604:../STM32F4-Discovery/stm32f4_discovery_audio_codec.c ****   * @brief  DAC  Channel1 Configuration
1605:../STM32F4-Discovery/stm32f4_discovery_audio_codec.c ****   * @param  None
1606:../STM32F4-Discovery/stm32f4_discovery_audio_codec.c ****   * @retval None
1607:../STM32F4-Discovery/stm32f4_discovery_audio_codec.c ****   */
1608:../STM32F4-Discovery/stm32f4_discovery_audio_codec.c **** void DAC_Config(void)
1609:../STM32F4-Discovery/stm32f4_discovery_audio_codec.c **** {
 3253              		.loc 1 1609 0
 3254              		.cfi_startproc
 3255              		@ args = 0, pretend = 0, frame = 24
 3256              		@ frame_needed = 1, uses_anonymous_args = 0
 3257 1700 80B5     		push	{r7, lr}
 3258              	.LCFI92:
 3259              		.cfi_def_cfa_offset 8
 3260              		.cfi_offset 14, -4
 3261              		.cfi_offset 7, -8
 3262 1702 86B0     		sub	sp, sp, #24
 3263              	.LCFI93:
 3264              		.cfi_def_cfa_offset 32
 3265 1704 00AF     		add	r7, sp, #0
 3266              	.LCFI94:
 3267              		.cfi_def_cfa_register 7
1610:../STM32F4-Discovery/stm32f4_discovery_audio_codec.c ****   DAC_InitTypeDef  DAC_InitStructure;
1611:../STM32F4-Discovery/stm32f4_discovery_audio_codec.c ****   GPIO_InitTypeDef GPIO_InitStructure;
1612:../STM32F4-Discovery/stm32f4_discovery_audio_codec.c **** 
1613:../STM32F4-Discovery/stm32f4_discovery_audio_codec.c ****   /* DMA1 clock and GPIOA clock enable (to be used with DAC) */
1614:../STM32F4-Discovery/stm32f4_discovery_audio_codec.c ****   RCC_AHB1PeriphClockCmd(RCC_AHB1Periph_DMA1 | RCC_AHB1Periph_GPIOA, ENABLE);
 3268              		.loc 1 1614 0
 3269 1706 4FF00100 		mov	r0, #1
 3270 170a C0F22000 		movt	r0, 32
 3271 170e 4FF00101 		mov	r1, #1
 3272 1712 FFF7FEFF 		bl	RCC_AHB1PeriphClockCmd
1615:../STM32F4-Discovery/stm32f4_discovery_audio_codec.c **** 
1616:../STM32F4-Discovery/stm32f4_discovery_audio_codec.c ****   /* DAC Periph clock enable */
1617:../STM32F4-Discovery/stm32f4_discovery_audio_codec.c ****   RCC_APB1PeriphClockCmd(RCC_APB1Periph_DAC, ENABLE);
 3273              		.loc 1 1617 0
 3274 1716 4FF00050 		mov	r0, #536870912
 3275 171a 4FF00101 		mov	r1, #1
 3276 171e FFF7FEFF 		bl	RCC_APB1PeriphClockCmd
1618:../STM32F4-Discovery/stm32f4_discovery_audio_codec.c **** 
1619:../STM32F4-Discovery/stm32f4_discovery_audio_codec.c ****   /* DAC channel 1 & 2 (DAC_OUT1 = PA.4) configuration */
1620:../STM32F4-Discovery/stm32f4_discovery_audio_codec.c ****   GPIO_InitStructure.GPIO_Pin = GPIO_Pin_4;
 3277              		.loc 1 1620 0
 3278 1722 4FF01003 		mov	r3, #16
 3279 1726 3B60     		str	r3, [r7, #0]
1621:../STM32F4-Discovery/stm32f4_discovery_audio_codec.c ****   GPIO_InitStructure.GPIO_Mode = GPIO_Mode_AN;
 3280              		.loc 1 1621 0
 3281 1728 4FF00303 		mov	r3, #3
 3282 172c 3B71     		strb	r3, [r7, #4]
1622:../STM32F4-Discovery/stm32f4_discovery_audio_codec.c ****   GPIO_InitStructure.GPIO_PuPd = GPIO_PuPd_NOPULL;
 3283              		.loc 1 1622 0
 3284 172e 4FF00003 		mov	r3, #0
 3285 1732 FB71     		strb	r3, [r7, #7]
1623:../STM32F4-Discovery/stm32f4_discovery_audio_codec.c ****   GPIO_Init(GPIOA, &GPIO_InitStructure);
 3286              		.loc 1 1623 0
 3287 1734 3B46     		mov	r3, r7
 3288 1736 4FF00000 		mov	r0, #0
 3289 173a C4F20200 		movt	r0, 16386
 3290 173e 1946     		mov	r1, r3
 3291 1740 FFF7FEFF 		bl	GPIO_Init
1624:../STM32F4-Discovery/stm32f4_discovery_audio_codec.c **** 
1625:../STM32F4-Discovery/stm32f4_discovery_audio_codec.c ****   /* DAC channel1 Configuration */
1626:../STM32F4-Discovery/stm32f4_discovery_audio_codec.c ****   DAC_InitStructure.DAC_Trigger = DAC_Trigger_None;
 3292              		.loc 1 1626 0
 3293 1744 4FF00003 		mov	r3, #0
 3294 1748 BB60     		str	r3, [r7, #8]
1627:../STM32F4-Discovery/stm32f4_discovery_audio_codec.c ****   DAC_InitStructure.DAC_WaveGeneration = DAC_WaveGeneration_None;
 3295              		.loc 1 1627 0
 3296 174a 4FF00003 		mov	r3, #0
 3297 174e FB60     		str	r3, [r7, #12]
1628:../STM32F4-Discovery/stm32f4_discovery_audio_codec.c ****   DAC_InitStructure.DAC_OutputBuffer = DAC_OutputBuffer_Enable;
 3298              		.loc 1 1628 0
 3299 1750 4FF00003 		mov	r3, #0
 3300 1754 7B61     		str	r3, [r7, #20]
1629:../STM32F4-Discovery/stm32f4_discovery_audio_codec.c ****   DAC_Init(AUDIO_DAC_CHANNEL, &DAC_InitStructure);
 3301              		.loc 1 1629 0
 3302 1756 07F10803 		add	r3, r7, #8
 3303 175a 4FF00000 		mov	r0, #0
 3304 175e 1946     		mov	r1, r3
 3305 1760 FFF7FEFF 		bl	DAC_Init
1630:../STM32F4-Discovery/stm32f4_discovery_audio_codec.c **** 
1631:../STM32F4-Discovery/stm32f4_discovery_audio_codec.c ****   /* Enable DAC Channel1 */
1632:../STM32F4-Discovery/stm32f4_discovery_audio_codec.c ****   DAC_Cmd(AUDIO_DAC_CHANNEL, ENABLE);
 3306              		.loc 1 1632 0
 3307 1764 4FF00000 		mov	r0, #0
 3308 1768 4FF00101 		mov	r1, #1
 3309 176c FFF7FEFF 		bl	DAC_Cmd
1633:../STM32F4-Discovery/stm32f4_discovery_audio_codec.c **** }
 3310              		.loc 1 1633 0
 3311 1770 07F11807 		add	r7, r7, #24
 3312 1774 BD46     		mov	sp, r7
 3313 1776 80BD     		pop	{r7, pc}
 3314              		.cfi_endproc
 3315              	.LFE144:
 3317              	.Letext0:
 3318              		.file 2 "d:/elektronik/ides/eclipse/yagarto/lib/gcc/../../arm-none-eabi/sys-include/stdint.h"
 3319              		.file 3 "D:\\Elektronik\\WorspaceEclipse\\ThunderCryer\\CMSIS\\Device\\STM32F4xx\\Include/stm32f4x
 3320              		.file 4 "D:\\Elektronik\\WorspaceEclipse\\ThunderCryer\\STM32F4xx_StdPeriph_Driver\\inc/stm32f4xx_
 3321              		.file 5 "D:\\Elektronik\\WorspaceEclipse\\ThunderCryer\\STM32F4xx_StdPeriph_Driver\\inc/stm32f4xx_
 3322              		.file 6 "D:\\Elektronik\\WorspaceEclipse\\ThunderCryer\\STM32F4xx_StdPeriph_Driver\\inc/stm32f4xx_
 3323              		.file 7 "D:\\Elektronik\\WorspaceEclipse\\ThunderCryer\\STM32F4xx_StdPeriph_Driver\\inc/stm32f4xx_
 3324              		.file 8 "D:\\Elektronik\\WorspaceEclipse\\ThunderCryer\\STM32F4xx_StdPeriph_Driver\\inc/stm32f4xx_
 3325              		.file 9 "D:\\Elektronik\\WorspaceEclipse\\ThunderCryer\\STM32F4xx_StdPeriph_Driver\\inc/misc.h"
 3326              		.file 10 "D:\\Elektronik\\WorspaceEclipse\\ThunderCryer\\CMSIS\\Include/core_cm4.h"
DEFINED SYMBOLS
                            *ABS*:00000000 stm32f4_discovery_audio_codec.c
                            *COM*:0000003c DMA_InitStructure
                            *COM*:0000003c AUDIO_MAL_DMA_InitStructure
  C:\Temp\ccCflBDw.s:25     .data:00000000 AudioTotalSize
  C:\Temp\ccCflBDw.s:22     .data:00000000 $d
  C:\Temp\ccCflBDw.s:31     .data:00000004 AudioRemSize
                            *COM*:00000004 CurrentPos
  C:\Temp\ccCflBDw.s:38     .data:00000008 CODECTimeout
  C:\Temp\ccCflBDw.s:44     .bss:00000000 OutputDev
  C:\Temp\ccCflBDw.s:45     .bss:00000000 $d
  C:\Temp\ccCflBDw.s:51     .data:0000000c CurrAudioInterface
  C:\Temp\ccCflBDw.s:57     .data:00000010 AUDIO_MAL_DMA_CLOCK
  C:\Temp\ccCflBDw.s:63     .data:00000014 AUDIO_MAL_DMA_STREAM
  C:\Temp\ccCflBDw.s:69     .data:00000018 AUDIO_MAL_DMA_DREG
  C:\Temp\ccCflBDw.s:76     .bss:00000004 AUDIO_MAL_DMA_CHANNEL
  C:\Temp\ccCflBDw.s:83     .data:0000001c AUDIO_MAL_DMA_IRQ
  C:\Temp\ccCflBDw.s:89     .data:00000020 AUDIO_MAL_DMA_FLAG_TC
  C:\Temp\ccCflBDw.s:95     .data:00000024 AUDIO_MAL_DMA_FLAG_HT
  C:\Temp\ccCflBDw.s:101    .data:00000028 AUDIO_MAL_DMA_FLAG_FE
  C:\Temp\ccCflBDw.s:107    .data:0000002c AUDIO_MAL_DMA_FLAG_TE
  C:\Temp\ccCflBDw.s:113    .data:00000030 AUDIO_MAL_DMA_FLAG_DME
  C:\Temp\ccCflBDw.s:116    .text:00000000 $t
  C:\Temp\ccCflBDw.s:121    .text:00000000 EVAL_AUDIO_SetAudioInterface
  C:\Temp\ccCflBDw.s:280    .text:00000170 EVAL_AUDIO_Init
  C:\Temp\ccCflBDw.s:933    .text:00000548 Codec_Init
  C:\Temp\ccCflBDw.s:2744   .text:000012e8 Audio_MAL_Init
  C:\Temp\ccCflBDw.s:354    .text:000001d8 EVAL_AUDIO_DeInit
  C:\Temp\ccCflBDw.s:2952   .text:000014d4 Audio_MAL_DeInit
  C:\Temp\ccCflBDw.s:1132   .text:000006f0 Codec_DeInit
  C:\Temp\ccCflBDw.s:385    .text:000001ec EVAL_AUDIO_Play
  C:\Temp\ccCflBDw.s:1182   .text:0000072c Codec_Play
  C:\Temp\ccCflBDw.s:3013   .text:00001530 Audio_MAL_Play
  C:\Temp\ccCflBDw.s:473    .text:00000284 EVAL_AUDIO_PauseResume
  C:\Temp\ccCflBDw.s:1210   .text:0000073c Codec_PauseResume
  C:\Temp\ccCflBDw.s:3117   .text:00001604 Audio_MAL_PauseResume
  C:\Temp\ccCflBDw.s:521    .text:000002b8 EVAL_AUDIO_Stop
  C:\Temp\ccCflBDw.s:1294   .text:000007c4 Codec_Stop
  C:\Temp\ccCflBDw.s:3193   .text:00001694 Audio_MAL_Stop
  C:\Temp\ccCflBDw.s:574    .text:000002f8 EVAL_AUDIO_VolumeCtl
  C:\Temp\ccCflBDw.s:1364   .text:00000834 Codec_VolumeCtrl
  C:\Temp\ccCflBDw.s:631    .text:00000344 EVAL_AUDIO_Mute
  C:\Temp\ccCflBDw.s:1451   .text:000008c0 Codec_Mute
  C:\Temp\ccCflBDw.s:665    .text:00000360 Audio_MAL_IRQHandler
  C:\Temp\ccCflBDw.s:829    .text:000004e0 DMA1_Stream7_IRQHandler
  C:\Temp\ccCflBDw.s:855    .text:000004ec DMA1_Stream0_IRQHandler
  C:\Temp\ccCflBDw.s:881    .text:000004f8 SPI3_IRQHandler
  C:\Temp\ccCflBDw.s:2418   .text:00001060 Codec_GPIO_Init
  C:\Temp\ccCflBDw.s:1513   .text:00000914 Codec_Reset
  C:\Temp\ccCflBDw.s:2201   .text:00000f10 Codec_CtrlInterface_Init
  C:\Temp\ccCflBDw.s:1551   .text:0000094c Codec_WriteRegister
  C:\Temp\ccCflBDw.s:2292   .text:00000f8c Codec_AudioInterface_Init
  C:\Temp\ccCflBDw.s:2611   .text:0000120c Codec_GPIO_DeInit
  C:\Temp\ccCflBDw.s:2267   .text:00000f80 Codec_CtrlInterface_DeInit
  C:\Temp\ccCflBDw.s:2382   .text:00001030 Codec_AudioInterface_DeInit
  C:\Temp\ccCflBDw.s:2702   .text:000012c4 Delay
  C:\Temp\ccCflBDw.s:1811   .text:00000b88 Codec_ReadRegister
  C:\Temp\ccCflBDw.s:3251   .text:00001700 DAC_Config
                     .debug_frame:00000010 $d

UNDEFINED SYMBOLS
DMA_GetFlagStatus
DMA_GetCmdStatus
DMA_ClearFlag
DMA_Init
DMA_Cmd
EVAL_AUDIO_TransferComplete_CallBack
SPI_I2S_GetFlagStatus
EVAL_AUDIO_GetSampleCallBack
DAC_SetChannel1Data
SPI_I2S_SendData
GPIO_WriteBit
Codec_TIMEOUT_UserCallback
I2C_GetFlagStatus
I2C_GenerateSTART
I2C_CheckEvent
I2C_Send7bitAddress
I2C_SendData
I2C_GenerateSTOP
I2C_AcknowledgeConfig
I2C_ReceiveData
I2C_ClearFlag
RCC_APB1PeriphClockCmd
I2C_DeInit
I2C_Cmd
I2C_Init
SPI_I2S_DeInit
I2S_Init
DAC_Init
DAC_Cmd
I2S_Cmd
RCC_AHB1PeriphClockCmd
GPIO_Init
GPIO_PinAFConfig
DMA_DeInit
DMA_ITConfig
NVIC_Init
SPI_I2S_DMACmd
SPI_I2S_ITConfig
