   1              		.syntax unified
   2              		.cpu cortex-m4
   3              		.eabi_attribute 27, 3
   4              		.fpu fpv4-sp-d16
   5              		.eabi_attribute 20, 1
   6              		.eabi_attribute 21, 1
   7              		.eabi_attribute 23, 3
   8              		.eabi_attribute 24, 1
   9              		.eabi_attribute 25, 1
  10              		.eabi_attribute 26, 1
  11              		.eabi_attribute 30, 6
  12              		.eabi_attribute 18, 4
  13              		.thumb
  14              		.file	"stm32f4_discovery.c"
  15              		.text
  16              	.Ltext0:
  17              		.cfi_sections	.debug_frame
  18              		.global	GPIO_PORT
  19              		.data
  20              		.align	2
  23              	GPIO_PORT:
  24 0000 000C0240 		.word	1073875968
  25 0004 000C0240 		.word	1073875968
  26 0008 000C0240 		.word	1073875968
  27 000c 000C0240 		.word	1073875968
  28              		.global	GPIO_PIN
  29              		.section	.rodata
  30              		.align	2
  33              	GPIO_PIN:
  34 0000 0010     		.short	4096
  35 0002 0020     		.short	8192
  36 0004 0040     		.short	16384
  37 0006 0080     		.short	-32768
  38              		.global	GPIO_CLK
  39              		.align	2
  42              	GPIO_CLK:
  43 0008 08000000 		.word	8
  44 000c 08000000 		.word	8
  45 0010 08000000 		.word	8
  46 0014 08000000 		.word	8
  47              		.global	BUTTON_PORT
  48              		.data
  49              		.align	2
  52              	BUTTON_PORT:
  53 0010 00000240 		.word	1073872896
  54              		.global	BUTTON_PIN
  55              		.section	.rodata
  56              		.align	2
  59              	BUTTON_PIN:
  60 0018 0100     		.short	1
  61              		.global	BUTTON_CLK
  62 001a 0000     		.align	2
  65              	BUTTON_CLK:
  66 001c 01000000 		.word	1
  67              		.global	BUTTON_EXTI_LINE
  68              		.align	2
  71              	BUTTON_EXTI_LINE:
  72 0020 0100     		.short	1
  73              		.global	BUTTON_PORT_SOURCE
  74 0022 0000     		.align	2
  77              	BUTTON_PORT_SOURCE:
  78 0024 00       		.space	1
  79              		.global	BUTTON_PIN_SOURCE
  80 0025 000000   		.align	2
  83              	BUTTON_PIN_SOURCE:
  84 0028 00       		.space	1
  85              		.global	BUTTON_IRQn
  86 0029 000000   		.align	2
  89              	BUTTON_IRQn:
  90 002c 06       		.byte	6
  91              		.comm	NVIC_InitStructure,4,4
  92 002d 000000   		.text
  93              		.align	2
  94              		.global	STM_EVAL_LEDInit
  95              		.thumb
  96              		.thumb_func
  98              	STM_EVAL_LEDInit:
  99              	.LFB110:
 100              		.file 1 "../STM32F4-Discovery/stm32f4_discovery.c"
   1:../STM32F4-Discovery/stm32f4_discovery.c **** /**
   2:../STM32F4-Discovery/stm32f4_discovery.c ****   ******************************************************************************
   3:../STM32F4-Discovery/stm32f4_discovery.c ****   * @file    stm32f4_discovery.c
   4:../STM32F4-Discovery/stm32f4_discovery.c ****   * @author  MCD Application Team
   5:../STM32F4-Discovery/stm32f4_discovery.c ****   * @version V1.1.0
   6:../STM32F4-Discovery/stm32f4_discovery.c ****   * @date    28-October-2011
   7:../STM32F4-Discovery/stm32f4_discovery.c ****   * @brief   This file provides set of firmware functions to manage Leds and
   8:../STM32F4-Discovery/stm32f4_discovery.c ****   *          push-button available on STM32F4-Discovery Kit from STMicroelectronics.
   9:../STM32F4-Discovery/stm32f4_discovery.c ****   ******************************************************************************
  10:../STM32F4-Discovery/stm32f4_discovery.c ****   * @attention
  11:../STM32F4-Discovery/stm32f4_discovery.c ****   *
  12:../STM32F4-Discovery/stm32f4_discovery.c ****   * THE PRESENT FIRMWARE WHICH IS FOR GUIDANCE ONLY AIMS AT PROVIDING CUSTOMERS
  13:../STM32F4-Discovery/stm32f4_discovery.c ****   * WITH CODING INFORMATION REGARDING THEIR PRODUCTS IN ORDER FOR THEM TO SAVE
  14:../STM32F4-Discovery/stm32f4_discovery.c ****   * TIME. AS A RESULT, STMICROELECTRONICS SHALL NOT BE HELD LIABLE FOR ANY
  15:../STM32F4-Discovery/stm32f4_discovery.c ****   * DIRECT, INDIRECT OR CONSEQUENTIAL DAMAGES WITH RESPECT TO ANY CLAIMS ARISING
  16:../STM32F4-Discovery/stm32f4_discovery.c ****   * FROM THE CONTENT OF SUCH FIRMWARE AND/OR THE USE MADE BY CUSTOMERS OF THE
  17:../STM32F4-Discovery/stm32f4_discovery.c ****   * CODING INFORMATION CONTAINED HEREIN IN CONNECTION WITH THEIR PRODUCTS.
  18:../STM32F4-Discovery/stm32f4_discovery.c ****   *
  19:../STM32F4-Discovery/stm32f4_discovery.c ****   * <h2><center>&copy; COPYRIGHT 2011 STMicroelectronics</center></h2>
  20:../STM32F4-Discovery/stm32f4_discovery.c ****   ******************************************************************************
  21:../STM32F4-Discovery/stm32f4_discovery.c ****   */ 
  22:../STM32F4-Discovery/stm32f4_discovery.c ****   
  23:../STM32F4-Discovery/stm32f4_discovery.c **** /* Includes ------------------------------------------------------------------*/
  24:../STM32F4-Discovery/stm32f4_discovery.c **** #include "stm32f4_discovery.h"
  25:../STM32F4-Discovery/stm32f4_discovery.c **** 
  26:../STM32F4-Discovery/stm32f4_discovery.c **** /** @addtogroup Utilities
  27:../STM32F4-Discovery/stm32f4_discovery.c ****   * @{
  28:../STM32F4-Discovery/stm32f4_discovery.c ****   */ 
  29:../STM32F4-Discovery/stm32f4_discovery.c **** 
  30:../STM32F4-Discovery/stm32f4_discovery.c **** /** @addtogroup STM32F4_DISCOVERY
  31:../STM32F4-Discovery/stm32f4_discovery.c ****   * @{
  32:../STM32F4-Discovery/stm32f4_discovery.c ****   */   
  33:../STM32F4-Discovery/stm32f4_discovery.c ****     
  34:../STM32F4-Discovery/stm32f4_discovery.c **** /** @defgroup STM32F4_DISCOVERY_LOW_LEVEL 
  35:../STM32F4-Discovery/stm32f4_discovery.c ****   * @brief This file provides set of firmware functions to manage Leds and push-button
  36:../STM32F4-Discovery/stm32f4_discovery.c ****   *        available on STM32F4-Discovery Kit from STMicroelectronics.
  37:../STM32F4-Discovery/stm32f4_discovery.c ****   * @{
  38:../STM32F4-Discovery/stm32f4_discovery.c ****   */ 
  39:../STM32F4-Discovery/stm32f4_discovery.c **** 
  40:../STM32F4-Discovery/stm32f4_discovery.c **** /** @defgroup STM32F4_DISCOVERY_LOW_LEVEL_Private_TypesDefinitions
  41:../STM32F4-Discovery/stm32f4_discovery.c ****   * @{
  42:../STM32F4-Discovery/stm32f4_discovery.c ****   */ 
  43:../STM32F4-Discovery/stm32f4_discovery.c **** /**
  44:../STM32F4-Discovery/stm32f4_discovery.c ****   * @}
  45:../STM32F4-Discovery/stm32f4_discovery.c ****   */ 
  46:../STM32F4-Discovery/stm32f4_discovery.c **** 
  47:../STM32F4-Discovery/stm32f4_discovery.c **** 
  48:../STM32F4-Discovery/stm32f4_discovery.c **** /** @defgroup STM32F4_DISCOVERY_LOW_LEVEL_Private_Defines
  49:../STM32F4-Discovery/stm32f4_discovery.c ****   * @{
  50:../STM32F4-Discovery/stm32f4_discovery.c ****   */ 
  51:../STM32F4-Discovery/stm32f4_discovery.c **** /**
  52:../STM32F4-Discovery/stm32f4_discovery.c ****   * @}
  53:../STM32F4-Discovery/stm32f4_discovery.c ****   */ 
  54:../STM32F4-Discovery/stm32f4_discovery.c **** 
  55:../STM32F4-Discovery/stm32f4_discovery.c **** 
  56:../STM32F4-Discovery/stm32f4_discovery.c **** /** @defgroup STM32F4_DISCOVERY_LOW_LEVEL_Private_Macros
  57:../STM32F4-Discovery/stm32f4_discovery.c ****   * @{
  58:../STM32F4-Discovery/stm32f4_discovery.c ****   */ 
  59:../STM32F4-Discovery/stm32f4_discovery.c **** /**
  60:../STM32F4-Discovery/stm32f4_discovery.c ****   * @}
  61:../STM32F4-Discovery/stm32f4_discovery.c ****   */ 
  62:../STM32F4-Discovery/stm32f4_discovery.c **** 
  63:../STM32F4-Discovery/stm32f4_discovery.c **** 
  64:../STM32F4-Discovery/stm32f4_discovery.c **** /** @defgroup STM32F4_DISCOVERY_LOW_LEVEL_Private_Variables
  65:../STM32F4-Discovery/stm32f4_discovery.c ****   * @{
  66:../STM32F4-Discovery/stm32f4_discovery.c ****   */ 
  67:../STM32F4-Discovery/stm32f4_discovery.c **** GPIO_TypeDef* GPIO_PORT[LEDn] = {LED4_GPIO_PORT, LED3_GPIO_PORT, LED5_GPIO_PORT,
  68:../STM32F4-Discovery/stm32f4_discovery.c ****                                  LED6_GPIO_PORT};
  69:../STM32F4-Discovery/stm32f4_discovery.c **** const uint16_t GPIO_PIN[LEDn] = {LED4_PIN, LED3_PIN, LED5_PIN,
  70:../STM32F4-Discovery/stm32f4_discovery.c ****                                  LED6_PIN};
  71:../STM32F4-Discovery/stm32f4_discovery.c **** const uint32_t GPIO_CLK[LEDn] = {LED4_GPIO_CLK, LED3_GPIO_CLK, LED5_GPIO_CLK,
  72:../STM32F4-Discovery/stm32f4_discovery.c ****                                  LED6_GPIO_CLK};
  73:../STM32F4-Discovery/stm32f4_discovery.c **** 
  74:../STM32F4-Discovery/stm32f4_discovery.c **** GPIO_TypeDef* BUTTON_PORT[BUTTONn] = {USER_BUTTON_GPIO_PORT }; 
  75:../STM32F4-Discovery/stm32f4_discovery.c **** 
  76:../STM32F4-Discovery/stm32f4_discovery.c **** const uint16_t BUTTON_PIN[BUTTONn] = {USER_BUTTON_PIN }; 
  77:../STM32F4-Discovery/stm32f4_discovery.c **** 
  78:../STM32F4-Discovery/stm32f4_discovery.c **** const uint32_t BUTTON_CLK[BUTTONn] = {USER_BUTTON_GPIO_CLK };
  79:../STM32F4-Discovery/stm32f4_discovery.c **** 
  80:../STM32F4-Discovery/stm32f4_discovery.c **** const uint16_t BUTTON_EXTI_LINE[BUTTONn] = {USER_BUTTON_EXTI_LINE };
  81:../STM32F4-Discovery/stm32f4_discovery.c **** 
  82:../STM32F4-Discovery/stm32f4_discovery.c **** const uint8_t BUTTON_PORT_SOURCE[BUTTONn] = {USER_BUTTON_EXTI_PORT_SOURCE};
  83:../STM32F4-Discovery/stm32f4_discovery.c **** 								 
  84:../STM32F4-Discovery/stm32f4_discovery.c **** const uint8_t BUTTON_PIN_SOURCE[BUTTONn] = {USER_BUTTON_EXTI_PIN_SOURCE }; 
  85:../STM32F4-Discovery/stm32f4_discovery.c **** const uint8_t BUTTON_IRQn[BUTTONn] = {USER_BUTTON_EXTI_IRQn };
  86:../STM32F4-Discovery/stm32f4_discovery.c **** 
  87:../STM32F4-Discovery/stm32f4_discovery.c **** NVIC_InitTypeDef   NVIC_InitStructure;
  88:../STM32F4-Discovery/stm32f4_discovery.c **** 
  89:../STM32F4-Discovery/stm32f4_discovery.c **** /**
  90:../STM32F4-Discovery/stm32f4_discovery.c ****   * @}
  91:../STM32F4-Discovery/stm32f4_discovery.c ****   */ 
  92:../STM32F4-Discovery/stm32f4_discovery.c **** 
  93:../STM32F4-Discovery/stm32f4_discovery.c **** 
  94:../STM32F4-Discovery/stm32f4_discovery.c **** /** @defgroup STM32F4_DISCOVERY_LOW_LEVEL_Private_FunctionPrototypes
  95:../STM32F4-Discovery/stm32f4_discovery.c ****   * @{
  96:../STM32F4-Discovery/stm32f4_discovery.c ****   */ 
  97:../STM32F4-Discovery/stm32f4_discovery.c **** 
  98:../STM32F4-Discovery/stm32f4_discovery.c **** /**
  99:../STM32F4-Discovery/stm32f4_discovery.c ****   * @}
 100:../STM32F4-Discovery/stm32f4_discovery.c ****   */ 
 101:../STM32F4-Discovery/stm32f4_discovery.c **** 
 102:../STM32F4-Discovery/stm32f4_discovery.c **** /** @defgroup STM32F4_DISCOVERY_LOW_LEVEL_Private_Functions
 103:../STM32F4-Discovery/stm32f4_discovery.c ****   * @{
 104:../STM32F4-Discovery/stm32f4_discovery.c ****   */ 
 105:../STM32F4-Discovery/stm32f4_discovery.c **** 
 106:../STM32F4-Discovery/stm32f4_discovery.c **** /**
 107:../STM32F4-Discovery/stm32f4_discovery.c ****   * @brief  Configures LED GPIO.
 108:../STM32F4-Discovery/stm32f4_discovery.c ****   * @param  Led: Specifies the Led to be configured. 
 109:../STM32F4-Discovery/stm32f4_discovery.c ****   *   This parameter can be one of following parameters:
 110:../STM32F4-Discovery/stm32f4_discovery.c ****   *     @arg LED4
 111:../STM32F4-Discovery/stm32f4_discovery.c ****   *     @arg LED3
 112:../STM32F4-Discovery/stm32f4_discovery.c ****   *     @arg LED5
 113:../STM32F4-Discovery/stm32f4_discovery.c ****   *     @arg LED6
 114:../STM32F4-Discovery/stm32f4_discovery.c ****   * @retval None
 115:../STM32F4-Discovery/stm32f4_discovery.c ****   */
 116:../STM32F4-Discovery/stm32f4_discovery.c **** void STM_EVAL_LEDInit(Led_TypeDef Led)
 117:../STM32F4-Discovery/stm32f4_discovery.c **** {
 101              		.loc 1 117 0
 102              		.cfi_startproc
 103              		@ args = 0, pretend = 0, frame = 16
 104              		@ frame_needed = 1, uses_anonymous_args = 0
 105 0000 80B5     		push	{r7, lr}
 106              	.LCFI0:
 107              		.cfi_def_cfa_offset 8
 108              		.cfi_offset 14, -4
 109              		.cfi_offset 7, -8
 110 0002 84B0     		sub	sp, sp, #16
 111              	.LCFI1:
 112              		.cfi_def_cfa_offset 24
 113 0004 00AF     		add	r7, sp, #0
 114              	.LCFI2:
 115              		.cfi_def_cfa_register 7
 116 0006 0346     		mov	r3, r0
 117 0008 FB71     		strb	r3, [r7, #7]
 118:../STM32F4-Discovery/stm32f4_discovery.c ****   GPIO_InitTypeDef  GPIO_InitStructure;
 119:../STM32F4-Discovery/stm32f4_discovery.c ****   
 120:../STM32F4-Discovery/stm32f4_discovery.c ****   /* Enable the GPIO_LED Clock */
 121:../STM32F4-Discovery/stm32f4_discovery.c ****   RCC_AHB1PeriphClockCmd(GPIO_CLK[Led], ENABLE);
 118              		.loc 1 121 0
 119 000a FA79     		ldrb	r2, [r7, #7]	@ zero_extendqisi2
 120 000c 40F20003 		movw	r3, #:lower16:GPIO_CLK
 121 0010 C0F20003 		movt	r3, #:upper16:GPIO_CLK
 122 0014 53F82230 		ldr	r3, [r3, r2, lsl #2]
 123 0018 1846     		mov	r0, r3
 124 001a 4FF00101 		mov	r1, #1
 125 001e FFF7FEFF 		bl	RCC_AHB1PeriphClockCmd
 122:../STM32F4-Discovery/stm32f4_discovery.c **** 
 123:../STM32F4-Discovery/stm32f4_discovery.c ****   /* Configure the GPIO_LED pin */
 124:../STM32F4-Discovery/stm32f4_discovery.c ****   GPIO_InitStructure.GPIO_Pin = GPIO_PIN[Led];
 126              		.loc 1 124 0
 127 0022 FA79     		ldrb	r2, [r7, #7]	@ zero_extendqisi2
 128 0024 40F20003 		movw	r3, #:lower16:GPIO_PIN
 129 0028 C0F20003 		movt	r3, #:upper16:GPIO_PIN
 130 002c 33F81230 		ldrh	r3, [r3, r2, lsl #1]
 131 0030 BB60     		str	r3, [r7, #8]
 125:../STM32F4-Discovery/stm32f4_discovery.c ****   GPIO_InitStructure.GPIO_Mode = GPIO_Mode_OUT;
 132              		.loc 1 125 0
 133 0032 4FF00103 		mov	r3, #1
 134 0036 3B73     		strb	r3, [r7, #12]
 126:../STM32F4-Discovery/stm32f4_discovery.c ****   GPIO_InitStructure.GPIO_OType = GPIO_OType_PP;
 135              		.loc 1 126 0
 136 0038 4FF00003 		mov	r3, #0
 137 003c BB73     		strb	r3, [r7, #14]
 127:../STM32F4-Discovery/stm32f4_discovery.c ****   GPIO_InitStructure.GPIO_PuPd = GPIO_PuPd_UP;
 138              		.loc 1 127 0
 139 003e 4FF00103 		mov	r3, #1
 140 0042 FB73     		strb	r3, [r7, #15]
 128:../STM32F4-Discovery/stm32f4_discovery.c ****   GPIO_InitStructure.GPIO_Speed = GPIO_Speed_50MHz;
 141              		.loc 1 128 0
 142 0044 4FF00203 		mov	r3, #2
 143 0048 7B73     		strb	r3, [r7, #13]
 129:../STM32F4-Discovery/stm32f4_discovery.c ****   GPIO_Init(GPIO_PORT[Led], &GPIO_InitStructure);
 144              		.loc 1 129 0
 145 004a FA79     		ldrb	r2, [r7, #7]	@ zero_extendqisi2
 146 004c 40F20003 		movw	r3, #:lower16:GPIO_PORT
 147 0050 C0F20003 		movt	r3, #:upper16:GPIO_PORT
 148 0054 53F82220 		ldr	r2, [r3, r2, lsl #2]
 149 0058 07F10803 		add	r3, r7, #8
 150 005c 1046     		mov	r0, r2
 151 005e 1946     		mov	r1, r3
 152 0060 FFF7FEFF 		bl	GPIO_Init
 130:../STM32F4-Discovery/stm32f4_discovery.c **** }
 153              		.loc 1 130 0
 154 0064 07F11007 		add	r7, r7, #16
 155 0068 BD46     		mov	sp, r7
 156 006a 80BD     		pop	{r7, pc}
 157              		.cfi_endproc
 158              	.LFE110:
 160              		.align	2
 161              		.global	STM_EVAL_LEDOn
 162              		.thumb
 163              		.thumb_func
 165              	STM_EVAL_LEDOn:
 166              	.LFB111:
 131:../STM32F4-Discovery/stm32f4_discovery.c **** 
 132:../STM32F4-Discovery/stm32f4_discovery.c **** /**
 133:../STM32F4-Discovery/stm32f4_discovery.c ****   * @brief  Turns selected LED On.
 134:../STM32F4-Discovery/stm32f4_discovery.c ****   * @param  Led: Specifies the Led to be set on. 
 135:../STM32F4-Discovery/stm32f4_discovery.c ****   *   This parameter can be one of following parameters:
 136:../STM32F4-Discovery/stm32f4_discovery.c ****   *     @arg LED4
 137:../STM32F4-Discovery/stm32f4_discovery.c ****   *     @arg LED3
 138:../STM32F4-Discovery/stm32f4_discovery.c ****   *     @arg LED5
 139:../STM32F4-Discovery/stm32f4_discovery.c ****   *     @arg LED6  
 140:../STM32F4-Discovery/stm32f4_discovery.c ****   * @retval None
 141:../STM32F4-Discovery/stm32f4_discovery.c ****   */
 142:../STM32F4-Discovery/stm32f4_discovery.c **** void STM_EVAL_LEDOn(Led_TypeDef Led)
 143:../STM32F4-Discovery/stm32f4_discovery.c **** {
 167              		.loc 1 143 0
 168              		.cfi_startproc
 169              		@ args = 0, pretend = 0, frame = 8
 170              		@ frame_needed = 1, uses_anonymous_args = 0
 171              		@ link register save eliminated.
 172 006c 80B4     		push	{r7}
 173              	.LCFI3:
 174              		.cfi_def_cfa_offset 4
 175              		.cfi_offset 7, -4
 176 006e 83B0     		sub	sp, sp, #12
 177              	.LCFI4:
 178              		.cfi_def_cfa_offset 16
 179 0070 00AF     		add	r7, sp, #0
 180              	.LCFI5:
 181              		.cfi_def_cfa_register 7
 182 0072 0346     		mov	r3, r0
 183 0074 FB71     		strb	r3, [r7, #7]
 144:../STM32F4-Discovery/stm32f4_discovery.c ****   GPIO_PORT[Led]->BSRRL = GPIO_PIN[Led];
 184              		.loc 1 144 0
 185 0076 FA79     		ldrb	r2, [r7, #7]	@ zero_extendqisi2
 186 0078 40F20003 		movw	r3, #:lower16:GPIO_PORT
 187 007c C0F20003 		movt	r3, #:upper16:GPIO_PORT
 188 0080 53F82220 		ldr	r2, [r3, r2, lsl #2]
 189 0084 F979     		ldrb	r1, [r7, #7]	@ zero_extendqisi2
 190 0086 40F20003 		movw	r3, #:lower16:GPIO_PIN
 191 008a C0F20003 		movt	r3, #:upper16:GPIO_PIN
 192 008e 33F81130 		ldrh	r3, [r3, r1, lsl #1]
 193 0092 1383     		strh	r3, [r2, #24]	@ movhi
 145:../STM32F4-Discovery/stm32f4_discovery.c **** }
 194              		.loc 1 145 0
 195 0094 07F10C07 		add	r7, r7, #12
 196 0098 BD46     		mov	sp, r7
 197 009a 80BC     		pop	{r7}
 198 009c 7047     		bx	lr
 199              		.cfi_endproc
 200              	.LFE111:
 202 009e 00BF     		.align	2
 203              		.global	STM_EVAL_LEDOff
 204              		.thumb
 205              		.thumb_func
 207              	STM_EVAL_LEDOff:
 208              	.LFB112:
 146:../STM32F4-Discovery/stm32f4_discovery.c **** 
 147:../STM32F4-Discovery/stm32f4_discovery.c **** /**
 148:../STM32F4-Discovery/stm32f4_discovery.c ****   * @brief  Turns selected LED Off.
 149:../STM32F4-Discovery/stm32f4_discovery.c ****   * @param  Led: Specifies the Led to be set off. 
 150:../STM32F4-Discovery/stm32f4_discovery.c ****   *   This parameter can be one of following parameters:
 151:../STM32F4-Discovery/stm32f4_discovery.c ****   *     @arg LED4
 152:../STM32F4-Discovery/stm32f4_discovery.c ****   *     @arg LED3
 153:../STM32F4-Discovery/stm32f4_discovery.c ****   *     @arg LED5
 154:../STM32F4-Discovery/stm32f4_discovery.c ****   *     @arg LED6 
 155:../STM32F4-Discovery/stm32f4_discovery.c ****   * @retval None
 156:../STM32F4-Discovery/stm32f4_discovery.c ****   */
 157:../STM32F4-Discovery/stm32f4_discovery.c **** void STM_EVAL_LEDOff(Led_TypeDef Led)
 158:../STM32F4-Discovery/stm32f4_discovery.c **** {
 209              		.loc 1 158 0
 210              		.cfi_startproc
 211              		@ args = 0, pretend = 0, frame = 8
 212              		@ frame_needed = 1, uses_anonymous_args = 0
 213              		@ link register save eliminated.
 214 00a0 80B4     		push	{r7}
 215              	.LCFI6:
 216              		.cfi_def_cfa_offset 4
 217              		.cfi_offset 7, -4
 218 00a2 83B0     		sub	sp, sp, #12
 219              	.LCFI7:
 220              		.cfi_def_cfa_offset 16
 221 00a4 00AF     		add	r7, sp, #0
 222              	.LCFI8:
 223              		.cfi_def_cfa_register 7
 224 00a6 0346     		mov	r3, r0
 225 00a8 FB71     		strb	r3, [r7, #7]
 159:../STM32F4-Discovery/stm32f4_discovery.c ****   GPIO_PORT[Led]->BSRRH = GPIO_PIN[Led];  
 226              		.loc 1 159 0
 227 00aa FA79     		ldrb	r2, [r7, #7]	@ zero_extendqisi2
 228 00ac 40F20003 		movw	r3, #:lower16:GPIO_PORT
 229 00b0 C0F20003 		movt	r3, #:upper16:GPIO_PORT
 230 00b4 53F82220 		ldr	r2, [r3, r2, lsl #2]
 231 00b8 F979     		ldrb	r1, [r7, #7]	@ zero_extendqisi2
 232 00ba 40F20003 		movw	r3, #:lower16:GPIO_PIN
 233 00be C0F20003 		movt	r3, #:upper16:GPIO_PIN
 234 00c2 33F81130 		ldrh	r3, [r3, r1, lsl #1]
 235 00c6 5383     		strh	r3, [r2, #26]	@ movhi
 160:../STM32F4-Discovery/stm32f4_discovery.c **** }
 236              		.loc 1 160 0
 237 00c8 07F10C07 		add	r7, r7, #12
 238 00cc BD46     		mov	sp, r7
 239 00ce 80BC     		pop	{r7}
 240 00d0 7047     		bx	lr
 241              		.cfi_endproc
 242              	.LFE112:
 244 00d2 00BF     		.align	2
 245              		.global	STM_EVAL_LEDToggle
 246              		.thumb
 247              		.thumb_func
 249              	STM_EVAL_LEDToggle:
 250              	.LFB113:
 161:../STM32F4-Discovery/stm32f4_discovery.c **** 
 162:../STM32F4-Discovery/stm32f4_discovery.c **** /**
 163:../STM32F4-Discovery/stm32f4_discovery.c ****   * @brief  Toggles the selected LED.
 164:../STM32F4-Discovery/stm32f4_discovery.c ****   * @param  Led: Specifies the Led to be toggled. 
 165:../STM32F4-Discovery/stm32f4_discovery.c ****   *   This parameter can be one of following parameters:
 166:../STM32F4-Discovery/stm32f4_discovery.c ****   *     @arg LED4
 167:../STM32F4-Discovery/stm32f4_discovery.c ****   *     @arg LED3
 168:../STM32F4-Discovery/stm32f4_discovery.c ****   *     @arg LED5
 169:../STM32F4-Discovery/stm32f4_discovery.c ****   *     @arg LED6  
 170:../STM32F4-Discovery/stm32f4_discovery.c ****   * @retval None
 171:../STM32F4-Discovery/stm32f4_discovery.c ****   */
 172:../STM32F4-Discovery/stm32f4_discovery.c **** void STM_EVAL_LEDToggle(Led_TypeDef Led)
 173:../STM32F4-Discovery/stm32f4_discovery.c **** {
 251              		.loc 1 173 0
 252              		.cfi_startproc
 253              		@ args = 0, pretend = 0, frame = 8
 254              		@ frame_needed = 1, uses_anonymous_args = 0
 255              		@ link register save eliminated.
 256 00d4 80B4     		push	{r7}
 257              	.LCFI9:
 258              		.cfi_def_cfa_offset 4
 259              		.cfi_offset 7, -4
 260 00d6 83B0     		sub	sp, sp, #12
 261              	.LCFI10:
 262              		.cfi_def_cfa_offset 16
 263 00d8 00AF     		add	r7, sp, #0
 264              	.LCFI11:
 265              		.cfi_def_cfa_register 7
 266 00da 0346     		mov	r3, r0
 267 00dc FB71     		strb	r3, [r7, #7]
 174:../STM32F4-Discovery/stm32f4_discovery.c ****   GPIO_PORT[Led]->ODR ^= GPIO_PIN[Led];
 268              		.loc 1 174 0
 269 00de FA79     		ldrb	r2, [r7, #7]	@ zero_extendqisi2
 270 00e0 40F20003 		movw	r3, #:lower16:GPIO_PORT
 271 00e4 C0F20003 		movt	r3, #:upper16:GPIO_PORT
 272 00e8 53F82220 		ldr	r2, [r3, r2, lsl #2]
 273 00ec F979     		ldrb	r1, [r7, #7]	@ zero_extendqisi2
 274 00ee 40F20003 		movw	r3, #:lower16:GPIO_PORT
 275 00f2 C0F20003 		movt	r3, #:upper16:GPIO_PORT
 276 00f6 53F82130 		ldr	r3, [r3, r1, lsl #2]
 277 00fa 5B69     		ldr	r3, [r3, #20]
 278 00fc 1946     		mov	r1, r3
 279 00fe F879     		ldrb	r0, [r7, #7]	@ zero_extendqisi2
 280 0100 40F20003 		movw	r3, #:lower16:GPIO_PIN
 281 0104 C0F20003 		movt	r3, #:upper16:GPIO_PIN
 282 0108 33F81030 		ldrh	r3, [r3, r0, lsl #1]
 283 010c 4B40     		eors	r3, r3, r1
 284 010e 5361     		str	r3, [r2, #20]
 175:../STM32F4-Discovery/stm32f4_discovery.c **** }
 285              		.loc 1 175 0
 286 0110 07F10C07 		add	r7, r7, #12
 287 0114 BD46     		mov	sp, r7
 288 0116 80BC     		pop	{r7}
 289 0118 7047     		bx	lr
 290              		.cfi_endproc
 291              	.LFE113:
 293 011a 00BF     		.align	2
 294              		.global	STM_EVAL_PBInit
 295              		.thumb
 296              		.thumb_func
 298              	STM_EVAL_PBInit:
 299              	.LFB114:
 176:../STM32F4-Discovery/stm32f4_discovery.c **** 
 177:../STM32F4-Discovery/stm32f4_discovery.c **** /**
 178:../STM32F4-Discovery/stm32f4_discovery.c ****   * @brief  Configures Button GPIO and EXTI Line.
 179:../STM32F4-Discovery/stm32f4_discovery.c ****   * @param  Button: Specifies the Button to be configured.
 180:../STM32F4-Discovery/stm32f4_discovery.c ****   *   This parameter should be: BUTTON_USER
 181:../STM32F4-Discovery/stm32f4_discovery.c ****   * @param  Button_Mode: Specifies Button mode.
 182:../STM32F4-Discovery/stm32f4_discovery.c ****   *   This parameter can be one of following parameters:   
 183:../STM32F4-Discovery/stm32f4_discovery.c ****   *     @arg BUTTON_MODE_GPIO: Button will be used as simple IO 
 184:../STM32F4-Discovery/stm32f4_discovery.c ****   *     @arg BUTTON_MODE_EXTI: Button will be connected to EXTI line with interrupt
 185:../STM32F4-Discovery/stm32f4_discovery.c ****   *                            generation capability  
 186:../STM32F4-Discovery/stm32f4_discovery.c ****   * @retval None
 187:../STM32F4-Discovery/stm32f4_discovery.c ****   */
 188:../STM32F4-Discovery/stm32f4_discovery.c **** void STM_EVAL_PBInit(Button_TypeDef Button, ButtonMode_TypeDef Button_Mode)
 189:../STM32F4-Discovery/stm32f4_discovery.c **** {
 300              		.loc 1 189 0
 301              		.cfi_startproc
 302              		@ args = 0, pretend = 0, frame = 32
 303              		@ frame_needed = 1, uses_anonymous_args = 0
 304 011c 80B5     		push	{r7, lr}
 305              	.LCFI12:
 306              		.cfi_def_cfa_offset 8
 307              		.cfi_offset 14, -4
 308              		.cfi_offset 7, -8
 309 011e 88B0     		sub	sp, sp, #32
 310              	.LCFI13:
 311              		.cfi_def_cfa_offset 40
 312 0120 00AF     		add	r7, sp, #0
 313              	.LCFI14:
 314              		.cfi_def_cfa_register 7
 315 0122 0246     		mov	r2, r0
 316 0124 0B46     		mov	r3, r1
 317 0126 FA71     		strb	r2, [r7, #7]
 318 0128 BB71     		strb	r3, [r7, #6]
 190:../STM32F4-Discovery/stm32f4_discovery.c ****   GPIO_InitTypeDef GPIO_InitStructure;
 191:../STM32F4-Discovery/stm32f4_discovery.c ****   EXTI_InitTypeDef EXTI_InitStructure;
 192:../STM32F4-Discovery/stm32f4_discovery.c ****   NVIC_InitTypeDef NVIC_InitStructure;
 193:../STM32F4-Discovery/stm32f4_discovery.c **** 
 194:../STM32F4-Discovery/stm32f4_discovery.c ****   /* Enable the BUTTON Clock */
 195:../STM32F4-Discovery/stm32f4_discovery.c ****   RCC_AHB1PeriphClockCmd(BUTTON_CLK[Button], ENABLE);
 319              		.loc 1 195 0
 320 012a FA79     		ldrb	r2, [r7, #7]	@ zero_extendqisi2
 321 012c 40F20003 		movw	r3, #:lower16:BUTTON_CLK
 322 0130 C0F20003 		movt	r3, #:upper16:BUTTON_CLK
 323 0134 53F82230 		ldr	r3, [r3, r2, lsl #2]
 324 0138 1846     		mov	r0, r3
 325 013a 4FF00101 		mov	r1, #1
 326 013e FFF7FEFF 		bl	RCC_AHB1PeriphClockCmd
 196:../STM32F4-Discovery/stm32f4_discovery.c ****   RCC_APB2PeriphClockCmd(RCC_APB2Periph_SYSCFG, ENABLE);
 327              		.loc 1 196 0
 328 0142 4FF48040 		mov	r0, #16384
 329 0146 4FF00101 		mov	r1, #1
 330 014a FFF7FEFF 		bl	RCC_APB2PeriphClockCmd
 197:../STM32F4-Discovery/stm32f4_discovery.c **** 
 198:../STM32F4-Discovery/stm32f4_discovery.c ****   /* Configure Button pin as input */
 199:../STM32F4-Discovery/stm32f4_discovery.c ****   GPIO_InitStructure.GPIO_Mode = GPIO_Mode_IN;
 331              		.loc 1 199 0
 332 014e 4FF00003 		mov	r3, #0
 333 0152 3B77     		strb	r3, [r7, #28]
 200:../STM32F4-Discovery/stm32f4_discovery.c ****   GPIO_InitStructure.GPIO_PuPd = GPIO_PuPd_NOPULL;
 334              		.loc 1 200 0
 335 0154 4FF00003 		mov	r3, #0
 336 0158 FB77     		strb	r3, [r7, #31]
 201:../STM32F4-Discovery/stm32f4_discovery.c ****   GPIO_InitStructure.GPIO_Pin = BUTTON_PIN[Button];
 337              		.loc 1 201 0
 338 015a FA79     		ldrb	r2, [r7, #7]	@ zero_extendqisi2
 339 015c 40F20003 		movw	r3, #:lower16:BUTTON_PIN
 340 0160 C0F20003 		movt	r3, #:upper16:BUTTON_PIN
 341 0164 33F81230 		ldrh	r3, [r3, r2, lsl #1]
 342 0168 BB61     		str	r3, [r7, #24]
 202:../STM32F4-Discovery/stm32f4_discovery.c ****   GPIO_Init(BUTTON_PORT[Button], &GPIO_InitStructure);
 343              		.loc 1 202 0
 344 016a FA79     		ldrb	r2, [r7, #7]	@ zero_extendqisi2
 345 016c 40F20003 		movw	r3, #:lower16:BUTTON_PORT
 346 0170 C0F20003 		movt	r3, #:upper16:BUTTON_PORT
 347 0174 53F82220 		ldr	r2, [r3, r2, lsl #2]
 348 0178 07F11803 		add	r3, r7, #24
 349 017c 1046     		mov	r0, r2
 350 017e 1946     		mov	r1, r3
 351 0180 FFF7FEFF 		bl	GPIO_Init
 203:../STM32F4-Discovery/stm32f4_discovery.c **** 
 204:../STM32F4-Discovery/stm32f4_discovery.c ****   if (Button_Mode == BUTTON_MODE_EXTI)
 352              		.loc 1 204 0
 353 0184 BB79     		ldrb	r3, [r7, #6]	@ zero_extendqisi2
 354 0186 012B     		cmp	r3, #1
 355 0188 3AD1     		bne	.L5
 205:../STM32F4-Discovery/stm32f4_discovery.c ****   {
 206:../STM32F4-Discovery/stm32f4_discovery.c ****     /* Connect Button EXTI Line to Button GPIO Pin */
 207:../STM32F4-Discovery/stm32f4_discovery.c ****     SYSCFG_EXTILineConfig(BUTTON_PORT_SOURCE[Button], BUTTON_PIN_SOURCE[Button]);
 356              		.loc 1 207 0
 357 018a FA79     		ldrb	r2, [r7, #7]	@ zero_extendqisi2
 358 018c 40F20003 		movw	r3, #:lower16:BUTTON_PORT_SOURCE
 359 0190 C0F20003 		movt	r3, #:upper16:BUTTON_PORT_SOURCE
 360 0194 9A5C     		ldrb	r2, [r3, r2]	@ zero_extendqisi2
 361 0196 F979     		ldrb	r1, [r7, #7]	@ zero_extendqisi2
 362 0198 40F20003 		movw	r3, #:lower16:BUTTON_PIN_SOURCE
 363 019c C0F20003 		movt	r3, #:upper16:BUTTON_PIN_SOURCE
 364 01a0 5B5C     		ldrb	r3, [r3, r1]	@ zero_extendqisi2
 365 01a2 1046     		mov	r0, r2
 366 01a4 1946     		mov	r1, r3
 367 01a6 FFF7FEFF 		bl	SYSCFG_EXTILineConfig
 208:../STM32F4-Discovery/stm32f4_discovery.c **** 
 209:../STM32F4-Discovery/stm32f4_discovery.c ****     /* Configure Button EXTI line */
 210:../STM32F4-Discovery/stm32f4_discovery.c ****     EXTI_InitStructure.EXTI_Line = BUTTON_EXTI_LINE[Button];
 368              		.loc 1 210 0
 369 01aa FA79     		ldrb	r2, [r7, #7]	@ zero_extendqisi2
 370 01ac 40F20003 		movw	r3, #:lower16:BUTTON_EXTI_LINE
 371 01b0 C0F20003 		movt	r3, #:upper16:BUTTON_EXTI_LINE
 372 01b4 33F81230 		ldrh	r3, [r3, r2, lsl #1]
 373 01b8 3B61     		str	r3, [r7, #16]
 211:../STM32F4-Discovery/stm32f4_discovery.c ****     EXTI_InitStructure.EXTI_Mode = EXTI_Mode_Interrupt;
 374              		.loc 1 211 0
 375 01ba 4FF00003 		mov	r3, #0
 376 01be 3B75     		strb	r3, [r7, #20]
 212:../STM32F4-Discovery/stm32f4_discovery.c ****     EXTI_InitStructure.EXTI_Trigger = EXTI_Trigger_Rising;  
 377              		.loc 1 212 0
 378 01c0 4FF00803 		mov	r3, #8
 379 01c4 7B75     		strb	r3, [r7, #21]
 213:../STM32F4-Discovery/stm32f4_discovery.c ****     EXTI_InitStructure.EXTI_LineCmd = ENABLE;
 380              		.loc 1 213 0
 381 01c6 4FF00103 		mov	r3, #1
 382 01ca BB75     		strb	r3, [r7, #22]
 214:../STM32F4-Discovery/stm32f4_discovery.c ****     EXTI_Init(&EXTI_InitStructure);
 383              		.loc 1 214 0
 384 01cc 07F11003 		add	r3, r7, #16
 385 01d0 1846     		mov	r0, r3
 386 01d2 FFF7FEFF 		bl	EXTI_Init
 215:../STM32F4-Discovery/stm32f4_discovery.c **** 
 216:../STM32F4-Discovery/stm32f4_discovery.c ****     /* Enable and set Button EXTI Interrupt to the lowest priority */
 217:../STM32F4-Discovery/stm32f4_discovery.c ****     NVIC_InitStructure.NVIC_IRQChannel = BUTTON_IRQn[Button];
 387              		.loc 1 217 0
 388 01d6 FA79     		ldrb	r2, [r7, #7]	@ zero_extendqisi2
 389 01d8 40F20003 		movw	r3, #:lower16:BUTTON_IRQn
 390 01dc C0F20003 		movt	r3, #:upper16:BUTTON_IRQn
 391 01e0 9B5C     		ldrb	r3, [r3, r2]	@ zero_extendqisi2
 392 01e2 3B73     		strb	r3, [r7, #12]
 218:../STM32F4-Discovery/stm32f4_discovery.c ****     NVIC_InitStructure.NVIC_IRQChannelPreemptionPriority = 0x0F;
 393              		.loc 1 218 0
 394 01e4 4FF00F03 		mov	r3, #15
 395 01e8 7B73     		strb	r3, [r7, #13]
 219:../STM32F4-Discovery/stm32f4_discovery.c ****     NVIC_InitStructure.NVIC_IRQChannelSubPriority = 0x0F;
 396              		.loc 1 219 0
 397 01ea 4FF00F03 		mov	r3, #15
 398 01ee BB73     		strb	r3, [r7, #14]
 220:../STM32F4-Discovery/stm32f4_discovery.c ****     NVIC_InitStructure.NVIC_IRQChannelCmd = ENABLE;
 399              		.loc 1 220 0
 400 01f0 4FF00103 		mov	r3, #1
 401 01f4 FB73     		strb	r3, [r7, #15]
 221:../STM32F4-Discovery/stm32f4_discovery.c **** 
 222:../STM32F4-Discovery/stm32f4_discovery.c ****     NVIC_Init(&NVIC_InitStructure); 
 402              		.loc 1 222 0
 403 01f6 07F10C03 		add	r3, r7, #12
 404 01fa 1846     		mov	r0, r3
 405 01fc FFF7FEFF 		bl	NVIC_Init
 406              	.L5:
 223:../STM32F4-Discovery/stm32f4_discovery.c ****   }
 224:../STM32F4-Discovery/stm32f4_discovery.c **** }
 407              		.loc 1 224 0
 408 0200 07F12007 		add	r7, r7, #32
 409 0204 BD46     		mov	sp, r7
 410 0206 80BD     		pop	{r7, pc}
 411              		.cfi_endproc
 412              	.LFE114:
 414              		.align	2
 415              		.global	STM_EVAL_PBGetState
 416              		.thumb
 417              		.thumb_func
 419              	STM_EVAL_PBGetState:
 420              	.LFB115:
 225:../STM32F4-Discovery/stm32f4_discovery.c **** 
 226:../STM32F4-Discovery/stm32f4_discovery.c **** /**
 227:../STM32F4-Discovery/stm32f4_discovery.c ****   * @brief  Returns the selected Button state.
 228:../STM32F4-Discovery/stm32f4_discovery.c ****   * @param  Button: Specifies the Button to be checked.
 229:../STM32F4-Discovery/stm32f4_discovery.c ****   *   This parameter should be: BUTTON_USER  
 230:../STM32F4-Discovery/stm32f4_discovery.c ****   * @retval The Button GPIO pin value.
 231:../STM32F4-Discovery/stm32f4_discovery.c ****   */
 232:../STM32F4-Discovery/stm32f4_discovery.c **** uint32_t STM_EVAL_PBGetState(Button_TypeDef Button)
 233:../STM32F4-Discovery/stm32f4_discovery.c **** {
 421              		.loc 1 233 0
 422              		.cfi_startproc
 423              		@ args = 0, pretend = 0, frame = 8
 424              		@ frame_needed = 1, uses_anonymous_args = 0
 425 0208 80B5     		push	{r7, lr}
 426              	.LCFI15:
 427              		.cfi_def_cfa_offset 8
 428              		.cfi_offset 14, -4
 429              		.cfi_offset 7, -8
 430 020a 82B0     		sub	sp, sp, #8
 431              	.LCFI16:
 432              		.cfi_def_cfa_offset 16
 433 020c 00AF     		add	r7, sp, #0
 434              	.LCFI17:
 435              		.cfi_def_cfa_register 7
 436 020e 0346     		mov	r3, r0
 437 0210 FB71     		strb	r3, [r7, #7]
 234:../STM32F4-Discovery/stm32f4_discovery.c ****   return GPIO_ReadInputDataBit(BUTTON_PORT[Button], BUTTON_PIN[Button]);
 438              		.loc 1 234 0
 439 0212 FA79     		ldrb	r2, [r7, #7]	@ zero_extendqisi2
 440 0214 40F20003 		movw	r3, #:lower16:BUTTON_PORT
 441 0218 C0F20003 		movt	r3, #:upper16:BUTTON_PORT
 442 021c 53F82220 		ldr	r2, [r3, r2, lsl #2]
 443 0220 F979     		ldrb	r1, [r7, #7]	@ zero_extendqisi2
 444 0222 40F20003 		movw	r3, #:lower16:BUTTON_PIN
 445 0226 C0F20003 		movt	r3, #:upper16:BUTTON_PIN
 446 022a 33F81130 		ldrh	r3, [r3, r1, lsl #1]
 447 022e 1046     		mov	r0, r2
 448 0230 1946     		mov	r1, r3
 449 0232 FFF7FEFF 		bl	GPIO_ReadInputDataBit
 450 0236 0346     		mov	r3, r0
 235:../STM32F4-Discovery/stm32f4_discovery.c **** }
 451              		.loc 1 235 0
 452 0238 1846     		mov	r0, r3
 453 023a 07F10807 		add	r7, r7, #8
 454 023e BD46     		mov	sp, r7
 455 0240 80BD     		pop	{r7, pc}
 456              		.cfi_endproc
 457              	.LFE115:
 459              	.Letext0:
 460              		.file 2 "e:/elektronik/toolchain/yagarto/lib/gcc/../../arm-none-eabi/sys-include/stdint.h"
 461              		.file 3 "C:\\Users\\Alex\\git\\thundercyer-the-alarm-clock\\CMSIS\\Device\\STM32F4xx\\Include/stm3
 462              		.file 4 "C:\\Users\\Alex\\git\\thundercyer-the-alarm-clock\\STM32F4xx_StdPeriph_Driver\\inc/stm32f
 463              		.file 5 "C:\\Users\\Alex\\git\\thundercyer-the-alarm-clock\\STM32F4xx_StdPeriph_Driver\\inc/stm32f
 464              		.file 6 "C:\\Users\\Alex\\git\\thundercyer-the-alarm-clock\\STM32F4xx_StdPeriph_Driver\\inc/misc.h
 465              		.file 7 "../STM32F4-Discovery/stm32f4_discovery.h"
 466              		.file 8 "C:\\Users\\Alex\\git\\thundercyer-the-alarm-clock\\CMSIS\\Include/core_cm4.h"
DEFINED SYMBOLS
                            *ABS*:00000000 stm32f4_discovery.c
C:\Users\Alex\AppData\Local\Temp\ccMHbGoi.s:23     .data:00000000 GPIO_PORT
C:\Users\Alex\AppData\Local\Temp\ccMHbGoi.s:20     .data:00000000 $d
C:\Users\Alex\AppData\Local\Temp\ccMHbGoi.s:33     .rodata:00000000 GPIO_PIN
C:\Users\Alex\AppData\Local\Temp\ccMHbGoi.s:30     .rodata:00000000 $d
C:\Users\Alex\AppData\Local\Temp\ccMHbGoi.s:42     .rodata:00000008 GPIO_CLK
C:\Users\Alex\AppData\Local\Temp\ccMHbGoi.s:52     .data:00000010 BUTTON_PORT
C:\Users\Alex\AppData\Local\Temp\ccMHbGoi.s:59     .rodata:00000018 BUTTON_PIN
C:\Users\Alex\AppData\Local\Temp\ccMHbGoi.s:65     .rodata:0000001c BUTTON_CLK
C:\Users\Alex\AppData\Local\Temp\ccMHbGoi.s:71     .rodata:00000020 BUTTON_EXTI_LINE
C:\Users\Alex\AppData\Local\Temp\ccMHbGoi.s:77     .rodata:00000024 BUTTON_PORT_SOURCE
C:\Users\Alex\AppData\Local\Temp\ccMHbGoi.s:83     .rodata:00000028 BUTTON_PIN_SOURCE
C:\Users\Alex\AppData\Local\Temp\ccMHbGoi.s:89     .rodata:0000002c BUTTON_IRQn
                            *COM*:00000004 NVIC_InitStructure
C:\Users\Alex\AppData\Local\Temp\ccMHbGoi.s:93     .text:00000000 $t
C:\Users\Alex\AppData\Local\Temp\ccMHbGoi.s:98     .text:00000000 STM_EVAL_LEDInit
C:\Users\Alex\AppData\Local\Temp\ccMHbGoi.s:165    .text:0000006c STM_EVAL_LEDOn
C:\Users\Alex\AppData\Local\Temp\ccMHbGoi.s:207    .text:000000a0 STM_EVAL_LEDOff
C:\Users\Alex\AppData\Local\Temp\ccMHbGoi.s:249    .text:000000d4 STM_EVAL_LEDToggle
C:\Users\Alex\AppData\Local\Temp\ccMHbGoi.s:298    .text:0000011c STM_EVAL_PBInit
C:\Users\Alex\AppData\Local\Temp\ccMHbGoi.s:419    .text:00000208 STM_EVAL_PBGetState
                     .debug_frame:00000010 $d

UNDEFINED SYMBOLS
RCC_AHB1PeriphClockCmd
GPIO_Init
RCC_APB2PeriphClockCmd
SYSCFG_EXTILineConfig
EXTI_Init
NVIC_Init
GPIO_ReadInputDataBit
