   1              		.syntax unified
   2              		.cpu cortex-m4
   3              		.eabi_attribute 27, 3
   4              		.fpu fpv4-sp-d16
   5              		.eabi_attribute 20, 1
   6              		.eabi_attribute 21, 1
   7              		.eabi_attribute 23, 3
   8              		.eabi_attribute 24, 1
   9              		.eabi_attribute 25, 1
  10              		.eabi_attribute 26, 1
  11              		.eabi_attribute 30, 6
  12              		.eabi_attribute 18, 4
  13              		.thumb
  14              		.file	"stm32f4_discovery_audio_codec.c"
  15              		.text
  16              	.Ltext0:
  17              		.cfi_sections	.debug_frame
  18              		.comm	DMA_InitStructure,60,4
  19              		.comm	AUDIO_MAL_DMA_InitStructure,60,4
  20              		.global	AudioTotalSize
  21              		.section	.data.AudioTotalSize,"aw",%progbits
  22              		.align	2
  25              	AudioTotalSize:
  26 0000 FFFF0000 		.word	65535
  27              		.global	AudioRemSize
  28              		.section	.data.AudioRemSize,"aw",%progbits
  29              		.align	2
  32              	AudioRemSize:
  33 0000 FFFF0000 		.word	65535
  34              		.comm	CurrentPos,4,4
  35              		.global	CODECTimeout
  36              		.section	.data.CODECTimeout,"aw",%progbits
  37              		.align	2
  40              	CODECTimeout:
  41 0000 00C01200 		.word	1228800
  42              		.global	OutputDev
  43              		.section	.bss.OutputDev,"aw",%nobits
  46              	OutputDev:
  47 0000 00       		.space	1
  48              		.global	CurrAudioInterface
  49              		.section	.data.CurrAudioInterface,"aw",%progbits
  50              		.align	2
  53              	CurrAudioInterface:
  54 0000 01000000 		.word	1
  55              		.global	AUDIO_MAL_DMA_CLOCK
  56              		.section	.data.AUDIO_MAL_DMA_CLOCK,"aw",%progbits
  57              		.align	2
  60              	AUDIO_MAL_DMA_CLOCK:
  61 0000 00002000 		.word	2097152
  62              		.global	AUDIO_MAL_DMA_STREAM
  63              		.section	.data.AUDIO_MAL_DMA_STREAM,"aw",%progbits
  64              		.align	2
  67              	AUDIO_MAL_DMA_STREAM:
  68 0000 B8600240 		.word	1073897656
  69              		.global	AUDIO_MAL_DMA_DREG
  70              		.section	.data.AUDIO_MAL_DMA_DREG,"aw",%progbits
  71              		.align	2
  74              	AUDIO_MAL_DMA_DREG:
  75 0000 0C3C0040 		.word	1073757196
  76              		.global	AUDIO_MAL_DMA_CHANNEL
  77              		.section	.bss.AUDIO_MAL_DMA_CHANNEL,"aw",%nobits
  78              		.align	2
  81              	AUDIO_MAL_DMA_CHANNEL:
  82 0000 00000000 		.space	4
  83              		.global	AUDIO_MAL_DMA_IRQ
  84              		.section	.data.AUDIO_MAL_DMA_IRQ,"aw",%progbits
  85              		.align	2
  88              	AUDIO_MAL_DMA_IRQ:
  89 0000 2F000000 		.word	47
  90              		.global	AUDIO_MAL_DMA_FLAG_TC
  91              		.section	.data.AUDIO_MAL_DMA_FLAG_TC,"aw",%progbits
  92              		.align	2
  95              	AUDIO_MAL_DMA_FLAG_TC:
  96 0000 00000028 		.word	671088640
  97              		.global	AUDIO_MAL_DMA_FLAG_HT
  98              		.section	.data.AUDIO_MAL_DMA_FLAG_HT,"aw",%progbits
  99              		.align	2
 102              	AUDIO_MAL_DMA_FLAG_HT:
 103 0000 00000024 		.word	603979776
 104              		.global	AUDIO_MAL_DMA_FLAG_FE
 105              		.section	.data.AUDIO_MAL_DMA_FLAG_FE,"aw",%progbits
 106              		.align	2
 109              	AUDIO_MAL_DMA_FLAG_FE:
 110 0000 00004020 		.word	541065216
 111              		.global	AUDIO_MAL_DMA_FLAG_TE
 112              		.section	.data.AUDIO_MAL_DMA_FLAG_TE,"aw",%progbits
 113              		.align	2
 116              	AUDIO_MAL_DMA_FLAG_TE:
 117 0000 00000022 		.word	570425344
 118              		.global	AUDIO_MAL_DMA_FLAG_DME
 119              		.section	.data.AUDIO_MAL_DMA_FLAG_DME,"aw",%progbits
 120              		.align	2
 123              	AUDIO_MAL_DMA_FLAG_DME:
 124 0000 00000021 		.word	553648128
 125              		.section	.text.EVAL_AUDIO_SetAudioInterface,"ax",%progbits
 126              		.align	2
 127              		.global	EVAL_AUDIO_SetAudioInterface
 128              		.thumb
 129              		.thumb_func
 131              	EVAL_AUDIO_SetAudioInterface:
 132              	.LFB110:
 133              		.file 1 "../STM32F4-Discovery/stm32f4_discovery_audio_codec.c"
   1:../STM32F4-Discovery/stm32f4_discovery_audio_codec.c **** /**
   2:../STM32F4-Discovery/stm32f4_discovery_audio_codec.c ****   ******************************************************************************
   3:../STM32F4-Discovery/stm32f4_discovery_audio_codec.c ****   * @file    stm32f4_discovery_audio_codec.c
   4:../STM32F4-Discovery/stm32f4_discovery_audio_codec.c ****   * @author  MCD Application Team
   5:../STM32F4-Discovery/stm32f4_discovery_audio_codec.c ****   * @version V1.1.0
   6:../STM32F4-Discovery/stm32f4_discovery_audio_codec.c ****   * @date    28-October-2011
   7:../STM32F4-Discovery/stm32f4_discovery_audio_codec.c ****   * @brief   This file includes the low layer driver for CS43L22 Audio Codec
   8:../STM32F4-Discovery/stm32f4_discovery_audio_codec.c ****   *          available on STM32F4-Discovery Kit.  
   9:../STM32F4-Discovery/stm32f4_discovery_audio_codec.c ****   ******************************************************************************
  10:../STM32F4-Discovery/stm32f4_discovery_audio_codec.c ****   * @attention
  11:../STM32F4-Discovery/stm32f4_discovery_audio_codec.c ****   *
  12:../STM32F4-Discovery/stm32f4_discovery_audio_codec.c ****   * THE PRESENT FIRMWARE WHICH IS FOR GUIDANCE ONLY AIMS AT PROVIDING CUSTOMERS
  13:../STM32F4-Discovery/stm32f4_discovery_audio_codec.c ****   * WITH CODING INFORMATION REGARDING THEIR PRODUCTS IN ORDER FOR THEM TO SAVE
  14:../STM32F4-Discovery/stm32f4_discovery_audio_codec.c ****   * TIME. AS A RESULT, STMICROELECTRONICS SHALL NOT BE HELD LIABLE FOR ANY
  15:../STM32F4-Discovery/stm32f4_discovery_audio_codec.c ****   * DIRECT, INDIRECT OR CONSEQUENTIAL DAMAGES WITH RESPECT TO ANY CLAIMS ARISING
  16:../STM32F4-Discovery/stm32f4_discovery_audio_codec.c ****   * FROM THE CONTENT OF SUCH FIRMWARE AND/OR THE USE MADE BY CUSTOMERS OF THE
  17:../STM32F4-Discovery/stm32f4_discovery_audio_codec.c ****   * CODING INFORMATION CONTAINED HEREIN IN CONNECTION WITH THEIR PRODUCTS.
  18:../STM32F4-Discovery/stm32f4_discovery_audio_codec.c ****   *
  19:../STM32F4-Discovery/stm32f4_discovery_audio_codec.c ****   * <h2><center>&copy; COPYRIGHT 2011 STMicroelectronics</center></h2>
  20:../STM32F4-Discovery/stm32f4_discovery_audio_codec.c ****   ******************************************************************************  
  21:../STM32F4-Discovery/stm32f4_discovery_audio_codec.c ****   */
  22:../STM32F4-Discovery/stm32f4_discovery_audio_codec.c **** 
  23:../STM32F4-Discovery/stm32f4_discovery_audio_codec.c **** /*=================================================================================================
  24:../STM32F4-Discovery/stm32f4_discovery_audio_codec.c ****                                              User NOTES
  25:../STM32F4-Discovery/stm32f4_discovery_audio_codec.c **** 1. How To use this driver:
  26:../STM32F4-Discovery/stm32f4_discovery_audio_codec.c **** --------------------------
  27:../STM32F4-Discovery/stm32f4_discovery_audio_codec.c ****    - This driver supports STM32F4xx devices on STM32F4-Discovery Kit.
  28:../STM32F4-Discovery/stm32f4_discovery_audio_codec.c **** 
  29:../STM32F4-Discovery/stm32f4_discovery_audio_codec.c ****    - Configure the options in file stm32f4_discovery_audio_codec.h in the section CONFIGURATION.
  30:../STM32F4-Discovery/stm32f4_discovery_audio_codec.c ****       Refer to the sections 2 and 3 to have more details on the possible configurations.
  31:../STM32F4-Discovery/stm32f4_discovery_audio_codec.c **** 
  32:../STM32F4-Discovery/stm32f4_discovery_audio_codec.c ****    - Call the function EVAL_AUDIO_Init(
  33:../STM32F4-Discovery/stm32f4_discovery_audio_codec.c ****                                     OutputDevice: physical output mode (OUTPUT_DEVICE_SPEAKER, 
  34:../STM32F4-Discovery/stm32f4_discovery_audio_codec.c ****                                                  OUTPUT_DEVICE_HEADPHONE, OUTPUT_DEVICE_AUTO or 
  35:../STM32F4-Discovery/stm32f4_discovery_audio_codec.c ****                                                  OUTPUT_DEVICE_BOTH)
  36:../STM32F4-Discovery/stm32f4_discovery_audio_codec.c ****                                     Volume: initial volume to be set (0 is min (mute), 100 is max (
  37:../STM32F4-Discovery/stm32f4_discovery_audio_codec.c ****                                     AudioFreq: Audio frequency in Hz (8000, 16000, 22500, 32000 ...
  38:../STM32F4-Discovery/stm32f4_discovery_audio_codec.c ****                                     this parameter is relative to the audio file/stream type.
  39:../STM32F4-Discovery/stm32f4_discovery_audio_codec.c ****                                    )
  40:../STM32F4-Discovery/stm32f4_discovery_audio_codec.c ****       This function configures all the hardware required for the audio application (codec, I2C, I2S
  41:../STM32F4-Discovery/stm32f4_discovery_audio_codec.c ****       GPIOs, DMA and interrupt if needed). This function returns 0 if configuration is OK.
  42:../STM32F4-Discovery/stm32f4_discovery_audio_codec.c ****       if the returned value is different from 0 or the function is stuck then the communication wit
  43:../STM32F4-Discovery/stm32f4_discovery_audio_codec.c ****       the codec (try to un-plug the power or reset device in this case).
  44:../STM32F4-Discovery/stm32f4_discovery_audio_codec.c ****       + OUTPUT_DEVICE_SPEAKER: only speaker will be set as output for the audio stream.
  45:../STM32F4-Discovery/stm32f4_discovery_audio_codec.c ****       + OUTPUT_DEVICE_HEADPHONE: only headphones will be set as output for the audio stream.
  46:../STM32F4-Discovery/stm32f4_discovery_audio_codec.c ****       + OUTPUT_DEVICE_AUTO: Selection of output device is made through external switch (implemented
  47:../STM32F4-Discovery/stm32f4_discovery_audio_codec.c ****          into the audio jack on the evaluation board). When the Headphone is connected it is used
  48:../STM32F4-Discovery/stm32f4_discovery_audio_codec.c ****          as output. When the headphone is disconnected from the audio jack, the output is
  49:../STM32F4-Discovery/stm32f4_discovery_audio_codec.c ****          automatically switched to Speaker.
  50:../STM32F4-Discovery/stm32f4_discovery_audio_codec.c ****       + OUTPUT_DEVICE_BOTH: both Speaker and Headphone are used as outputs for the audio stream
  51:../STM32F4-Discovery/stm32f4_discovery_audio_codec.c ****          at the same time.
  52:../STM32F4-Discovery/stm32f4_discovery_audio_codec.c **** 
  53:../STM32F4-Discovery/stm32f4_discovery_audio_codec.c ****    - Call the function EVAL_AUDIO_Play(
  54:../STM32F4-Discovery/stm32f4_discovery_audio_codec.c ****                                   pBuffer: pointer to the audio data file address
  55:../STM32F4-Discovery/stm32f4_discovery_audio_codec.c ****                                   Size: size of the buffer to be sent in Bytes
  56:../STM32F4-Discovery/stm32f4_discovery_audio_codec.c ****                                  )
  57:../STM32F4-Discovery/stm32f4_discovery_audio_codec.c ****       to start playing (for the first time) from the audio file/stream.
  58:../STM32F4-Discovery/stm32f4_discovery_audio_codec.c **** 
  59:../STM32F4-Discovery/stm32f4_discovery_audio_codec.c ****    - Call the function EVAL_AUDIO_PauseResume(
  60:../STM32F4-Discovery/stm32f4_discovery_audio_codec.c ****                                          Cmd: AUDIO_PAUSE (or 0) to pause playing or AUDIO_RESUME (
  61:../STM32F4-Discovery/stm32f4_discovery_audio_codec.c ****                                                any value different from 0) to resume playing.
  62:../STM32F4-Discovery/stm32f4_discovery_audio_codec.c ****                                          )
  63:../STM32F4-Discovery/stm32f4_discovery_audio_codec.c ****        Note. After calling EVAL_AUDIO_PauseResume() function for pause, only EVAL_AUDIO_PauseResume
  64:../STM32F4-Discovery/stm32f4_discovery_audio_codec.c ****           for resume (it is not allowed to call EVAL_AUDIO_Play() in this case).
  65:../STM32F4-Discovery/stm32f4_discovery_audio_codec.c ****        Note. This function should be called only when the audio file is played or paused (not stopp
  66:../STM32F4-Discovery/stm32f4_discovery_audio_codec.c **** 
  67:../STM32F4-Discovery/stm32f4_discovery_audio_codec.c ****    - For each mode, you may need to implement the relative callback functions into your code.
  68:../STM32F4-Discovery/stm32f4_discovery_audio_codec.c ****       The Callback functions are named EVAL_AUDIO_XXX_CallBack() and only their prototypes are decl
  69:../STM32F4-Discovery/stm32f4_discovery_audio_codec.c ****       the stm32f4_discovery_audio_codec.h file. (refer to the example for more details on the callb
  70:../STM32F4-Discovery/stm32f4_discovery_audio_codec.c **** 
  71:../STM32F4-Discovery/stm32f4_discovery_audio_codec.c ****    - To Stop playing, to modify the volume level or to mute, use the functions
  72:../STM32F4-Discovery/stm32f4_discovery_audio_codec.c ****        EVAL_AUDIO_Stop(), EVAL_AUDIO_VolumeCtl() and EVAL_AUDIO_Mute().
  73:../STM32F4-Discovery/stm32f4_discovery_audio_codec.c **** 
  74:../STM32F4-Discovery/stm32f4_discovery_audio_codec.c ****    - The driver API and the callback functions are at the end of the stm32f4_discovery_audio_codec.
  75:../STM32F4-Discovery/stm32f4_discovery_audio_codec.c ****  
  76:../STM32F4-Discovery/stm32f4_discovery_audio_codec.c **** 
  77:../STM32F4-Discovery/stm32f4_discovery_audio_codec.c ****  Driver architecture:
  78:../STM32F4-Discovery/stm32f4_discovery_audio_codec.c ****  --------------------
  79:../STM32F4-Discovery/stm32f4_discovery_audio_codec.c ****  This driver is composed of three main layers:
  80:../STM32F4-Discovery/stm32f4_discovery_audio_codec.c ****    o High Audio Layer: consists of the function API exported in the stm32f4_discovery_audio_codec.h
  81:../STM32F4-Discovery/stm32f4_discovery_audio_codec.c ****      (EVAL_AUDIO_Init(), EVAL_AUDIO_Play() ...)
  82:../STM32F4-Discovery/stm32f4_discovery_audio_codec.c ****    o Codec Control layer: consists of the functions API controlling the audio codec (CS43L22) and 
  83:../STM32F4-Discovery/stm32f4_discovery_audio_codec.c ****      included as local functions in file stm32f4_discovery_audio_codec.c (Codec_Init(), Codec_Play(
  84:../STM32F4-Discovery/stm32f4_discovery_audio_codec.c ****    o Media Access Layer (MAL): which consists of functions allowing to access the media containing/
  85:../STM32F4-Discovery/stm32f4_discovery_audio_codec.c ****      providing the audio file/stream. These functions are also included as local functions into
  86:../STM32F4-Discovery/stm32f4_discovery_audio_codec.c ****      the stm32f4_discovery_audio_codec.c file (Audio_MAL_Init(), Audio_MAL_Play() ...)
  87:../STM32F4-Discovery/stm32f4_discovery_audio_codec.c ****   Each set of functions (layer) may be implemented independently of the others and customized when 
  88:../STM32F4-Discovery/stm32f4_discovery_audio_codec.c ****   needed.    
  89:../STM32F4-Discovery/stm32f4_discovery_audio_codec.c **** 
  90:../STM32F4-Discovery/stm32f4_discovery_audio_codec.c **** 2. Modes description:
  91:../STM32F4-Discovery/stm32f4_discovery_audio_codec.c **** ---------------------
  92:../STM32F4-Discovery/stm32f4_discovery_audio_codec.c ****      + AUDIO_MAL_MODE_NORMAL : is suitable when the audio file is in a memory location.
  93:../STM32F4-Discovery/stm32f4_discovery_audio_codec.c ****      + AUDIO_MAL_MODE_CIRCULAR: is suitable when the audio data are read either from a 
  94:../STM32F4-Discovery/stm32f4_discovery_audio_codec.c ****         memory location or from a device at real time (double buffer could be used).
  95:../STM32F4-Discovery/stm32f4_discovery_audio_codec.c **** 
  96:../STM32F4-Discovery/stm32f4_discovery_audio_codec.c **** 3. DMA interrupts description:
  97:../STM32F4-Discovery/stm32f4_discovery_audio_codec.c **** ------------------------------
  98:../STM32F4-Discovery/stm32f4_discovery_audio_codec.c ****      + EVAL_AUDIO_IT_TC_ENABLE: Enable this define to use the DMA end of transfer interrupt.
  99:../STM32F4-Discovery/stm32f4_discovery_audio_codec.c ****         then, a callback should be implemented by user to perform specific actions
 100:../STM32F4-Discovery/stm32f4_discovery_audio_codec.c ****         when the DMA has finished the transfer.
 101:../STM32F4-Discovery/stm32f4_discovery_audio_codec.c ****      + EVAL_AUDIO_IT_HT_ENABLE: Enable this define to use the DMA end of half transfer interrupt.
 102:../STM32F4-Discovery/stm32f4_discovery_audio_codec.c ****         then, a callback should be implemented by user to perform specific actions
 103:../STM32F4-Discovery/stm32f4_discovery_audio_codec.c ****         when the DMA has reached the half of the buffer transfer (generally, it is useful 
 104:../STM32F4-Discovery/stm32f4_discovery_audio_codec.c ****         to load the first half of buffer while DMA is loading from the second half).
 105:../STM32F4-Discovery/stm32f4_discovery_audio_codec.c ****      + EVAL_AUDIO_IT_ER_ENABLE: Enable this define to manage the cases of error on DMA transfer.
 106:../STM32F4-Discovery/stm32f4_discovery_audio_codec.c **** 
 107:../STM32F4-Discovery/stm32f4_discovery_audio_codec.c **** 4. Known Limitations:
 108:../STM32F4-Discovery/stm32f4_discovery_audio_codec.c **** ---------------------
 109:../STM32F4-Discovery/stm32f4_discovery_audio_codec.c ****    1- When using the Speaker, if the audio file quality is not high enough, the speaker output
 110:../STM32F4-Discovery/stm32f4_discovery_audio_codec.c ****       may produce high and uncomfortable noise level. To avoid this issue, to use speaker
 111:../STM32F4-Discovery/stm32f4_discovery_audio_codec.c ****       output properly, try to increase audio file sampling rate (typically higher than 48KHz).
 112:../STM32F4-Discovery/stm32f4_discovery_audio_codec.c ****       This operation will lead to larger file size.
 113:../STM32F4-Discovery/stm32f4_discovery_audio_codec.c ****    2- Communication with the audio codec (through I2C) may be corrupted if it is interrupted by som
 114:../STM32F4-Discovery/stm32f4_discovery_audio_codec.c ****       user interrupt routines (in this case, interrupts could be disabled just before the start of 
 115:../STM32F4-Discovery/stm32f4_discovery_audio_codec.c ****       communication then re-enabled when it is over). Note that this communication is only done at
 116:../STM32F4-Discovery/stm32f4_discovery_audio_codec.c ****       the configuration phase (EVAL_AUDIO_Init() or EVAL_AUDIO_Stop()) and when Volume control modi
 117:../STM32F4-Discovery/stm32f4_discovery_audio_codec.c ****       performed (EVAL_AUDIO_VolumeCtl() or EVAL_AUDIO_Mute()). When the audio data is played, no co
 118:../STM32F4-Discovery/stm32f4_discovery_audio_codec.c ****       required with the audio codec.
 119:../STM32F4-Discovery/stm32f4_discovery_audio_codec.c ****   3- Parsing of audio file is not implemented (in order to determine audio file properties: Mono/St
 120:../STM32F4-Discovery/stm32f4_discovery_audio_codec.c ****      File size, Audio Frequency, Audio Data header size ...). The configuration is fixed for the gi
 121:../STM32F4-Discovery/stm32f4_discovery_audio_codec.c ****   4- Mono audio streaming is not supported (in order to play mono audio streams, each data should b
 122:../STM32F4-Discovery/stm32f4_discovery_audio_codec.c ****      on the I2S or should be duplicated on the source buffer. Or convert the stream in stereo befor
 123:../STM32F4-Discovery/stm32f4_discovery_audio_codec.c ****   5- Supports only 16-bit audio data size.
 124:../STM32F4-Discovery/stm32f4_discovery_audio_codec.c **** ===================================================================================================
 125:../STM32F4-Discovery/stm32f4_discovery_audio_codec.c **** 
 126:../STM32F4-Discovery/stm32f4_discovery_audio_codec.c **** 
 127:../STM32F4-Discovery/stm32f4_discovery_audio_codec.c **** /* Includes ------------------------------------------------------------------*/
 128:../STM32F4-Discovery/stm32f4_discovery_audio_codec.c **** #include "stm32f4_discovery_audio_codec.h"
 129:../STM32F4-Discovery/stm32f4_discovery_audio_codec.c **** 
 130:../STM32F4-Discovery/stm32f4_discovery_audio_codec.c **** /** @addtogroup Utilities
 131:../STM32F4-Discovery/stm32f4_discovery_audio_codec.c ****   * @{
 132:../STM32F4-Discovery/stm32f4_discovery_audio_codec.c ****   */
 133:../STM32F4-Discovery/stm32f4_discovery_audio_codec.c ****   
 134:../STM32F4-Discovery/stm32f4_discovery_audio_codec.c **** /** @addtogroup STM32F4_DISCOVERY
 135:../STM32F4-Discovery/stm32f4_discovery_audio_codec.c ****   * @{
 136:../STM32F4-Discovery/stm32f4_discovery_audio_codec.c ****   */
 137:../STM32F4-Discovery/stm32f4_discovery_audio_codec.c **** 
 138:../STM32F4-Discovery/stm32f4_discovery_audio_codec.c **** /** @addtogroup STM32F4_DISCOVERY_AUDIO_CODEC
 139:../STM32F4-Discovery/stm32f4_discovery_audio_codec.c ****   * @brief       This file includes the low layer driver for CS43L22 Audio Codec
 140:../STM32F4-Discovery/stm32f4_discovery_audio_codec.c ****   *              available on STM32F4-Discovery Kit.
 141:../STM32F4-Discovery/stm32f4_discovery_audio_codec.c ****   * @{
 142:../STM32F4-Discovery/stm32f4_discovery_audio_codec.c ****   */ 
 143:../STM32F4-Discovery/stm32f4_discovery_audio_codec.c **** 
 144:../STM32F4-Discovery/stm32f4_discovery_audio_codec.c **** /** @defgroup STM32F4_DISCOVERY_AUDIO_CODEC_Private_Types
 145:../STM32F4-Discovery/stm32f4_discovery_audio_codec.c ****   * @{
 146:../STM32F4-Discovery/stm32f4_discovery_audio_codec.c ****   */ 
 147:../STM32F4-Discovery/stm32f4_discovery_audio_codec.c **** /**
 148:../STM32F4-Discovery/stm32f4_discovery_audio_codec.c ****   * @}
 149:../STM32F4-Discovery/stm32f4_discovery_audio_codec.c ****   */ 
 150:../STM32F4-Discovery/stm32f4_discovery_audio_codec.c ****   
 151:../STM32F4-Discovery/stm32f4_discovery_audio_codec.c **** /** @defgroup STM32F4_DISCOVERY_AUDIO_CODEC_Private_Defines
 152:../STM32F4-Discovery/stm32f4_discovery_audio_codec.c ****   * @{
 153:../STM32F4-Discovery/stm32f4_discovery_audio_codec.c ****   */ 
 154:../STM32F4-Discovery/stm32f4_discovery_audio_codec.c **** 
 155:../STM32F4-Discovery/stm32f4_discovery_audio_codec.c **** /* Mask for the bit EN of the I2S CFGR register */
 156:../STM32F4-Discovery/stm32f4_discovery_audio_codec.c **** #define I2S_ENABLE_MASK                 0x0400
 157:../STM32F4-Discovery/stm32f4_discovery_audio_codec.c **** 
 158:../STM32F4-Discovery/stm32f4_discovery_audio_codec.c **** /* Delay for the Codec to be correctly reset */
 159:../STM32F4-Discovery/stm32f4_discovery_audio_codec.c **** #define CODEC_RESET_DELAY               0x4FFF
 160:../STM32F4-Discovery/stm32f4_discovery_audio_codec.c **** 
 161:../STM32F4-Discovery/stm32f4_discovery_audio_codec.c **** /* Codec audio Standards */
 162:../STM32F4-Discovery/stm32f4_discovery_audio_codec.c **** #ifdef I2S_STANDARD_PHILLIPS
 163:../STM32F4-Discovery/stm32f4_discovery_audio_codec.c ****  #define  CODEC_STANDARD                0x04
 164:../STM32F4-Discovery/stm32f4_discovery_audio_codec.c ****  #define I2S_STANDARD                   I2S_Standard_Phillips         
 165:../STM32F4-Discovery/stm32f4_discovery_audio_codec.c **** #elif defined(I2S_STANDARD_MSB)
 166:../STM32F4-Discovery/stm32f4_discovery_audio_codec.c ****  #define  CODEC_STANDARD                0x00
 167:../STM32F4-Discovery/stm32f4_discovery_audio_codec.c ****  #define I2S_STANDARD                   I2S_Standard_MSB    
 168:../STM32F4-Discovery/stm32f4_discovery_audio_codec.c **** #elif defined(I2S_STANDARD_LSB)
 169:../STM32F4-Discovery/stm32f4_discovery_audio_codec.c ****  #define  CODEC_STANDARD                0x08
 170:../STM32F4-Discovery/stm32f4_discovery_audio_codec.c ****  #define I2S_STANDARD                   I2S_Standard_LSB    
 171:../STM32F4-Discovery/stm32f4_discovery_audio_codec.c **** #else 
 172:../STM32F4-Discovery/stm32f4_discovery_audio_codec.c ****  #error "Error: No audio communication standard selected !"
 173:../STM32F4-Discovery/stm32f4_discovery_audio_codec.c **** #endif /* I2S_STANDARD */
 174:../STM32F4-Discovery/stm32f4_discovery_audio_codec.c **** 
 175:../STM32F4-Discovery/stm32f4_discovery_audio_codec.c **** /* The 7 bits Codec address (sent through I2C interface) */
 176:../STM32F4-Discovery/stm32f4_discovery_audio_codec.c **** #define CODEC_ADDRESS                   0x94  /* b00100111 */
 177:../STM32F4-Discovery/stm32f4_discovery_audio_codec.c **** /**
 178:../STM32F4-Discovery/stm32f4_discovery_audio_codec.c ****   * @}
 179:../STM32F4-Discovery/stm32f4_discovery_audio_codec.c ****   */ 
 180:../STM32F4-Discovery/stm32f4_discovery_audio_codec.c **** 
 181:../STM32F4-Discovery/stm32f4_discovery_audio_codec.c **** /** @defgroup STM32F4_DISCOVERY_AUDIO_CODEC_Private_Macros
 182:../STM32F4-Discovery/stm32f4_discovery_audio_codec.c ****   * @{
 183:../STM32F4-Discovery/stm32f4_discovery_audio_codec.c ****   */
 184:../STM32F4-Discovery/stm32f4_discovery_audio_codec.c **** /**
 185:../STM32F4-Discovery/stm32f4_discovery_audio_codec.c ****   * @}
 186:../STM32F4-Discovery/stm32f4_discovery_audio_codec.c ****   */ 
 187:../STM32F4-Discovery/stm32f4_discovery_audio_codec.c ****   
 188:../STM32F4-Discovery/stm32f4_discovery_audio_codec.c **** /** @defgroup STM32F4_DISCOVERY_AUDIO_CODEC_Private_Variables
 189:../STM32F4-Discovery/stm32f4_discovery_audio_codec.c ****   * @{
 190:../STM32F4-Discovery/stm32f4_discovery_audio_codec.c ****   */
 191:../STM32F4-Discovery/stm32f4_discovery_audio_codec.c **** /* This structure is declared global because it is handled by two different functions */
 192:../STM32F4-Discovery/stm32f4_discovery_audio_codec.c **** DMA_InitTypeDef DMA_InitStructure; 
 193:../STM32F4-Discovery/stm32f4_discovery_audio_codec.c **** DMA_InitTypeDef AUDIO_MAL_DMA_InitStructure;
 194:../STM32F4-Discovery/stm32f4_discovery_audio_codec.c **** 
 195:../STM32F4-Discovery/stm32f4_discovery_audio_codec.c **** uint32_t AudioTotalSize = 0xFFFF; /* This variable holds the total size of the audio file */
 196:../STM32F4-Discovery/stm32f4_discovery_audio_codec.c **** uint32_t AudioRemSize   = 0xFFFF; /* This variable holds the remaining data in audio file */
 197:../STM32F4-Discovery/stm32f4_discovery_audio_codec.c **** uint16_t *CurrentPos ;             /* This variable holds the current position of audio pointer */
 198:../STM32F4-Discovery/stm32f4_discovery_audio_codec.c **** 
 199:../STM32F4-Discovery/stm32f4_discovery_audio_codec.c **** __IO uint32_t  CODECTimeout = CODEC_LONG_TIMEOUT;   
 200:../STM32F4-Discovery/stm32f4_discovery_audio_codec.c **** __IO uint8_t OutputDev = 0;
 201:../STM32F4-Discovery/stm32f4_discovery_audio_codec.c **** 
 202:../STM32F4-Discovery/stm32f4_discovery_audio_codec.c **** 
 203:../STM32F4-Discovery/stm32f4_discovery_audio_codec.c **** __IO uint32_t CurrAudioInterface = AUDIO_INTERFACE_I2S; //AUDIO_INTERFACE_DAC
 204:../STM32F4-Discovery/stm32f4_discovery_audio_codec.c **** /**
 205:../STM32F4-Discovery/stm32f4_discovery_audio_codec.c ****   * @}
 206:../STM32F4-Discovery/stm32f4_discovery_audio_codec.c ****   */ 
 207:../STM32F4-Discovery/stm32f4_discovery_audio_codec.c **** 
 208:../STM32F4-Discovery/stm32f4_discovery_audio_codec.c **** /** @defgroup STM32F4_DISCOVERY_AUDIO_CODEC_Private_Function_Prototypes
 209:../STM32F4-Discovery/stm32f4_discovery_audio_codec.c ****   * @{
 210:../STM32F4-Discovery/stm32f4_discovery_audio_codec.c ****   */ 
 211:../STM32F4-Discovery/stm32f4_discovery_audio_codec.c **** /**
 212:../STM32F4-Discovery/stm32f4_discovery_audio_codec.c ****   * @}
 213:../STM32F4-Discovery/stm32f4_discovery_audio_codec.c ****   */ 
 214:../STM32F4-Discovery/stm32f4_discovery_audio_codec.c **** 
 215:../STM32F4-Discovery/stm32f4_discovery_audio_codec.c **** /** @defgroup STM32F4_DISCOVERY_AUDIO_CODEC_Private_Functions
 216:../STM32F4-Discovery/stm32f4_discovery_audio_codec.c ****   * @{
 217:../STM32F4-Discovery/stm32f4_discovery_audio_codec.c ****   */ 
 218:../STM32F4-Discovery/stm32f4_discovery_audio_codec.c **** static void Audio_MAL_IRQHandler(void);
 219:../STM32F4-Discovery/stm32f4_discovery_audio_codec.c **** /*-----------------------------------
 220:../STM32F4-Discovery/stm32f4_discovery_audio_codec.c ****                            Audio Codec functions 
 221:../STM32F4-Discovery/stm32f4_discovery_audio_codec.c ****                                     ------------------------------------------*/
 222:../STM32F4-Discovery/stm32f4_discovery_audio_codec.c **** /* High Layer codec functions */
 223:../STM32F4-Discovery/stm32f4_discovery_audio_codec.c **** static uint32_t Codec_Init(uint16_t OutputDevice, uint8_t Volume, uint32_t AudioFreq);
 224:../STM32F4-Discovery/stm32f4_discovery_audio_codec.c **** static uint32_t Codec_DeInit(void);
 225:../STM32F4-Discovery/stm32f4_discovery_audio_codec.c **** static uint32_t Codec_Play(void);
 226:../STM32F4-Discovery/stm32f4_discovery_audio_codec.c **** static uint32_t Codec_PauseResume(uint32_t Cmd);
 227:../STM32F4-Discovery/stm32f4_discovery_audio_codec.c **** static uint32_t Codec_Stop(uint32_t Cmd);
 228:../STM32F4-Discovery/stm32f4_discovery_audio_codec.c **** static uint32_t Codec_VolumeCtrl(uint8_t Volume);
 229:../STM32F4-Discovery/stm32f4_discovery_audio_codec.c **** static uint32_t Codec_Mute(uint32_t Cmd);
 230:../STM32F4-Discovery/stm32f4_discovery_audio_codec.c **** /* Low layer codec functions */
 231:../STM32F4-Discovery/stm32f4_discovery_audio_codec.c **** static void     Codec_CtrlInterface_Init(void);
 232:../STM32F4-Discovery/stm32f4_discovery_audio_codec.c **** static void     Codec_CtrlInterface_DeInit(void);
 233:../STM32F4-Discovery/stm32f4_discovery_audio_codec.c **** static void     Codec_AudioInterface_Init(uint32_t AudioFreq);
 234:../STM32F4-Discovery/stm32f4_discovery_audio_codec.c **** static void     Codec_AudioInterface_DeInit(void);
 235:../STM32F4-Discovery/stm32f4_discovery_audio_codec.c **** static void     Codec_Reset(void);
 236:../STM32F4-Discovery/stm32f4_discovery_audio_codec.c **** static uint32_t Codec_WriteRegister(uint8_t RegisterAddr, uint8_t RegisterValue);
 237:../STM32F4-Discovery/stm32f4_discovery_audio_codec.c **** static uint32_t Codec_ReadRegister(uint8_t RegisterAddr);
 238:../STM32F4-Discovery/stm32f4_discovery_audio_codec.c **** static void     Codec_GPIO_Init(void);
 239:../STM32F4-Discovery/stm32f4_discovery_audio_codec.c **** static void     Codec_GPIO_DeInit(void);
 240:../STM32F4-Discovery/stm32f4_discovery_audio_codec.c **** static void     Delay(__IO uint32_t nCount);
 241:../STM32F4-Discovery/stm32f4_discovery_audio_codec.c **** /*----------------------------------------------------------------------------*/
 242:../STM32F4-Discovery/stm32f4_discovery_audio_codec.c **** 
 243:../STM32F4-Discovery/stm32f4_discovery_audio_codec.c **** /*-----------------------------------
 244:../STM32F4-Discovery/stm32f4_discovery_audio_codec.c ****                    MAL (Media Access Layer) functions 
 245:../STM32F4-Discovery/stm32f4_discovery_audio_codec.c ****                                     ------------------------------------------*/
 246:../STM32F4-Discovery/stm32f4_discovery_audio_codec.c **** /* Peripherals configuration functions */
 247:../STM32F4-Discovery/stm32f4_discovery_audio_codec.c **** static void     Audio_MAL_Init(void);
 248:../STM32F4-Discovery/stm32f4_discovery_audio_codec.c **** static void     Audio_MAL_DeInit(void);
 249:../STM32F4-Discovery/stm32f4_discovery_audio_codec.c **** static void     Audio_MAL_PauseResume(uint32_t Cmd, uint32_t Addr);
 250:../STM32F4-Discovery/stm32f4_discovery_audio_codec.c **** static void     Audio_MAL_Stop(void);
 251:../STM32F4-Discovery/stm32f4_discovery_audio_codec.c **** /*----------------------------------------------------------------------------*/
 252:../STM32F4-Discovery/stm32f4_discovery_audio_codec.c **** 
 253:../STM32F4-Discovery/stm32f4_discovery_audio_codec.c ****  /* DMA Stream definitions */
 254:../STM32F4-Discovery/stm32f4_discovery_audio_codec.c ****  uint32_t AUDIO_MAL_DMA_CLOCK    = AUDIO_I2S_DMA_CLOCK;
 255:../STM32F4-Discovery/stm32f4_discovery_audio_codec.c ****  DMA_Stream_TypeDef * AUDIO_MAL_DMA_STREAM   = AUDIO_I2S_DMA_STREAM ;       
 256:../STM32F4-Discovery/stm32f4_discovery_audio_codec.c ****  uint32_t AUDIO_MAL_DMA_DREG     = AUDIO_I2S_DMA_DREG;
 257:../STM32F4-Discovery/stm32f4_discovery_audio_codec.c ****  uint32_t AUDIO_MAL_DMA_CHANNEL  = AUDIO_I2S_DMA_CHANNEL;
 258:../STM32F4-Discovery/stm32f4_discovery_audio_codec.c ****  uint32_t AUDIO_MAL_DMA_IRQ      = AUDIO_I2S_DMA_IRQ  ;
 259:../STM32F4-Discovery/stm32f4_discovery_audio_codec.c ****  uint32_t AUDIO_MAL_DMA_FLAG_TC  = AUDIO_I2S_DMA_FLAG_TC;
 260:../STM32F4-Discovery/stm32f4_discovery_audio_codec.c ****  uint32_t AUDIO_MAL_DMA_FLAG_HT  = AUDIO_I2S_DMA_FLAG_HT;
 261:../STM32F4-Discovery/stm32f4_discovery_audio_codec.c ****  uint32_t AUDIO_MAL_DMA_FLAG_FE  = AUDIO_I2S_DMA_FLAG_FE;
 262:../STM32F4-Discovery/stm32f4_discovery_audio_codec.c ****  uint32_t AUDIO_MAL_DMA_FLAG_TE  = AUDIO_I2S_DMA_FLAG_TE;
 263:../STM32F4-Discovery/stm32f4_discovery_audio_codec.c ****  uint32_t AUDIO_MAL_DMA_FLAG_DME = AUDIO_I2S_DMA_FLAG_DME;
 264:../STM32F4-Discovery/stm32f4_discovery_audio_codec.c **** 
 265:../STM32F4-Discovery/stm32f4_discovery_audio_codec.c **** /**
 266:../STM32F4-Discovery/stm32f4_discovery_audio_codec.c ****   * @brief  Set the current audio interface (I2S or DAC).
 267:../STM32F4-Discovery/stm32f4_discovery_audio_codec.c ****   * @param  Interface: AUDIO_INTERFACE_I2S or AUDIO_INTERFACE_DAC
 268:../STM32F4-Discovery/stm32f4_discovery_audio_codec.c ****   * @retval None
 269:../STM32F4-Discovery/stm32f4_discovery_audio_codec.c ****   */
 270:../STM32F4-Discovery/stm32f4_discovery_audio_codec.c **** void EVAL_AUDIO_SetAudioInterface(uint32_t Interface)
 271:../STM32F4-Discovery/stm32f4_discovery_audio_codec.c **** {    
 134              		.loc 1 271 0
 135              		.cfi_startproc
 136              		@ args = 0, pretend = 0, frame = 8
 137              		@ frame_needed = 1, uses_anonymous_args = 0
 138              		@ link register save eliminated.
 139 0000 80B4     		push	{r7}
 140              	.LCFI0:
 141              		.cfi_def_cfa_offset 4
 142              		.cfi_offset 7, -4
 143 0002 83B0     		sub	sp, sp, #12
 144              	.LCFI1:
 145              		.cfi_def_cfa_offset 16
 146 0004 00AF     		add	r7, sp, #0
 147              	.LCFI2:
 148              		.cfi_def_cfa_register 7
 149 0006 7860     		str	r0, [r7, #4]
 272:../STM32F4-Discovery/stm32f4_discovery_audio_codec.c ****   CurrAudioInterface = Interface;
 150              		.loc 1 272 0
 151 0008 40F20003 		movw	r3, #:lower16:CurrAudioInterface
 152 000c C0F20003 		movt	r3, #:upper16:CurrAudioInterface
 153 0010 7A68     		ldr	r2, [r7, #4]
 154 0012 1A60     		str	r2, [r3, #0]
 273:../STM32F4-Discovery/stm32f4_discovery_audio_codec.c ****   
 274:../STM32F4-Discovery/stm32f4_discovery_audio_codec.c ****   if (CurrAudioInterface == AUDIO_INTERFACE_I2S)
 155              		.loc 1 274 0
 156 0014 40F20003 		movw	r3, #:lower16:CurrAudioInterface
 157 0018 C0F20003 		movt	r3, #:upper16:CurrAudioInterface
 158 001c 1B68     		ldr	r3, [r3, #0]
 159 001e 012B     		cmp	r3, #1
 160 0020 4AD1     		bne	.L2
 275:../STM32F4-Discovery/stm32f4_discovery_audio_codec.c ****   {
 276:../STM32F4-Discovery/stm32f4_discovery_audio_codec.c ****     /* DMA Stream definitions */
 277:../STM32F4-Discovery/stm32f4_discovery_audio_codec.c ****     AUDIO_MAL_DMA_CLOCK    = AUDIO_I2S_DMA_CLOCK;
 161              		.loc 1 277 0
 162 0022 40F20003 		movw	r3, #:lower16:AUDIO_MAL_DMA_CLOCK
 163 0026 C0F20003 		movt	r3, #:upper16:AUDIO_MAL_DMA_CLOCK
 164 002a 4FF40012 		mov	r2, #2097152
 165 002e 1A60     		str	r2, [r3, #0]
 278:../STM32F4-Discovery/stm32f4_discovery_audio_codec.c ****     AUDIO_MAL_DMA_STREAM   = AUDIO_I2S_DMA_STREAM;        
 166              		.loc 1 278 0
 167 0030 40F20003 		movw	r3, #:lower16:AUDIO_MAL_DMA_STREAM
 168 0034 C0F20003 		movt	r3, #:upper16:AUDIO_MAL_DMA_STREAM
 169 0038 46F2B802 		movw	r2, #24760
 170 003c C4F20202 		movt	r2, 16386
 171 0040 1A60     		str	r2, [r3, #0]
 279:../STM32F4-Discovery/stm32f4_discovery_audio_codec.c ****     AUDIO_MAL_DMA_DREG     = AUDIO_I2S_DMA_DREG;
 172              		.loc 1 279 0
 173 0042 40F20003 		movw	r3, #:lower16:AUDIO_MAL_DMA_DREG
 174 0046 C0F20003 		movt	r3, #:upper16:AUDIO_MAL_DMA_DREG
 175 004a 43F60C42 		movw	r2, #15372
 176 004e C4F20002 		movt	r2, 16384
 177 0052 1A60     		str	r2, [r3, #0]
 280:../STM32F4-Discovery/stm32f4_discovery_audio_codec.c ****     AUDIO_MAL_DMA_CHANNEL  = AUDIO_I2S_DMA_CHANNEL;
 178              		.loc 1 280 0
 179 0054 40F20003 		movw	r3, #:lower16:AUDIO_MAL_DMA_CHANNEL
 180 0058 C0F20003 		movt	r3, #:upper16:AUDIO_MAL_DMA_CHANNEL
 181 005c 4FF00002 		mov	r2, #0
 182 0060 1A60     		str	r2, [r3, #0]
 281:../STM32F4-Discovery/stm32f4_discovery_audio_codec.c ****     AUDIO_MAL_DMA_IRQ      = AUDIO_I2S_DMA_IRQ  ;
 183              		.loc 1 281 0
 184 0062 40F20003 		movw	r3, #:lower16:AUDIO_MAL_DMA_IRQ
 185 0066 C0F20003 		movt	r3, #:upper16:AUDIO_MAL_DMA_IRQ
 186 006a 4FF02F02 		mov	r2, #47
 187 006e 1A60     		str	r2, [r3, #0]
 282:../STM32F4-Discovery/stm32f4_discovery_audio_codec.c ****     AUDIO_MAL_DMA_FLAG_TC  = AUDIO_I2S_DMA_FLAG_TC;
 188              		.loc 1 282 0
 189 0070 40F20003 		movw	r3, #:lower16:AUDIO_MAL_DMA_FLAG_TC
 190 0074 C0F20003 		movt	r3, #:upper16:AUDIO_MAL_DMA_FLAG_TC
 191 0078 4FF02052 		mov	r2, #671088640
 192 007c 1A60     		str	r2, [r3, #0]
 283:../STM32F4-Discovery/stm32f4_discovery_audio_codec.c ****     AUDIO_MAL_DMA_FLAG_HT  = AUDIO_I2S_DMA_FLAG_HT;
 193              		.loc 1 283 0
 194 007e 40F20003 		movw	r3, #:lower16:AUDIO_MAL_DMA_FLAG_HT
 195 0082 C0F20003 		movt	r3, #:upper16:AUDIO_MAL_DMA_FLAG_HT
 196 0086 4FF01052 		mov	r2, #603979776
 197 008a 1A60     		str	r2, [r3, #0]
 284:../STM32F4-Discovery/stm32f4_discovery_audio_codec.c ****     AUDIO_MAL_DMA_FLAG_FE  = AUDIO_I2S_DMA_FLAG_FE;
 198              		.loc 1 284 0
 199 008c 40F20003 		movw	r3, #:lower16:AUDIO_MAL_DMA_FLAG_FE
 200 0090 C0F20003 		movt	r3, #:upper16:AUDIO_MAL_DMA_FLAG_FE
 201 0094 4FF00152 		mov	r2, #541065216
 202 0098 1A60     		str	r2, [r3, #0]
 285:../STM32F4-Discovery/stm32f4_discovery_audio_codec.c ****     AUDIO_MAL_DMA_FLAG_TE  = AUDIO_I2S_DMA_FLAG_TE;
 203              		.loc 1 285 0
 204 009a 40F20003 		movw	r3, #:lower16:AUDIO_MAL_DMA_FLAG_TE
 205 009e C0F20003 		movt	r3, #:upper16:AUDIO_MAL_DMA_FLAG_TE
 206 00a2 4FF00852 		mov	r2, #570425344
 207 00a6 1A60     		str	r2, [r3, #0]
 286:../STM32F4-Discovery/stm32f4_discovery_audio_codec.c ****     AUDIO_MAL_DMA_FLAG_DME = AUDIO_I2S_DMA_FLAG_DME;
 208              		.loc 1 286 0
 209 00a8 40F20003 		movw	r3, #:lower16:AUDIO_MAL_DMA_FLAG_DME
 210 00ac C0F20003 		movt	r3, #:upper16:AUDIO_MAL_DMA_FLAG_DME
 211 00b0 4FF00452 		mov	r2, #553648128
 212 00b4 1A60     		str	r2, [r3, #0]
 213 00b6 56E0     		b	.L1
 214              	.L2:
 287:../STM32F4-Discovery/stm32f4_discovery_audio_codec.c ****   }
 288:../STM32F4-Discovery/stm32f4_discovery_audio_codec.c ****   else if (Interface == AUDIO_INTERFACE_DAC)
 215              		.loc 1 288 0
 216 00b8 7B68     		ldr	r3, [r7, #4]
 217 00ba 022B     		cmp	r3, #2
 218 00bc 53D1     		bne	.L1
 289:../STM32F4-Discovery/stm32f4_discovery_audio_codec.c ****   {
 290:../STM32F4-Discovery/stm32f4_discovery_audio_codec.c ****     /* DMA Stream definitions */
 291:../STM32F4-Discovery/stm32f4_discovery_audio_codec.c ****     AUDIO_MAL_DMA_CLOCK    = AUDIO_DAC_DMA_CLOCK;
 219              		.loc 1 291 0
 220 00be 40F20003 		movw	r3, #:lower16:AUDIO_MAL_DMA_CLOCK
 221 00c2 C0F20003 		movt	r3, #:upper16:AUDIO_MAL_DMA_CLOCK
 222 00c6 4FF40012 		mov	r2, #2097152
 223 00ca 1A60     		str	r2, [r3, #0]
 292:../STM32F4-Discovery/stm32f4_discovery_audio_codec.c ****     AUDIO_MAL_DMA_STREAM   = AUDIO_DAC_DMA_STREAM;        
 224              		.loc 1 292 0
 225 00cc 40F20003 		movw	r3, #:lower16:AUDIO_MAL_DMA_STREAM
 226 00d0 C0F20003 		movt	r3, #:upper16:AUDIO_MAL_DMA_STREAM
 227 00d4 46F21002 		movw	r2, #24592
 228 00d8 C4F20202 		movt	r2, 16386
 229 00dc 1A60     		str	r2, [r3, #0]
 293:../STM32F4-Discovery/stm32f4_discovery_audio_codec.c ****     AUDIO_MAL_DMA_DREG     = AUDIO_DAC_DMA_DREG;
 230              		.loc 1 293 0
 231 00de 40F20003 		movw	r3, #:lower16:AUDIO_MAL_DMA_DREG
 232 00e2 C0F20003 		movt	r3, #:upper16:AUDIO_MAL_DMA_DREG
 233 00e6 47F20C42 		movw	r2, #29708
 234 00ea C4F20002 		movt	r2, 16384
 235 00ee 1A60     		str	r2, [r3, #0]
 294:../STM32F4-Discovery/stm32f4_discovery_audio_codec.c ****     AUDIO_MAL_DMA_CHANNEL  = AUDIO_DAC_DMA_CHANNEL;
 236              		.loc 1 294 0
 237 00f0 40F20003 		movw	r3, #:lower16:AUDIO_MAL_DMA_CHANNEL
 238 00f4 C0F20003 		movt	r3, #:upper16:AUDIO_MAL_DMA_CHANNEL
 239 00f8 4FF00002 		mov	r2, #0
 240 00fc 1A60     		str	r2, [r3, #0]
 295:../STM32F4-Discovery/stm32f4_discovery_audio_codec.c ****     AUDIO_MAL_DMA_IRQ      = AUDIO_DAC_DMA_IRQ  ;
 241              		.loc 1 295 0
 242 00fe 40F20003 		movw	r3, #:lower16:AUDIO_MAL_DMA_IRQ
 243 0102 C0F20003 		movt	r3, #:upper16:AUDIO_MAL_DMA_IRQ
 244 0106 4FF00B02 		mov	r2, #11
 245 010a 1A60     		str	r2, [r3, #0]
 296:../STM32F4-Discovery/stm32f4_discovery_audio_codec.c ****     AUDIO_MAL_DMA_FLAG_TC  = AUDIO_DAC_DMA_FLAG_TC;
 246              		.loc 1 296 0
 247 010c 40F20003 		movw	r3, #:lower16:AUDIO_MAL_DMA_FLAG_TC
 248 0110 C0F20003 		movt	r3, #:upper16:AUDIO_MAL_DMA_FLAG_TC
 249 0114 4FF02002 		mov	r2, #32
 250 0118 C1F20002 		movt	r2, 4096
 251 011c 1A60     		str	r2, [r3, #0]
 297:../STM32F4-Discovery/stm32f4_discovery_audio_codec.c ****     AUDIO_MAL_DMA_FLAG_HT  = AUDIO_DAC_DMA_FLAG_HT;
 252              		.loc 1 297 0
 253 011e 40F20003 		movw	r3, #:lower16:AUDIO_MAL_DMA_FLAG_HT
 254 0122 C0F20003 		movt	r3, #:upper16:AUDIO_MAL_DMA_FLAG_HT
 255 0126 4FF01002 		mov	r2, #16
 256 012a C1F20002 		movt	r2, 4096
 257 012e 1A60     		str	r2, [r3, #0]
 298:../STM32F4-Discovery/stm32f4_discovery_audio_codec.c ****     AUDIO_MAL_DMA_FLAG_FE  = AUDIO_DAC_DMA_FLAG_FE;
 258              		.loc 1 298 0
 259 0130 40F20003 		movw	r3, #:lower16:AUDIO_MAL_DMA_FLAG_FE
 260 0134 C0F20003 		movt	r3, #:upper16:AUDIO_MAL_DMA_FLAG_FE
 261 0138 4FF00102 		mov	r2, #1
 262 013c C1F28002 		movt	r2, 4224
 263 0140 1A60     		str	r2, [r3, #0]
 299:../STM32F4-Discovery/stm32f4_discovery_audio_codec.c ****     AUDIO_MAL_DMA_FLAG_TE  = AUDIO_DAC_DMA_FLAG_TE;
 264              		.loc 1 299 0
 265 0142 40F20003 		movw	r3, #:lower16:AUDIO_MAL_DMA_FLAG_TE
 266 0146 C0F20003 		movt	r3, #:upper16:AUDIO_MAL_DMA_FLAG_TE
 267 014a 4FF00802 		mov	r2, #8
 268 014e C1F20002 		movt	r2, 4096
 269 0152 1A60     		str	r2, [r3, #0]
 300:../STM32F4-Discovery/stm32f4_discovery_audio_codec.c ****     AUDIO_MAL_DMA_FLAG_DME = AUDIO_DAC_DMA_FLAG_DME;    
 270              		.loc 1 300 0
 271 0154 40F20003 		movw	r3, #:lower16:AUDIO_MAL_DMA_FLAG_DME
 272 0158 C0F20003 		movt	r3, #:upper16:AUDIO_MAL_DMA_FLAG_DME
 273 015c 4FF00402 		mov	r2, #4
 274 0160 C1F28002 		movt	r2, 4224
 275 0164 1A60     		str	r2, [r3, #0]
 276              	.L1:
 301:../STM32F4-Discovery/stm32f4_discovery_audio_codec.c ****   }
 302:../STM32F4-Discovery/stm32f4_discovery_audio_codec.c **** }
 277              		.loc 1 302 0
 278 0166 07F10C07 		add	r7, r7, #12
 279 016a BD46     		mov	sp, r7
 280 016c 80BC     		pop	{r7}
 281 016e 7047     		bx	lr
 282              		.cfi_endproc
 283              	.LFE110:
 285              		.section	.text.EVAL_AUDIO_Init,"ax",%progbits
 286              		.align	2
 287              		.global	EVAL_AUDIO_Init
 288              		.thumb
 289              		.thumb_func
 291              	EVAL_AUDIO_Init:
 292              	.LFB111:
 303:../STM32F4-Discovery/stm32f4_discovery_audio_codec.c **** 
 304:../STM32F4-Discovery/stm32f4_discovery_audio_codec.c **** /**
 305:../STM32F4-Discovery/stm32f4_discovery_audio_codec.c ****   * @brief  Configure the audio peripherals.
 306:../STM32F4-Discovery/stm32f4_discovery_audio_codec.c ****   * @param  OutputDevice: OUTPUT_DEVICE_SPEAKER, OUTPUT_DEVICE_HEADPHONE,
 307:../STM32F4-Discovery/stm32f4_discovery_audio_codec.c ****   *                       OUTPUT_DEVICE_BOTH or OUTPUT_DEVICE_AUTO .
 308:../STM32F4-Discovery/stm32f4_discovery_audio_codec.c ****   * @param  Volume: Initial volume level (from 0 (Mute) to 100 (Max))
 309:../STM32F4-Discovery/stm32f4_discovery_audio_codec.c ****   * @param  AudioFreq: Audio frequency used to play the audio stream.
 310:../STM32F4-Discovery/stm32f4_discovery_audio_codec.c ****   * @retval 0 if correct communication, else wrong communication
 311:../STM32F4-Discovery/stm32f4_discovery_audio_codec.c ****   */
 312:../STM32F4-Discovery/stm32f4_discovery_audio_codec.c **** uint32_t EVAL_AUDIO_Init(uint16_t OutputDevice, uint8_t Volume, uint32_t AudioFreq)
 313:../STM32F4-Discovery/stm32f4_discovery_audio_codec.c **** {    
 293              		.loc 1 313 0
 294              		.cfi_startproc
 295              		@ args = 0, pretend = 0, frame = 8
 296              		@ frame_needed = 1, uses_anonymous_args = 0
 297 0000 80B5     		push	{r7, lr}
 298              	.LCFI3:
 299              		.cfi_def_cfa_offset 8
 300              		.cfi_offset 14, -4
 301              		.cfi_offset 7, -8
 302 0002 82B0     		sub	sp, sp, #8
 303              	.LCFI4:
 304              		.cfi_def_cfa_offset 16
 305 0004 00AF     		add	r7, sp, #0
 306              	.LCFI5:
 307              		.cfi_def_cfa_register 7
 308 0006 0B46     		mov	r3, r1
 309 0008 3A60     		str	r2, [r7, #0]
 310 000a 0246     		mov	r2, r0	@ movhi
 311 000c FA80     		strh	r2, [r7, #6]	@ movhi
 312 000e 7B71     		strb	r3, [r7, #5]
 314:../STM32F4-Discovery/stm32f4_discovery_audio_codec.c ****   /* Perform low layer Codec initialization */
 315:../STM32F4-Discovery/stm32f4_discovery_audio_codec.c ****   if (Codec_Init(OutputDevice, VOLUME_CONVERT(Volume), AudioFreq) != 0)
 313              		.loc 1 315 0
 314 0010 7B79     		ldrb	r3, [r7, #5]	@ zero_extendqisi2
 315 0012 642B     		cmp	r3, #100
 316 0014 11D8     		bhi	.L5
 317              		.loc 1 315 0 is_stmt 0 discriminator 1
 318 0016 7A79     		ldrb	r2, [r7, #5]	@ zero_extendqisi2
 319 0018 1346     		mov	r3, r2
 320 001a 4FEA0323 		lsl	r3, r3, #8
 321 001e 9A1A     		subs	r2, r3, r2
 322 0020 48F21F53 		movw	r3, #34079
 323 0024 C5F2EB13 		movt	r3, 20971
 324 0028 83FB0213 		smull	r1, r3, r3, r2
 325 002c 4FEA6311 		asr	r1, r3, #5
 326 0030 4FEAE273 		asr	r3, r2, #31
 327 0034 CB1A     		subs	r3, r1, r3
 328 0036 DBB2     		uxtb	r3, r3
 329 0038 01E0     		b	.L6
 330              	.L5:
 331              		.loc 1 315 0 discriminator 2
 332 003a 4FF06403 		mov	r3, #100
 333              	.L6:
 334              		.loc 1 315 0 discriminator 3
 335 003e FA88     		ldrh	r2, [r7, #6]
 336 0040 1046     		mov	r0, r2
 337 0042 1946     		mov	r1, r3
 338 0044 3A68     		ldr	r2, [r7, #0]
 339 0046 FFF7FEFF 		bl	Codec_Init
 340 004a 0346     		mov	r3, r0
 341 004c 002B     		cmp	r3, #0
 342 004e 02D0     		beq	.L7
 316:../STM32F4-Discovery/stm32f4_discovery_audio_codec.c ****   {
 317:../STM32F4-Discovery/stm32f4_discovery_audio_codec.c ****     return 1;                
 343              		.loc 1 317 0 is_stmt 1
 344 0050 4FF00103 		mov	r3, #1
 345 0054 03E0     		b	.L8
 346              	.L7:
 318:../STM32F4-Discovery/stm32f4_discovery_audio_codec.c ****   }
 319:../STM32F4-Discovery/stm32f4_discovery_audio_codec.c ****   else
 320:../STM32F4-Discovery/stm32f4_discovery_audio_codec.c ****   {    
 321:../STM32F4-Discovery/stm32f4_discovery_audio_codec.c ****     /* I2S data transfer preparation:
 322:../STM32F4-Discovery/stm32f4_discovery_audio_codec.c ****     Prepare the Media to be used for the audio transfer from memory to I2S peripheral */
 323:../STM32F4-Discovery/stm32f4_discovery_audio_codec.c ****     Audio_MAL_Init();
 347              		.loc 1 323 0
 348 0056 FFF7FEFF 		bl	Audio_MAL_Init
 324:../STM32F4-Discovery/stm32f4_discovery_audio_codec.c ****     
 325:../STM32F4-Discovery/stm32f4_discovery_audio_codec.c ****     /* Return 0 when all operations are OK */
 326:../STM32F4-Discovery/stm32f4_discovery_audio_codec.c ****     return 0;
 349              		.loc 1 326 0
 350 005a 4FF00003 		mov	r3, #0
 351              	.L8:
 327:../STM32F4-Discovery/stm32f4_discovery_audio_codec.c ****   }
 328:../STM32F4-Discovery/stm32f4_discovery_audio_codec.c **** }
 352              		.loc 1 328 0
 353 005e 1846     		mov	r0, r3
 354 0060 07F10807 		add	r7, r7, #8
 355 0064 BD46     		mov	sp, r7
 356 0066 80BD     		pop	{r7, pc}
 357              		.cfi_endproc
 358              	.LFE111:
 360              		.section	.text.EVAL_AUDIO_DeInit,"ax",%progbits
 361              		.align	2
 362              		.global	EVAL_AUDIO_DeInit
 363              		.thumb
 364              		.thumb_func
 366              	EVAL_AUDIO_DeInit:
 367              	.LFB112:
 329:../STM32F4-Discovery/stm32f4_discovery_audio_codec.c **** 
 330:../STM32F4-Discovery/stm32f4_discovery_audio_codec.c **** /**
 331:../STM32F4-Discovery/stm32f4_discovery_audio_codec.c ****   * @brief  Deinitializes all the resources used by the codec (those initialized
 332:../STM32F4-Discovery/stm32f4_discovery_audio_codec.c ****   *         by EVAL_AUDIO_Init() function). 
 333:../STM32F4-Discovery/stm32f4_discovery_audio_codec.c ****   * @param  None
 334:../STM32F4-Discovery/stm32f4_discovery_audio_codec.c ****   * @retval 0 if correct communication, else wrong communication
 335:../STM32F4-Discovery/stm32f4_discovery_audio_codec.c ****   */
 336:../STM32F4-Discovery/stm32f4_discovery_audio_codec.c **** uint32_t EVAL_AUDIO_DeInit(void)
 337:../STM32F4-Discovery/stm32f4_discovery_audio_codec.c **** { 
 368              		.loc 1 337 0
 369              		.cfi_startproc
 370              		@ args = 0, pretend = 0, frame = 0
 371              		@ frame_needed = 1, uses_anonymous_args = 0
 372 0000 80B5     		push	{r7, lr}
 373              	.LCFI6:
 374              		.cfi_def_cfa_offset 8
 375              		.cfi_offset 14, -4
 376              		.cfi_offset 7, -8
 377 0002 00AF     		add	r7, sp, #0
 378              	.LCFI7:
 379              		.cfi_def_cfa_register 7
 338:../STM32F4-Discovery/stm32f4_discovery_audio_codec.c ****   /* DeInitialize the Media layer */
 339:../STM32F4-Discovery/stm32f4_discovery_audio_codec.c ****   Audio_MAL_DeInit();
 380              		.loc 1 339 0
 381 0004 FFF7FEFF 		bl	Audio_MAL_DeInit
 340:../STM32F4-Discovery/stm32f4_discovery_audio_codec.c ****   
 341:../STM32F4-Discovery/stm32f4_discovery_audio_codec.c ****   /* DeInitialize Codec */  
 342:../STM32F4-Discovery/stm32f4_discovery_audio_codec.c ****   Codec_DeInit();  
 382              		.loc 1 342 0
 383 0008 FFF7FEFF 		bl	Codec_DeInit
 343:../STM32F4-Discovery/stm32f4_discovery_audio_codec.c ****   
 344:../STM32F4-Discovery/stm32f4_discovery_audio_codec.c ****   return 0;
 384              		.loc 1 344 0
 385 000c 4FF00003 		mov	r3, #0
 345:../STM32F4-Discovery/stm32f4_discovery_audio_codec.c **** }
 386              		.loc 1 345 0
 387 0010 1846     		mov	r0, r3
 388 0012 80BD     		pop	{r7, pc}
 389              		.cfi_endproc
 390              	.LFE112:
 392              		.section	.text.EVAL_AUDIO_Play,"ax",%progbits
 393              		.align	2
 394              		.global	EVAL_AUDIO_Play
 395              		.thumb
 396              		.thumb_func
 398              	EVAL_AUDIO_Play:
 399              	.LFB113:
 346:../STM32F4-Discovery/stm32f4_discovery_audio_codec.c **** 
 347:../STM32F4-Discovery/stm32f4_discovery_audio_codec.c **** /**
 348:../STM32F4-Discovery/stm32f4_discovery_audio_codec.c ****   * @brief  Starts playing audio stream from a data buffer for a determined size. 
 349:../STM32F4-Discovery/stm32f4_discovery_audio_codec.c ****   * @param  pBuffer: Pointer to the buffer 
 350:../STM32F4-Discovery/stm32f4_discovery_audio_codec.c ****   * @param  Size: Number of audio data BYTES.
 351:../STM32F4-Discovery/stm32f4_discovery_audio_codec.c ****   * @retval 0 if correct communication, else wrong communication
 352:../STM32F4-Discovery/stm32f4_discovery_audio_codec.c ****   */
 353:../STM32F4-Discovery/stm32f4_discovery_audio_codec.c **** uint32_t EVAL_AUDIO_Play(uint16_t* pBuffer, uint32_t Size)
 354:../STM32F4-Discovery/stm32f4_discovery_audio_codec.c **** {
 400              		.loc 1 354 0
 401              		.cfi_startproc
 402              		@ args = 0, pretend = 0, frame = 8
 403              		@ frame_needed = 1, uses_anonymous_args = 0
 404 0000 80B5     		push	{r7, lr}
 405              	.LCFI8:
 406              		.cfi_def_cfa_offset 8
 407              		.cfi_offset 14, -4
 408              		.cfi_offset 7, -8
 409 0002 82B0     		sub	sp, sp, #8
 410              	.LCFI9:
 411              		.cfi_def_cfa_offset 16
 412 0004 00AF     		add	r7, sp, #0
 413              	.LCFI10:
 414              		.cfi_def_cfa_register 7
 415 0006 7860     		str	r0, [r7, #4]
 416 0008 3960     		str	r1, [r7, #0]
 355:../STM32F4-Discovery/stm32f4_discovery_audio_codec.c ****   /* Set the total number of data to be played (count in half-word) */
 356:../STM32F4-Discovery/stm32f4_discovery_audio_codec.c ****   AudioTotalSize = Size;
 417              		.loc 1 356 0
 418 000a 40F20003 		movw	r3, #:lower16:AudioTotalSize
 419 000e C0F20003 		movt	r3, #:upper16:AudioTotalSize
 420 0012 3A68     		ldr	r2, [r7, #0]
 421 0014 1A60     		str	r2, [r3, #0]
 357:../STM32F4-Discovery/stm32f4_discovery_audio_codec.c **** 
 358:../STM32F4-Discovery/stm32f4_discovery_audio_codec.c ****   /* Call the audio Codec Play function */
 359:../STM32F4-Discovery/stm32f4_discovery_audio_codec.c ****   Codec_Play();
 422              		.loc 1 359 0
 423 0016 FFF7FEFF 		bl	Codec_Play
 360:../STM32F4-Discovery/stm32f4_discovery_audio_codec.c ****   
 361:../STM32F4-Discovery/stm32f4_discovery_audio_codec.c ****   /* Update the Media layer and enable it for play */  
 362:../STM32F4-Discovery/stm32f4_discovery_audio_codec.c ****   Audio_MAL_Play((uint32_t)pBuffer, (uint32_t)(DMA_MAX(Size/4)));
 424              		.loc 1 362 0
 425 001a 7A68     		ldr	r2, [r7, #4]
 426 001c 3968     		ldr	r1, [r7, #0]
 427 001e 4FF6FF73 		movw	r3, #65535
 428 0022 C0F20303 		movt	r3, 3
 429 0026 9942     		cmp	r1, r3
 430 0028 03D8     		bhi	.L11
 431              		.loc 1 362 0 is_stmt 0 discriminator 1
 432 002a 3B68     		ldr	r3, [r7, #0]
 433 002c 4FEA9303 		lsr	r3, r3, #2
 434 0030 01E0     		b	.L12
 435              	.L11:
 436              		.loc 1 362 0 discriminator 2
 437 0032 4FF6FF73 		movw	r3, #65535
 438              	.L12:
 439              		.loc 1 362 0 discriminator 3
 440 0036 1046     		mov	r0, r2
 441 0038 1946     		mov	r1, r3
 442 003a FFF7FEFF 		bl	Audio_MAL_Play
 363:../STM32F4-Discovery/stm32f4_discovery_audio_codec.c ****   
 364:../STM32F4-Discovery/stm32f4_discovery_audio_codec.c ****   /* Update the remaining number of data to be played */
 365:../STM32F4-Discovery/stm32f4_discovery_audio_codec.c ****   AudioRemSize = (Size/2) - DMA_MAX(AudioTotalSize);
 443              		.loc 1 365 0 is_stmt 1 discriminator 3
 444 003e 3B68     		ldr	r3, [r7, #0]
 445 0040 4FEA5302 		lsr	r2, r3, #1
 446 0044 40F20003 		movw	r3, #:lower16:AudioTotalSize
 447 0048 C0F20003 		movt	r3, #:upper16:AudioTotalSize
 448 004c 1968     		ldr	r1, [r3, #0]
 449 004e 4FF6FF73 		movw	r3, #65535
 450 0052 9942     		cmp	r1, r3
 451 0054 38BF     		it	cc
 452 0056 0B46     		movcc	r3, r1
 453 0058 D21A     		subs	r2, r2, r3
 454 005a 40F20003 		movw	r3, #:lower16:AudioRemSize
 455 005e C0F20003 		movt	r3, #:upper16:AudioRemSize
 456 0062 1A60     		str	r2, [r3, #0]
 366:../STM32F4-Discovery/stm32f4_discovery_audio_codec.c ****   
 367:../STM32F4-Discovery/stm32f4_discovery_audio_codec.c ****   /* Update the current audio pointer position */
 368:../STM32F4-Discovery/stm32f4_discovery_audio_codec.c ****   CurrentPos = pBuffer + DMA_MAX(AudioTotalSize);
 457              		.loc 1 368 0 discriminator 3
 458 0064 40F20003 		movw	r3, #:lower16:AudioTotalSize
 459 0068 C0F20003 		movt	r3, #:upper16:AudioTotalSize
 460 006c 1A68     		ldr	r2, [r3, #0]
 461 006e 4FF6FF73 		movw	r3, #65535
 462 0072 9A42     		cmp	r2, r3
 463 0074 38BF     		it	cc
 464 0076 1346     		movcc	r3, r2
 465 0078 4FEA4303 		lsl	r3, r3, #1
 466 007c 7A68     		ldr	r2, [r7, #4]
 467 007e D218     		adds	r2, r2, r3
 468 0080 40F20003 		movw	r3, #:lower16:CurrentPos
 469 0084 C0F20003 		movt	r3, #:upper16:CurrentPos
 470 0088 1A60     		str	r2, [r3, #0]
 369:../STM32F4-Discovery/stm32f4_discovery_audio_codec.c ****   
 370:../STM32F4-Discovery/stm32f4_discovery_audio_codec.c ****   return 0;
 471              		.loc 1 370 0 discriminator 3
 472 008a 4FF00003 		mov	r3, #0
 371:../STM32F4-Discovery/stm32f4_discovery_audio_codec.c **** }
 473              		.loc 1 371 0 discriminator 3
 474 008e 1846     		mov	r0, r3
 475 0090 07F10807 		add	r7, r7, #8
 476 0094 BD46     		mov	sp, r7
 477 0096 80BD     		pop	{r7, pc}
 478              		.cfi_endproc
 479              	.LFE113:
 481              		.section	.text.EVAL_AUDIO_PauseResume,"ax",%progbits
 482              		.align	2
 483              		.global	EVAL_AUDIO_PauseResume
 484              		.thumb
 485              		.thumb_func
 487              	EVAL_AUDIO_PauseResume:
 488              	.LFB114:
 372:../STM32F4-Discovery/stm32f4_discovery_audio_codec.c **** 
 373:../STM32F4-Discovery/stm32f4_discovery_audio_codec.c **** /**
 374:../STM32F4-Discovery/stm32f4_discovery_audio_codec.c ****   * @brief  This function Pauses or Resumes the audio file stream. In case
 375:../STM32F4-Discovery/stm32f4_discovery_audio_codec.c ****   *         of using DMA, the DMA Pause feature is used. In all cases the I2S 
 376:../STM32F4-Discovery/stm32f4_discovery_audio_codec.c ****   *         peripheral is disabled. 
 377:../STM32F4-Discovery/stm32f4_discovery_audio_codec.c ****   * 
 378:../STM32F4-Discovery/stm32f4_discovery_audio_codec.c ****   * @WARNING When calling EVAL_AUDIO_PauseResume() function for pause, only
 379:../STM32F4-Discovery/stm32f4_discovery_audio_codec.c ****   *          this function should be called for resume (use of EVAL_AUDIO_Play() 
 380:../STM32F4-Discovery/stm32f4_discovery_audio_codec.c ****   *          function for resume could lead to unexpected behavior).
 381:../STM32F4-Discovery/stm32f4_discovery_audio_codec.c ****   * 
 382:../STM32F4-Discovery/stm32f4_discovery_audio_codec.c ****   * @param  Cmd: AUDIO_PAUSE (or 0) to pause, AUDIO_RESUME (or any value different
 383:../STM32F4-Discovery/stm32f4_discovery_audio_codec.c ****   *         from 0) to resume. 
 384:../STM32F4-Discovery/stm32f4_discovery_audio_codec.c ****   * @retval 0 if correct communication, else wrong communication
 385:../STM32F4-Discovery/stm32f4_discovery_audio_codec.c ****   */
 386:../STM32F4-Discovery/stm32f4_discovery_audio_codec.c **** uint32_t EVAL_AUDIO_PauseResume(uint32_t Cmd)
 387:../STM32F4-Discovery/stm32f4_discovery_audio_codec.c **** {    
 489              		.loc 1 387 0
 490              		.cfi_startproc
 491              		@ args = 0, pretend = 0, frame = 8
 492              		@ frame_needed = 1, uses_anonymous_args = 0
 493 0000 80B5     		push	{r7, lr}
 494              	.LCFI11:
 495              		.cfi_def_cfa_offset 8
 496              		.cfi_offset 14, -4
 497              		.cfi_offset 7, -8
 498 0002 82B0     		sub	sp, sp, #8
 499              	.LCFI12:
 500              		.cfi_def_cfa_offset 16
 501 0004 00AF     		add	r7, sp, #0
 502              	.LCFI13:
 503              		.cfi_def_cfa_register 7
 504 0006 7860     		str	r0, [r7, #4]
 388:../STM32F4-Discovery/stm32f4_discovery_audio_codec.c ****   /* Call the Audio Codec Pause/Resume function */
 389:../STM32F4-Discovery/stm32f4_discovery_audio_codec.c ****   if (Codec_PauseResume(Cmd) != 0)
 505              		.loc 1 389 0
 506 0008 7868     		ldr	r0, [r7, #4]
 507 000a FFF7FEFF 		bl	Codec_PauseResume
 508 000e 0346     		mov	r3, r0
 509 0010 002B     		cmp	r3, #0
 510 0012 02D0     		beq	.L14
 390:../STM32F4-Discovery/stm32f4_discovery_audio_codec.c ****   {
 391:../STM32F4-Discovery/stm32f4_discovery_audio_codec.c ****     return 1;
 511              		.loc 1 391 0
 512 0014 4FF00103 		mov	r3, #1
 513 0018 06E0     		b	.L15
 514              	.L14:
 392:../STM32F4-Discovery/stm32f4_discovery_audio_codec.c ****   }
 393:../STM32F4-Discovery/stm32f4_discovery_audio_codec.c ****   else
 394:../STM32F4-Discovery/stm32f4_discovery_audio_codec.c ****   {
 395:../STM32F4-Discovery/stm32f4_discovery_audio_codec.c ****     /* Call the Media layer pause/resume function */
 396:../STM32F4-Discovery/stm32f4_discovery_audio_codec.c ****     Audio_MAL_PauseResume(Cmd, 0);
 515              		.loc 1 396 0
 516 001a 7868     		ldr	r0, [r7, #4]
 517 001c 4FF00001 		mov	r1, #0
 518 0020 FFF7FEFF 		bl	Audio_MAL_PauseResume
 397:../STM32F4-Discovery/stm32f4_discovery_audio_codec.c ****     
 398:../STM32F4-Discovery/stm32f4_discovery_audio_codec.c ****     /* Return 0 if all operations are OK */
 399:../STM32F4-Discovery/stm32f4_discovery_audio_codec.c ****     return 0;
 519              		.loc 1 399 0
 520 0024 4FF00003 		mov	r3, #0
 521              	.L15:
 400:../STM32F4-Discovery/stm32f4_discovery_audio_codec.c ****   }
 401:../STM32F4-Discovery/stm32f4_discovery_audio_codec.c **** }
 522              		.loc 1 401 0
 523 0028 1846     		mov	r0, r3
 524 002a 07F10807 		add	r7, r7, #8
 525 002e BD46     		mov	sp, r7
 526 0030 80BD     		pop	{r7, pc}
 527              		.cfi_endproc
 528              	.LFE114:
 530 0032 00BF     		.section	.text.EVAL_AUDIO_Stop,"ax",%progbits
 531              		.align	2
 532              		.global	EVAL_AUDIO_Stop
 533              		.thumb
 534              		.thumb_func
 536              	EVAL_AUDIO_Stop:
 537              	.LFB115:
 402:../STM32F4-Discovery/stm32f4_discovery_audio_codec.c **** 
 403:../STM32F4-Discovery/stm32f4_discovery_audio_codec.c **** /**
 404:../STM32F4-Discovery/stm32f4_discovery_audio_codec.c ****   * @brief  Stops audio playing and Power down the Audio Codec. 
 405:../STM32F4-Discovery/stm32f4_discovery_audio_codec.c ****   * @param  Option: could be one of the following parameters 
 406:../STM32F4-Discovery/stm32f4_discovery_audio_codec.c ****   *           - CODEC_PDWN_SW: for software power off (by writing registers). 
 407:../STM32F4-Discovery/stm32f4_discovery_audio_codec.c ****   *                            Then no need to reconfigure the Codec after power on.
 408:../STM32F4-Discovery/stm32f4_discovery_audio_codec.c ****   *           - CODEC_PDWN_HW: completely shut down the codec (physically). 
 409:../STM32F4-Discovery/stm32f4_discovery_audio_codec.c ****   *                            Then need to reconfigure the Codec after power on.  
 410:../STM32F4-Discovery/stm32f4_discovery_audio_codec.c ****   * @retval 0 if correct communication, else wrong communication
 411:../STM32F4-Discovery/stm32f4_discovery_audio_codec.c ****   */
 412:../STM32F4-Discovery/stm32f4_discovery_audio_codec.c **** uint32_t EVAL_AUDIO_Stop(uint32_t Option)
 413:../STM32F4-Discovery/stm32f4_discovery_audio_codec.c **** {
 538              		.loc 1 413 0
 539              		.cfi_startproc
 540              		@ args = 0, pretend = 0, frame = 8
 541              		@ frame_needed = 1, uses_anonymous_args = 0
 542 0000 80B5     		push	{r7, lr}
 543              	.LCFI14:
 544              		.cfi_def_cfa_offset 8
 545              		.cfi_offset 14, -4
 546              		.cfi_offset 7, -8
 547 0002 82B0     		sub	sp, sp, #8
 548              	.LCFI15:
 549              		.cfi_def_cfa_offset 16
 550 0004 00AF     		add	r7, sp, #0
 551              	.LCFI16:
 552              		.cfi_def_cfa_register 7
 553 0006 7860     		str	r0, [r7, #4]
 414:../STM32F4-Discovery/stm32f4_discovery_audio_codec.c ****   /* Call Audio Codec Stop function */
 415:../STM32F4-Discovery/stm32f4_discovery_audio_codec.c ****   if (Codec_Stop(Option) != 0)
 554              		.loc 1 415 0
 555 0008 7868     		ldr	r0, [r7, #4]
 556 000a FFF7FEFF 		bl	Codec_Stop
 557 000e 0346     		mov	r3, r0
 558 0010 002B     		cmp	r3, #0
 559 0012 02D0     		beq	.L17
 416:../STM32F4-Discovery/stm32f4_discovery_audio_codec.c ****   {
 417:../STM32F4-Discovery/stm32f4_discovery_audio_codec.c ****     return 1;
 560              		.loc 1 417 0
 561 0014 4FF00103 		mov	r3, #1
 562 0018 0DE0     		b	.L18
 563              	.L17:
 418:../STM32F4-Discovery/stm32f4_discovery_audio_codec.c ****   }
 419:../STM32F4-Discovery/stm32f4_discovery_audio_codec.c ****   else
 420:../STM32F4-Discovery/stm32f4_discovery_audio_codec.c ****   {
 421:../STM32F4-Discovery/stm32f4_discovery_audio_codec.c ****     /* Call Media layer Stop function */
 422:../STM32F4-Discovery/stm32f4_discovery_audio_codec.c ****     Audio_MAL_Stop();
 564              		.loc 1 422 0
 565 001a FFF7FEFF 		bl	Audio_MAL_Stop
 423:../STM32F4-Discovery/stm32f4_discovery_audio_codec.c ****     
 424:../STM32F4-Discovery/stm32f4_discovery_audio_codec.c ****     /* Update the remaining data number */
 425:../STM32F4-Discovery/stm32f4_discovery_audio_codec.c ****     AudioRemSize = AudioTotalSize;    
 566              		.loc 1 425 0
 567 001e 40F20003 		movw	r3, #:lower16:AudioTotalSize
 568 0022 C0F20003 		movt	r3, #:upper16:AudioTotalSize
 569 0026 1A68     		ldr	r2, [r3, #0]
 570 0028 40F20003 		movw	r3, #:lower16:AudioRemSize
 571 002c C0F20003 		movt	r3, #:upper16:AudioRemSize
 572 0030 1A60     		str	r2, [r3, #0]
 426:../STM32F4-Discovery/stm32f4_discovery_audio_codec.c ****     
 427:../STM32F4-Discovery/stm32f4_discovery_audio_codec.c ****     /* Return 0 when all operations are correctly done */
 428:../STM32F4-Discovery/stm32f4_discovery_audio_codec.c ****     return 0;
 573              		.loc 1 428 0
 574 0032 4FF00003 		mov	r3, #0
 575              	.L18:
 429:../STM32F4-Discovery/stm32f4_discovery_audio_codec.c ****   }
 430:../STM32F4-Discovery/stm32f4_discovery_audio_codec.c **** }
 576              		.loc 1 430 0
 577 0036 1846     		mov	r0, r3
 578 0038 07F10807 		add	r7, r7, #8
 579 003c BD46     		mov	sp, r7
 580 003e 80BD     		pop	{r7, pc}
 581              		.cfi_endproc
 582              	.LFE115:
 584              		.section	.text.EVAL_AUDIO_VolumeCtl,"ax",%progbits
 585              		.align	2
 586              		.global	EVAL_AUDIO_VolumeCtl
 587              		.thumb
 588              		.thumb_func
 590              	EVAL_AUDIO_VolumeCtl:
 591              	.LFB116:
 431:../STM32F4-Discovery/stm32f4_discovery_audio_codec.c **** 
 432:../STM32F4-Discovery/stm32f4_discovery_audio_codec.c **** /**
 433:../STM32F4-Discovery/stm32f4_discovery_audio_codec.c ****   * @brief  Controls the current audio volume level. 
 434:../STM32F4-Discovery/stm32f4_discovery_audio_codec.c ****   * @param  Volume: Volume level to be set in percentage from 0% to 100% (0 for 
 435:../STM32F4-Discovery/stm32f4_discovery_audio_codec.c ****   *         Mute and 100 for Max volume level).
 436:../STM32F4-Discovery/stm32f4_discovery_audio_codec.c ****   * @retval 0 if correct communication, else wrong communication
 437:../STM32F4-Discovery/stm32f4_discovery_audio_codec.c ****   */
 438:../STM32F4-Discovery/stm32f4_discovery_audio_codec.c **** uint32_t EVAL_AUDIO_VolumeCtl(uint8_t Volume)
 439:../STM32F4-Discovery/stm32f4_discovery_audio_codec.c **** {
 592              		.loc 1 439 0
 593              		.cfi_startproc
 594              		@ args = 0, pretend = 0, frame = 8
 595              		@ frame_needed = 1, uses_anonymous_args = 0
 596 0000 80B5     		push	{r7, lr}
 597              	.LCFI17:
 598              		.cfi_def_cfa_offset 8
 599              		.cfi_offset 14, -4
 600              		.cfi_offset 7, -8
 601 0002 82B0     		sub	sp, sp, #8
 602              	.LCFI18:
 603              		.cfi_def_cfa_offset 16
 604 0004 00AF     		add	r7, sp, #0
 605              	.LCFI19:
 606              		.cfi_def_cfa_register 7
 607 0006 0346     		mov	r3, r0
 608 0008 FB71     		strb	r3, [r7, #7]
 440:../STM32F4-Discovery/stm32f4_discovery_audio_codec.c ****   /* Call the codec volume control function with converted volume value */
 441:../STM32F4-Discovery/stm32f4_discovery_audio_codec.c ****   return (Codec_VolumeCtrl(VOLUME_CONVERT(Volume)));
 609              		.loc 1 441 0
 610 000a FB79     		ldrb	r3, [r7, #7]	@ zero_extendqisi2
 611 000c 642B     		cmp	r3, #100
 612 000e 11D8     		bhi	.L20
 613              		.loc 1 441 0 is_stmt 0 discriminator 1
 614 0010 FA79     		ldrb	r2, [r7, #7]	@ zero_extendqisi2
 615 0012 1346     		mov	r3, r2
 616 0014 4FEA0323 		lsl	r3, r3, #8
 617 0018 9A1A     		subs	r2, r3, r2
 618 001a 48F21F53 		movw	r3, #34079
 619 001e C5F2EB13 		movt	r3, 20971
 620 0022 83FB0213 		smull	r1, r3, r3, r2
 621 0026 4FEA6311 		asr	r1, r3, #5
 622 002a 4FEAE273 		asr	r3, r2, #31
 623 002e CB1A     		subs	r3, r1, r3
 624 0030 DBB2     		uxtb	r3, r3
 625 0032 01E0     		b	.L21
 626              	.L20:
 627              		.loc 1 441 0 discriminator 2
 628 0034 4FF06403 		mov	r3, #100
 629              	.L21:
 630              		.loc 1 441 0 discriminator 3
 631 0038 1846     		mov	r0, r3
 632 003a FFF7FEFF 		bl	Codec_VolumeCtrl
 633 003e 0346     		mov	r3, r0
 442:../STM32F4-Discovery/stm32f4_discovery_audio_codec.c **** }
 634              		.loc 1 442 0 is_stmt 1 discriminator 3
 635 0040 1846     		mov	r0, r3
 636 0042 07F10807 		add	r7, r7, #8
 637 0046 BD46     		mov	sp, r7
 638 0048 80BD     		pop	{r7, pc}
 639              		.cfi_endproc
 640              	.LFE116:
 642 004a 00BF     		.section	.text.EVAL_AUDIO_Mute,"ax",%progbits
 643              		.align	2
 644              		.global	EVAL_AUDIO_Mute
 645              		.thumb
 646              		.thumb_func
 648              	EVAL_AUDIO_Mute:
 649              	.LFB117:
 443:../STM32F4-Discovery/stm32f4_discovery_audio_codec.c **** 
 444:../STM32F4-Discovery/stm32f4_discovery_audio_codec.c **** /**
 445:../STM32F4-Discovery/stm32f4_discovery_audio_codec.c ****   * @brief  Enables or disables the MUTE mode by software 
 446:../STM32F4-Discovery/stm32f4_discovery_audio_codec.c ****   * @param  Command: could be AUDIO_MUTE_ON to mute sound or AUDIO_MUTE_OFF to 
 447:../STM32F4-Discovery/stm32f4_discovery_audio_codec.c ****   *         unmute the codec and restore previous volume level.
 448:../STM32F4-Discovery/stm32f4_discovery_audio_codec.c ****   * @retval 0 if correct communication, else wrong communication
 449:../STM32F4-Discovery/stm32f4_discovery_audio_codec.c ****   */
 450:../STM32F4-Discovery/stm32f4_discovery_audio_codec.c **** uint32_t EVAL_AUDIO_Mute(uint32_t Cmd)
 451:../STM32F4-Discovery/stm32f4_discovery_audio_codec.c **** { 
 650              		.loc 1 451 0
 651              		.cfi_startproc
 652              		@ args = 0, pretend = 0, frame = 8
 653              		@ frame_needed = 1, uses_anonymous_args = 0
 654 0000 80B5     		push	{r7, lr}
 655              	.LCFI20:
 656              		.cfi_def_cfa_offset 8
 657              		.cfi_offset 14, -4
 658              		.cfi_offset 7, -8
 659 0002 82B0     		sub	sp, sp, #8
 660              	.LCFI21:
 661              		.cfi_def_cfa_offset 16
 662 0004 00AF     		add	r7, sp, #0
 663              	.LCFI22:
 664              		.cfi_def_cfa_register 7
 665 0006 7860     		str	r0, [r7, #4]
 452:../STM32F4-Discovery/stm32f4_discovery_audio_codec.c ****   /* Call the Codec Mute function */
 453:../STM32F4-Discovery/stm32f4_discovery_audio_codec.c ****   return (Codec_Mute(Cmd));
 666              		.loc 1 453 0
 667 0008 7868     		ldr	r0, [r7, #4]
 668 000a FFF7FEFF 		bl	Codec_Mute
 669 000e 0346     		mov	r3, r0
 454:../STM32F4-Discovery/stm32f4_discovery_audio_codec.c **** }
 670              		.loc 1 454 0
 671 0010 1846     		mov	r0, r3
 672 0012 07F10807 		add	r7, r7, #8
 673 0016 BD46     		mov	sp, r7
 674 0018 80BD     		pop	{r7, pc}
 675              		.cfi_endproc
 676              	.LFE117:
 678 001a 00BF     		.section	.text.Audio_MAL_IRQHandler,"ax",%progbits
 679              		.align	2
 680              		.thumb
 681              		.thumb_func
 683              	Audio_MAL_IRQHandler:
 684              	.LFB118:
 455:../STM32F4-Discovery/stm32f4_discovery_audio_codec.c **** 
 456:../STM32F4-Discovery/stm32f4_discovery_audio_codec.c **** /**
 457:../STM32F4-Discovery/stm32f4_discovery_audio_codec.c ****   * @brief  This function handles main Media layer interrupt. 
 458:../STM32F4-Discovery/stm32f4_discovery_audio_codec.c ****   * @param  None
 459:../STM32F4-Discovery/stm32f4_discovery_audio_codec.c ****   * @retval 0 if correct communication, else wrong communication
 460:../STM32F4-Discovery/stm32f4_discovery_audio_codec.c ****   */
 461:../STM32F4-Discovery/stm32f4_discovery_audio_codec.c **** static void Audio_MAL_IRQHandler(void)
 462:../STM32F4-Discovery/stm32f4_discovery_audio_codec.c **** {    
 685              		.loc 1 462 0
 686              		.cfi_startproc
 687              		@ args = 0, pretend = 0, frame = 0
 688              		@ frame_needed = 1, uses_anonymous_args = 0
 689 0000 80B5     		push	{r7, lr}
 690              	.LCFI23:
 691              		.cfi_def_cfa_offset 8
 692              		.cfi_offset 14, -4
 693              		.cfi_offset 7, -8
 694 0002 00AF     		add	r7, sp, #0
 695              	.LCFI24:
 696              		.cfi_def_cfa_register 7
 463:../STM32F4-Discovery/stm32f4_discovery_audio_codec.c **** #ifndef AUDIO_MAL_MODE_NORMAL
 464:../STM32F4-Discovery/stm32f4_discovery_audio_codec.c ****   uint16_t *pAddr = (uint16_t *)CurrentPos;
 465:../STM32F4-Discovery/stm32f4_discovery_audio_codec.c ****   uint32_t Size = AudioRemSize;
 466:../STM32F4-Discovery/stm32f4_discovery_audio_codec.c **** #endif /* AUDIO_MAL_MODE_NORMAL */
 467:../STM32F4-Discovery/stm32f4_discovery_audio_codec.c ****   
 468:../STM32F4-Discovery/stm32f4_discovery_audio_codec.c **** #ifdef AUDIO_MAL_DMA_IT_TC_EN
 469:../STM32F4-Discovery/stm32f4_discovery_audio_codec.c ****   /* Transfer complete interrupt */
 470:../STM32F4-Discovery/stm32f4_discovery_audio_codec.c ****   if (DMA_GetFlagStatus(AUDIO_MAL_DMA_STREAM, AUDIO_MAL_DMA_FLAG_TC) != RESET)
 697              		.loc 1 470 0
 698 0004 40F20003 		movw	r3, #:lower16:AUDIO_MAL_DMA_STREAM
 699 0008 C0F20003 		movt	r3, #:upper16:AUDIO_MAL_DMA_STREAM
 700 000c 1A68     		ldr	r2, [r3, #0]
 701 000e 40F20003 		movw	r3, #:lower16:AUDIO_MAL_DMA_FLAG_TC
 702 0012 C0F20003 		movt	r3, #:upper16:AUDIO_MAL_DMA_FLAG_TC
 703 0016 1B68     		ldr	r3, [r3, #0]
 704 0018 1046     		mov	r0, r2
 705 001a 1946     		mov	r1, r3
 706 001c FFF7FEFF 		bl	DMA_GetFlagStatus
 707 0020 0346     		mov	r3, r0
 708 0022 002B     		cmp	r3, #0
 709 0024 00F0AB80 		beq	.L23
 471:../STM32F4-Discovery/stm32f4_discovery_audio_codec.c ****   {         
 472:../STM32F4-Discovery/stm32f4_discovery_audio_codec.c ****  #ifdef AUDIO_MAL_MODE_NORMAL
 473:../STM32F4-Discovery/stm32f4_discovery_audio_codec.c ****     /* Check if the end of file has been reached */
 474:../STM32F4-Discovery/stm32f4_discovery_audio_codec.c ****     if (AudioRemSize > 0)
 710              		.loc 1 474 0
 711 0028 40F20003 		movw	r3, #:lower16:AudioRemSize
 712 002c C0F20003 		movt	r3, #:upper16:AudioRemSize
 713 0030 1B68     		ldr	r3, [r3, #0]
 714 0032 002B     		cmp	r3, #0
 715 0034 00F08180 		beq	.L25
 475:../STM32F4-Discovery/stm32f4_discovery_audio_codec.c ****     {      
 476:../STM32F4-Discovery/stm32f4_discovery_audio_codec.c ****       /* Wait the DMA Stream to be effectively disabled */
 477:../STM32F4-Discovery/stm32f4_discovery_audio_codec.c ****       while (DMA_GetCmdStatus(AUDIO_MAL_DMA_STREAM) != DISABLE)
 716              		.loc 1 477 0
 717 0038 00BF     		nop
 718              	.L26:
 719              		.loc 1 477 0 is_stmt 0 discriminator 1
 720 003a 40F20003 		movw	r3, #:lower16:AUDIO_MAL_DMA_STREAM
 721 003e C0F20003 		movt	r3, #:upper16:AUDIO_MAL_DMA_STREAM
 722 0042 1B68     		ldr	r3, [r3, #0]
 723 0044 1846     		mov	r0, r3
 724 0046 FFF7FEFF 		bl	DMA_GetCmdStatus
 725 004a 0346     		mov	r3, r0
 726 004c 002B     		cmp	r3, #0
 727 004e F4D1     		bne	.L26
 478:../STM32F4-Discovery/stm32f4_discovery_audio_codec.c ****       {}
 479:../STM32F4-Discovery/stm32f4_discovery_audio_codec.c ****       
 480:../STM32F4-Discovery/stm32f4_discovery_audio_codec.c ****       /* Clear the Interrupt flag */
 481:../STM32F4-Discovery/stm32f4_discovery_audio_codec.c ****       DMA_ClearFlag(AUDIO_MAL_DMA_STREAM, AUDIO_MAL_DMA_FLAG_TC); 
 728              		.loc 1 481 0 is_stmt 1
 729 0050 40F20003 		movw	r3, #:lower16:AUDIO_MAL_DMA_STREAM
 730 0054 C0F20003 		movt	r3, #:upper16:AUDIO_MAL_DMA_STREAM
 731 0058 1A68     		ldr	r2, [r3, #0]
 732 005a 40F20003 		movw	r3, #:lower16:AUDIO_MAL_DMA_FLAG_TC
 733 005e C0F20003 		movt	r3, #:upper16:AUDIO_MAL_DMA_FLAG_TC
 734 0062 1B68     		ldr	r3, [r3, #0]
 735 0064 1046     		mov	r0, r2
 736 0066 1946     		mov	r1, r3
 737 0068 FFF7FEFF 		bl	DMA_ClearFlag
 482:../STM32F4-Discovery/stm32f4_discovery_audio_codec.c ****            
 483:../STM32F4-Discovery/stm32f4_discovery_audio_codec.c ****       /* Re-Configure the buffer address and size */
 484:../STM32F4-Discovery/stm32f4_discovery_audio_codec.c ****       DMA_InitStructure.DMA_Memory0BaseAddr = (uint32_t) CurrentPos;
 738              		.loc 1 484 0
 739 006c 40F20003 		movw	r3, #:lower16:CurrentPos
 740 0070 C0F20003 		movt	r3, #:upper16:CurrentPos
 741 0074 1B68     		ldr	r3, [r3, #0]
 742 0076 1A46     		mov	r2, r3
 743 0078 40F20003 		movw	r3, #:lower16:DMA_InitStructure
 744 007c C0F20003 		movt	r3, #:upper16:DMA_InitStructure
 745 0080 9A60     		str	r2, [r3, #8]
 485:../STM32F4-Discovery/stm32f4_discovery_audio_codec.c ****       DMA_InitStructure.DMA_BufferSize = (uint32_t) (DMA_MAX(AudioRemSize));
 746              		.loc 1 485 0
 747 0082 40F20003 		movw	r3, #:lower16:AudioRemSize
 748 0086 C0F20003 		movt	r3, #:upper16:AudioRemSize
 749 008a 1A68     		ldr	r2, [r3, #0]
 750 008c 4FF6FF73 		movw	r3, #65535
 751 0090 9A42     		cmp	r2, r3
 752 0092 28BF     		it	cs
 753 0094 1A46     		movcs	r2, r3
 754 0096 40F20003 		movw	r3, #:lower16:DMA_InitStructure
 755 009a C0F20003 		movt	r3, #:upper16:DMA_InitStructure
 756 009e 1A61     		str	r2, [r3, #16]
 486:../STM32F4-Discovery/stm32f4_discovery_audio_codec.c ****             
 487:../STM32F4-Discovery/stm32f4_discovery_audio_codec.c ****       /* Configure the DMA Stream with the new parameters */
 488:../STM32F4-Discovery/stm32f4_discovery_audio_codec.c ****       DMA_Init(AUDIO_MAL_DMA_STREAM, &DMA_InitStructure);
 757              		.loc 1 488 0
 758 00a0 40F20003 		movw	r3, #:lower16:AUDIO_MAL_DMA_STREAM
 759 00a4 C0F20003 		movt	r3, #:upper16:AUDIO_MAL_DMA_STREAM
 760 00a8 1B68     		ldr	r3, [r3, #0]
 761 00aa 1846     		mov	r0, r3
 762 00ac 40F20001 		movw	r1, #:lower16:DMA_InitStructure
 763 00b0 C0F20001 		movt	r1, #:upper16:DMA_InitStructure
 764 00b4 FFF7FEFF 		bl	DMA_Init
 489:../STM32F4-Discovery/stm32f4_discovery_audio_codec.c ****       
 490:../STM32F4-Discovery/stm32f4_discovery_audio_codec.c ****       /* Enable the I2S DMA Stream*/
 491:../STM32F4-Discovery/stm32f4_discovery_audio_codec.c ****       DMA_Cmd(AUDIO_MAL_DMA_STREAM, ENABLE);    
 765              		.loc 1 491 0
 766 00b8 40F20003 		movw	r3, #:lower16:AUDIO_MAL_DMA_STREAM
 767 00bc C0F20003 		movt	r3, #:upper16:AUDIO_MAL_DMA_STREAM
 768 00c0 1B68     		ldr	r3, [r3, #0]
 769 00c2 1846     		mov	r0, r3
 770 00c4 4FF00101 		mov	r1, #1
 771 00c8 FFF7FEFF 		bl	DMA_Cmd
 492:../STM32F4-Discovery/stm32f4_discovery_audio_codec.c ****       
 493:../STM32F4-Discovery/stm32f4_discovery_audio_codec.c ****       /* Update the current pointer position */
 494:../STM32F4-Discovery/stm32f4_discovery_audio_codec.c ****       CurrentPos += DMA_MAX(AudioRemSize);        
 772              		.loc 1 494 0
 773 00cc 40F20003 		movw	r3, #:lower16:CurrentPos
 774 00d0 C0F20003 		movt	r3, #:upper16:CurrentPos
 775 00d4 1A68     		ldr	r2, [r3, #0]
 776 00d6 40F20003 		movw	r3, #:lower16:AudioRemSize
 777 00da C0F20003 		movt	r3, #:upper16:AudioRemSize
 778 00de 1968     		ldr	r1, [r3, #0]
 779 00e0 4FF6FF73 		movw	r3, #65535
 780 00e4 9942     		cmp	r1, r3
 781 00e6 38BF     		it	cc
 782 00e8 0B46     		movcc	r3, r1
 783 00ea 4FEA4303 		lsl	r3, r3, #1
 784 00ee D218     		adds	r2, r2, r3
 785 00f0 40F20003 		movw	r3, #:lower16:CurrentPos
 786 00f4 C0F20003 		movt	r3, #:upper16:CurrentPos
 787 00f8 1A60     		str	r2, [r3, #0]
 495:../STM32F4-Discovery/stm32f4_discovery_audio_codec.c ****       
 496:../STM32F4-Discovery/stm32f4_discovery_audio_codec.c ****       /* Update the remaining number of data to be played */
 497:../STM32F4-Discovery/stm32f4_discovery_audio_codec.c ****       AudioRemSize -= DMA_MAX(AudioRemSize);   
 788              		.loc 1 497 0
 789 00fa 40F20003 		movw	r3, #:lower16:AudioRemSize
 790 00fe C0F20003 		movt	r3, #:upper16:AudioRemSize
 791 0102 1A68     		ldr	r2, [r3, #0]
 792 0104 40F20003 		movw	r3, #:lower16:AudioRemSize
 793 0108 C0F20003 		movt	r3, #:upper16:AudioRemSize
 794 010c 1968     		ldr	r1, [r3, #0]
 795 010e 4FF6FF73 		movw	r3, #65535
 796 0112 9942     		cmp	r1, r3
 797 0114 38BF     		it	cc
 798 0116 0B46     		movcc	r3, r1
 799 0118 D21A     		subs	r2, r2, r3
 800 011a 40F20003 		movw	r3, #:lower16:AudioRemSize
 801 011e C0F20003 		movt	r3, #:upper16:AudioRemSize
 802 0122 1A60     		str	r2, [r3, #0]
 498:../STM32F4-Discovery/stm32f4_discovery_audio_codec.c ****         /* Enable the I2S DMA Stream*/
 499:../STM32F4-Discovery/stm32f4_discovery_audio_codec.c ****       DMA_Cmd(AUDIO_MAL_DMA_STREAM, ENABLE); 
 803              		.loc 1 499 0
 804 0124 40F20003 		movw	r3, #:lower16:AUDIO_MAL_DMA_STREAM
 805 0128 C0F20003 		movt	r3, #:upper16:AUDIO_MAL_DMA_STREAM
 806 012c 1B68     		ldr	r3, [r3, #0]
 807 012e 1846     		mov	r0, r3
 808 0130 4FF00101 		mov	r1, #1
 809 0134 FFF7FEFF 		bl	DMA_Cmd
 810 0138 21E0     		b	.L23
 811              	.L25:
 500:../STM32F4-Discovery/stm32f4_discovery_audio_codec.c ****     }
 501:../STM32F4-Discovery/stm32f4_discovery_audio_codec.c ****     else
 502:../STM32F4-Discovery/stm32f4_discovery_audio_codec.c ****     {
 503:../STM32F4-Discovery/stm32f4_discovery_audio_codec.c ****       /* Disable the I2S DMA Stream*/
 504:../STM32F4-Discovery/stm32f4_discovery_audio_codec.c ****       DMA_Cmd(AUDIO_MAL_DMA_STREAM, DISABLE);   
 812              		.loc 1 504 0
 813 013a 40F20003 		movw	r3, #:lower16:AUDIO_MAL_DMA_STREAM
 814 013e C0F20003 		movt	r3, #:upper16:AUDIO_MAL_DMA_STREAM
 815 0142 1B68     		ldr	r3, [r3, #0]
 816 0144 1846     		mov	r0, r3
 817 0146 4FF00001 		mov	r1, #0
 818 014a FFF7FEFF 		bl	DMA_Cmd
 505:../STM32F4-Discovery/stm32f4_discovery_audio_codec.c ****       
 506:../STM32F4-Discovery/stm32f4_discovery_audio_codec.c ****       /* Clear the Interrupt flag */
 507:../STM32F4-Discovery/stm32f4_discovery_audio_codec.c ****       DMA_ClearFlag(AUDIO_MAL_DMA_STREAM, AUDIO_MAL_DMA_FLAG_TC);       
 819              		.loc 1 507 0
 820 014e 40F20003 		movw	r3, #:lower16:AUDIO_MAL_DMA_STREAM
 821 0152 C0F20003 		movt	r3, #:upper16:AUDIO_MAL_DMA_STREAM
 822 0156 1A68     		ldr	r2, [r3, #0]
 823 0158 40F20003 		movw	r3, #:lower16:AUDIO_MAL_DMA_FLAG_TC
 824 015c C0F20003 		movt	r3, #:upper16:AUDIO_MAL_DMA_FLAG_TC
 825 0160 1B68     		ldr	r3, [r3, #0]
 826 0162 1046     		mov	r0, r2
 827 0164 1946     		mov	r1, r3
 828 0166 FFF7FEFF 		bl	DMA_ClearFlag
 508:../STM32F4-Discovery/stm32f4_discovery_audio_codec.c ****       
 509:../STM32F4-Discovery/stm32f4_discovery_audio_codec.c ****       /* Manage the remaining file size and new address offset: This function 
 510:../STM32F4-Discovery/stm32f4_discovery_audio_codec.c ****       should be coded by user (its prototype is already declared in stm32f4_discovery_audio_codec.h
 511:../STM32F4-Discovery/stm32f4_discovery_audio_codec.c ****       EVAL_AUDIO_TransferComplete_CallBack((uint32_t)CurrentPos, 0);       
 829              		.loc 1 511 0
 830 016a 40F20003 		movw	r3, #:lower16:CurrentPos
 831 016e C0F20003 		movt	r3, #:upper16:CurrentPos
 832 0172 1B68     		ldr	r3, [r3, #0]
 833 0174 1846     		mov	r0, r3
 834 0176 4FF00001 		mov	r1, #0
 835 017a FFF7FEFF 		bl	EVAL_AUDIO_TransferComplete_CallBack
 836              	.L23:
 512:../STM32F4-Discovery/stm32f4_discovery_audio_codec.c ****     }
 513:../STM32F4-Discovery/stm32f4_discovery_audio_codec.c ****     
 514:../STM32F4-Discovery/stm32f4_discovery_audio_codec.c ****  #elif defined(AUDIO_MAL_MODE_CIRCULAR)
 515:../STM32F4-Discovery/stm32f4_discovery_audio_codec.c ****     /* Manage the remaining file size and new address offset: This function 
 516:../STM32F4-Discovery/stm32f4_discovery_audio_codec.c ****        should be coded by user (its prototype is already declared in stm32f4_discovery_audio_codec.
 517:../STM32F4-Discovery/stm32f4_discovery_audio_codec.c ****     EVAL_AUDIO_TransferComplete_CallBack(pAddr, Size);    
 518:../STM32F4-Discovery/stm32f4_discovery_audio_codec.c ****     
 519:../STM32F4-Discovery/stm32f4_discovery_audio_codec.c ****     /* Clear the Interrupt flag */
 520:../STM32F4-Discovery/stm32f4_discovery_audio_codec.c ****     DMA_ClearFlag(AUDIO_MAL_DMA_STREAM, AUDIO_MAL_DMA_FLAG_TC);
 521:../STM32F4-Discovery/stm32f4_discovery_audio_codec.c ****  #endif /* AUDIO_MAL_MODE_NORMAL */  
 522:../STM32F4-Discovery/stm32f4_discovery_audio_codec.c ****   }
 523:../STM32F4-Discovery/stm32f4_discovery_audio_codec.c **** #endif /* AUDIO_MAL_DMA_IT_TC_EN */
 524:../STM32F4-Discovery/stm32f4_discovery_audio_codec.c **** 
 525:../STM32F4-Discovery/stm32f4_discovery_audio_codec.c **** #ifdef AUDIO_MAL_DMA_IT_HT_EN  
 526:../STM32F4-Discovery/stm32f4_discovery_audio_codec.c ****   /* Half Transfer complete interrupt */
 527:../STM32F4-Discovery/stm32f4_discovery_audio_codec.c ****   if (DMA_GetFlagStatus(AUDIO_MAL_DMA_STREAM, AUDIO_MAL_DMA_FLAG_HT) != RESET)
 528:../STM32F4-Discovery/stm32f4_discovery_audio_codec.c ****   {
 529:../STM32F4-Discovery/stm32f4_discovery_audio_codec.c ****     /* Manage the remaining file size and new address offset: This function 
 530:../STM32F4-Discovery/stm32f4_discovery_audio_codec.c ****        should be coded by user (its prototype is already declared in stm32f4_discovery_audio_codec.
 531:../STM32F4-Discovery/stm32f4_discovery_audio_codec.c ****     EVAL_AUDIO_HalfTransfer_CallBack((uint32_t)pAddr, Size);    
 532:../STM32F4-Discovery/stm32f4_discovery_audio_codec.c ****    
 533:../STM32F4-Discovery/stm32f4_discovery_audio_codec.c ****     /* Clear the Interrupt flag */
 534:../STM32F4-Discovery/stm32f4_discovery_audio_codec.c ****     DMA_ClearFlag(AUDIO_MAL_DMA_STREAM, AUDIO_MAL_DMA_FLAG_HT);    
 535:../STM32F4-Discovery/stm32f4_discovery_audio_codec.c ****   }
 536:../STM32F4-Discovery/stm32f4_discovery_audio_codec.c **** #endif /* AUDIO_MAL_DMA_IT_HT_EN */
 537:../STM32F4-Discovery/stm32f4_discovery_audio_codec.c ****   
 538:../STM32F4-Discovery/stm32f4_discovery_audio_codec.c **** #ifdef AUDIO_MAL_DMA_IT_TE_EN  
 539:../STM32F4-Discovery/stm32f4_discovery_audio_codec.c ****   /* FIFO Error interrupt */
 540:../STM32F4-Discovery/stm32f4_discovery_audio_codec.c ****   if ((DMA_GetFlagStatus(AUDIO_MAL_DMA_STREAM, AUDIO_MAL_DMA_FLAG_TE) != RESET) || \
 541:../STM32F4-Discovery/stm32f4_discovery_audio_codec.c ****      (DMA_GetFlagStatus(AUDIO_MAL_DMA_STREAM, AUDIO_MAL_DMA_FLAG_FE) != RESET) || \
 542:../STM32F4-Discovery/stm32f4_discovery_audio_codec.c ****      (DMA_GetFlagStatus(AUDIO_MAL_DMA_STREAM, AUDIO_MAL_DMA_FLAG_DME) != RESET))
 543:../STM32F4-Discovery/stm32f4_discovery_audio_codec.c ****     
 544:../STM32F4-Discovery/stm32f4_discovery_audio_codec.c ****   {
 545:../STM32F4-Discovery/stm32f4_discovery_audio_codec.c ****     /* Manage the error generated on DMA FIFO: This function 
 546:../STM32F4-Discovery/stm32f4_discovery_audio_codec.c ****        should be coded by user (its prototype is already declared in stm32f4_discovery_audio_codec.
 547:../STM32F4-Discovery/stm32f4_discovery_audio_codec.c ****     EVAL_AUDIO_Error_CallBack((uint32_t*)&pAddr);    
 548:../STM32F4-Discovery/stm32f4_discovery_audio_codec.c ****     
 549:../STM32F4-Discovery/stm32f4_discovery_audio_codec.c ****     /* Clear the Interrupt flag */
 550:../STM32F4-Discovery/stm32f4_discovery_audio_codec.c ****     DMA_ClearFlag(AUDIO_MAL_DMA_STREAM, AUDIO_MAL_DMA_FLAG_TE | AUDIO_MAL_DMA_FLAG_FE | \
 551:../STM32F4-Discovery/stm32f4_discovery_audio_codec.c ****                                         AUDIO_MAL_DMA_FLAG_DME);
 552:../STM32F4-Discovery/stm32f4_discovery_audio_codec.c ****   }  
 553:../STM32F4-Discovery/stm32f4_discovery_audio_codec.c **** #endif /* AUDIO_MAL_DMA_IT_TE_EN */
 554:../STM32F4-Discovery/stm32f4_discovery_audio_codec.c **** }
 837              		.loc 1 554 0
 838 017e 80BD     		pop	{r7, pc}
 839              		.cfi_endproc
 840              	.LFE118:
 842              		.section	.text.DMA1_Stream7_IRQHandler,"ax",%progbits
 843              		.align	2
 844              		.global	DMA1_Stream7_IRQHandler
 845              		.thumb
 846              		.thumb_func
 848              	DMA1_Stream7_IRQHandler:
 849              	.LFB119:
 555:../STM32F4-Discovery/stm32f4_discovery_audio_codec.c **** 
 556:../STM32F4-Discovery/stm32f4_discovery_audio_codec.c **** /**
 557:../STM32F4-Discovery/stm32f4_discovery_audio_codec.c ****   * @brief  This function handles main I2S interrupt. 
 558:../STM32F4-Discovery/stm32f4_discovery_audio_codec.c ****   * @param  None
 559:../STM32F4-Discovery/stm32f4_discovery_audio_codec.c ****   * @retval 0 if correct communication, else wrong communication
 560:../STM32F4-Discovery/stm32f4_discovery_audio_codec.c ****   */
 561:../STM32F4-Discovery/stm32f4_discovery_audio_codec.c **** void Audio_MAL_I2S_IRQHandler(void)
 562:../STM32F4-Discovery/stm32f4_discovery_audio_codec.c **** { 
 850              		.loc 1 562 0
 851              		.cfi_startproc
 852              		@ args = 0, pretend = 0, frame = 0
 853              		@ frame_needed = 1, uses_anonymous_args = 0
 854 0000 80B5     		push	{r7, lr}
 855              	.LCFI25:
 856              		.cfi_def_cfa_offset 8
 857              		.cfi_offset 14, -4
 858              		.cfi_offset 7, -8
 859 0002 00AF     		add	r7, sp, #0
 860              	.LCFI26:
 861              		.cfi_def_cfa_register 7
 563:../STM32F4-Discovery/stm32f4_discovery_audio_codec.c ****   Audio_MAL_IRQHandler();
 862              		.loc 1 563 0
 863 0004 FFF7FEFF 		bl	Audio_MAL_IRQHandler
 564:../STM32F4-Discovery/stm32f4_discovery_audio_codec.c **** }
 864              		.loc 1 564 0
 865 0008 80BD     		pop	{r7, pc}
 866              		.cfi_endproc
 867              	.LFE119:
 869 000a 00BF     		.section	.text.DMA1_Stream0_IRQHandler,"ax",%progbits
 870              		.align	2
 871              		.global	DMA1_Stream0_IRQHandler
 872              		.thumb
 873              		.thumb_func
 875              	DMA1_Stream0_IRQHandler:
 876              	.LFB120:
 565:../STM32F4-Discovery/stm32f4_discovery_audio_codec.c **** 
 566:../STM32F4-Discovery/stm32f4_discovery_audio_codec.c **** /**
 567:../STM32F4-Discovery/stm32f4_discovery_audio_codec.c ****   * @brief  This function handles main DAC interrupt. 
 568:../STM32F4-Discovery/stm32f4_discovery_audio_codec.c ****   * @param  None
 569:../STM32F4-Discovery/stm32f4_discovery_audio_codec.c ****   * @retval 0 if correct communication, else wrong communication
 570:../STM32F4-Discovery/stm32f4_discovery_audio_codec.c ****   */
 571:../STM32F4-Discovery/stm32f4_discovery_audio_codec.c **** void Audio_MAL_DAC_IRQHandler(void)
 572:../STM32F4-Discovery/stm32f4_discovery_audio_codec.c **** { 
 877              		.loc 1 572 0
 878              		.cfi_startproc
 879              		@ args = 0, pretend = 0, frame = 0
 880              		@ frame_needed = 1, uses_anonymous_args = 0
 881 0000 80B5     		push	{r7, lr}
 882              	.LCFI27:
 883              		.cfi_def_cfa_offset 8
 884              		.cfi_offset 14, -4
 885              		.cfi_offset 7, -8
 886 0002 00AF     		add	r7, sp, #0
 887              	.LCFI28:
 888              		.cfi_def_cfa_register 7
 573:../STM32F4-Discovery/stm32f4_discovery_audio_codec.c ****   Audio_MAL_IRQHandler();
 889              		.loc 1 573 0
 890 0004 FFF7FEFF 		bl	Audio_MAL_IRQHandler
 574:../STM32F4-Discovery/stm32f4_discovery_audio_codec.c **** }
 891              		.loc 1 574 0
 892 0008 80BD     		pop	{r7, pc}
 893              		.cfi_endproc
 894              	.LFE120:
 896 000a 00BF     		.section	.text.SPI3_IRQHandler,"ax",%progbits
 897              		.align	2
 898              		.global	SPI3_IRQHandler
 899              		.thumb
 900              		.thumb_func
 902              	SPI3_IRQHandler:
 903              	.LFB121:
 575:../STM32F4-Discovery/stm32f4_discovery_audio_codec.c **** 
 576:../STM32F4-Discovery/stm32f4_discovery_audio_codec.c **** /**
 577:../STM32F4-Discovery/stm32f4_discovery_audio_codec.c ****   * @brief  I2S interrupt management
 578:../STM32F4-Discovery/stm32f4_discovery_audio_codec.c ****   * @param  None
 579:../STM32F4-Discovery/stm32f4_discovery_audio_codec.c ****   * @retval None
 580:../STM32F4-Discovery/stm32f4_discovery_audio_codec.c ****   */
 581:../STM32F4-Discovery/stm32f4_discovery_audio_codec.c **** void Audio_I2S_IRQHandler(void)
 582:../STM32F4-Discovery/stm32f4_discovery_audio_codec.c **** {
 904              		.loc 1 582 0
 905              		.cfi_startproc
 906              		@ args = 0, pretend = 0, frame = 0
 907              		@ frame_needed = 1, uses_anonymous_args = 0
 908 0000 80B5     		push	{r7, lr}
 909              	.LCFI29:
 910              		.cfi_def_cfa_offset 8
 911              		.cfi_offset 14, -4
 912              		.cfi_offset 7, -8
 913 0002 00AF     		add	r7, sp, #0
 914              	.LCFI30:
 915              		.cfi_def_cfa_register 7
 583:../STM32F4-Discovery/stm32f4_discovery_audio_codec.c ****   /* Check on the I2S TXE flag */  
 584:../STM32F4-Discovery/stm32f4_discovery_audio_codec.c ****   if (SPI_I2S_GetFlagStatus(SPI3, SPI_I2S_FLAG_TXE) != RESET)
 916              		.loc 1 584 0
 917 0004 4FF47050 		mov	r0, #15360
 918 0008 C4F20000 		movt	r0, 16384
 919 000c 4FF00201 		mov	r1, #2
 920 0010 FFF7FEFF 		bl	SPI_I2S_GetFlagStatus
 921 0014 0346     		mov	r3, r0
 922 0016 002B     		cmp	r3, #0
 923 0018 18D0     		beq	.L29
 585:../STM32F4-Discovery/stm32f4_discovery_audio_codec.c ****   { 
 586:../STM32F4-Discovery/stm32f4_discovery_audio_codec.c ****     if (CurrAudioInterface == AUDIO_INTERFACE_DAC)
 924              		.loc 1 586 0
 925 001a 40F20003 		movw	r3, #:lower16:CurrAudioInterface
 926 001e C0F20003 		movt	r3, #:upper16:CurrAudioInterface
 927 0022 1B68     		ldr	r3, [r3, #0]
 928 0024 022B     		cmp	r3, #2
 929 0026 07D1     		bne	.L31
 587:../STM32F4-Discovery/stm32f4_discovery_audio_codec.c ****     {
 588:../STM32F4-Discovery/stm32f4_discovery_audio_codec.c ****       /* Wirte data to the DAC interface */
 589:../STM32F4-Discovery/stm32f4_discovery_audio_codec.c ****       DAC_SetChannel1Data(DAC_Align_12b_L, EVAL_AUDIO_GetSampleCallBack()); 
 930              		.loc 1 589 0
 931 0028 FFF7FEFF 		bl	EVAL_AUDIO_GetSampleCallBack
 932 002c 0346     		mov	r3, r0
 933 002e 4FF00400 		mov	r0, #4
 934 0032 1946     		mov	r1, r3
 935 0034 FFF7FEFF 		bl	DAC_SetChannel1Data
 936              	.L31:
 590:../STM32F4-Discovery/stm32f4_discovery_audio_codec.c ****     }
 591:../STM32F4-Discovery/stm32f4_discovery_audio_codec.c ****     
 592:../STM32F4-Discovery/stm32f4_discovery_audio_codec.c ****     /* Send dummy data on I2S to avoid the underrun condition */
 593:../STM32F4-Discovery/stm32f4_discovery_audio_codec.c ****     SPI_I2S_SendData(CODEC_I2S, EVAL_AUDIO_GetSampleCallBack()); 
 937              		.loc 1 593 0
 938 0038 FFF7FEFF 		bl	EVAL_AUDIO_GetSampleCallBack
 939 003c 0346     		mov	r3, r0
 940 003e 4FF47050 		mov	r0, #15360
 941 0042 C4F20000 		movt	r0, 16384
 942 0046 1946     		mov	r1, r3
 943 0048 FFF7FEFF 		bl	SPI_I2S_SendData
 944              	.L29:
 594:../STM32F4-Discovery/stm32f4_discovery_audio_codec.c ****   }
 595:../STM32F4-Discovery/stm32f4_discovery_audio_codec.c **** }
 945              		.loc 1 595 0
 946 004c 80BD     		pop	{r7, pc}
 947              		.cfi_endproc
 948              	.LFE121:
 950 004e 00BF     		.section	.text.Codec_Init,"ax",%progbits
 951              		.align	2
 952              		.thumb
 953              		.thumb_func
 955              	Codec_Init:
 956              	.LFB122:
 596:../STM32F4-Discovery/stm32f4_discovery_audio_codec.c **** /*========================
 597:../STM32F4-Discovery/stm32f4_discovery_audio_codec.c **** 
 598:../STM32F4-Discovery/stm32f4_discovery_audio_codec.c ****                 CS43L22 Audio Codec Control Functions
 599:../STM32F4-Discovery/stm32f4_discovery_audio_codec.c ****                                                 ==============================*/
 600:../STM32F4-Discovery/stm32f4_discovery_audio_codec.c **** /**
 601:../STM32F4-Discovery/stm32f4_discovery_audio_codec.c ****   * @brief  Initializes the audio codec and all related interfaces (control 
 602:../STM32F4-Discovery/stm32f4_discovery_audio_codec.c ****   *         interface: I2C and audio interface: I2S)
 603:../STM32F4-Discovery/stm32f4_discovery_audio_codec.c ****   * @param  OutputDevice: can be OUTPUT_DEVICE_SPEAKER, OUTPUT_DEVICE_HEADPHONE,
 604:../STM32F4-Discovery/stm32f4_discovery_audio_codec.c ****   *                       OUTPUT_DEVICE_BOTH or OUTPUT_DEVICE_AUTO .
 605:../STM32F4-Discovery/stm32f4_discovery_audio_codec.c ****   * @param  Volume: Initial volume level (from 0 (Mute) to 100 (Max))
 606:../STM32F4-Discovery/stm32f4_discovery_audio_codec.c ****   * @param  AudioFreq: Audio frequency used to play the audio stream.
 607:../STM32F4-Discovery/stm32f4_discovery_audio_codec.c ****   * @retval 0 if correct communication, else wrong communication
 608:../STM32F4-Discovery/stm32f4_discovery_audio_codec.c ****   */
 609:../STM32F4-Discovery/stm32f4_discovery_audio_codec.c **** static uint32_t Codec_Init(uint16_t OutputDevice, uint8_t Volume, uint32_t AudioFreq)
 610:../STM32F4-Discovery/stm32f4_discovery_audio_codec.c **** {
 957              		.loc 1 610 0
 958              		.cfi_startproc
 959              		@ args = 0, pretend = 0, frame = 16
 960              		@ frame_needed = 1, uses_anonymous_args = 0
 961 0000 80B5     		push	{r7, lr}
 962              	.LCFI31:
 963              		.cfi_def_cfa_offset 8
 964              		.cfi_offset 14, -4
 965              		.cfi_offset 7, -8
 966 0002 84B0     		sub	sp, sp, #16
 967              	.LCFI32:
 968              		.cfi_def_cfa_offset 24
 969 0004 00AF     		add	r7, sp, #0
 970              	.LCFI33:
 971              		.cfi_def_cfa_register 7
 972 0006 0B46     		mov	r3, r1
 973 0008 3A60     		str	r2, [r7, #0]
 974 000a 0246     		mov	r2, r0	@ movhi
 975 000c FA80     		strh	r2, [r7, #6]	@ movhi
 976 000e 7B71     		strb	r3, [r7, #5]
 611:../STM32F4-Discovery/stm32f4_discovery_audio_codec.c ****   uint32_t counter = 0; 
 977              		.loc 1 611 0
 978 0010 4FF00003 		mov	r3, #0
 979 0014 FB60     		str	r3, [r7, #12]
 612:../STM32F4-Discovery/stm32f4_discovery_audio_codec.c **** 
 613:../STM32F4-Discovery/stm32f4_discovery_audio_codec.c ****   /* Configure the Codec related IOs */
 614:../STM32F4-Discovery/stm32f4_discovery_audio_codec.c ****   Codec_GPIO_Init();   
 980              		.loc 1 614 0
 981 0016 FFF7FEFF 		bl	Codec_GPIO_Init
 615:../STM32F4-Discovery/stm32f4_discovery_audio_codec.c ****   
 616:../STM32F4-Discovery/stm32f4_discovery_audio_codec.c ****   /* Reset the Codec Registers */
 617:../STM32F4-Discovery/stm32f4_discovery_audio_codec.c ****   Codec_Reset();
 982              		.loc 1 617 0
 983 001a FFF7FEFF 		bl	Codec_Reset
 618:../STM32F4-Discovery/stm32f4_discovery_audio_codec.c **** 
 619:../STM32F4-Discovery/stm32f4_discovery_audio_codec.c ****   /* Initialize the Control interface of the Audio Codec */
 620:../STM32F4-Discovery/stm32f4_discovery_audio_codec.c ****   Codec_CtrlInterface_Init();     
 984              		.loc 1 620 0
 985 001e FFF7FEFF 		bl	Codec_CtrlInterface_Init
 621:../STM32F4-Discovery/stm32f4_discovery_audio_codec.c ****   
 622:../STM32F4-Discovery/stm32f4_discovery_audio_codec.c ****   /* Keep Codec powered OFF */
 623:../STM32F4-Discovery/stm32f4_discovery_audio_codec.c ****   counter += Codec_WriteRegister(0x02, 0x01);  
 986              		.loc 1 623 0
 987 0022 4FF00200 		mov	r0, #2
 988 0026 4FF00101 		mov	r1, #1
 989 002a FFF7FEFF 		bl	Codec_WriteRegister
 990 002e 0346     		mov	r3, r0
 991 0030 FA68     		ldr	r2, [r7, #12]
 992 0032 D318     		adds	r3, r2, r3
 993 0034 FB60     		str	r3, [r7, #12]
 624:../STM32F4-Discovery/stm32f4_discovery_audio_codec.c ****       
 625:../STM32F4-Discovery/stm32f4_discovery_audio_codec.c ****   counter += Codec_WriteRegister(0x04, 0xAF); /* SPK always OFF & HP always ON */
 994              		.loc 1 625 0
 995 0036 4FF00400 		mov	r0, #4
 996 003a 4FF0AF01 		mov	r1, #175
 997 003e FFF7FEFF 		bl	Codec_WriteRegister
 998 0042 0346     		mov	r3, r0
 999 0044 FA68     		ldr	r2, [r7, #12]
 1000 0046 D318     		adds	r3, r2, r3
 1001 0048 FB60     		str	r3, [r7, #12]
 626:../STM32F4-Discovery/stm32f4_discovery_audio_codec.c ****   OutputDev = 0xAF;
 1002              		.loc 1 626 0
 1003 004a 40F20003 		movw	r3, #:lower16:OutputDev
 1004 004e C0F20003 		movt	r3, #:upper16:OutputDev
 1005 0052 4FF0AF02 		mov	r2, #175
 1006 0056 1A70     		strb	r2, [r3, #0]
 627:../STM32F4-Discovery/stm32f4_discovery_audio_codec.c ****   
 628:../STM32F4-Discovery/stm32f4_discovery_audio_codec.c ****   /* Clock configuration: Auto detection */  
 629:../STM32F4-Discovery/stm32f4_discovery_audio_codec.c ****   counter += Codec_WriteRegister(0x05, 0x81);
 1007              		.loc 1 629 0
 1008 0058 4FF00500 		mov	r0, #5
 1009 005c 4FF08101 		mov	r1, #129
 1010 0060 FFF7FEFF 		bl	Codec_WriteRegister
 1011 0064 0346     		mov	r3, r0
 1012 0066 FA68     		ldr	r2, [r7, #12]
 1013 0068 D318     		adds	r3, r2, r3
 1014 006a FB60     		str	r3, [r7, #12]
 630:../STM32F4-Discovery/stm32f4_discovery_audio_codec.c ****   
 631:../STM32F4-Discovery/stm32f4_discovery_audio_codec.c ****   /* Set the Slave Mode and the audio Standard */  
 632:../STM32F4-Discovery/stm32f4_discovery_audio_codec.c ****   counter += Codec_WriteRegister(0x06, CODEC_STANDARD);
 1015              		.loc 1 632 0
 1016 006c 4FF00600 		mov	r0, #6
 1017 0070 4FF00401 		mov	r1, #4
 1018 0074 FFF7FEFF 		bl	Codec_WriteRegister
 1019 0078 0346     		mov	r3, r0
 1020 007a FA68     		ldr	r2, [r7, #12]
 1021 007c D318     		adds	r3, r2, r3
 1022 007e FB60     		str	r3, [r7, #12]
 633:../STM32F4-Discovery/stm32f4_discovery_audio_codec.c ****       
 634:../STM32F4-Discovery/stm32f4_discovery_audio_codec.c ****   /* Set the Master volume */
 635:../STM32F4-Discovery/stm32f4_discovery_audio_codec.c ****   Codec_VolumeCtrl(Volume);
 1023              		.loc 1 635 0
 1024 0080 7B79     		ldrb	r3, [r7, #5]	@ zero_extendqisi2
 1025 0082 1846     		mov	r0, r3
 1026 0084 FFF7FEFF 		bl	Codec_VolumeCtrl
 636:../STM32F4-Discovery/stm32f4_discovery_audio_codec.c ****   
 637:../STM32F4-Discovery/stm32f4_discovery_audio_codec.c ****   if (CurrAudioInterface == AUDIO_INTERFACE_DAC)
 1027              		.loc 1 637 0
 1028 0088 40F20003 		movw	r3, #:lower16:CurrAudioInterface
 1029 008c C0F20003 		movt	r3, #:upper16:CurrAudioInterface
 1030 0090 1B68     		ldr	r3, [r3, #0]
 1031 0092 022B     		cmp	r3, #2
 1032 0094 31D1     		bne	.L33
 638:../STM32F4-Discovery/stm32f4_discovery_audio_codec.c ****   {
 639:../STM32F4-Discovery/stm32f4_discovery_audio_codec.c ****     /* Enable the PassThrough on AIN1A and AIN1B */
 640:../STM32F4-Discovery/stm32f4_discovery_audio_codec.c ****     counter += Codec_WriteRegister(0x08, 0x01);
 1033              		.loc 1 640 0
 1034 0096 4FF00800 		mov	r0, #8
 1035 009a 4FF00101 		mov	r1, #1
 1036 009e FFF7FEFF 		bl	Codec_WriteRegister
 1037 00a2 0346     		mov	r3, r0
 1038 00a4 FA68     		ldr	r2, [r7, #12]
 1039 00a6 D318     		adds	r3, r2, r3
 1040 00a8 FB60     		str	r3, [r7, #12]
 641:../STM32F4-Discovery/stm32f4_discovery_audio_codec.c ****     counter += Codec_WriteRegister(0x09, 0x01);
 1041              		.loc 1 641 0
 1042 00aa 4FF00900 		mov	r0, #9
 1043 00ae 4FF00101 		mov	r1, #1
 1044 00b2 FFF7FEFF 		bl	Codec_WriteRegister
 1045 00b6 0346     		mov	r3, r0
 1046 00b8 FA68     		ldr	r2, [r7, #12]
 1047 00ba D318     		adds	r3, r2, r3
 1048 00bc FB60     		str	r3, [r7, #12]
 642:../STM32F4-Discovery/stm32f4_discovery_audio_codec.c ****     
 643:../STM32F4-Discovery/stm32f4_discovery_audio_codec.c ****     /* Route the analog input to the HP line */
 644:../STM32F4-Discovery/stm32f4_discovery_audio_codec.c ****     counter += Codec_WriteRegister(0x0E, 0xC0);
 1049              		.loc 1 644 0
 1050 00be 4FF00E00 		mov	r0, #14
 1051 00c2 4FF0C001 		mov	r1, #192
 1052 00c6 FFF7FEFF 		bl	Codec_WriteRegister
 1053 00ca 0346     		mov	r3, r0
 1054 00cc FA68     		ldr	r2, [r7, #12]
 1055 00ce D318     		adds	r3, r2, r3
 1056 00d0 FB60     		str	r3, [r7, #12]
 645:../STM32F4-Discovery/stm32f4_discovery_audio_codec.c ****     
 646:../STM32F4-Discovery/stm32f4_discovery_audio_codec.c ****     /* Set the Passthough volume */
 647:../STM32F4-Discovery/stm32f4_discovery_audio_codec.c ****     counter += Codec_WriteRegister(0x14, 0x00);
 1057              		.loc 1 647 0
 1058 00d2 4FF01400 		mov	r0, #20
 1059 00d6 4FF00001 		mov	r1, #0
 1060 00da FFF7FEFF 		bl	Codec_WriteRegister
 1061 00de 0346     		mov	r3, r0
 1062 00e0 FA68     		ldr	r2, [r7, #12]
 1063 00e2 D318     		adds	r3, r2, r3
 1064 00e4 FB60     		str	r3, [r7, #12]
 648:../STM32F4-Discovery/stm32f4_discovery_audio_codec.c ****     counter += Codec_WriteRegister(0x15, 0x00);
 1065              		.loc 1 648 0
 1066 00e6 4FF01500 		mov	r0, #21
 1067 00ea 4FF00001 		mov	r1, #0
 1068 00ee FFF7FEFF 		bl	Codec_WriteRegister
 1069 00f2 0346     		mov	r3, r0
 1070 00f4 FA68     		ldr	r2, [r7, #12]
 1071 00f6 D318     		adds	r3, r2, r3
 1072 00f8 FB60     		str	r3, [r7, #12]
 1073              	.L33:
 649:../STM32F4-Discovery/stm32f4_discovery_audio_codec.c ****   }
 650:../STM32F4-Discovery/stm32f4_discovery_audio_codec.c **** 
 651:../STM32F4-Discovery/stm32f4_discovery_audio_codec.c ****   /* Power on the Codec */
 652:../STM32F4-Discovery/stm32f4_discovery_audio_codec.c ****   counter += Codec_WriteRegister(0x02, 0x9E);  
 1074              		.loc 1 652 0
 1075 00fa 4FF00200 		mov	r0, #2
 1076 00fe 4FF09E01 		mov	r1, #158
 1077 0102 FFF7FEFF 		bl	Codec_WriteRegister
 1078 0106 0346     		mov	r3, r0
 1079 0108 FA68     		ldr	r2, [r7, #12]
 1080 010a D318     		adds	r3, r2, r3
 1081 010c FB60     		str	r3, [r7, #12]
 653:../STM32F4-Discovery/stm32f4_discovery_audio_codec.c ****   
 654:../STM32F4-Discovery/stm32f4_discovery_audio_codec.c ****   /* Additional configuration for the CODEC. These configurations are done to reduce
 655:../STM32F4-Discovery/stm32f4_discovery_audio_codec.c ****       the time needed for the Codec to power off. If these configurations are removed, 
 656:../STM32F4-Discovery/stm32f4_discovery_audio_codec.c ****       then a long delay should be added between powering off the Codec and switching 
 657:../STM32F4-Discovery/stm32f4_discovery_audio_codec.c ****       off the I2S peripheral MCLK clock (which is the operating clock for Codec).
 658:../STM32F4-Discovery/stm32f4_discovery_audio_codec.c ****       If this delay is not inserted, then the codec will not shut down properly and
 659:../STM32F4-Discovery/stm32f4_discovery_audio_codec.c ****       it results in high noise after shut down. */
 660:../STM32F4-Discovery/stm32f4_discovery_audio_codec.c ****   
 661:../STM32F4-Discovery/stm32f4_discovery_audio_codec.c ****   /* Disable the analog soft ramp */
 662:../STM32F4-Discovery/stm32f4_discovery_audio_codec.c ****   counter += Codec_WriteRegister(0x0A, 0x00);
 1082              		.loc 1 662 0
 1083 010e 4FF00A00 		mov	r0, #10
 1084 0112 4FF00001 		mov	r1, #0
 1085 0116 FFF7FEFF 		bl	Codec_WriteRegister
 1086 011a 0346     		mov	r3, r0
 1087 011c FA68     		ldr	r2, [r7, #12]
 1088 011e D318     		adds	r3, r2, r3
 1089 0120 FB60     		str	r3, [r7, #12]
 663:../STM32F4-Discovery/stm32f4_discovery_audio_codec.c ****   if (CurrAudioInterface != AUDIO_INTERFACE_DAC)
 1090              		.loc 1 663 0
 1091 0122 40F20003 		movw	r3, #:lower16:CurrAudioInterface
 1092 0126 C0F20003 		movt	r3, #:upper16:CurrAudioInterface
 1093 012a 1B68     		ldr	r3, [r3, #0]
 1094 012c 022B     		cmp	r3, #2
 1095 012e 09D0     		beq	.L34
 664:../STM32F4-Discovery/stm32f4_discovery_audio_codec.c ****   {  
 665:../STM32F4-Discovery/stm32f4_discovery_audio_codec.c ****     /* Disable the digital soft ramp */
 666:../STM32F4-Discovery/stm32f4_discovery_audio_codec.c ****     counter += Codec_WriteRegister(0x0E, 0x04);
 1096              		.loc 1 666 0
 1097 0130 4FF00E00 		mov	r0, #14
 1098 0134 4FF00401 		mov	r1, #4
 1099 0138 FFF7FEFF 		bl	Codec_WriteRegister
 1100 013c 0346     		mov	r3, r0
 1101 013e FA68     		ldr	r2, [r7, #12]
 1102 0140 D318     		adds	r3, r2, r3
 1103 0142 FB60     		str	r3, [r7, #12]
 1104              	.L34:
 667:../STM32F4-Discovery/stm32f4_discovery_audio_codec.c ****   }
 668:../STM32F4-Discovery/stm32f4_discovery_audio_codec.c ****   /* Disable the limiter attack level */
 669:../STM32F4-Discovery/stm32f4_discovery_audio_codec.c ****   counter += Codec_WriteRegister(0x27, 0x00);
 1105              		.loc 1 669 0
 1106 0144 4FF02700 		mov	r0, #39
 1107 0148 4FF00001 		mov	r1, #0
 1108 014c FFF7FEFF 		bl	Codec_WriteRegister
 1109 0150 0346     		mov	r3, r0
 1110 0152 FA68     		ldr	r2, [r7, #12]
 1111 0154 D318     		adds	r3, r2, r3
 1112 0156 FB60     		str	r3, [r7, #12]
 670:../STM32F4-Discovery/stm32f4_discovery_audio_codec.c ****   /* Adjust Bass and Treble levels */
 671:../STM32F4-Discovery/stm32f4_discovery_audio_codec.c ****   counter += Codec_WriteRegister(0x1F, 0x0F);
 1113              		.loc 1 671 0
 1114 0158 4FF01F00 		mov	r0, #31
 1115 015c 4FF00F01 		mov	r1, #15
 1116 0160 FFF7FEFF 		bl	Codec_WriteRegister
 1117 0164 0346     		mov	r3, r0
 1118 0166 FA68     		ldr	r2, [r7, #12]
 1119 0168 D318     		adds	r3, r2, r3
 1120 016a FB60     		str	r3, [r7, #12]
 672:../STM32F4-Discovery/stm32f4_discovery_audio_codec.c ****   /* Adjust PCM volume level */
 673:../STM32F4-Discovery/stm32f4_discovery_audio_codec.c ****   counter += Codec_WriteRegister(0x1A, 0x0A);
 1121              		.loc 1 673 0
 1122 016c 4FF01A00 		mov	r0, #26
 1123 0170 4FF00A01 		mov	r1, #10
 1124 0174 FFF7FEFF 		bl	Codec_WriteRegister
 1125 0178 0346     		mov	r3, r0
 1126 017a FA68     		ldr	r2, [r7, #12]
 1127 017c D318     		adds	r3, r2, r3
 1128 017e FB60     		str	r3, [r7, #12]
 674:../STM32F4-Discovery/stm32f4_discovery_audio_codec.c ****   counter += Codec_WriteRegister(0x1B, 0x0A);
 1129              		.loc 1 674 0
 1130 0180 4FF01B00 		mov	r0, #27
 1131 0184 4FF00A01 		mov	r1, #10
 1132 0188 FFF7FEFF 		bl	Codec_WriteRegister
 1133 018c 0346     		mov	r3, r0
 1134 018e FA68     		ldr	r2, [r7, #12]
 1135 0190 D318     		adds	r3, r2, r3
 1136 0192 FB60     		str	r3, [r7, #12]
 675:../STM32F4-Discovery/stm32f4_discovery_audio_codec.c **** 
 676:../STM32F4-Discovery/stm32f4_discovery_audio_codec.c ****   /* Configure the I2S peripheral */
 677:../STM32F4-Discovery/stm32f4_discovery_audio_codec.c ****   Codec_AudioInterface_Init(AudioFreq);  
 1137              		.loc 1 677 0
 1138 0194 3868     		ldr	r0, [r7, #0]
 1139 0196 FFF7FEFF 		bl	Codec_AudioInterface_Init
 678:../STM32F4-Discovery/stm32f4_discovery_audio_codec.c ****   
 679:../STM32F4-Discovery/stm32f4_discovery_audio_codec.c ****   /* Return communication control value */
 680:../STM32F4-Discovery/stm32f4_discovery_audio_codec.c ****   return counter;  
 1140              		.loc 1 680 0
 1141 019a FB68     		ldr	r3, [r7, #12]
 681:../STM32F4-Discovery/stm32f4_discovery_audio_codec.c **** }
 1142              		.loc 1 681 0
 1143 019c 1846     		mov	r0, r3
 1144 019e 07F11007 		add	r7, r7, #16
 1145 01a2 BD46     		mov	sp, r7
 1146 01a4 80BD     		pop	{r7, pc}
 1147              		.cfi_endproc
 1148              	.LFE122:
 1150 01a6 00BF     		.section	.text.Codec_DeInit,"ax",%progbits
 1151              		.align	2
 1152              		.thumb
 1153              		.thumb_func
 1155              	Codec_DeInit:
 1156              	.LFB123:
 682:../STM32F4-Discovery/stm32f4_discovery_audio_codec.c **** 
 683:../STM32F4-Discovery/stm32f4_discovery_audio_codec.c **** /**
 684:../STM32F4-Discovery/stm32f4_discovery_audio_codec.c ****   * @brief  Restore the audio codec state to default state and free all used 
 685:../STM32F4-Discovery/stm32f4_discovery_audio_codec.c ****   *         resources.
 686:../STM32F4-Discovery/stm32f4_discovery_audio_codec.c ****   * @param  None
 687:../STM32F4-Discovery/stm32f4_discovery_audio_codec.c ****   * @retval 0 if correct communication, else wrong communication
 688:../STM32F4-Discovery/stm32f4_discovery_audio_codec.c ****   */
 689:../STM32F4-Discovery/stm32f4_discovery_audio_codec.c **** static uint32_t Codec_DeInit(void)
 690:../STM32F4-Discovery/stm32f4_discovery_audio_codec.c **** {
 1157              		.loc 1 690 0
 1158              		.cfi_startproc
 1159              		@ args = 0, pretend = 0, frame = 8
 1160              		@ frame_needed = 1, uses_anonymous_args = 0
 1161 0000 80B5     		push	{r7, lr}
 1162              	.LCFI34:
 1163              		.cfi_def_cfa_offset 8
 1164              		.cfi_offset 14, -4
 1165              		.cfi_offset 7, -8
 1166 0002 82B0     		sub	sp, sp, #8
 1167              	.LCFI35:
 1168              		.cfi_def_cfa_offset 16
 1169 0004 00AF     		add	r7, sp, #0
 1170              	.LCFI36:
 1171              		.cfi_def_cfa_register 7
 691:../STM32F4-Discovery/stm32f4_discovery_audio_codec.c ****   uint32_t counter = 0; 
 1172              		.loc 1 691 0
 1173 0006 4FF00003 		mov	r3, #0
 1174 000a 7B60     		str	r3, [r7, #4]
 692:../STM32F4-Discovery/stm32f4_discovery_audio_codec.c **** 
 693:../STM32F4-Discovery/stm32f4_discovery_audio_codec.c ****   /* Reset the Codec Registers */
 694:../STM32F4-Discovery/stm32f4_discovery_audio_codec.c ****   Codec_Reset();  
 1175              		.loc 1 694 0
 1176 000c FFF7FEFF 		bl	Codec_Reset
 695:../STM32F4-Discovery/stm32f4_discovery_audio_codec.c ****   
 696:../STM32F4-Discovery/stm32f4_discovery_audio_codec.c ****   /* Keep Codec powered OFF */
 697:../STM32F4-Discovery/stm32f4_discovery_audio_codec.c ****   counter += Codec_WriteRegister(0x02, 0x01);    
 1177              		.loc 1 697 0
 1178 0010 4FF00200 		mov	r0, #2
 1179 0014 4FF00101 		mov	r1, #1
 1180 0018 FFF7FEFF 		bl	Codec_WriteRegister
 1181 001c 0346     		mov	r3, r0
 1182 001e 7A68     		ldr	r2, [r7, #4]
 1183 0020 D318     		adds	r3, r2, r3
 1184 0022 7B60     		str	r3, [r7, #4]
 698:../STM32F4-Discovery/stm32f4_discovery_audio_codec.c ****   
 699:../STM32F4-Discovery/stm32f4_discovery_audio_codec.c ****   /* Deinitialize all use GPIOs */
 700:../STM32F4-Discovery/stm32f4_discovery_audio_codec.c ****   Codec_GPIO_DeInit();
 1185              		.loc 1 700 0
 1186 0024 FFF7FEFF 		bl	Codec_GPIO_DeInit
 701:../STM32F4-Discovery/stm32f4_discovery_audio_codec.c **** 
 702:../STM32F4-Discovery/stm32f4_discovery_audio_codec.c ****   /* Disable the Codec control interface */
 703:../STM32F4-Discovery/stm32f4_discovery_audio_codec.c ****   Codec_CtrlInterface_DeInit();
 1187              		.loc 1 703 0
 1188 0028 FFF7FEFF 		bl	Codec_CtrlInterface_DeInit
 704:../STM32F4-Discovery/stm32f4_discovery_audio_codec.c ****   
 705:../STM32F4-Discovery/stm32f4_discovery_audio_codec.c ****   /* Deinitialize the Codec audio interface (I2S) */
 706:../STM32F4-Discovery/stm32f4_discovery_audio_codec.c ****   Codec_AudioInterface_DeInit(); 
 1189              		.loc 1 706 0
 1190 002c FFF7FEFF 		bl	Codec_AudioInterface_DeInit
 707:../STM32F4-Discovery/stm32f4_discovery_audio_codec.c ****   
 708:../STM32F4-Discovery/stm32f4_discovery_audio_codec.c ****   /* Return communication control value */
 709:../STM32F4-Discovery/stm32f4_discovery_audio_codec.c ****   return counter;  
 1191              		.loc 1 709 0
 1192 0030 7B68     		ldr	r3, [r7, #4]
 710:../STM32F4-Discovery/stm32f4_discovery_audio_codec.c **** }
 1193              		.loc 1 710 0
 1194 0032 1846     		mov	r0, r3
 1195 0034 07F10807 		add	r7, r7, #8
 1196 0038 BD46     		mov	sp, r7
 1197 003a 80BD     		pop	{r7, pc}
 1198              		.cfi_endproc
 1199              	.LFE123:
 1201              		.section	.text.Codec_Play,"ax",%progbits
 1202              		.align	2
 1203              		.thumb
 1204              		.thumb_func
 1206              	Codec_Play:
 1207              	.LFB124:
 711:../STM32F4-Discovery/stm32f4_discovery_audio_codec.c **** 
 712:../STM32F4-Discovery/stm32f4_discovery_audio_codec.c **** /**
 713:../STM32F4-Discovery/stm32f4_discovery_audio_codec.c ****   * @brief  Start the audio Codec play feature.
 714:../STM32F4-Discovery/stm32f4_discovery_audio_codec.c ****   * @note   For this codec no Play options are required.
 715:../STM32F4-Discovery/stm32f4_discovery_audio_codec.c ****   * @param  None
 716:../STM32F4-Discovery/stm32f4_discovery_audio_codec.c ****   * @retval 0 if correct communication, else wrong communication
 717:../STM32F4-Discovery/stm32f4_discovery_audio_codec.c ****   */
 718:../STM32F4-Discovery/stm32f4_discovery_audio_codec.c **** static uint32_t Codec_Play(void)
 719:../STM32F4-Discovery/stm32f4_discovery_audio_codec.c **** {
 1208              		.loc 1 719 0
 1209              		.cfi_startproc
 1210              		@ args = 0, pretend = 0, frame = 0
 1211              		@ frame_needed = 1, uses_anonymous_args = 0
 1212              		@ link register save eliminated.
 1213 0000 80B4     		push	{r7}
 1214              	.LCFI37:
 1215              		.cfi_def_cfa_offset 4
 1216              		.cfi_offset 7, -4
 1217 0002 00AF     		add	r7, sp, #0
 1218              	.LCFI38:
 1219              		.cfi_def_cfa_register 7
 720:../STM32F4-Discovery/stm32f4_discovery_audio_codec.c ****   /* 
 721:../STM32F4-Discovery/stm32f4_discovery_audio_codec.c ****      No actions required on Codec level for play command
 722:../STM32F4-Discovery/stm32f4_discovery_audio_codec.c ****      */  
 723:../STM32F4-Discovery/stm32f4_discovery_audio_codec.c **** 
 724:../STM32F4-Discovery/stm32f4_discovery_audio_codec.c ****   /* Return communication control value */
 725:../STM32F4-Discovery/stm32f4_discovery_audio_codec.c ****   return 0;  
 1220              		.loc 1 725 0
 1221 0004 4FF00003 		mov	r3, #0
 726:../STM32F4-Discovery/stm32f4_discovery_audio_codec.c **** }
 1222              		.loc 1 726 0
 1223 0008 1846     		mov	r0, r3
 1224 000a BD46     		mov	sp, r7
 1225 000c 80BC     		pop	{r7}
 1226 000e 7047     		bx	lr
 1227              		.cfi_endproc
 1228              	.LFE124:
 1230              		.section	.text.Codec_PauseResume,"ax",%progbits
 1231              		.align	2
 1232              		.thumb
 1233              		.thumb_func
 1235              	Codec_PauseResume:
 1236              	.LFB125:
 727:../STM32F4-Discovery/stm32f4_discovery_audio_codec.c **** 
 728:../STM32F4-Discovery/stm32f4_discovery_audio_codec.c **** /**
 729:../STM32F4-Discovery/stm32f4_discovery_audio_codec.c ****   * @brief  Pauses and resumes playing on the audio codec.
 730:../STM32F4-Discovery/stm32f4_discovery_audio_codec.c ****   * @param  Cmd: AUDIO_PAUSE (or 0) to pause, AUDIO_RESUME (or any value different
 731:../STM32F4-Discovery/stm32f4_discovery_audio_codec.c ****   *         from 0) to resume. 
 732:../STM32F4-Discovery/stm32f4_discovery_audio_codec.c ****   * @retval 0 if correct communication, else wrong communication
 733:../STM32F4-Discovery/stm32f4_discovery_audio_codec.c ****   */
 734:../STM32F4-Discovery/stm32f4_discovery_audio_codec.c **** static uint32_t Codec_PauseResume(uint32_t Cmd)
 735:../STM32F4-Discovery/stm32f4_discovery_audio_codec.c **** {
 1237              		.loc 1 735 0
 1238              		.cfi_startproc
 1239              		@ args = 0, pretend = 0, frame = 16
 1240              		@ frame_needed = 1, uses_anonymous_args = 0
 1241 0000 80B5     		push	{r7, lr}
 1242              	.LCFI39:
 1243              		.cfi_def_cfa_offset 8
 1244              		.cfi_offset 14, -4
 1245              		.cfi_offset 7, -8
 1246 0002 84B0     		sub	sp, sp, #16
 1247              	.LCFI40:
 1248              		.cfi_def_cfa_offset 24
 1249 0004 00AF     		add	r7, sp, #0
 1250              	.LCFI41:
 1251              		.cfi_def_cfa_register 7
 1252 0006 7860     		str	r0, [r7, #4]
 736:../STM32F4-Discovery/stm32f4_discovery_audio_codec.c ****   uint32_t counter = 0;   
 1253              		.loc 1 736 0
 1254 0008 4FF00003 		mov	r3, #0
 1255 000c FB60     		str	r3, [r7, #12]
 737:../STM32F4-Discovery/stm32f4_discovery_audio_codec.c ****   
 738:../STM32F4-Discovery/stm32f4_discovery_audio_codec.c ****   /* Pause the audio file playing */
 739:../STM32F4-Discovery/stm32f4_discovery_audio_codec.c ****   if (Cmd == AUDIO_PAUSE)
 1256              		.loc 1 739 0
 1257 000e 7B68     		ldr	r3, [r7, #4]
 1258 0010 002B     		cmp	r3, #0
 1259 0012 12D1     		bne	.L38
 740:../STM32F4-Discovery/stm32f4_discovery_audio_codec.c ****   { 
 741:../STM32F4-Discovery/stm32f4_discovery_audio_codec.c ****     /* Mute the output first */
 742:../STM32F4-Discovery/stm32f4_discovery_audio_codec.c ****     counter += Codec_Mute(AUDIO_MUTE_ON);
 1260              		.loc 1 742 0
 1261 0014 4FF00100 		mov	r0, #1
 1262 0018 FFF7FEFF 		bl	Codec_Mute
 1263 001c 0346     		mov	r3, r0
 1264 001e FA68     		ldr	r2, [r7, #12]
 1265 0020 D318     		adds	r3, r2, r3
 1266 0022 FB60     		str	r3, [r7, #12]
 743:../STM32F4-Discovery/stm32f4_discovery_audio_codec.c **** 
 744:../STM32F4-Discovery/stm32f4_discovery_audio_codec.c ****     /* Put the Codec in Power save mode */    
 745:../STM32F4-Discovery/stm32f4_discovery_audio_codec.c ****     counter += Codec_WriteRegister(0x02, 0x01);    
 1267              		.loc 1 745 0
 1268 0024 4FF00200 		mov	r0, #2
 1269 0028 4FF00101 		mov	r1, #1
 1270 002c FFF7FEFF 		bl	Codec_WriteRegister
 1271 0030 0346     		mov	r3, r0
 1272 0032 FA68     		ldr	r2, [r7, #12]
 1273 0034 D318     		adds	r3, r2, r3
 1274 0036 FB60     		str	r3, [r7, #12]
 1275 0038 20E0     		b	.L39
 1276              	.L38:
 746:../STM32F4-Discovery/stm32f4_discovery_audio_codec.c ****   }
 747:../STM32F4-Discovery/stm32f4_discovery_audio_codec.c ****   else /* AUDIO_RESUME */
 748:../STM32F4-Discovery/stm32f4_discovery_audio_codec.c ****   {
 749:../STM32F4-Discovery/stm32f4_discovery_audio_codec.c ****     /* Unmute the output first */
 750:../STM32F4-Discovery/stm32f4_discovery_audio_codec.c ****     counter += Codec_Mute(AUDIO_MUTE_OFF);
 1277              		.loc 1 750 0
 1278 003a 4FF00000 		mov	r0, #0
 1279 003e FFF7FEFF 		bl	Codec_Mute
 1280 0042 0346     		mov	r3, r0
 1281 0044 FA68     		ldr	r2, [r7, #12]
 1282 0046 D318     		adds	r3, r2, r3
 1283 0048 FB60     		str	r3, [r7, #12]
 751:../STM32F4-Discovery/stm32f4_discovery_audio_codec.c ****     
 752:../STM32F4-Discovery/stm32f4_discovery_audio_codec.c ****     counter += Codec_WriteRegister(0x04, OutputDev);
 1284              		.loc 1 752 0
 1285 004a 40F20003 		movw	r3, #:lower16:OutputDev
 1286 004e C0F20003 		movt	r3, #:upper16:OutputDev
 1287 0052 1B78     		ldrb	r3, [r3, #0]
 1288 0054 DBB2     		uxtb	r3, r3
 1289 0056 4FF00400 		mov	r0, #4
 1290 005a 1946     		mov	r1, r3
 1291 005c FFF7FEFF 		bl	Codec_WriteRegister
 1292 0060 0346     		mov	r3, r0
 1293 0062 FA68     		ldr	r2, [r7, #12]
 1294 0064 D318     		adds	r3, r2, r3
 1295 0066 FB60     		str	r3, [r7, #12]
 753:../STM32F4-Discovery/stm32f4_discovery_audio_codec.c ****     
 754:../STM32F4-Discovery/stm32f4_discovery_audio_codec.c ****     /* Exit the Power save mode */
 755:../STM32F4-Discovery/stm32f4_discovery_audio_codec.c ****     counter += Codec_WriteRegister(0x02, 0x9E); 
 1296              		.loc 1 755 0
 1297 0068 4FF00200 		mov	r0, #2
 1298 006c 4FF09E01 		mov	r1, #158
 1299 0070 FFF7FEFF 		bl	Codec_WriteRegister
 1300 0074 0346     		mov	r3, r0
 1301 0076 FA68     		ldr	r2, [r7, #12]
 1302 0078 D318     		adds	r3, r2, r3
 1303 007a FB60     		str	r3, [r7, #12]
 1304              	.L39:
 756:../STM32F4-Discovery/stm32f4_discovery_audio_codec.c ****   }
 757:../STM32F4-Discovery/stm32f4_discovery_audio_codec.c **** 
 758:../STM32F4-Discovery/stm32f4_discovery_audio_codec.c ****   return counter;
 1305              		.loc 1 758 0
 1306 007c FB68     		ldr	r3, [r7, #12]
 759:../STM32F4-Discovery/stm32f4_discovery_audio_codec.c **** }
 1307              		.loc 1 759 0
 1308 007e 1846     		mov	r0, r3
 1309 0080 07F11007 		add	r7, r7, #16
 1310 0084 BD46     		mov	sp, r7
 1311 0086 80BD     		pop	{r7, pc}
 1312              		.cfi_endproc
 1313              	.LFE125:
 1315              		.section	.text.Codec_Stop,"ax",%progbits
 1316              		.align	2
 1317              		.thumb
 1318              		.thumb_func
 1320              	Codec_Stop:
 1321              	.LFB126:
 760:../STM32F4-Discovery/stm32f4_discovery_audio_codec.c **** 
 761:../STM32F4-Discovery/stm32f4_discovery_audio_codec.c **** /**
 762:../STM32F4-Discovery/stm32f4_discovery_audio_codec.c ****   * @brief  Stops audio Codec playing. It powers down the codec.
 763:../STM32F4-Discovery/stm32f4_discovery_audio_codec.c ****   * @param  CodecPdwnMode: selects the  power down mode.
 764:../STM32F4-Discovery/stm32f4_discovery_audio_codec.c ****   *          - CODEC_PDWN_SW: only mutes the audio codec. When resuming from this 
 765:../STM32F4-Discovery/stm32f4_discovery_audio_codec.c ****   *                           mode the codec keeps the previous initialization
 766:../STM32F4-Discovery/stm32f4_discovery_audio_codec.c ****   *                           (no need to re-Initialize the codec registers).
 767:../STM32F4-Discovery/stm32f4_discovery_audio_codec.c ****   *          - CODEC_PDWN_HW: Physically power down the codec. When resuming from this
 768:../STM32F4-Discovery/stm32f4_discovery_audio_codec.c ****   *                           mode, the codec is set to default configuration 
 769:../STM32F4-Discovery/stm32f4_discovery_audio_codec.c ****   *                           (user should re-Initialize the codec in order to 
 770:../STM32F4-Discovery/stm32f4_discovery_audio_codec.c ****   *                            play again the audio stream).
 771:../STM32F4-Discovery/stm32f4_discovery_audio_codec.c ****   * @retval 0 if correct communication, else wrong communication
 772:../STM32F4-Discovery/stm32f4_discovery_audio_codec.c ****   */
 773:../STM32F4-Discovery/stm32f4_discovery_audio_codec.c **** static uint32_t Codec_Stop(uint32_t CodecPdwnMode)
 774:../STM32F4-Discovery/stm32f4_discovery_audio_codec.c **** {
 1322              		.loc 1 774 0
 1323              		.cfi_startproc
 1324              		@ args = 0, pretend = 0, frame = 16
 1325              		@ frame_needed = 1, uses_anonymous_args = 0
 1326 0000 80B5     		push	{r7, lr}
 1327              	.LCFI42:
 1328              		.cfi_def_cfa_offset 8
 1329              		.cfi_offset 14, -4
 1330              		.cfi_offset 7, -8
 1331 0002 84B0     		sub	sp, sp, #16
 1332              	.LCFI43:
 1333              		.cfi_def_cfa_offset 24
 1334 0004 00AF     		add	r7, sp, #0
 1335              	.LCFI44:
 1336              		.cfi_def_cfa_register 7
 1337 0006 7860     		str	r0, [r7, #4]
 775:../STM32F4-Discovery/stm32f4_discovery_audio_codec.c ****   uint32_t counter = 0;   
 1338              		.loc 1 775 0
 1339 0008 4FF00003 		mov	r3, #0
 1340 000c FB60     		str	r3, [r7, #12]
 776:../STM32F4-Discovery/stm32f4_discovery_audio_codec.c **** 
 777:../STM32F4-Discovery/stm32f4_discovery_audio_codec.c ****   /* Mute the output first */
 778:../STM32F4-Discovery/stm32f4_discovery_audio_codec.c ****   Codec_Mute(AUDIO_MUTE_ON);
 1341              		.loc 1 778 0
 1342 000e 4FF00100 		mov	r0, #1
 1343 0012 FFF7FEFF 		bl	Codec_Mute
 779:../STM32F4-Discovery/stm32f4_discovery_audio_codec.c ****   
 780:../STM32F4-Discovery/stm32f4_discovery_audio_codec.c ****   if (CodecPdwnMode == CODEC_PDWN_SW)
 1344              		.loc 1 780 0
 1345 0016 7B68     		ldr	r3, [r7, #4]
 1346 0018 022B     		cmp	r3, #2
 1347 001a 0AD1     		bne	.L41
 781:../STM32F4-Discovery/stm32f4_discovery_audio_codec.c ****   {    
 782:../STM32F4-Discovery/stm32f4_discovery_audio_codec.c ****     /* Power down the DAC and the speaker (PMDAC and PMSPK bits)*/
 783:../STM32F4-Discovery/stm32f4_discovery_audio_codec.c ****     counter += Codec_WriteRegister(0x02, 0x9F);
 1348              		.loc 1 783 0
 1349 001c 4FF00200 		mov	r0, #2
 1350 0020 4FF09F01 		mov	r1, #159
 1351 0024 FFF7FEFF 		bl	Codec_WriteRegister
 1352 0028 0346     		mov	r3, r0
 1353 002a FA68     		ldr	r2, [r7, #12]
 1354 002c D318     		adds	r3, r2, r3
 1355 002e FB60     		str	r3, [r7, #12]
 1356 0030 17E0     		b	.L42
 1357              	.L41:
 784:../STM32F4-Discovery/stm32f4_discovery_audio_codec.c ****   }
 785:../STM32F4-Discovery/stm32f4_discovery_audio_codec.c ****   else /* CODEC_PDWN_HW */
 786:../STM32F4-Discovery/stm32f4_discovery_audio_codec.c ****   { 
 787:../STM32F4-Discovery/stm32f4_discovery_audio_codec.c ****     /* Power down the DAC components */
 788:../STM32F4-Discovery/stm32f4_discovery_audio_codec.c ****     counter += Codec_WriteRegister(0x02, 0x9F);
 1358              		.loc 1 788 0
 1359 0032 4FF00200 		mov	r0, #2
 1360 0036 4FF09F01 		mov	r1, #159
 1361 003a FFF7FEFF 		bl	Codec_WriteRegister
 1362 003e 0346     		mov	r3, r0
 1363 0040 FA68     		ldr	r2, [r7, #12]
 1364 0042 D318     		adds	r3, r2, r3
 1365 0044 FB60     		str	r3, [r7, #12]
 789:../STM32F4-Discovery/stm32f4_discovery_audio_codec.c ****     
 790:../STM32F4-Discovery/stm32f4_discovery_audio_codec.c ****     /* Wait at least 100us */
 791:../STM32F4-Discovery/stm32f4_discovery_audio_codec.c ****     Delay(0xFFF);
 1366              		.loc 1 791 0
 1367 0046 40F6FF70 		movw	r0, #4095
 1368 004a FFF7FEFF 		bl	Delay
 792:../STM32F4-Discovery/stm32f4_discovery_audio_codec.c ****     
 793:../STM32F4-Discovery/stm32f4_discovery_audio_codec.c ****     /* Reset The pin */
 794:../STM32F4-Discovery/stm32f4_discovery_audio_codec.c ****     GPIO_WriteBit(AUDIO_RESET_GPIO, AUDIO_RESET_PIN, Bit_RESET);
 1369              		.loc 1 794 0
 1370 004e 4FF44060 		mov	r0, #3072
 1371 0052 C4F20200 		movt	r0, 16386
 1372 0056 4FF01001 		mov	r1, #16
 1373 005a 4FF00002 		mov	r2, #0
 1374 005e FFF7FEFF 		bl	GPIO_WriteBit
 1375              	.L42:
 795:../STM32F4-Discovery/stm32f4_discovery_audio_codec.c ****   }
 796:../STM32F4-Discovery/stm32f4_discovery_audio_codec.c ****   
 797:../STM32F4-Discovery/stm32f4_discovery_audio_codec.c ****   return counter;    
 1376              		.loc 1 797 0
 1377 0062 FB68     		ldr	r3, [r7, #12]
 798:../STM32F4-Discovery/stm32f4_discovery_audio_codec.c **** }
 1378              		.loc 1 798 0
 1379 0064 1846     		mov	r0, r3
 1380 0066 07F11007 		add	r7, r7, #16
 1381 006a BD46     		mov	sp, r7
 1382 006c 80BD     		pop	{r7, pc}
 1383              		.cfi_endproc
 1384              	.LFE126:
 1386 006e 00BF     		.section	.text.Codec_VolumeCtrl,"ax",%progbits
 1387              		.align	2
 1388              		.thumb
 1389              		.thumb_func
 1391              	Codec_VolumeCtrl:
 1392              	.LFB127:
 799:../STM32F4-Discovery/stm32f4_discovery_audio_codec.c **** 
 800:../STM32F4-Discovery/stm32f4_discovery_audio_codec.c **** /**
 801:../STM32F4-Discovery/stm32f4_discovery_audio_codec.c ****   * @brief  Sets higher or lower the codec volume level.
 802:../STM32F4-Discovery/stm32f4_discovery_audio_codec.c ****   * @param  Volume: a byte value from 0 to 255 (refer to codec registers 
 803:../STM32F4-Discovery/stm32f4_discovery_audio_codec.c ****   *         description for more details).
 804:../STM32F4-Discovery/stm32f4_discovery_audio_codec.c ****   * @retval 0 if correct communication, else wrong communication
 805:../STM32F4-Discovery/stm32f4_discovery_audio_codec.c ****   */
 806:../STM32F4-Discovery/stm32f4_discovery_audio_codec.c **** static uint32_t Codec_VolumeCtrl(uint8_t Volume)
 807:../STM32F4-Discovery/stm32f4_discovery_audio_codec.c **** {
 1393              		.loc 1 807 0
 1394              		.cfi_startproc
 1395              		@ args = 0, pretend = 0, frame = 16
 1396              		@ frame_needed = 1, uses_anonymous_args = 0
 1397 0000 80B5     		push	{r7, lr}
 1398              	.LCFI45:
 1399              		.cfi_def_cfa_offset 8
 1400              		.cfi_offset 14, -4
 1401              		.cfi_offset 7, -8
 1402 0002 84B0     		sub	sp, sp, #16
 1403              	.LCFI46:
 1404              		.cfi_def_cfa_offset 24
 1405 0004 00AF     		add	r7, sp, #0
 1406              	.LCFI47:
 1407              		.cfi_def_cfa_register 7
 1408 0006 0346     		mov	r3, r0
 1409 0008 FB71     		strb	r3, [r7, #7]
 808:../STM32F4-Discovery/stm32f4_discovery_audio_codec.c ****   uint32_t counter = 0;
 1410              		.loc 1 808 0
 1411 000a 4FF00003 		mov	r3, #0
 1412 000e FB60     		str	r3, [r7, #12]
 809:../STM32F4-Discovery/stm32f4_discovery_audio_codec.c ****   
 810:../STM32F4-Discovery/stm32f4_discovery_audio_codec.c ****   if (Volume > 0xE6)
 1413              		.loc 1 810 0
 1414 0010 FB79     		ldrb	r3, [r7, #7]	@ zero_extendqisi2
 1415 0012 E62B     		cmp	r3, #230
 1416 0014 1AD9     		bls	.L44
 811:../STM32F4-Discovery/stm32f4_discovery_audio_codec.c ****   {
 812:../STM32F4-Discovery/stm32f4_discovery_audio_codec.c ****     /* Set the Master volume */
 813:../STM32F4-Discovery/stm32f4_discovery_audio_codec.c ****     counter += Codec_WriteRegister(0x20, Volume - 0xE7); 
 1417              		.loc 1 813 0
 1418 0016 FB79     		ldrb	r3, [r7, #7]
 1419 0018 03F11903 		add	r3, r3, #25
 1420 001c DBB2     		uxtb	r3, r3
 1421 001e 4FF02000 		mov	r0, #32
 1422 0022 1946     		mov	r1, r3
 1423 0024 FFF7FEFF 		bl	Codec_WriteRegister
 1424 0028 0346     		mov	r3, r0
 1425 002a FA68     		ldr	r2, [r7, #12]
 1426 002c D318     		adds	r3, r2, r3
 1427 002e FB60     		str	r3, [r7, #12]
 814:../STM32F4-Discovery/stm32f4_discovery_audio_codec.c ****     counter += Codec_WriteRegister(0x21, Volume - 0xE7);     
 1428              		.loc 1 814 0
 1429 0030 FB79     		ldrb	r3, [r7, #7]
 1430 0032 03F11903 		add	r3, r3, #25
 1431 0036 DBB2     		uxtb	r3, r3
 1432 0038 4FF02100 		mov	r0, #33
 1433 003c 1946     		mov	r1, r3
 1434 003e FFF7FEFF 		bl	Codec_WriteRegister
 1435 0042 0346     		mov	r3, r0
 1436 0044 FA68     		ldr	r2, [r7, #12]
 1437 0046 D318     		adds	r3, r2, r3
 1438 0048 FB60     		str	r3, [r7, #12]
 1439 004a 19E0     		b	.L45
 1440              	.L44:
 815:../STM32F4-Discovery/stm32f4_discovery_audio_codec.c ****   }
 816:../STM32F4-Discovery/stm32f4_discovery_audio_codec.c ****   else
 817:../STM32F4-Discovery/stm32f4_discovery_audio_codec.c ****   {
 818:../STM32F4-Discovery/stm32f4_discovery_audio_codec.c ****     /* Set the Master volume */
 819:../STM32F4-Discovery/stm32f4_discovery_audio_codec.c ****     counter += Codec_WriteRegister(0x20, Volume + 0x19); 
 1441              		.loc 1 819 0
 1442 004c FB79     		ldrb	r3, [r7, #7]
 1443 004e 03F11903 		add	r3, r3, #25
 1444 0052 DBB2     		uxtb	r3, r3
 1445 0054 4FF02000 		mov	r0, #32
 1446 0058 1946     		mov	r1, r3
 1447 005a FFF7FEFF 		bl	Codec_WriteRegister
 1448 005e 0346     		mov	r3, r0
 1449 0060 FA68     		ldr	r2, [r7, #12]
 1450 0062 D318     		adds	r3, r2, r3
 1451 0064 FB60     		str	r3, [r7, #12]
 820:../STM32F4-Discovery/stm32f4_discovery_audio_codec.c ****     counter += Codec_WriteRegister(0x21, Volume + 0x19); 
 1452              		.loc 1 820 0
 1453 0066 FB79     		ldrb	r3, [r7, #7]
 1454 0068 03F11903 		add	r3, r3, #25
 1455 006c DBB2     		uxtb	r3, r3
 1456 006e 4FF02100 		mov	r0, #33
 1457 0072 1946     		mov	r1, r3
 1458 0074 FFF7FEFF 		bl	Codec_WriteRegister
 1459 0078 0346     		mov	r3, r0
 1460 007a FA68     		ldr	r2, [r7, #12]
 1461 007c D318     		adds	r3, r2, r3
 1462 007e FB60     		str	r3, [r7, #12]
 1463              	.L45:
 821:../STM32F4-Discovery/stm32f4_discovery_audio_codec.c ****   }
 822:../STM32F4-Discovery/stm32f4_discovery_audio_codec.c **** 
 823:../STM32F4-Discovery/stm32f4_discovery_audio_codec.c ****   return counter;  
 1464              		.loc 1 823 0
 1465 0080 FB68     		ldr	r3, [r7, #12]
 824:../STM32F4-Discovery/stm32f4_discovery_audio_codec.c **** }
 1466              		.loc 1 824 0
 1467 0082 1846     		mov	r0, r3
 1468 0084 07F11007 		add	r7, r7, #16
 1469 0088 BD46     		mov	sp, r7
 1470 008a 80BD     		pop	{r7, pc}
 1471              		.cfi_endproc
 1472              	.LFE127:
 1474              		.section	.text.Codec_Mute,"ax",%progbits
 1475              		.align	2
 1476              		.thumb
 1477              		.thumb_func
 1479              	Codec_Mute:
 1480              	.LFB128:
 825:../STM32F4-Discovery/stm32f4_discovery_audio_codec.c **** 
 826:../STM32F4-Discovery/stm32f4_discovery_audio_codec.c **** /**
 827:../STM32F4-Discovery/stm32f4_discovery_audio_codec.c ****   * @brief  Enables or disables the mute feature on the audio codec.
 828:../STM32F4-Discovery/stm32f4_discovery_audio_codec.c ****   * @param  Cmd: AUDIO_MUTE_ON to enable the mute or AUDIO_MUTE_OFF to disable the
 829:../STM32F4-Discovery/stm32f4_discovery_audio_codec.c ****   *             mute mode.
 830:../STM32F4-Discovery/stm32f4_discovery_audio_codec.c ****   * @retval 0 if correct communication, else wrong communication
 831:../STM32F4-Discovery/stm32f4_discovery_audio_codec.c ****   */
 832:../STM32F4-Discovery/stm32f4_discovery_audio_codec.c **** static uint32_t Codec_Mute(uint32_t Cmd)
 833:../STM32F4-Discovery/stm32f4_discovery_audio_codec.c **** {
 1481              		.loc 1 833 0
 1482              		.cfi_startproc
 1483              		@ args = 0, pretend = 0, frame = 16
 1484              		@ frame_needed = 1, uses_anonymous_args = 0
 1485 0000 80B5     		push	{r7, lr}
 1486              	.LCFI48:
 1487              		.cfi_def_cfa_offset 8
 1488              		.cfi_offset 14, -4
 1489              		.cfi_offset 7, -8
 1490 0002 84B0     		sub	sp, sp, #16
 1491              	.LCFI49:
 1492              		.cfi_def_cfa_offset 24
 1493 0004 00AF     		add	r7, sp, #0
 1494              	.LCFI50:
 1495              		.cfi_def_cfa_register 7
 1496 0006 7860     		str	r0, [r7, #4]
 834:../STM32F4-Discovery/stm32f4_discovery_audio_codec.c ****   uint32_t counter = 0;  
 1497              		.loc 1 834 0
 1498 0008 4FF00003 		mov	r3, #0
 1499 000c FB60     		str	r3, [r7, #12]
 835:../STM32F4-Discovery/stm32f4_discovery_audio_codec.c ****   
 836:../STM32F4-Discovery/stm32f4_discovery_audio_codec.c ****   /* Set the Mute mode */
 837:../STM32F4-Discovery/stm32f4_discovery_audio_codec.c ****   if (Cmd == AUDIO_MUTE_ON)
 1500              		.loc 1 837 0
 1501 000e 7B68     		ldr	r3, [r7, #4]
 1502 0010 012B     		cmp	r3, #1
 1503 0012 0AD1     		bne	.L47
 838:../STM32F4-Discovery/stm32f4_discovery_audio_codec.c ****   {
 839:../STM32F4-Discovery/stm32f4_discovery_audio_codec.c ****     counter += Codec_WriteRegister(0x04, 0xFF);
 1504              		.loc 1 839 0
 1505 0014 4FF00400 		mov	r0, #4
 1506 0018 4FF0FF01 		mov	r1, #255
 1507 001c FFF7FEFF 		bl	Codec_WriteRegister
 1508 0020 0346     		mov	r3, r0
 1509 0022 FA68     		ldr	r2, [r7, #12]
 1510 0024 D318     		adds	r3, r2, r3
 1511 0026 FB60     		str	r3, [r7, #12]
 1512 0028 0EE0     		b	.L48
 1513              	.L47:
 840:../STM32F4-Discovery/stm32f4_discovery_audio_codec.c ****   }
 841:../STM32F4-Discovery/stm32f4_discovery_audio_codec.c ****   else /* AUDIO_MUTE_OFF Disable the Mute */
 842:../STM32F4-Discovery/stm32f4_discovery_audio_codec.c ****   {
 843:../STM32F4-Discovery/stm32f4_discovery_audio_codec.c ****     counter += Codec_WriteRegister(0x04, OutputDev);
 1514              		.loc 1 843 0
 1515 002a 40F20003 		movw	r3, #:lower16:OutputDev
 1516 002e C0F20003 		movt	r3, #:upper16:OutputDev
 1517 0032 1B78     		ldrb	r3, [r3, #0]
 1518 0034 DBB2     		uxtb	r3, r3
 1519 0036 4FF00400 		mov	r0, #4
 1520 003a 1946     		mov	r1, r3
 1521 003c FFF7FEFF 		bl	Codec_WriteRegister
 1522 0040 0346     		mov	r3, r0
 1523 0042 FA68     		ldr	r2, [r7, #12]
 1524 0044 D318     		adds	r3, r2, r3
 1525 0046 FB60     		str	r3, [r7, #12]
 1526              	.L48:
 844:../STM32F4-Discovery/stm32f4_discovery_audio_codec.c ****   }
 845:../STM32F4-Discovery/stm32f4_discovery_audio_codec.c ****   
 846:../STM32F4-Discovery/stm32f4_discovery_audio_codec.c ****   return counter; 
 1527              		.loc 1 846 0
 1528 0048 FB68     		ldr	r3, [r7, #12]
 847:../STM32F4-Discovery/stm32f4_discovery_audio_codec.c **** }
 1529              		.loc 1 847 0
 1530 004a 1846     		mov	r0, r3
 1531 004c 07F11007 		add	r7, r7, #16
 1532 0050 BD46     		mov	sp, r7
 1533 0052 80BD     		pop	{r7, pc}
 1534              		.cfi_endproc
 1535              	.LFE128:
 1537              		.section	.text.Codec_Reset,"ax",%progbits
 1538              		.align	2
 1539              		.thumb
 1540              		.thumb_func
 1542              	Codec_Reset:
 1543              	.LFB129:
 848:../STM32F4-Discovery/stm32f4_discovery_audio_codec.c **** 
 849:../STM32F4-Discovery/stm32f4_discovery_audio_codec.c **** /**
 850:../STM32F4-Discovery/stm32f4_discovery_audio_codec.c ****   * @brief  Resets the audio codec. It restores the default configuration of the 
 851:../STM32F4-Discovery/stm32f4_discovery_audio_codec.c ****   *         codec (this function shall be called before initializing the codec).
 852:../STM32F4-Discovery/stm32f4_discovery_audio_codec.c ****   * @note   This function calls an external driver function: The IO Expander driver.
 853:../STM32F4-Discovery/stm32f4_discovery_audio_codec.c ****   * @param  None
 854:../STM32F4-Discovery/stm32f4_discovery_audio_codec.c ****   * @retval None
 855:../STM32F4-Discovery/stm32f4_discovery_audio_codec.c ****   */
 856:../STM32F4-Discovery/stm32f4_discovery_audio_codec.c **** static void Codec_Reset(void)
 857:../STM32F4-Discovery/stm32f4_discovery_audio_codec.c **** {
 1544              		.loc 1 857 0
 1545              		.cfi_startproc
 1546              		@ args = 0, pretend = 0, frame = 0
 1547              		@ frame_needed = 1, uses_anonymous_args = 0
 1548 0000 80B5     		push	{r7, lr}
 1549              	.LCFI51:
 1550              		.cfi_def_cfa_offset 8
 1551              		.cfi_offset 14, -4
 1552              		.cfi_offset 7, -8
 1553 0002 00AF     		add	r7, sp, #0
 1554              	.LCFI52:
 1555              		.cfi_def_cfa_register 7
 858:../STM32F4-Discovery/stm32f4_discovery_audio_codec.c ****   /* Power Down the codec */
 859:../STM32F4-Discovery/stm32f4_discovery_audio_codec.c ****   GPIO_WriteBit(AUDIO_RESET_GPIO, AUDIO_RESET_PIN, Bit_RESET);
 1556              		.loc 1 859 0
 1557 0004 4FF44060 		mov	r0, #3072
 1558 0008 C4F20200 		movt	r0, 16386
 1559 000c 4FF01001 		mov	r1, #16
 1560 0010 4FF00002 		mov	r2, #0
 1561 0014 FFF7FEFF 		bl	GPIO_WriteBit
 860:../STM32F4-Discovery/stm32f4_discovery_audio_codec.c **** 
 861:../STM32F4-Discovery/stm32f4_discovery_audio_codec.c ****   /* wait for a delay to insure registers erasing */
 862:../STM32F4-Discovery/stm32f4_discovery_audio_codec.c ****   Delay(CODEC_RESET_DELAY); 
 1562              		.loc 1 862 0
 1563 0018 44F6FF70 		movw	r0, #20479
 1564 001c FFF7FEFF 		bl	Delay
 863:../STM32F4-Discovery/stm32f4_discovery_audio_codec.c ****   
 864:../STM32F4-Discovery/stm32f4_discovery_audio_codec.c ****   /* Power on the codec */
 865:../STM32F4-Discovery/stm32f4_discovery_audio_codec.c ****   GPIO_WriteBit(AUDIO_RESET_GPIO, AUDIO_RESET_PIN, Bit_SET);
 1565              		.loc 1 865 0
 1566 0020 4FF44060 		mov	r0, #3072
 1567 0024 C4F20200 		movt	r0, 16386
 1568 0028 4FF01001 		mov	r1, #16
 1569 002c 4FF00102 		mov	r2, #1
 1570 0030 FFF7FEFF 		bl	GPIO_WriteBit
 866:../STM32F4-Discovery/stm32f4_discovery_audio_codec.c **** }
 1571              		.loc 1 866 0
 1572 0034 80BD     		pop	{r7, pc}
 1573              		.cfi_endproc
 1574              	.LFE129:
 1576 0036 00BF     		.section	.text.Codec_WriteRegister,"ax",%progbits
 1577              		.align	2
 1578              		.thumb
 1579              		.thumb_func
 1581              	Codec_WriteRegister:
 1582              	.LFB130:
 867:../STM32F4-Discovery/stm32f4_discovery_audio_codec.c **** 
 868:../STM32F4-Discovery/stm32f4_discovery_audio_codec.c **** /**
 869:../STM32F4-Discovery/stm32f4_discovery_audio_codec.c ****   * @brief  Writes a Byte to a given register into the audio codec through the 
 870:../STM32F4-Discovery/stm32f4_discovery_audio_codec.c ****             control interface (I2C)
 871:../STM32F4-Discovery/stm32f4_discovery_audio_codec.c ****   * @param  RegisterAddr: The address (location) of the register to be written.
 872:../STM32F4-Discovery/stm32f4_discovery_audio_codec.c ****   * @param  RegisterValue: the Byte value to be written into destination register.
 873:../STM32F4-Discovery/stm32f4_discovery_audio_codec.c ****   * @retval 0 if correct communication, else wrong communication
 874:../STM32F4-Discovery/stm32f4_discovery_audio_codec.c ****   */
 875:../STM32F4-Discovery/stm32f4_discovery_audio_codec.c **** static uint32_t Codec_WriteRegister(uint8_t RegisterAddr, uint8_t RegisterValue)
 876:../STM32F4-Discovery/stm32f4_discovery_audio_codec.c **** {
 1583              		.loc 1 876 0
 1584              		.cfi_startproc
 1585              		@ args = 0, pretend = 0, frame = 16
 1586              		@ frame_needed = 1, uses_anonymous_args = 0
 1587 0000 80B5     		push	{r7, lr}
 1588              	.LCFI53:
 1589              		.cfi_def_cfa_offset 8
 1590              		.cfi_offset 14, -4
 1591              		.cfi_offset 7, -8
 1592 0002 84B0     		sub	sp, sp, #16
 1593              	.LCFI54:
 1594              		.cfi_def_cfa_offset 24
 1595 0004 00AF     		add	r7, sp, #0
 1596              	.LCFI55:
 1597              		.cfi_def_cfa_register 7
 1598 0006 0246     		mov	r2, r0
 1599 0008 0B46     		mov	r3, r1
 1600 000a FA71     		strb	r2, [r7, #7]
 1601 000c BB71     		strb	r3, [r7, #6]
 877:../STM32F4-Discovery/stm32f4_discovery_audio_codec.c ****   uint32_t result = 0;
 1602              		.loc 1 877 0
 1603 000e 4FF00003 		mov	r3, #0
 1604 0012 FB60     		str	r3, [r7, #12]
 878:../STM32F4-Discovery/stm32f4_discovery_audio_codec.c **** 
 879:../STM32F4-Discovery/stm32f4_discovery_audio_codec.c ****   /*!< While the bus is busy */
 880:../STM32F4-Discovery/stm32f4_discovery_audio_codec.c ****   CODECTimeout = CODEC_LONG_TIMEOUT;
 1605              		.loc 1 880 0
 1606 0014 40F20003 		movw	r3, #:lower16:CODECTimeout
 1607 0018 C0F20003 		movt	r3, #:upper16:CODECTimeout
 1608 001c 4FF49612 		mov	r2, #1228800
 1609 0020 1A60     		str	r2, [r3, #0]
 881:../STM32F4-Discovery/stm32f4_discovery_audio_codec.c ****   while(I2C_GetFlagStatus(CODEC_I2C, I2C_FLAG_BUSY))
 1610              		.loc 1 881 0
 1611 0022 16E0     		b	.L51
 1612              	.L53:
 882:../STM32F4-Discovery/stm32f4_discovery_audio_codec.c ****   {
 883:../STM32F4-Discovery/stm32f4_discovery_audio_codec.c ****     if((CODECTimeout--) == 0) return Codec_TIMEOUT_UserCallback();
 1613              		.loc 1 883 0
 1614 0024 40F20003 		movw	r3, #:lower16:CODECTimeout
 1615 0028 C0F20003 		movt	r3, #:upper16:CODECTimeout
 1616 002c 1B68     		ldr	r3, [r3, #0]
 1617 002e 002B     		cmp	r3, #0
 1618 0030 14BF     		ite	ne
 1619 0032 0022     		movne	r2, #0
 1620 0034 0122     		moveq	r2, #1
 1621 0036 D2B2     		uxtb	r2, r2
 1622 0038 03F1FF31 		add	r1, r3, #-1
 1623 003c 40F20003 		movw	r3, #:lower16:CODECTimeout
 1624 0040 C0F20003 		movt	r3, #:upper16:CODECTimeout
 1625 0044 1960     		str	r1, [r3, #0]
 1626 0046 002A     		cmp	r2, #0
 1627 0048 03D0     		beq	.L51
 1628              		.loc 1 883 0 is_stmt 0 discriminator 1
 1629 004a FFF7FEFF 		bl	Codec_TIMEOUT_UserCallback
 1630 004e 0346     		mov	r3, r0
 1631 0050 EEE0     		b	.L52
 1632              	.L51:
 881:../STM32F4-Discovery/stm32f4_discovery_audio_codec.c ****   while(I2C_GetFlagStatus(CODEC_I2C, I2C_FLAG_BUSY))
 1633              		.loc 1 881 0 is_stmt 1 discriminator 1
 1634 0052 4FF4A840 		mov	r0, #21504
 1635 0056 C4F20000 		movt	r0, 16384
 1636 005a 4FF40031 		mov	r1, #131072
 1637 005e FFF7FEFF 		bl	I2C_GetFlagStatus
 1638 0062 0346     		mov	r3, r0
 1639 0064 002B     		cmp	r3, #0
 1640 0066 DDD1     		bne	.L53
 884:../STM32F4-Discovery/stm32f4_discovery_audio_codec.c ****   }
 885:../STM32F4-Discovery/stm32f4_discovery_audio_codec.c ****   
 886:../STM32F4-Discovery/stm32f4_discovery_audio_codec.c ****   /* Start the config sequence */
 887:../STM32F4-Discovery/stm32f4_discovery_audio_codec.c ****   I2C_GenerateSTART(CODEC_I2C, ENABLE);
 1641              		.loc 1 887 0
 1642 0068 4FF4A840 		mov	r0, #21504
 1643 006c C4F20000 		movt	r0, 16384
 1644 0070 4FF00101 		mov	r1, #1
 1645 0074 FFF7FEFF 		bl	I2C_GenerateSTART
 888:../STM32F4-Discovery/stm32f4_discovery_audio_codec.c **** 
 889:../STM32F4-Discovery/stm32f4_discovery_audio_codec.c ****   /* Test on EV5 and clear it */
 890:../STM32F4-Discovery/stm32f4_discovery_audio_codec.c ****   CODECTimeout = CODEC_FLAG_TIMEOUT;
 1646              		.loc 1 890 0
 1647 0078 40F20003 		movw	r3, #:lower16:CODECTimeout
 1648 007c C0F20003 		movt	r3, #:upper16:CODECTimeout
 1649 0080 4FF48052 		mov	r2, #4096
 1650 0084 1A60     		str	r2, [r3, #0]
 891:../STM32F4-Discovery/stm32f4_discovery_audio_codec.c ****   while (!I2C_CheckEvent(CODEC_I2C, I2C_EVENT_MASTER_MODE_SELECT))
 1651              		.loc 1 891 0
 1652 0086 16E0     		b	.L54
 1653              	.L55:
 892:../STM32F4-Discovery/stm32f4_discovery_audio_codec.c ****   {
 893:../STM32F4-Discovery/stm32f4_discovery_audio_codec.c ****     if((CODECTimeout--) == 0) return Codec_TIMEOUT_UserCallback();
 1654              		.loc 1 893 0
 1655 0088 40F20003 		movw	r3, #:lower16:CODECTimeout
 1656 008c C0F20003 		movt	r3, #:upper16:CODECTimeout
 1657 0090 1B68     		ldr	r3, [r3, #0]
 1658 0092 002B     		cmp	r3, #0
 1659 0094 14BF     		ite	ne
 1660 0096 0022     		movne	r2, #0
 1661 0098 0122     		moveq	r2, #1
 1662 009a D2B2     		uxtb	r2, r2
 1663 009c 03F1FF31 		add	r1, r3, #-1
 1664 00a0 40F20003 		movw	r3, #:lower16:CODECTimeout
 1665 00a4 C0F20003 		movt	r3, #:upper16:CODECTimeout
 1666 00a8 1960     		str	r1, [r3, #0]
 1667 00aa 002A     		cmp	r2, #0
 1668 00ac 03D0     		beq	.L54
 1669              		.loc 1 893 0 is_stmt 0 discriminator 1
 1670 00ae FFF7FEFF 		bl	Codec_TIMEOUT_UserCallback
 1671 00b2 0346     		mov	r3, r0
 1672 00b4 BCE0     		b	.L52
 1673              	.L54:
 891:../STM32F4-Discovery/stm32f4_discovery_audio_codec.c ****   while (!I2C_CheckEvent(CODEC_I2C, I2C_EVENT_MASTER_MODE_SELECT))
 1674              		.loc 1 891 0 is_stmt 1 discriminator 1
 1675 00b6 4FF4A840 		mov	r0, #21504
 1676 00ba C4F20000 		movt	r0, 16384
 1677 00be 4FF00101 		mov	r1, #1
 1678 00c2 C0F20301 		movt	r1, 3
 1679 00c6 FFF7FEFF 		bl	I2C_CheckEvent
 1680 00ca 0346     		mov	r3, r0
 1681 00cc 002B     		cmp	r3, #0
 1682 00ce DBD0     		beq	.L55
 894:../STM32F4-Discovery/stm32f4_discovery_audio_codec.c ****   }
 895:../STM32F4-Discovery/stm32f4_discovery_audio_codec.c ****   
 896:../STM32F4-Discovery/stm32f4_discovery_audio_codec.c ****   /* Transmit the slave address and enable writing operation */
 897:../STM32F4-Discovery/stm32f4_discovery_audio_codec.c ****   I2C_Send7bitAddress(CODEC_I2C, CODEC_ADDRESS, I2C_Direction_Transmitter);
 1683              		.loc 1 897 0
 1684 00d0 4FF4A840 		mov	r0, #21504
 1685 00d4 C4F20000 		movt	r0, 16384
 1686 00d8 4FF09401 		mov	r1, #148
 1687 00dc 4FF00002 		mov	r2, #0
 1688 00e0 FFF7FEFF 		bl	I2C_Send7bitAddress
 898:../STM32F4-Discovery/stm32f4_discovery_audio_codec.c **** 
 899:../STM32F4-Discovery/stm32f4_discovery_audio_codec.c ****   /* Test on EV6 and clear it */
 900:../STM32F4-Discovery/stm32f4_discovery_audio_codec.c ****   CODECTimeout = CODEC_FLAG_TIMEOUT;
 1689              		.loc 1 900 0
 1690 00e4 40F20003 		movw	r3, #:lower16:CODECTimeout
 1691 00e8 C0F20003 		movt	r3, #:upper16:CODECTimeout
 1692 00ec 4FF48052 		mov	r2, #4096
 1693 00f0 1A60     		str	r2, [r3, #0]
 901:../STM32F4-Discovery/stm32f4_discovery_audio_codec.c ****   while (!I2C_CheckEvent(CODEC_I2C, I2C_EVENT_MASTER_TRANSMITTER_MODE_SELECTED))
 1694              		.loc 1 901 0
 1695 00f2 16E0     		b	.L56
 1696              	.L57:
 902:../STM32F4-Discovery/stm32f4_discovery_audio_codec.c ****   {
 903:../STM32F4-Discovery/stm32f4_discovery_audio_codec.c ****     if((CODECTimeout--) == 0) return Codec_TIMEOUT_UserCallback();
 1697              		.loc 1 903 0
 1698 00f4 40F20003 		movw	r3, #:lower16:CODECTimeout
 1699 00f8 C0F20003 		movt	r3, #:upper16:CODECTimeout
 1700 00fc 1B68     		ldr	r3, [r3, #0]
 1701 00fe 002B     		cmp	r3, #0
 1702 0100 14BF     		ite	ne
 1703 0102 0022     		movne	r2, #0
 1704 0104 0122     		moveq	r2, #1
 1705 0106 D2B2     		uxtb	r2, r2
 1706 0108 03F1FF31 		add	r1, r3, #-1
 1707 010c 40F20003 		movw	r3, #:lower16:CODECTimeout
 1708 0110 C0F20003 		movt	r3, #:upper16:CODECTimeout
 1709 0114 1960     		str	r1, [r3, #0]
 1710 0116 002A     		cmp	r2, #0
 1711 0118 03D0     		beq	.L56
 1712              		.loc 1 903 0 is_stmt 0 discriminator 1
 1713 011a FFF7FEFF 		bl	Codec_TIMEOUT_UserCallback
 1714 011e 0346     		mov	r3, r0
 1715 0120 86E0     		b	.L52
 1716              	.L56:
 901:../STM32F4-Discovery/stm32f4_discovery_audio_codec.c ****   while (!I2C_CheckEvent(CODEC_I2C, I2C_EVENT_MASTER_TRANSMITTER_MODE_SELECTED))
 1717              		.loc 1 901 0 is_stmt 1 discriminator 1
 1718 0122 4FF4A840 		mov	r0, #21504
 1719 0126 C4F20000 		movt	r0, 16384
 1720 012a 4FF08201 		mov	r1, #130
 1721 012e C0F20701 		movt	r1, 7
 1722 0132 FFF7FEFF 		bl	I2C_CheckEvent
 1723 0136 0346     		mov	r3, r0
 1724 0138 002B     		cmp	r3, #0
 1725 013a DBD0     		beq	.L57
 904:../STM32F4-Discovery/stm32f4_discovery_audio_codec.c ****   }
 905:../STM32F4-Discovery/stm32f4_discovery_audio_codec.c **** 
 906:../STM32F4-Discovery/stm32f4_discovery_audio_codec.c ****   /* Transmit the first address for write operation */
 907:../STM32F4-Discovery/stm32f4_discovery_audio_codec.c ****   I2C_SendData(CODEC_I2C, RegisterAddr);
 1726              		.loc 1 907 0
 1727 013c FB79     		ldrb	r3, [r7, #7]	@ zero_extendqisi2
 1728 013e 4FF4A840 		mov	r0, #21504
 1729 0142 C4F20000 		movt	r0, 16384
 1730 0146 1946     		mov	r1, r3
 1731 0148 FFF7FEFF 		bl	I2C_SendData
 908:../STM32F4-Discovery/stm32f4_discovery_audio_codec.c **** 
 909:../STM32F4-Discovery/stm32f4_discovery_audio_codec.c ****   /* Test on EV8 and clear it */
 910:../STM32F4-Discovery/stm32f4_discovery_audio_codec.c ****   CODECTimeout = CODEC_FLAG_TIMEOUT;
 1732              		.loc 1 910 0
 1733 014c 40F20003 		movw	r3, #:lower16:CODECTimeout
 1734 0150 C0F20003 		movt	r3, #:upper16:CODECTimeout
 1735 0154 4FF48052 		mov	r2, #4096
 1736 0158 1A60     		str	r2, [r3, #0]
 911:../STM32F4-Discovery/stm32f4_discovery_audio_codec.c ****   while (!I2C_CheckEvent(CODEC_I2C, I2C_EVENT_MASTER_BYTE_TRANSMITTING))
 1737              		.loc 1 911 0
 1738 015a 16E0     		b	.L58
 1739              	.L59:
 912:../STM32F4-Discovery/stm32f4_discovery_audio_codec.c ****   {
 913:../STM32F4-Discovery/stm32f4_discovery_audio_codec.c ****     if((CODECTimeout--) == 0) return Codec_TIMEOUT_UserCallback();
 1740              		.loc 1 913 0
 1741 015c 40F20003 		movw	r3, #:lower16:CODECTimeout
 1742 0160 C0F20003 		movt	r3, #:upper16:CODECTimeout
 1743 0164 1B68     		ldr	r3, [r3, #0]
 1744 0166 002B     		cmp	r3, #0
 1745 0168 14BF     		ite	ne
 1746 016a 0022     		movne	r2, #0
 1747 016c 0122     		moveq	r2, #1
 1748 016e D2B2     		uxtb	r2, r2
 1749 0170 03F1FF31 		add	r1, r3, #-1
 1750 0174 40F20003 		movw	r3, #:lower16:CODECTimeout
 1751 0178 C0F20003 		movt	r3, #:upper16:CODECTimeout
 1752 017c 1960     		str	r1, [r3, #0]
 1753 017e 002A     		cmp	r2, #0
 1754 0180 03D0     		beq	.L58
 1755              		.loc 1 913 0 is_stmt 0 discriminator 1
 1756 0182 FFF7FEFF 		bl	Codec_TIMEOUT_UserCallback
 1757 0186 0346     		mov	r3, r0
 1758 0188 52E0     		b	.L52
 1759              	.L58:
 911:../STM32F4-Discovery/stm32f4_discovery_audio_codec.c ****   while (!I2C_CheckEvent(CODEC_I2C, I2C_EVENT_MASTER_BYTE_TRANSMITTING))
 1760              		.loc 1 911 0 is_stmt 1 discriminator 1
 1761 018a 4FF4A840 		mov	r0, #21504
 1762 018e C4F20000 		movt	r0, 16384
 1763 0192 4FF08001 		mov	r1, #128
 1764 0196 C0F20701 		movt	r1, 7
 1765 019a FFF7FEFF 		bl	I2C_CheckEvent
 1766 019e 0346     		mov	r3, r0
 1767 01a0 002B     		cmp	r3, #0
 1768 01a2 DBD0     		beq	.L59
 914:../STM32F4-Discovery/stm32f4_discovery_audio_codec.c ****   }
 915:../STM32F4-Discovery/stm32f4_discovery_audio_codec.c ****   
 916:../STM32F4-Discovery/stm32f4_discovery_audio_codec.c ****   /* Prepare the register value to be sent */
 917:../STM32F4-Discovery/stm32f4_discovery_audio_codec.c ****   I2C_SendData(CODEC_I2C, RegisterValue);
 1769              		.loc 1 917 0
 1770 01a4 BB79     		ldrb	r3, [r7, #6]	@ zero_extendqisi2
 1771 01a6 4FF4A840 		mov	r0, #21504
 1772 01aa C4F20000 		movt	r0, 16384
 1773 01ae 1946     		mov	r1, r3
 1774 01b0 FFF7FEFF 		bl	I2C_SendData
 918:../STM32F4-Discovery/stm32f4_discovery_audio_codec.c ****   
 919:../STM32F4-Discovery/stm32f4_discovery_audio_codec.c ****   /*!< Wait till all data have been physically transferred on the bus */
 920:../STM32F4-Discovery/stm32f4_discovery_audio_codec.c ****   CODECTimeout = CODEC_LONG_TIMEOUT;
 1775              		.loc 1 920 0
 1776 01b4 40F20003 		movw	r3, #:lower16:CODECTimeout
 1777 01b8 C0F20003 		movt	r3, #:upper16:CODECTimeout
 1778 01bc 4FF49612 		mov	r2, #1228800
 1779 01c0 1A60     		str	r2, [r3, #0]
 921:../STM32F4-Discovery/stm32f4_discovery_audio_codec.c ****   while(!I2C_GetFlagStatus(CODEC_I2C, I2C_FLAG_BTF))
 1780              		.loc 1 921 0
 1781 01c2 14E0     		b	.L60
 1782              	.L61:
 922:../STM32F4-Discovery/stm32f4_discovery_audio_codec.c ****   {
 923:../STM32F4-Discovery/stm32f4_discovery_audio_codec.c ****     if((CODECTimeout--) == 0) Codec_TIMEOUT_UserCallback();
 1783              		.loc 1 923 0
 1784 01c4 40F20003 		movw	r3, #:lower16:CODECTimeout
 1785 01c8 C0F20003 		movt	r3, #:upper16:CODECTimeout
 1786 01cc 1B68     		ldr	r3, [r3, #0]
 1787 01ce 002B     		cmp	r3, #0
 1788 01d0 14BF     		ite	ne
 1789 01d2 0022     		movne	r2, #0
 1790 01d4 0122     		moveq	r2, #1
 1791 01d6 D2B2     		uxtb	r2, r2
 1792 01d8 03F1FF31 		add	r1, r3, #-1
 1793 01dc 40F20003 		movw	r3, #:lower16:CODECTimeout
 1794 01e0 C0F20003 		movt	r3, #:upper16:CODECTimeout
 1795 01e4 1960     		str	r1, [r3, #0]
 1796 01e6 002A     		cmp	r2, #0
 1797 01e8 01D0     		beq	.L60
 1798              		.loc 1 923 0 is_stmt 0 discriminator 1
 1799 01ea FFF7FEFF 		bl	Codec_TIMEOUT_UserCallback
 1800              	.L60:
 921:../STM32F4-Discovery/stm32f4_discovery_audio_codec.c ****   while(!I2C_GetFlagStatus(CODEC_I2C, I2C_FLAG_BTF))
 1801              		.loc 1 921 0 is_stmt 1 discriminator 1
 1802 01ee 4FF4A840 		mov	r0, #21504
 1803 01f2 C4F20000 		movt	r0, 16384
 1804 01f6 4FF00401 		mov	r1, #4
 1805 01fa C1F20001 		movt	r1, 4096
 1806 01fe FFF7FEFF 		bl	I2C_GetFlagStatus
 1807 0202 0346     		mov	r3, r0
 1808 0204 002B     		cmp	r3, #0
 1809 0206 DDD0     		beq	.L61
 924:../STM32F4-Discovery/stm32f4_discovery_audio_codec.c ****   }
 925:../STM32F4-Discovery/stm32f4_discovery_audio_codec.c ****   
 926:../STM32F4-Discovery/stm32f4_discovery_audio_codec.c ****   /* End the configuration sequence */
 927:../STM32F4-Discovery/stm32f4_discovery_audio_codec.c ****   I2C_GenerateSTOP(CODEC_I2C, ENABLE);  
 1810              		.loc 1 927 0
 1811 0208 4FF4A840 		mov	r0, #21504
 1812 020c C4F20000 		movt	r0, 16384
 1813 0210 4FF00101 		mov	r1, #1
 1814 0214 FFF7FEFF 		bl	I2C_GenerateSTOP
 928:../STM32F4-Discovery/stm32f4_discovery_audio_codec.c ****   
 929:../STM32F4-Discovery/stm32f4_discovery_audio_codec.c **** #ifdef VERIFY_WRITTENDATA
 930:../STM32F4-Discovery/stm32f4_discovery_audio_codec.c ****   /* Verify that the data has been correctly written */  
 931:../STM32F4-Discovery/stm32f4_discovery_audio_codec.c ****   result = (Codec_ReadRegister(RegisterAddr) == RegisterValue)? 0:1;
 1815              		.loc 1 931 0
 1816 0218 FB79     		ldrb	r3, [r7, #7]	@ zero_extendqisi2
 1817 021a 1846     		mov	r0, r3
 1818 021c FFF7FEFF 		bl	Codec_ReadRegister
 1819 0220 0246     		mov	r2, r0
 1820 0222 BB79     		ldrb	r3, [r7, #6]	@ zero_extendqisi2
 1821 0224 9A42     		cmp	r2, r3
 1822 0226 0CBF     		ite	eq
 1823 0228 0023     		moveq	r3, #0
 1824 022a 0123     		movne	r3, #1
 1825 022c FB60     		str	r3, [r7, #12]
 932:../STM32F4-Discovery/stm32f4_discovery_audio_codec.c **** #endif /* VERIFY_WRITTENDATA */
 933:../STM32F4-Discovery/stm32f4_discovery_audio_codec.c **** 
 934:../STM32F4-Discovery/stm32f4_discovery_audio_codec.c ****   /* Return the verifying value: 0 (Passed) or 1 (Failed) */
 935:../STM32F4-Discovery/stm32f4_discovery_audio_codec.c ****   return result;  
 1826              		.loc 1 935 0
 1827 022e FB68     		ldr	r3, [r7, #12]
 1828              	.L52:
 936:../STM32F4-Discovery/stm32f4_discovery_audio_codec.c **** }
 1829              		.loc 1 936 0
 1830 0230 1846     		mov	r0, r3
 1831 0232 07F11007 		add	r7, r7, #16
 1832 0236 BD46     		mov	sp, r7
 1833 0238 80BD     		pop	{r7, pc}
 1834              		.cfi_endproc
 1835              	.LFE130:
 1837 023a 00BF     		.section	.text.Codec_ReadRegister,"ax",%progbits
 1838              		.align	2
 1839              		.thumb
 1840              		.thumb_func
 1842              	Codec_ReadRegister:
 1843              	.LFB131:
 937:../STM32F4-Discovery/stm32f4_discovery_audio_codec.c **** 
 938:../STM32F4-Discovery/stm32f4_discovery_audio_codec.c **** /**
 939:../STM32F4-Discovery/stm32f4_discovery_audio_codec.c ****   * @brief  Reads and returns the value of an audio codec register through the
 940:../STM32F4-Discovery/stm32f4_discovery_audio_codec.c ****   *         control interface (I2C).
 941:../STM32F4-Discovery/stm32f4_discovery_audio_codec.c ****   * @param  RegisterAddr: Address of the register to be read.
 942:../STM32F4-Discovery/stm32f4_discovery_audio_codec.c ****   * @retval Value of the register to be read or dummy value if the communication
 943:../STM32F4-Discovery/stm32f4_discovery_audio_codec.c ****   *         fails.
 944:../STM32F4-Discovery/stm32f4_discovery_audio_codec.c ****   */
 945:../STM32F4-Discovery/stm32f4_discovery_audio_codec.c **** static uint32_t Codec_ReadRegister(uint8_t RegisterAddr)
 946:../STM32F4-Discovery/stm32f4_discovery_audio_codec.c **** {
 1844              		.loc 1 946 0
 1845              		.cfi_startproc
 1846              		@ args = 0, pretend = 0, frame = 16
 1847              		@ frame_needed = 1, uses_anonymous_args = 0
 1848 0000 80B5     		push	{r7, lr}
 1849              	.LCFI56:
 1850              		.cfi_def_cfa_offset 8
 1851              		.cfi_offset 14, -4
 1852              		.cfi_offset 7, -8
 1853 0002 84B0     		sub	sp, sp, #16
 1854              	.LCFI57:
 1855              		.cfi_def_cfa_offset 24
 1856 0004 00AF     		add	r7, sp, #0
 1857              	.LCFI58:
 1858              		.cfi_def_cfa_register 7
 1859 0006 0346     		mov	r3, r0
 1860 0008 FB71     		strb	r3, [r7, #7]
 947:../STM32F4-Discovery/stm32f4_discovery_audio_codec.c ****   uint32_t result = 0;
 1861              		.loc 1 947 0
 1862 000a 4FF00003 		mov	r3, #0
 1863 000e FB60     		str	r3, [r7, #12]
 948:../STM32F4-Discovery/stm32f4_discovery_audio_codec.c **** 
 949:../STM32F4-Discovery/stm32f4_discovery_audio_codec.c ****   /*!< While the bus is busy */
 950:../STM32F4-Discovery/stm32f4_discovery_audio_codec.c ****   CODECTimeout = CODEC_LONG_TIMEOUT;
 1864              		.loc 1 950 0
 1865 0010 40F20003 		movw	r3, #:lower16:CODECTimeout
 1866 0014 C0F20003 		movt	r3, #:upper16:CODECTimeout
 1867 0018 4FF49612 		mov	r2, #1228800
 1868 001c 1A60     		str	r2, [r3, #0]
 951:../STM32F4-Discovery/stm32f4_discovery_audio_codec.c ****   while(I2C_GetFlagStatus(CODEC_I2C, I2C_FLAG_BUSY))
 1869              		.loc 1 951 0
 1870 001e 16E0     		b	.L63
 1871              	.L65:
 952:../STM32F4-Discovery/stm32f4_discovery_audio_codec.c ****   {
 953:../STM32F4-Discovery/stm32f4_discovery_audio_codec.c ****     if((CODECTimeout--) == 0) return Codec_TIMEOUT_UserCallback();
 1872              		.loc 1 953 0
 1873 0020 40F20003 		movw	r3, #:lower16:CODECTimeout
 1874 0024 C0F20003 		movt	r3, #:upper16:CODECTimeout
 1875 0028 1B68     		ldr	r3, [r3, #0]
 1876 002a 002B     		cmp	r3, #0
 1877 002c 14BF     		ite	ne
 1878 002e 0022     		movne	r2, #0
 1879 0030 0122     		moveq	r2, #1
 1880 0032 D2B2     		uxtb	r2, r2
 1881 0034 03F1FF31 		add	r1, r3, #-1
 1882 0038 40F20003 		movw	r3, #:lower16:CODECTimeout
 1883 003c C0F20003 		movt	r3, #:upper16:CODECTimeout
 1884 0040 1960     		str	r1, [r3, #0]
 1885 0042 002A     		cmp	r2, #0
 1886 0044 03D0     		beq	.L63
 1887              		.loc 1 953 0 is_stmt 0 discriminator 1
 1888 0046 FFF7FEFF 		bl	Codec_TIMEOUT_UserCallback
 1889 004a 0346     		mov	r3, r0
 1890 004c 97E1     		b	.L64
 1891              	.L63:
 951:../STM32F4-Discovery/stm32f4_discovery_audio_codec.c ****   while(I2C_GetFlagStatus(CODEC_I2C, I2C_FLAG_BUSY))
 1892              		.loc 1 951 0 is_stmt 1 discriminator 1
 1893 004e 4FF4A840 		mov	r0, #21504
 1894 0052 C4F20000 		movt	r0, 16384
 1895 0056 4FF40031 		mov	r1, #131072
 1896 005a FFF7FEFF 		bl	I2C_GetFlagStatus
 1897 005e 0346     		mov	r3, r0
 1898 0060 002B     		cmp	r3, #0
 1899 0062 DDD1     		bne	.L65
 954:../STM32F4-Discovery/stm32f4_discovery_audio_codec.c ****   }
 955:../STM32F4-Discovery/stm32f4_discovery_audio_codec.c ****   
 956:../STM32F4-Discovery/stm32f4_discovery_audio_codec.c ****   /* Start the config sequence */
 957:../STM32F4-Discovery/stm32f4_discovery_audio_codec.c ****   I2C_GenerateSTART(CODEC_I2C, ENABLE);
 1900              		.loc 1 957 0
 1901 0064 4FF4A840 		mov	r0, #21504
 1902 0068 C4F20000 		movt	r0, 16384
 1903 006c 4FF00101 		mov	r1, #1
 1904 0070 FFF7FEFF 		bl	I2C_GenerateSTART
 958:../STM32F4-Discovery/stm32f4_discovery_audio_codec.c **** 
 959:../STM32F4-Discovery/stm32f4_discovery_audio_codec.c ****   /* Test on EV5 and clear it */
 960:../STM32F4-Discovery/stm32f4_discovery_audio_codec.c ****   CODECTimeout = CODEC_FLAG_TIMEOUT;
 1905              		.loc 1 960 0
 1906 0074 40F20003 		movw	r3, #:lower16:CODECTimeout
 1907 0078 C0F20003 		movt	r3, #:upper16:CODECTimeout
 1908 007c 4FF48052 		mov	r2, #4096
 1909 0080 1A60     		str	r2, [r3, #0]
 961:../STM32F4-Discovery/stm32f4_discovery_audio_codec.c ****   while (!I2C_CheckEvent(CODEC_I2C, I2C_EVENT_MASTER_MODE_SELECT))
 1910              		.loc 1 961 0
 1911 0082 16E0     		b	.L66
 1912              	.L67:
 962:../STM32F4-Discovery/stm32f4_discovery_audio_codec.c ****   {
 963:../STM32F4-Discovery/stm32f4_discovery_audio_codec.c ****     if((CODECTimeout--) == 0) return Codec_TIMEOUT_UserCallback();
 1913              		.loc 1 963 0
 1914 0084 40F20003 		movw	r3, #:lower16:CODECTimeout
 1915 0088 C0F20003 		movt	r3, #:upper16:CODECTimeout
 1916 008c 1B68     		ldr	r3, [r3, #0]
 1917 008e 002B     		cmp	r3, #0
 1918 0090 14BF     		ite	ne
 1919 0092 0022     		movne	r2, #0
 1920 0094 0122     		moveq	r2, #1
 1921 0096 D2B2     		uxtb	r2, r2
 1922 0098 03F1FF31 		add	r1, r3, #-1
 1923 009c 40F20003 		movw	r3, #:lower16:CODECTimeout
 1924 00a0 C0F20003 		movt	r3, #:upper16:CODECTimeout
 1925 00a4 1960     		str	r1, [r3, #0]
 1926 00a6 002A     		cmp	r2, #0
 1927 00a8 03D0     		beq	.L66
 1928              		.loc 1 963 0 is_stmt 0 discriminator 1
 1929 00aa FFF7FEFF 		bl	Codec_TIMEOUT_UserCallback
 1930 00ae 0346     		mov	r3, r0
 1931 00b0 65E1     		b	.L64
 1932              	.L66:
 961:../STM32F4-Discovery/stm32f4_discovery_audio_codec.c ****   while (!I2C_CheckEvent(CODEC_I2C, I2C_EVENT_MASTER_MODE_SELECT))
 1933              		.loc 1 961 0 is_stmt 1 discriminator 1
 1934 00b2 4FF4A840 		mov	r0, #21504
 1935 00b6 C4F20000 		movt	r0, 16384
 1936 00ba 4FF00101 		mov	r1, #1
 1937 00be C0F20301 		movt	r1, 3
 1938 00c2 FFF7FEFF 		bl	I2C_CheckEvent
 1939 00c6 0346     		mov	r3, r0
 1940 00c8 002B     		cmp	r3, #0
 1941 00ca DBD0     		beq	.L67
 964:../STM32F4-Discovery/stm32f4_discovery_audio_codec.c ****   }
 965:../STM32F4-Discovery/stm32f4_discovery_audio_codec.c ****   
 966:../STM32F4-Discovery/stm32f4_discovery_audio_codec.c ****   /* Transmit the slave address and enable writing operation */
 967:../STM32F4-Discovery/stm32f4_discovery_audio_codec.c ****   I2C_Send7bitAddress(CODEC_I2C, CODEC_ADDRESS, I2C_Direction_Transmitter);
 1942              		.loc 1 967 0
 1943 00cc 4FF4A840 		mov	r0, #21504
 1944 00d0 C4F20000 		movt	r0, 16384
 1945 00d4 4FF09401 		mov	r1, #148
 1946 00d8 4FF00002 		mov	r2, #0
 1947 00dc FFF7FEFF 		bl	I2C_Send7bitAddress
 968:../STM32F4-Discovery/stm32f4_discovery_audio_codec.c **** 
 969:../STM32F4-Discovery/stm32f4_discovery_audio_codec.c ****   /* Test on EV6 and clear it */
 970:../STM32F4-Discovery/stm32f4_discovery_audio_codec.c ****   CODECTimeout = CODEC_FLAG_TIMEOUT;
 1948              		.loc 1 970 0
 1949 00e0 40F20003 		movw	r3, #:lower16:CODECTimeout
 1950 00e4 C0F20003 		movt	r3, #:upper16:CODECTimeout
 1951 00e8 4FF48052 		mov	r2, #4096
 1952 00ec 1A60     		str	r2, [r3, #0]
 971:../STM32F4-Discovery/stm32f4_discovery_audio_codec.c ****   while (!I2C_CheckEvent(CODEC_I2C, I2C_EVENT_MASTER_TRANSMITTER_MODE_SELECTED))
 1953              		.loc 1 971 0
 1954 00ee 16E0     		b	.L68
 1955              	.L69:
 972:../STM32F4-Discovery/stm32f4_discovery_audio_codec.c ****   {
 973:../STM32F4-Discovery/stm32f4_discovery_audio_codec.c ****     if((CODECTimeout--) == 0) return Codec_TIMEOUT_UserCallback();
 1956              		.loc 1 973 0
 1957 00f0 40F20003 		movw	r3, #:lower16:CODECTimeout
 1958 00f4 C0F20003 		movt	r3, #:upper16:CODECTimeout
 1959 00f8 1B68     		ldr	r3, [r3, #0]
 1960 00fa 002B     		cmp	r3, #0
 1961 00fc 14BF     		ite	ne
 1962 00fe 0022     		movne	r2, #0
 1963 0100 0122     		moveq	r2, #1
 1964 0102 D2B2     		uxtb	r2, r2
 1965 0104 03F1FF31 		add	r1, r3, #-1
 1966 0108 40F20003 		movw	r3, #:lower16:CODECTimeout
 1967 010c C0F20003 		movt	r3, #:upper16:CODECTimeout
 1968 0110 1960     		str	r1, [r3, #0]
 1969 0112 002A     		cmp	r2, #0
 1970 0114 03D0     		beq	.L68
 1971              		.loc 1 973 0 is_stmt 0 discriminator 1
 1972 0116 FFF7FEFF 		bl	Codec_TIMEOUT_UserCallback
 1973 011a 0346     		mov	r3, r0
 1974 011c 2FE1     		b	.L64
 1975              	.L68:
 971:../STM32F4-Discovery/stm32f4_discovery_audio_codec.c ****   while (!I2C_CheckEvent(CODEC_I2C, I2C_EVENT_MASTER_TRANSMITTER_MODE_SELECTED))
 1976              		.loc 1 971 0 is_stmt 1 discriminator 1
 1977 011e 4FF4A840 		mov	r0, #21504
 1978 0122 C4F20000 		movt	r0, 16384
 1979 0126 4FF08201 		mov	r1, #130
 1980 012a C0F20701 		movt	r1, 7
 1981 012e FFF7FEFF 		bl	I2C_CheckEvent
 1982 0132 0346     		mov	r3, r0
 1983 0134 002B     		cmp	r3, #0
 1984 0136 DBD0     		beq	.L69
 974:../STM32F4-Discovery/stm32f4_discovery_audio_codec.c ****   }
 975:../STM32F4-Discovery/stm32f4_discovery_audio_codec.c **** 
 976:../STM32F4-Discovery/stm32f4_discovery_audio_codec.c ****   /* Transmit the register address to be read */
 977:../STM32F4-Discovery/stm32f4_discovery_audio_codec.c ****   I2C_SendData(CODEC_I2C, RegisterAddr);
 1985              		.loc 1 977 0
 1986 0138 FB79     		ldrb	r3, [r7, #7]	@ zero_extendqisi2
 1987 013a 4FF4A840 		mov	r0, #21504
 1988 013e C4F20000 		movt	r0, 16384
 1989 0142 1946     		mov	r1, r3
 1990 0144 FFF7FEFF 		bl	I2C_SendData
 978:../STM32F4-Discovery/stm32f4_discovery_audio_codec.c **** 
 979:../STM32F4-Discovery/stm32f4_discovery_audio_codec.c ****   /* Test on EV8 and clear it */
 980:../STM32F4-Discovery/stm32f4_discovery_audio_codec.c ****   CODECTimeout = CODEC_FLAG_TIMEOUT;
 1991              		.loc 1 980 0
 1992 0148 40F20003 		movw	r3, #:lower16:CODECTimeout
 1993 014c C0F20003 		movt	r3, #:upper16:CODECTimeout
 1994 0150 4FF48052 		mov	r2, #4096
 1995 0154 1A60     		str	r2, [r3, #0]
 981:../STM32F4-Discovery/stm32f4_discovery_audio_codec.c ****   while (I2C_GetFlagStatus(CODEC_I2C, I2C_FLAG_BTF) == RESET)
 1996              		.loc 1 981 0
 1997 0156 16E0     		b	.L70
 1998              	.L71:
 982:../STM32F4-Discovery/stm32f4_discovery_audio_codec.c ****   {
 983:../STM32F4-Discovery/stm32f4_discovery_audio_codec.c ****     if((CODECTimeout--) == 0) return Codec_TIMEOUT_UserCallback();
 1999              		.loc 1 983 0
 2000 0158 40F20003 		movw	r3, #:lower16:CODECTimeout
 2001 015c C0F20003 		movt	r3, #:upper16:CODECTimeout
 2002 0160 1B68     		ldr	r3, [r3, #0]
 2003 0162 002B     		cmp	r3, #0
 2004 0164 14BF     		ite	ne
 2005 0166 0022     		movne	r2, #0
 2006 0168 0122     		moveq	r2, #1
 2007 016a D2B2     		uxtb	r2, r2
 2008 016c 03F1FF31 		add	r1, r3, #-1
 2009 0170 40F20003 		movw	r3, #:lower16:CODECTimeout
 2010 0174 C0F20003 		movt	r3, #:upper16:CODECTimeout
 2011 0178 1960     		str	r1, [r3, #0]
 2012 017a 002A     		cmp	r2, #0
 2013 017c 03D0     		beq	.L70
 2014              		.loc 1 983 0 is_stmt 0 discriminator 1
 2015 017e FFF7FEFF 		bl	Codec_TIMEOUT_UserCallback
 2016 0182 0346     		mov	r3, r0
 2017 0184 FBE0     		b	.L64
 2018              	.L70:
 981:../STM32F4-Discovery/stm32f4_discovery_audio_codec.c ****   while (I2C_GetFlagStatus(CODEC_I2C, I2C_FLAG_BTF) == RESET)
 2019              		.loc 1 981 0 is_stmt 1 discriminator 1
 2020 0186 4FF4A840 		mov	r0, #21504
 2021 018a C4F20000 		movt	r0, 16384
 2022 018e 4FF00401 		mov	r1, #4
 2023 0192 C1F20001 		movt	r1, 4096
 2024 0196 FFF7FEFF 		bl	I2C_GetFlagStatus
 2025 019a 0346     		mov	r3, r0
 2026 019c 002B     		cmp	r3, #0
 2027 019e DBD0     		beq	.L71
 984:../STM32F4-Discovery/stm32f4_discovery_audio_codec.c ****   }
 985:../STM32F4-Discovery/stm32f4_discovery_audio_codec.c ****   
 986:../STM32F4-Discovery/stm32f4_discovery_audio_codec.c ****   /*!< Send START condition a second time */  
 987:../STM32F4-Discovery/stm32f4_discovery_audio_codec.c ****   I2C_GenerateSTART(CODEC_I2C, ENABLE);
 2028              		.loc 1 987 0
 2029 01a0 4FF4A840 		mov	r0, #21504
 2030 01a4 C4F20000 		movt	r0, 16384
 2031 01a8 4FF00101 		mov	r1, #1
 2032 01ac FFF7FEFF 		bl	I2C_GenerateSTART
 988:../STM32F4-Discovery/stm32f4_discovery_audio_codec.c ****   
 989:../STM32F4-Discovery/stm32f4_discovery_audio_codec.c ****   /*!< Test on EV5 and clear it (cleared by reading SR1 then writing to DR) */
 990:../STM32F4-Discovery/stm32f4_discovery_audio_codec.c ****   CODECTimeout = CODEC_FLAG_TIMEOUT;
 2033              		.loc 1 990 0
 2034 01b0 40F20003 		movw	r3, #:lower16:CODECTimeout
 2035 01b4 C0F20003 		movt	r3, #:upper16:CODECTimeout
 2036 01b8 4FF48052 		mov	r2, #4096
 2037 01bc 1A60     		str	r2, [r3, #0]
 991:../STM32F4-Discovery/stm32f4_discovery_audio_codec.c ****   while(!I2C_CheckEvent(CODEC_I2C, I2C_EVENT_MASTER_MODE_SELECT))
 2038              		.loc 1 991 0
 2039 01be 16E0     		b	.L72
 2040              	.L73:
 992:../STM32F4-Discovery/stm32f4_discovery_audio_codec.c ****   {
 993:../STM32F4-Discovery/stm32f4_discovery_audio_codec.c ****     if((CODECTimeout--) == 0) return Codec_TIMEOUT_UserCallback();
 2041              		.loc 1 993 0
 2042 01c0 40F20003 		movw	r3, #:lower16:CODECTimeout
 2043 01c4 C0F20003 		movt	r3, #:upper16:CODECTimeout
 2044 01c8 1B68     		ldr	r3, [r3, #0]
 2045 01ca 002B     		cmp	r3, #0
 2046 01cc 14BF     		ite	ne
 2047 01ce 0022     		movne	r2, #0
 2048 01d0 0122     		moveq	r2, #1
 2049 01d2 D2B2     		uxtb	r2, r2
 2050 01d4 03F1FF31 		add	r1, r3, #-1
 2051 01d8 40F20003 		movw	r3, #:lower16:CODECTimeout
 2052 01dc C0F20003 		movt	r3, #:upper16:CODECTimeout
 2053 01e0 1960     		str	r1, [r3, #0]
 2054 01e2 002A     		cmp	r2, #0
 2055 01e4 03D0     		beq	.L72
 2056              		.loc 1 993 0 is_stmt 0 discriminator 1
 2057 01e6 FFF7FEFF 		bl	Codec_TIMEOUT_UserCallback
 2058 01ea 0346     		mov	r3, r0
 2059 01ec C7E0     		b	.L64
 2060              	.L72:
 991:../STM32F4-Discovery/stm32f4_discovery_audio_codec.c ****   while(!I2C_CheckEvent(CODEC_I2C, I2C_EVENT_MASTER_MODE_SELECT))
 2061              		.loc 1 991 0 is_stmt 1 discriminator 1
 2062 01ee 4FF4A840 		mov	r0, #21504
 2063 01f2 C4F20000 		movt	r0, 16384
 2064 01f6 4FF00101 		mov	r1, #1
 2065 01fa C0F20301 		movt	r1, 3
 2066 01fe FFF7FEFF 		bl	I2C_CheckEvent
 2067 0202 0346     		mov	r3, r0
 2068 0204 002B     		cmp	r3, #0
 2069 0206 DBD0     		beq	.L73
 994:../STM32F4-Discovery/stm32f4_discovery_audio_codec.c ****   } 
 995:../STM32F4-Discovery/stm32f4_discovery_audio_codec.c ****   
 996:../STM32F4-Discovery/stm32f4_discovery_audio_codec.c ****   /*!< Send Codec address for read */
 997:../STM32F4-Discovery/stm32f4_discovery_audio_codec.c ****   I2C_Send7bitAddress(CODEC_I2C, CODEC_ADDRESS, I2C_Direction_Receiver);  
 2070              		.loc 1 997 0
 2071 0208 4FF4A840 		mov	r0, #21504
 2072 020c C4F20000 		movt	r0, 16384
 2073 0210 4FF09401 		mov	r1, #148
 2074 0214 4FF00102 		mov	r2, #1
 2075 0218 FFF7FEFF 		bl	I2C_Send7bitAddress
 998:../STM32F4-Discovery/stm32f4_discovery_audio_codec.c ****   
 999:../STM32F4-Discovery/stm32f4_discovery_audio_codec.c ****   /* Wait on ADDR flag to be set (ADDR is still not cleared at this level */
1000:../STM32F4-Discovery/stm32f4_discovery_audio_codec.c ****   CODECTimeout = CODEC_FLAG_TIMEOUT;
 2076              		.loc 1 1000 0
 2077 021c 40F20003 		movw	r3, #:lower16:CODECTimeout
 2078 0220 C0F20003 		movt	r3, #:upper16:CODECTimeout
 2079 0224 4FF48052 		mov	r2, #4096
 2080 0228 1A60     		str	r2, [r3, #0]
1001:../STM32F4-Discovery/stm32f4_discovery_audio_codec.c ****   while(I2C_GetFlagStatus(CODEC_I2C, I2C_FLAG_ADDR) == RESET)
 2081              		.loc 1 1001 0
 2082 022a 16E0     		b	.L74
 2083              	.L75:
1002:../STM32F4-Discovery/stm32f4_discovery_audio_codec.c ****   {
1003:../STM32F4-Discovery/stm32f4_discovery_audio_codec.c ****     if((CODECTimeout--) == 0) return Codec_TIMEOUT_UserCallback();
 2084              		.loc 1 1003 0
 2085 022c 40F20003 		movw	r3, #:lower16:CODECTimeout
 2086 0230 C0F20003 		movt	r3, #:upper16:CODECTimeout
 2087 0234 1B68     		ldr	r3, [r3, #0]
 2088 0236 002B     		cmp	r3, #0
 2089 0238 14BF     		ite	ne
 2090 023a 0022     		movne	r2, #0
 2091 023c 0122     		moveq	r2, #1
 2092 023e D2B2     		uxtb	r2, r2
 2093 0240 03F1FF31 		add	r1, r3, #-1
 2094 0244 40F20003 		movw	r3, #:lower16:CODECTimeout
 2095 0248 C0F20003 		movt	r3, #:upper16:CODECTimeout
 2096 024c 1960     		str	r1, [r3, #0]
 2097 024e 002A     		cmp	r2, #0
 2098 0250 03D0     		beq	.L74
 2099              		.loc 1 1003 0 is_stmt 0 discriminator 1
 2100 0252 FFF7FEFF 		bl	Codec_TIMEOUT_UserCallback
 2101 0256 0346     		mov	r3, r0
 2102 0258 91E0     		b	.L64
 2103              	.L74:
1001:../STM32F4-Discovery/stm32f4_discovery_audio_codec.c ****   while(I2C_GetFlagStatus(CODEC_I2C, I2C_FLAG_ADDR) == RESET)
 2104              		.loc 1 1001 0 is_stmt 1 discriminator 1
 2105 025a 4FF4A840 		mov	r0, #21504
 2106 025e C4F20000 		movt	r0, 16384
 2107 0262 4FF00201 		mov	r1, #2
 2108 0266 C1F20001 		movt	r1, 4096
 2109 026a FFF7FEFF 		bl	I2C_GetFlagStatus
 2110 026e 0346     		mov	r3, r0
 2111 0270 002B     		cmp	r3, #0
 2112 0272 DBD0     		beq	.L75
1004:../STM32F4-Discovery/stm32f4_discovery_audio_codec.c ****   }     
1005:../STM32F4-Discovery/stm32f4_discovery_audio_codec.c ****   
1006:../STM32F4-Discovery/stm32f4_discovery_audio_codec.c ****   /*!< Disable Acknowledgment */
1007:../STM32F4-Discovery/stm32f4_discovery_audio_codec.c ****   I2C_AcknowledgeConfig(CODEC_I2C, DISABLE);   
 2113              		.loc 1 1007 0
 2114 0274 4FF4A840 		mov	r0, #21504
 2115 0278 C4F20000 		movt	r0, 16384
 2116 027c 4FF00001 		mov	r1, #0
 2117 0280 FFF7FEFF 		bl	I2C_AcknowledgeConfig
1008:../STM32F4-Discovery/stm32f4_discovery_audio_codec.c ****   
1009:../STM32F4-Discovery/stm32f4_discovery_audio_codec.c ****   /* Clear ADDR register by reading SR1 then SR2 register (SR1 has already been read) */
1010:../STM32F4-Discovery/stm32f4_discovery_audio_codec.c ****   (void)CODEC_I2C->SR2;
 2118              		.loc 1 1010 0
 2119 0284 4FF4A843 		mov	r3, #21504
 2120 0288 C4F20003 		movt	r3, 16384
 2121 028c 1B8B     		ldrh	r3, [r3, #24]	@ movhi
1011:../STM32F4-Discovery/stm32f4_discovery_audio_codec.c ****   
1012:../STM32F4-Discovery/stm32f4_discovery_audio_codec.c ****   /*!< Send STOP Condition */
1013:../STM32F4-Discovery/stm32f4_discovery_audio_codec.c ****   I2C_GenerateSTOP(CODEC_I2C, ENABLE);
 2122              		.loc 1 1013 0
 2123 028e 4FF4A840 		mov	r0, #21504
 2124 0292 C4F20000 		movt	r0, 16384
 2125 0296 4FF00101 		mov	r1, #1
 2126 029a FFF7FEFF 		bl	I2C_GenerateSTOP
1014:../STM32F4-Discovery/stm32f4_discovery_audio_codec.c ****   
1015:../STM32F4-Discovery/stm32f4_discovery_audio_codec.c ****   /* Wait for the byte to be received */
1016:../STM32F4-Discovery/stm32f4_discovery_audio_codec.c ****   CODECTimeout = CODEC_FLAG_TIMEOUT;
 2127              		.loc 1 1016 0
 2128 029e 40F20003 		movw	r3, #:lower16:CODECTimeout
 2129 02a2 C0F20003 		movt	r3, #:upper16:CODECTimeout
 2130 02a6 4FF48052 		mov	r2, #4096
 2131 02aa 1A60     		str	r2, [r3, #0]
1017:../STM32F4-Discovery/stm32f4_discovery_audio_codec.c ****   while(I2C_GetFlagStatus(CODEC_I2C, I2C_FLAG_RXNE) == RESET)
 2132              		.loc 1 1017 0
 2133 02ac 16E0     		b	.L76
 2134              	.L77:
1018:../STM32F4-Discovery/stm32f4_discovery_audio_codec.c ****   {
1019:../STM32F4-Discovery/stm32f4_discovery_audio_codec.c ****     if((CODECTimeout--) == 0) return Codec_TIMEOUT_UserCallback();
 2135              		.loc 1 1019 0
 2136 02ae 40F20003 		movw	r3, #:lower16:CODECTimeout
 2137 02b2 C0F20003 		movt	r3, #:upper16:CODECTimeout
 2138 02b6 1B68     		ldr	r3, [r3, #0]
 2139 02b8 002B     		cmp	r3, #0
 2140 02ba 14BF     		ite	ne
 2141 02bc 0022     		movne	r2, #0
 2142 02be 0122     		moveq	r2, #1
 2143 02c0 D2B2     		uxtb	r2, r2
 2144 02c2 03F1FF31 		add	r1, r3, #-1
 2145 02c6 40F20003 		movw	r3, #:lower16:CODECTimeout
 2146 02ca C0F20003 		movt	r3, #:upper16:CODECTimeout
 2147 02ce 1960     		str	r1, [r3, #0]
 2148 02d0 002A     		cmp	r2, #0
 2149 02d2 03D0     		beq	.L76
 2150              		.loc 1 1019 0 is_stmt 0 discriminator 1
 2151 02d4 FFF7FEFF 		bl	Codec_TIMEOUT_UserCallback
 2152 02d8 0346     		mov	r3, r0
 2153 02da 50E0     		b	.L64
 2154              	.L76:
1017:../STM32F4-Discovery/stm32f4_discovery_audio_codec.c ****   while(I2C_GetFlagStatus(CODEC_I2C, I2C_FLAG_RXNE) == RESET)
 2155              		.loc 1 1017 0 is_stmt 1 discriminator 1
 2156 02dc 4FF4A840 		mov	r0, #21504
 2157 02e0 C4F20000 		movt	r0, 16384
 2158 02e4 4FF04001 		mov	r1, #64
 2159 02e8 C1F20001 		movt	r1, 4096
 2160 02ec FFF7FEFF 		bl	I2C_GetFlagStatus
 2161 02f0 0346     		mov	r3, r0
 2162 02f2 002B     		cmp	r3, #0
 2163 02f4 DBD0     		beq	.L77
1020:../STM32F4-Discovery/stm32f4_discovery_audio_codec.c ****   }
1021:../STM32F4-Discovery/stm32f4_discovery_audio_codec.c ****   
1022:../STM32F4-Discovery/stm32f4_discovery_audio_codec.c ****   /*!< Read the byte received from the Codec */
1023:../STM32F4-Discovery/stm32f4_discovery_audio_codec.c ****   result = I2C_ReceiveData(CODEC_I2C);
 2164              		.loc 1 1023 0
 2165 02f6 4FF4A840 		mov	r0, #21504
 2166 02fa C4F20000 		movt	r0, 16384
 2167 02fe FFF7FEFF 		bl	I2C_ReceiveData
 2168 0302 0346     		mov	r3, r0
 2169 0304 FB60     		str	r3, [r7, #12]
1024:../STM32F4-Discovery/stm32f4_discovery_audio_codec.c ****   
1025:../STM32F4-Discovery/stm32f4_discovery_audio_codec.c ****   /* Wait to make sure that STOP flag has been cleared */
1026:../STM32F4-Discovery/stm32f4_discovery_audio_codec.c ****   CODECTimeout = CODEC_FLAG_TIMEOUT;
 2170              		.loc 1 1026 0
 2171 0306 40F20003 		movw	r3, #:lower16:CODECTimeout
 2172 030a C0F20003 		movt	r3, #:upper16:CODECTimeout
 2173 030e 4FF48052 		mov	r2, #4096
 2174 0312 1A60     		str	r2, [r3, #0]
1027:../STM32F4-Discovery/stm32f4_discovery_audio_codec.c ****   while(CODEC_I2C->CR1 & I2C_CR1_STOP)
 2175              		.loc 1 1027 0
 2176 0314 16E0     		b	.L78
 2177              	.L79:
1028:../STM32F4-Discovery/stm32f4_discovery_audio_codec.c ****   {
1029:../STM32F4-Discovery/stm32f4_discovery_audio_codec.c ****     if((CODECTimeout--) == 0) return Codec_TIMEOUT_UserCallback();
 2178              		.loc 1 1029 0
 2179 0316 40F20003 		movw	r3, #:lower16:CODECTimeout
 2180 031a C0F20003 		movt	r3, #:upper16:CODECTimeout
 2181 031e 1B68     		ldr	r3, [r3, #0]
 2182 0320 002B     		cmp	r3, #0
 2183 0322 14BF     		ite	ne
 2184 0324 0022     		movne	r2, #0
 2185 0326 0122     		moveq	r2, #1
 2186 0328 D2B2     		uxtb	r2, r2
 2187 032a 03F1FF31 		add	r1, r3, #-1
 2188 032e 40F20003 		movw	r3, #:lower16:CODECTimeout
 2189 0332 C0F20003 		movt	r3, #:upper16:CODECTimeout
 2190 0336 1960     		str	r1, [r3, #0]
 2191 0338 002A     		cmp	r2, #0
 2192 033a 03D0     		beq	.L78
 2193              		.loc 1 1029 0 is_stmt 0 discriminator 1
 2194 033c FFF7FEFF 		bl	Codec_TIMEOUT_UserCallback
 2195 0340 0346     		mov	r3, r0
 2196 0342 1CE0     		b	.L64
 2197              	.L78:
1027:../STM32F4-Discovery/stm32f4_discovery_audio_codec.c ****   while(CODEC_I2C->CR1 & I2C_CR1_STOP)
 2198              		.loc 1 1027 0 is_stmt 1 discriminator 1
 2199 0344 4FF4A843 		mov	r3, #21504
 2200 0348 C4F20003 		movt	r3, 16384
 2201 034c 1B88     		ldrh	r3, [r3, #0]	@ movhi
 2202 034e 9BB2     		uxth	r3, r3
 2203 0350 03F40073 		and	r3, r3, #512
 2204 0354 002B     		cmp	r3, #0
 2205 0356 DED1     		bne	.L79
1030:../STM32F4-Discovery/stm32f4_discovery_audio_codec.c ****   }  
1031:../STM32F4-Discovery/stm32f4_discovery_audio_codec.c ****   
1032:../STM32F4-Discovery/stm32f4_discovery_audio_codec.c ****   /*!< Re-Enable Acknowledgment to be ready for another reception */
1033:../STM32F4-Discovery/stm32f4_discovery_audio_codec.c ****   I2C_AcknowledgeConfig(CODEC_I2C, ENABLE);  
 2206              		.loc 1 1033 0
 2207 0358 4FF4A840 		mov	r0, #21504
 2208 035c C4F20000 		movt	r0, 16384
 2209 0360 4FF00101 		mov	r1, #1
 2210 0364 FFF7FEFF 		bl	I2C_AcknowledgeConfig
1034:../STM32F4-Discovery/stm32f4_discovery_audio_codec.c ****   
1035:../STM32F4-Discovery/stm32f4_discovery_audio_codec.c ****   /* Clear AF flag for next communication */
1036:../STM32F4-Discovery/stm32f4_discovery_audio_codec.c ****   I2C_ClearFlag(CODEC_I2C, I2C_FLAG_AF); 
 2211              		.loc 1 1036 0
 2212 0368 4FF4A840 		mov	r0, #21504
 2213 036c C4F20000 		movt	r0, 16384
 2214 0370 4FF48061 		mov	r1, #1024
 2215 0374 C1F20001 		movt	r1, 4096
 2216 0378 FFF7FEFF 		bl	I2C_ClearFlag
1037:../STM32F4-Discovery/stm32f4_discovery_audio_codec.c ****   
1038:../STM32F4-Discovery/stm32f4_discovery_audio_codec.c ****   /* Return the byte read from Codec */
1039:../STM32F4-Discovery/stm32f4_discovery_audio_codec.c ****   return result;
 2217              		.loc 1 1039 0
 2218 037c FB68     		ldr	r3, [r7, #12]
 2219              	.L64:
1040:../STM32F4-Discovery/stm32f4_discovery_audio_codec.c **** }
 2220              		.loc 1 1040 0
 2221 037e 1846     		mov	r0, r3
 2222 0380 07F11007 		add	r7, r7, #16
 2223 0384 BD46     		mov	sp, r7
 2224 0386 80BD     		pop	{r7, pc}
 2225              		.cfi_endproc
 2226              	.LFE131:
 2228              		.section	.text.Codec_CtrlInterface_Init,"ax",%progbits
 2229              		.align	2
 2230              		.thumb
 2231              		.thumb_func
 2233              	Codec_CtrlInterface_Init:
 2234              	.LFB132:
1041:../STM32F4-Discovery/stm32f4_discovery_audio_codec.c **** 
1042:../STM32F4-Discovery/stm32f4_discovery_audio_codec.c **** /**
1043:../STM32F4-Discovery/stm32f4_discovery_audio_codec.c ****   * @brief  Initializes the Audio Codec control interface (I2C).
1044:../STM32F4-Discovery/stm32f4_discovery_audio_codec.c ****   * @param  None
1045:../STM32F4-Discovery/stm32f4_discovery_audio_codec.c ****   * @retval None
1046:../STM32F4-Discovery/stm32f4_discovery_audio_codec.c ****   */
1047:../STM32F4-Discovery/stm32f4_discovery_audio_codec.c **** static void Codec_CtrlInterface_Init(void)
1048:../STM32F4-Discovery/stm32f4_discovery_audio_codec.c **** {
 2235              		.loc 1 1048 0
 2236              		.cfi_startproc
 2237              		@ args = 0, pretend = 0, frame = 16
 2238              		@ frame_needed = 1, uses_anonymous_args = 0
 2239 0000 80B5     		push	{r7, lr}
 2240              	.LCFI59:
 2241              		.cfi_def_cfa_offset 8
 2242              		.cfi_offset 14, -4
 2243              		.cfi_offset 7, -8
 2244 0002 84B0     		sub	sp, sp, #16
 2245              	.LCFI60:
 2246              		.cfi_def_cfa_offset 24
 2247 0004 00AF     		add	r7, sp, #0
 2248              	.LCFI61:
 2249              		.cfi_def_cfa_register 7
1049:../STM32F4-Discovery/stm32f4_discovery_audio_codec.c ****   I2C_InitTypeDef I2C_InitStructure;
1050:../STM32F4-Discovery/stm32f4_discovery_audio_codec.c ****   
1051:../STM32F4-Discovery/stm32f4_discovery_audio_codec.c ****   /* Enable the CODEC_I2C peripheral clock */
1052:../STM32F4-Discovery/stm32f4_discovery_audio_codec.c ****   RCC_APB1PeriphClockCmd(CODEC_I2C_CLK, ENABLE);
 2250              		.loc 1 1052 0
 2251 0006 4FF40010 		mov	r0, #2097152
 2252 000a 4FF00101 		mov	r1, #1
 2253 000e FFF7FEFF 		bl	RCC_APB1PeriphClockCmd
1053:../STM32F4-Discovery/stm32f4_discovery_audio_codec.c ****   
1054:../STM32F4-Discovery/stm32f4_discovery_audio_codec.c ****   /* CODEC_I2C peripheral configuration */
1055:../STM32F4-Discovery/stm32f4_discovery_audio_codec.c ****   I2C_DeInit(CODEC_I2C);
 2254              		.loc 1 1055 0
 2255 0012 4FF4A840 		mov	r0, #21504
 2256 0016 C4F20000 		movt	r0, 16384
 2257 001a FFF7FEFF 		bl	I2C_DeInit
1056:../STM32F4-Discovery/stm32f4_discovery_audio_codec.c ****   I2C_InitStructure.I2C_Mode = I2C_Mode_I2C;
 2258              		.loc 1 1056 0
 2259 001e 4FF00003 		mov	r3, #0
 2260 0022 BB80     		strh	r3, [r7, #4]	@ movhi
1057:../STM32F4-Discovery/stm32f4_discovery_audio_codec.c ****   I2C_InitStructure.I2C_DutyCycle = I2C_DutyCycle_2;
 2261              		.loc 1 1057 0
 2262 0024 4BF6FF73 		movw	r3, #49151
 2263 0028 FB80     		strh	r3, [r7, #6]	@ movhi
1058:../STM32F4-Discovery/stm32f4_discovery_audio_codec.c ****   I2C_InitStructure.I2C_OwnAddress1 = 0x33;
 2264              		.loc 1 1058 0
 2265 002a 4FF03303 		mov	r3, #51
 2266 002e 3B81     		strh	r3, [r7, #8]	@ movhi
1059:../STM32F4-Discovery/stm32f4_discovery_audio_codec.c ****   I2C_InitStructure.I2C_Ack = I2C_Ack_Enable;
 2267              		.loc 1 1059 0
 2268 0030 4FF48063 		mov	r3, #1024
 2269 0034 7B81     		strh	r3, [r7, #10]	@ movhi
1060:../STM32F4-Discovery/stm32f4_discovery_audio_codec.c ****   I2C_InitStructure.I2C_AcknowledgedAddress = I2C_AcknowledgedAddress_7bit;
 2270              		.loc 1 1060 0
 2271 0036 4FF48043 		mov	r3, #16384
 2272 003a BB81     		strh	r3, [r7, #12]	@ movhi
1061:../STM32F4-Discovery/stm32f4_discovery_audio_codec.c ****   I2C_InitStructure.I2C_ClockSpeed = I2C_SPEED;
 2273              		.loc 1 1061 0
 2274 003c 48F2A063 		movw	r3, #34464
 2275 0040 C0F20103 		movt	r3, 1
 2276 0044 3B60     		str	r3, [r7, #0]
1062:../STM32F4-Discovery/stm32f4_discovery_audio_codec.c ****   /* Enable the I2C peripheral */
1063:../STM32F4-Discovery/stm32f4_discovery_audio_codec.c ****   I2C_Cmd(CODEC_I2C, ENABLE);  
 2277              		.loc 1 1063 0
 2278 0046 4FF4A840 		mov	r0, #21504
 2279 004a C4F20000 		movt	r0, 16384
 2280 004e 4FF00101 		mov	r1, #1
 2281 0052 FFF7FEFF 		bl	I2C_Cmd
1064:../STM32F4-Discovery/stm32f4_discovery_audio_codec.c ****   I2C_Init(CODEC_I2C, &I2C_InitStructure);
 2282              		.loc 1 1064 0
 2283 0056 3B46     		mov	r3, r7
 2284 0058 4FF4A840 		mov	r0, #21504
 2285 005c C4F20000 		movt	r0, 16384
 2286 0060 1946     		mov	r1, r3
 2287 0062 FFF7FEFF 		bl	I2C_Init
1065:../STM32F4-Discovery/stm32f4_discovery_audio_codec.c **** }
 2288              		.loc 1 1065 0
 2289 0066 07F11007 		add	r7, r7, #16
 2290 006a BD46     		mov	sp, r7
 2291 006c 80BD     		pop	{r7, pc}
 2292              		.cfi_endproc
 2293              	.LFE132:
 2295 006e 00BF     		.section	.text.Codec_CtrlInterface_DeInit,"ax",%progbits
 2296              		.align	2
 2297              		.thumb
 2298              		.thumb_func
 2300              	Codec_CtrlInterface_DeInit:
 2301              	.LFB133:
1066:../STM32F4-Discovery/stm32f4_discovery_audio_codec.c **** 
1067:../STM32F4-Discovery/stm32f4_discovery_audio_codec.c **** /**
1068:../STM32F4-Discovery/stm32f4_discovery_audio_codec.c ****   * @brief  Restore the Audio Codec control interface to its default state.
1069:../STM32F4-Discovery/stm32f4_discovery_audio_codec.c ****   *         This function doesn't de-initialize the I2C because the I2C peripheral
1070:../STM32F4-Discovery/stm32f4_discovery_audio_codec.c ****   *         may be used by other modules.
1071:../STM32F4-Discovery/stm32f4_discovery_audio_codec.c ****   * @param  None
1072:../STM32F4-Discovery/stm32f4_discovery_audio_codec.c ****   * @retval None
1073:../STM32F4-Discovery/stm32f4_discovery_audio_codec.c ****   */
1074:../STM32F4-Discovery/stm32f4_discovery_audio_codec.c **** static void Codec_CtrlInterface_DeInit(void)
1075:../STM32F4-Discovery/stm32f4_discovery_audio_codec.c **** {
 2302              		.loc 1 1075 0
 2303              		.cfi_startproc
 2304              		@ args = 0, pretend = 0, frame = 0
 2305              		@ frame_needed = 1, uses_anonymous_args = 0
 2306              		@ link register save eliminated.
 2307 0000 80B4     		push	{r7}
 2308              	.LCFI62:
 2309              		.cfi_def_cfa_offset 4
 2310              		.cfi_offset 7, -4
 2311 0002 00AF     		add	r7, sp, #0
 2312              	.LCFI63:
 2313              		.cfi_def_cfa_register 7
1076:../STM32F4-Discovery/stm32f4_discovery_audio_codec.c ****   /* Disable the I2C peripheral */ /* This step is not done here because 
1077:../STM32F4-Discovery/stm32f4_discovery_audio_codec.c ****      the I2C interface can be used by other modules */
1078:../STM32F4-Discovery/stm32f4_discovery_audio_codec.c ****   /* I2C_DeInit(CODEC_I2C); */
1079:../STM32F4-Discovery/stm32f4_discovery_audio_codec.c **** }
 2314              		.loc 1 1079 0
 2315 0004 BD46     		mov	sp, r7
 2316 0006 80BC     		pop	{r7}
 2317 0008 7047     		bx	lr
 2318              		.cfi_endproc
 2319              	.LFE133:
 2321 000a 00BF     		.section	.text.Codec_AudioInterface_Init,"ax",%progbits
 2322              		.align	2
 2323              		.thumb
 2324              		.thumb_func
 2326              	Codec_AudioInterface_Init:
 2327              	.LFB134:
1080:../STM32F4-Discovery/stm32f4_discovery_audio_codec.c **** 
1081:../STM32F4-Discovery/stm32f4_discovery_audio_codec.c **** /**
1082:../STM32F4-Discovery/stm32f4_discovery_audio_codec.c ****   * @brief  Initializes the Audio Codec audio interface (I2S)
1083:../STM32F4-Discovery/stm32f4_discovery_audio_codec.c ****   * @note   This function assumes that the I2S input clock (through PLL_R in 
1084:../STM32F4-Discovery/stm32f4_discovery_audio_codec.c ****   *         Devices RevA/Z and through dedicated PLLI2S_R in Devices RevB/Y)
1085:../STM32F4-Discovery/stm32f4_discovery_audio_codec.c ****   *         is already configured and ready to be used.    
1086:../STM32F4-Discovery/stm32f4_discovery_audio_codec.c ****   * @param  AudioFreq: Audio frequency to be configured for the I2S peripheral. 
1087:../STM32F4-Discovery/stm32f4_discovery_audio_codec.c ****   * @retval None
1088:../STM32F4-Discovery/stm32f4_discovery_audio_codec.c ****   */
1089:../STM32F4-Discovery/stm32f4_discovery_audio_codec.c **** static void Codec_AudioInterface_Init(uint32_t AudioFreq)
1090:../STM32F4-Discovery/stm32f4_discovery_audio_codec.c **** {
 2328              		.loc 1 1090 0
 2329              		.cfi_startproc
 2330              		@ args = 0, pretend = 0, frame = 40
 2331              		@ frame_needed = 1, uses_anonymous_args = 0
 2332 0000 80B5     		push	{r7, lr}
 2333              	.LCFI64:
 2334              		.cfi_def_cfa_offset 8
 2335              		.cfi_offset 14, -4
 2336              		.cfi_offset 7, -8
 2337 0002 8AB0     		sub	sp, sp, #40
 2338              	.LCFI65:
 2339              		.cfi_def_cfa_offset 48
 2340 0004 00AF     		add	r7, sp, #0
 2341              	.LCFI66:
 2342              		.cfi_def_cfa_register 7
 2343 0006 7860     		str	r0, [r7, #4]
1091:../STM32F4-Discovery/stm32f4_discovery_audio_codec.c ****   I2S_InitTypeDef I2S_InitStructure;
1092:../STM32F4-Discovery/stm32f4_discovery_audio_codec.c ****   DAC_InitTypeDef  DAC_InitStructure;
1093:../STM32F4-Discovery/stm32f4_discovery_audio_codec.c **** 
1094:../STM32F4-Discovery/stm32f4_discovery_audio_codec.c ****   /* Enable the CODEC_I2S peripheral clock */
1095:../STM32F4-Discovery/stm32f4_discovery_audio_codec.c ****   RCC_APB1PeriphClockCmd(CODEC_I2S_CLK, ENABLE);
 2344              		.loc 1 1095 0
 2345 0008 4FF40040 		mov	r0, #32768
 2346 000c 4FF00101 		mov	r1, #1
 2347 0010 FFF7FEFF 		bl	RCC_APB1PeriphClockCmd
1096:../STM32F4-Discovery/stm32f4_discovery_audio_codec.c ****   
1097:../STM32F4-Discovery/stm32f4_discovery_audio_codec.c ****   /* CODEC_I2S peripheral configuration */
1098:../STM32F4-Discovery/stm32f4_discovery_audio_codec.c ****   SPI_I2S_DeInit(CODEC_I2S);
 2348              		.loc 1 1098 0
 2349 0014 4FF47050 		mov	r0, #15360
 2350 0018 C4F20000 		movt	r0, 16384
 2351 001c FFF7FEFF 		bl	SPI_I2S_DeInit
1099:../STM32F4-Discovery/stm32f4_discovery_audio_codec.c ****   I2S_InitStructure.I2S_AudioFreq = AudioFreq;
 2352              		.loc 1 1099 0
 2353 0020 7B68     		ldr	r3, [r7, #4]
 2354 0022 3B62     		str	r3, [r7, #32]
1100:../STM32F4-Discovery/stm32f4_discovery_audio_codec.c ****   I2S_InitStructure.I2S_Standard = I2S_STANDARD;
 2355              		.loc 1 1100 0
 2356 0024 4FF00003 		mov	r3, #0
 2357 0028 7B83     		strh	r3, [r7, #26]	@ movhi
1101:../STM32F4-Discovery/stm32f4_discovery_audio_codec.c ****   I2S_InitStructure.I2S_DataFormat = I2S_DataFormat_16b;
 2358              		.loc 1 1101 0
 2359 002a 4FF00003 		mov	r3, #0
 2360 002e BB83     		strh	r3, [r7, #28]	@ movhi
1102:../STM32F4-Discovery/stm32f4_discovery_audio_codec.c ****   I2S_InitStructure.I2S_CPOL = I2S_CPOL_Low;
 2361              		.loc 1 1102 0
 2362 0030 4FF00003 		mov	r3, #0
 2363 0034 BB84     		strh	r3, [r7, #36]	@ movhi
1103:../STM32F4-Discovery/stm32f4_discovery_audio_codec.c **** #ifdef DAC_USE_I2S_DMA
1104:../STM32F4-Discovery/stm32f4_discovery_audio_codec.c ****   if (CurrAudioInterface == AUDIO_INTERFACE_DAC)
1105:../STM32F4-Discovery/stm32f4_discovery_audio_codec.c ****   {  
1106:../STM32F4-Discovery/stm32f4_discovery_audio_codec.c ****     I2S_InitStructure.I2S_Mode = I2S_Mode_MasterRx;
1107:../STM32F4-Discovery/stm32f4_discovery_audio_codec.c ****   }
1108:../STM32F4-Discovery/stm32f4_discovery_audio_codec.c ****   else
1109:../STM32F4-Discovery/stm32f4_discovery_audio_codec.c ****   {
1110:../STM32F4-Discovery/stm32f4_discovery_audio_codec.c **** #else
1111:../STM32F4-Discovery/stm32f4_discovery_audio_codec.c ****    I2S_InitStructure.I2S_Mode = I2S_Mode_MasterTx;
 2364              		.loc 1 1111 0
 2365 0036 4FF40073 		mov	r3, #512
 2366 003a 3B83     		strh	r3, [r7, #24]	@ movhi
1112:../STM32F4-Discovery/stm32f4_discovery_audio_codec.c **** #endif
1113:../STM32F4-Discovery/stm32f4_discovery_audio_codec.c **** #ifdef DAC_USE_I2S_DMA
1114:../STM32F4-Discovery/stm32f4_discovery_audio_codec.c ****   }
1115:../STM32F4-Discovery/stm32f4_discovery_audio_codec.c **** #endif /* DAC_USE_I2S_DMA */
1116:../STM32F4-Discovery/stm32f4_discovery_audio_codec.c **** #ifdef CODEC_MCLK_ENABLED
1117:../STM32F4-Discovery/stm32f4_discovery_audio_codec.c ****   I2S_InitStructure.I2S_MCLKOutput = I2S_MCLKOutput_Enable;
 2367              		.loc 1 1117 0
 2368 003c 4FF40073 		mov	r3, #512
 2369 0040 FB83     		strh	r3, [r7, #30]	@ movhi
1118:../STM32F4-Discovery/stm32f4_discovery_audio_codec.c **** #elif defined(CODEC_MCLK_DISABLED)
1119:../STM32F4-Discovery/stm32f4_discovery_audio_codec.c ****   I2S_InitStructure.I2S_MCLKOutput = I2S_MCLKOutput_Disable;
1120:../STM32F4-Discovery/stm32f4_discovery_audio_codec.c **** #else
1121:../STM32F4-Discovery/stm32f4_discovery_audio_codec.c **** #error "No selection for the MCLK output has been defined !"
1122:../STM32F4-Discovery/stm32f4_discovery_audio_codec.c **** #endif /* CODEC_MCLK_ENABLED */
1123:../STM32F4-Discovery/stm32f4_discovery_audio_codec.c ****   
1124:../STM32F4-Discovery/stm32f4_discovery_audio_codec.c ****   /* Initialize the I2S peripheral with the structure above */
1125:../STM32F4-Discovery/stm32f4_discovery_audio_codec.c ****   I2S_Init(CODEC_I2S, &I2S_InitStructure);
 2370              		.loc 1 1125 0
 2371 0042 07F11803 		add	r3, r7, #24
 2372 0046 4FF47050 		mov	r0, #15360
 2373 004a C4F20000 		movt	r0, 16384
 2374 004e 1946     		mov	r1, r3
 2375 0050 FFF7FEFF 		bl	I2S_Init
1126:../STM32F4-Discovery/stm32f4_discovery_audio_codec.c **** 
1127:../STM32F4-Discovery/stm32f4_discovery_audio_codec.c **** 
1128:../STM32F4-Discovery/stm32f4_discovery_audio_codec.c ****   /* Configure the DAC interface */
1129:../STM32F4-Discovery/stm32f4_discovery_audio_codec.c ****   if (CurrAudioInterface == AUDIO_INTERFACE_DAC)
 2376              		.loc 1 1129 0
 2377 0054 40F20003 		movw	r3, #:lower16:CurrAudioInterface
 2378 0058 C0F20003 		movt	r3, #:upper16:CurrAudioInterface
 2379 005c 1B68     		ldr	r3, [r3, #0]
 2380 005e 022B     		cmp	r3, #2
 2381 0060 1BD1     		bne	.L82
1130:../STM32F4-Discovery/stm32f4_discovery_audio_codec.c ****   {    
1131:../STM32F4-Discovery/stm32f4_discovery_audio_codec.c ****     /* DAC Periph clock enable */
1132:../STM32F4-Discovery/stm32f4_discovery_audio_codec.c ****     RCC_APB1PeriphClockCmd(RCC_APB1Periph_DAC, ENABLE);
 2382              		.loc 1 1132 0
 2383 0062 4FF00050 		mov	r0, #536870912
 2384 0066 4FF00101 		mov	r1, #1
 2385 006a FFF7FEFF 		bl	RCC_APB1PeriphClockCmd
1133:../STM32F4-Discovery/stm32f4_discovery_audio_codec.c ****     
1134:../STM32F4-Discovery/stm32f4_discovery_audio_codec.c ****     /* DAC channel1 Configuration */
1135:../STM32F4-Discovery/stm32f4_discovery_audio_codec.c ****     DAC_InitStructure.DAC_Trigger = DAC_Trigger_None;
 2386              		.loc 1 1135 0
 2387 006e 4FF00003 		mov	r3, #0
 2388 0072 BB60     		str	r3, [r7, #8]
1136:../STM32F4-Discovery/stm32f4_discovery_audio_codec.c ****     DAC_InitStructure.DAC_WaveGeneration = DAC_WaveGeneration_None;
 2389              		.loc 1 1136 0
 2390 0074 4FF00003 		mov	r3, #0
 2391 0078 FB60     		str	r3, [r7, #12]
1137:../STM32F4-Discovery/stm32f4_discovery_audio_codec.c ****     DAC_InitStructure.DAC_OutputBuffer = DAC_OutputBuffer_Enable;
 2392              		.loc 1 1137 0
 2393 007a 4FF00003 		mov	r3, #0
 2394 007e 7B61     		str	r3, [r7, #20]
1138:../STM32F4-Discovery/stm32f4_discovery_audio_codec.c ****     DAC_Init(AUDIO_DAC_CHANNEL, &DAC_InitStructure);
 2395              		.loc 1 1138 0
 2396 0080 07F10803 		add	r3, r7, #8
 2397 0084 4FF00000 		mov	r0, #0
 2398 0088 1946     		mov	r1, r3
 2399 008a FFF7FEFF 		bl	DAC_Init
1139:../STM32F4-Discovery/stm32f4_discovery_audio_codec.c ****     
1140:../STM32F4-Discovery/stm32f4_discovery_audio_codec.c ****     /* Enable DAC Channel1 */
1141:../STM32F4-Discovery/stm32f4_discovery_audio_codec.c ****     DAC_Cmd(AUDIO_DAC_CHANNEL, ENABLE);  
 2400              		.loc 1 1141 0
 2401 008e 4FF00000 		mov	r0, #0
 2402 0092 4FF00101 		mov	r1, #1
 2403 0096 FFF7FEFF 		bl	DAC_Cmd
 2404              	.L82:
1142:../STM32F4-Discovery/stm32f4_discovery_audio_codec.c ****   }
1143:../STM32F4-Discovery/stm32f4_discovery_audio_codec.c ****   
1144:../STM32F4-Discovery/stm32f4_discovery_audio_codec.c ****   /* The I2S peripheral will be enabled only in the EVAL_AUDIO_Play() function 
1145:../STM32F4-Discovery/stm32f4_discovery_audio_codec.c ****        or by user functions if DMA mode not enabled */  
1146:../STM32F4-Discovery/stm32f4_discovery_audio_codec.c **** }
 2405              		.loc 1 1146 0
 2406 009a 07F12807 		add	r7, r7, #40
 2407 009e BD46     		mov	sp, r7
 2408 00a0 80BD     		pop	{r7, pc}
 2409              		.cfi_endproc
 2410              	.LFE134:
 2412 00a2 00BF     		.section	.text.Codec_AudioInterface_DeInit,"ax",%progbits
 2413              		.align	2
 2414              		.thumb
 2415              		.thumb_func
 2417              	Codec_AudioInterface_DeInit:
 2418              	.LFB135:
1147:../STM32F4-Discovery/stm32f4_discovery_audio_codec.c **** 
1148:../STM32F4-Discovery/stm32f4_discovery_audio_codec.c **** /**
1149:../STM32F4-Discovery/stm32f4_discovery_audio_codec.c ****   * @brief  Restores the Audio Codec audio interface to its default state.
1150:../STM32F4-Discovery/stm32f4_discovery_audio_codec.c ****   * @param  None
1151:../STM32F4-Discovery/stm32f4_discovery_audio_codec.c ****   * @retval None
1152:../STM32F4-Discovery/stm32f4_discovery_audio_codec.c ****   */
1153:../STM32F4-Discovery/stm32f4_discovery_audio_codec.c **** static void Codec_AudioInterface_DeInit(void)
1154:../STM32F4-Discovery/stm32f4_discovery_audio_codec.c **** {
 2419              		.loc 1 1154 0
 2420              		.cfi_startproc
 2421              		@ args = 0, pretend = 0, frame = 0
 2422              		@ frame_needed = 1, uses_anonymous_args = 0
 2423 0000 80B5     		push	{r7, lr}
 2424              	.LCFI67:
 2425              		.cfi_def_cfa_offset 8
 2426              		.cfi_offset 14, -4
 2427              		.cfi_offset 7, -8
 2428 0002 00AF     		add	r7, sp, #0
 2429              	.LCFI68:
 2430              		.cfi_def_cfa_register 7
1155:../STM32F4-Discovery/stm32f4_discovery_audio_codec.c ****   /* Disable the CODEC_I2S peripheral (in case it hasn't already been disabled) */
1156:../STM32F4-Discovery/stm32f4_discovery_audio_codec.c ****   I2S_Cmd(CODEC_I2S, DISABLE);
 2431              		.loc 1 1156 0
 2432 0004 4FF47050 		mov	r0, #15360
 2433 0008 C4F20000 		movt	r0, 16384
 2434 000c 4FF00001 		mov	r1, #0
 2435 0010 FFF7FEFF 		bl	I2S_Cmd
1157:../STM32F4-Discovery/stm32f4_discovery_audio_codec.c ****   
1158:../STM32F4-Discovery/stm32f4_discovery_audio_codec.c ****   /* Deinitialize the CODEC_I2S peripheral */
1159:../STM32F4-Discovery/stm32f4_discovery_audio_codec.c ****   SPI_I2S_DeInit(CODEC_I2S);
 2436              		.loc 1 1159 0
 2437 0014 4FF47050 		mov	r0, #15360
 2438 0018 C4F20000 		movt	r0, 16384
 2439 001c FFF7FEFF 		bl	SPI_I2S_DeInit
1160:../STM32F4-Discovery/stm32f4_discovery_audio_codec.c ****   
1161:../STM32F4-Discovery/stm32f4_discovery_audio_codec.c ****   /* Disable the CODEC_I2S peripheral clock */
1162:../STM32F4-Discovery/stm32f4_discovery_audio_codec.c ****   RCC_APB1PeriphClockCmd(CODEC_I2S_CLK, DISABLE); 
 2440              		.loc 1 1162 0
 2441 0020 4FF40040 		mov	r0, #32768
 2442 0024 4FF00001 		mov	r1, #0
 2443 0028 FFF7FEFF 		bl	RCC_APB1PeriphClockCmd
1163:../STM32F4-Discovery/stm32f4_discovery_audio_codec.c **** }
 2444              		.loc 1 1163 0
 2445 002c 80BD     		pop	{r7, pc}
 2446              		.cfi_endproc
 2447              	.LFE135:
 2449 002e 00BF     		.section	.text.Codec_GPIO_Init,"ax",%progbits
 2450              		.align	2
 2451              		.thumb
 2452              		.thumb_func
 2454              	Codec_GPIO_Init:
 2455              	.LFB136:
1164:../STM32F4-Discovery/stm32f4_discovery_audio_codec.c **** 
1165:../STM32F4-Discovery/stm32f4_discovery_audio_codec.c **** /**
1166:../STM32F4-Discovery/stm32f4_discovery_audio_codec.c ****   * @brief Initializes IOs used by the Audio Codec (on the control and audio 
1167:../STM32F4-Discovery/stm32f4_discovery_audio_codec.c ****   *        interfaces).
1168:../STM32F4-Discovery/stm32f4_discovery_audio_codec.c ****   * @param  None
1169:../STM32F4-Discovery/stm32f4_discovery_audio_codec.c ****   * @retval None
1170:../STM32F4-Discovery/stm32f4_discovery_audio_codec.c ****   */
1171:../STM32F4-Discovery/stm32f4_discovery_audio_codec.c **** static void Codec_GPIO_Init(void)
1172:../STM32F4-Discovery/stm32f4_discovery_audio_codec.c **** {
 2456              		.loc 1 1172 0
 2457              		.cfi_startproc
 2458              		@ args = 0, pretend = 0, frame = 8
 2459              		@ frame_needed = 1, uses_anonymous_args = 0
 2460 0000 80B5     		push	{r7, lr}
 2461              	.LCFI69:
 2462              		.cfi_def_cfa_offset 8
 2463              		.cfi_offset 14, -4
 2464              		.cfi_offset 7, -8
 2465 0002 82B0     		sub	sp, sp, #8
 2466              	.LCFI70:
 2467              		.cfi_def_cfa_offset 16
 2468 0004 00AF     		add	r7, sp, #0
 2469              	.LCFI71:
 2470              		.cfi_def_cfa_register 7
1173:../STM32F4-Discovery/stm32f4_discovery_audio_codec.c ****   GPIO_InitTypeDef GPIO_InitStructure;
1174:../STM32F4-Discovery/stm32f4_discovery_audio_codec.c ****   
1175:../STM32F4-Discovery/stm32f4_discovery_audio_codec.c ****   /* Enable Reset GPIO Clock */
1176:../STM32F4-Discovery/stm32f4_discovery_audio_codec.c ****   RCC_AHB1PeriphClockCmd(AUDIO_RESET_GPIO_CLK,ENABLE);
 2471              		.loc 1 1176 0
 2472 0006 4FF00800 		mov	r0, #8
 2473 000a 4FF00101 		mov	r1, #1
 2474 000e FFF7FEFF 		bl	RCC_AHB1PeriphClockCmd
1177:../STM32F4-Discovery/stm32f4_discovery_audio_codec.c ****   
1178:../STM32F4-Discovery/stm32f4_discovery_audio_codec.c ****   /* Audio reset pin configuration -------------------------------------------------*/
1179:../STM32F4-Discovery/stm32f4_discovery_audio_codec.c ****   GPIO_InitStructure.GPIO_Pin = AUDIO_RESET_PIN; 
 2475              		.loc 1 1179 0
 2476 0012 4FF01003 		mov	r3, #16
 2477 0016 3B60     		str	r3, [r7, #0]
1180:../STM32F4-Discovery/stm32f4_discovery_audio_codec.c ****   GPIO_InitStructure.GPIO_Mode = GPIO_Mode_OUT;
 2478              		.loc 1 1180 0
 2479 0018 4FF00103 		mov	r3, #1
 2480 001c 3B71     		strb	r3, [r7, #4]
1181:../STM32F4-Discovery/stm32f4_discovery_audio_codec.c ****   GPIO_InitStructure.GPIO_Speed = GPIO_Speed_50MHz;
 2481              		.loc 1 1181 0
 2482 001e 4FF00203 		mov	r3, #2
 2483 0022 7B71     		strb	r3, [r7, #5]
1182:../STM32F4-Discovery/stm32f4_discovery_audio_codec.c ****   GPIO_InitStructure.GPIO_OType = GPIO_OType_PP;
 2484              		.loc 1 1182 0
 2485 0024 4FF00003 		mov	r3, #0
 2486 0028 BB71     		strb	r3, [r7, #6]
1183:../STM32F4-Discovery/stm32f4_discovery_audio_codec.c ****   GPIO_InitStructure.GPIO_PuPd  = GPIO_PuPd_NOPULL;
 2487              		.loc 1 1183 0
 2488 002a 4FF00003 		mov	r3, #0
 2489 002e FB71     		strb	r3, [r7, #7]
1184:../STM32F4-Discovery/stm32f4_discovery_audio_codec.c ****   GPIO_Init(AUDIO_RESET_GPIO, &GPIO_InitStructure);    
 2490              		.loc 1 1184 0
 2491 0030 3B46     		mov	r3, r7
 2492 0032 4FF44060 		mov	r0, #3072
 2493 0036 C4F20200 		movt	r0, 16386
 2494 003a 1946     		mov	r1, r3
 2495 003c FFF7FEFF 		bl	GPIO_Init
1185:../STM32F4-Discovery/stm32f4_discovery_audio_codec.c ****   
1186:../STM32F4-Discovery/stm32f4_discovery_audio_codec.c ****   /* Enable I2S and I2C GPIO clocks */
1187:../STM32F4-Discovery/stm32f4_discovery_audio_codec.c ****   RCC_AHB1PeriphClockCmd(CODEC_I2C_GPIO_CLOCK | CODEC_I2S_GPIO_CLOCK, ENABLE);
 2496              		.loc 1 1187 0
 2497 0040 4FF00700 		mov	r0, #7
 2498 0044 4FF00101 		mov	r1, #1
 2499 0048 FFF7FEFF 		bl	RCC_AHB1PeriphClockCmd
1188:../STM32F4-Discovery/stm32f4_discovery_audio_codec.c **** 
1189:../STM32F4-Discovery/stm32f4_discovery_audio_codec.c ****   /* CODEC_I2C SCL and SDA pins configuration -------------------------------------*/
1190:../STM32F4-Discovery/stm32f4_discovery_audio_codec.c ****   GPIO_InitStructure.GPIO_Pin = CODEC_I2C_SCL_PIN | CODEC_I2C_SDA_PIN; 
 2500              		.loc 1 1190 0
 2501 004c 4FF41073 		mov	r3, #576
 2502 0050 3B60     		str	r3, [r7, #0]
1191:../STM32F4-Discovery/stm32f4_discovery_audio_codec.c ****   GPIO_InitStructure.GPIO_Mode = GPIO_Mode_AF;
 2503              		.loc 1 1191 0
 2504 0052 4FF00203 		mov	r3, #2
 2505 0056 3B71     		strb	r3, [r7, #4]
1192:../STM32F4-Discovery/stm32f4_discovery_audio_codec.c ****   GPIO_InitStructure.GPIO_Speed = GPIO_Speed_50MHz;
 2506              		.loc 1 1192 0
 2507 0058 4FF00203 		mov	r3, #2
 2508 005c 7B71     		strb	r3, [r7, #5]
1193:../STM32F4-Discovery/stm32f4_discovery_audio_codec.c ****   GPIO_InitStructure.GPIO_OType = GPIO_OType_OD;
 2509              		.loc 1 1193 0
 2510 005e 4FF00103 		mov	r3, #1
 2511 0062 BB71     		strb	r3, [r7, #6]
1194:../STM32F4-Discovery/stm32f4_discovery_audio_codec.c ****   GPIO_InitStructure.GPIO_PuPd  = GPIO_PuPd_NOPULL;
 2512              		.loc 1 1194 0
 2513 0064 4FF00003 		mov	r3, #0
 2514 0068 FB71     		strb	r3, [r7, #7]
1195:../STM32F4-Discovery/stm32f4_discovery_audio_codec.c ****   GPIO_Init(CODEC_I2C_GPIO, &GPIO_InitStructure);     
 2515              		.loc 1 1195 0
 2516 006a 3B46     		mov	r3, r7
 2517 006c 4FF48060 		mov	r0, #1024
 2518 0070 C4F20200 		movt	r0, 16386
 2519 0074 1946     		mov	r1, r3
 2520 0076 FFF7FEFF 		bl	GPIO_Init
1196:../STM32F4-Discovery/stm32f4_discovery_audio_codec.c ****   /* Connect pins to I2C peripheral */
1197:../STM32F4-Discovery/stm32f4_discovery_audio_codec.c ****   GPIO_PinAFConfig(CODEC_I2C_GPIO, CODEC_I2S_SCL_PINSRC, CODEC_I2C_GPIO_AF);  
 2521              		.loc 1 1197 0
 2522 007a 4FF48060 		mov	r0, #1024
 2523 007e C4F20200 		movt	r0, 16386
 2524 0082 4FF00601 		mov	r1, #6
 2525 0086 4FF00402 		mov	r2, #4
 2526 008a FFF7FEFF 		bl	GPIO_PinAFConfig
1198:../STM32F4-Discovery/stm32f4_discovery_audio_codec.c ****   GPIO_PinAFConfig(CODEC_I2C_GPIO, CODEC_I2S_SDA_PINSRC, CODEC_I2C_GPIO_AF);  
 2527              		.loc 1 1198 0
 2528 008e 4FF48060 		mov	r0, #1024
 2529 0092 C4F20200 		movt	r0, 16386
 2530 0096 4FF00901 		mov	r1, #9
 2531 009a 4FF00402 		mov	r2, #4
 2532 009e FFF7FEFF 		bl	GPIO_PinAFConfig
1199:../STM32F4-Discovery/stm32f4_discovery_audio_codec.c **** 
1200:../STM32F4-Discovery/stm32f4_discovery_audio_codec.c ****   /* CODEC_I2S pins configuration: WS, SCK and SD pins -----------------------------*/
1201:../STM32F4-Discovery/stm32f4_discovery_audio_codec.c ****   GPIO_InitStructure.GPIO_Pin = CODEC_I2S_SCK_PIN | CODEC_I2S_SD_PIN; 
 2533              		.loc 1 1201 0
 2534 00a2 4FF4A053 		mov	r3, #5120
 2535 00a6 3B60     		str	r3, [r7, #0]
1202:../STM32F4-Discovery/stm32f4_discovery_audio_codec.c ****   GPIO_InitStructure.GPIO_Mode = GPIO_Mode_AF;
 2536              		.loc 1 1202 0
 2537 00a8 4FF00203 		mov	r3, #2
 2538 00ac 3B71     		strb	r3, [r7, #4]
1203:../STM32F4-Discovery/stm32f4_discovery_audio_codec.c ****   GPIO_InitStructure.GPIO_Speed = GPIO_Speed_50MHz;
 2539              		.loc 1 1203 0
 2540 00ae 4FF00203 		mov	r3, #2
 2541 00b2 7B71     		strb	r3, [r7, #5]
1204:../STM32F4-Discovery/stm32f4_discovery_audio_codec.c ****   GPIO_InitStructure.GPIO_OType = GPIO_OType_PP;
 2542              		.loc 1 1204 0
 2543 00b4 4FF00003 		mov	r3, #0
 2544 00b8 BB71     		strb	r3, [r7, #6]
1205:../STM32F4-Discovery/stm32f4_discovery_audio_codec.c ****   GPIO_InitStructure.GPIO_PuPd = GPIO_PuPd_NOPULL;
 2545              		.loc 1 1205 0
 2546 00ba 4FF00003 		mov	r3, #0
 2547 00be FB71     		strb	r3, [r7, #7]
1206:../STM32F4-Discovery/stm32f4_discovery_audio_codec.c ****   GPIO_Init(CODEC_I2S_GPIO, &GPIO_InitStructure);
 2548              		.loc 1 1206 0
 2549 00c0 3B46     		mov	r3, r7
 2550 00c2 4FF40060 		mov	r0, #2048
 2551 00c6 C4F20200 		movt	r0, 16386
 2552 00ca 1946     		mov	r1, r3
 2553 00cc FFF7FEFF 		bl	GPIO_Init
1207:../STM32F4-Discovery/stm32f4_discovery_audio_codec.c ****   
1208:../STM32F4-Discovery/stm32f4_discovery_audio_codec.c ****   /* Connect pins to I2S peripheral  */
1209:../STM32F4-Discovery/stm32f4_discovery_audio_codec.c ****   GPIO_PinAFConfig(CODEC_I2S_WS_GPIO, CODEC_I2S_WS_PINSRC, CODEC_I2S_GPIO_AF);  
 2554              		.loc 1 1209 0
 2555 00d0 4FF00000 		mov	r0, #0
 2556 00d4 C4F20200 		movt	r0, 16386
 2557 00d8 4FF00401 		mov	r1, #4
 2558 00dc 4FF00602 		mov	r2, #6
 2559 00e0 FFF7FEFF 		bl	GPIO_PinAFConfig
1210:../STM32F4-Discovery/stm32f4_discovery_audio_codec.c ****   GPIO_PinAFConfig(CODEC_I2S_GPIO, CODEC_I2S_SCK_PINSRC, CODEC_I2S_GPIO_AF);
 2560              		.loc 1 1210 0
 2561 00e4 4FF40060 		mov	r0, #2048
 2562 00e8 C4F20200 		movt	r0, 16386
 2563 00ec 4FF00A01 		mov	r1, #10
 2564 00f0 4FF00602 		mov	r2, #6
 2565 00f4 FFF7FEFF 		bl	GPIO_PinAFConfig
1211:../STM32F4-Discovery/stm32f4_discovery_audio_codec.c **** 
1212:../STM32F4-Discovery/stm32f4_discovery_audio_codec.c ****   if (CurrAudioInterface != AUDIO_INTERFACE_DAC) 
 2566              		.loc 1 1212 0
 2567 00f8 40F20003 		movw	r3, #:lower16:CurrAudioInterface
 2568 00fc C0F20003 		movt	r3, #:upper16:CurrAudioInterface
 2569 0100 1B68     		ldr	r3, [r3, #0]
 2570 0102 022B     		cmp	r3, #2
 2571 0104 15D0     		beq	.L86
1213:../STM32F4-Discovery/stm32f4_discovery_audio_codec.c ****   {
1214:../STM32F4-Discovery/stm32f4_discovery_audio_codec.c ****     GPIO_InitStructure.GPIO_Pin = CODEC_I2S_WS_PIN ;
 2572              		.loc 1 1214 0
 2573 0106 4FF01003 		mov	r3, #16
 2574 010a 3B60     		str	r3, [r7, #0]
1215:../STM32F4-Discovery/stm32f4_discovery_audio_codec.c ****     GPIO_Init(CODEC_I2S_WS_GPIO, &GPIO_InitStructure); 
 2575              		.loc 1 1215 0
 2576 010c 3B46     		mov	r3, r7
 2577 010e 4FF00000 		mov	r0, #0
 2578 0112 C4F20200 		movt	r0, 16386
 2579 0116 1946     		mov	r1, r3
 2580 0118 FFF7FEFF 		bl	GPIO_Init
1216:../STM32F4-Discovery/stm32f4_discovery_audio_codec.c ****     GPIO_PinAFConfig(CODEC_I2S_GPIO, CODEC_I2S_SD_PINSRC, CODEC_I2S_GPIO_AF);
 2581              		.loc 1 1216 0
 2582 011c 4FF40060 		mov	r0, #2048
 2583 0120 C4F20200 		movt	r0, 16386
 2584 0124 4FF00C01 		mov	r1, #12
 2585 0128 4FF00602 		mov	r2, #6
 2586 012c FFF7FEFF 		bl	GPIO_PinAFConfig
 2587 0130 16E0     		b	.L87
 2588              	.L86:
1217:../STM32F4-Discovery/stm32f4_discovery_audio_codec.c ****   }
1218:../STM32F4-Discovery/stm32f4_discovery_audio_codec.c ****   else
1219:../STM32F4-Discovery/stm32f4_discovery_audio_codec.c ****   {
1220:../STM32F4-Discovery/stm32f4_discovery_audio_codec.c ****     /* GPIOA clock enable (to be used with DAC) */
1221:../STM32F4-Discovery/stm32f4_discovery_audio_codec.c ****     RCC_AHB1PeriphClockCmd(RCC_AHB1Periph_GPIOA, ENABLE);
 2589              		.loc 1 1221 0
 2590 0132 4FF00100 		mov	r0, #1
 2591 0136 4FF00101 		mov	r1, #1
 2592 013a FFF7FEFF 		bl	RCC_AHB1PeriphClockCmd
1222:../STM32F4-Discovery/stm32f4_discovery_audio_codec.c ****    
1223:../STM32F4-Discovery/stm32f4_discovery_audio_codec.c ****     /* DAC channel 1 & 2 (DAC_OUT1 = PA.4) configuration */
1224:../STM32F4-Discovery/stm32f4_discovery_audio_codec.c ****     GPIO_InitStructure.GPIO_Pin = GPIO_Pin_4;
 2593              		.loc 1 1224 0
 2594 013e 4FF01003 		mov	r3, #16
 2595 0142 3B60     		str	r3, [r7, #0]
1225:../STM32F4-Discovery/stm32f4_discovery_audio_codec.c ****     GPIO_InitStructure.GPIO_Mode = GPIO_Mode_AN;
 2596              		.loc 1 1225 0
 2597 0144 4FF00303 		mov	r3, #3
 2598 0148 3B71     		strb	r3, [r7, #4]
1226:../STM32F4-Discovery/stm32f4_discovery_audio_codec.c ****     GPIO_InitStructure.GPIO_PuPd = GPIO_PuPd_NOPULL;
 2599              		.loc 1 1226 0
 2600 014a 4FF00003 		mov	r3, #0
 2601 014e FB71     		strb	r3, [r7, #7]
1227:../STM32F4-Discovery/stm32f4_discovery_audio_codec.c ****     GPIO_Init(GPIOA, &GPIO_InitStructure);
 2602              		.loc 1 1227 0
 2603 0150 3B46     		mov	r3, r7
 2604 0152 4FF00000 		mov	r0, #0
 2605 0156 C4F20200 		movt	r0, 16386
 2606 015a 1946     		mov	r1, r3
 2607 015c FFF7FEFF 		bl	GPIO_Init
 2608              	.L87:
1228:../STM32F4-Discovery/stm32f4_discovery_audio_codec.c ****   }
1229:../STM32F4-Discovery/stm32f4_discovery_audio_codec.c **** 
1230:../STM32F4-Discovery/stm32f4_discovery_audio_codec.c **** #ifdef CODEC_MCLK_ENABLED
1231:../STM32F4-Discovery/stm32f4_discovery_audio_codec.c ****   /* CODEC_I2S pins configuration: MCK pin */
1232:../STM32F4-Discovery/stm32f4_discovery_audio_codec.c ****   GPIO_InitStructure.GPIO_Pin = CODEC_I2S_MCK_PIN; 
 2609              		.loc 1 1232 0
 2610 0160 4FF08003 		mov	r3, #128
 2611 0164 3B60     		str	r3, [r7, #0]
1233:../STM32F4-Discovery/stm32f4_discovery_audio_codec.c ****   GPIO_InitStructure.GPIO_Mode = GPIO_Mode_AF;
 2612              		.loc 1 1233 0
 2613 0166 4FF00203 		mov	r3, #2
 2614 016a 3B71     		strb	r3, [r7, #4]
1234:../STM32F4-Discovery/stm32f4_discovery_audio_codec.c ****   GPIO_InitStructure.GPIO_Speed = GPIO_Speed_50MHz;
 2615              		.loc 1 1234 0
 2616 016c 4FF00203 		mov	r3, #2
 2617 0170 7B71     		strb	r3, [r7, #5]
1235:../STM32F4-Discovery/stm32f4_discovery_audio_codec.c ****   GPIO_InitStructure.GPIO_OType = GPIO_OType_PP;
 2618              		.loc 1 1235 0
 2619 0172 4FF00003 		mov	r3, #0
 2620 0176 BB71     		strb	r3, [r7, #6]
1236:../STM32F4-Discovery/stm32f4_discovery_audio_codec.c ****   GPIO_InitStructure.GPIO_PuPd = GPIO_PuPd_NOPULL;
 2621              		.loc 1 1236 0
 2622 0178 4FF00003 		mov	r3, #0
 2623 017c FB71     		strb	r3, [r7, #7]
1237:../STM32F4-Discovery/stm32f4_discovery_audio_codec.c ****   GPIO_Init(CODEC_I2S_MCK_GPIO, &GPIO_InitStructure);   
 2624              		.loc 1 1237 0
 2625 017e 3B46     		mov	r3, r7
 2626 0180 4FF40060 		mov	r0, #2048
 2627 0184 C4F20200 		movt	r0, 16386
 2628 0188 1946     		mov	r1, r3
 2629 018a FFF7FEFF 		bl	GPIO_Init
1238:../STM32F4-Discovery/stm32f4_discovery_audio_codec.c ****   /* Connect pins to I2S peripheral  */
1239:../STM32F4-Discovery/stm32f4_discovery_audio_codec.c ****   GPIO_PinAFConfig(CODEC_I2S_MCK_GPIO, CODEC_I2S_MCK_PINSRC, CODEC_I2S_GPIO_AF); 
 2630              		.loc 1 1239 0
 2631 018e 4FF40060 		mov	r0, #2048
 2632 0192 C4F20200 		movt	r0, 16386
 2633 0196 4FF00701 		mov	r1, #7
 2634 019a 4FF00602 		mov	r2, #6
 2635 019e FFF7FEFF 		bl	GPIO_PinAFConfig
1240:../STM32F4-Discovery/stm32f4_discovery_audio_codec.c **** #endif /* CODEC_MCLK_ENABLED */ 
1241:../STM32F4-Discovery/stm32f4_discovery_audio_codec.c **** }
 2636              		.loc 1 1241 0
 2637 01a2 07F10807 		add	r7, r7, #8
 2638 01a6 BD46     		mov	sp, r7
 2639 01a8 80BD     		pop	{r7, pc}
 2640              		.cfi_endproc
 2641              	.LFE136:
 2643 01aa 00BF     		.section	.text.Codec_GPIO_DeInit,"ax",%progbits
 2644              		.align	2
 2645              		.thumb
 2646              		.thumb_func
 2648              	Codec_GPIO_DeInit:
 2649              	.LFB137:
1242:../STM32F4-Discovery/stm32f4_discovery_audio_codec.c **** 
1243:../STM32F4-Discovery/stm32f4_discovery_audio_codec.c **** /**
1244:../STM32F4-Discovery/stm32f4_discovery_audio_codec.c ****   * @brief  Restores the IOs used by the Audio Codec interface to their default state.
1245:../STM32F4-Discovery/stm32f4_discovery_audio_codec.c ****   * @param  None
1246:../STM32F4-Discovery/stm32f4_discovery_audio_codec.c ****   * @retval None
1247:../STM32F4-Discovery/stm32f4_discovery_audio_codec.c ****   */
1248:../STM32F4-Discovery/stm32f4_discovery_audio_codec.c **** static void Codec_GPIO_DeInit(void)
1249:../STM32F4-Discovery/stm32f4_discovery_audio_codec.c **** {
 2650              		.loc 1 1249 0
 2651              		.cfi_startproc
 2652              		@ args = 0, pretend = 0, frame = 8
 2653              		@ frame_needed = 1, uses_anonymous_args = 0
 2654 0000 80B5     		push	{r7, lr}
 2655              	.LCFI72:
 2656              		.cfi_def_cfa_offset 8
 2657              		.cfi_offset 14, -4
 2658              		.cfi_offset 7, -8
 2659 0002 82B0     		sub	sp, sp, #8
 2660              	.LCFI73:
 2661              		.cfi_def_cfa_offset 16
 2662 0004 00AF     		add	r7, sp, #0
 2663              	.LCFI74:
 2664              		.cfi_def_cfa_register 7
1250:../STM32F4-Discovery/stm32f4_discovery_audio_codec.c ****   GPIO_InitTypeDef GPIO_InitStructure;
1251:../STM32F4-Discovery/stm32f4_discovery_audio_codec.c ****   
1252:../STM32F4-Discovery/stm32f4_discovery_audio_codec.c ****   /* Deinitialize all the GPIOs used by the driver */
1253:../STM32F4-Discovery/stm32f4_discovery_audio_codec.c ****   GPIO_InitStructure.GPIO_Pin =  CODEC_I2S_SCK_PIN | CODEC_I2S_SD_PIN;
 2665              		.loc 1 1253 0
 2666 0006 4FF4A053 		mov	r3, #5120
 2667 000a 3B60     		str	r3, [r7, #0]
1254:../STM32F4-Discovery/stm32f4_discovery_audio_codec.c ****   GPIO_InitStructure.GPIO_Mode = GPIO_Mode_IN;
 2668              		.loc 1 1254 0
 2669 000c 4FF00003 		mov	r3, #0
 2670 0010 3B71     		strb	r3, [r7, #4]
1255:../STM32F4-Discovery/stm32f4_discovery_audio_codec.c ****   GPIO_InitStructure.GPIO_Speed = GPIO_Speed_2MHz;
 2671              		.loc 1 1255 0
 2672 0012 4FF00003 		mov	r3, #0
 2673 0016 7B71     		strb	r3, [r7, #5]
1256:../STM32F4-Discovery/stm32f4_discovery_audio_codec.c ****   GPIO_InitStructure.GPIO_OType = GPIO_OType_PP;
 2674              		.loc 1 1256 0
 2675 0018 4FF00003 		mov	r3, #0
 2676 001c BB71     		strb	r3, [r7, #6]
1257:../STM32F4-Discovery/stm32f4_discovery_audio_codec.c ****   GPIO_InitStructure.GPIO_PuPd  = GPIO_PuPd_NOPULL;
 2677              		.loc 1 1257 0
 2678 001e 4FF00003 		mov	r3, #0
 2679 0022 FB71     		strb	r3, [r7, #7]
1258:../STM32F4-Discovery/stm32f4_discovery_audio_codec.c ****   GPIO_Init(CODEC_I2S_GPIO, &GPIO_InitStructure);  
 2680              		.loc 1 1258 0
 2681 0024 3B46     		mov	r3, r7
 2682 0026 4FF40060 		mov	r0, #2048
 2683 002a C4F20200 		movt	r0, 16386
 2684 002e 1946     		mov	r1, r3
 2685 0030 FFF7FEFF 		bl	GPIO_Init
1259:../STM32F4-Discovery/stm32f4_discovery_audio_codec.c ****   
1260:../STM32F4-Discovery/stm32f4_discovery_audio_codec.c ****   GPIO_InitStructure.GPIO_Pin = CODEC_I2S_WS_PIN ;
 2686              		.loc 1 1260 0
 2687 0034 4FF01003 		mov	r3, #16
 2688 0038 3B60     		str	r3, [r7, #0]
1261:../STM32F4-Discovery/stm32f4_discovery_audio_codec.c ****   GPIO_Init(CODEC_I2S_WS_GPIO, &GPIO_InitStructure); 
 2689              		.loc 1 1261 0
 2690 003a 3B46     		mov	r3, r7
 2691 003c 4FF00000 		mov	r0, #0
 2692 0040 C4F20200 		movt	r0, 16386
 2693 0044 1946     		mov	r1, r3
 2694 0046 FFF7FEFF 		bl	GPIO_Init
1262:../STM32F4-Discovery/stm32f4_discovery_audio_codec.c ****      
1263:../STM32F4-Discovery/stm32f4_discovery_audio_codec.c ****   /* Disconnect pins from I2S peripheral  */
1264:../STM32F4-Discovery/stm32f4_discovery_audio_codec.c ****   GPIO_PinAFConfig(CODEC_I2S_WS_GPIO, CODEC_I2S_WS_PINSRC, 0x00);  
 2695              		.loc 1 1264 0
 2696 004a 4FF00000 		mov	r0, #0
 2697 004e C4F20200 		movt	r0, 16386
 2698 0052 4FF00401 		mov	r1, #4
 2699 0056 4FF00002 		mov	r2, #0
 2700 005a FFF7FEFF 		bl	GPIO_PinAFConfig
1265:../STM32F4-Discovery/stm32f4_discovery_audio_codec.c ****   GPIO_PinAFConfig(CODEC_I2S_GPIO, CODEC_I2S_SCK_PINSRC, 0x00);
 2701              		.loc 1 1265 0
 2702 005e 4FF40060 		mov	r0, #2048
 2703 0062 C4F20200 		movt	r0, 16386
 2704 0066 4FF00A01 		mov	r1, #10
 2705 006a 4FF00002 		mov	r2, #0
 2706 006e FFF7FEFF 		bl	GPIO_PinAFConfig
1266:../STM32F4-Discovery/stm32f4_discovery_audio_codec.c ****   GPIO_PinAFConfig(CODEC_I2S_GPIO, CODEC_I2S_SD_PINSRC, 0x00);  
 2707              		.loc 1 1266 0
 2708 0072 4FF40060 		mov	r0, #2048
 2709 0076 C4F20200 		movt	r0, 16386
 2710 007a 4FF00C01 		mov	r1, #12
 2711 007e 4FF00002 		mov	r2, #0
 2712 0082 FFF7FEFF 		bl	GPIO_PinAFConfig
1267:../STM32F4-Discovery/stm32f4_discovery_audio_codec.c ****   
1268:../STM32F4-Discovery/stm32f4_discovery_audio_codec.c **** #ifdef CODEC_MCLK_ENABLED
1269:../STM32F4-Discovery/stm32f4_discovery_audio_codec.c ****   /* CODEC_I2S pins deinitialization: MCK pin */
1270:../STM32F4-Discovery/stm32f4_discovery_audio_codec.c ****   GPIO_InitStructure.GPIO_Pin = CODEC_I2S_MCK_PIN; 
 2713              		.loc 1 1270 0
 2714 0086 4FF08003 		mov	r3, #128
 2715 008a 3B60     		str	r3, [r7, #0]
1271:../STM32F4-Discovery/stm32f4_discovery_audio_codec.c ****   GPIO_Init(CODEC_I2S_MCK_GPIO, &GPIO_InitStructure);   
 2716              		.loc 1 1271 0
 2717 008c 3B46     		mov	r3, r7
 2718 008e 4FF40060 		mov	r0, #2048
 2719 0092 C4F20200 		movt	r0, 16386
 2720 0096 1946     		mov	r1, r3
 2721 0098 FFF7FEFF 		bl	GPIO_Init
1272:../STM32F4-Discovery/stm32f4_discovery_audio_codec.c ****   /* Disconnect pins from I2S peripheral  */
1273:../STM32F4-Discovery/stm32f4_discovery_audio_codec.c ****   GPIO_PinAFConfig(CODEC_I2S_MCK_GPIO, CODEC_I2S_MCK_PINSRC, CODEC_I2S_GPIO_AF); 
 2722              		.loc 1 1273 0
 2723 009c 4FF40060 		mov	r0, #2048
 2724 00a0 C4F20200 		movt	r0, 16386
 2725 00a4 4FF00701 		mov	r1, #7
 2726 00a8 4FF00602 		mov	r2, #6
 2727 00ac FFF7FEFF 		bl	GPIO_PinAFConfig
1274:../STM32F4-Discovery/stm32f4_discovery_audio_codec.c **** #endif /* CODEC_MCLK_ENABLED */    
1275:../STM32F4-Discovery/stm32f4_discovery_audio_codec.c **** }
 2728              		.loc 1 1275 0
 2729 00b0 07F10807 		add	r7, r7, #8
 2730 00b4 BD46     		mov	sp, r7
 2731 00b6 80BD     		pop	{r7, pc}
 2732              		.cfi_endproc
 2733              	.LFE137:
 2735              		.section	.text.Delay,"ax",%progbits
 2736              		.align	2
 2737              		.thumb
 2738              		.thumb_func
 2740              	Delay:
 2741              	.LFB138:
1276:../STM32F4-Discovery/stm32f4_discovery_audio_codec.c **** 
1277:../STM32F4-Discovery/stm32f4_discovery_audio_codec.c **** /**
1278:../STM32F4-Discovery/stm32f4_discovery_audio_codec.c ****   * @brief  Inserts a delay time (not accurate timing).
1279:../STM32F4-Discovery/stm32f4_discovery_audio_codec.c ****   * @param  nCount: specifies the delay time length.
1280:../STM32F4-Discovery/stm32f4_discovery_audio_codec.c ****   * @retval None
1281:../STM32F4-Discovery/stm32f4_discovery_audio_codec.c ****   */
1282:../STM32F4-Discovery/stm32f4_discovery_audio_codec.c **** static void Delay( __IO uint32_t nCount)
1283:../STM32F4-Discovery/stm32f4_discovery_audio_codec.c **** {
 2742              		.loc 1 1283 0
 2743              		.cfi_startproc
 2744              		@ args = 0, pretend = 0, frame = 8
 2745              		@ frame_needed = 1, uses_anonymous_args = 0
 2746              		@ link register save eliminated.
 2747 0000 80B4     		push	{r7}
 2748              	.LCFI75:
 2749              		.cfi_def_cfa_offset 4
 2750              		.cfi_offset 7, -4
 2751 0002 83B0     		sub	sp, sp, #12
 2752              	.LCFI76:
 2753              		.cfi_def_cfa_offset 16
 2754 0004 00AF     		add	r7, sp, #0
 2755              	.LCFI77:
 2756              		.cfi_def_cfa_register 7
 2757 0006 7860     		str	r0, [r7, #4]
1284:../STM32F4-Discovery/stm32f4_discovery_audio_codec.c ****   for (; nCount != 0; nCount--);
 2758              		.loc 1 1284 0
 2759 0008 03E0     		b	.L90
 2760              	.L91:
 2761              		.loc 1 1284 0 is_stmt 0 discriminator 2
 2762 000a 7B68     		ldr	r3, [r7, #4]
 2763 000c 03F1FF33 		add	r3, r3, #-1
 2764 0010 7B60     		str	r3, [r7, #4]
 2765              	.L90:
 2766              		.loc 1 1284 0 discriminator 1
 2767 0012 7B68     		ldr	r3, [r7, #4]
 2768 0014 002B     		cmp	r3, #0
 2769 0016 F8D1     		bne	.L91
1285:../STM32F4-Discovery/stm32f4_discovery_audio_codec.c **** }
 2770              		.loc 1 1285 0 is_stmt 1
 2771 0018 07F10C07 		add	r7, r7, #12
 2772 001c BD46     		mov	sp, r7
 2773 001e 80BC     		pop	{r7}
 2774 0020 7047     		bx	lr
 2775              		.cfi_endproc
 2776              	.LFE138:
 2778 0022 00BF     		.section	.text.Audio_MAL_Init,"ax",%progbits
 2779              		.align	2
 2780              		.thumb
 2781              		.thumb_func
 2783              	Audio_MAL_Init:
 2784              	.LFB139:
1286:../STM32F4-Discovery/stm32f4_discovery_audio_codec.c **** 
1287:../STM32F4-Discovery/stm32f4_discovery_audio_codec.c **** #ifdef USE_DEFAULT_TIMEOUT_CALLBACK
1288:../STM32F4-Discovery/stm32f4_discovery_audio_codec.c **** /**
1289:../STM32F4-Discovery/stm32f4_discovery_audio_codec.c ****   * @brief  Basic management of the timeout situation.
1290:../STM32F4-Discovery/stm32f4_discovery_audio_codec.c ****   * @param  None
1291:../STM32F4-Discovery/stm32f4_discovery_audio_codec.c ****   * @retval None
1292:../STM32F4-Discovery/stm32f4_discovery_audio_codec.c ****   */
1293:../STM32F4-Discovery/stm32f4_discovery_audio_codec.c **** uint32_t Codec_TIMEOUT_UserCallback(void)
1294:../STM32F4-Discovery/stm32f4_discovery_audio_codec.c **** {
1295:../STM32F4-Discovery/stm32f4_discovery_audio_codec.c ****   /* Block communication and all processes */
1296:../STM32F4-Discovery/stm32f4_discovery_audio_codec.c ****   while (1)
1297:../STM32F4-Discovery/stm32f4_discovery_audio_codec.c ****   {   
1298:../STM32F4-Discovery/stm32f4_discovery_audio_codec.c ****   }
1299:../STM32F4-Discovery/stm32f4_discovery_audio_codec.c **** }
1300:../STM32F4-Discovery/stm32f4_discovery_audio_codec.c **** #endif /* USE_DEFAULT_TIMEOUT_CALLBACK */
1301:../STM32F4-Discovery/stm32f4_discovery_audio_codec.c **** /*========================
1302:../STM32F4-Discovery/stm32f4_discovery_audio_codec.c **** 
1303:../STM32F4-Discovery/stm32f4_discovery_audio_codec.c ****                 Audio MAL Interface Control Functions
1304:../STM32F4-Discovery/stm32f4_discovery_audio_codec.c **** 
1305:../STM32F4-Discovery/stm32f4_discovery_audio_codec.c ****                                                 ==============================*/
1306:../STM32F4-Discovery/stm32f4_discovery_audio_codec.c **** 
1307:../STM32F4-Discovery/stm32f4_discovery_audio_codec.c **** /**
1308:../STM32F4-Discovery/stm32f4_discovery_audio_codec.c ****   * @brief  Initializes and prepares the Media to perform audio data transfer 
1309:../STM32F4-Discovery/stm32f4_discovery_audio_codec.c ****   *         from Media to the I2S peripheral.
1310:../STM32F4-Discovery/stm32f4_discovery_audio_codec.c ****   * @param  None
1311:../STM32F4-Discovery/stm32f4_discovery_audio_codec.c ****   * @retval None
1312:../STM32F4-Discovery/stm32f4_discovery_audio_codec.c ****   */
1313:../STM32F4-Discovery/stm32f4_discovery_audio_codec.c **** static void Audio_MAL_Init(void)  
1314:../STM32F4-Discovery/stm32f4_discovery_audio_codec.c **** { 
 2785              		.loc 1 1314 0
 2786              		.cfi_startproc
 2787              		@ args = 0, pretend = 0, frame = 8
 2788              		@ frame_needed = 1, uses_anonymous_args = 0
 2789 0000 80B5     		push	{r7, lr}
 2790              	.LCFI78:
 2791              		.cfi_def_cfa_offset 8
 2792              		.cfi_offset 14, -4
 2793              		.cfi_offset 7, -8
 2794 0002 82B0     		sub	sp, sp, #8
 2795              	.LCFI79:
 2796              		.cfi_def_cfa_offset 16
 2797 0004 00AF     		add	r7, sp, #0
 2798              	.LCFI80:
 2799              		.cfi_def_cfa_register 7
1315:../STM32F4-Discovery/stm32f4_discovery_audio_codec.c ****   
1316:../STM32F4-Discovery/stm32f4_discovery_audio_codec.c **** #ifdef I2S_INTERRUPT  
1317:../STM32F4-Discovery/stm32f4_discovery_audio_codec.c ****   NVIC_InitTypeDef   NVIC_InitStructure;
1318:../STM32F4-Discovery/stm32f4_discovery_audio_codec.c **** 
1319:../STM32F4-Discovery/stm32f4_discovery_audio_codec.c ****   NVIC_InitStructure.NVIC_IRQChannel = SPI3_IRQn;
1320:../STM32F4-Discovery/stm32f4_discovery_audio_codec.c ****   NVIC_InitStructure.NVIC_IRQChannelPreemptionPriority = 0;
1321:../STM32F4-Discovery/stm32f4_discovery_audio_codec.c ****   NVIC_InitStructure.NVIC_IRQChannelSubPriority =0;
1322:../STM32F4-Discovery/stm32f4_discovery_audio_codec.c ****   NVIC_InitStructure.NVIC_IRQChannelCmd = ENABLE;
1323:../STM32F4-Discovery/stm32f4_discovery_audio_codec.c ****   NVIC_Init(&NVIC_InitStructure);
1324:../STM32F4-Discovery/stm32f4_discovery_audio_codec.c ****   
1325:../STM32F4-Discovery/stm32f4_discovery_audio_codec.c ****   SPI_I2S_ITConfig(SPI3, SPI_I2S_IT_TXE, ENABLE);
1326:../STM32F4-Discovery/stm32f4_discovery_audio_codec.c **** 
1327:../STM32F4-Discovery/stm32f4_discovery_audio_codec.c ****   I2S_Cmd(SPI3, ENABLE); 
1328:../STM32F4-Discovery/stm32f4_discovery_audio_codec.c **** #else  
1329:../STM32F4-Discovery/stm32f4_discovery_audio_codec.c **** #if defined(AUDIO_MAL_DMA_IT_TC_EN) || defined(AUDIO_MAL_DMA_IT_HT_EN) || defined(AUDIO_MAL_DMA_IT_
1330:../STM32F4-Discovery/stm32f4_discovery_audio_codec.c ****   NVIC_InitTypeDef NVIC_InitStructure;
1331:../STM32F4-Discovery/stm32f4_discovery_audio_codec.c **** #endif
1332:../STM32F4-Discovery/stm32f4_discovery_audio_codec.c **** 
1333:../STM32F4-Discovery/stm32f4_discovery_audio_codec.c ****   if (CurrAudioInterface == AUDIO_INTERFACE_I2S)
 2800              		.loc 1 1333 0
 2801 0006 40F20003 		movw	r3, #:lower16:CurrAudioInterface
 2802 000a C0F20003 		movt	r3, #:upper16:CurrAudioInterface
 2803 000e 1B68     		ldr	r3, [r3, #0]
 2804 0010 012B     		cmp	r3, #1
 2805 0012 40F0B880 		bne	.L93
1334:../STM32F4-Discovery/stm32f4_discovery_audio_codec.c ****   {
1335:../STM32F4-Discovery/stm32f4_discovery_audio_codec.c ****     /* Enable the DMA clock */
1336:../STM32F4-Discovery/stm32f4_discovery_audio_codec.c ****     RCC_AHB1PeriphClockCmd(AUDIO_MAL_DMA_CLOCK, ENABLE); 
 2806              		.loc 1 1336 0
 2807 0016 40F20003 		movw	r3, #:lower16:AUDIO_MAL_DMA_CLOCK
 2808 001a C0F20003 		movt	r3, #:upper16:AUDIO_MAL_DMA_CLOCK
 2809 001e 1B68     		ldr	r3, [r3, #0]
 2810 0020 1846     		mov	r0, r3
 2811 0022 4FF00101 		mov	r1, #1
 2812 0026 FFF7FEFF 		bl	RCC_AHB1PeriphClockCmd
1337:../STM32F4-Discovery/stm32f4_discovery_audio_codec.c ****     
1338:../STM32F4-Discovery/stm32f4_discovery_audio_codec.c ****     /* Configure the DMA Stream */
1339:../STM32F4-Discovery/stm32f4_discovery_audio_codec.c ****     DMA_Cmd(AUDIO_MAL_DMA_STREAM, DISABLE);
 2813              		.loc 1 1339 0
 2814 002a 40F20003 		movw	r3, #:lower16:AUDIO_MAL_DMA_STREAM
 2815 002e C0F20003 		movt	r3, #:upper16:AUDIO_MAL_DMA_STREAM
 2816 0032 1B68     		ldr	r3, [r3, #0]
 2817 0034 1846     		mov	r0, r3
 2818 0036 4FF00001 		mov	r1, #0
 2819 003a FFF7FEFF 		bl	DMA_Cmd
1340:../STM32F4-Discovery/stm32f4_discovery_audio_codec.c ****     DMA_DeInit(AUDIO_MAL_DMA_STREAM);
 2820              		.loc 1 1340 0
 2821 003e 40F20003 		movw	r3, #:lower16:AUDIO_MAL_DMA_STREAM
 2822 0042 C0F20003 		movt	r3, #:upper16:AUDIO_MAL_DMA_STREAM
 2823 0046 1B68     		ldr	r3, [r3, #0]
 2824 0048 1846     		mov	r0, r3
 2825 004a FFF7FEFF 		bl	DMA_DeInit
1341:../STM32F4-Discovery/stm32f4_discovery_audio_codec.c ****     /* Set the parameters to be configured */
1342:../STM32F4-Discovery/stm32f4_discovery_audio_codec.c ****     DMA_InitStructure.DMA_Channel = AUDIO_MAL_DMA_CHANNEL;  
 2826              		.loc 1 1342 0
 2827 004e 40F20003 		movw	r3, #:lower16:AUDIO_MAL_DMA_CHANNEL
 2828 0052 C0F20003 		movt	r3, #:upper16:AUDIO_MAL_DMA_CHANNEL
 2829 0056 1A68     		ldr	r2, [r3, #0]
 2830 0058 40F20003 		movw	r3, #:lower16:DMA_InitStructure
 2831 005c C0F20003 		movt	r3, #:upper16:DMA_InitStructure
 2832 0060 1A60     		str	r2, [r3, #0]
1343:../STM32F4-Discovery/stm32f4_discovery_audio_codec.c ****     DMA_InitStructure.DMA_PeripheralBaseAddr = AUDIO_MAL_DMA_DREG;
 2833              		.loc 1 1343 0
 2834 0062 40F20003 		movw	r3, #:lower16:AUDIO_MAL_DMA_DREG
 2835 0066 C0F20003 		movt	r3, #:upper16:AUDIO_MAL_DMA_DREG
 2836 006a 1A68     		ldr	r2, [r3, #0]
 2837 006c 40F20003 		movw	r3, #:lower16:DMA_InitStructure
 2838 0070 C0F20003 		movt	r3, #:upper16:DMA_InitStructure
 2839 0074 5A60     		str	r2, [r3, #4]
1344:../STM32F4-Discovery/stm32f4_discovery_audio_codec.c ****     DMA_InitStructure.DMA_Memory0BaseAddr = (uint32_t)0;      /* This field will be configured in p
 2840              		.loc 1 1344 0
 2841 0076 40F20003 		movw	r3, #:lower16:DMA_InitStructure
 2842 007a C0F20003 		movt	r3, #:upper16:DMA_InitStructure
 2843 007e 4FF00002 		mov	r2, #0
 2844 0082 9A60     		str	r2, [r3, #8]
1345:../STM32F4-Discovery/stm32f4_discovery_audio_codec.c ****     DMA_InitStructure.DMA_DIR = DMA_DIR_MemoryToPeripheral;
 2845              		.loc 1 1345 0
 2846 0084 40F20003 		movw	r3, #:lower16:DMA_InitStructure
 2847 0088 C0F20003 		movt	r3, #:upper16:DMA_InitStructure
 2848 008c 4FF04002 		mov	r2, #64
 2849 0090 DA60     		str	r2, [r3, #12]
1346:../STM32F4-Discovery/stm32f4_discovery_audio_codec.c ****     DMA_InitStructure.DMA_BufferSize = (uint32_t)0xFFFE;      /* This field will be configured in p
 2850              		.loc 1 1346 0
 2851 0092 40F20003 		movw	r3, #:lower16:DMA_InitStructure
 2852 0096 C0F20003 		movt	r3, #:upper16:DMA_InitStructure
 2853 009a 4FF6FE72 		movw	r2, #65534
 2854 009e 1A61     		str	r2, [r3, #16]
1347:../STM32F4-Discovery/stm32f4_discovery_audio_codec.c ****     DMA_InitStructure.DMA_PeripheralInc = DMA_PeripheralInc_Disable;
 2855              		.loc 1 1347 0
 2856 00a0 40F20003 		movw	r3, #:lower16:DMA_InitStructure
 2857 00a4 C0F20003 		movt	r3, #:upper16:DMA_InitStructure
 2858 00a8 4FF00002 		mov	r2, #0
 2859 00ac 5A61     		str	r2, [r3, #20]
1348:../STM32F4-Discovery/stm32f4_discovery_audio_codec.c ****     DMA_InitStructure.DMA_MemoryInc = DMA_MemoryInc_Enable;
 2860              		.loc 1 1348 0
 2861 00ae 40F20003 		movw	r3, #:lower16:DMA_InitStructure
 2862 00b2 C0F20003 		movt	r3, #:upper16:DMA_InitStructure
 2863 00b6 4FF48062 		mov	r2, #1024
 2864 00ba 9A61     		str	r2, [r3, #24]
1349:../STM32F4-Discovery/stm32f4_discovery_audio_codec.c ****     DMA_InitStructure.DMA_PeripheralDataSize = AUDIO_MAL_DMA_PERIPH_DATA_SIZE;
 2865              		.loc 1 1349 0
 2866 00bc 40F20003 		movw	r3, #:lower16:DMA_InitStructure
 2867 00c0 C0F20003 		movt	r3, #:upper16:DMA_InitStructure
 2868 00c4 4FF40062 		mov	r2, #2048
 2869 00c8 DA61     		str	r2, [r3, #28]
1350:../STM32F4-Discovery/stm32f4_discovery_audio_codec.c ****     DMA_InitStructure.DMA_MemoryDataSize = AUDIO_MAL_DMA_MEM_DATA_SIZE; 
 2870              		.loc 1 1350 0
 2871 00ca 40F20003 		movw	r3, #:lower16:DMA_InitStructure
 2872 00ce C0F20003 		movt	r3, #:upper16:DMA_InitStructure
 2873 00d2 4FF40052 		mov	r2, #8192
 2874 00d6 1A62     		str	r2, [r3, #32]
1351:../STM32F4-Discovery/stm32f4_discovery_audio_codec.c **** #ifdef AUDIO_MAL_MODE_NORMAL
1352:../STM32F4-Discovery/stm32f4_discovery_audio_codec.c ****     DMA_InitStructure.DMA_Mode = DMA_Mode_Normal;
 2875              		.loc 1 1352 0
 2876 00d8 40F20003 		movw	r3, #:lower16:DMA_InitStructure
 2877 00dc C0F20003 		movt	r3, #:upper16:DMA_InitStructure
 2878 00e0 4FF00002 		mov	r2, #0
 2879 00e4 5A62     		str	r2, [r3, #36]
1353:../STM32F4-Discovery/stm32f4_discovery_audio_codec.c **** #elif defined(AUDIO_MAL_MODE_CIRCULAR)
1354:../STM32F4-Discovery/stm32f4_discovery_audio_codec.c ****     DMA_InitStructure.DMA_Mode = DMA_Mode_Circular;
1355:../STM32F4-Discovery/stm32f4_discovery_audio_codec.c **** #else
1356:../STM32F4-Discovery/stm32f4_discovery_audio_codec.c **** #error "AUDIO_MAL_MODE_NORMAL or AUDIO_MAL_MODE_CIRCULAR should be selected !!"
1357:../STM32F4-Discovery/stm32f4_discovery_audio_codec.c **** #endif /* AUDIO_MAL_MODE_NORMAL */  
1358:../STM32F4-Discovery/stm32f4_discovery_audio_codec.c ****     DMA_InitStructure.DMA_Priority = DMA_Priority_High;
 2880              		.loc 1 1358 0
 2881 00e6 40F20003 		movw	r3, #:lower16:DMA_InitStructure
 2882 00ea C0F20003 		movt	r3, #:upper16:DMA_InitStructure
 2883 00ee 4FF40032 		mov	r2, #131072
 2884 00f2 9A62     		str	r2, [r3, #40]
1359:../STM32F4-Discovery/stm32f4_discovery_audio_codec.c ****     DMA_InitStructure.DMA_FIFOMode = DMA_FIFOMode_Disable;         
 2885              		.loc 1 1359 0
 2886 00f4 40F20003 		movw	r3, #:lower16:DMA_InitStructure
 2887 00f8 C0F20003 		movt	r3, #:upper16:DMA_InitStructure
 2888 00fc 4FF00002 		mov	r2, #0
 2889 0100 DA62     		str	r2, [r3, #44]
1360:../STM32F4-Discovery/stm32f4_discovery_audio_codec.c ****     DMA_InitStructure.DMA_FIFOThreshold = DMA_FIFOThreshold_1QuarterFull;
 2890              		.loc 1 1360 0
 2891 0102 40F20003 		movw	r3, #:lower16:DMA_InitStructure
 2892 0106 C0F20003 		movt	r3, #:upper16:DMA_InitStructure
 2893 010a 4FF00002 		mov	r2, #0
 2894 010e 1A63     		str	r2, [r3, #48]
1361:../STM32F4-Discovery/stm32f4_discovery_audio_codec.c ****     DMA_InitStructure.DMA_MemoryBurst = DMA_MemoryBurst_Single;
 2895              		.loc 1 1361 0
 2896 0110 40F20003 		movw	r3, #:lower16:DMA_InitStructure
 2897 0114 C0F20003 		movt	r3, #:upper16:DMA_InitStructure
 2898 0118 4FF00002 		mov	r2, #0
 2899 011c 5A63     		str	r2, [r3, #52]
1362:../STM32F4-Discovery/stm32f4_discovery_audio_codec.c ****     DMA_InitStructure.DMA_PeripheralBurst = DMA_PeripheralBurst_Single;  
 2900              		.loc 1 1362 0
 2901 011e 40F20003 		movw	r3, #:lower16:DMA_InitStructure
 2902 0122 C0F20003 		movt	r3, #:upper16:DMA_InitStructure
 2903 0126 4FF00002 		mov	r2, #0
 2904 012a 9A63     		str	r2, [r3, #56]
1363:../STM32F4-Discovery/stm32f4_discovery_audio_codec.c ****     DMA_Init(AUDIO_MAL_DMA_STREAM, &DMA_InitStructure);  
 2905              		.loc 1 1363 0
 2906 012c 40F20003 		movw	r3, #:lower16:AUDIO_MAL_DMA_STREAM
